ARM GAS  /var/folders/dt/0wfd0knj7gs46m8vwfzktm600000gn/T//cceO7GPh.s 			page 1


   1              		.syntax unified
   2              		.cpu cortex-m3
   3              		.fpu softvfp
   4              		.eabi_attribute 20, 1
   5              		.eabi_attribute 21, 1
   6              		.eabi_attribute 23, 3
   7              		.eabi_attribute 24, 1
   8              		.eabi_attribute 25, 1
   9              		.eabi_attribute 26, 1
  10              		.eabi_attribute 30, 2
  11              		.eabi_attribute 34, 1
  12              		.eabi_attribute 18, 4
  13              		.thumb
  14              		.file	"evtimer.c"
  15              		.text
  16              	.Ltext0:
  17              		.cfi_sections	.debug_frame
  18              		.section	.text.tmrcb,"ax",%progbits
  19              		.align	2
  20              		.p2align 4,,15
  21              		.thumb
  22              		.thumb_func
  23              		.type	tmrcb, %function
  24              	tmrcb:
  25              	.LFB7:
  26              		.file 1 "../../os/various/evtimer.c"
  27              		.loc 1 39 0
  28              		.cfi_startproc
  29              		@ args = 0, pretend = 0, frame = 0
  30              		@ frame_needed = 0, uses_anonymous_args = 0
  31              	.LVL0:
  32 0000 10B5     		push	{r4, lr}
  33              	.LCFI0:
  34              		.cfi_def_cfa_offset 8
  35              		.cfi_offset 4, -8
  36              		.cfi_offset 14, -4
  37              		.loc 1 42 0
  38 0002 0021     		movs	r1, #0
  39              		.loc 1 39 0
  40 0004 0446     		mov	r4, r0
  41              	.LVL1:
  42              		.loc 1 42 0
  43 0006 00F11400 		add	r0, r0, #20
  44              	.LVL2:
  45 000a FFF7FEFF 		bl	chEvtBroadcastFlagsI
  46              	.LVL3:
  47              		.loc 1 43 0
  48 000e A169     		ldr	r1, [r4, #24]
  49 0010 40F20002 		movw	r2, #:lower16:tmrcb
  50 0014 2046     		mov	r0, r4
  51 0016 C0F20002 		movt	r2, #:upper16:tmrcb
  52 001a 2346     		mov	r3, r4
  53              		.loc 1 44 0
  54 001c BDE81040 		pop	{r4, lr}
  55              		.loc 1 43 0
  56 0020 FFF7FEBF 		b	chVTSetI
  57              	.LVL4:
ARM GAS  /var/folders/dt/0wfd0knj7gs46m8vwfzktm600000gn/T//cceO7GPh.s 			page 2


  58              		.cfi_endproc
  59              	.LFE7:
  60              		.size	tmrcb, .-tmrcb
  61 0024 AFF30080 		.section	.text.evtStart,"ax",%progbits
  61      AFF30080 
  61      AFF30080 
  62              		.align	2
  63              		.p2align 4,,15
  64              		.global	evtStart
  65              		.thumb
  66              		.thumb_func
  67              		.type	evtStart, %function
  68              	evtStart:
  69              	.LFB8:
  70              		.loc 1 52 0
  71              		.cfi_startproc
  72              		@ args = 0, pretend = 0, frame = 0
  73              		@ frame_needed = 0, uses_anonymous_args = 0
  74              	.LVL5:
  75 0000 10B5     		push	{r4, lr}
  76              	.LCFI1:
  77              		.cfi_def_cfa_offset 8
  78              		.cfi_offset 4, -8
  79              		.cfi_offset 14, -4
  80              	.LBB2:
  81              		.loc 1 54 0
  82 0002 2023     		movs	r3, #32
  83              	.LVL6:
  84              	.LBE2:
  85              		.loc 1 52 0
  86 0004 0446     		mov	r4, r0
  87              	.LBB3:
  88              		.loc 1 54 0
  89              	@ 54 "../../os/various/evtimer.c" 1
  90 0006 83F31188 		msr     BASEPRI, r3
  91              	@ 0 "" 2
  92              	.LVL7:
  93              		.thumb
  94              	.LBE3:
  95              		.loc 1 56 0
  96 000a C368     		ldr	r3, [r0, #12]
  97              	.LVL8:
  98 000c 1BB1     		cbz	r3, .L5
  99              	.LVL9:
 100              	.L3:
 101              	.LBB4:
 102              		.loc 1 59 0
 103 000e 0023     		movs	r3, #0
 104              	.LVL10:
 105              	@ 59 "../../os/various/evtimer.c" 1
 106 0010 83F31188 		msr     BASEPRI, r3
 107              	@ 0 "" 2
 108              	.LVL11:
 109              		.thumb
 110 0014 10BD     		pop	{r4, pc}
 111              	.LVL12:
 112              	.L5:
ARM GAS  /var/folders/dt/0wfd0knj7gs46m8vwfzktm600000gn/T//cceO7GPh.s 			page 3


 113              	.LBE4:
 114              		.loc 1 57 0
 115 0016 8169     		ldr	r1, [r0, #24]
 116 0018 024A     		ldr	r2, .L6
 117 001a 0346     		mov	r3, r0
 118 001c FFF7FEFF 		bl	chVTSetI
 119              	.LVL13:
 120 0020 F5E7     		b	.L3
 121              	.L7:
 122 0022 00BF     		.align	2
 123              	.L6:
 124 0024 00000000 		.word	tmrcb
 125              		.cfi_endproc
 126              	.LFE8:
 127              		.size	evtStart, .-evtStart
 128 0028 AFF30080 		.section	.text.evtStop,"ax",%progbits
 128      AFF30080 
 129              		.align	2
 130              		.p2align 4,,15
 131              		.global	evtStop
 132              		.thumb
 133              		.thumb_func
 134              		.type	evtStop, %function
 135              	evtStop:
 136              	.LFB9:
 137              		.loc 1 68 0
 138              		.cfi_startproc
 139              		@ args = 0, pretend = 0, frame = 0
 140              		@ frame_needed = 0, uses_anonymous_args = 0
 141              	.LVL14:
 142 0000 08B5     		push	{r3, lr}
 143              	.LCFI2:
 144              		.cfi_def_cfa_offset 8
 145              		.cfi_offset 3, -8
 146              		.cfi_offset 14, -4
 147              	.LBB5:
 148              		.loc 1 70 0
 149 0002 2023     		movs	r3, #32
 150              	.LVL15:
 151              	@ 70 "../../os/various/evtimer.c" 1
 152 0004 83F31188 		msr     BASEPRI, r3
 153              	@ 0 "" 2
 154              	.LVL16:
 155              		.thumb
 156              	.LBE5:
 157              		.loc 1 72 0
 158 0008 C368     		ldr	r3, [r0, #12]
 159              	.LVL17:
 160 000a 0BB1     		cbz	r3, .L9
 161              		.loc 1 73 0
 162 000c FFF7FEFF 		bl	chVTResetI
 163              	.LVL18:
 164              	.L9:
 165              	.LBB6:
 166              		.loc 1 75 0
 167 0010 0023     		movs	r3, #0
 168              	.LVL19:
ARM GAS  /var/folders/dt/0wfd0knj7gs46m8vwfzktm600000gn/T//cceO7GPh.s 			page 4


 169              	@ 75 "../../os/various/evtimer.c" 1
 170 0012 83F31188 		msr     BASEPRI, r3
 171              	@ 0 "" 2
 172              	.LVL20:
 173              		.thumb
 174 0016 08BD     		pop	{r3, pc}
 175              	.LBE6:
 176              		.cfi_endproc
 177              	.LFE9:
 178              		.size	evtStop, .-evtStop
 179 0018 AFF30080 		.text
 179      AFF30080 
 180              	.Letext0:
 181              		.file 2 "/Users/toxygen/Applications/yagarto-4.7.2/bin/../lib/gcc/arm-none-eabi/4.7.2/../../../../
 182              		.file 3 "../../os/ports/GCC/ARMCMx/chtypes.h"
 183              		.file 4 "../../os/kernel/include/chlists.h"
 184              		.file 5 "../../os/kernel/include/chthreads.h"
 185              		.file 6 "../../os/ports/GCC/ARMCMx/chcore_v7m.h"
 186              		.file 7 "../../os/kernel/include/chvt.h"
 187              		.file 8 "../../os/kernel/include/chmtx.h"
 188              		.file 9 "../../os/kernel/include/chevents.h"
 189              		.file 10 "../../os/various/evtimer.h"