ARM GAS  /var/folders/dt/0wfd0knj7gs46m8vwfzktm600000gn/T//cczoWvr4.s 			page 1


   1              		.syntax unified
   2              		.cpu cortex-m3
   3              		.fpu softvfp
   4              		.eabi_attribute 20, 1
   5              		.eabi_attribute 21, 1
   6              		.eabi_attribute 23, 3
   7              		.eabi_attribute 24, 1
   8              		.eabi_attribute 25, 1
   9              		.eabi_attribute 26, 1
  10              		.eabi_attribute 30, 2
  11              		.eabi_attribute 34, 1
  12              		.eabi_attribute 18, 4
  13              		.thumb
  14              		.file	"ff.c"
  15              		.text
  16              	.Ltext0:
  17              		.cfi_sections	.debug_frame
  18              		.section	.text.get_fileinfo,"ax",%progbits
  19              		.align	2
  20              		.p2align 4,,15
  21              		.thumb
  22              		.thumb_func
  23              		.type	get_fileinfo, %function
  24              	get_fileinfo:
  25              	.LFB18:
  26              		.file 1 "../../ext/fatfs/src/ff.c"
  27              		.loc 1 1834 0
  28              		.cfi_startproc
  29              		@ args = 0, pretend = 0, frame = 0
  30              		@ frame_needed = 0, uses_anonymous_args = 0
  31              		@ link register save eliminated.
  32              	.LVL0:
  33              		.loc 1 1841 0
  34 0000 0369     		ldr	r3, [r0, #16]
  35              		.loc 1 1834 0
  36 0002 70B4     		push	{r4, r5, r6}
  37              	.LCFI0:
  38              		.cfi_def_cfa_offset 12
  39              		.cfi_offset 4, -12
  40              		.cfi_offset 5, -8
  41              		.cfi_offset 6, -4
  42              		.loc 1 1840 0
  43 0004 01F10904 		add	r4, r1, #9
  44              	.LVL1:
  45              		.loc 1 1841 0
  46 0008 002B     		cmp	r3, #0
  47 000a 39D0     		beq	.L2
  48              		.loc 1 1842 0
  49 000c 4569     		ldr	r5, [r0, #20]
  50              	.LVL2:
  51 000e 2246     		mov	r2, r4
  52              		.loc 1 1844 0
  53 0010 0020     		movs	r0, #0
  54              	.LVL3:
  55              	.L5:
  56              		.loc 1 1845 0
  57 0012 2B5C     		ldrb	r3, [r5, r0]	@ zero_extendqisi2
ARM GAS  /var/folders/dt/0wfd0knj7gs46m8vwfzktm600000gn/T//cczoWvr4.s 			page 2


  58              	.LVL4:
  59              		.loc 1 1844 0
  60 0014 0130     		adds	r0, r0, #1
  61              	.LVL5:
  62              		.loc 1 1846 0
  63 0016 202B     		cmp	r3, #32
  64 0018 1446     		mov	r4, r2
  65 001a 07D0     		beq	.L3
  66              		.loc 1 1847 0
  67 001c 052B     		cmp	r3, #5
  68 001e 08BF     		it	eq
  69 0020 E523     		moveq	r3, #229
  70              	.LVL6:
  71              		.loc 1 1855 0
  72 0022 02F8013B 		strb	r3, [r2], #1
  73              	.LVL7:
  74              		.loc 1 1844 0
  75 0026 0828     		cmp	r0, #8
  76              		.loc 1 1855 0
  77 0028 1446     		mov	r4, r2
  78              	.LVL8:
  79              		.loc 1 1844 0
  80 002a F2D1     		bne	.L5
  81              	.LVL9:
  82              	.L3:
  83              		.loc 1 1857 0
  84 002c 2B7A     		ldrb	r3, [r5, #8]	@ zero_extendqisi2
  85 002e 202B     		cmp	r3, #32
  86 0030 0FD0     		beq	.L6
  87              		.loc 1 1858 0
  88 0032 1346     		mov	r3, r2
  89 0034 2E20     		movs	r0, #46
  90 0036 03F8010B 		strb	r0, [r3], #1
  91              	.LVL10:
  92              		.loc 1 1830 0
  93 003a EE1D     		adds	r6, r5, #7
  94 003c 0432     		adds	r2, r2, #4
  95              	.LVL11:
  96              	.L7:
  97              		.loc 1 1860 0
  98 003e 16F8010F 		ldrb	r0, [r6, #1]!	@ zero_extendqisi2
  99              	.LVL12:
 100 0042 1C46     		mov	r4, r3
 101              		.loc 1 1861 0
 102 0044 2028     		cmp	r0, #32
 103 0046 04D0     		beq	.L6
 104              		.loc 1 1869 0
 105 0048 03F8010B 		strb	r0, [r3], #1
 106              	.LVL13:
 107              		.loc 1 1859 0
 108 004c 9342     		cmp	r3, r2
 109              		.loc 1 1869 0
 110 004e 1C46     		mov	r4, r3
 111              	.LVL14:
 112              		.loc 1 1859 0
 113 0050 F5D1     		bne	.L7
 114              	.LVL15:
ARM GAS  /var/folders/dt/0wfd0knj7gs46m8vwfzktm600000gn/T//cczoWvr4.s 			page 3


 115              	.L6:
 116              		.loc 1 1872 0
 117 0052 EB7A     		ldrb	r3, [r5, #11]	@ zero_extendqisi2
 118 0054 0B72     		strb	r3, [r1, #8]
 119              		.loc 1 1873 0
 120 0056 AB7F     		ldrb	r3, [r5, #30]	@ zero_extendqisi2
 121 0058 EE7F     		ldrb	r6, [r5, #31]	@ zero_extendqisi2
 122 005a 287F     		ldrb	r0, [r5, #28]	@ zero_extendqisi2
 123 005c 1B04     		lsls	r3, r3, #16
 124 005e 6A7F     		ldrb	r2, [r5, #29]	@ zero_extendqisi2
 125 0060 43EA0663 		orr	r3, r3, r6, lsl #24
 126 0064 0343     		orrs	r3, r3, r0
 127 0066 43EA0223 		orr	r3, r3, r2, lsl #8
 128 006a 0B60     		str	r3, [r1, #0]
 129              		.loc 1 1874 0
 130 006c 6A7E     		ldrb	r2, [r5, #25]	@ zero_extendqisi2
 131 006e 2B7E     		ldrb	r3, [r5, #24]	@ zero_extendqisi2
 132 0070 43EA0223 		orr	r3, r3, r2, lsl #8
 133 0074 8B80     		strh	r3, [r1, #4]	@ movhi
 134              		.loc 1 1875 0
 135 0076 EA7D     		ldrb	r2, [r5, #23]	@ zero_extendqisi2
 136 0078 AB7D     		ldrb	r3, [r5, #22]	@ zero_extendqisi2
 137 007a 43EA0223 		orr	r3, r3, r2, lsl #8
 138 007e CB80     		strh	r3, [r1, #6]	@ movhi
 139              	.LVL16:
 140              	.L2:
 141              		.loc 1 1877 0
 142 0080 0023     		movs	r3, #0
 143 0082 2370     		strb	r3, [r4, #0]
 144              		.loc 1 1901 0
 145 0084 70BC     		pop	{r4, r5, r6}
 146 0086 7047     		bx	lr
 147              		.cfi_endproc
 148              	.LFE18:
 149              		.size	get_fileinfo, .-get_fileinfo
 150 0088 AFF30080 		.section	.text.move_window,"ax",%progbits
 150      AFF30080 
 151              		.align	2
 152              		.p2align 4,,15
 153              		.thumb
 154              		.thumb_func
 155              		.type	move_window, %function
 156              	move_window:
 157              	.LFB4:
 158              		.loc 1 717 0
 159              		.cfi_startproc
 160              		@ args = 0, pretend = 0, frame = 0
 161              		@ frame_needed = 0, uses_anonymous_args = 0
 162              	.LVL17:
 163 0000 2DE9F041 		push	{r4, r5, r6, r7, r8, lr}
 164              	.LCFI1:
 165              		.cfi_def_cfa_offset 24
 166              		.cfi_offset 4, -24
 167              		.cfi_offset 5, -20
 168              		.cfi_offset 6, -16
 169              		.cfi_offset 7, -12
 170              		.cfi_offset 8, -8
ARM GAS  /var/folders/dt/0wfd0knj7gs46m8vwfzktm600000gn/T//cczoWvr4.s 			page 4


 171              		.cfi_offset 14, -4
 172              		.loc 1 721 0
 173 0004 C56A     		ldr	r5, [r0, #44]
 174              	.LVL18:
 175              		.loc 1 717 0
 176 0006 0446     		mov	r4, r0
 177              		.loc 1 722 0
 178 0008 8D42     		cmp	r5, r1
 179              		.loc 1 717 0
 180 000a 0E46     		mov	r6, r1
 181              		.loc 1 722 0
 182 000c 02D0     		beq	.L29
 183              		.loc 1 724 0
 184 000e 0379     		ldrb	r3, [r0, #4]	@ zero_extendqisi2
 185 0010 73B9     		cbnz	r3, .L27
 186              	.LVL19:
 187              	.L31:
 188              		.loc 1 737 0
 189 0012 16B9     		cbnz	r6, .L39
 190              	.L29:
 191              		.loc 1 744 0
 192 0014 0020     		movs	r0, #0
 193 0016 BDE8F081 		pop	{r4, r5, r6, r7, r8, pc}
 194              	.L39:
 195              		.loc 1 738 0
 196 001a 6078     		ldrb	r0, [r4, #1]	@ zero_extendqisi2
 197 001c 04F13001 		add	r1, r4, #48
 198 0020 3246     		mov	r2, r6
 199 0022 0123     		movs	r3, #1
 200 0024 FFF7FEFF 		bl	disk_read
 201              	.LVL20:
 202 0028 20BB     		cbnz	r0, .L33
 203              		.loc 1 740 0
 204 002a E662     		str	r6, [r4, #44]
 205              		.loc 1 745 0
 206 002c BDE8F081 		pop	{r4, r5, r6, r7, r8, pc}
 207              	.LVL21:
 208              	.L27:
 209              		.loc 1 725 0
 210 0030 00F13008 		add	r8, r0, #48
 211 0034 4146     		mov	r1, r8
 212              	.LVL22:
 213 0036 4078     		ldrb	r0, [r0, #1]	@ zero_extendqisi2
 214              	.LVL23:
 215 0038 2A46     		mov	r2, r5
 216 003a 0123     		movs	r3, #1
 217 003c FFF7FEFF 		bl	disk_write
 218              	.LVL24:
 219 0040 C0B9     		cbnz	r0, .L33
 220              		.loc 1 728 0
 221 0042 E369     		ldr	r3, [r4, #28]
 222 0044 226A     		ldr	r2, [r4, #32]
 223              		.loc 1 727 0
 224 0046 2071     		strb	r0, [r4, #4]
 225              		.loc 1 728 0
 226 0048 9A18     		adds	r2, r3, r2
 227 004a 9542     		cmp	r5, r2
ARM GAS  /var/folders/dt/0wfd0knj7gs46m8vwfzktm600000gn/T//cczoWvr4.s 			page 5


 228 004c E1D2     		bcs	.L31
 229              	.LBB62:
 230              		.loc 1 730 0
 231 004e E778     		ldrb	r7, [r4, #3]	@ zero_extendqisi2
 232              	.LVL25:
 233 0050 012F     		cmp	r7, #1
 234 0052 01D8     		bhi	.L37
 235 0054 DDE7     		b	.L31
 236              	.LVL26:
 237              	.L40:
 238 0056 E369     		ldr	r3, [r4, #28]
 239              	.LVL27:
 240              	.L37:
 241              		.loc 1 731 0 discriminator 2
 242 0058 ED18     		adds	r5, r5, r3
 243              	.LVL28:
 244              		.loc 1 730 0 discriminator 2
 245 005a 013F     		subs	r7, r7, #1
 246              		.loc 1 732 0 discriminator 2
 247 005c 0123     		movs	r3, #1
 248 005e 6078     		ldrb	r0, [r4, #1]	@ zero_extendqisi2
 249 0060 4146     		mov	r1, r8
 250 0062 2A46     		mov	r2, r5
 251              		.loc 1 730 0 discriminator 2
 252 0064 FFB2     		uxtb	r7, r7
 253              		.loc 1 732 0 discriminator 2
 254 0066 FFF7FEFF 		bl	disk_write
 255              	.LVL29:
 256              		.loc 1 730 0 discriminator 2
 257 006a 012F     		cmp	r7, #1
 258 006c F3D1     		bne	.L40
 259              	.LBE62:
 260              		.loc 1 737 0
 261 006e 002E     		cmp	r6, #0
 262 0070 D0D0     		beq	.L29
 263 0072 D2E7     		b	.L39
 264              	.LVL30:
 265              	.L33:
 266              		.loc 1 726 0
 267 0074 0120     		movs	r0, #1
 268 0076 BDE8F081 		pop	{r4, r5, r6, r7, r8, pc}
 269              		.cfi_endproc
 270              	.LFE4:
 271              		.size	move_window, .-move_window
 272 007a 00BFAFF3 		.section	.text.sync,"ax",%progbits
 272      0080
 273              		.align	2
 274              		.p2align 4,,15
 275              		.thumb
 276              		.thumb_func
 277              		.type	sync, %function
 278              	sync:
 279              	.LFB5:
 280              		.loc 1 758 0
 281              		.cfi_startproc
 282              		@ args = 0, pretend = 0, frame = 8
 283              		@ frame_needed = 0, uses_anonymous_args = 0
ARM GAS  /var/folders/dt/0wfd0knj7gs46m8vwfzktm600000gn/T//cczoWvr4.s 			page 6


 284              	.LVL31:
 285 0000 2DE9F04F 		push	{r4, r5, r6, r7, r8, r9, sl, fp, lr}
 286              	.LCFI2:
 287              		.cfi_def_cfa_offset 36
 288              		.cfi_offset 4, -36
 289              		.cfi_offset 5, -32
 290              		.cfi_offset 6, -28
 291              		.cfi_offset 7, -24
 292              		.cfi_offset 8, -20
 293              		.cfi_offset 9, -16
 294              		.cfi_offset 10, -12
 295              		.cfi_offset 11, -8
 296              		.cfi_offset 14, -4
 297              		.loc 1 762 0
 298 0004 0021     		movs	r1, #0
 299              		.loc 1 758 0
 300 0006 83B0     		sub	sp, sp, #12
 301              	.LCFI3:
 302              		.cfi_def_cfa_offset 48
 303              		.loc 1 758 0
 304 0008 0446     		mov	r4, r0
 305              		.loc 1 762 0
 306 000a FFF7FEFF 		bl	move_window
 307              	.LVL32:
 308 000e 0346     		mov	r3, r0
 309              	.LVL33:
 310              		.loc 1 763 0
 311 0010 50B9     		cbnz	r0, .L42
 312              		.loc 1 765 0
 313 0012 2378     		ldrb	r3, [r4, #0]	@ zero_extendqisi2
 314 0014 032B     		cmp	r3, #3
 315 0016 0BD0     		beq	.L49
 316              	.LVL34:
 317              	.L43:
 318              		.loc 1 779 0
 319 0018 0021     		movs	r1, #0
 320 001a 6078     		ldrb	r0, [r4, #1]	@ zero_extendqisi2
 321 001c 0A46     		mov	r2, r1
 322 001e FFF7FEFF 		bl	disk_ioctl
 323              	.LVL35:
 324 0022 031C     		adds	r3, r0, #0
 325 0024 18BF     		it	ne
 326 0026 0123     		movne	r3, #1
 327              	.L42:
 328              	.LVL36:
 329              		.loc 1 784 0
 330 0028 1846     		mov	r0, r3
 331 002a 03B0     		add	sp, sp, #12
 332 002c BDE8F08F 		pop	{r4, r5, r6, r7, r8, r9, sl, fp, pc}
 333              	.LVL37:
 334              	.L49:
 335              		.loc 1 765 0 discriminator 1
 336 0030 6379     		ldrb	r3, [r4, #5]	@ zero_extendqisi2
 337 0032 002B     		cmp	r3, #0
 338 0034 F0D0     		beq	.L43
 339              		.loc 1 768 0
 340 0036 04F13001 		add	r1, r4, #48
ARM GAS  /var/folders/dt/0wfd0knj7gs46m8vwfzktm600000gn/T//cczoWvr4.s 			page 7


 341              	.LVL38:
 342              		.loc 1 766 0
 343 003a E062     		str	r0, [r4, #44]
 344              		.loc 1 755 0
 345 003c 04F50C72 		add	r2, r4, #560
 346              		.loc 1 539 0
 347 0040 0B46     		mov	r3, r1
 348              	.LVL39:
 349              	.L44:
 350              	.LBB63:
 351              	.LBB64:
 352              		.loc 1 542 0
 353 0042 03F8010B 		strb	r0, [r3], #1
 354              	.LVL40:
 355              		.loc 1 541 0
 356 0046 9342     		cmp	r3, r2
 357 0048 FBD1     		bne	.L44
 358              	.LBE64:
 359              	.LBE63:
 360              		.loc 1 773 0
 361 004a E368     		ldr	r3, [r4, #12]
 362              	.LVL41:
 363              		.loc 1 772 0
 364 004c 2269     		ldr	r2, [r4, #16]
 365              		.loc 1 773 0
 366 004e 4FEA136B 		lsr	fp, r3, #24
 367 0052 CDF804B0 		str	fp, [sp, #4]
 368 0056 C3F3072C 		ubfx	ip, r3, #8, #8
 369 005a 4FEA134E 		lsr	lr, r3, #16
 370              		.loc 1 769 0
 371 005e 4FF0550B 		mov	fp, #85
 372              		.loc 1 773 0
 373 0062 84F81C32 		strb	r3, [r4, #540]
 374 0066 019B     		ldr	r3, [sp, #4]
 375              		.loc 1 770 0
 376 0068 6120     		movs	r0, #97
 377              	.LVL42:
 378 006a 5227     		movs	r7, #82
 379 006c 4125     		movs	r5, #65
 380              		.loc 1 771 0
 381 006e 7226     		movs	r6, #114
 382              		.loc 1 772 0
 383 0070 C2F3072A 		ubfx	sl, r2, #8, #8
 384 0074 4FEA1249 		lsr	r9, r2, #16
 385 0078 4FEA1268 		lsr	r8, r2, #24
 386              		.loc 1 769 0
 387 007c 84F82EB2 		strb	fp, [r4, #558]
 388 0080 4FF0AA0B 		mov	fp, #170
 389              		.loc 1 770 0
 390 0084 84F83200 		strb	r0, [r4, #50]
 391              		.loc 1 771 0
 392 0088 84F81702 		strb	r0, [r4, #535]
 393              		.loc 1 772 0
 394 008c 84F81822 		strb	r2, [r4, #536]
 395              		.loc 1 773 0
 396 0090 84F81F32 		strb	r3, [r4, #543]
 397              		.loc 1 769 0
ARM GAS  /var/folders/dt/0wfd0knj7gs46m8vwfzktm600000gn/T//cczoWvr4.s 			page 8


 398 0094 84F82FB2 		strb	fp, [r4, #559]
 399              		.loc 1 775 0
 400 0098 0123     		movs	r3, #1
 401              		.loc 1 770 0
 402 009a 84F83070 		strb	r7, [r4, #48]
 403 009e 84F83170 		strb	r7, [r4, #49]
 404 00a2 84F83350 		strb	r5, [r4, #51]
 405              		.loc 1 771 0
 406 00a6 84F81462 		strb	r6, [r4, #532]
 407 00aa 84F81562 		strb	r6, [r4, #533]
 408 00ae 84F81652 		strb	r5, [r4, #534]
 409              		.loc 1 772 0
 410 00b2 84F819A2 		strb	sl, [r4, #537]
 411 00b6 84F81A92 		strb	r9, [r4, #538]
 412 00ba 84F81B82 		strb	r8, [r4, #539]
 413              		.loc 1 773 0
 414 00be 84F81DC2 		strb	ip, [r4, #541]
 415 00c2 84F81EE2 		strb	lr, [r4, #542]
 416              		.loc 1 775 0
 417 00c6 6078     		ldrb	r0, [r4, #1]	@ zero_extendqisi2
 418 00c8 6269     		ldr	r2, [r4, #20]
 419 00ca FFF7FEFF 		bl	disk_write
 420              	.LVL43:
 421              		.loc 1 776 0
 422 00ce 0023     		movs	r3, #0
 423 00d0 6371     		strb	r3, [r4, #5]
 424 00d2 A1E7     		b	.L43
 425              		.cfi_endproc
 426              	.LFE5:
 427              		.size	sync, .-sync
 428 00d4 AFF30080 		.section	.text.validate,"ax",%progbits
 428      AFF30080 
 428      AFF30080 
 429              		.align	2
 430              		.p2align 4,,15
 431              		.thumb
 432              		.thumb_func
 433              		.type	validate, %function
 434              	validate:
 435              	.LFB22:
 436              		.loc 1 2170 0
 437              		.cfi_startproc
 438              		@ args = 0, pretend = 0, frame = 0
 439              		@ frame_needed = 0, uses_anonymous_args = 0
 440              	.LVL44:
 441 0000 08B5     		push	{r3, lr}
 442              	.LCFI4:
 443              		.cfi_def_cfa_offset 8
 444              		.cfi_offset 3, -8
 445              		.cfi_offset 14, -4
 446              		.loc 1 2171 0
 447 0002 08B1     		cbz	r0, .L55
 448              		.loc 1 2171 0 is_stmt 0 discriminator 1
 449 0004 0378     		ldrb	r3, [r0, #0]	@ zero_extendqisi2
 450 0006 0BB9     		cbnz	r3, .L57
 451              	.L55:
 452              		.loc 1 2172 0 is_stmt 1
ARM GAS  /var/folders/dt/0wfd0knj7gs46m8vwfzktm600000gn/T//cczoWvr4.s 			page 9


 453 0008 0920     		movs	r0, #9
 454              	.LVL45:
 455              		.loc 1 2180 0
 456 000a 08BD     		pop	{r3, pc}
 457              	.LVL46:
 458              	.L57:
 459              		.loc 1 2171 0 discriminator 1
 460 000c C388     		ldrh	r3, [r0, #6]
 461 000e 8B42     		cmp	r3, r1
 462 0010 FAD1     		bne	.L55
 463              	.LVL47:
 464              	.LBB67:
 465              	.LBB68:
 466              		.loc 1 2176 0
 467 0012 4078     		ldrb	r0, [r0, #1]	@ zero_extendqisi2
 468              	.LVL48:
 469 0014 FFF7FEFF 		bl	disk_status
 470              	.LVL49:
 471 0018 10F0010F 		tst	r0, #1
 472              		.loc 1 2177 0
 473 001c 0CBF     		ite	eq
 474 001e 0020     		moveq	r0, #0
 475 0020 0320     		movne	r0, #3
 476 0022 08BD     		pop	{r3, pc}
 477              	.LBE68:
 478              	.LBE67:
 479              		.cfi_endproc
 480              	.LFE22:
 481              		.size	validate, .-validate
 482 0024 AFF30080 		.section	.text.check_fs,"ax",%progbits
 482      AFF30080 
 482      AFF30080 
 483              		.align	2
 484              		.p2align 4,,15
 485              		.thumb
 486              		.thumb_func
 487              		.type	check_fs, %function
 488              	check_fs:
 489              	.LFB20:
 490              		.loc 1 1979 0
 491              		.cfi_startproc
 492              		@ args = 0, pretend = 0, frame = 0
 493              		@ frame_needed = 0, uses_anonymous_args = 0
 494              	.LVL50:
 495 0000 10B5     		push	{r4, lr}
 496              	.LCFI5:
 497              		.cfi_def_cfa_offset 8
 498              		.cfi_offset 4, -8
 499              		.cfi_offset 14, -4
 500              		.loc 1 1979 0
 501 0002 0446     		mov	r4, r0
 502 0004 0A46     		mov	r2, r1
 503              		.loc 1 1980 0
 504 0006 4078     		ldrb	r0, [r0, #1]	@ zero_extendqisi2
 505              	.LVL51:
 506 0008 04F13001 		add	r1, r4, #48
 507              	.LVL52:
ARM GAS  /var/folders/dt/0wfd0knj7gs46m8vwfzktm600000gn/T//cczoWvr4.s 			page 10


 508 000c 0123     		movs	r3, #1
 509 000e FFF7FEFF 		bl	disk_read
 510              	.LVL53:
 511 0012 08B1     		cbz	r0, .L63
 512              		.loc 1 1981 0
 513 0014 0320     		movs	r0, #3
 514 0016 10BD     		pop	{r4, pc}
 515              	.L63:
 516              		.loc 1 1982 0
 517 0018 94F82F12 		ldrb	r1, [r4, #559]	@ zero_extendqisi2
 518 001c 94F82E22 		ldrb	r2, [r4, #558]	@ zero_extendqisi2
 519 0020 4AF65523 		movw	r3, #43605
 520 0024 42EA0122 		orr	r2, r2, r1, lsl #8
 521 0028 12B2     		sxth	r2, r2
 522 002a CFF6FF73 		movt	r3, 65535
 523 002e 9A42     		cmp	r2, r3
 524 0030 01D0     		beq	.L64
 525              		.loc 1 1983 0
 526 0032 0220     		movs	r0, #2
 527              	.L59:
 528              		.loc 1 1991 0
 529 0034 10BD     		pop	{r4, pc}
 530              	.L64:
 531              		.loc 1 1985 0
 532 0036 94F86830 		ldrb	r3, [r4, #104]	@ zero_extendqisi2
 533 003a 94F86920 		ldrb	r2, [r4, #105]	@ zero_extendqisi2
 534 003e 1B04     		lsls	r3, r3, #16
 535 0040 94F86610 		ldrb	r1, [r4, #102]	@ zero_extendqisi2
 536 0044 43EA0263 		orr	r3, r3, r2, lsl #24
 537 0048 94F86720 		ldrb	r2, [r4, #103]	@ zero_extendqisi2
 538 004c 0B43     		orrs	r3, r3, r1
 539 004e 43EA0222 		orr	r2, r3, r2, lsl #8
 540 0052 44F24613 		movw	r3, #16710
 541 0056 22F07F42 		bic	r2, r2, #-16777216
 542 005a C0F25403 		movt	r3, 84
 543 005e 9A42     		cmp	r2, r3
 544 0060 E8D0     		beq	.L59
 545              	.LVL54:
 546              	.LBB71:
 547              	.LBB72:
 548              		.loc 1 1987 0
 549 0062 94F88420 		ldrb	r2, [r4, #132]	@ zero_extendqisi2
 550 0066 94F88500 		ldrb	r0, [r4, #133]	@ zero_extendqisi2
 551 006a 1204     		lsls	r2, r2, #16
 552 006c 94F88210 		ldrb	r1, [r4, #130]	@ zero_extendqisi2
 553 0070 42EA0062 		orr	r2, r2, r0, lsl #24
 554 0074 94F88300 		ldrb	r0, [r4, #131]	@ zero_extendqisi2
 555 0078 0A43     		orrs	r2, r2, r1
 556 007a 42EA0020 		orr	r0, r2, r0, lsl #8
 557 007e 20F07F40 		bic	r0, r0, #-16777216
 558              	.LBE72:
 559              	.LBE71:
 560              		.loc 1 1988 0
 561 0082 C01A     		subs	r0, r0, r3
 562 0084 18BF     		it	ne
 563 0086 0120     		movne	r0, #1
 564 0088 10BD     		pop	{r4, pc}
ARM GAS  /var/folders/dt/0wfd0knj7gs46m8vwfzktm600000gn/T//cczoWvr4.s 			page 11


 565              		.cfi_endproc
 566              	.LFE20:
 567              		.size	check_fs, .-check_fs
 568 008a 00BFAFF3 		.section	.text.chk_mounted,"ax",%progbits
 568      0080
 569              		.align	2
 570              		.p2align 4,,15
 571              		.thumb
 572              		.thumb_func
 573              		.type	chk_mounted, %function
 574              	chk_mounted:
 575              	.LFB21:
 576              		.loc 1 2006 0
 577              		.cfi_startproc
 578              		@ args = 0, pretend = 0, frame = 0
 579              		@ frame_needed = 0, uses_anonymous_args = 0
 580              	.LVL55:
 581 0000 F8B5     		push	{r3, r4, r5, r6, r7, lr}
 582              	.LCFI6:
 583              		.cfi_def_cfa_offset 24
 584              		.cfi_offset 3, -24
 585              		.cfi_offset 4, -20
 586              		.cfi_offset 5, -16
 587              		.cfi_offset 6, -12
 588              		.cfi_offset 7, -8
 589              		.cfi_offset 14, -4
 590              		.loc 1 2012 0
 591 0002 0368     		ldr	r3, [r0, #0]
 592              	.LVL56:
 593              		.loc 1 2006 0
 594 0004 1546     		mov	r5, r2
 595              		.loc 1 2016 0
 596 0006 1C78     		ldrb	r4, [r3, #0]	@ zero_extendqisi2
 597 0008 303C     		subs	r4, r4, #48
 598              	.LVL57:
 599              		.loc 1 2017 0
 600 000a 092C     		cmp	r4, #9
 601 000c 02D8     		bhi	.L69
 602              		.loc 1 2017 0 is_stmt 0 discriminator 1
 603 000e 5A78     		ldrb	r2, [r3, #1]	@ zero_extendqisi2
 604              	.LVL58:
 605 0010 3A2A     		cmp	r2, #58
 606 0012 16D0     		beq	.L117
 607              	.L69:
 608              		.loc 1 2030 0 is_stmt 1
 609 0014 B94B     		ldr	r3, .L124
 610              	.LVL59:
 611 0016 1C68     		ldr	r4, [r3, #0]
 612              	.LVL60:
 613 0018 0C60     		str	r4, [r1, #0]
 614              		.loc 1 2031 0
 615 001a 84B1     		cbz	r4, .L118
 616              		.loc 1 2035 0
 617 001c 2378     		ldrb	r3, [r4, #0]	@ zero_extendqisi2
 618 001e B3B1     		cbz	r3, .L70
 619              		.loc 1 2036 0
 620 0020 6078     		ldrb	r0, [r4, #1]	@ zero_extendqisi2
ARM GAS  /var/folders/dt/0wfd0knj7gs46m8vwfzktm600000gn/T//cczoWvr4.s 			page 12


 621              	.LVL61:
 622 0022 FFF7FEFF 		bl	disk_status
 623              	.LVL62:
 624              		.loc 1 2037 0
 625 0026 C207     		lsls	r2, r0, #31
 626 0028 11D4     		bmi	.L70
 627              		.loc 1 2039 0
 628 002a 002D     		cmp	r5, #0
 629 002c 1FD0     		beq	.L88
 630              		.loc 1 2039 0 is_stmt 0 discriminator 1
 631 002e 00F00400 		and	r0, r0, #4
 632              	.LVL63:
 633 0032 C0B2     		uxtb	r0, r0
 634              		.loc 1 2040 0 is_stmt 1 discriminator 1
 635 0034 0028     		cmp	r0, #0
 636 0036 14BF     		ite	ne
 637 0038 0A20     		movne	r0, #10
 638 003a 0020     		moveq	r0, #0
 639 003c F8BD     		pop	{r3, r4, r5, r6, r7, pc}
 640              	.LVL64:
 641              	.L118:
 642              		.loc 1 2031 0
 643 003e 0C20     		movs	r0, #12
 644              	.LVL65:
 645 0040 F8BD     		pop	{r3, r4, r5, r6, r7, pc}
 646              	.LVL66:
 647              	.L117:
 648              		.loc 1 2018 0
 649 0042 0233     		adds	r3, r3, #2
 650              	.LVL67:
 651 0044 0360     		str	r3, [r0, #0]
 652              		.loc 1 2028 0
 653 0046 002C     		cmp	r4, #0
 654 0048 E4D0     		beq	.L69
 655              		.loc 1 2029 0
 656 004a 0B20     		movs	r0, #11
 657              	.LVL68:
 658 004c F8BD     		pop	{r3, r4, r5, r6, r7, pc}
 659              	.LVL69:
 660              	.L70:
 661              		.loc 1 2049 0
 662 004e 0020     		movs	r0, #0
 663 0050 2070     		strb	r0, [r4, #0]
 664              		.loc 1 2050 0
 665 0052 6070     		strb	r0, [r4, #1]
 666              		.loc 1 2051 0
 667 0054 FFF7FEFF 		bl	disk_initialize
 668              	.LVL70:
 669              		.loc 1 2052 0
 670 0058 C307     		lsls	r3, r0, #31
 671 005a 01D5     		bpl	.L119
 672              		.loc 1 2053 0
 673 005c 0320     		movs	r0, #3
 674              	.LVL71:
 675 005e F8BD     		pop	{r3, r4, r5, r6, r7, pc}
 676              	.LVL72:
 677              	.L119:
ARM GAS  /var/folders/dt/0wfd0knj7gs46m8vwfzktm600000gn/T//cczoWvr4.s 			page 13


 678              		.loc 1 2059 0
 679 0060 3DB1     		cbz	r5, .L71
 680              		.loc 1 2059 0 is_stmt 0 discriminator 1
 681 0062 00F00400 		and	r0, r0, #4
 682              	.LVL73:
 683 0066 C0B2     		uxtb	r0, r0
 684 0068 18B1     		cbz	r0, .L71
 685              		.loc 1 2060 0 is_stmt 1
 686 006a 0A20     		movs	r0, #10
 687 006c F8BD     		pop	{r3, r4, r5, r6, r7, pc}
 688              	.LVL74:
 689              	.L88:
 690              		.loc 1 2042 0
 691 006e 2846     		mov	r0, r5
 692              	.LVL75:
 693 0070 F8BD     		pop	{r3, r4, r5, r6, r7, pc}
 694              	.L71:
 695              	.LVL76:
 696              		.loc 1 2063 0
 697 0072 0021     		movs	r1, #0
 698 0074 2046     		mov	r0, r4
 699 0076 FFF7FEFF 		bl	check_fs
 700              	.LVL77:
 701              		.loc 1 2064 0
 702 007a 0128     		cmp	r0, #1
 703 007c 06D0     		beq	.L120
 704              		.loc 1 2063 0
 705 007e 0025     		movs	r5, #0
 706              	.LVL78:
 707              	.L72:
 708              		.loc 1 2072 0
 709 0080 0328     		cmp	r0, #3
 710 0082 00F0B480 		beq	.L93
 711              		.loc 1 2073 0
 712 0086 C0B1     		cbz	r0, .L121
 713              	.LVL79:
 714              	.L74:
 715 0088 0D20     		movs	r0, #13
 716 008a F8BD     		pop	{r3, r4, r5, r6, r7, pc}
 717              	.LVL80:
 718              	.L120:
 719              		.loc 1 2067 0
 720 008c 94F8F231 		ldrb	r3, [r4, #498]	@ zero_extendqisi2
 721 0090 002B     		cmp	r3, #0
 722 0092 F9D0     		beq	.L74
 723              		.loc 1 2068 0
 724 0094 94F8F821 		ldrb	r2, [r4, #504]	@ zero_extendqisi2
 725 0098 94F8F911 		ldrb	r1, [r4, #505]	@ zero_extendqisi2
 726 009c 1204     		lsls	r2, r2, #16
 727 009e 94F8F631 		ldrb	r3, [r4, #502]	@ zero_extendqisi2
 728 00a2 42EA0162 		orr	r2, r2, r1, lsl #24
 729 00a6 94F8F751 		ldrb	r5, [r4, #503]	@ zero_extendqisi2
 730 00aa 1343     		orrs	r3, r3, r2
 731 00ac 43EA0525 		orr	r5, r3, r5, lsl #8
 732              	.LVL81:
 733              		.loc 1 2069 0
 734 00b0 2046     		mov	r0, r4
ARM GAS  /var/folders/dt/0wfd0knj7gs46m8vwfzktm600000gn/T//cczoWvr4.s 			page 14


 735              	.LVL82:
 736 00b2 2946     		mov	r1, r5
 737 00b4 FFF7FEFF 		bl	check_fs
 738              	.LVL83:
 739 00b8 E2E7     		b	.L72
 740              	.LVL84:
 741              	.L121:
 742              		.loc 1 2077 0
 743 00ba 94F83C20 		ldrb	r2, [r4, #60]	@ zero_extendqisi2
 744 00be 94F83B30 		ldrb	r3, [r4, #59]	@ zero_extendqisi2
 745 00c2 43EA0223 		orr	r3, r3, r2, lsl #8
 746 00c6 B3F5007F 		cmp	r3, #512
 747 00ca DDD1     		bne	.L74
 748              		.loc 1 2080 0
 749 00cc 94F84720 		ldrb	r2, [r4, #71]	@ zero_extendqisi2
 750 00d0 94F84630 		ldrb	r3, [r4, #70]	@ zero_extendqisi2
 751              	.LVL85:
 752              		.loc 1 2081 0
 753 00d4 53EA0222 		orrs	r2, r3, r2, lsl #8
 754              	.LVL86:
 755 00d8 0DD1     		bne	.L75
 756              		.loc 1 2081 0 is_stmt 0 discriminator 1
 757 00da 94F85620 		ldrb	r2, [r4, #86]	@ zero_extendqisi2
 758              	.LVL87:
 759 00de 94F85710 		ldrb	r1, [r4, #87]	@ zero_extendqisi2
 760 00e2 1204     		lsls	r2, r2, #16
 761 00e4 94F85430 		ldrb	r3, [r4, #84]	@ zero_extendqisi2
 762              	.LVL88:
 763 00e8 42EA0161 		orr	r1, r2, r1, lsl #24
 764 00ec 94F85520 		ldrb	r2, [r4, #85]	@ zero_extendqisi2
 765 00f0 0B43     		orrs	r3, r3, r1
 766 00f2 43EA0222 		orr	r2, r3, r2, lsl #8
 767              	.LVL89:
 768              	.L75:
 769              		.loc 1 2084 0 is_stmt 1
 770 00f6 94F84000 		ldrb	r0, [r4, #64]	@ zero_extendqisi2
 771              	.LVL90:
 772              		.loc 1 2082 0
 773 00fa E261     		str	r2, [r4, #28]
 774              		.loc 1 2085 0
 775 00fc 431E     		subs	r3, r0, #1
 776 00fe 012B     		cmp	r3, #1
 777              		.loc 1 2084 0
 778 0100 E070     		strb	r0, [r4, #3]
 779              		.loc 1 2085 0
 780 0102 C1D8     		bhi	.L74
 781              	.LVL91:
 782              		.loc 1 2088 0
 783 0104 94F83D30 		ldrb	r3, [r4, #61]	@ zero_extendqisi2
 784              	.LVL92:
 785 0108 A370     		strb	r3, [r4, #2]
 786              		.loc 1 2089 0
 787 010a 002B     		cmp	r3, #0
 788 010c BCD0     		beq	.L74
 789              		.loc 1 2089 0 is_stmt 0 discriminator 2
 790 010e 591E     		subs	r1, r3, #1
 791 0110 1942     		tst	r1, r3
ARM GAS  /var/folders/dt/0wfd0knj7gs46m8vwfzktm600000gn/T//cczoWvr4.s 			page 15


 792 0112 B9D1     		bne	.L74
 793              		.loc 1 2091 0 is_stmt 1
 794 0114 94F84110 		ldrb	r1, [r4, #65]	@ zero_extendqisi2
 795 0118 94F84260 		ldrb	r6, [r4, #66]	@ zero_extendqisi2
 796 011c 41EA0626 		orr	r6, r1, r6, lsl #8
 797 0120 B1B2     		uxth	r1, r6
 798              		.loc 1 2092 0
 799 0122 16F00F0F 		tst	r6, #15
 800              		.loc 1 2091 0
 801 0126 2181     		strh	r1, [r4, #8]	@ movhi
 802              		.loc 1 2092 0
 803 0128 AED1     		bne	.L74
 804              		.loc 1 2094 0
 805 012a 94F84470 		ldrb	r7, [r4, #68]	@ zero_extendqisi2
 806 012e 94F84360 		ldrb	r6, [r4, #67]	@ zero_extendqisi2
 807              	.LVL93:
 808              		.loc 1 2095 0
 809 0132 56EA0726 		orrs	r6, r6, r7, lsl #8
 810              	.LVL94:
 811 0136 0ED1     		bne	.L76
 812              		.loc 1 2095 0 is_stmt 0 discriminator 1
 813 0138 94F85270 		ldrb	r7, [r4, #82]	@ zero_extendqisi2
 814 013c 94F853C0 		ldrb	ip, [r4, #83]	@ zero_extendqisi2
 815 0140 3F04     		lsls	r7, r7, #16
 816 0142 94F85060 		ldrb	r6, [r4, #80]	@ zero_extendqisi2
 817              	.LVL95:
 818 0146 47EA0C6C 		orr	ip, r7, ip, lsl #24
 819 014a 94F85170 		ldrb	r7, [r4, #81]	@ zero_extendqisi2
 820 014e 4CEA0606 		orr	r6, ip, r6
 821 0152 46EA0726 		orr	r6, r6, r7, lsl #8
 822              	.LVL96:
 823              	.L76:
 824              		.loc 1 2097 0 is_stmt 1
 825 0156 94F83FC0 		ldrb	ip, [r4, #63]	@ zero_extendqisi2
 826 015a 94F83E70 		ldrb	r7, [r4, #62]	@ zero_extendqisi2
 827              	.LVL97:
 828              		.loc 1 2098 0
 829 015e 57EA0C27 		orrs	r7, r7, ip, lsl #8
 830              	.LVL98:
 831 0162 91D0     		beq	.L74
 832              		.loc 1 2086 0
 833 0164 00FB02FC 		mul	ip, r0, r2
 834              	.LVL99:
 835              		.loc 1 2101 0
 836 0168 07EB1110 		add	r0, r7, r1, lsr #4
 837              	.LVL100:
 838 016c 6044     		add	r0, r0, ip
 839              	.LVL101:
 840              		.loc 1 2102 0
 841 016e 8642     		cmp	r6, r0
 842 0170 8AD3     		bcc	.L74
 843              		.loc 1 2103 0
 844 0172 361A     		subs	r6, r6, r0
 845              	.LVL102:
 846 0174 B6FBF3F3 		udiv	r3, r6, r3
 847              	.LVL103:
 848              		.loc 1 2104 0
ARM GAS  /var/folders/dt/0wfd0knj7gs46m8vwfzktm600000gn/T//cczoWvr4.s 			page 16


 849 0178 002B     		cmp	r3, #0
 850 017a 85D0     		beq	.L74
 851              	.LVL104:
 852              		.loc 1 2106 0
 853 017c 40F6F576 		movw	r6, #4085
 854 0180 B342     		cmp	r3, r6
 855 0182 40F2B880 		bls	.L94
 856              	.LVL105:
 857              		.loc 1 2107 0
 858 0186 06F57046 		add	r6, r6, #61440
 859 018a B342     		cmp	r3, r6
 860 018c 00F29880 		bhi	.L78
 861              		.loc 1 2106 0
 862 0190 0226     		movs	r6, #2
 863              	.LVL106:
 864              	.L77:
 865              		.loc 1 2110 0
 866 0192 0233     		adds	r3, r3, #2
 867              	.LVL107:
 868              		.loc 1 2111 0
 869 0194 4019     		adds	r0, r0, r5
 870              	.LVL108:
 871              		.loc 1 2112 0
 872 0196 EF19     		adds	r7, r5, r7
 873              	.LVL109:
 874              		.loc 1 2110 0
 875 0198 A361     		str	r3, [r4, #24]
 876              		.loc 1 2111 0
 877 019a A062     		str	r0, [r4, #40]
 878              		.loc 1 2112 0
 879 019c 2762     		str	r7, [r4, #32]
 880              		.loc 1 2118 0
 881 019e 0029     		cmp	r1, #0
 882 01a0 3FF472AF 		beq	.L74
 883              		.loc 1 2119 0
 884 01a4 6744     		add	r7, ip, r7
 885              		.loc 1 2121 0
 886 01a6 022E     		cmp	r6, #2
 887              		.loc 1 2119 0
 888 01a8 6762     		str	r7, [r4, #36]
 889              		.loc 1 2121 0
 890 01aa 00F08780 		beq	.L122
 891              		.loc 1 2121 0 is_stmt 0 discriminator 2
 892 01ae 0321     		movs	r1, #3
 893              	.LVL110:
 894 01b0 01FB03F1 		mul	r1, r1, r3
 895 01b4 03F00103 		and	r3, r3, #1
 896              	.LVL111:
 897 01b8 03EB5103 		add	r3, r3, r1, lsr #1
 898 01bc 0126     		movs	r6, #1
 899              	.LVL112:
 900              	.L79:
 901              		.loc 1 2123 0 is_stmt 1
 902 01be 03F2FF13 		addw	r3, r3, #511
 903              	.LVL113:
 904 01c2 B2EB532F 		cmp	r2, r3, lsr #9
 905 01c6 FFF45FAF 		bcc	.L74
ARM GAS  /var/folders/dt/0wfd0knj7gs46m8vwfzktm600000gn/T//cczoWvr4.s 			page 17


 906              		.loc 1 2129 0
 907 01ca 0023     		movs	r3, #0
 908              	.LVL114:
 909              		.loc 1 2128 0
 910 01cc 4FF0FF32 		mov	r2, #-1
 911              	.LVL115:
 912              		.loc 1 2132 0
 913 01d0 032E     		cmp	r6, #3
 914              		.loc 1 2128 0
 915 01d2 2261     		str	r2, [r4, #16]
 916              		.loc 1 2129 0
 917 01d4 E360     		str	r3, [r4, #12]
 918              		.loc 1 2132 0
 919 01d6 0CD0     		beq	.L123
 920              	.LVL116:
 921              	.L82:
 922              		.loc 1 2145 0
 923 01d8 494A     		ldr	r2, .L124+4
 924              		.loc 1 2146 0
 925 01da 0020     		movs	r0, #0
 926              		.loc 1 2145 0
 927 01dc 1388     		ldrh	r3, [r2, #0]
 928              		.loc 1 2144 0
 929 01de 2670     		strb	r6, [r4, #0]
 930              		.loc 1 2145 0
 931 01e0 0133     		adds	r3, r3, #1
 932 01e2 9BB2     		uxth	r3, r3
 933 01e4 1380     		strh	r3, [r2, #0]	@ movhi
 934 01e6 E380     		strh	r3, [r4, #6]	@ movhi
 935              		.loc 1 2146 0
 936 01e8 E062     		str	r0, [r4, #44]
 937              		.loc 1 2147 0
 938 01ea 2071     		strb	r0, [r4, #4]
 939              		.loc 1 2155 0
 940 01ec F8BD     		pop	{r3, r4, r5, r6, r7, pc}
 941              	.LVL117:
 942              	.L93:
 943              		.loc 1 2072 0
 944 01ee 0120     		movs	r0, #1
 945              	.LVL118:
 946 01f0 F8BD     		pop	{r3, r4, r5, r6, r7, pc}
 947              	.LVL119:
 948              	.L123:
 949              		.loc 1 2134 0
 950 01f2 94F86110 		ldrb	r1, [r4, #97]	@ zero_extendqisi2
 951 01f6 94F86020 		ldrb	r2, [r4, #96]	@ zero_extendqisi2
 952              		.loc 1 2133 0
 953 01fa 6371     		strb	r3, [r4, #5]
 954              		.loc 1 2134 0
 955 01fc 42EA0122 		orr	r2, r2, r1, lsl #8
 956 0200 AA18     		adds	r2, r5, r2
 957 0202 6261     		str	r2, [r4, #20]
 958              		.loc 1 2135 0
 959 0204 6078     		ldrb	r0, [r4, #1]	@ zero_extendqisi2
 960 0206 04F13001 		add	r1, r4, #48
 961 020a 0123     		movs	r3, #1
 962 020c FFF7FEFF 		bl	disk_read
ARM GAS  /var/folders/dt/0wfd0knj7gs46m8vwfzktm600000gn/T//cczoWvr4.s 			page 18


 963              	.LVL120:
 964 0210 0028     		cmp	r0, #0
 965 0212 E1D1     		bne	.L82
 966              		.loc 1 2136 0 discriminator 1
 967 0214 94F82F12 		ldrb	r1, [r4, #559]	@ zero_extendqisi2
 968 0218 94F82E22 		ldrb	r2, [r4, #558]	@ zero_extendqisi2
 969              		.loc 1 2135 0 discriminator 1
 970 021c 4AF65523 		movw	r3, #43605
 971              		.loc 1 2136 0 discriminator 1
 972 0220 42EA0122 		orr	r2, r2, r1, lsl #8
 973              		.loc 1 2135 0 discriminator 1
 974 0224 12B2     		sxth	r2, r2
 975 0226 CFF6FF73 		movt	r3, 65535
 976 022a 9A42     		cmp	r2, r3
 977 022c D4D1     		bne	.L82
 978              		.loc 1 2137 0
 979 022e 94F83220 		ldrb	r2, [r4, #50]	@ zero_extendqisi2
 980 0232 94F83310 		ldrb	r1, [r4, #51]	@ zero_extendqisi2
 981 0236 1204     		lsls	r2, r2, #16
 982 0238 94F83030 		ldrb	r3, [r4, #48]	@ zero_extendqisi2
 983 023c 42EA0162 		orr	r2, r2, r1, lsl #24
 984 0240 94F83110 		ldrb	r1, [r4, #49]	@ zero_extendqisi2
 985 0244 1A43     		orrs	r2, r2, r3
 986              		.loc 1 2136 0
 987 0246 45F25223 		movw	r3, #21074
 988              		.loc 1 2137 0
 989 024a 42EA0122 		orr	r2, r2, r1, lsl #8
 990              		.loc 1 2136 0
 991 024e C4F26113 		movt	r3, 16737
 992 0252 9A42     		cmp	r2, r3
 993 0254 C0D1     		bne	.L82
 994              		.loc 1 2138 0
 995 0256 94F81622 		ldrb	r2, [r4, #534]	@ zero_extendqisi2
 996 025a 94F81712 		ldrb	r1, [r4, #535]	@ zero_extendqisi2
 997 025e 1204     		lsls	r2, r2, #16
 998 0260 94F81432 		ldrb	r3, [r4, #532]	@ zero_extendqisi2
 999 0264 42EA0162 		orr	r2, r2, r1, lsl #24
 1000 0268 94F81512 		ldrb	r1, [r4, #533]	@ zero_extendqisi2
 1001 026c 1A43     		orrs	r2, r2, r3
 1002              		.loc 1 2137 0
 1003 026e 47F27223 		movw	r3, #29298
 1004              		.loc 1 2138 0
 1005 0272 42EA0122 		orr	r2, r2, r1, lsl #8
 1006              		.loc 1 2137 0
 1007 0276 C6F24113 		movt	r3, 24897
 1008 027a 9A42     		cmp	r2, r3
 1009 027c ACD1     		bne	.L82
 1010              		.loc 1 2139 0
 1011 027e 94F81E02 		ldrb	r0, [r4, #542]	@ zero_extendqisi2
 1012              		.loc 1 2140 0
 1013 0282 94F81A12 		ldrb	r1, [r4, #538]	@ zero_extendqisi2
 1014              		.loc 1 2139 0
 1015 0286 94F81F72 		ldrb	r7, [r4, #543]	@ zero_extendqisi2
 1016              		.loc 1 2140 0
 1017 028a 94F81B52 		ldrb	r5, [r4, #539]	@ zero_extendqisi2
 1018              	.LVL121:
 1019              		.loc 1 2139 0
ARM GAS  /var/folders/dt/0wfd0knj7gs46m8vwfzktm600000gn/T//cczoWvr4.s 			page 19


 1020 028e 0004     		lsls	r0, r0, #16
 1021              		.loc 1 2140 0
 1022 0290 0904     		lsls	r1, r1, #16
 1023              		.loc 1 2139 0
 1024 0292 94F81C22 		ldrb	r2, [r4, #540]	@ zero_extendqisi2
 1025              		.loc 1 2140 0
 1026 0296 94F81832 		ldrb	r3, [r4, #536]	@ zero_extendqisi2
 1027              		.loc 1 2139 0
 1028 029a 40EA0767 		orr	r7, r0, r7, lsl #24
 1029              		.loc 1 2140 0
 1030 029e 41EA0565 		orr	r5, r1, r5, lsl #24
 1031              		.loc 1 2139 0
 1032 02a2 94F81D02 		ldrb	r0, [r4, #541]	@ zero_extendqisi2
 1033              		.loc 1 2140 0
 1034 02a6 94F81912 		ldrb	r1, [r4, #537]	@ zero_extendqisi2
 1035              		.loc 1 2139 0
 1036 02aa 3A43     		orrs	r2, r2, r7
 1037              		.loc 1 2140 0
 1038 02ac 2B43     		orrs	r3, r3, r5
 1039              		.loc 1 2139 0
 1040 02ae 42EA0022 		orr	r2, r2, r0, lsl #8
 1041              		.loc 1 2140 0
 1042 02b2 43EA0123 		orr	r3, r3, r1, lsl #8
 1043              		.loc 1 2139 0
 1044 02b6 E260     		str	r2, [r4, #12]
 1045              		.loc 1 2140 0
 1046 02b8 2361     		str	r3, [r4, #16]
 1047 02ba 8DE7     		b	.L82
 1048              	.LVL122:
 1049              	.L122:
 1050              		.loc 1 2121 0 discriminator 1
 1051 02bc 5B00     		lsls	r3, r3, #1
 1052              	.LVL123:
 1053 02be 7EE7     		b	.L79
 1054              	.LVL124:
 1055              	.L78:
 1056              		.loc 1 2110 0
 1057 02c0 0233     		adds	r3, r3, #2
 1058              	.LVL125:
 1059              		.loc 1 2111 0
 1060 02c2 4019     		adds	r0, r0, r5
 1061              	.LVL126:
 1062              		.loc 1 2112 0
 1063 02c4 EF19     		adds	r7, r5, r7
 1064              	.LVL127:
 1065              		.loc 1 2110 0
 1066 02c6 A361     		str	r3, [r4, #24]
 1067              		.loc 1 2111 0
 1068 02c8 A062     		str	r0, [r4, #40]
 1069              		.loc 1 2112 0
 1070 02ca 2762     		str	r7, [r4, #32]
 1071              		.loc 1 2114 0
 1072 02cc 0029     		cmp	r1, #0
 1073 02ce 7FF4DBAE 		bne	.L74
 1074              		.loc 1 2115 0
 1075 02d2 94F85E00 		ldrb	r0, [r4, #94]	@ zero_extendqisi2
 1076 02d6 94F85F60 		ldrb	r6, [r4, #95]	@ zero_extendqisi2
ARM GAS  /var/folders/dt/0wfd0knj7gs46m8vwfzktm600000gn/T//cczoWvr4.s 			page 20


 1077 02da 0004     		lsls	r0, r0, #16
 1078 02dc 94F85C10 		ldrb	r1, [r4, #92]	@ zero_extendqisi2
 1079              	.LVL128:
 1080 02e0 40EA0666 		orr	r6, r0, r6, lsl #24
 1081 02e4 94F85D00 		ldrb	r0, [r4, #93]	@ zero_extendqisi2
 1082 02e8 3143     		orrs	r1, r1, r6
 1083 02ea 41EA0021 		orr	r1, r1, r0, lsl #8
 1084 02ee 6162     		str	r1, [r4, #36]
 1085              		.loc 1 2116 0
 1086 02f0 9B00     		lsls	r3, r3, #2
 1087              	.LVL129:
 1088              		.loc 1 2107 0
 1089 02f2 0326     		movs	r6, #3
 1090 02f4 63E7     		b	.L79
 1091              	.LVL130:
 1092              	.L94:
 1093              		.loc 1 2105 0
 1094 02f6 0126     		movs	r6, #1
 1095 02f8 4BE7     		b	.L77
 1096              	.L125:
 1097 02fa 00BF     		.align	2
 1098              	.L124:
 1099 02fc 00000000 		.word	.LANCHOR0
 1100 0300 00000000 		.word	.LANCHOR1
 1101              		.cfi_endproc
 1102              	.LFE21:
 1103              		.size	chk_mounted, .-chk_mounted
 1104 0304 AFF30080 		.section	.text.clust2sect,"ax",%progbits
 1104      AFF30080 
 1104      AFF30080 
 1105              		.align	2
 1106              		.p2align 4,,15
 1107              		.global	clust2sect
 1108              		.thumb
 1109              		.thumb_func
 1110              		.type	clust2sect, %function
 1111              	clust2sect:
 1112              	.LFB6:
 1113              		.loc 1 799 0
 1114              		.cfi_startproc
 1115              		@ args = 0, pretend = 0, frame = 0
 1116              		@ frame_needed = 0, uses_anonymous_args = 0
 1117              		@ link register save eliminated.
 1118              	.LVL131:
 1119              		.loc 1 801 0
 1120 0000 8369     		ldr	r3, [r0, #24]
 1121              		.loc 1 800 0
 1122 0002 0239     		subs	r1, r1, #2
 1123              	.LVL132:
 1124              		.loc 1 801 0
 1125 0004 023B     		subs	r3, r3, #2
 1126 0006 9942     		cmp	r1, r3
 1127              		.loc 1 802 0
 1128 0008 3DBF     		ittte	cc
 1129 000a 8278     		ldrbcc	r2, [r0, #2]	@ zero_extendqisi2
 1130 000c 836A     		ldrcc	r3, [r0, #40]
 1131 000e 02FB0130 		mlacc	r0, r2, r1, r3
ARM GAS  /var/folders/dt/0wfd0knj7gs46m8vwfzktm600000gn/T//cczoWvr4.s 			page 21


 1132              	.LVL133:
 1133              		.loc 1 801 0
 1134 0012 0020     		movcs	r0, #0
 1135              		.loc 1 803 0
 1136 0014 7047     		bx	lr
 1137              		.cfi_endproc
 1138              	.LFE6:
 1139              		.size	clust2sect, .-clust2sect
 1140 0016 00BFAFF3 		.section	.text.get_fat,"ax",%progbits
 1140      0080AFF3 
 1140      0080
 1141              		.align	2
 1142              		.p2align 4,,15
 1143              		.global	get_fat
 1144              		.thumb
 1145              		.thumb_func
 1146              		.type	get_fat, %function
 1147              	get_fat:
 1148              	.LFB7:
 1149              		.loc 1 817 0
 1150              		.cfi_startproc
 1151              		@ args = 0, pretend = 0, frame = 0
 1152              		@ frame_needed = 0, uses_anonymous_args = 0
 1153              	.LVL134:
 1154              		.loc 1 822 0
 1155 0000 0129     		cmp	r1, #1
 1156              		.loc 1 817 0
 1157 0002 F8B5     		push	{r3, r4, r5, r6, r7, lr}
 1158              	.LCFI7:
 1159              		.cfi_def_cfa_offset 24
 1160              		.cfi_offset 3, -24
 1161              		.cfi_offset 4, -20
 1162              		.cfi_offset 5, -16
 1163              		.cfi_offset 6, -12
 1164              		.cfi_offset 7, -8
 1165              		.cfi_offset 14, -4
 1166              		.loc 1 817 0
 1167 0004 0C46     		mov	r4, r1
 1168 0006 0546     		mov	r5, r0
 1169              		.loc 1 822 0
 1170 0008 0CD9     		bls	.L139
 1171              		.loc 1 822 0 is_stmt 0 discriminator 1
 1172 000a 8369     		ldr	r3, [r0, #24]
 1173 000c 9942     		cmp	r1, r3
 1174 000e 09D2     		bcs	.L139
 1175              	.LVL135:
 1176              	.LBB75:
 1177              	.LBB76:
 1178              		.loc 1 825 0 is_stmt 1
 1179 0010 0378     		ldrb	r3, [r0, #0]	@ zero_extendqisi2
 1180 0012 022B     		cmp	r3, #2
 1181 0014 45D0     		beq	.L133
 1182 0016 032B     		cmp	r3, #3
 1183 0018 28D0     		beq	.L134
 1184 001a 012B     		cmp	r3, #1
 1185 001c 04D0     		beq	.L142
 1186              	.LVL136:
ARM GAS  /var/folders/dt/0wfd0knj7gs46m8vwfzktm600000gn/T//cczoWvr4.s 			page 22


 1187              	.L141:
 1188              		.loc 1 845 0
 1189 001e 4FF0FF30 		mov	r0, #-1
 1190 0022 F8BD     		pop	{r3, r4, r5, r6, r7, pc}
 1191              	.LVL137:
 1192              	.L139:
 1193              	.LBE76:
 1194              	.LBE75:
 1195              		.loc 1 823 0
 1196 0024 0120     		movs	r0, #1
 1197              	.LVL138:
 1198              		.loc 1 846 0
 1199 0026 F8BD     		pop	{r3, r4, r5, r6, r7, pc}
 1200              	.LVL139:
 1201              	.L142:
 1202              	.LBB78:
 1203              	.LBB77:
 1204              		.loc 1 828 0
 1205 0028 016A     		ldr	r1, [r0, #32]
 1206              	.LVL140:
 1207              		.loc 1 827 0
 1208 002a 04EB5406 		add	r6, r4, r4, lsr #1
 1209              	.LVL141:
 1210              		.loc 1 828 0
 1211 002e 01EB5621 		add	r1, r1, r6, lsr #9
 1212 0032 FFF7FEFF 		bl	move_window
 1213              	.LVL142:
 1214 0036 0028     		cmp	r0, #0
 1215 0038 F1D1     		bne	.L141
 1216              		.loc 1 829 0
 1217 003a F305     		lsls	r3, r6, #23
 1218              		.loc 1 830 0
 1219 003c 296A     		ldr	r1, [r5, #32]
 1220              		.loc 1 829 0
 1221 003e DB0D     		lsrs	r3, r3, #23
 1222 0040 0136     		adds	r6, r6, #1
 1223              	.LVL143:
 1224 0042 EB18     		adds	r3, r5, r3
 1225              		.loc 1 830 0
 1226 0044 2846     		mov	r0, r5
 1227 0046 01EB5621 		add	r1, r1, r6, lsr #9
 1228              		.loc 1 829 0
 1229 004a 93F83070 		ldrb	r7, [r3, #48]	@ zero_extendqisi2
 1230              	.LVL144:
 1231              		.loc 1 830 0
 1232 004e FFF7FEFF 		bl	move_window
 1233              	.LVL145:
 1234 0052 0028     		cmp	r0, #0
 1235 0054 E3D1     		bne	.L141
 1236              		.loc 1 831 0
 1237 0056 F605     		lsls	r6, r6, #23
 1238              	.LVL146:
 1239 0058 F60D     		lsrs	r6, r6, #23
 1240 005a AD19     		adds	r5, r5, r6
 1241              	.LVL147:
 1242 005c 95F83000 		ldrb	r0, [r5, #48]	@ zero_extendqisi2
 1243              		.loc 1 832 0
ARM GAS  /var/folders/dt/0wfd0knj7gs46m8vwfzktm600000gn/T//cczoWvr4.s 			page 23


 1244 0060 E107     		lsls	r1, r4, #31
 1245              		.loc 1 831 0
 1246 0062 47EA0020 		orr	r0, r7, r0, lsl #8
 1247              	.LVL148:
 1248              		.loc 1 832 0
 1249 0066 2ED5     		bpl	.L137
 1250 0068 0009     		lsrs	r0, r0, #4
 1251              	.LVL149:
 1252 006a F8BD     		pop	{r3, r4, r5, r6, r7, pc}
 1253              	.LVL150:
 1254              	.L134:
 1255              		.loc 1 840 0
 1256 006c 016A     		ldr	r1, [r0, #32]
 1257              	.LVL151:
 1258 006e 01EBD411 		add	r1, r1, r4, lsr #7
 1259 0072 FFF7FEFF 		bl	move_window
 1260              	.LVL152:
 1261 0076 0028     		cmp	r0, #0
 1262 0078 D1D1     		bne	.L141
 1263              		.loc 1 841 0
 1264 007a 6406     		lsls	r4, r4, #25
 1265              	.LVL153:
 1266 007c E40D     		lsrs	r4, r4, #23
 1267 007e 04F13003 		add	r3, r4, #48
 1268 0082 EB18     		adds	r3, r5, r3
 1269              	.LVL154:
 1270              		.loc 1 842 0
 1271 0084 DA78     		ldrb	r2, [r3, #3]	@ zero_extendqisi2
 1272 0086 9978     		ldrb	r1, [r3, #2]	@ zero_extendqisi2
 1273 0088 5878     		ldrb	r0, [r3, #1]	@ zero_extendqisi2
 1274 008a 1206     		lsls	r2, r2, #24
 1275 008c 2C19     		adds	r4, r5, r4
 1276 008e 42EA0142 		orr	r2, r2, r1, lsl #16
 1277 0092 94F83030 		ldrb	r3, [r4, #48]	@ zero_extendqisi2
 1278              	.LVL155:
 1279 0096 42EA0020 		orr	r0, r2, r0, lsl #8
 1280 009a 1843     		orrs	r0, r0, r3
 1281 009c 20F07040 		bic	r0, r0, #-268435456
 1282 00a0 F8BD     		pop	{r3, r4, r5, r6, r7, pc}
 1283              	.LVL156:
 1284              	.L133:
 1285              		.loc 1 835 0
 1286 00a2 016A     		ldr	r1, [r0, #32]
 1287              	.LVL157:
 1288 00a4 01EB1421 		add	r1, r1, r4, lsr #8
 1289 00a8 FFF7FEFF 		bl	move_window
 1290              	.LVL158:
 1291 00ac 0028     		cmp	r0, #0
 1292 00ae B6D1     		bne	.L141
 1293              		.loc 1 836 0
 1294 00b0 2406     		lsls	r4, r4, #24
 1295              	.LVL159:
 1296 00b2 E40D     		lsrs	r4, r4, #23
 1297              	.LVL160:
 1298              		.loc 1 837 0
 1299 00b4 2B19     		adds	r3, r5, r4
 1300 00b6 1C46     		mov	r4, r3
ARM GAS  /var/folders/dt/0wfd0knj7gs46m8vwfzktm600000gn/T//cczoWvr4.s 			page 24


 1301              	.LVL161:
 1302 00b8 94F83100 		ldrb	r0, [r4, #49]	@ zero_extendqisi2
 1303 00bc 93F83030 		ldrb	r3, [r3, #48]	@ zero_extendqisi2
 1304 00c0 43EA0020 		orr	r0, r3, r0, lsl #8
 1305 00c4 F8BD     		pop	{r3, r4, r5, r6, r7, pc}
 1306              	.LVL162:
 1307              	.L137:
 1308              		.loc 1 832 0
 1309 00c6 0005     		lsls	r0, r0, #20
 1310              	.LVL163:
 1311 00c8 000D     		lsrs	r0, r0, #20
 1312 00ca F8BD     		pop	{r3, r4, r5, r6, r7, pc}
 1313              	.LBE77:
 1314              	.LBE78:
 1315              		.cfi_endproc
 1316              	.LFE7:
 1317              		.size	get_fat, .-get_fat
 1318 00cc AFF30080 		.section	.text.dir_sdi,"ax",%progbits
 1319              		.align	2
 1320              		.p2align 4,,15
 1321              		.thumb
 1322              		.thumb_func
 1323              		.type	dir_sdi, %function
 1324              	dir_sdi:
 1325              	.LFB11:
 1326              		.loc 1 1063 0
 1327              		.cfi_startproc
 1328              		@ args = 0, pretend = 0, frame = 0
 1329              		@ frame_needed = 0, uses_anonymous_args = 0
 1330              	.LVL164:
 1331              		.loc 1 1069 0
 1332 0000 8368     		ldr	r3, [r0, #8]
 1333              	.LVL165:
 1334              		.loc 1 1063 0
 1335 0002 70B5     		push	{r4, r5, r6, lr}
 1336              	.LCFI8:
 1337              		.cfi_def_cfa_offset 16
 1338              		.cfi_offset 4, -16
 1339              		.cfi_offset 5, -12
 1340              		.cfi_offset 6, -8
 1341              		.cfi_offset 14, -4
 1342              		.loc 1 1070 0
 1343 0004 012B     		cmp	r3, #1
 1344              		.loc 1 1063 0
 1345 0006 0546     		mov	r5, r0
 1346 0008 0C46     		mov	r4, r1
 1347              		.loc 1 1068 0
 1348 000a E980     		strh	r1, [r5, #6]	@ movhi
 1349              		.loc 1 1070 0
 1350 000c 03D0     		beq	.L146
 1351              		.loc 1 1070 0 is_stmt 0 discriminator 1
 1352 000e 0068     		ldr	r0, [r0, #0]
 1353              	.LVL166:
 1354 0010 8269     		ldr	r2, [r0, #24]
 1355 0012 9342     		cmp	r3, r2
 1356 0014 01D3     		bcc	.L157
 1357              	.LVL167:
ARM GAS  /var/folders/dt/0wfd0knj7gs46m8vwfzktm600000gn/T//cczoWvr4.s 			page 25


 1358              	.L146:
 1359              		.loc 1 1071 0 is_stmt 1
 1360 0016 0220     		movs	r0, #2
 1361 0018 70BD     		pop	{r4, r5, r6, pc}
 1362              	.LVL168:
 1363              	.L157:
 1364              		.loc 1 1072 0
 1365 001a B3B9     		cbnz	r3, .L147
 1366              		.loc 1 1072 0 is_stmt 0 discriminator 1
 1367 001c 0378     		ldrb	r3, [r0, #0]	@ zero_extendqisi2
 1368              	.LVL169:
 1369 001e 032B     		cmp	r3, #3
 1370 0020 10D0     		beq	.L158
 1371              	.LVL170:
 1372              	.L148:
 1373              		.loc 1 1077 0 is_stmt 1
 1374 0022 0389     		ldrh	r3, [r0, #8]
 1375              		.loc 1 1076 0
 1376 0024 0022     		movs	r2, #0
 1377              		.loc 1 1077 0
 1378 0026 A342     		cmp	r3, r4
 1379              		.loc 1 1076 0
 1380 0028 EA60     		str	r2, [r5, #12]
 1381              		.loc 1 1077 0
 1382 002a F4D9     		bls	.L146
 1383              		.loc 1 1079 0
 1384 002c 436A     		ldr	r3, [r0, #36]
 1385 002e 03EB1413 		add	r3, r3, r4, lsr #4
 1386 0032 2B61     		str	r3, [r5, #16]
 1387              	.LVL171:
 1388              	.L149:
 1389              		.loc 1 1094 0
 1390 0034 04F00F04 		and	r4, r4, #15
 1391              	.LVL172:
 1392 0038 00EB4410 		add	r0, r0, r4, lsl #5
 1393 003c 3030     		adds	r0, r0, #48
 1394 003e 6861     		str	r0, [r5, #20]
 1395              		.loc 1 1096 0
 1396 0040 0020     		movs	r0, #0
 1397 0042 70BD     		pop	{r4, r5, r6, pc}
 1398              	.LVL173:
 1399              	.L158:
 1400              		.loc 1 1073 0
 1401 0044 436A     		ldr	r3, [r0, #36]
 1402              	.LVL174:
 1403              		.loc 1 1075 0
 1404 0046 002B     		cmp	r3, #0
 1405 0048 EBD0     		beq	.L148
 1406              	.L147:
 1407              		.loc 1 1082 0
 1408 004a 8678     		ldrb	r6, [r0, #2]	@ zero_extendqisi2
 1409 004c 3601     		lsls	r6, r6, #4
 1410              	.LVL175:
 1411              		.loc 1 1083 0
 1412 004e B442     		cmp	r4, r6
 1413 0050 08D2     		bcs	.L155
 1414 0052 11E0     		b	.L150
ARM GAS  /var/folders/dt/0wfd0knj7gs46m8vwfzktm600000gn/T//cczoWvr4.s 			page 26


 1415              	.LVL176:
 1416              	.L159:
 1417              		.loc 1 1086 0
 1418 0054 012B     		cmp	r3, #1
 1419 0056 DED9     		bls	.L146
 1420              		.loc 1 1086 0 is_stmt 0 discriminator 1
 1421 0058 2868     		ldr	r0, [r5, #0]
 1422 005a 8269     		ldr	r2, [r0, #24]
 1423 005c 9342     		cmp	r3, r2
 1424 005e DAD2     		bcs	.L146
 1425              		.loc 1 1083 0 is_stmt 1
 1426 0060 A642     		cmp	r6, r4
 1427 0062 09D8     		bhi	.L150
 1428              	.LVL177:
 1429              	.L155:
 1430              		.loc 1 1084 0
 1431 0064 1946     		mov	r1, r3
 1432 0066 FFF7FEFF 		bl	get_fat
 1433              	.LVL178:
 1434              		.loc 1 1088 0
 1435 006a A41B     		subs	r4, r4, r6
 1436              		.loc 1 1084 0
 1437 006c 0346     		mov	r3, r0
 1438              	.LVL179:
 1439              		.loc 1 1085 0
 1440 006e 0130     		adds	r0, r0, #1
 1441              	.LVL180:
 1442              		.loc 1 1088 0
 1443 0070 A4B2     		uxth	r4, r4
 1444              	.LVL181:
 1445              		.loc 1 1085 0
 1446 0072 EFD1     		bne	.L159
 1447 0074 0120     		movs	r0, #1
 1448              		.loc 1 1097 0
 1449 0076 70BD     		pop	{r4, r5, r6, pc}
 1450              	.LVL182:
 1451              	.L150:
 1452              	.LBB79:
 1453              	.LBB80:
 1454              		.loc 1 801 0
 1455 0078 8169     		ldr	r1, [r0, #24]
 1456              		.loc 1 800 0
 1457 007a 9A1E     		subs	r2, r3, #2
 1458              		.loc 1 801 0
 1459 007c 0239     		subs	r1, r1, #2
 1460 007e 8A42     		cmp	r2, r1
 1461              	.LBE80:
 1462              	.LBE79:
 1463              		.loc 1 1090 0
 1464 0080 EB60     		str	r3, [r5, #12]
 1465              	.LVL183:
 1466              	.LBB82:
 1467              	.LBB81:
 1468              		.loc 1 802 0
 1469 0082 3DBF     		ittte	cc
 1470 0084 8178     		ldrbcc	r1, [r0, #2]	@ zero_extendqisi2
 1471 0086 836A     		ldrcc	r3, [r0, #40]
ARM GAS  /var/folders/dt/0wfd0knj7gs46m8vwfzktm600000gn/T//cczoWvr4.s 			page 27


 1472 0088 01FB0232 		mlacc	r2, r1, r2, r3
 1473              	.LVL184:
 1474              		.loc 1 801 0
 1475 008c 0022     		movcs	r2, #0
 1476              	.LBE81:
 1477              	.LBE82:
 1478              		.loc 1 1091 0
 1479 008e 02EB1412 		add	r2, r2, r4, lsr #4
 1480 0092 2A61     		str	r2, [r5, #16]
 1481 0094 CEE7     		b	.L149
 1482              		.cfi_endproc
 1483              	.LFE11:
 1484              		.size	dir_sdi, .-dir_sdi
 1485 0096 00BFAFF3 		.section	.text.dir_remove,"ax",%progbits
 1485      0080AFF3 
 1485      0080
 1486              		.align	2
 1487              		.p2align 4,,15
 1488              		.thumb
 1489              		.thumb_func
 1490              		.type	dir_remove, %function
 1491              	dir_remove:
 1492              	.LFB16:
 1493              		.loc 1 1574 0
 1494              		.cfi_startproc
 1495              		@ args = 0, pretend = 0, frame = 0
 1496              		@ frame_needed = 0, uses_anonymous_args = 0
 1497              	.LVL185:
 1498 0000 10B5     		push	{r4, lr}
 1499              	.LCFI9:
 1500              		.cfi_def_cfa_offset 8
 1501              		.cfi_offset 4, -8
 1502              		.cfi_offset 14, -4
 1503              		.loc 1 1594 0
 1504 0002 C188     		ldrh	r1, [r0, #6]
 1505              		.loc 1 1574 0
 1506 0004 0446     		mov	r4, r0
 1507              		.loc 1 1594 0
 1508 0006 FFF7FEFF 		bl	dir_sdi
 1509              	.LVL186:
 1510              		.loc 1 1595 0
 1511 000a 00B1     		cbz	r0, .L163
 1512              	.LVL187:
 1513              	.L161:
 1514              		.loc 1 1605 0
 1515 000c 10BD     		pop	{r4, pc}
 1516              	.L163:
 1517              	.LVL188:
 1518              	.LBB85:
 1519              	.LBB86:
 1520              		.loc 1 1596 0
 1521 000e 2068     		ldr	r0, [r4, #0]
 1522              	.LVL189:
 1523 0010 2169     		ldr	r1, [r4, #16]
 1524 0012 FFF7FEFF 		bl	move_window
 1525              	.LVL190:
 1526              		.loc 1 1597 0
ARM GAS  /var/folders/dt/0wfd0knj7gs46m8vwfzktm600000gn/T//cczoWvr4.s 			page 28


 1527 0016 0028     		cmp	r0, #0
 1528 0018 F8D1     		bne	.L161
 1529              		.loc 1 1598 0
 1530 001a 6369     		ldr	r3, [r4, #20]
 1531 001c E522     		movs	r2, #229
 1532 001e 1A70     		strb	r2, [r3, #0]
 1533              		.loc 1 1599 0
 1534 0020 2368     		ldr	r3, [r4, #0]
 1535 0022 0122     		movs	r2, #1
 1536 0024 1A71     		strb	r2, [r3, #4]
 1537              	.LVL191:
 1538              	.LBE86:
 1539              	.LBE85:
 1540              		.loc 1 1605 0
 1541 0026 10BD     		pop	{r4, pc}
 1542              		.cfi_endproc
 1543              	.LFE16:
 1544              		.size	dir_remove, .-dir_remove
 1545 0028 AFF30080 		.section	.text.put_fat,"ax",%progbits
 1545      AFF30080 
 1546              		.align	2
 1547              		.p2align 4,,15
 1548              		.global	put_fat
 1549              		.thumb
 1550              		.thumb_func
 1551              		.type	put_fat, %function
 1552              	put_fat:
 1553              	.LFB8:
 1554              		.loc 1 861 0
 1555              		.cfi_startproc
 1556              		@ args = 0, pretend = 0, frame = 8
 1557              		@ frame_needed = 0, uses_anonymous_args = 0
 1558              	.LVL192:
 1559 0000 F0B5     		push	{r4, r5, r6, r7, lr}
 1560              	.LCFI10:
 1561              		.cfi_def_cfa_offset 20
 1562              		.cfi_offset 4, -20
 1563              		.cfi_offset 5, -16
 1564              		.cfi_offset 6, -12
 1565              		.cfi_offset 7, -8
 1566              		.cfi_offset 14, -4
 1567              		.loc 1 867 0
 1568 0002 0129     		cmp	r1, #1
 1569              		.loc 1 861 0
 1570 0004 83B0     		sub	sp, sp, #12
 1571              	.LCFI11:
 1572              		.cfi_def_cfa_offset 32
 1573              		.loc 1 861 0
 1574 0006 0C46     		mov	r4, r1
 1575 0008 0546     		mov	r5, r0
 1576              		.loc 1 867 0
 1577 000a 02D9     		bls	.L175
 1578              		.loc 1 867 0 is_stmt 0 discriminator 1
 1579 000c 8369     		ldr	r3, [r0, #24]
 1580 000e 9942     		cmp	r1, r3
 1581 0010 02D3     		bcc	.L178
 1582              	.L175:
ARM GAS  /var/folders/dt/0wfd0knj7gs46m8vwfzktm600000gn/T//cczoWvr4.s 			page 29


 1583              		.loc 1 868 0 is_stmt 1
 1584 0012 0220     		movs	r0, #2
 1585              	.LVL193:
 1586              	.L165:
 1587              		.loc 1 908 0
 1588 0014 03B0     		add	sp, sp, #12
 1589 0016 F0BD     		pop	{r4, r5, r6, r7, pc}
 1590              	.LVL194:
 1591              	.L178:
 1592              	.LBB89:
 1593              	.LBB90:
 1594              		.loc 1 871 0
 1595 0018 0378     		ldrb	r3, [r0, #0]	@ zero_extendqisi2
 1596 001a 022B     		cmp	r3, #2
 1597 001c 25D0     		beq	.L168
 1598 001e 032B     		cmp	r3, #3
 1599 0020 05D0     		beq	.L169
 1600 0022 012B     		cmp	r3, #1
 1601 0024 35D0     		beq	.L179
 1602              		.loc 1 902 0
 1603 0026 0220     		movs	r0, #2
 1604              	.LVL195:
 1605              	.L166:
 1606              		.loc 1 904 0
 1607 0028 0123     		movs	r3, #1
 1608 002a 2B71     		strb	r3, [r5, #4]
 1609 002c F2E7     		b	.L165
 1610              	.LVL196:
 1611              	.L169:
 1612              		.loc 1 894 0
 1613 002e 016A     		ldr	r1, [r0, #32]
 1614              	.LVL197:
 1615 0030 0192     		str	r2, [sp, #4]
 1616 0032 01EBD411 		add	r1, r1, r4, lsr #7
 1617 0036 FFF7FEFF 		bl	move_window
 1618              	.LVL198:
 1619              		.loc 1 895 0
 1620 003a 019A     		ldr	r2, [sp, #4]
 1621 003c 0028     		cmp	r0, #0
 1622 003e F3D1     		bne	.L166
 1623              		.loc 1 896 0
 1624 0040 6406     		lsls	r4, r4, #25
 1625              	.LVL199:
 1626 0042 E40D     		lsrs	r4, r4, #23
 1627 0044 04F13003 		add	r3, r4, #48
 1628 0048 EB18     		adds	r3, r5, r3
 1629              	.LVL200:
 1630              		.loc 1 897 0
 1631 004a D978     		ldrb	r1, [r3, #3]	@ zero_extendqisi2
 1632 004c 2C19     		adds	r4, r5, r4
 1633 004e 0906     		lsls	r1, r1, #24
 1634 0050 01F07041 		and	r1, r1, #-268435456
 1635 0054 0A43     		orrs	r2, r2, r1
 1636              	.LVL201:
 1637              		.loc 1 898 0
 1638 0056 C2F30727 		ubfx	r7, r2, #8, #8
 1639 005a 160C     		lsrs	r6, r2, #16
ARM GAS  /var/folders/dt/0wfd0knj7gs46m8vwfzktm600000gn/T//cczoWvr4.s 			page 30


 1640 005c 110E     		lsrs	r1, r2, #24
 1641 005e 84F83020 		strb	r2, [r4, #48]
 1642 0062 5F70     		strb	r7, [r3, #1]
 1643 0064 9E70     		strb	r6, [r3, #2]
 1644 0066 D970     		strb	r1, [r3, #3]
 1645 0068 DEE7     		b	.L166
 1646              	.LVL202:
 1647              	.L168:
 1648              		.loc 1 887 0
 1649 006a 016A     		ldr	r1, [r0, #32]
 1650              	.LVL203:
 1651 006c 0192     		str	r2, [sp, #4]
 1652 006e 01EB1421 		add	r1, r1, r4, lsr #8
 1653 0072 FFF7FEFF 		bl	move_window
 1654              	.LVL204:
 1655              		.loc 1 888 0
 1656 0076 019A     		ldr	r2, [sp, #4]
 1657 0078 0028     		cmp	r0, #0
 1658 007a D5D1     		bne	.L166
 1659              		.loc 1 889 0
 1660 007c 2406     		lsls	r4, r4, #24
 1661              	.LVL205:
 1662 007e E40D     		lsrs	r4, r4, #23
 1663              	.LVL206:
 1664              		.loc 1 890 0
 1665 0080 2919     		adds	r1, r5, r4
 1666 0082 C2F30723 		ubfx	r3, r2, #8, #8
 1667 0086 0C46     		mov	r4, r1
 1668              	.LVL207:
 1669 0088 81F83020 		strb	r2, [r1, #48]
 1670 008c 81F83130 		strb	r3, [r1, #49]
 1671 0090 CAE7     		b	.L166
 1672              	.LVL208:
 1673              	.L179:
 1674              		.loc 1 874 0
 1675 0092 016A     		ldr	r1, [r0, #32]
 1676              	.LVL209:
 1677              		.loc 1 873 0
 1678 0094 04EB5406 		add	r6, r4, r4, lsr #1
 1679              	.LVL210:
 1680              		.loc 1 874 0
 1681 0098 01EB5621 		add	r1, r1, r6, lsr #9
 1682 009c 0192     		str	r2, [sp, #4]
 1683 009e FFF7FEFF 		bl	move_window
 1684              	.LVL211:
 1685              		.loc 1 875 0
 1686 00a2 019A     		ldr	r2, [sp, #4]
 1687 00a4 0028     		cmp	r0, #0
 1688 00a6 BFD1     		bne	.L166
 1689              		.loc 1 876 0
 1690 00a8 F305     		lsls	r3, r6, #23
 1691 00aa DB0D     		lsrs	r3, r3, #23
 1692              	.LVL212:
 1693              		.loc 1 877 0
 1694 00ac 14F00104 		ands	r4, r4, #1
 1695              	.LVL213:
 1696 00b0 1FBF     		itttt	ne
ARM GAS  /var/folders/dt/0wfd0knj7gs46m8vwfzktm600000gn/T//cczoWvr4.s 			page 31


 1697 00b2 EB18     		addne	r3, r5, r3
 1698              	.LVL214:
 1699              	.LBE90:
 1700 00b4 93F83010 		ldrbne	r1, [r3, #48]	@ zero_extendqisi2
 1701              		.loc 1 3473 0
 1702 00b8 D0B2     		uxtbne	r0, r2
 1703              	.LVL215:
 1704              		.loc 1 877 0
 1705 00ba 01F00F01 		andne	r1, r1, #15
 1706              	.LBB91:
 1707 00be 15BF     		itete	ne
 1708 00c0 41EA0010 		orrne	r0, r1, r0, lsl #4
 1709 00c4 D0B2     		uxtbeq	r0, r2
 1710 00c6 C0B2     		uxtbne	r0, r0
 1711 00c8 EB18     		addeq	r3, r5, r3
 1712              		.loc 1 880 0
 1713 00ca 296A     		ldr	r1, [r5, #32]
 1714              		.loc 1 877 0
 1715 00cc 83F83000 		strb	r0, [r3, #48]
 1716              		.loc 1 878 0
 1717 00d0 0136     		adds	r6, r6, #1
 1718              	.LVL216:
 1719              		.loc 1 879 0
 1720 00d2 0123     		movs	r3, #1
 1721 00d4 2B71     		strb	r3, [r5, #4]
 1722              		.loc 1 880 0
 1723 00d6 2846     		mov	r0, r5
 1724 00d8 01EB5621 		add	r1, r1, r6, lsr #9
 1725 00dc 0192     		str	r2, [sp, #4]
 1726 00de FFF7FEFF 		bl	move_window
 1727              	.LVL217:
 1728              		.loc 1 881 0
 1729 00e2 019A     		ldr	r2, [sp, #4]
 1730 00e4 0028     		cmp	r0, #0
 1731 00e6 9FD1     		bne	.L166
 1732              		.loc 1 882 0
 1733 00e8 F605     		lsls	r6, r6, #23
 1734              	.LVL218:
 1735 00ea F60D     		lsrs	r6, r6, #23
 1736              	.LVL219:
 1737              		.loc 1 883 0
 1738 00ec 2CB1     		cbz	r4, .L172
 1739 00ee C2F30712 		ubfx	r2, r2, #4, #8
 1740 00f2 AE19     		adds	r6, r5, r6
 1741              	.LVL220:
 1742              	.L173:
 1743 00f4 86F83020 		strb	r2, [r6, #48]
 1744 00f8 96E7     		b	.L166
 1745              	.LVL221:
 1746              	.L172:
 1747 00fa AE19     		adds	r6, r5, r6
 1748              	.LVL222:
 1749 00fc 96F83030 		ldrb	r3, [r6, #48]	@ zero_extendqisi2
 1750              	.LBE91:
 1751 0100 C2F30322 		ubfx	r2, r2, #8, #4
 1752              	.LBB92:
 1753 0104 23F00F03 		bic	r3, r3, #15
ARM GAS  /var/folders/dt/0wfd0knj7gs46m8vwfzktm600000gn/T//cczoWvr4.s 			page 32


 1754 0108 1A43     		orrs	r2, r2, r3
 1755 010a F3E7     		b	.L173
 1756              	.LBE92:
 1757              	.LBE89:
 1758              		.cfi_endproc
 1759              	.LFE8:
 1760              		.size	put_fat, .-put_fat
 1761 010c AFF30080 		.section	.text.create_chain,"ax",%progbits
 1762              		.align	2
 1763              		.p2align 4,,15
 1764              		.thumb
 1765              		.thumb_func
 1766              		.type	create_chain, %function
 1767              	create_chain:
 1768              	.LFB10:
 1769              		.loc 1 976 0
 1770              		.cfi_startproc
 1771              		@ args = 0, pretend = 0, frame = 0
 1772              		@ frame_needed = 0, uses_anonymous_args = 0
 1773              	.LVL223:
 1774 0000 F8B5     		push	{r3, r4, r5, r6, r7, lr}
 1775              	.LCFI12:
 1776              		.cfi_def_cfa_offset 24
 1777              		.cfi_offset 3, -24
 1778              		.cfi_offset 4, -20
 1779              		.cfi_offset 5, -16
 1780              		.cfi_offset 6, -12
 1781              		.cfi_offset 7, -8
 1782              		.cfi_offset 14, -4
 1783              		.loc 1 976 0
 1784 0002 0646     		mov	r6, r0
 1785              		.loc 1 981 0
 1786 0004 0F46     		mov	r7, r1
 1787 0006 01BB     		cbnz	r1, .L181
 1788              		.loc 1 982 0
 1789 0008 C568     		ldr	r5, [r0, #12]
 1790              	.LVL224:
 1791 000a 8369     		ldr	r3, [r0, #24]
 1792              		.loc 1 983 0
 1793 000c BDB9     		cbnz	r5, .L182
 1794 000e 0125     		movs	r5, #1
 1795              	.LVL225:
 1796              	.L183:
 1797 0010 2C46     		mov	r4, r5
 1798 0012 00E0     		b	.L188
 1799              	.LVL226:
 1800              	.L199:
 1801 0014 B369     		ldr	r3, [r6, #24]
 1802              	.LVL227:
 1803              	.L188:
 1804              		.loc 1 994 0
 1805 0016 0134     		adds	r4, r4, #1
 1806              	.LVL228:
 1807              		.loc 1 995 0
 1808 0018 9C42     		cmp	r4, r3
 1809 001a 02D3     		bcc	.L185
 1810              		.loc 1 997 0
ARM GAS  /var/folders/dt/0wfd0knj7gs46m8vwfzktm600000gn/T//cczoWvr4.s 			page 33


 1811 001c 012D     		cmp	r5, #1
 1812 001e 0CD9     		bls	.L187
 1813              		.loc 1 996 0
 1814 0020 0224     		movs	r4, #2
 1815              	.LVL229:
 1816              	.L185:
 1817              		.loc 1 999 0
 1818 0022 3046     		mov	r0, r6
 1819 0024 2146     		mov	r1, r4
 1820 0026 FFF7FEFF 		bl	get_fat
 1821              	.LVL230:
 1822              		.loc 1 1000 0
 1823 002a B8B1     		cbz	r0, .L186
 1824              		.loc 1 1001 0
 1825 002c B0F1FF3F 		cmp	r0, #-1
 1826 0030 18BF     		it	ne
 1827 0032 0128     		cmpne	r0, #1
 1828 0034 08D0     		beq	.L184
 1829              		.loc 1 1003 0
 1830 0036 AC42     		cmp	r4, r5
 1831 0038 ECD1     		bne	.L199
 1832              	.LVL231:
 1833              	.L187:
 1834              		.loc 1 997 0
 1835 003a 0020     		movs	r0, #0
 1836 003c F8BD     		pop	{r3, r4, r5, r6, r7, pc}
 1837              	.LVL232:
 1838              	.L182:
 1839              		.loc 1 983 0 discriminator 2
 1840 003e 9D42     		cmp	r5, r3
 1841 0040 28BF     		it	cs
 1842 0042 0125     		movcs	r5, #1
 1843              	.LVL233:
 1844 0044 E4E7     		b	.L183
 1845              	.LVL234:
 1846              	.L194:
 1847              		.loc 1 1012 0
 1848 0046 2046     		mov	r0, r4
 1849              	.LVL235:
 1850              	.L184:
 1851              		.loc 1 1021 0
 1852 0048 F8BD     		pop	{r3, r4, r5, r6, r7, pc}
 1853              	.LVL236:
 1854              	.L181:
 1855              		.loc 1 986 0
 1856 004a FFF7FEFF 		bl	get_fat
 1857              	.LVL237:
 1858              		.loc 1 987 0
 1859 004e 0128     		cmp	r0, #1
 1860 0050 1DD9     		bls	.L192
 1861              		.loc 1 988 0
 1862 0052 B369     		ldr	r3, [r6, #24]
 1863 0054 9842     		cmp	r0, r3
 1864 0056 F7D3     		bcc	.L184
 1865 0058 3D46     		mov	r5, r7
 1866 005a D9E7     		b	.L183
 1867              	.LVL238:
ARM GAS  /var/folders/dt/0wfd0knj7gs46m8vwfzktm600000gn/T//cczoWvr4.s 			page 34


 1868              	.L186:
 1869              		.loc 1 1006 0
 1870 005c 3046     		mov	r0, r6
 1871              	.LVL239:
 1872 005e 2146     		mov	r1, r4
 1873 0060 6FF07042 		mvn	r2, #-268435456
 1874 0064 FFF7FEFF 		bl	put_fat
 1875              	.LVL240:
 1876              		.loc 1 1007 0
 1877 0068 D0F10103 		rsbs	r3, r0, #1
 1878 006c 38BF     		it	cc
 1879 006e 0023     		movcc	r3, #0
 1880 0070 002F     		cmp	r7, #0
 1881 0072 08BF     		it	eq
 1882 0074 0023     		moveq	r3, #0
 1883 0076 93B9     		cbnz	r3, .L200
 1884              		.loc 1 1010 0
 1885 0078 58B9     		cbnz	r0, .L190
 1886              	.LVL241:
 1887              	.L201:
 1888              		.loc 1 1012 0
 1889 007a 3369     		ldr	r3, [r6, #16]
 1890              		.loc 1 1011 0
 1891 007c F460     		str	r4, [r6, #12]
 1892              		.loc 1 1012 0
 1893 007e 5A1C     		adds	r2, r3, #1
 1894 0080 E1D0     		beq	.L194
 1895              		.loc 1 1013 0
 1896 0082 013B     		subs	r3, r3, #1
 1897 0084 3361     		str	r3, [r6, #16]
 1898              		.loc 1 1014 0
 1899 0086 0123     		movs	r3, #1
 1900 0088 7371     		strb	r3, [r6, #5]
 1901 008a 2046     		mov	r0, r4
 1902 008c F8BD     		pop	{r3, r4, r5, r6, r7, pc}
 1903              	.LVL242:
 1904              	.L192:
 1905              		.loc 1 987 0
 1906 008e 0120     		movs	r0, #1
 1907              	.LVL243:
 1908 0090 F8BD     		pop	{r3, r4, r5, r6, r7, pc}
 1909              	.LVL244:
 1910              	.L190:
 1911              		.loc 1 1017 0
 1912 0092 0128     		cmp	r0, #1
 1913 0094 14BF     		ite	ne
 1914 0096 0120     		movne	r0, #1
 1915 0098 4FF0FF30 		moveq	r0, #-1
 1916 009c F8BD     		pop	{r3, r4, r5, r6, r7, pc}
 1917              	.LVL245:
 1918              	.L200:
 1919              		.loc 1 1008 0
 1920 009e 3046     		mov	r0, r6
 1921              	.LVL246:
 1922 00a0 3946     		mov	r1, r7
 1923 00a2 2246     		mov	r2, r4
 1924 00a4 FFF7FEFF 		bl	put_fat
ARM GAS  /var/folders/dt/0wfd0knj7gs46m8vwfzktm600000gn/T//cczoWvr4.s 			page 35


 1925              	.LVL247:
 1926              		.loc 1 1010 0
 1927 00a8 0028     		cmp	r0, #0
 1928 00aa F2D1     		bne	.L190
 1929 00ac E5E7     		b	.L201
 1930              		.cfi_endproc
 1931              	.LFE10:
 1932              		.size	create_chain, .-create_chain
 1933 00ae 00BF     		.section	.text.dir_next,"ax",%progbits
 1934              		.align	2
 1935              		.p2align 4,,15
 1936              		.thumb
 1937              		.thumb_func
 1938              		.type	dir_next, %function
 1939              	dir_next:
 1940              	.LFB12:
 1941              		.loc 1 1111 0
 1942              		.cfi_startproc
 1943              		@ args = 0, pretend = 0, frame = 0
 1944              		@ frame_needed = 0, uses_anonymous_args = 0
 1945              	.LVL248:
 1946 0000 2DE9F047 		push	{r4, r5, r6, r7, r8, r9, sl, lr}
 1947              	.LCFI13:
 1948              		.cfi_def_cfa_offset 32
 1949              		.cfi_offset 4, -32
 1950              		.cfi_offset 5, -28
 1951              		.cfi_offset 6, -24
 1952              		.cfi_offset 7, -20
 1953              		.cfi_offset 8, -16
 1954              		.cfi_offset 9, -12
 1955              		.cfi_offset 10, -8
 1956              		.cfi_offset 14, -4
 1957              		.loc 1 1116 0
 1958 0004 C588     		ldrh	r5, [r0, #6]
 1959              		.loc 1 1111 0
 1960 0006 0446     		mov	r4, r0
 1961              		.loc 1 1116 0
 1962 0008 0135     		adds	r5, r5, #1
 1963 000a ADB2     		uxth	r5, r5
 1964              	.LVL249:
 1965              		.loc 1 1111 0
 1966 000c 0E46     		mov	r6, r1
 1967              		.loc 1 1117 0
 1968 000e 15B9     		cbnz	r5, .L203
 1969              	.LVL250:
 1970              	.L205:
 1971              	.LBB93:
 1972              	.LBB94:
 1973              		.loc 1 1118 0
 1974 0010 0420     		movs	r0, #4
 1975 0012 BDE8F087 		pop	{r4, r5, r6, r7, r8, r9, sl, pc}
 1976              	.LVL251:
 1977              	.L203:
 1978              	.LBE94:
 1979              	.LBE93:
 1980              		.loc 1 1117 0 discriminator 1
 1981 0016 0369     		ldr	r3, [r0, #16]
ARM GAS  /var/folders/dt/0wfd0knj7gs46m8vwfzktm600000gn/T//cczoWvr4.s 			page 36


 1982 0018 002B     		cmp	r3, #0
 1983 001a F9D0     		beq	.L205
 1984              		.loc 1 1120 0
 1985 001c 15F00F07 		ands	r7, r5, #15
 1986 0020 08D0     		beq	.L206
 1987 0022 0068     		ldr	r0, [r0, #0]
 1988              	.LVL252:
 1989              	.L207:
 1990              		.loc 1 1161 0
 1991 0024 00EB4713 		add	r3, r0, r7, lsl #5
 1992 0028 3033     		adds	r3, r3, #48
 1993              		.loc 1 1160 0
 1994 002a E580     		strh	r5, [r4, #6]	@ movhi
 1995              		.loc 1 1161 0
 1996 002c 6361     		str	r3, [r4, #20]
 1997              		.loc 1 1163 0
 1998 002e 0020     		movs	r0, #0
 1999 0030 BDE8F087 		pop	{r4, r5, r6, r7, r8, r9, sl, pc}
 2000              	.LVL253:
 2001              	.L206:
 2002              		.loc 1 1123 0
 2003 0034 C168     		ldr	r1, [r0, #12]
 2004              	.LVL254:
 2005              		.loc 1 1121 0
 2006 0036 0133     		adds	r3, r3, #1
 2007 0038 0361     		str	r3, [r0, #16]
 2008              		.loc 1 1124 0
 2009 003a 0068     		ldr	r0, [r0, #0]
 2010              	.LVL255:
 2011              		.loc 1 1123 0
 2012 003c E9B1     		cbz	r1, .L237
 2013              		.loc 1 1128 0
 2014 003e 8278     		ldrb	r2, [r0, #2]	@ zero_extendqisi2
 2015 0040 013A     		subs	r2, r2, #1
 2016 0042 12EA1512 		ands	r2, r2, r5, lsr #4
 2017 0046 EDD1     		bne	.L207
 2018              		.loc 1 1129 0
 2019 0048 FFF7FEFF 		bl	get_fat
 2020              	.LVL256:
 2021              		.loc 1 1130 0
 2022 004c 0128     		cmp	r0, #1
 2023              		.loc 1 1129 0
 2024 004e 8046     		mov	r8, r0
 2025              	.LVL257:
 2026              		.loc 1 1130 0
 2027 0050 17D9     		bls	.L212
 2028              		.loc 1 1131 0
 2029 0052 B0F1FF3F 		cmp	r0, #-1
 2030 0056 63D0     		beq	.L213
 2031              		.loc 1 1132 0
 2032 0058 2068     		ldr	r0, [r4, #0]
 2033              	.LVL258:
 2034 005a 8269     		ldr	r2, [r0, #24]
 2035 005c 9045     		cmp	r8, r2
 2036 005e 38BF     		it	cc
 2037 0060 A8F10206 		subcc	r6, r8, #2
 2038              	.LVL259:
ARM GAS  /var/folders/dt/0wfd0knj7gs46m8vwfzktm600000gn/T//cczoWvr4.s 			page 37


 2039 0064 4FD3     		bcc	.L211
 2040              	.LBB97:
 2041              		.loc 1 1135 0
 2042 0066 002E     		cmp	r6, #0
 2043 0068 D2D0     		beq	.L205
 2044              		.loc 1 1136 0
 2045 006a E168     		ldr	r1, [r4, #12]
 2046 006c FFF7FEFF 		bl	create_chain
 2047              	.LVL260:
 2048              		.loc 1 1137 0
 2049 0070 8046     		mov	r8, r0
 2050 0072 48B9     		cbnz	r0, .L238
 2051 0074 0720     		movs	r0, #7
 2052              	.LVL261:
 2053              	.LBE97:
 2054              		.loc 1 1164 0
 2055 0076 BDE8F087 		pop	{r4, r5, r6, r7, r8, r9, sl, pc}
 2056              	.LVL262:
 2057              	.L237:
 2058              		.loc 1 1124 0
 2059 007a 0289     		ldrh	r2, [r0, #8]
 2060 007c AA42     		cmp	r2, r5
 2061 007e C7D9     		bls	.L205
 2062 0080 D0E7     		b	.L207
 2063              	.LVL263:
 2064              	.L212:
 2065              		.loc 1 1130 0
 2066 0082 0220     		movs	r0, #2
 2067              	.LVL264:
 2068 0084 BDE8F087 		pop	{r4, r5, r6, r7, r8, r9, sl, pc}
 2069              	.LVL265:
 2070              	.L238:
 2071              	.LBB108:
 2072              		.loc 1 1138 0
 2073 0088 0128     		cmp	r0, #1
 2074 008a FAD0     		beq	.L212
 2075              		.loc 1 1139 0
 2076 008c B0F1FF3F 		cmp	r0, #-1
 2077 0090 46D0     		beq	.L213
 2078              		.loc 1 1141 0
 2079 0092 2068     		ldr	r0, [r4, #0]
 2080              	.LVL266:
 2081 0094 0021     		movs	r1, #0
 2082 0096 FFF7FEFF 		bl	move_window
 2083              	.LVL267:
 2084 009a 0028     		cmp	r0, #0
 2085 009c 40D1     		bne	.L213
 2086              		.loc 1 1142 0
 2087 009e 2268     		ldr	r2, [r4, #0]
 2088              	.LBB98:
 2089              	.LBB99:
 2090              		.loc 1 542 0
 2091 00a0 0146     		mov	r1, r0
 2092              	.LBE99:
 2093              	.LBE98:
 2094              		.loc 1 1142 0
 2095 00a2 02F13003 		add	r3, r2, #48
ARM GAS  /var/folders/dt/0wfd0knj7gs46m8vwfzktm600000gn/T//cczoWvr4.s 			page 38


 2096              	.LVL268:
 2097              		.loc 1 1107 0
 2098 00a6 02F50C72 		add	r2, r2, #560
 2099              	.LVL269:
 2100              	.L214:
 2101              	.LBB101:
 2102              	.LBB100:
 2103              		.loc 1 542 0
 2104 00aa 03F8011B 		strb	r1, [r3], #1
 2105              	.LVL270:
 2106              		.loc 1 541 0
 2107 00ae 9342     		cmp	r3, r2
 2108 00b0 FBD1     		bne	.L214
 2109              	.LBE100:
 2110              	.LBE101:
 2111              		.loc 1 1143 0
 2112 00b2 2268     		ldr	r2, [r4, #0]
 2113              	.LVL271:
 2114              	.LBB102:
 2115              	.LBB103:
 2116              		.loc 1 800 0
 2117 00b4 A8F10206 		sub	r6, r8, #2
 2118              	.LVL272:
 2119              		.loc 1 801 0
 2120 00b8 9369     		ldr	r3, [r2, #24]
 2121              	.LVL273:
 2122              	.LBE103:
 2123              	.LBE102:
 2124              		.loc 1 1144 0
 2125 00ba 4FF00009 		mov	r9, #0
 2126              	.LBB106:
 2127              	.LBB104:
 2128              		.loc 1 801 0
 2129 00be 023B     		subs	r3, r3, #2
 2130 00c0 9E42     		cmp	r6, r3
 2131              		.loc 1 802 0
 2132 00c2 3CBF     		itt	cc
 2133 00c4 936A     		ldrcc	r3, [r2, #40]
 2134 00c6 9178     		ldrbcc	r1, [r2, #2]	@ zero_extendqisi2
 2135              	.LBE104:
 2136              	.LBE106:
 2137              		.loc 1 1145 0
 2138 00c8 4FF0010A 		mov	sl, #1
 2139              	.LBB107:
 2140              	.LBB105:
 2141              		.loc 1 802 0
 2142 00cc 34BF     		ite	cc
 2143 00ce 01FB0633 		mlacc	r3, r1, r6, r3
 2144              		.loc 1 801 0
 2145 00d2 0023     		movcs	r3, #0
 2146              	.LBE105:
 2147              	.LBE107:
 2148              		.loc 1 1143 0
 2149 00d4 D362     		str	r3, [r2, #44]
 2150              	.LVL274:
 2151              		.loc 1 1144 0
 2152 00d6 0DE0     		b	.L216
ARM GAS  /var/folders/dt/0wfd0knj7gs46m8vwfzktm600000gn/T//cczoWvr4.s 			page 39


 2153              	.LVL275:
 2154              	.L217:
 2155              		.loc 1 1145 0
 2156 00d8 82F804A0 		strb	sl, [r2, #4]
 2157              		.loc 1 1146 0
 2158 00dc 2068     		ldr	r0, [r4, #0]
 2159 00de FFF7FEFF 		bl	move_window
 2160              	.LVL276:
 2161              		.loc 1 1144 0
 2162 00e2 09F10109 		add	r9, r9, #1
 2163              	.LVL277:
 2164              		.loc 1 1146 0
 2165 00e6 D8B9     		cbnz	r0, .L213
 2166              		.loc 1 1147 0
 2167 00e8 2268     		ldr	r2, [r4, #0]
 2168              		.loc 1 1144 0
 2169 00ea 5FFA89F9 		uxtb	r9, r9
 2170              	.LVL278:
 2171              		.loc 1 1147 0
 2172 00ee D36A     		ldr	r3, [r2, #44]
 2173 00f0 0133     		adds	r3, r3, #1
 2174 00f2 D362     		str	r3, [r2, #44]
 2175              	.LVL279:
 2176              	.L216:
 2177              		.loc 1 1144 0 discriminator 1
 2178 00f4 9378     		ldrb	r3, [r2, #2]	@ zero_extendqisi2
 2179              		.loc 1 1146 0 discriminator 1
 2180 00f6 0021     		movs	r1, #0
 2181              		.loc 1 1144 0 discriminator 1
 2182 00f8 4B45     		cmp	r3, r9
 2183 00fa 1046     		mov	r0, r2
 2184 00fc ECD8     		bhi	.L217
 2185              		.loc 1 1149 0
 2186 00fe D26A     		ldr	r2, [r2, #44]
 2187 0100 C9EB0202 		rsb	r2, r9, r2
 2188 0104 C262     		str	r2, [r0, #44]
 2189              	.LVL280:
 2190              	.L211:
 2191              	.LBE108:
 2192              	.LBB109:
 2193              	.LBB95:
 2194              		.loc 1 801 0
 2195 0106 8269     		ldr	r2, [r0, #24]
 2196              	.LBE95:
 2197              	.LBE109:
 2198              		.loc 1 1154 0
 2199 0108 C4F80C80 		str	r8, [r4, #12]
 2200              	.LVL281:
 2201              	.LBB110:
 2202              	.LBB96:
 2203              		.loc 1 801 0
 2204 010c 023A     		subs	r2, r2, #2
 2205 010e 9642     		cmp	r6, r2
 2206              		.loc 1 802 0
 2207 0110 3DBF     		ittte	cc
 2208 0112 8178     		ldrbcc	r1, [r0, #2]	@ zero_extendqisi2
 2209 0114 826A     		ldrcc	r2, [r0, #40]
ARM GAS  /var/folders/dt/0wfd0knj7gs46m8vwfzktm600000gn/T//cczoWvr4.s 			page 40


 2210 0116 01FB0626 		mlacc	r6, r1, r6, r2
 2211              	.LVL282:
 2212              		.loc 1 801 0
 2213 011a 0026     		movcs	r6, #0
 2214              	.LBE96:
 2215              	.LBE110:
 2216              		.loc 1 1155 0
 2217 011c 2661     		str	r6, [r4, #16]
 2218 011e 81E7     		b	.L207
 2219              	.LVL283:
 2220              	.L213:
 2221              		.loc 1 1131 0
 2222 0120 0120     		movs	r0, #1
 2223 0122 BDE8F087 		pop	{r4, r5, r6, r7, r8, r9, sl, pc}
 2224              		.cfi_endproc
 2225              	.LFE12:
 2226              		.size	dir_next, .-dir_next
 2227 0126 00BFAFF3 		.section	.text.follow_path,"ax",%progbits
 2227      0080AFF3 
 2227      0080
 2228              		.align	2
 2229              		.p2align 4,,15
 2230              		.thumb
 2231              		.thumb_func
 2232              		.type	follow_path, %function
 2233              	follow_path:
 2234              	.LFB19:
 2235              		.loc 1 1916 0
 2236              		.cfi_startproc
 2237              		@ args = 0, pretend = 0, frame = 0
 2238              		@ frame_needed = 0, uses_anonymous_args = 0
 2239              	.LVL284:
 2240 0000 2DE9F047 		push	{r4, r5, r6, r7, r8, r9, sl, lr}
 2241              	.LCFI14:
 2242              		.cfi_def_cfa_offset 32
 2243              		.cfi_offset 4, -32
 2244              		.cfi_offset 5, -28
 2245              		.cfi_offset 6, -24
 2246              		.cfi_offset 7, -20
 2247              		.cfi_offset 8, -16
 2248              		.cfi_offset 9, -12
 2249              		.cfi_offset 10, -8
 2250              		.cfi_offset 14, -4
 2251              		.loc 1 1928 0
 2252 0004 0B78     		ldrb	r3, [r1, #0]	@ zero_extendqisi2
 2253              		.loc 1 1916 0
 2254 0006 0D46     		mov	r5, r1
 2255              		.loc 1 1928 0
 2256 0008 2F2B     		cmp	r3, #47
 2257 000a 18BF     		it	ne
 2258 000c 5C2B     		cmpne	r3, #92
 2259              		.loc 1 1929 0
 2260 000e 08BF     		it	eq
 2261 0010 4D1C     		addeq	r5, r1, #1
 2262              	.LVL285:
 2263              		.loc 1 1930 0
 2264 0012 0024     		movs	r4, #0
ARM GAS  /var/folders/dt/0wfd0knj7gs46m8vwfzktm600000gn/T//cczoWvr4.s 			page 41


 2265 0014 8460     		str	r4, [r0, #8]
 2266              		.loc 1 1933 0
 2267 0016 2B78     		ldrb	r3, [r5, #0]	@ zero_extendqisi2
 2268              		.loc 1 1916 0
 2269 0018 0646     		mov	r6, r0
 2270              		.loc 1 1933 0
 2271 001a 1F2B     		cmp	r3, #31
 2272 001c 40F20581 		bls	.L301
 2273 0020 D0F818C0 		ldr	ip, [r0, #24]
 2274              	.LBB121:
 2275              	.LBB122:
 2276              	.LBB123:
 2277              	.LBB124:
 2278              		.loc 1 542 0
 2279 0024 2027     		movs	r7, #32
 2280 0026 0CF10B04 		add	r4, ip, #11
 2281              	.LVL286:
 2282              	.L268:
 2283              	.LBE124:
 2284              	.LBE123:
 2285              		.loc 1 1752 0
 2286 002a 5C2B     		cmp	r3, #92
 2287 002c 18BF     		it	ne
 2288 002e 2F2B     		cmpne	r3, #47
 2289 0030 07D1     		bne	.L243
 2290              		.loc 1 1912 0
 2291 0032 6B1C     		adds	r3, r5, #1
 2292              	.LVL287:
 2293              	.L244:
 2294              		.loc 1 1752 0
 2295 0034 1D46     		mov	r5, r3
 2296              	.LVL288:
 2297 0036 13F8012B 		ldrb	r2, [r3], #1	@ zero_extendqisi2
 2298              	.LVL289:
 2299 003a 2F2A     		cmp	r2, #47
 2300 003c 18BF     		it	ne
 2301 003e 5C2A     		cmpne	r2, #92
 2302 0040 F8D0     		beq	.L244
 2303              	.L243:
 2304              	.LVL290:
 2305              	.LBE122:
 2306              	.LBE121:
 2307              		.loc 1 1912 0
 2308 0042 6346     		mov	r3, ip
 2309              	.LVL291:
 2310              	.L245:
 2311              	.LBB133:
 2312              	.LBB129:
 2313              	.LBB126:
 2314              	.LBB125:
 2315              		.loc 1 542 0
 2316 0044 03F8017B 		strb	r7, [r3], #1
 2317              	.LVL292:
 2318              		.loc 1 541 0
 2319 0048 A342     		cmp	r3, r4
 2320 004a FBD1     		bne	.L245
 2321 004c 0020     		movs	r0, #0
ARM GAS  /var/folders/dt/0wfd0knj7gs46m8vwfzktm600000gn/T//cczoWvr4.s 			page 42


 2322 004e 0246     		mov	r2, r0
 2323 0050 0824     		movs	r4, #8
 2324 0052 8146     		mov	r9, r0
 2325              	.LVL293:
 2326              	.L298:
 2327              	.LBE125:
 2328              	.LBE126:
 2329              		.loc 1 1770 0
 2330 0054 AB5C     		ldrb	r3, [r5, r2]	@ zero_extendqisi2
 2331              	.LVL294:
 2332 0056 02F10108 		add	r8, r2, #1
 2333              	.LVL295:
 2334              		.loc 1 1771 0
 2335 005a 2F2B     		cmp	r3, #47
 2336 005c 18BF     		it	ne
 2337 005e 202B     		cmpne	r3, #32
 2338 0060 3DD9     		bls	.L247
 2339              	.LVL296:
 2340              	.L303:
 2341 0062 5C2B     		cmp	r3, #92
 2342 0064 00F0B780 		beq	.L248
 2343              		.loc 1 1772 0
 2344 0068 2E2B     		cmp	r3, #46
 2345 006a 18BF     		it	ne
 2346 006c A042     		cmpne	r0, r4
 2347 006e 07D3     		bcc	.L249
 2348              		.loc 1 1773 0
 2349 0070 082C     		cmp	r4, #8
 2350 0072 08BF     		it	eq
 2351 0074 2E2B     		cmpeq	r3, #46
 2352 0076 00F0A680 		beq	.L302
 2353              	.LVL297:
 2354              	.L279:
 2355              		.loc 1 1809 0
 2356 007a 0620     		movs	r0, #6
 2357              	.LVL298:
 2358 007c BDE8F087 		pop	{r4, r5, r6, r7, r8, r9, sl, pc}
 2359              	.LVL299:
 2360              	.L249:
 2361              		.loc 1 1777 0
 2362 0080 1906     		lsls	r1, r3, #24
 2363              		.loc 1 1787 0
 2364 0082 03F1200A 		add	sl, r3, #32
 2365 0086 03F17F01 		add	r1, r3, #127
 2366 008a 5FFA8AFA 		uxtb	sl, sl
 2367 008e C9B2     		uxtb	r1, r1
 2368              		.loc 1 1778 0
 2369 0090 48BF     		it	mi
 2370 0092 49F00309 		orrmi	r9, r9, #3
 2371              	.LVL300:
 2372              		.loc 1 1787 0
 2373 0096 1E29     		cmp	r1, #30
 2374 0098 88BF     		it	hi
 2375 009a BAF11C0F 		cmphi	sl, #28
 2376 009e 72D8     		bhi	.L252
 2377              		.loc 1 1788 0
 2378 00a0 15F80810 		ldrb	r1, [r5, r8]	@ zero_extendqisi2
ARM GAS  /var/folders/dt/0wfd0knj7gs46m8vwfzktm600000gn/T//cczoWvr4.s 			page 43


 2379              	.LVL301:
 2380 00a4 0232     		adds	r2, r2, #2
 2381              	.LVL302:
 2382              		.loc 1 1789 0
 2383 00a6 81F0800A 		eor	sl, r1, #128
 2384 00aa A1F14008 		sub	r8, r1, #64
 2385              	.LVL303:
 2386 00ae BAF17C0F 		cmp	sl, #124
 2387 00b2 88BF     		it	hi
 2388 00b4 B8F13E0F 		cmphi	r8, #62
 2389 00b8 DFD8     		bhi	.L279
 2390 00ba 04F1FF38 		add	r8, r4, #-1
 2391 00be 4045     		cmp	r0, r8
 2392 00c0 DBD2     		bcs	.L279
 2393              		.loc 1 1792 0
 2394 00c2 0CEB0008 		add	r8, ip, r0
 2395              		.loc 1 1791 0
 2396 00c6 0CF80030 		strb	r3, [ip, r0]
 2397              	.LVL304:
 2398              		.loc 1 1792 0
 2399 00ca 88F80110 		strb	r1, [r8, #1]
 2400              		.loc 1 1770 0
 2401 00ce AB5C     		ldrb	r3, [r5, r2]	@ zero_extendqisi2
 2402              		.loc 1 1792 0
 2403 00d0 0230     		adds	r0, r0, #2
 2404              	.LVL305:
 2405              		.loc 1 1771 0
 2406 00d2 2F2B     		cmp	r3, #47
 2407 00d4 18BF     		it	ne
 2408 00d6 202B     		cmpne	r3, #32
 2409              		.loc 1 1770 0
 2410 00d8 02F10108 		add	r8, r2, #1
 2411              	.LVL306:
 2412              		.loc 1 1771 0
 2413 00dc C1D8     		bhi	.L303
 2414              	.LVL307:
 2415              	.L247:
 2416              		.loc 1 1807 0
 2417 00de 202B     		cmp	r3, #32
 2418              		.loc 1 1806 0
 2419 00e0 4544     		add	r5, r5, r8
 2420              	.LVL308:
 2421              		.loc 1 1807 0
 2422 00e2 79D8     		bhi	.L271
 2423 00e4 0423     		movs	r3, #4
 2424              	.L256:
 2425              	.LVL309:
 2426              		.loc 1 1809 0
 2427 00e6 0028     		cmp	r0, #0
 2428 00e8 C7D0     		beq	.L279
 2429              		.loc 1 1810 0
 2430 00ea 9CF80020 		ldrb	r2, [ip, #0]	@ zero_extendqisi2
 2431 00ee E52A     		cmp	r2, #229
 2432 00f0 00F0A480 		beq	.L304
 2433              	.L257:
 2434              		.loc 1 1812 0
 2435 00f4 082C     		cmp	r4, #8
ARM GAS  /var/folders/dt/0wfd0knj7gs46m8vwfzktm600000gn/T//cczoWvr4.s 			page 44


 2436 00f6 04BF     		itt	eq
 2437 00f8 4FEA8909 		lsleq	r9, r9, #2
 2438 00fc 5FFA89F9 		uxtbeq	r9, r9
 2439              	.LVL310:
 2440              		.loc 1 1813 0
 2441 0100 09F00302 		and	r2, r9, #3
 2442 0104 012A     		cmp	r2, #1
 2443              		.loc 1 1814 0
 2444 0106 09F00C09 		and	r9, r9, #12
 2445              	.LVL311:
 2446              		.loc 1 1813 0
 2447 010a 08BF     		it	eq
 2448 010c 43F01003 		orreq	r3, r3, #16
 2449              	.LVL312:
 2450              		.loc 1 1814 0
 2451 0110 B9F1040F 		cmp	r9, #4
 2452 0114 08BF     		it	eq
 2453 0116 43F00803 		orreq	r3, r3, #8
 2454              	.LVL313:
 2455              		.loc 1 1816 0
 2456 011a 8CF80B30 		strb	r3, [ip, #11]
 2457              	.LVL314:
 2458              	.LBE129:
 2459              	.LBE133:
 2460              	.LBB134:
 2461              	.LBB135:
 2462              		.loc 1 1356 0
 2463 011e 3046     		mov	r0, r6
 2464              	.LVL315:
 2465 0120 0021     		movs	r1, #0
 2466 0122 FFF7FEFF 		bl	dir_sdi
 2467              	.LVL316:
 2468              		.loc 1 1357 0
 2469 0126 40BB     		cbnz	r0, .L261
 2470              	.LVL317:
 2471              	.L289:
 2472              		.loc 1 1363 0
 2473 0128 3068     		ldr	r0, [r6, #0]
 2474              	.LVL318:
 2475 012a 3169     		ldr	r1, [r6, #16]
 2476 012c FFF7FEFF 		bl	move_window
 2477              	.LVL319:
 2478              		.loc 1 1364 0
 2479 0130 18BB     		cbnz	r0, .L261
 2480              		.loc 1 1365 0
 2481 0132 D6F81490 		ldr	r9, [r6, #20]
 2482              	.LVL320:
 2483              		.loc 1 1366 0
 2484 0136 99F80020 		ldrb	r2, [r9, #0]	@ zero_extendqisi2
 2485              	.LVL321:
 2486              		.loc 1 1367 0
 2487 013a 002A     		cmp	r2, #0
 2488 013c 4ED0     		beq	.L262
 2489              		.loc 1 1390 0
 2490 013e 99F80BA0 		ldrb	sl, [r9, #11]	@ zero_extendqisi2
 2491 0142 0AF00803 		and	r3, sl, #8
 2492 0146 DBB2     		uxtb	r3, r3
ARM GAS  /var/folders/dt/0wfd0knj7gs46m8vwfzktm600000gn/T//cczoWvr4.s 			page 45


 2493 0148 8BB9     		cbnz	r3, .L263
 2494 014a D6F818C0 		ldr	ip, [r6, #24]
 2495              	.LVL322:
 2496 014e C846     		mov	r8, r9
 2497              	.LBE135:
 2498              	.LBE134:
 2499              	.LBB141:
 2500              	.LBB130:
 2501 0150 6346     		mov	r3, ip
 2502              	.LBE130:
 2503              	.LBE141:
 2504              	.LBB142:
 2505              	.LBB140:
 2506              	.LBB136:
 2507              	.LBB137:
 2508              		.loc 1 551 0
 2509 0152 13F8011B 		ldrb	r1, [r3], #1	@ zero_extendqisi2
 2510              	.LVL323:
 2511              	.LBE137:
 2512              	.LBE136:
 2513              		.loc 1 1912 0
 2514 0156 0CF10B04 		add	r4, ip, #11
 2515              	.LBB139:
 2516              	.LBB138:
 2517              		.loc 1 551 0
 2518 015a 9142     		cmp	r1, r2
 2519 015c 07D1     		bne	.L263
 2520              	.LVL324:
 2521              	.L266:
 2522 015e A342     		cmp	r3, r4
 2523 0160 47D0     		beq	.L265
 2524 0162 18F8012F 		ldrb	r2, [r8, #1]!	@ zero_extendqisi2
 2525              	.LVL325:
 2526 0166 13F8011B 		ldrb	r1, [r3], #1	@ zero_extendqisi2
 2527              	.LVL326:
 2528 016a 9142     		cmp	r1, r2
 2529 016c F7D0     		beq	.L266
 2530              	.LVL327:
 2531              	.L263:
 2532              	.LBE138:
 2533              	.LBE139:
 2534              		.loc 1 1393 0
 2535 016e 3046     		mov	r0, r6
 2536              	.LVL328:
 2537 0170 0021     		movs	r1, #0
 2538 0172 FFF7FEFF 		bl	dir_next
 2539              	.LVL329:
 2540              		.loc 1 1394 0
 2541 0176 0028     		cmp	r0, #0
 2542 0178 D6D0     		beq	.L289
 2543              	.LVL330:
 2544              	.L261:
 2545              	.LBE140:
 2546              	.LBE142:
 2547              		.loc 1 1942 0
 2548 017a B369     		ldr	r3, [r6, #24]
 2549              		.loc 1 1944 0
ARM GAS  /var/folders/dt/0wfd0knj7gs46m8vwfzktm600000gn/T//cczoWvr4.s 			page 46


 2550 017c 0428     		cmp	r0, #4
 2551              		.loc 1 1942 0
 2552 017e DB7A     		ldrb	r3, [r3, #11]	@ zero_extendqisi2
 2553              	.LVL331:
 2554              		.loc 1 1944 0
 2555 0180 2ED0     		beq	.L273
 2556              		.loc 1 1965 0
 2557 0182 BDE8F087 		pop	{r4, r5, r6, r7, r8, r9, sl, pc}
 2558              	.LVL332:
 2559              	.L252:
 2560              	.LBB143:
 2561              	.LBB131:
 2562              	.LBB127:
 2563              	.LBB128:
 2564              		.loc 1 558 0
 2565 0186 222B     		cmp	r3, #34
 2566 0188 3FF477AF 		beq	.L279
 2567 018c 2E49     		ldr	r1, .L307
 2568 018e 02E0     		b	.L254
 2569              	.LVL333:
 2570              	.L305:
 2571 0190 9342     		cmp	r3, r2
 2572 0192 3FF472AF 		beq	.L279
 2573              	.L254:
 2574 0196 11F8012F 		ldrb	r2, [r1, #1]!	@ zero_extendqisi2
 2575 019a 002A     		cmp	r2, #0
 2576 019c F8D1     		bne	.L305
 2577              	.LBE128:
 2578              	.LBE127:
 2579              		.loc 1 1796 0
 2580 019e A3F14102 		sub	r2, r3, #65
 2581 01a2 192A     		cmp	r2, #25
 2582              		.loc 1 1797 0
 2583 01a4 98BF     		it	ls
 2584 01a6 49F00209 		orrls	r9, r9, #2
 2585              	.LVL334:
 2586              		.loc 1 1796 0
 2587 01aa 07D9     		bls	.L255
 2588              		.loc 1 1799 0
 2589 01ac A3F16102 		sub	r2, r3, #97
 2590 01b0 192A     		cmp	r2, #25
 2591 01b2 03D8     		bhi	.L255
 2592              		.loc 1 1800 0
 2593 01b4 203B     		subs	r3, r3, #32
 2594              	.LVL335:
 2595 01b6 49F00109 		orr	r9, r9, #1
 2596              	.LVL336:
 2597 01ba DBB2     		uxtb	r3, r3
 2598              	.LVL337:
 2599              	.L255:
 2600              		.loc 1 1803 0
 2601 01bc 0CF80030 		strb	r3, [ip, r0]
 2602              		.loc 1 1770 0
 2603 01c0 4246     		mov	r2, r8
 2604              		.loc 1 1803 0
 2605 01c2 0130     		adds	r0, r0, #1
 2606              	.LVL338:
ARM GAS  /var/folders/dt/0wfd0knj7gs46m8vwfzktm600000gn/T//cczoWvr4.s 			page 47


 2607 01c4 46E7     		b	.L298
 2608              	.LVL339:
 2609              	.L302:
 2610              		.loc 1 1775 0
 2611 01c6 4FEA8909 		lsl	r9, r9, #2
 2612 01ca 5FFA89F9 		uxtb	r9, r9
 2613              	.LVL340:
 2614              		.loc 1 1770 0
 2615 01ce 4246     		mov	r2, r8
 2616              		.loc 1 1774 0
 2617 01d0 0820     		movs	r0, #8
 2618 01d2 0B24     		movs	r4, #11
 2619 01d4 3EE7     		b	.L298
 2620              	.LVL341:
 2621              	.L248:
 2622              		.loc 1 1806 0
 2623 01d6 4544     		add	r5, r5, r8
 2624              	.LVL342:
 2625              	.L271:
 2626              		.loc 1 1807 0
 2627 01d8 0023     		movs	r3, #0
 2628 01da 84E7     		b	.L256
 2629              	.LVL343:
 2630              	.L262:
 2631              	.LBE131:
 2632              	.LBE143:
 2633              		.loc 1 1942 0
 2634 01dc B369     		ldr	r3, [r6, #24]
 2635 01de DB7A     		ldrb	r3, [r3, #11]	@ zero_extendqisi2
 2636              	.LVL344:
 2637              	.L273:
 2638              		.loc 1 1951 0
 2639 01e0 03F00403 		and	r3, r3, #4
 2640 01e4 D8B2     		uxtb	r0, r3
 2641              	.LVL345:
 2642 01e6 0028     		cmp	r0, #0
 2643 01e8 0CBF     		ite	eq
 2644 01ea 0520     		moveq	r0, #5
 2645 01ec 0420     		movne	r0, #4
 2646 01ee BDE8F087 		pop	{r4, r5, r6, r7, r8, r9, sl, pc}
 2647              	.LVL346:
 2648              	.L265:
 2649              		.loc 1 1955 0
 2650 01f2 9CF80B30 		ldrb	r3, [ip, #11]	@ zero_extendqisi2
 2651              	.LVL347:
 2652 01f6 03F00403 		and	r3, r3, #4
 2653 01fa DBB2     		uxtb	r3, r3
 2654 01fc 13BB     		cbnz	r3, .L306
 2655              	.LVL348:
 2656              		.loc 1 1957 0
 2657 01fe 0AF0100A 		and	sl, sl, #16
 2658 0202 5FFA8AF3 		uxtb	r3, sl
 2659 0206 B3B1     		cbz	r3, .L281
 2660              		.loc 1 1960 0
 2661 0208 99F81500 		ldrb	r0, [r9, #21]	@ zero_extendqisi2
 2662              	.LVL349:
 2663 020c 99F81420 		ldrb	r2, [r9, #20]	@ zero_extendqisi2
ARM GAS  /var/folders/dt/0wfd0knj7gs46m8vwfzktm600000gn/T//cczoWvr4.s 			page 48


 2664 0210 99F81B30 		ldrb	r3, [r9, #27]	@ zero_extendqisi2
 2665 0214 99F81A10 		ldrb	r1, [r9, #26]	@ zero_extendqisi2
 2666 0218 42EA0022 		orr	r2, r2, r0, lsl #8
 2667 021c 41EA0323 		orr	r3, r1, r3, lsl #8
 2668 0220 43EA0243 		orr	r3, r3, r2, lsl #16
 2669 0224 B360     		str	r3, [r6, #8]
 2670 0226 2B78     		ldrb	r3, [r5, #0]	@ zero_extendqisi2
 2671              		.loc 1 1961 0
 2672 0228 FFE6     		b	.L268
 2673              	.LVL350:
 2674              	.L301:
 2675              		.loc 1 1934 0
 2676 022a 2146     		mov	r1, r4
 2677 022c FFF7FEFF 		bl	dir_sdi
 2678              	.LVL351:
 2679              		.loc 1 1935 0
 2680 0230 7461     		str	r4, [r6, #20]
 2681 0232 BDE8F087 		pop	{r4, r5, r6, r7, r8, r9, sl, pc}
 2682              	.LVL352:
 2683              	.L281:
 2684              		.loc 1 1958 0
 2685 0236 0520     		movs	r0, #5
 2686              	.LVL353:
 2687 0238 BDE8F087 		pop	{r4, r5, r6, r7, r8, r9, sl, pc}
 2688              	.LVL354:
 2689              	.L304:
 2690              	.LBB144:
 2691              	.LBB132:
 2692              		.loc 1 1810 0
 2693 023c 0522     		movs	r2, #5
 2694 023e 8CF80020 		strb	r2, [ip, #0]
 2695 0242 57E7     		b	.L257
 2696              	.LVL355:
 2697              	.L306:
 2698 0244 BDE8F087 		pop	{r4, r5, r6, r7, r8, r9, sl, pc}
 2699              	.L308:
 2700              		.align	2
 2701              	.L307:
 2702 0248 00000000 		.word	.LC0
 2703              	.LBE132:
 2704              	.LBE144:
 2705              		.cfi_endproc
 2706              	.LFE19:
 2707              		.size	follow_path, .-follow_path
 2708 024c AFF30080 		.section	.text.dir_register,"ax",%progbits
 2709              		.align	2
 2710              		.p2align 4,,15
 2711              		.thumb
 2712              		.thumb_func
 2713              		.type	dir_register, %function
 2714              	dir_register:
 2715              	.LFB15:
 2716              		.loc 1 1467 0
 2717              		.cfi_startproc
 2718              		@ args = 0, pretend = 0, frame = 0
 2719              		@ frame_needed = 0, uses_anonymous_args = 0
 2720              	.LVL356:
ARM GAS  /var/folders/dt/0wfd0knj7gs46m8vwfzktm600000gn/T//cczoWvr4.s 			page 49


 2721 0000 38B5     		push	{r3, r4, r5, lr}
 2722              	.LCFI15:
 2723              		.cfi_def_cfa_offset 16
 2724              		.cfi_offset 3, -16
 2725              		.cfi_offset 4, -12
 2726              		.cfi_offset 5, -8
 2727              		.cfi_offset 14, -4
 2728              		.loc 1 1534 0
 2729 0002 0021     		movs	r1, #0
 2730              		.loc 1 1467 0
 2731 0004 0446     		mov	r4, r0
 2732              		.loc 1 1534 0
 2733 0006 FFF7FEFF 		bl	dir_sdi
 2734              	.LVL357:
 2735              		.loc 1 1535 0
 2736 000a 0246     		mov	r2, r0
 2737 000c 30B1     		cbz	r0, .L321
 2738              	.LVL358:
 2739              	.L319:
 2740              		.loc 1 1560 0
 2741 000e 1046     		mov	r0, r2
 2742 0010 38BD     		pop	{r3, r4, r5, pc}
 2743              	.LVL359:
 2744              	.L326:
 2745              		.loc 1 1541 0
 2746 0012 FFF7FEFF 		bl	dir_next
 2747              	.LVL360:
 2748              		.loc 1 1542 0
 2749 0016 0246     		mov	r2, r0
 2750 0018 0028     		cmp	r0, #0
 2751 001a F8D1     		bne	.L319
 2752              	.L321:
 2753              		.loc 1 1537 0
 2754 001c 2169     		ldr	r1, [r4, #16]
 2755 001e 2068     		ldr	r0, [r4, #0]
 2756              	.LVL361:
 2757 0020 FFF7FEFF 		bl	move_window
 2758              	.LVL362:
 2759              		.loc 1 1538 0
 2760 0024 0246     		mov	r2, r0
 2761              		.loc 1 1541 0
 2762 0026 0121     		movs	r1, #1
 2763 0028 2046     		mov	r0, r4
 2764              	.LVL363:
 2765              		.loc 1 1538 0
 2766 002a 002A     		cmp	r2, #0
 2767 002c EFD1     		bne	.L319
 2768              	.LVL364:
 2769              		.loc 1 1539 0
 2770 002e 6369     		ldr	r3, [r4, #20]
 2771 0030 1B78     		ldrb	r3, [r3, #0]	@ zero_extendqisi2
 2772              	.LVL365:
 2773              		.loc 1 1540 0
 2774 0032 E52B     		cmp	r3, #229
 2775 0034 18BF     		it	ne
 2776 0036 002B     		cmpne	r3, #0
 2777 0038 EBD1     		bne	.L326
ARM GAS  /var/folders/dt/0wfd0knj7gs46m8vwfzktm600000gn/T//cczoWvr4.s 			page 50


 2778              	.LVL366:
 2779              	.LBB151:
 2780              	.LBB152:
 2781              		.loc 1 1547 0
 2782 003a 2068     		ldr	r0, [r4, #0]
 2783              	.LVL367:
 2784 003c 2169     		ldr	r1, [r4, #16]
 2785 003e FFF7FEFF 		bl	move_window
 2786              	.LVL368:
 2787              		.loc 1 1548 0
 2788 0042 0246     		mov	r2, r0
 2789 0044 0028     		cmp	r0, #0
 2790 0046 E2D1     		bne	.L319
 2791              		.loc 1 1549 0
 2792 0048 6169     		ldr	r1, [r4, #20]
 2793              	.LVL369:
 2794              	.LBB153:
 2795              	.LBB154:
 2796              		.loc 1 542 0
 2797 004a 1546     		mov	r5, r2
 2798              	.LBE154:
 2799              	.LBE153:
 2800              		.loc 1 1464 0
 2801 004c 01F12000 		add	r0, r1, #32
 2802              	.LVL370:
 2803              	.LBE152:
 2804              	.LBE151:
 2805              		.loc 1 539 0
 2806 0050 0B46     		mov	r3, r1
 2807              	.LVL371:
 2808              	.L313:
 2809              	.LBB160:
 2810              	.LBB159:
 2811              	.LBB156:
 2812              	.LBB155:
 2813              		.loc 1 542 0
 2814 0052 03F8015B 		strb	r5, [r3], #1
 2815              	.LVL372:
 2816              		.loc 1 541 0
 2817 0056 8342     		cmp	r3, r0
 2818 0058 FBD1     		bne	.L313
 2819              	.LVL373:
 2820              		.loc 1 1464 0
 2821 005a A369     		ldr	r3, [r4, #24]
 2822              	.LVL374:
 2823 005c 01F10B05 		add	r5, r1, #11
 2824 0060 013B     		subs	r3, r3, #1
 2825              	.LVL375:
 2826              	.L314:
 2827              	.LBE155:
 2828              	.LBE156:
 2829              	.LBB157:
 2830              	.LBB158:
 2831              		.loc 1 533 0
 2832 0062 13F8010F 		ldrb	r0, [r3, #1]!	@ zero_extendqisi2
 2833 0066 01F8010B 		strb	r0, [r1], #1
 2834              	.LVL376:
ARM GAS  /var/folders/dt/0wfd0knj7gs46m8vwfzktm600000gn/T//cczoWvr4.s 			page 51


 2835              		.loc 1 532 0
 2836 006a A942     		cmp	r1, r5
 2837 006c F9D1     		bne	.L314
 2838              	.LBE158:
 2839              	.LBE157:
 2840              		.loc 1 1555 0
 2841 006e 2368     		ldr	r3, [r4, #0]
 2842 0070 0121     		movs	r1, #1
 2843              	.LVL377:
 2844 0072 1971     		strb	r1, [r3, #4]
 2845              	.LBE159:
 2846              	.LBE160:
 2847              		.loc 1 1560 0
 2848 0074 1046     		mov	r0, r2
 2849 0076 38BD     		pop	{r3, r4, r5, pc}
 2850              		.cfi_endproc
 2851              	.LFE15:
 2852              		.size	dir_register, .-dir_register
 2853 0078 AFF30080 		.section	.text.dir_read,"ax",%progbits
 2853      AFF30080 
 2854              		.align	2
 2855              		.p2align 4,,15
 2856              		.thumb
 2857              		.thumb_func
 2858              		.type	dir_read, %function
 2859              	dir_read:
 2860              	.LFB14:
 2861              		.loc 1 1410 0
 2862              		.cfi_startproc
 2863              		@ args = 0, pretend = 0, frame = 0
 2864              		@ frame_needed = 0, uses_anonymous_args = 0
 2865              	.LVL378:
 2866 0000 38B5     		push	{r3, r4, r5, lr}
 2867              	.LCFI16:
 2868              		.cfi_def_cfa_offset 16
 2869              		.cfi_offset 3, -16
 2870              		.cfi_offset 4, -12
 2871              		.cfi_offset 5, -8
 2872              		.cfi_offset 14, -4
 2873              		.loc 1 1410 0
 2874 0002 0446     		mov	r4, r0
 2875              		.loc 1 1417 0
 2876 0004 0425     		movs	r5, #4
 2877              		.loc 1 1418 0
 2878 0006 16E0     		b	.L328
 2879              	.LVL379:
 2880              	.L332:
 2881              		.loc 1 1419 0
 2882 0008 2068     		ldr	r0, [r4, #0]
 2883 000a FFF7FEFF 		bl	move_window
 2884              	.LVL380:
 2885              		.loc 1 1420 0
 2886 000e 0546     		mov	r5, r0
 2887              		.loc 1 1447 0
 2888 0010 0021     		movs	r1, #0
 2889 0012 2046     		mov	r0, r4
 2890              	.LVL381:
ARM GAS  /var/folders/dt/0wfd0knj7gs46m8vwfzktm600000gn/T//cczoWvr4.s 			page 52


 2891              		.loc 1 1420 0
 2892 0014 BDB9     		cbnz	r5, .L333
 2893              	.LVL382:
 2894              		.loc 1 1421 0
 2895 0016 6269     		ldr	r2, [r4, #20]
 2896              	.LVL383:
 2897              		.loc 1 1422 0
 2898 0018 1378     		ldrb	r3, [r2, #0]	@ zero_extendqisi2
 2899              	.LVL384:
 2900              		.loc 1 1423 0
 2901 001a 9BB1     		cbz	r3, .L334
 2902              		.loc 1 1444 0
 2903 001c 2E2B     		cmp	r3, #46
 2904 001e 18BF     		it	ne
 2905 0020 E52B     		cmpne	r3, #229
 2906 0022 04D0     		beq	.L330
 2907              		.loc 1 1444 0 is_stmt 0 discriminator 1
 2908 0024 D37A     		ldrb	r3, [r2, #11]	@ zero_extendqisi2
 2909 0026 03F00803 		and	r3, r3, #8
 2910 002a DBB2     		uxtb	r3, r3
 2911 002c 43B1     		cbz	r3, .L339
 2912              	.L330:
 2913              		.loc 1 1447 0 is_stmt 1
 2914 002e FFF7FEFF 		bl	dir_next
 2915              	.LVL385:
 2916 0032 0546     		mov	r5, r0
 2917              	.LVL386:
 2918              		.loc 1 1448 0
 2919 0034 58B9     		cbnz	r0, .L335
 2920              	.LVL387:
 2921              	.L328:
 2922              		.loc 1 1418 0 discriminator 1
 2923 0036 2369     		ldr	r3, [r4, #16]
 2924              		.loc 1 1419 0 discriminator 1
 2925 0038 1946     		mov	r1, r3
 2926              		.loc 1 1418 0 discriminator 1
 2927 003a 002B     		cmp	r3, #0
 2928 003c E4D1     		bne	.L332
 2929              	.LVL388:
 2930              		.loc 1 1451 0
 2931 003e 15B9     		cbnz	r5, .L333
 2932              	.LVL389:
 2933              	.L339:
 2934              		.loc 1 1454 0
 2935 0040 2846     		mov	r0, r5
 2936 0042 38BD     		pop	{r3, r4, r5, pc}
 2937              	.LVL390:
 2938              	.L334:
 2939              		.loc 1 1423 0
 2940 0044 0425     		movs	r5, #4
 2941              	.LVL391:
 2942              	.L333:
 2943              		.loc 1 1451 0 discriminator 1
 2944 0046 0023     		movs	r3, #0
 2945 0048 2361     		str	r3, [r4, #16]
 2946              	.L346:
 2947              		.loc 1 1454 0
ARM GAS  /var/folders/dt/0wfd0knj7gs46m8vwfzktm600000gn/T//cczoWvr4.s 			page 53


 2948 004a 2846     		mov	r0, r5
 2949 004c 38BD     		pop	{r3, r4, r5, pc}
 2950              	.LVL392:
 2951              	.L335:
 2952              		.loc 1 1451 0
 2953 004e 0023     		movs	r3, #0
 2954              		.loc 1 1447 0
 2955 0050 0546     		mov	r5, r0
 2956              	.LVL393:
 2957              		.loc 1 1451 0
 2958 0052 2361     		str	r3, [r4, #16]
 2959 0054 F9E7     		b	.L346
 2960              		.cfi_endproc
 2961              	.LFE14:
 2962              		.size	dir_read, .-dir_read
 2963 0056 00BFAFF3 		.section	.text.remove_chain,"ax",%progbits
 2963      0080AFF3 
 2963      0080
 2964              		.align	2
 2965              		.p2align 4,,15
 2966              		.thumb
 2967              		.thumb_func
 2968              		.type	remove_chain, %function
 2969              	remove_chain:
 2970              	.LFB9:
 2971              		.loc 1 923 0
 2972              		.cfi_startproc
 2973              		@ args = 0, pretend = 0, frame = 0
 2974              		@ frame_needed = 0, uses_anonymous_args = 0
 2975              	.LVL394:
 2976              		.loc 1 930 0
 2977 0000 0129     		cmp	r1, #1
 2978              		.loc 1 923 0
 2979 0002 70B5     		push	{r4, r5, r6, lr}
 2980              	.LCFI17:
 2981              		.cfi_def_cfa_offset 16
 2982              		.cfi_offset 4, -16
 2983              		.cfi_offset 5, -12
 2984              		.cfi_offset 6, -8
 2985              		.cfi_offset 14, -4
 2986              		.loc 1 923 0
 2987 0004 0D46     		mov	r5, r1
 2988 0006 0446     		mov	r4, r0
 2989              		.loc 1 930 0
 2990 0008 02D9     		bls	.L355
 2991              		.loc 1 930 0 is_stmt 0 discriminator 1
 2992 000a 8369     		ldr	r3, [r0, #24]
 2993 000c 9942     		cmp	r1, r3
 2994 000e 01D3     		bcc	.L363
 2995              	.LVL395:
 2996              	.L355:
 2997              		.loc 1 931 0 is_stmt 1
 2998 0010 0220     		movs	r0, #2
 2999              	.LVL396:
 3000              	.L348:
 3001              		.loc 1 961 0
 3002 0012 70BD     		pop	{r4, r5, r6, pc}
ARM GAS  /var/folders/dt/0wfd0knj7gs46m8vwfzktm600000gn/T//cczoWvr4.s 			page 54


 3003              	.LVL397:
 3004              	.L363:
 3005              	.LBB163:
 3006              	.LBB164:
 3007              		.loc 1 944 0
 3008 0014 0126     		movs	r6, #1
 3009              	.LVL398:
 3010              	.L360:
 3011              		.loc 1 936 0
 3012 0016 2946     		mov	r1, r5
 3013 0018 2046     		mov	r0, r4
 3014 001a FFF7FEFF 		bl	get_fat
 3015              	.LVL399:
 3016              		.loc 1 937 0
 3017 001e 0346     		mov	r3, r0
 3018              		.loc 1 940 0
 3019 0020 2946     		mov	r1, r5
 3020 0022 0022     		movs	r2, #0
 3021 0024 0546     		mov	r5, r0
 3022 0026 2046     		mov	r0, r4
 3023              	.LVL400:
 3024              		.loc 1 937 0
 3025 0028 83B1     		cbz	r3, .L353
 3026              	.LVL401:
 3027              		.loc 1 938 0
 3028 002a 012B     		cmp	r3, #1
 3029 002c F0D0     		beq	.L355
 3030              		.loc 1 939 0
 3031 002e 0133     		adds	r3, r3, #1
 3032              	.LVL402:
 3033 0030 0ED0     		beq	.L357
 3034              		.loc 1 940 0
 3035 0032 FFF7FEFF 		bl	put_fat
 3036              	.LVL403:
 3037              		.loc 1 941 0
 3038 0036 0028     		cmp	r0, #0
 3039 0038 EBD1     		bne	.L348
 3040              		.loc 1 942 0
 3041 003a 2369     		ldr	r3, [r4, #16]
 3042 003c 581C     		adds	r0, r3, #1
 3043 003e 02D0     		beq	.L351
 3044              		.loc 1 943 0
 3045 0040 0133     		adds	r3, r3, #1
 3046 0042 2361     		str	r3, [r4, #16]
 3047              		.loc 1 944 0
 3048 0044 6671     		strb	r6, [r4, #5]
 3049              	.L351:
 3050              		.loc 1 935 0
 3051 0046 A369     		ldr	r3, [r4, #24]
 3052 0048 9D42     		cmp	r5, r3
 3053 004a E4D3     		bcc	.L360
 3054              	.LVL404:
 3055              	.L353:
 3056              	.LBE164:
 3057              	.LBE163:
 3058              		.loc 1 923 0
 3059 004c 0020     		movs	r0, #0
ARM GAS  /var/folders/dt/0wfd0knj7gs46m8vwfzktm600000gn/T//cczoWvr4.s 			page 55


 3060 004e 70BD     		pop	{r4, r5, r6, pc}
 3061              	.LVL405:
 3062              	.L357:
 3063              	.LBB166:
 3064              	.LBB165:
 3065              		.loc 1 939 0
 3066 0050 0120     		movs	r0, #1
 3067              	.LVL406:
 3068 0052 70BD     		pop	{r4, r5, r6, pc}
 3069              	.LBE165:
 3070              	.LBE166:
 3071              		.cfi_endproc
 3072              	.LFE9:
 3073              		.size	remove_chain, .-remove_chain
 3074 0054 AFF30080 		.section	.text.f_mount,"ax",%progbits
 3074      AFF30080 
 3074      AFF30080 
 3075              		.align	2
 3076              		.p2align 4,,15
 3077              		.global	f_mount
 3078              		.thumb
 3079              		.thumb_func
 3080              		.type	f_mount, %function
 3081              	f_mount:
 3082              	.LFB23:
 3083              		.loc 1 2201 0
 3084              		.cfi_startproc
 3085              		@ args = 0, pretend = 0, frame = 0
 3086              		@ frame_needed = 0, uses_anonymous_args = 0
 3087              		@ link register save eliminated.
 3088              	.LVL407:
 3089              		.loc 1 2205 0
 3090 0000 08B1     		cbz	r0, .L375
 3091              		.loc 1 2206 0
 3092 0002 0B20     		movs	r0, #11
 3093              	.LVL408:
 3094              		.loc 1 2228 0
 3095 0004 7047     		bx	lr
 3096              	.LVL409:
 3097              	.L375:
 3098              		.loc 1 2207 0
 3099 0006 054B     		ldr	r3, .L376
 3100 0008 1A68     		ldr	r2, [r3, #0]
 3101              	.LVL410:
 3102              		.loc 1 2209 0
 3103 000a 02B1     		cbz	r2, .L366
 3104              		.loc 1 2216 0
 3105 000c 1070     		strb	r0, [r2, #0]
 3106              	.L366:
 3107              		.loc 1 2219 0
 3108 000e 09B1     		cbz	r1, .L367
 3109              		.loc 1 2220 0
 3110 0010 0022     		movs	r2, #0
 3111              	.LVL411:
 3112 0012 0A70     		strb	r2, [r1, #0]
 3113              	.L367:
 3114              		.loc 1 2225 0
ARM GAS  /var/folders/dt/0wfd0knj7gs46m8vwfzktm600000gn/T//cczoWvr4.s 			page 56


 3115 0014 1960     		str	r1, [r3, #0]
 3116              		.loc 1 2227 0
 3117 0016 0020     		movs	r0, #0
 3118              	.LVL412:
 3119 0018 7047     		bx	lr
 3120              	.L377:
 3121 001a 00BF     		.align	2
 3122              	.L376:
 3123 001c 00000000 		.word	.LANCHOR0
 3124              		.cfi_endproc
 3125              	.LFE23:
 3126              		.size	f_mount, .-f_mount
 3127              		.section	.text.f_open,"ax",%progbits
 3128              		.align	2
 3129              		.p2align 4,,15
 3130              		.global	f_open
 3131              		.thumb
 3132              		.thumb_func
 3133              		.type	f_open, %function
 3134              	f_open:
 3135              	.LFB24:
 3136              		.loc 1 2242 0
 3137              		.cfi_startproc
 3138              		@ args = 0, pretend = 0, frame = 48
 3139              		@ frame_needed = 0, uses_anonymous_args = 0
 3140              	.LVL413:
 3141 0000 2DE9F04F 		push	{r4, r5, r6, r7, r8, r9, sl, fp, lr}
 3142              	.LCFI18:
 3143              		.cfi_def_cfa_offset 36
 3144              		.cfi_offset 4, -36
 3145              		.cfi_offset 5, -32
 3146              		.cfi_offset 6, -28
 3147              		.cfi_offset 7, -24
 3148              		.cfi_offset 8, -20
 3149              		.cfi_offset 9, -16
 3150              		.cfi_offset 10, -12
 3151              		.cfi_offset 11, -8
 3152              		.cfi_offset 14, -4
 3153 0004 8DB0     		sub	sp, sp, #52
 3154              	.LCFI19:
 3155              		.cfi_def_cfa_offset 88
 3156              		.loc 1 2242 0
 3157 0006 0CAB     		add	r3, sp, #48
 3158 0008 43F82C1D 		str	r1, [r3, #-44]!
 3159 000c 1646     		mov	r6, r2
 3160              		.loc 1 2249 0
 3161 000e 0022     		movs	r2, #0
 3162              	.LVL414:
 3163 0010 0260     		str	r2, [r0, #0]
 3164              		.loc 1 2242 0
 3165 0012 0546     		mov	r5, r0
 3166              		.loc 1 2253 0
 3167 0014 05A9     		add	r1, sp, #20
 3168              	.LVL415:
 3169 0016 1846     		mov	r0, r3
 3170              	.LVL416:
 3171 0018 06F01E02 		and	r2, r6, #30
ARM GAS  /var/folders/dt/0wfd0knj7gs46m8vwfzktm600000gn/T//cczoWvr4.s 			page 57


 3172 001c FFF7FEFF 		bl	chk_mounted
 3173              	.LVL417:
 3174              		.loc 1 2258 0
 3175 0020 02AB     		add	r3, sp, #8
 3176              		.loc 1 2252 0
 3177 0022 06F01F07 		and	r7, r6, #31
 3178              	.LVL418:
 3179              		.loc 1 2258 0
 3180 0026 0B93     		str	r3, [sp, #44]
 3181              		.loc 1 2259 0
 3182 0028 40B1     		cbz	r0, .L410
 3183              	.LVL419:
 3184              	.L379:
 3185              		.loc 1 2273 0
 3186 002a 16F01C0F 		tst	r6, #28
 3187 002e 02D0     		beq	.L402
 3188              	.LBB167:
 3189              		.loc 1 2277 0
 3190 0030 0428     		cmp	r0, #4
 3191 0032 00F09680 		beq	.L411
 3192              	.LVL420:
 3193              	.L402:
 3194              	.LBE167:
 3195              		.loc 1 2358 0
 3196 0036 0DB0     		add	sp, sp, #52
 3197 0038 BDE8F08F 		pop	{r4, r5, r6, r7, r8, r9, sl, fp, pc}
 3198              	.LVL421:
 3199              	.L410:
 3200              		.loc 1 2260 0
 3201 003c 05A8     		add	r0, sp, #20
 3202              	.LVL422:
 3203 003e 0199     		ldr	r1, [sp, #4]
 3204 0040 FFF7FEFF 		bl	follow_path
 3205              	.LVL423:
 3206              		.loc 1 2261 0
 3207 0044 0A9C     		ldr	r4, [sp, #40]
 3208              	.LVL424:
 3209              		.loc 1 2264 0
 3210 0046 0028     		cmp	r0, #0
 3211 0048 EFD1     		bne	.L379
 3212              		.loc 1 2265 0
 3213 004a 002C     		cmp	r4, #0
 3214 004c 4BD0     		beq	.L412
 3215              	.LVL425:
 3216              		.loc 1 2273 0
 3217 004e 16F01C0F 		tst	r6, #28
 3218 0052 30D0     		beq	.L413
 3219              	.LBB168:
 3220              		.loc 1 2287 0
 3221 0054 E37A     		ldrb	r3, [r4, #11]	@ zero_extendqisi2
 3222 0056 13F0110F 		tst	r3, #17
 3223 005a 42D1     		bne	.L399
 3224              		.loc 1 2290 0
 3225 005c 06F00406 		and	r6, r6, #4
 3226 0060 F6B2     		uxtb	r6, r6
 3227              		.loc 1 2291 0
 3228 0062 0820     		movs	r0, #8
ARM GAS  /var/folders/dt/0wfd0knj7gs46m8vwfzktm600000gn/T//cczoWvr4.s 			page 58


 3229              		.loc 1 2290 0
 3230 0064 002E     		cmp	r6, #0
 3231 0066 E6D1     		bne	.L402
 3232              	.LVL426:
 3233              	.L382:
 3234              		.loc 1 2294 0 discriminator 1
 3235 0068 07F00803 		and	r3, r7, #8
 3236 006c DBB2     		uxtb	r3, r3
 3237 006e 002B     		cmp	r3, #0
 3238 0070 3BD1     		bne	.L414
 3239 0072 059B     		ldr	r3, [sp, #20]
 3240              	.LVL427:
 3241              	.L393:
 3242              	.LBE168:
 3243              		.loc 1 2325 0
 3244 0074 DA6A     		ldr	r2, [r3, #44]
 3245              		.loc 1 2346 0
 3246 0076 AF71     		strb	r7, [r5, #6]
 3247              		.loc 1 2325 0
 3248 0078 EA61     		str	r2, [r5, #28]
 3249              		.loc 1 2326 0
 3250 007a 2C62     		str	r4, [r5, #32]
 3251              		.loc 1 2347 0
 3252 007c A07E     		ldrb	r0, [r4, #26]	@ zero_extendqisi2
 3253 007e 667D     		ldrb	r6, [r4, #21]	@ zero_extendqisi2
 3254 0080 217D     		ldrb	r1, [r4, #20]	@ zero_extendqisi2
 3255 0082 E27E     		ldrb	r2, [r4, #27]	@ zero_extendqisi2
 3256 0084 41EA0621 		orr	r1, r1, r6, lsl #8
 3257 0088 40EA0222 		orr	r2, r0, r2, lsl #8
 3258 008c 42EA0142 		orr	r2, r2, r1, lsl #16
 3259 0090 2A61     		str	r2, [r5, #16]
 3260              		.loc 1 2348 0
 3261 0092 A17F     		ldrb	r1, [r4, #30]	@ zero_extendqisi2
 3262 0094 E07F     		ldrb	r0, [r4, #31]	@ zero_extendqisi2
 3263 0096 227F     		ldrb	r2, [r4, #28]	@ zero_extendqisi2
 3264 0098 0904     		lsls	r1, r1, #16
 3265 009a 647F     		ldrb	r4, [r4, #29]	@ zero_extendqisi2
 3266              	.LVL428:
 3267 009c 41EA0061 		orr	r1, r1, r0, lsl #24
 3268 00a0 1143     		orrs	r1, r1, r2
 3269              		.loc 1 2354 0
 3270 00a2 DA88     		ldrh	r2, [r3, #6]
 3271              		.loc 1 2349 0
 3272 00a4 0020     		movs	r0, #0
 3273              		.loc 1 2348 0
 3274 00a6 41EA0421 		orr	r1, r1, r4, lsl #8
 3275 00aa E960     		str	r1, [r5, #12]
 3276              		.loc 1 2349 0
 3277 00ac A860     		str	r0, [r5, #8]
 3278              		.loc 1 2350 0
 3279 00ae A861     		str	r0, [r5, #24]
 3280              		.loc 1 2354 0
 3281 00b0 2B60     		str	r3, [r5, #0]
 3282 00b2 AA80     		strh	r2, [r5, #4]	@ movhi
 3283 00b4 BFE7     		b	.L402
 3284              	.LVL429:
 3285              	.L413:
ARM GAS  /var/folders/dt/0wfd0knj7gs46m8vwfzktm600000gn/T//cczoWvr4.s 			page 59


 3286              		.loc 1 2314 0
 3287 00b6 E37A     		ldrb	r3, [r4, #11]	@ zero_extendqisi2
 3288              		.loc 1 2315 0
 3289 00b8 0420     		movs	r0, #4
 3290              		.loc 1 2314 0
 3291 00ba 03F01002 		and	r2, r3, #16
 3292 00be D2B2     		uxtb	r2, r2
 3293 00c0 002A     		cmp	r2, #0
 3294 00c2 B8D1     		bne	.L402
 3295              		.loc 1 2317 0
 3296 00c4 06F00202 		and	r2, r6, #2
 3297 00c8 D2B2     		uxtb	r2, r2
 3298 00ca 42B9     		cbnz	r2, .L388
 3299              	.L409:
 3300 00cc 06F00806 		and	r6, r6, #8
 3301 00d0 F6B2     		uxtb	r6, r6
 3302 00d2 059B     		ldr	r3, [sp, #20]
 3303              		.loc 1 2323 0
 3304 00d4 002E     		cmp	r6, #0
 3305 00d6 CDD0     		beq	.L393
 3306              	.LVL430:
 3307              	.L385:
 3308              		.loc 1 2324 0
 3309 00d8 47F02007 		orr	r7, r7, #32
 3310              	.LVL431:
 3311 00dc CAE7     		b	.L393
 3312              	.LVL432:
 3313              	.L388:
 3314              		.loc 1 2317 0 discriminator 1
 3315 00de DB07     		lsls	r3, r3, #31
 3316 00e0 F4D5     		bpl	.L409
 3317              	.L399:
 3318              		.loc 1 2318 0
 3319 00e2 0720     		movs	r0, #7
 3320              	.LVL433:
 3321 00e4 A7E7     		b	.L402
 3322              	.LVL434:
 3323              	.L412:
 3324              		.loc 1 2266 0
 3325 00e6 0620     		movs	r0, #6
 3326              	.LVL435:
 3327 00e8 A5E7     		b	.L402
 3328              	.LVL436:
 3329              	.L414:
 3330              	.LBB169:
 3331              		.loc 1 2295 0
 3332 00ea FFF7FEFF 		bl	get_fattime
 3333              	.LVL437:
 3334              		.loc 1 2299 0
 3335 00ee 94F815B0 		ldrb	fp, [r4, #21]	@ zero_extendqisi2
 3336 00f2 267D     		ldrb	r6, [r4, #20]	@ zero_extendqisi2
 3337 00f4 E17E     		ldrb	r1, [r4, #27]	@ zero_extendqisi2
 3338 00f6 94F81AA0 		ldrb	sl, [r4, #26]	@ zero_extendqisi2
 3339              		.loc 1 2297 0
 3340 00fa 0022     		movs	r2, #0
 3341              		.loc 1 2301 0
 3342 00fc 059B     		ldr	r3, [sp, #20]
ARM GAS  /var/folders/dt/0wfd0knj7gs46m8vwfzktm600000gn/T//cczoWvr4.s 			page 60


 3343              		.loc 1 2299 0
 3344 00fe 46EA0B26 		orr	r6, r6, fp, lsl #8
 3345 0102 4AEA0121 		orr	r1, sl, r1, lsl #8
 3346              	.LVL438:
 3347              		.loc 1 2297 0
 3348 0106 E272     		strb	r2, [r4, #11]
 3349              		.loc 1 2298 0
 3350 0108 2277     		strb	r2, [r4, #28]
 3351 010a 6277     		strb	r2, [r4, #29]
 3352 010c A277     		strb	r2, [r4, #30]
 3353 010e E277     		strb	r2, [r4, #31]
 3354              		.loc 1 2300 0
 3355 0110 A276     		strb	r2, [r4, #26]
 3356 0112 E276     		strb	r2, [r4, #27]
 3357 0114 2275     		strb	r2, [r4, #20]
 3358 0116 6275     		strb	r2, [r4, #21]
 3359              		.loc 1 2296 0
 3360 0118 C0F30729 		ubfx	r9, r0, #8, #8
 3361              		.loc 1 2301 0
 3362 011c 0122     		movs	r2, #1
 3363              		.loc 1 2296 0
 3364 011e 4FEA1048 		lsr	r8, r0, #16
 3365 0122 4FEA106C 		lsr	ip, r0, #24
 3366              		.loc 1 2302 0
 3367 0126 51EA0646 		orrs	r6, r1, r6, lsl #16
 3368              	.LVL439:
 3369              		.loc 1 2296 0
 3370 012a A073     		strb	r0, [r4, #14]
 3371 012c 84F80F90 		strb	r9, [r4, #15]
 3372 0130 84F81080 		strb	r8, [r4, #16]
 3373 0134 84F811C0 		strb	ip, [r4, #17]
 3374              		.loc 1 2301 0
 3375 0138 1A71     		strb	r2, [r3, #4]
 3376              		.loc 1 2302 0
 3377 013a CDD0     		beq	.L385
 3378              		.loc 1 2304 0
 3379 013c 1846     		mov	r0, r3
 3380              	.LVL440:
 3381 013e 3146     		mov	r1, r6
 3382              		.loc 1 2303 0
 3383 0140 D3F82C80 		ldr	r8, [r3, #44]
 3384              	.LVL441:
 3385              		.loc 1 2304 0
 3386 0144 FFF7FEFF 		bl	remove_chain
 3387              	.LVL442:
 3388              		.loc 1 2305 0
 3389 0148 0028     		cmp	r0, #0
 3390 014a 7FF474AF 		bne	.L402
 3391              		.loc 1 2306 0
 3392 014e 0598     		ldr	r0, [sp, #20]
 3393              	.LVL443:
 3394 0150 013E     		subs	r6, r6, #1
 3395              	.LVL444:
 3396 0152 C660     		str	r6, [r0, #12]
 3397              		.loc 1 2307 0
 3398 0154 4146     		mov	r1, r8
 3399 0156 FFF7FEFF 		bl	move_window
ARM GAS  /var/folders/dt/0wfd0knj7gs46m8vwfzktm600000gn/T//cczoWvr4.s 			page 61


 3400              	.LVL445:
 3401 015a 059B     		ldr	r3, [sp, #20]
 3402              	.LBE169:
 3403              		.loc 1 2322 0
 3404 015c 0028     		cmp	r0, #0
 3405 015e BBD0     		beq	.L385
 3406 0160 69E7     		b	.L402
 3407              	.LVL446:
 3408              	.L411:
 3409              	.LBB170:
 3410              		.loc 1 2281 0
 3411 0162 05A8     		add	r0, sp, #20
 3412              	.LVL447:
 3413 0164 FFF7FEFF 		bl	dir_register
 3414              	.LVL448:
 3415              		.loc 1 2283 0
 3416 0168 47F00807 		orr	r7, r7, #8
 3417              	.LVL449:
 3418              		.loc 1 2284 0
 3419 016c 0A9C     		ldr	r4, [sp, #40]
 3420              	.LVL450:
 3421              		.loc 1 2294 0
 3422 016e 0028     		cmp	r0, #0
 3423 0170 3FF47AAF 		beq	.L382
 3424 0174 5FE7     		b	.L402
 3425              	.LBE170:
 3426              		.cfi_endproc
 3427              	.LFE24:
 3428              		.size	f_open, .-f_open
 3429 0176 00BFAFF3 		.section	.text.f_read,"ax",%progbits
 3429      0080AFF3 
 3429      0080
 3430              		.align	2
 3431              		.p2align 4,,15
 3432              		.global	f_read
 3433              		.thumb
 3434              		.thumb_func
 3435              		.type	f_read, %function
 3436              	f_read:
 3437              	.LFB25:
 3438              		.loc 1 2373 0
 3439              		.cfi_startproc
 3440              		@ args = 0, pretend = 0, frame = 8
 3441              		@ frame_needed = 0, uses_anonymous_args = 0
 3442              	.LVL451:
 3443 0000 2DE9F04F 		push	{r4, r5, r6, r7, r8, r9, sl, fp, lr}
 3444              	.LCFI20:
 3445              		.cfi_def_cfa_offset 36
 3446              		.cfi_offset 4, -36
 3447              		.cfi_offset 5, -32
 3448              		.cfi_offset 6, -28
 3449              		.cfi_offset 7, -24
 3450              		.cfi_offset 8, -20
 3451              		.cfi_offset 9, -16
 3452              		.cfi_offset 10, -12
 3453              		.cfi_offset 11, -8
 3454              		.cfi_offset 14, -4
ARM GAS  /var/folders/dt/0wfd0knj7gs46m8vwfzktm600000gn/T//cczoWvr4.s 			page 62


 3455 0004 0746     		mov	r7, r0
 3456 0006 9B46     		mov	fp, r3
 3457              		.loc 1 2380 0
 3458 0008 0023     		movs	r3, #0
 3459              	.LVL452:
 3460              		.loc 1 2373 0
 3461 000a 83B0     		sub	sp, sp, #12
 3462              	.LCFI21:
 3463              		.cfi_def_cfa_offset 48
 3464              		.loc 1 2373 0
 3465 000c 0C46     		mov	r4, r1
 3466              	.LVL453:
 3467              		.loc 1 2380 0
 3468 000e CBF80030 		str	r3, [fp, #0]
 3469              		.loc 1 2382 0
 3470 0012 0068     		ldr	r0, [r0, #0]
 3471              	.LVL454:
 3472 0014 B988     		ldrh	r1, [r7, #4]
 3473              	.LVL455:
 3474              		.loc 1 2373 0
 3475 0016 1546     		mov	r5, r2
 3476              		.loc 1 2382 0
 3477 0018 FFF7FEFF 		bl	validate
 3478              	.LVL456:
 3479              		.loc 1 2383 0
 3480 001c 8146     		mov	r9, r0
 3481 001e 50B9     		cbnz	r0, .L416
 3482              		.loc 1 2384 0
 3483 0020 BB79     		ldrb	r3, [r7, #6]	@ zero_extendqisi2
 3484 0022 1A06     		lsls	r2, r3, #24
 3485              		.loc 1 2385 0
 3486 0024 48BF     		it	mi
 3487 0026 4FF00209 		movmi	r9, #2
 3488              		.loc 1 2384 0
 3489 002a 04D4     		bmi	.L416
 3490              		.loc 1 2386 0
 3491 002c D807     		lsls	r0, r3, #31
 3492              	.LVL457:
 3493              		.loc 1 2387 0
 3494 002e 58BF     		it	pl
 3495 0030 4FF00709 		movpl	r9, #7
 3496              		.loc 1 2386 0
 3497 0034 03D4     		bmi	.L455
 3498              	.LVL458:
 3499              	.L416:
 3500              		.loc 1 2458 0
 3501 0036 4846     		mov	r0, r9
 3502 0038 03B0     		add	sp, sp, #12
 3503 003a BDE8F08F 		pop	{r4, r5, r6, r7, r8, r9, sl, fp, pc}
 3504              	.LVL459:
 3505              	.L455:
 3506              		.loc 1 2388 0
 3507 003e BE68     		ldr	r6, [r7, #8]
 3508              	.LVL460:
 3509 0040 FB68     		ldr	r3, [r7, #12]
 3510 0042 9B1B     		subs	r3, r3, r6
 3511              	.LVL461:
ARM GAS  /var/folders/dt/0wfd0knj7gs46m8vwfzktm600000gn/T//cczoWvr4.s 			page 63


 3512 0044 9D42     		cmp	r5, r3
 3513 0046 34BF     		ite	cc
 3514 0048 A846     		movcc	r8, r5
 3515 004a 9846     		movcs	r8, r3
 3516              	.LVL462:
 3517              		.loc 1 2391 0
 3518 004c B8F1000F 		cmp	r8, #0
 3519 0050 F1D0     		beq	.L416
 3520              		.loc 1 2435 0
 3521 0052 07F1240A 		add	sl, r7, #36
 3522              	.LVL463:
 3523              	.L438:
 3524              		.loc 1 2393 0
 3525 0056 F505     		lsls	r5, r6, #23
 3526 0058 ED0D     		lsrs	r5, r5, #23
 3527 005a 002D     		cmp	r5, #0
 3528 005c 34D1     		bne	.L418
 3529              		.loc 1 2394 0
 3530 005e 3B68     		ldr	r3, [r7, #0]
 3531 0060 9A78     		ldrb	r2, [r3, #2]	@ zero_extendqisi2
 3532 0062 013A     		subs	r2, r2, #1
 3533 0064 02EA5622 		and	r2, r2, r6, lsr #9
 3534              	.LVL464:
 3535              		.loc 1 2395 0
 3536 0068 12F0FF02 		ands	r2, r2, #255
 3537              	.LVL465:
 3538 006c 4AD0     		beq	.L419
 3539 006e 7869     		ldr	r0, [r7, #20]
 3540              	.LVL466:
 3541              	.LBB171:
 3542              	.LBB172:
 3543              		.loc 1 801 0
 3544 0070 9969     		ldr	r1, [r3, #24]
 3545              		.loc 1 800 0
 3546 0072 0238     		subs	r0, r0, #2
 3547              	.LVL467:
 3548              		.loc 1 801 0
 3549 0074 0239     		subs	r1, r1, #2
 3550 0076 8842     		cmp	r0, r1
 3551 0078 52D3     		bcc	.L456
 3552              	.LVL468:
 3553              	.L425:
 3554              	.LBE172:
 3555              	.LBE171:
 3556              		.loc 1 2411 0 discriminator 1
 3557 007a BB79     		ldrb	r3, [r7, #6]	@ zero_extendqisi2
 3558 007c 4FF00209 		mov	r9, #2
 3559 0080 63F07F03 		orn	r3, r3, #127
 3560 0084 BB71     		strb	r3, [r7, #6]
 3561 0086 D6E7     		b	.L416
 3562              	.LVL469:
 3563              	.L427:
 3564              		.loc 1 2432 0
 3565 0088 BA69     		ldr	r2, [r7, #24]
 3566 008a AA42     		cmp	r2, r5
 3567 008c 18D0     		beq	.L434
 3568              		.loc 1 2434 0
ARM GAS  /var/folders/dt/0wfd0knj7gs46m8vwfzktm600000gn/T//cczoWvr4.s 			page 64


 3569 008e B979     		ldrb	r1, [r7, #6]	@ zero_extendqisi2
 3570 0090 01F04001 		and	r1, r1, #64
 3571 0094 C9B2     		uxtb	r1, r1
 3572 0096 59B1     		cbz	r1, .L435
 3573              		.loc 1 2435 0
 3574 0098 5878     		ldrb	r0, [r3, #1]	@ zero_extendqisi2
 3575              	.LVL470:
 3576 009a 5146     		mov	r1, sl
 3577 009c 0123     		movs	r3, #1
 3578              	.LVL471:
 3579 009e FFF7FEFF 		bl	disk_write
 3580              	.LVL472:
 3581 00a2 0028     		cmp	r0, #0
 3582 00a4 6BD1     		bne	.L453
 3583              		.loc 1 2437 0
 3584 00a6 BA79     		ldrb	r2, [r7, #6]	@ zero_extendqisi2
 3585 00a8 3B68     		ldr	r3, [r7, #0]
 3586 00aa 22F04002 		bic	r2, r2, #64
 3587 00ae BA71     		strb	r2, [r7, #6]
 3588              	.L435:
 3589              		.loc 1 2440 0
 3590 00b0 5878     		ldrb	r0, [r3, #1]	@ zero_extendqisi2
 3591 00b2 5146     		mov	r1, sl
 3592 00b4 2A46     		mov	r2, r5
 3593 00b6 0123     		movs	r3, #1
 3594 00b8 FFF7FEFF 		bl	disk_read
 3595              	.LVL473:
 3596 00bc 0028     		cmp	r0, #0
 3597 00be 5ED1     		bne	.L453
 3598              	.L434:
 3599 00c0 BE68     		ldr	r6, [r7, #8]
 3600              	.LVL474:
 3601              		.loc 1 2444 0
 3602 00c2 BD61     		str	r5, [r7, #24]
 3603 00c4 F505     		lsls	r5, r6, #23
 3604              	.LVL475:
 3605 00c6 ED0D     		lsrs	r5, r5, #23
 3606              	.LVL476:
 3607              	.L418:
 3608              		.loc 1 2446 0
 3609 00c8 C5F50072 		rsb	r2, r5, #512
 3610              	.LVL477:
 3611 00cc 4245     		cmp	r2, r8
 3612 00ce 28BF     		it	cs
 3613 00d0 4246     		movcs	r2, r8
 3614              	.LVL478:
 3615              		.loc 1 2453 0
 3616 00d2 2035     		adds	r5, r5, #32
 3617 00d4 7D19     		adds	r5, r7, r5
 3618              	.LVL479:
 3619 00d6 2346     		mov	r3, r4
 3620              	.LBB174:
 3621              	.LBB175:
 3622              		.loc 1 532 0
 3623 00d8 42B1     		cbz	r2, .L431
 3624              	.LVL480:
 3625              		.loc 1 2367 0
ARM GAS  /var/folders/dt/0wfd0knj7gs46m8vwfzktm600000gn/T//cczoWvr4.s 			page 65


 3626 00da 0335     		adds	r5, r5, #3
 3627 00dc A318     		adds	r3, r4, r2
 3628              	.LVL481:
 3629              	.L437:
 3630              		.loc 1 533 0
 3631 00de 15F8016F 		ldrb	r6, [r5, #1]!	@ zero_extendqisi2
 3632 00e2 04F8016B 		strb	r6, [r4], #1
 3633              	.LVL482:
 3634              		.loc 1 532 0
 3635 00e6 9C42     		cmp	r4, r3
 3636 00e8 F9D1     		bne	.L437
 3637 00ea BE68     		ldr	r6, [r7, #8]
 3638              	.LVL483:
 3639              	.L431:
 3640              	.LBE175:
 3641              	.LBE174:
 3642              		.loc 1 2392 0
 3643 00ec DBF80010 		ldr	r1, [fp, #0]
 3644 00f0 B618     		adds	r6, r6, r2
 3645 00f2 8918     		adds	r1, r1, r2
 3646              		.loc 1 2391 0
 3647 00f4 B8EB0208 		subs	r8, r8, r2
 3648              		.loc 1 2392 0
 3649 00f8 BE60     		str	r6, [r7, #8]
 3650 00fa 1C46     		mov	r4, r3
 3651              	.LVL484:
 3652 00fc CBF80010 		str	r1, [fp, #0]
 3653              		.loc 1 2391 0
 3654 0100 A9D1     		bne	.L438
 3655 0102 98E7     		b	.L416
 3656              	.LVL485:
 3657              	.L419:
 3658              		.loc 1 2396 0
 3659 0104 002E     		cmp	r6, #0
 3660 0106 41D1     		bne	.L421
 3661              		.loc 1 2397 0
 3662 0108 3869     		ldr	r0, [r7, #16]
 3663              	.LVL486:
 3664              	.L422:
 3665              		.loc 1 2406 0
 3666 010a 0128     		cmp	r0, #1
 3667 010c B5D9     		bls	.L425
 3668              		.loc 1 2407 0
 3669 010e 411C     		adds	r1, r0, #1
 3670 0110 35D0     		beq	.L453
 3671 0112 3B68     		ldr	r3, [r7, #0]
 3672              		.loc 1 2408 0
 3673 0114 7861     		str	r0, [r7, #20]
 3674              	.LVL487:
 3675              	.LBB176:
 3676              	.LBB173:
 3677              		.loc 1 801 0
 3678 0116 9969     		ldr	r1, [r3, #24]
 3679              		.loc 1 800 0
 3680 0118 0238     		subs	r0, r0, #2
 3681              	.LVL488:
 3682              		.loc 1 801 0
ARM GAS  /var/folders/dt/0wfd0knj7gs46m8vwfzktm600000gn/T//cczoWvr4.s 			page 66


 3683 011a 0239     		subs	r1, r1, #2
 3684 011c 8842     		cmp	r0, r1
 3685 011e ACD2     		bcs	.L425
 3686              	.LVL489:
 3687              	.L456:
 3688              		.loc 1 802 0
 3689 0120 9978     		ldrb	r1, [r3, #2]	@ zero_extendqisi2
 3690 0122 9D6A     		ldr	r5, [r3, #40]
 3691 0124 01FB0055 		mla	r5, r1, r0, r5
 3692              	.LBE173:
 3693              	.LBE176:
 3694              		.loc 1 2411 0
 3695 0128 002D     		cmp	r5, #0
 3696 012a A6D0     		beq	.L425
 3697              		.loc 1 2414 0
 3698 012c 5FEA5826 		lsrs	r6, r8, #9
 3699              		.loc 1 2412 0
 3700 0130 1544     		add	r5, r5, r2
 3701              	.LVL490:
 3702              		.loc 1 2414 0
 3703 0132 A9D0     		beq	.L427
 3704              		.loc 1 2415 0
 3705 0134 9019     		adds	r0, r2, r6
 3706              	.LVL491:
 3707 0136 8842     		cmp	r0, r1
 3708              		.loc 1 2416 0
 3709 0138 88BF     		it	hi
 3710 013a C2EB0106 		rsbhi	r6, r2, r1
 3711              	.LVL492:
 3712              		.loc 1 2417 0
 3713 013e 5878     		ldrb	r0, [r3, #1]	@ zero_extendqisi2
 3714 0140 2146     		mov	r1, r4
 3715 0142 F3B2     		uxtb	r3, r6
 3716              	.LVL493:
 3717 0144 2A46     		mov	r2, r5
 3718 0146 FFF7FEFF 		bl	disk_read
 3719              	.LVL494:
 3720              		.loc 1 2418 0
 3721 014a BB79     		ldrb	r3, [r7, #6]	@ zero_extendqisi2
 3722              		.loc 1 2417 0
 3723 014c C0B9     		cbnz	r0, .L454
 3724              		.loc 1 2424 0
 3725 014e 03F04003 		and	r3, r3, #64
 3726 0152 DBB2     		uxtb	r3, r3
 3727 0154 7BB1     		cbz	r3, .L432
 3728              		.loc 1 2424 0 is_stmt 0 discriminator 1
 3729 0156 BB69     		ldr	r3, [r7, #24]
 3730 0158 5D1B     		subs	r5, r3, r5
 3731              	.LVL495:
 3732 015a AE42     		cmp	r6, r5
 3733 015c 0BD9     		bls	.L432
 3734              		.loc 1 2425 0 is_stmt 1
 3735 015e 04EB4525 		add	r5, r4, r5, lsl #9
 3736              	.LVL496:
 3737              		.loc 1 2367 0
 3738 0162 07F12303 		add	r3, r7, #35
 3739 0166 05F50071 		add	r1, r5, #512
ARM GAS  /var/folders/dt/0wfd0knj7gs46m8vwfzktm600000gn/T//cczoWvr4.s 			page 67


 3740              	.LVL497:
 3741              	.L433:
 3742              	.LBB177:
 3743              	.LBB178:
 3744              		.loc 1 533 0
 3745 016a 13F8012F 		ldrb	r2, [r3, #1]!	@ zero_extendqisi2
 3746 016e 05F8012B 		strb	r2, [r5], #1
 3747              	.LVL498:
 3748              		.loc 1 532 0
 3749 0172 8D42     		cmp	r5, r1
 3750 0174 F9D1     		bne	.L433
 3751              	.LVL499:
 3752              	.L432:
 3753              	.LBE178:
 3754              	.LBE177:
 3755              		.loc 1 2428 0
 3756 0176 7202     		lsls	r2, r6, #9
 3757              	.LVL500:
 3758 0178 A318     		adds	r3, r4, r2
 3759 017a BE68     		ldr	r6, [r7, #8]
 3760              	.LVL501:
 3761              		.loc 1 2429 0
 3762 017c B6E7     		b	.L431
 3763              	.LVL502:
 3764              	.L453:
 3765              		.loc 1 2441 0
 3766 017e BB79     		ldrb	r3, [r7, #6]	@ zero_extendqisi2
 3767              	.L454:
 3768 0180 63F07F03 		orn	r3, r3, #127
 3769 0184 4FF00109 		mov	r9, #1
 3770 0188 BB71     		strb	r3, [r7, #6]
 3771 018a 54E7     		b	.L416
 3772              	.LVL503:
 3773              	.L421:
 3774              		.loc 1 2404 0
 3775 018c 7969     		ldr	r1, [r7, #20]
 3776 018e 1846     		mov	r0, r3
 3777 0190 0192     		str	r2, [sp, #4]
 3778 0192 FFF7FEFF 		bl	get_fat
 3779              	.LVL504:
 3780 0196 019A     		ldr	r2, [sp, #4]
 3781 0198 B7E7     		b	.L422
 3782              		.cfi_endproc
 3783              	.LFE25:
 3784              		.size	f_read, .-f_read
 3785 019a 00BFAFF3 		.section	.text.f_write,"ax",%progbits
 3785      0080
 3786              		.align	2
 3787              		.p2align 4,,15
 3788              		.global	f_write
 3789              		.thumb
 3790              		.thumb_func
 3791              		.type	f_write, %function
 3792              	f_write:
 3793              	.LFB26:
 3794              		.loc 1 2474 0
 3795              		.cfi_startproc
ARM GAS  /var/folders/dt/0wfd0knj7gs46m8vwfzktm600000gn/T//cczoWvr4.s 			page 68


 3796              		@ args = 0, pretend = 0, frame = 8
 3797              		@ frame_needed = 0, uses_anonymous_args = 0
 3798              	.LVL505:
 3799 0000 2DE9F04F 		push	{r4, r5, r6, r7, r8, r9, sl, fp, lr}
 3800              	.LCFI22:
 3801              		.cfi_def_cfa_offset 36
 3802              		.cfi_offset 4, -36
 3803              		.cfi_offset 5, -32
 3804              		.cfi_offset 6, -28
 3805              		.cfi_offset 7, -24
 3806              		.cfi_offset 8, -20
 3807              		.cfi_offset 9, -16
 3808              		.cfi_offset 10, -12
 3809              		.cfi_offset 11, -8
 3810              		.cfi_offset 14, -4
 3811 0004 0446     		mov	r4, r0
 3812 0006 9846     		mov	r8, r3
 3813              		.loc 1 2482 0
 3814 0008 0023     		movs	r3, #0
 3815              	.LVL506:
 3816              		.loc 1 2474 0
 3817 000a 83B0     		sub	sp, sp, #12
 3818              	.LCFI23:
 3819              		.cfi_def_cfa_offset 48
 3820              		.loc 1 2474 0
 3821 000c 8946     		mov	r9, r1
 3822              	.LVL507:
 3823              		.loc 1 2482 0
 3824 000e C8F80030 		str	r3, [r8, #0]
 3825              		.loc 1 2484 0
 3826 0012 0068     		ldr	r0, [r0, #0]
 3827              	.LVL508:
 3828 0014 A188     		ldrh	r1, [r4, #4]
 3829              	.LVL509:
 3830              		.loc 1 2474 0
 3831 0016 1646     		mov	r6, r2
 3832              		.loc 1 2484 0
 3833 0018 FFF7FEFF 		bl	validate
 3834              	.LVL510:
 3835              		.loc 1 2485 0
 3836 001c 0746     		mov	r7, r0
 3837 001e 38B9     		cbnz	r0, .L458
 3838              		.loc 1 2486 0
 3839 0020 A379     		ldrb	r3, [r4, #6]	@ zero_extendqisi2
 3840 0022 1806     		lsls	r0, r3, #24
 3841              	.LVL511:
 3842 0024 08D4     		bmi	.L486
 3843              		.loc 1 2488 0
 3844 0026 03F00202 		and	r2, r3, #2
 3845 002a D2B2     		uxtb	r2, r2
 3846 002c 32B9     		cbnz	r2, .L497
 3847              		.loc 1 2489 0
 3848 002e 0727     		movs	r7, #7
 3849              	.LVL512:
 3850              	.L458:
 3851              		.loc 1 2578 0
 3852 0030 3846     		mov	r0, r7
ARM GAS  /var/folders/dt/0wfd0knj7gs46m8vwfzktm600000gn/T//cczoWvr4.s 			page 69


 3853 0032 03B0     		add	sp, sp, #12
 3854 0034 BDE8F08F 		pop	{r4, r5, r6, r7, r8, r9, sl, fp, pc}
 3855              	.LVL513:
 3856              	.L486:
 3857              		.loc 1 2487 0
 3858 0038 0227     		movs	r7, #2
 3859 003a F9E7     		b	.L458
 3860              	.L497:
 3861              		.loc 1 2490 0
 3862 003c E168     		ldr	r1, [r4, #12]
 3863 003e A268     		ldr	r2, [r4, #8]
 3864 0040 CE42     		cmn	r6, r1
 3865 0042 06D3     		bcc	.L459
 3866              	.LVL514:
 3867              	.L460:
 3868              		.loc 1 2574 0
 3869 0044 8A42     		cmp	r2, r1
 3870              		.loc 1 2575 0
 3871 0046 43F02003 		orr	r3, r3, #32
 3872              		.loc 1 2574 0
 3873 004a 88BF     		it	hi
 3874 004c E260     		strhi	r2, [r4, #12]
 3875              		.loc 1 2575 0
 3876 004e A371     		strb	r3, [r4, #6]
 3877              		.loc 1 2577 0
 3878 0050 EEE7     		b	.L458
 3879              	.LVL515:
 3880              	.L459:
 3881              		.loc 1 2492 0 discriminator 1
 3882 0052 002E     		cmp	r6, #0
 3883 0054 F6D0     		beq	.L460
 3884              		.loc 1 2555 0
 3885 0056 04F12403 		add	r3, r4, #36
 3886 005a 0193     		str	r3, [sp, #4]
 3887              		.loc 1 2468 0
 3888 005c 04F50975 		add	r5, r4, #548
 3889              	.LVL516:
 3890              	.L484:
 3891              		.loc 1 2494 0
 3892 0060 D305     		lsls	r3, r2, #23
 3893 0062 DB0D     		lsrs	r3, r3, #23
 3894 0064 002B     		cmp	r3, #0
 3895 0066 36D1     		bne	.L462
 3896              		.loc 1 2495 0
 3897 0068 2368     		ldr	r3, [r4, #0]
 3898 006a 93F802A0 		ldrb	sl, [r3, #2]	@ zero_extendqisi2
 3899 006e 0AF1FF3A 		add	sl, sl, #-1
 3900 0072 0AEA522A 		and	sl, sl, r2, lsr #9
 3901              	.LVL517:
 3902              		.loc 1 2496 0
 3903 0076 1AF0FF0A 		ands	sl, sl, #255
 3904              	.LVL518:
 3905 007a 0DD1     		bne	.L463
 3906              		.loc 1 2497 0
 3907 007c 002A     		cmp	r2, #0
 3908 007e 40F09880 		bne	.L464
 3909              		.loc 1 2498 0
ARM GAS  /var/folders/dt/0wfd0knj7gs46m8vwfzktm600000gn/T//cczoWvr4.s 			page 70


 3910 0082 2069     		ldr	r0, [r4, #16]
 3911              	.LVL519:
 3912              		.loc 1 2499 0
 3913 0084 0028     		cmp	r0, #0
 3914 0086 00F09F80 		beq	.L498
 3915              	.LVL520:
 3916              	.L465:
 3917              		.loc 1 2510 0
 3918 008a 0128     		cmp	r0, #1
 3919 008c 11D0     		beq	.L471
 3920              		.loc 1 2511 0
 3921 008e 411C     		adds	r1, r0, #1
 3922 0090 00F08980 		beq	.L481
 3923 0094 2368     		ldr	r3, [r4, #0]
 3924              		.loc 1 2512 0
 3925 0096 6061     		str	r0, [r4, #20]
 3926              	.LVL521:
 3927              	.L463:
 3928              		.loc 1 2518 0
 3929 0098 A279     		ldrb	r2, [r4, #6]	@ zero_extendqisi2
 3930 009a 02F04002 		and	r2, r2, #64
 3931 009e D2B2     		uxtb	r2, r2
 3932 00a0 002A     		cmp	r2, #0
 3933 00a2 73D1     		bne	.L499
 3934              	.L469:
 3935              	.LVL522:
 3936              	.LBB179:
 3937              	.LBB180:
 3938              		.loc 1 800 0
 3939 00a4 6169     		ldr	r1, [r4, #20]
 3940              		.loc 1 801 0
 3941 00a6 9A69     		ldr	r2, [r3, #24]
 3942              		.loc 1 800 0
 3943 00a8 A1F1020B 		sub	fp, r1, #2
 3944              	.LVL523:
 3945              		.loc 1 801 0
 3946 00ac 023A     		subs	r2, r2, #2
 3947 00ae 9345     		cmp	fp, r2
 3948 00b0 38D3     		bcc	.L500
 3949              	.LVL524:
 3950              	.L471:
 3951              	.LBE180:
 3952              	.LBE179:
 3953              		.loc 1 2525 0 discriminator 1
 3954 00b2 A379     		ldrb	r3, [r4, #6]	@ zero_extendqisi2
 3955 00b4 0227     		movs	r7, #2
 3956 00b6 63F07F03 		orn	r3, r3, #127
 3957 00ba A371     		strb	r3, [r4, #6]
 3958 00bc B8E7     		b	.L458
 3959              	.LVL525:
 3960              	.L473:
 3961              		.loc 1 2553 0
 3962 00be A269     		ldr	r2, [r4, #24]
 3963 00c0 5A45     		cmp	r2, fp
 3964              		.loc 1 2554 0
 3965 00c2 A268     		ldr	r2, [r4, #8]
 3966              		.loc 1 2553 0
ARM GAS  /var/folders/dt/0wfd0knj7gs46m8vwfzktm600000gn/T//cczoWvr4.s 			page 71


 3967 00c4 03D0     		beq	.L480
 3968              		.loc 1 2554 0
 3969 00c6 E168     		ldr	r1, [r4, #12]
 3970 00c8 8A42     		cmp	r2, r1
 3971 00ca C0F08680 		bcc	.L501
 3972              	.LVL526:
 3973              	.L480:
 3974 00ce D305     		lsls	r3, r2, #23
 3975              		.loc 1 2559 0
 3976 00d0 C4F818B0 		str	fp, [r4, #24]
 3977 00d4 DB0D     		lsrs	r3, r3, #23
 3978              	.LVL527:
 3979              	.L462:
 3980              		.loc 1 2561 0
 3981 00d6 C3F5007C 		rsb	ip, r3, #512
 3982              	.LVL528:
 3983 00da B445     		cmp	ip, r6
 3984 00dc 28BF     		it	cs
 3985 00de B446     		movcs	ip, r6
 3986              	.LVL529:
 3987              		.loc 1 2569 0
 3988 00e0 E318     		adds	r3, r4, r3
 3989 00e2 2433     		adds	r3, r3, #36
 3990              	.LVL530:
 3991              	.LBB182:
 3992              	.LBB183:
 3993              		.loc 1 532 0
 3994 00e4 BCF1000F 		cmp	ip, #0
 3995 00e8 0AD0     		beq	.L482
 3996              		.loc 1 2468 0
 3997 00ea 09F1FF32 		add	r2, r9, #-1
 3998 00ee 03EB0C00 		add	r0, r3, ip
 3999              	.LVL531:
 4000              	.L483:
 4001              		.loc 1 533 0
 4002 00f2 12F8011F 		ldrb	r1, [r2, #1]!	@ zero_extendqisi2
 4003 00f6 03F8011B 		strb	r1, [r3], #1
 4004              	.LVL532:
 4005              		.loc 1 532 0
 4006 00fa 8342     		cmp	r3, r0
 4007 00fc F9D1     		bne	.L483
 4008 00fe A268     		ldr	r2, [r4, #8]
 4009              	.L482:
 4010              	.LBE183:
 4011              	.LBE182:
 4012              		.loc 1 2570 0
 4013 0100 A379     		ldrb	r3, [r4, #6]	@ zero_extendqisi2
 4014              	.LVL533:
 4015 0102 43F04003 		orr	r3, r3, #64
 4016 0106 A371     		strb	r3, [r4, #6]
 4017              	.LVL534:
 4018              	.L478:
 4019              		.loc 1 2493 0
 4020 0108 D8F80030 		ldr	r3, [r8, #0]
 4021 010c 6244     		add	r2, r2, ip
 4022 010e 6344     		add	r3, r3, ip
 4023              		.loc 1 2492 0
ARM GAS  /var/folders/dt/0wfd0knj7gs46m8vwfzktm600000gn/T//cczoWvr4.s 			page 72


 4024 0110 B6EB0C06 		subs	r6, r6, ip
 4025              		.loc 1 2493 0
 4026 0114 A260     		str	r2, [r4, #8]
 4027 0116 E144     		add	r9, r9, ip
 4028              	.LVL535:
 4029 0118 C8F80030 		str	r3, [r8, #0]
 4030              		.loc 1 2492 0
 4031 011c A0D1     		bne	.L484
 4032 011e E168     		ldr	r1, [r4, #12]
 4033 0120 A379     		ldrb	r3, [r4, #6]	@ zero_extendqisi2
 4034 0122 8FE7     		b	.L460
 4035              	.LVL536:
 4036              	.L500:
 4037              	.LBB184:
 4038              	.LBB181:
 4039              		.loc 1 802 0
 4040 0124 9978     		ldrb	r1, [r3, #2]	@ zero_extendqisi2
 4041 0126 9A6A     		ldr	r2, [r3, #40]
 4042 0128 0BFB0122 		mla	r2, fp, r1, r2
 4043              	.LBE181:
 4044              	.LBE184:
 4045              		.loc 1 2525 0
 4046 012c 002A     		cmp	r2, #0
 4047 012e C0D0     		beq	.L471
 4048              		.loc 1 2528 0
 4049 0130 5FEA562C 		lsrs	ip, r6, #9
 4050              		.loc 1 2526 0
 4051 0134 0AEB020B 		add	fp, sl, r2
 4052              	.LVL537:
 4053              		.loc 1 2528 0
 4054 0138 C1D0     		beq	.L473
 4055              		.loc 1 2529 0
 4056 013a 0AEB0C02 		add	r2, sl, ip
 4057 013e 8A42     		cmp	r2, r1
 4058              		.loc 1 2530 0
 4059 0140 88BF     		it	hi
 4060 0142 CAEB010C 		rsbhi	ip, sl, r1
 4061              	.LVL538:
 4062              		.loc 1 2531 0
 4063 0146 5878     		ldrb	r0, [r3, #1]	@ zero_extendqisi2
 4064 0148 4946     		mov	r1, r9
 4065 014a 5FFA8CF3 		uxtb	r3, ip
 4066              	.LVL539:
 4067 014e 5A46     		mov	r2, fp
 4068 0150 CDF800C0 		str	ip, [sp, #0]
 4069 0154 FFF7FEFF 		bl	disk_write
 4070              	.LVL540:
 4071 0158 DDF800C0 		ldr	ip, [sp, #0]
 4072 015c 18BB     		cbnz	r0, .L481
 4073              		.loc 1 2539 0
 4074 015e A369     		ldr	r3, [r4, #24]
 4075 0160 CBEB030B 		rsb	fp, fp, r3
 4076              	.LVL541:
 4077 0164 DC45     		cmp	ip, fp
 4078 0166 0DD9     		bls	.L476
 4079              		.loc 1 2540 0
 4080 0168 09EB4B22 		add	r2, r9, fp, lsl #9
ARM GAS  /var/folders/dt/0wfd0knj7gs46m8vwfzktm600000gn/T//cczoWvr4.s 			page 73


 4081 016c 019B     		ldr	r3, [sp, #4]
 4082              	.LVL542:
 4083              		.loc 1 2468 0
 4084 016e 013A     		subs	r2, r2, #1
 4085              	.LVL543:
 4086              	.L477:
 4087              	.LBB185:
 4088              	.LBB186:
 4089              		.loc 1 533 0
 4090 0170 12F8011F 		ldrb	r1, [r2, #1]!	@ zero_extendqisi2
 4091 0174 03F8011B 		strb	r1, [r3], #1
 4092              	.LVL544:
 4093              		.loc 1 532 0
 4094 0178 AB42     		cmp	r3, r5
 4095 017a F9D1     		bne	.L477
 4096              	.LBE186:
 4097              	.LBE185:
 4098              		.loc 1 2541 0
 4099 017c A379     		ldrb	r3, [r4, #6]	@ zero_extendqisi2
 4100              	.LVL545:
 4101 017e 23F04003 		bic	r3, r3, #64
 4102 0182 A371     		strb	r3, [r4, #6]
 4103              	.LVL546:
 4104              	.L476:
 4105              		.loc 1 2544 0
 4106 0184 4FEA4C2C 		lsl	ip, ip, #9
 4107              	.LVL547:
 4108 0188 A268     		ldr	r2, [r4, #8]
 4109              		.loc 1 2545 0
 4110 018a BDE7     		b	.L478
 4111              	.LVL548:
 4112              	.L499:
 4113              		.loc 1 2519 0
 4114 018c 5878     		ldrb	r0, [r3, #1]	@ zero_extendqisi2
 4115 018e 0199     		ldr	r1, [sp, #4]
 4116 0190 A269     		ldr	r2, [r4, #24]
 4117 0192 0123     		movs	r3, #1
 4118 0194 FFF7FEFF 		bl	disk_write
 4119              	.LVL549:
 4120 0198 28B9     		cbnz	r0, .L481
 4121              		.loc 1 2521 0
 4122 019a A279     		ldrb	r2, [r4, #6]	@ zero_extendqisi2
 4123 019c 2368     		ldr	r3, [r4, #0]
 4124 019e 22F04002 		bic	r2, r2, #64
 4125 01a2 A271     		strb	r2, [r4, #6]
 4126 01a4 7EE7     		b	.L469
 4127              	.L481:
 4128              		.loc 1 2556 0
 4129 01a6 A379     		ldrb	r3, [r4, #6]	@ zero_extendqisi2
 4130 01a8 0127     		movs	r7, #1
 4131 01aa 63F07F03 		orn	r3, r3, #127
 4132 01ae A371     		strb	r3, [r4, #6]
 4133 01b0 3EE7     		b	.L458
 4134              	.LVL550:
 4135              	.L464:
 4136              		.loc 1 2507 0
 4137 01b2 1846     		mov	r0, r3
ARM GAS  /var/folders/dt/0wfd0knj7gs46m8vwfzktm600000gn/T//cczoWvr4.s 			page 74


 4138 01b4 6169     		ldr	r1, [r4, #20]
 4139 01b6 FFF7FEFF 		bl	create_chain
 4140              	.LVL551:
 4141              		.loc 1 2509 0
 4142 01ba 0028     		cmp	r0, #0
 4143 01bc 7FF465AF 		bne	.L465
 4144              	.L502:
 4145 01c0 A268     		ldr	r2, [r4, #8]
 4146 01c2 E168     		ldr	r1, [r4, #12]
 4147 01c4 A379     		ldrb	r3, [r4, #6]	@ zero_extendqisi2
 4148 01c6 3DE7     		b	.L460
 4149              	.LVL552:
 4150              	.L498:
 4151              		.loc 1 2500 0
 4152 01c8 1846     		mov	r0, r3
 4153              	.LVL553:
 4154 01ca 5146     		mov	r1, sl
 4155 01cc FFF7FEFF 		bl	create_chain
 4156              	.LVL554:
 4157 01d0 2061     		str	r0, [r4, #16]
 4158              		.loc 1 2509 0
 4159 01d2 0028     		cmp	r0, #0
 4160 01d4 7FF459AF 		bne	.L465
 4161 01d8 F2E7     		b	.L502
 4162              	.LVL555:
 4163              	.L501:
 4164              		.loc 1 2555 0 discriminator 1
 4165 01da 5878     		ldrb	r0, [r3, #1]	@ zero_extendqisi2
 4166 01dc 0199     		ldr	r1, [sp, #4]
 4167 01de 5A46     		mov	r2, fp
 4168 01e0 0123     		movs	r3, #1
 4169              	.LVL556:
 4170 01e2 FFF7FEFF 		bl	disk_read
 4171              	.LVL557:
 4172              		.loc 1 2554 0 discriminator 1
 4173 01e6 0028     		cmp	r0, #0
 4174 01e8 DDD1     		bne	.L481
 4175 01ea A268     		ldr	r2, [r4, #8]
 4176 01ec 6FE7     		b	.L480
 4177              		.cfi_endproc
 4178              	.LFE26:
 4179              		.size	f_write, .-f_write
 4180 01ee 00BF     		.section	.text.f_sync,"ax",%progbits
 4181              		.align	2
 4182              		.p2align 4,,15
 4183              		.global	f_sync
 4184              		.thumb
 4185              		.thumb_func
 4186              		.type	f_sync, %function
 4187              	f_sync:
 4188              	.LFB27:
 4189              		.loc 1 2590 0
 4190              		.cfi_startproc
 4191              		@ args = 0, pretend = 0, frame = 0
 4192              		@ frame_needed = 0, uses_anonymous_args = 0
 4193              	.LVL558:
 4194 0000 38B5     		push	{r3, r4, r5, lr}
ARM GAS  /var/folders/dt/0wfd0knj7gs46m8vwfzktm600000gn/T//cczoWvr4.s 			page 75


 4195              	.LCFI24:
 4196              		.cfi_def_cfa_offset 16
 4197              		.cfi_offset 3, -16
 4198              		.cfi_offset 4, -12
 4199              		.cfi_offset 5, -8
 4200              		.cfi_offset 14, -4
 4201              		.loc 1 2590 0
 4202 0002 0446     		mov	r4, r0
 4203              		.loc 1 2596 0
 4204 0004 A188     		ldrh	r1, [r4, #4]
 4205 0006 0068     		ldr	r0, [r0, #0]
 4206              	.LVL559:
 4207 0008 FFF7FEFF 		bl	validate
 4208              	.LVL560:
 4209              		.loc 1 2597 0
 4210 000c D8B9     		cbnz	r0, .L504
 4211              		.loc 1 2598 0
 4212 000e A379     		ldrb	r3, [r4, #6]	@ zero_extendqisi2
 4213 0010 03F02002 		and	r2, r3, #32
 4214 0014 D2B2     		uxtb	r2, r2
 4215 0016 B2B1     		cbz	r2, .L504
 4216              		.loc 1 2600 0
 4217 0018 03F04003 		and	r3, r3, #64
 4218 001c DBB2     		uxtb	r3, r3
 4219 001e 6BB1     		cbz	r3, .L505
 4220              		.loc 1 2601 0
 4221 0020 2146     		mov	r1, r4
 4222 0022 51F8243B 		ldr	r3, [r1], #36
 4223 0026 A269     		ldr	r2, [r4, #24]
 4224 0028 5878     		ldrb	r0, [r3, #1]	@ zero_extendqisi2
 4225              	.LVL561:
 4226 002a 0123     		movs	r3, #1
 4227 002c FFF7FEFF 		bl	disk_write
 4228              	.LVL562:
 4229 0030 0028     		cmp	r0, #0
 4230 0032 37D1     		bne	.L506
 4231              		.loc 1 2603 0
 4232 0034 A379     		ldrb	r3, [r4, #6]	@ zero_extendqisi2
 4233 0036 23F04003 		bic	r3, r3, #64
 4234 003a A371     		strb	r3, [r4, #6]
 4235              	.L505:
 4236              		.loc 1 2607 0
 4237 003c 2068     		ldr	r0, [r4, #0]
 4238 003e E169     		ldr	r1, [r4, #28]
 4239 0040 FFF7FEFF 		bl	move_window
 4240              	.LVL563:
 4241              		.loc 1 2608 0
 4242 0044 00B1     		cbz	r0, .L513
 4243              	.LVL564:
 4244              	.L504:
 4245              		.loc 1 2623 0
 4246 0046 38BD     		pop	{r3, r4, r5, pc}
 4247              	.LVL565:
 4248              	.L513:
 4249              		.loc 1 2609 0
 4250 0048 256A     		ldr	r5, [r4, #32]
 4251              	.LVL566:
ARM GAS  /var/folders/dt/0wfd0knj7gs46m8vwfzktm600000gn/T//cczoWvr4.s 			page 76


 4252              		.loc 1 2610 0
 4253 004a EB7A     		ldrb	r3, [r5, #11]	@ zero_extendqisi2
 4254 004c 43F02003 		orr	r3, r3, #32
 4255 0050 EB72     		strb	r3, [r5, #11]
 4256              		.loc 1 2611 0
 4257 0052 E368     		ldr	r3, [r4, #12]
 4258 0054 2B77     		strb	r3, [r5, #28]
 4259 0056 A389     		ldrh	r3, [r4, #12]
 4260 0058 1B0A     		lsrs	r3, r3, #8
 4261 005a 6B77     		strb	r3, [r5, #29]
 4262 005c E389     		ldrh	r3, [r4, #14]
 4263 005e AB77     		strb	r3, [r5, #30]
 4264 0060 E37B     		ldrb	r3, [r4, #15]	@ zero_extendqisi2
 4265 0062 EB77     		strb	r3, [r5, #31]
 4266              		.loc 1 2612 0
 4267 0064 2369     		ldr	r3, [r4, #16]
 4268 0066 AB76     		strb	r3, [r5, #26]
 4269 0068 238A     		ldrh	r3, [r4, #16]
 4270 006a 1B0A     		lsrs	r3, r3, #8
 4271 006c EB76     		strb	r3, [r5, #27]
 4272 006e 638A     		ldrh	r3, [r4, #18]
 4273 0070 2B75     		strb	r3, [r5, #20]
 4274 0072 638A     		ldrh	r3, [r4, #18]
 4275 0074 1B0A     		lsrs	r3, r3, #8
 4276 0076 6B75     		strb	r3, [r5, #21]
 4277              		.loc 1 2613 0
 4278 0078 FFF7FEFF 		bl	get_fattime
 4279              	.LVL567:
 4280              		.loc 1 2614 0
 4281 007c 020C     		lsrs	r2, r0, #16
 4282 007e 030E     		lsrs	r3, r0, #24
 4283 0080 C0F30721 		ubfx	r1, r0, #8, #8
 4284 0084 A875     		strb	r0, [r5, #22]
 4285 0086 E975     		strb	r1, [r5, #23]
 4286 0088 2A76     		strb	r2, [r5, #24]
 4287 008a 6B76     		strb	r3, [r5, #25]
 4288              		.loc 1 2615 0
 4289 008c A279     		ldrb	r2, [r4, #6]	@ zero_extendqisi2
 4290              		.loc 1 2616 0
 4291 008e 2368     		ldr	r3, [r4, #0]
 4292              		.loc 1 2615 0
 4293 0090 22F02002 		bic	r2, r2, #32
 4294 0094 A271     		strb	r2, [r4, #6]
 4295              		.loc 1 2616 0
 4296 0096 0122     		movs	r2, #1
 4297 0098 1A71     		strb	r2, [r3, #4]
 4298              		.loc 1 2617 0
 4299 009a 2068     		ldr	r0, [r4, #0]
 4300              	.LVL568:
 4301              		.loc 1 2623 0
 4302 009c BDE83840 		pop	{r3, r4, r5, lr}
 4303              		.loc 1 2617 0
 4304 00a0 FFF7FEBF 		b	sync
 4305              	.LVL569:
 4306              	.L506:
 4307              		.loc 1 2602 0
 4308 00a4 0120     		movs	r0, #1
ARM GAS  /var/folders/dt/0wfd0knj7gs46m8vwfzktm600000gn/T//cczoWvr4.s 			page 77


 4309 00a6 CEE7     		b	.L504
 4310              		.cfi_endproc
 4311              	.LFE27:
 4312              		.size	f_sync, .-f_sync
 4313 00a8 AFF30080 		.section	.text.f_close,"ax",%progbits
 4313      AFF30080 
 4314              		.align	2
 4315              		.p2align 4,,15
 4316              		.global	f_close
 4317              		.thumb
 4318              		.thumb_func
 4319              		.type	f_close, %function
 4320              	f_close:
 4321              	.LFB28:
 4322              		.loc 1 2637 0
 4323              		.cfi_startproc
 4324              		@ args = 0, pretend = 0, frame = 0
 4325              		@ frame_needed = 0, uses_anonymous_args = 0
 4326              	.LVL570:
 4327 0000 10B5     		push	{r4, lr}
 4328              	.LCFI25:
 4329              		.cfi_def_cfa_offset 8
 4330              		.cfi_offset 4, -8
 4331              		.cfi_offset 14, -4
 4332              		.loc 1 2637 0
 4333 0002 0446     		mov	r4, r0
 4334              		.loc 1 2647 0
 4335 0004 FFF7FEFF 		bl	f_sync
 4336              	.LVL571:
 4337              		.loc 1 2661 0
 4338 0008 00B9     		cbnz	r0, .L515
 4339              		.loc 1 2661 0 is_stmt 0 discriminator 1
 4340 000a 2060     		str	r0, [r4, #0]
 4341              	.L515:
 4342              		.loc 1 2664 0 is_stmt 1
 4343 000c 10BD     		pop	{r4, pc}
 4344              		.cfi_endproc
 4345              	.LFE28:
 4346              		.size	f_close, .-f_close
 4347 000e 00BF     		.section	.text.f_lseek,"ax",%progbits
 4348              		.align	2
 4349              		.p2align 4,,15
 4350              		.global	f_lseek
 4351              		.thumb
 4352              		.thumb_func
 4353              		.type	f_lseek, %function
 4354              	f_lseek:
 4355              	.LFB29:
 4356              		.loc 1 2802 0
 4357              		.cfi_startproc
 4358              		@ args = 0, pretend = 0, frame = 0
 4359              		@ frame_needed = 0, uses_anonymous_args = 0
 4360              	.LVL572:
 4361 0000 F8B5     		push	{r3, r4, r5, r6, r7, lr}
 4362              	.LCFI26:
 4363              		.cfi_def_cfa_offset 24
 4364              		.cfi_offset 3, -24
ARM GAS  /var/folders/dt/0wfd0knj7gs46m8vwfzktm600000gn/T//cczoWvr4.s 			page 78


 4365              		.cfi_offset 4, -20
 4366              		.cfi_offset 5, -16
 4367              		.cfi_offset 6, -12
 4368              		.cfi_offset 7, -8
 4369              		.cfi_offset 14, -4
 4370              		.loc 1 2802 0
 4371 0002 0446     		mov	r4, r0
 4372 0004 0D46     		mov	r5, r1
 4373              		.loc 1 2806 0
 4374 0006 0068     		ldr	r0, [r0, #0]
 4375              	.LVL573:
 4376 0008 A188     		ldrh	r1, [r4, #4]
 4377              	.LVL574:
 4378 000a FFF7FEFF 		bl	validate
 4379              	.LVL575:
 4380              		.loc 1 2807 0
 4381 000e 0646     		mov	r6, r0
 4382 0010 0028     		cmp	r0, #0
 4383 0012 51D1     		bne	.L517
 4384              		.loc 1 2808 0
 4385 0014 A379     		ldrb	r3, [r4, #6]	@ zero_extendqisi2
 4386 0016 1806     		lsls	r0, r3, #24
 4387              	.LVL576:
 4388 0018 50D4     		bmi	.L542
 4389              	.LBB187:
 4390              		.loc 1 2872 0
 4391 001a E268     		ldr	r2, [r4, #12]
 4392 001c AA42     		cmp	r2, r5
 4393 001e 05D2     		bcs	.L518
 4394              		.loc 1 2874 0
 4395 0020 03F00203 		and	r3, r3, #2
 4396 0024 DBB2     		uxtb	r3, r3
 4397 0026 002B     		cmp	r3, #0
 4398 0028 08BF     		it	eq
 4399 002a 1546     		moveq	r5, r2
 4400              	.LVL577:
 4401              	.L518:
 4402              		.loc 1 2879 0
 4403 002c 0023     		movs	r3, #0
 4404              		.loc 1 2878 0
 4405 002e A268     		ldr	r2, [r4, #8]
 4406              	.LVL578:
 4407              		.loc 1 2879 0
 4408 0030 A360     		str	r3, [r4, #8]
 4409              		.loc 1 2880 0
 4410 0032 002D     		cmp	r5, #0
 4411 0034 40D0     		beq	.L517
 4412              		.loc 1 2881 0
 4413 0036 2068     		ldr	r0, [r4, #0]
 4414 0038 8778     		ldrb	r7, [r0, #2]	@ zero_extendqisi2
 4415 003a 7F02     		lsls	r7, r7, #9
 4416              	.LVL579:
 4417              		.loc 1 2882 0
 4418 003c 3AB1     		cbz	r2, .L519
 4419              		.loc 1 2883 0 discriminator 1
 4420 003e 013A     		subs	r2, r2, #1
 4421              	.LVL580:
ARM GAS  /var/folders/dt/0wfd0knj7gs46m8vwfzktm600000gn/T//cczoWvr4.s 			page 79


 4422 0040 691E     		subs	r1, r5, #1
 4423 0042 B1FBF7F1 		udiv	r1, r1, r7
 4424 0046 B2FBF7F3 		udiv	r3, r2, r7
 4425              		.loc 1 2882 0 discriminator 1
 4426 004a 9942     		cmp	r1, r3
 4427 004c 79D2     		bcs	.L558
 4428              	.L519:
 4429              		.loc 1 2888 0
 4430 004e 2269     		ldr	r2, [r4, #16]
 4431              	.LVL581:
 4432              		.loc 1 2890 0
 4433 0050 002A     		cmp	r2, #0
 4434 0052 36D0     		beq	.L559
 4435              	.LVL582:
 4436              	.L521:
 4437              		.loc 1 2897 0
 4438 0054 6261     		str	r2, [r4, #20]
 4439              	.L520:
 4440              		.loc 1 2899 0
 4441 0056 002A     		cmp	r2, #0
 4442 0058 43D1     		bne	.L524
 4443 005a A168     		ldr	r1, [r4, #8]
 4444              		.loc 1 2879 0
 4445 005c 1546     		mov	r5, r2
 4446              	.LVL583:
 4447              	.L525:
 4448              		.loc 1 2924 0
 4449 005e CB05     		lsls	r3, r1, #23
 4450 0060 DB0D     		lsrs	r3, r3, #23
 4451 0062 002B     		cmp	r3, #0
 4452 0064 73D0     		beq	.L555
 4453              		.loc 1 2924 0 is_stmt 0 discriminator 1
 4454 0066 A269     		ldr	r2, [r4, #24]
 4455 0068 AA42     		cmp	r2, r5
 4456 006a 70D0     		beq	.L555
 4457              		.loc 1 2927 0 is_stmt 1
 4458 006c A379     		ldrb	r3, [r4, #6]	@ zero_extendqisi2
 4459 006e 04F12407 		add	r7, r4, #36
 4460              	.LVL584:
 4461 0072 03F04003 		and	r3, r3, #64
 4462 0076 DBB2     		uxtb	r3, r3
 4463 0078 63B1     		cbz	r3, .L539
 4464              		.loc 1 2928 0
 4465 007a 2746     		mov	r7, r4
 4466 007c 57F8243B 		ldr	r3, [r7], #36
 4467 0080 5878     		ldrb	r0, [r3, #1]	@ zero_extendqisi2
 4468 0082 3946     		mov	r1, r7
 4469 0084 0123     		movs	r3, #1
 4470 0086 FFF7FEFF 		bl	disk_write
 4471              	.LVL585:
 4472              		.loc 1 2929 0
 4473 008a A379     		ldrb	r3, [r4, #6]	@ zero_extendqisi2
 4474              		.loc 1 2928 0
 4475 008c 20BB     		cbnz	r0, .L557
 4476              		.loc 1 2930 0
 4477 008e 23F04003 		bic	r3, r3, #64
 4478 0092 A371     		strb	r3, [r4, #6]
ARM GAS  /var/folders/dt/0wfd0knj7gs46m8vwfzktm600000gn/T//cczoWvr4.s 			page 80


 4479              	.L539:
 4480              		.loc 1 2933 0
 4481 0094 2368     		ldr	r3, [r4, #0]
 4482 0096 3946     		mov	r1, r7
 4483 0098 5878     		ldrb	r0, [r3, #1]	@ zero_extendqisi2
 4484 009a 2A46     		mov	r2, r5
 4485 009c 0123     		movs	r3, #1
 4486 009e FFF7FEFF 		bl	disk_read
 4487              	.LVL586:
 4488 00a2 C0B9     		cbnz	r0, .L556
 4489 00a4 A168     		ldr	r1, [r4, #8]
 4490 00a6 E368     		ldr	r3, [r4, #12]
 4491              		.loc 1 2936 0
 4492 00a8 A561     		str	r5, [r4, #24]
 4493              	.L537:
 4494              		.loc 1 2939 0
 4495 00aa 9942     		cmp	r1, r3
 4496 00ac 04D9     		bls	.L517
 4497              		.loc 1 2941 0
 4498 00ae A379     		ldrb	r3, [r4, #6]	@ zero_extendqisi2
 4499              		.loc 1 2940 0
 4500 00b0 E160     		str	r1, [r4, #12]
 4501              		.loc 1 2941 0
 4502 00b2 43F02003 		orr	r3, r3, #32
 4503 00b6 A371     		strb	r3, [r4, #6]
 4504              	.LVL587:
 4505              	.L517:
 4506              	.LBE187:
 4507              		.loc 1 2947 0
 4508 00b8 3046     		mov	r0, r6
 4509 00ba F8BD     		pop	{r3, r4, r5, r6, r7, pc}
 4510              	.LVL588:
 4511              	.L542:
 4512              		.loc 1 2809 0
 4513 00bc 0226     		movs	r6, #2
 4514              		.loc 1 2947 0
 4515 00be 3046     		mov	r0, r6
 4516 00c0 F8BD     		pop	{r3, r4, r5, r6, r7, pc}
 4517              	.LVL589:
 4518              	.L559:
 4519              	.LBB190:
 4520              		.loc 1 2891 0
 4521 00c2 1146     		mov	r1, r2
 4522 00c4 FFF7FEFF 		bl	create_chain
 4523              	.LVL590:
 4524              		.loc 1 2892 0
 4525 00c8 0128     		cmp	r0, #1
 4526              		.loc 1 2891 0
 4527 00ca 0246     		mov	r2, r0
 4528              	.LVL591:
 4529              		.loc 1 2892 0
 4530 00cc 33D0     		beq	.L534
 4531              		.loc 1 2893 0
 4532 00ce 411C     		adds	r1, r0, #1
 4533              		.loc 1 2894 0
 4534 00d0 18BF     		it	ne
 4535 00d2 2061     		strne	r0, [r4, #16]
ARM GAS  /var/folders/dt/0wfd0knj7gs46m8vwfzktm600000gn/T//cczoWvr4.s 			page 81


 4536              		.loc 1 2893 0
 4537 00d4 BED1     		bne	.L521
 4538              	.LVL592:
 4539              	.L556:
 4540              		.loc 1 2934 0
 4541 00d6 A379     		ldrb	r3, [r4, #6]	@ zero_extendqisi2
 4542              	.L557:
 4543 00d8 63F07F03 		orn	r3, r3, #127
 4544 00dc 0126     		movs	r6, #1
 4545 00de A371     		strb	r3, [r4, #6]
 4546 00e0 EAE7     		b	.L517
 4547              	.LVL593:
 4548              	.L524:
 4549              		.loc 1 2900 0 discriminator 1
 4550 00e2 BD42     		cmp	r5, r7
 4551 00e4 98BF     		it	ls
 4552 00e6 A168     		ldrls	r1, [r4, #8]
 4553 00e8 35D9     		bls	.L527
 4554 00ea 2368     		ldr	r3, [r4, #0]
 4555 00ec 11E0     		b	.L533
 4556              	.LVL594:
 4557              	.L561:
 4558              		.loc 1 2903 0
 4559 00ee FFF7FEFF 		bl	create_chain
 4560              	.LVL595:
 4561              		.loc 1 2904 0
 4562 00f2 0246     		mov	r2, r0
 4563 00f4 68B3     		cbz	r0, .L560
 4564              	.L529:
 4565              	.LVL596:
 4566              		.loc 1 2910 0
 4567 00f6 531C     		adds	r3, r2, #1
 4568 00f8 EDD0     		beq	.L556
 4569              		.loc 1 2911 0
 4570 00fa 012A     		cmp	r2, #1
 4571 00fc 1BD9     		bls	.L534
 4572              		.loc 1 2911 0 is_stmt 0 discriminator 2
 4573 00fe 2368     		ldr	r3, [r4, #0]
 4574 0100 9969     		ldr	r1, [r3, #24]
 4575 0102 8A42     		cmp	r2, r1
 4576 0104 17D2     		bcs	.L534
 4577              		.loc 1 2913 0 is_stmt 1
 4578 0106 A168     		ldr	r1, [r4, #8]
 4579              		.loc 1 2900 0
 4580 0108 AF42     		cmp	r7, r5
 4581              		.loc 1 2913 0
 4582 010a 3944     		add	r1, r7, r1
 4583              		.loc 1 2912 0
 4584 010c 6261     		str	r2, [r4, #20]
 4585              		.loc 1 2913 0
 4586 010e A160     		str	r1, [r4, #8]
 4587              		.loc 1 2900 0
 4588 0110 21D2     		bcs	.L527
 4589              	.LVL597:
 4590              	.L533:
 4591              		.loc 1 2902 0
 4592 0112 94F806E0 		ldrb	lr, [r4, #6]	@ zero_extendqisi2
ARM GAS  /var/folders/dt/0wfd0knj7gs46m8vwfzktm600000gn/T//cczoWvr4.s 			page 82


 4593              		.loc 1 2914 0
 4594 0116 ED1B     		subs	r5, r5, r7
 4595              	.LVL598:
 4596              		.loc 1 2902 0
 4597 0118 0EF0020E 		and	lr, lr, #2
 4598 011c 5FFA8EFE 		uxtb	lr, lr
 4599              		.loc 1 2903 0
 4600 0120 1846     		mov	r0, r3
 4601 0122 1146     		mov	r1, r2
 4602              		.loc 1 2902 0
 4603 0124 BEF1000F 		cmp	lr, #0
 4604 0128 E1D1     		bne	.L561
 4605              	.LVL599:
 4606              		.loc 1 2909 0
 4607 012a 1146     		mov	r1, r2
 4608 012c 1846     		mov	r0, r3
 4609 012e FFF7FEFF 		bl	get_fat
 4610              	.LVL600:
 4611 0132 0246     		mov	r2, r0
 4612              	.LVL601:
 4613 0134 DFE7     		b	.L529
 4614              	.LVL602:
 4615              	.L534:
 4616              		.loc 1 2919 0 discriminator 1
 4617 0136 A379     		ldrb	r3, [r4, #6]	@ zero_extendqisi2
 4618 0138 0226     		movs	r6, #2
 4619 013a 63F07F03 		orn	r3, r3, #127
 4620 013e A371     		strb	r3, [r4, #6]
 4621 0140 BAE7     		b	.L517
 4622              	.LVL603:
 4623              	.L558:
 4624              		.loc 1 2884 0
 4625 0142 7B42     		negs	r3, r7
 4626 0144 1A40     		ands	r2, r2, r3
 4627 0146 A260     		str	r2, [r4, #8]
 4628              		.loc 1 2885 0
 4629 0148 AD1A     		subs	r5, r5, r2
 4630              	.LVL604:
 4631              		.loc 1 2886 0
 4632 014a 6269     		ldr	r2, [r4, #20]
 4633              	.LVL605:
 4634 014c 83E7     		b	.L520
 4635              	.LVL606:
 4636              	.L555:
 4637 014e E368     		ldr	r3, [r4, #12]
 4638 0150 ABE7     		b	.L537
 4639              	.LVL607:
 4640              	.L560:
 4641 0152 A168     		ldr	r1, [r4, #8]
 4642              		.loc 1 2904 0
 4643 0154 3D46     		mov	r5, r7
 4644              	.LVL608:
 4645              	.L527:
 4646              		.loc 1 2917 0
 4647 0156 EB05     		lsls	r3, r5, #23
 4648              		.loc 1 2916 0
 4649 0158 4919     		adds	r1, r1, r5
ARM GAS  /var/folders/dt/0wfd0knj7gs46m8vwfzktm600000gn/T//cczoWvr4.s 			page 83


 4650              		.loc 1 2917 0
 4651 015a DB0D     		lsrs	r3, r3, #23
 4652              		.loc 1 2916 0
 4653 015c A160     		str	r1, [r4, #8]
 4654              		.loc 1 2917 0
 4655 015e 73B1     		cbz	r3, .L544
 4656              		.loc 1 2918 0
 4657 0160 2368     		ldr	r3, [r4, #0]
 4658              	.LVL609:
 4659              	.LBB188:
 4660              	.LBB189:
 4661              		.loc 1 800 0
 4662 0162 023A     		subs	r2, r2, #2
 4663              	.LVL610:
 4664              		.loc 1 801 0
 4665 0164 9869     		ldr	r0, [r3, #24]
 4666 0166 0238     		subs	r0, r0, #2
 4667 0168 8242     		cmp	r2, r0
 4668 016a E4D2     		bcs	.L534
 4669              		.loc 1 802 0
 4670 016c 9878     		ldrb	r0, [r3, #2]	@ zero_extendqisi2
 4671 016e 9B6A     		ldr	r3, [r3, #40]
 4672              	.LVL611:
 4673 0170 00FB0232 		mla	r2, r0, r2, r3
 4674              	.LVL612:
 4675              	.LBE189:
 4676              	.LBE188:
 4677              		.loc 1 2919 0
 4678 0174 002A     		cmp	r2, #0
 4679 0176 DED0     		beq	.L534
 4680              		.loc 1 2920 0
 4681 0178 02EB5525 		add	r5, r2, r5, lsr #9
 4682              	.LVL613:
 4683 017c 6FE7     		b	.L525
 4684              	.LVL614:
 4685              	.L544:
 4686              		.loc 1 2879 0
 4687 017e 1D46     		mov	r5, r3
 4688              	.LVL615:
 4689 0180 6DE7     		b	.L525
 4690              	.LBE190:
 4691              		.cfi_endproc
 4692              	.LFE29:
 4693              		.size	f_lseek, .-f_lseek
 4694 0182 00BFAFF3 		.section	.text.f_opendir,"ax",%progbits
 4694      0080AFF3 
 4694      0080AFF3 
 4694      0080
 4695              		.align	2
 4696              		.p2align 4,,15
 4697              		.global	f_opendir
 4698              		.thumb
 4699              		.thumb_func
 4700              		.type	f_opendir, %function
 4701              	f_opendir:
 4702              	.LFB30:
 4703              		.loc 1 2960 0
ARM GAS  /var/folders/dt/0wfd0knj7gs46m8vwfzktm600000gn/T//cczoWvr4.s 			page 84


 4704              		.cfi_startproc
 4705              		@ args = 0, pretend = 0, frame = 24
 4706              		@ frame_needed = 0, uses_anonymous_args = 0
 4707              	.LVL616:
 4708 0000 30B5     		push	{r4, r5, lr}
 4709              	.LCFI27:
 4710              		.cfi_def_cfa_offset 12
 4711              		.cfi_offset 4, -12
 4712              		.cfi_offset 5, -8
 4713              		.cfi_offset 14, -4
 4714 0002 87B0     		sub	sp, sp, #28
 4715              	.LCFI28:
 4716              		.cfi_def_cfa_offset 40
 4717              		.loc 1 2960 0
 4718 0004 06AB     		add	r3, sp, #24
 4719 0006 43F8141D 		str	r1, [r3, #-20]!
 4720 000a 0446     		mov	r4, r0
 4721              		.loc 1 2965 0
 4722 000c 0146     		mov	r1, r0
 4723              	.LVL617:
 4724 000e 0022     		movs	r2, #0
 4725 0010 1846     		mov	r0, r3
 4726              	.LVL618:
 4727 0012 FFF7FEFF 		bl	chk_mounted
 4728              	.LVL619:
 4729              		.loc 1 2966 0
 4730 0016 08B1     		cbz	r0, .L573
 4731              	.LVL620:
 4732              	.L570:
 4733              		.loc 1 2987 0
 4734 0018 07B0     		add	sp, sp, #28
 4735 001a 30BD     		pop	{r4, r5, pc}
 4736              	.LVL621:
 4737              	.L573:
 4738              		.loc 1 2967 0
 4739 001c 03AB     		add	r3, sp, #12
 4740 001e A361     		str	r3, [r4, #24]
 4741              		.loc 1 2968 0
 4742 0020 2046     		mov	r0, r4
 4743              	.LVL622:
 4744 0022 0199     		ldr	r1, [sp, #4]
 4745 0024 FFF7FEFF 		bl	follow_path
 4746              	.LVL623:
 4747              		.loc 1 2970 0
 4748 0028 D0B9     		cbnz	r0, .L564
 4749              		.loc 1 2971 0
 4750 002a 6369     		ldr	r3, [r4, #20]
 4751 002c 8BB1     		cbz	r3, .L565
 4752              		.loc 1 2972 0
 4753 002e DA7A     		ldrb	r2, [r3, #11]	@ zero_extendqisi2
 4754              		.loc 1 2975 0
 4755 0030 0520     		movs	r0, #5
 4756              	.LVL624:
 4757              		.loc 1 2972 0
 4758 0032 02F01002 		and	r2, r2, #16
 4759 0036 D2B2     		uxtb	r2, r2
 4760 0038 002A     		cmp	r2, #0
ARM GAS  /var/folders/dt/0wfd0knj7gs46m8vwfzktm600000gn/T//cczoWvr4.s 			page 85


 4761 003a EDD0     		beq	.L570
 4762              		.loc 1 2973 0
 4763 003c 5D7D     		ldrb	r5, [r3, #21]	@ zero_extendqisi2
 4764 003e 1A7D     		ldrb	r2, [r3, #20]	@ zero_extendqisi2
 4765 0040 D87E     		ldrb	r0, [r3, #27]	@ zero_extendqisi2
 4766 0042 997E     		ldrb	r1, [r3, #26]	@ zero_extendqisi2
 4767 0044 42EA0522 		orr	r2, r2, r5, lsl #8
 4768 0048 41EA0023 		orr	r3, r1, r0, lsl #8
 4769 004c 43EA0243 		orr	r3, r3, r2, lsl #16
 4770 0050 A360     		str	r3, [r4, #8]
 4771              	.L565:
 4772              	.LVL625:
 4773              		.loc 1 2979 0
 4774 0052 2368     		ldr	r3, [r4, #0]
 4775              		.loc 1 2980 0
 4776 0054 2046     		mov	r0, r4
 4777              		.loc 1 2979 0
 4778 0056 DB88     		ldrh	r3, [r3, #6]
 4779              		.loc 1 2980 0
 4780 0058 0021     		movs	r1, #0
 4781              		.loc 1 2979 0
 4782 005a A380     		strh	r3, [r4, #4]	@ movhi
 4783              		.loc 1 2980 0
 4784 005c FFF7FEFF 		bl	dir_sdi
 4785              	.LVL626:
 4786              	.L564:
 4787              		.loc 1 2983 0
 4788 0060 0428     		cmp	r0, #4
 4789 0062 08BF     		it	eq
 4790 0064 0520     		moveq	r0, #5
 4791              	.LVL627:
 4792 0066 D7E7     		b	.L570
 4793              		.cfi_endproc
 4794              	.LFE30:
 4795              		.size	f_opendir, .-f_opendir
 4796 0068 AFF30080 		.section	.text.f_readdir,"ax",%progbits
 4796      AFF30080 
 4797              		.align	2
 4798              		.p2align 4,,15
 4799              		.global	f_readdir
 4800              		.thumb
 4801              		.thumb_func
 4802              		.type	f_readdir, %function
 4803              	f_readdir:
 4804              	.LFB31:
 4805              		.loc 1 3000 0
 4806              		.cfi_startproc
 4807              		@ args = 0, pretend = 0, frame = 16
 4808              		@ frame_needed = 0, uses_anonymous_args = 0
 4809              	.LVL628:
 4810 0000 70B5     		push	{r4, r5, r6, lr}
 4811              	.LCFI29:
 4812              		.cfi_def_cfa_offset 16
 4813              		.cfi_offset 4, -16
 4814              		.cfi_offset 5, -12
 4815              		.cfi_offset 6, -8
 4816              		.cfi_offset 14, -4
ARM GAS  /var/folders/dt/0wfd0knj7gs46m8vwfzktm600000gn/T//cczoWvr4.s 			page 86


 4817 0002 0446     		mov	r4, r0
 4818 0004 84B0     		sub	sp, sp, #16
 4819              	.LCFI30:
 4820              		.cfi_def_cfa_offset 32
 4821              		.loc 1 3000 0
 4822 0006 0E46     		mov	r6, r1
 4823              		.loc 1 3005 0
 4824 0008 0068     		ldr	r0, [r0, #0]
 4825              	.LVL629:
 4826 000a A188     		ldrh	r1, [r4, #4]
 4827              	.LVL630:
 4828 000c FFF7FEFF 		bl	validate
 4829              	.LVL631:
 4830              		.loc 1 3006 0
 4831 0010 0546     		mov	r5, r0
 4832 0012 58B9     		cbnz	r0, .L575
 4833              		.loc 1 3007 0
 4834 0014 D6B1     		cbz	r6, .L581
 4835              		.loc 1 3010 0
 4836 0016 01AB     		add	r3, sp, #4
 4837 0018 A361     		str	r3, [r4, #24]
 4838              		.loc 1 3011 0
 4839 001a 2046     		mov	r0, r4
 4840              	.LVL632:
 4841 001c FFF7FEFF 		bl	dir_read
 4842              	.LVL633:
 4843              		.loc 1 3012 0
 4844 0020 0428     		cmp	r0, #4
 4845              		.loc 1 3013 0
 4846 0022 08BF     		it	eq
 4847 0024 2561     		streq	r5, [r4, #16]
 4848              		.loc 1 3012 0
 4849 0026 04D0     		beq	.L578
 4850              		.loc 1 3016 0
 4851 0028 18B1     		cbz	r0, .L578
 4852              	.LVL634:
 4853              	.L580:
 4854              		.loc 1 3019 0
 4855 002a 0546     		mov	r5, r0
 4856              	.L575:
 4857              	.LVL635:
 4858              		.loc 1 3029 0
 4859 002c 2846     		mov	r0, r5
 4860 002e 04B0     		add	sp, sp, #16
 4861 0030 70BD     		pop	{r4, r5, r6, pc}
 4862              	.LVL636:
 4863              	.L578:
 4864              		.loc 1 3017 0
 4865 0032 3146     		mov	r1, r6
 4866 0034 2046     		mov	r0, r4
 4867              	.LVL637:
 4868 0036 FFF7FEFF 		bl	get_fileinfo
 4869              	.LVL638:
 4870              		.loc 1 3018 0
 4871 003a 0021     		movs	r1, #0
 4872 003c 2046     		mov	r0, r4
 4873 003e FFF7FEFF 		bl	dir_next
ARM GAS  /var/folders/dt/0wfd0knj7gs46m8vwfzktm600000gn/T//cczoWvr4.s 			page 87


 4874              	.LVL639:
 4875              		.loc 1 3019 0
 4876 0042 0428     		cmp	r0, #4
 4877 0044 F1D1     		bne	.L580
 4878              		.loc 1 3020 0
 4879 0046 0023     		movs	r3, #0
 4880 0048 2361     		str	r3, [r4, #16]
 4881              	.LVL640:
 4882 004a EFE7     		b	.L575
 4883              	.LVL641:
 4884              	.L581:
 4885              		.loc 1 3008 0
 4886 004c 2946     		mov	r1, r5
 4887 004e 2046     		mov	r0, r4
 4888              	.LVL642:
 4889 0050 FFF7FEFF 		bl	dir_sdi
 4890              	.LVL643:
 4891 0054 0546     		mov	r5, r0
 4892              	.LVL644:
 4893 0056 E9E7     		b	.L575
 4894              		.cfi_endproc
 4895              	.LFE31:
 4896              		.size	f_readdir, .-f_readdir
 4897 0058 AFF30080 		.section	.text.f_stat,"ax",%progbits
 4897      AFF30080 
 4898              		.align	2
 4899              		.p2align 4,,15
 4900              		.global	f_stat
 4901              		.thumb
 4902              		.thumb_func
 4903              		.type	f_stat, %function
 4904              	f_stat:
 4905              	.LFB32:
 4906              		.loc 1 3042 0
 4907              		.cfi_startproc
 4908              		@ args = 0, pretend = 0, frame = 48
 4909              		@ frame_needed = 0, uses_anonymous_args = 0
 4910              	.LVL645:
 4911 0000 30B5     		push	{r4, r5, lr}
 4912              	.LCFI31:
 4913              		.cfi_def_cfa_offset 12
 4914              		.cfi_offset 4, -12
 4915              		.cfi_offset 5, -8
 4916              		.cfi_offset 14, -4
 4917 0002 8DB0     		sub	sp, sp, #52
 4918              	.LCFI32:
 4919              		.cfi_def_cfa_offset 64
 4920              		.loc 1 3042 0
 4921 0004 0CAB     		add	r3, sp, #48
 4922 0006 43F82C0D 		str	r0, [r3, #-44]!
 4923 000a 0D46     		mov	r5, r1
 4924              		.loc 1 3048 0
 4925 000c 1846     		mov	r0, r3
 4926              	.LVL646:
 4927 000e 05A9     		add	r1, sp, #20
 4928              	.LVL647:
 4929 0010 0022     		movs	r2, #0
ARM GAS  /var/folders/dt/0wfd0knj7gs46m8vwfzktm600000gn/T//cczoWvr4.s 			page 88


 4930 0012 FFF7FEFF 		bl	chk_mounted
 4931              	.LVL648:
 4932              		.loc 1 3049 0
 4933 0016 0446     		mov	r4, r0
 4934 0018 10B1     		cbz	r0, .L585
 4935              	.LVL649:
 4936              	.L583:
 4937              		.loc 1 3062 0
 4938 001a 2046     		mov	r0, r4
 4939 001c 0DB0     		add	sp, sp, #52
 4940 001e 30BD     		pop	{r4, r5, pc}
 4941              	.LVL650:
 4942              	.L585:
 4943              		.loc 1 3050 0
 4944 0020 02AB     		add	r3, sp, #8
 4945              		.loc 1 3051 0
 4946 0022 05A8     		add	r0, sp, #20
 4947              	.LVL651:
 4948 0024 0199     		ldr	r1, [sp, #4]
 4949              		.loc 1 3050 0
 4950 0026 0B93     		str	r3, [sp, #44]
 4951              		.loc 1 3051 0
 4952 0028 FFF7FEFF 		bl	follow_path
 4953              	.LVL652:
 4954              		.loc 1 3052 0
 4955 002c 0446     		mov	r4, r0
 4956 002e 0028     		cmp	r0, #0
 4957 0030 F3D1     		bne	.L583
 4958              		.loc 1 3053 0
 4959 0032 0A9B     		ldr	r3, [sp, #40]
 4960 0034 23B1     		cbz	r3, .L584
 4961              		.loc 1 3054 0
 4962 0036 05A8     		add	r0, sp, #20
 4963              	.LVL653:
 4964 0038 2946     		mov	r1, r5
 4965 003a FFF7FEFF 		bl	get_fileinfo
 4966              	.LVL654:
 4967 003e ECE7     		b	.L583
 4968              	.LVL655:
 4969              	.L584:
 4970              		.loc 1 3056 0
 4971 0040 0624     		movs	r4, #6
 4972 0042 EAE7     		b	.L583
 4973              		.cfi_endproc
 4974              	.LFE32:
 4975              		.size	f_stat, .-f_stat
 4976 0044 AFF30080 		.section	.text.f_getfree,"ax",%progbits
 4976      AFF30080 
 4976      AFF30080 
 4977              		.align	2
 4978              		.p2align 4,,15
 4979              		.global	f_getfree
 4980              		.thumb
 4981              		.thumb_func
 4982              		.type	f_getfree, %function
 4983              	f_getfree:
 4984              	.LFB33:
ARM GAS  /var/folders/dt/0wfd0knj7gs46m8vwfzktm600000gn/T//cczoWvr4.s 			page 89


 4985              		.loc 1 3076 0
 4986              		.cfi_startproc
 4987              		@ args = 0, pretend = 0, frame = 8
 4988              		@ frame_needed = 0, uses_anonymous_args = 0
 4989              	.LVL656:
 4990 0000 2DE9F04F 		push	{r4, r5, r6, r7, r8, r9, sl, fp, lr}
 4991              	.LCFI33:
 4992              		.cfi_def_cfa_offset 36
 4993              		.cfi_offset 4, -36
 4994              		.cfi_offset 5, -32
 4995              		.cfi_offset 6, -28
 4996              		.cfi_offset 7, -24
 4997              		.cfi_offset 8, -20
 4998              		.cfi_offset 9, -16
 4999              		.cfi_offset 10, -12
 5000              		.cfi_offset 11, -8
 5001              		.cfi_offset 14, -4
 5002 0004 83B0     		sub	sp, sp, #12
 5003              	.LCFI34:
 5004              		.cfi_def_cfa_offset 48
 5005              		.loc 1 3076 0
 5006 0006 02AB     		add	r3, sp, #8
 5007 0008 43F8040D 		str	r0, [r3, #-4]!
 5008 000c 9046     		mov	r8, r2
 5009 000e 8946     		mov	r9, r1
 5010              		.loc 1 3084 0
 5011 0010 1846     		mov	r0, r3
 5012              	.LVL657:
 5013 0012 1146     		mov	r1, r2
 5014              	.LVL658:
 5015 0014 0022     		movs	r2, #0
 5016              	.LVL659:
 5017 0016 FFF7FEFF 		bl	chk_mounted
 5018              	.LVL660:
 5019              		.loc 1 3085 0
 5020 001a 0746     		mov	r7, r0
 5021 001c 88BB     		cbnz	r0, .L604
 5022              		.loc 1 3087 0
 5023 001e D8F80050 		ldr	r5, [r8, #0]
 5024 0022 AC69     		ldr	r4, [r5, #24]
 5025 0024 2B69     		ldr	r3, [r5, #16]
 5026 0026 A21E     		subs	r2, r4, #2
 5027 0028 9342     		cmp	r3, r2
 5028              		.loc 1 3088 0
 5029 002a 98BF     		it	ls
 5030 002c C9F80030 		strls	r3, [r9, #0]
 5031              		.loc 1 3087 0
 5032 0030 27D9     		bls	.L604
 5033              		.loc 1 3091 0
 5034 0032 95F800B0 		ldrb	fp, [r5, #0]	@ zero_extendqisi2
 5035              	.LVL661:
 5036              		.loc 1 3093 0
 5037 0036 BBF1010F 		cmp	fp, #1
 5038 003a 46D0     		beq	.L607
 5039              	.LVL662:
 5040              		.loc 1 3103 0
 5041 003c D5F820C0 		ldr	ip, [r5, #32]
ARM GAS  /var/folders/dt/0wfd0knj7gs46m8vwfzktm600000gn/T//cczoWvr4.s 			page 90


 5042              	.LVL663:
 5043              		.loc 1 3104 0
 5044 0040 0346     		mov	r3, r0
 5045 0042 0646     		mov	r6, r0
 5046              		.loc 1 3092 0
 5047 0044 8246     		mov	sl, r0
 5048              	.LVL664:
 5049              	.L602:
 5050              		.loc 1 3106 0
 5051 0046 06B3     		cbz	r6, .L608
 5052              		.loc 1 3112 0
 5053 0048 BBF1020F 		cmp	fp, #2
 5054 004c 2ED0     		beq	.L609
 5055              	.L598:
 5056              		.loc 1 3116 0
 5057 004e 9A78     		ldrb	r2, [r3, #2]	@ zero_extendqisi2
 5058 0050 D978     		ldrb	r1, [r3, #3]	@ zero_extendqisi2
 5059 0052 1204     		lsls	r2, r2, #16
 5060 0054 1878     		ldrb	r0, [r3, #0]	@ zero_extendqisi2
 5061 0056 42EA0162 		orr	r2, r2, r1, lsl #24
 5062 005a 5978     		ldrb	r1, [r3, #1]	@ zero_extendqisi2
 5063 005c 0243     		orrs	r2, r2, r0
 5064 005e 42EA0122 		orr	r2, r2, r1, lsl #8
 5065 0062 22F07042 		bic	r2, r2, #-268435456
 5066 0066 0AB9     		cbnz	r2, .L601
 5067              		.loc 1 3116 0 is_stmt 0 discriminator 1
 5068 0068 0AF1010A 		add	sl, sl, #1
 5069              	.LVL665:
 5070              	.L601:
 5071              		.loc 1 3117 0 is_stmt 1
 5072 006c 0433     		adds	r3, r3, #4
 5073              	.LVL666:
 5074 006e 043E     		subs	r6, r6, #4
 5075              	.LVL667:
 5076              	.L600:
 5077              		.loc 1 3119 0
 5078 0070 013C     		subs	r4, r4, #1
 5079              	.LVL668:
 5080 0072 E8D1     		bne	.L602
 5081              	.LVL669:
 5082              	.L597:
 5083              		.loc 1 3122 0
 5084 0074 BBF1030F 		cmp	fp, #3
 5085              		.loc 1 3121 0
 5086 0078 C5F810A0 		str	sl, [r5, #16]
 5087              		.loc 1 3122 0
 5088 007c 20D0     		beq	.L610
 5089              		.loc 1 3123 0
 5090 007e C9F800A0 		str	sl, [r9, #0]
 5091              	.LVL670:
 5092              	.L604:
 5093              		.loc 1 3127 0
 5094 0082 3846     		mov	r0, r7
 5095 0084 03B0     		add	sp, sp, #12
 5096 0086 BDE8F08F 		pop	{r4, r5, r6, r7, r8, r9, sl, fp, pc}
 5097              	.LVL671:
 5098              	.L608:
ARM GAS  /var/folders/dt/0wfd0knj7gs46m8vwfzktm600000gn/T//cczoWvr4.s 			page 91


 5099              		.loc 1 3107 0
 5100 008a 2846     		mov	r0, r5
 5101 008c 6146     		mov	r1, ip
 5102 008e 0CF10106 		add	r6, ip, #1
 5103              	.LVL672:
 5104 0092 FFF7FEFF 		bl	move_window
 5105              	.LVL673:
 5106 0096 D8F80050 		ldr	r5, [r8, #0]
 5107              		.loc 1 3108 0
 5108 009a 70BB     		cbnz	r0, .L611
 5109              		.loc 1 3112 0
 5110 009c BBF1020F 		cmp	fp, #2
 5111              		.loc 1 3107 0
 5112 00a0 B446     		mov	ip, r6
 5113              		.loc 1 3109 0
 5114 00a2 05F13003 		add	r3, r5, #48
 5115              	.LVL674:
 5116              		.loc 1 3110 0
 5117 00a6 4FF40076 		mov	r6, #512
 5118              	.LVL675:
 5119              		.loc 1 3112 0
 5120 00aa D0D1     		bne	.L598
 5121              	.L609:
 5122              		.loc 1 3113 0
 5123 00ac 5978     		ldrb	r1, [r3, #1]	@ zero_extendqisi2
 5124 00ae 1A78     		ldrb	r2, [r3, #0]	@ zero_extendqisi2
 5125 00b0 52EA0122 		orrs	r2, r2, r1, lsl #8
 5126 00b4 08BF     		it	eq
 5127 00b6 0AF1010A 		addeq	sl, sl, #1
 5128              	.LVL676:
 5129              		.loc 1 3114 0
 5130 00ba 0233     		adds	r3, r3, #2
 5131              	.LVL677:
 5132 00bc 023E     		subs	r6, r6, #2
 5133              	.LVL678:
 5134 00be D7E7     		b	.L600
 5135              	.LVL679:
 5136              	.L610:
 5137              		.loc 1 3122 0 discriminator 1
 5138 00c0 0123     		movs	r3, #1
 5139 00c2 6B71     		strb	r3, [r5, #5]
 5140              		.loc 1 3123 0 discriminator 1
 5141 00c4 C9F800A0 		str	sl, [r9, #0]
 5142 00c8 DBE7     		b	.L604
 5143              	.LVL680:
 5144              	.L607:
 5145              		.loc 1 3093 0
 5146 00ca 0224     		movs	r4, #2
 5147 00cc 8246     		mov	sl, r0
 5148              	.LVL681:
 5149              	.L594:
 5150              		.loc 1 3096 0
 5151 00ce 2846     		mov	r0, r5
 5152 00d0 2146     		mov	r1, r4
 5153 00d2 FFF7FEFF 		bl	get_fat
 5154              	.LVL682:
 5155              		.loc 1 3100 0
ARM GAS  /var/folders/dt/0wfd0knj7gs46m8vwfzktm600000gn/T//cczoWvr4.s 			page 92


 5156 00d6 0134     		adds	r4, r4, #1
 5157              	.LVL683:
 5158              		.loc 1 3097 0
 5159 00d8 451C     		adds	r5, r0, #1
 5160 00da 10D0     		beq	.L590
 5161              		.loc 1 3098 0
 5162 00dc 0128     		cmp	r0, #1
 5163 00de 12D0     		beq	.L612
 5164              		.loc 1 3099 0
 5165 00e0 08B9     		cbnz	r0, .L593
 5166              		.loc 1 3099 0 is_stmt 0 discriminator 1
 5167 00e2 0AF1010A 		add	sl, sl, #1
 5168              	.LVL684:
 5169              	.L593:
 5170              		.loc 1 3100 0 is_stmt 1
 5171 00e6 D8F80050 		ldr	r5, [r8, #0]
 5172 00ea AB69     		ldr	r3, [r5, #24]
 5173 00ec 9C42     		cmp	r4, r3
 5174 00ee EED3     		bcc	.L594
 5175              	.LVL685:
 5176              	.L592:
 5177              		.loc 1 3121 0
 5178 00f0 C5F810A0 		str	sl, [r5, #16]
 5179              		.loc 1 3123 0
 5180 00f4 C9F800A0 		str	sl, [r9, #0]
 5181 00f8 C3E7     		b	.L604
 5182              	.LVL686:
 5183              	.L611:
 5184              		.loc 1 3107 0
 5185 00fa 0746     		mov	r7, r0
 5186 00fc BAE7     		b	.L597
 5187              	.LVL687:
 5188              	.L590:
 5189 00fe D8F80050 		ldr	r5, [r8, #0]
 5190              		.loc 1 3097 0
 5191 0102 0127     		movs	r7, #1
 5192 0104 F4E7     		b	.L592
 5193              	.L612:
 5194 0106 D8F80050 		ldr	r5, [r8, #0]
 5195              		.loc 1 3098 0
 5196 010a 0227     		movs	r7, #2
 5197 010c F0E7     		b	.L592
 5198              		.cfi_endproc
 5199              	.LFE33:
 5200              		.size	f_getfree, .-f_getfree
 5201 010e 00BF     		.section	.text.f_truncate,"ax",%progbits
 5202              		.align	2
 5203              		.p2align 4,,15
 5204              		.global	f_truncate
 5205              		.thumb
 5206              		.thumb_func
 5207              		.type	f_truncate, %function
 5208              	f_truncate:
 5209              	.LFB34:
 5210              		.loc 1 3139 0
 5211              		.cfi_startproc
 5212              		@ args = 0, pretend = 0, frame = 0
ARM GAS  /var/folders/dt/0wfd0knj7gs46m8vwfzktm600000gn/T//cczoWvr4.s 			page 93


 5213              		@ frame_needed = 0, uses_anonymous_args = 0
 5214              	.LVL688:
 5215 0000 70B5     		push	{r4, r5, r6, lr}
 5216              	.LCFI35:
 5217              		.cfi_def_cfa_offset 16
 5218              		.cfi_offset 4, -16
 5219              		.cfi_offset 5, -12
 5220              		.cfi_offset 6, -8
 5221              		.cfi_offset 14, -4
 5222              		.loc 1 3139 0
 5223 0002 0446     		mov	r4, r0
 5224              		.loc 1 3144 0
 5225 0004 A188     		ldrh	r1, [r4, #4]
 5226 0006 0068     		ldr	r0, [r0, #0]
 5227              	.LVL689:
 5228 0008 FFF7FEFF 		bl	validate
 5229              	.LVL690:
 5230              		.loc 1 3145 0
 5231 000c 0546     		mov	r5, r0
 5232 000e D0B9     		cbnz	r0, .L630
 5233              		.loc 1 3146 0
 5234 0010 A379     		ldrb	r3, [r4, #6]	@ zero_extendqisi2
 5235 0012 1A06     		lsls	r2, r3, #24
 5236 0014 1CD4     		bmi	.L625
 5237              		.loc 1 3149 0
 5238 0016 03F00202 		and	r2, r3, #2
 5239 001a D2B2     		uxtb	r2, r2
 5240 001c AAB1     		cbz	r2, .L626
 5241              	.LVL691:
 5242              		.loc 1 3154 0
 5243 001e A668     		ldr	r6, [r4, #8]
 5244 0020 E268     		ldr	r2, [r4, #12]
 5245 0022 B242     		cmp	r2, r6
 5246 0024 0FD9     		bls	.L630
 5247              		.loc 1 3156 0
 5248 0026 43F02003 		orr	r3, r3, #32
 5249              		.loc 1 3155 0
 5250 002a E660     		str	r6, [r4, #12]
 5251              		.loc 1 3156 0
 5252 002c A371     		strb	r3, [r4, #6]
 5253              		.loc 1 3158 0
 5254 002e 2068     		ldr	r0, [r4, #0]
 5255              		.loc 1 3157 0
 5256 0030 8EB9     		cbnz	r6, .L616
 5257              		.loc 1 3158 0
 5258 0032 2169     		ldr	r1, [r4, #16]
 5259 0034 FFF7FEFF 		bl	remove_chain
 5260              	.LVL692:
 5261              		.loc 1 3159 0
 5262 0038 2661     		str	r6, [r4, #16]
 5263              		.loc 1 3158 0
 5264 003a 0546     		mov	r5, r0
 5265              	.LVL693:
 5266              	.L617:
 5267              		.loc 1 3171 0
 5268 003c 1DB1     		cbz	r5, .L630
 5269              	.LVL694:
ARM GAS  /var/folders/dt/0wfd0knj7gs46m8vwfzktm600000gn/T//cczoWvr4.s 			page 94


 5270              	.L623:
 5271              		.loc 1 3171 0 is_stmt 0 discriminator 1
 5272 003e A379     		ldrb	r3, [r4, #6]	@ zero_extendqisi2
 5273 0040 63F07F03 		orn	r3, r3, #127
 5274 0044 A371     		strb	r3, [r4, #6]
 5275              	.L630:
 5276              		.loc 1 3175 0 is_stmt 1
 5277 0046 2846     		mov	r0, r5
 5278 0048 70BD     		pop	{r4, r5, r6, pc}
 5279              	.LVL695:
 5280              	.L626:
 5281              		.loc 1 3150 0
 5282 004a 0725     		movs	r5, #7
 5283              	.LVL696:
 5284              		.loc 1 3175 0
 5285 004c 2846     		mov	r0, r5
 5286 004e 70BD     		pop	{r4, r5, r6, pc}
 5287              	.LVL697:
 5288              	.L625:
 5289              		.loc 1 3147 0
 5290 0050 0225     		movs	r5, #2
 5291              		.loc 1 3175 0
 5292 0052 2846     		mov	r0, r5
 5293              	.LVL698:
 5294 0054 70BD     		pop	{r4, r5, r6, pc}
 5295              	.LVL699:
 5296              	.L616:
 5297              		.loc 1 3161 0
 5298 0056 6169     		ldr	r1, [r4, #20]
 5299 0058 FFF7FEFF 		bl	get_fat
 5300              	.LVL700:
 5301              		.loc 1 3163 0
 5302 005c 431C     		adds	r3, r0, #1
 5303              		.loc 1 3161 0
 5304 005e 0646     		mov	r6, r0
 5305              	.LVL701:
 5306              		.loc 1 3163 0
 5307 0060 15D0     		beq	.L627
 5308              		.loc 1 3164 0
 5309 0062 0128     		cmp	r0, #1
 5310 0064 11D0     		beq	.L635
 5311              		.loc 1 3165 0
 5312 0066 2068     		ldr	r0, [r4, #0]
 5313              	.LVL702:
 5314 0068 8369     		ldr	r3, [r0, #24]
 5315 006a 9E42     		cmp	r6, r3
 5316 006c EBD2     		bcs	.L630
 5317              		.loc 1 3166 0
 5318 006e 6169     		ldr	r1, [r4, #20]
 5319 0070 6FF07042 		mvn	r2, #-268435456
 5320 0074 FFF7FEFF 		bl	put_fat
 5321              	.LVL703:
 5322              		.loc 1 3167 0
 5323 0078 0546     		mov	r5, r0
 5324 007a 0028     		cmp	r0, #0
 5325 007c DFD1     		bne	.L623
 5326              		.loc 1 3167 0 is_stmt 0 discriminator 1
ARM GAS  /var/folders/dt/0wfd0knj7gs46m8vwfzktm600000gn/T//cczoWvr4.s 			page 95


 5327 007e 2068     		ldr	r0, [r4, #0]
 5328              	.LVL704:
 5329 0080 3146     		mov	r1, r6
 5330 0082 FFF7FEFF 		bl	remove_chain
 5331              	.LVL705:
 5332 0086 0546     		mov	r5, r0
 5333              	.LVL706:
 5334 0088 D8E7     		b	.L617
 5335              	.LVL707:
 5336              	.L635:
 5337              		.loc 1 3164 0 is_stmt 1
 5338 008a 0225     		movs	r5, #2
 5339 008c D7E7     		b	.L623
 5340              	.L627:
 5341              		.loc 1 3163 0
 5342 008e 0125     		movs	r5, #1
 5343 0090 D5E7     		b	.L623
 5344              		.cfi_endproc
 5345              	.LFE34:
 5346              		.size	f_truncate, .-f_truncate
 5347 0092 00BFAFF3 		.section	.text.f_unlink,"ax",%progbits
 5347      0080AFF3 
 5347      0080AFF3 
 5347      0080
 5348              		.align	2
 5349              		.p2align 4,,15
 5350              		.global	f_unlink
 5351              		.thumb
 5352              		.thumb_func
 5353              		.type	f_unlink, %function
 5354              	f_unlink:
 5355              	.LFB35:
 5356              		.loc 1 3187 0
 5357              		.cfi_startproc
 5358              		@ args = 0, pretend = 0, frame = 80
 5359              		@ frame_needed = 0, uses_anonymous_args = 0
 5360              	.LVL708:
 5361 0000 30B5     		push	{r4, r5, lr}
 5362              	.LCFI36:
 5363              		.cfi_def_cfa_offset 12
 5364              		.cfi_offset 4, -12
 5365              		.cfi_offset 5, -8
 5366              		.cfi_offset 14, -4
 5367 0002 95B0     		sub	sp, sp, #84
 5368              	.LCFI37:
 5369              		.cfi_def_cfa_offset 96
 5370              		.loc 1 3187 0
 5371 0004 14AB     		add	r3, sp, #80
 5372 0006 43F84C0D 		str	r0, [r3, #-76]!
 5373              		.loc 1 3195 0
 5374 000a 1846     		mov	r0, r3
 5375              	.LVL709:
 5376 000c 06A9     		add	r1, sp, #24
 5377 000e 0122     		movs	r2, #1
 5378 0010 FFF7FEFF 		bl	chk_mounted
 5379              	.LVL710:
 5380              		.loc 1 3196 0
ARM GAS  /var/folders/dt/0wfd0knj7gs46m8vwfzktm600000gn/T//cczoWvr4.s 			page 96


 5381 0014 08B1     		cbz	r0, .L660
 5382              	.LVL711:
 5383              	.L653:
 5384              		.loc 1 3243 0
 5385 0016 15B0     		add	sp, sp, #84
 5386 0018 30BD     		pop	{r4, r5, pc}
 5387              	.LVL712:
 5388              	.L660:
 5389              		.loc 1 3197 0
 5390 001a 03AB     		add	r3, sp, #12
 5391              		.loc 1 3198 0
 5392 001c 06A8     		add	r0, sp, #24
 5393              	.LVL713:
 5394 001e 0199     		ldr	r1, [sp, #4]
 5395              		.loc 1 3197 0
 5396 0020 0C93     		str	r3, [sp, #48]
 5397              		.loc 1 3198 0
 5398 0022 FFF7FEFF 		bl	follow_path
 5399              	.LVL714:
 5400              		.loc 1 3204 0
 5401 0026 0028     		cmp	r0, #0
 5402 0028 F5D1     		bne	.L653
 5403              		.loc 1 3205 0
 5404 002a 0B9A     		ldr	r2, [sp, #44]
 5405              	.LVL715:
 5406              		.loc 1 3207 0
 5407 002c 0620     		movs	r0, #6
 5408              	.LVL716:
 5409              		.loc 1 3206 0
 5410 002e 002A     		cmp	r2, #0
 5411 0030 F1D0     		beq	.L653
 5412              		.loc 1 3209 0
 5413 0032 D17A     		ldrb	r1, [r2, #11]	@ zero_extendqisi2
 5414 0034 11F00103 		ands	r3, r1, #1
 5415 0038 2ED1     		bne	.L648
 5416              	.LVL717:
 5417              		.loc 1 3212 0
 5418 003a 557D     		ldrb	r5, [r2, #21]	@ zero_extendqisi2
 5419              	.LVL718:
 5420 003c 147D     		ldrb	r4, [r2, #20]	@ zero_extendqisi2
 5421 003e D07E     		ldrb	r0, [r2, #27]	@ zero_extendqisi2
 5422              	.LVL719:
 5423 0040 927E     		ldrb	r2, [r2, #26]	@ zero_extendqisi2
 5424              	.LVL720:
 5425              		.loc 1 3213 0
 5426 0042 01F01001 		and	r1, r1, #16
 5427              		.loc 1 3212 0
 5428 0046 44EA0525 		orr	r5, r4, r5, lsl #8
 5429              	.LVL721:
 5430 004a 42EA0022 		orr	r2, r2, r0, lsl #8
 5431              		.loc 1 3213 0
 5432 004e C9B2     		uxtb	r1, r1
 5433              		.loc 1 3212 0
 5434 0050 42EA0545 		orr	r5, r2, r5, lsl #16
 5435              		.loc 1 3213 0
 5436 0054 B1B1     		cbz	r1, .L642
 5437              		.loc 1 3215 0
ARM GAS  /var/folders/dt/0wfd0knj7gs46m8vwfzktm600000gn/T//cczoWvr4.s 			page 97


 5438 0056 0220     		movs	r0, #2
 5439              	.LVL722:
 5440              		.loc 1 3214 0
 5441 0058 012D     		cmp	r5, #1
 5442 005a DCD9     		bls	.L653
 5443 005c 0DAC     		add	r4, sp, #52
 5444              	.L641:
 5445              	.LBB191:
 5446              	.LBB192:
 5447              		.loc 1 533 0
 5448 005e 06A9     		add	r1, sp, #24
 5449 0060 CA5C     		ldrb	r2, [r1, r3]	@ zero_extendqisi2
 5450 0062 E254     		strb	r2, [r4, r3]
 5451              	.LVL723:
 5452 0064 0133     		adds	r3, r3, #1
 5453              		.loc 1 532 0
 5454 0066 1C2B     		cmp	r3, #28
 5455 0068 F9D1     		bne	.L641
 5456              	.LBE192:
 5457              	.LBE191:
 5458              		.loc 1 3219 0
 5459 006a 2046     		mov	r0, r4
 5460 006c 0221     		movs	r1, #2
 5461              		.loc 1 3218 0
 5462 006e 0F95     		str	r5, [sp, #60]
 5463              		.loc 1 3219 0
 5464 0070 FFF7FEFF 		bl	dir_sdi
 5465              	.LVL724:
 5466              		.loc 1 3220 0
 5467 0074 0028     		cmp	r0, #0
 5468 0076 CED1     		bne	.L653
 5469              		.loc 1 3221 0
 5470 0078 2046     		mov	r0, r4
 5471              	.LVL725:
 5472 007a FFF7FEFF 		bl	dir_read
 5473              	.LVL726:
 5474              		.loc 1 3222 0
 5475 007e 58B1     		cbz	r0, .L648
 5476              		.loc 1 3227 0
 5477 0080 0428     		cmp	r0, #4
 5478 0082 C8D1     		bne	.L653
 5479              	.LVL727:
 5480              	.L642:
 5481              		.loc 1 3232 0
 5482 0084 06A8     		add	r0, sp, #24
 5483 0086 FFF7FEFF 		bl	dir_remove
 5484              	.LVL728:
 5485              		.loc 1 3233 0
 5486 008a 0028     		cmp	r0, #0
 5487 008c C3D1     		bne	.L653
 5488              		.loc 1 3234 0
 5489 008e 2DB9     		cbnz	r5, .L643
 5490              	.L644:
 5491              		.loc 1 3236 0
 5492 0090 0698     		ldr	r0, [sp, #24]
 5493              	.LVL729:
 5494 0092 FFF7FEFF 		bl	sync
ARM GAS  /var/folders/dt/0wfd0knj7gs46m8vwfzktm600000gn/T//cczoWvr4.s 			page 98


 5495              	.LVL730:
 5496 0096 BEE7     		b	.L653
 5497              	.LVL731:
 5498              	.L648:
 5499              		.loc 1 3210 0
 5500 0098 0720     		movs	r0, #7
 5501              	.LVL732:
 5502 009a BCE7     		b	.L653
 5503              	.L643:
 5504              		.loc 1 3235 0
 5505 009c 0698     		ldr	r0, [sp, #24]
 5506              	.LVL733:
 5507 009e 2946     		mov	r1, r5
 5508 00a0 FFF7FEFF 		bl	remove_chain
 5509              	.LVL734:
 5510              		.loc 1 3236 0
 5511 00a4 0028     		cmp	r0, #0
 5512 00a6 B6D1     		bne	.L653
 5513 00a8 F2E7     		b	.L644
 5514              		.cfi_endproc
 5515              	.LFE35:
 5516              		.size	f_unlink, .-f_unlink
 5517 00aa 00BFAFF3 		.section	.text.f_mkdir,"ax",%progbits
 5517      0080
 5518              		.align	2
 5519              		.p2align 4,,15
 5520              		.global	f_mkdir
 5521              		.thumb
 5522              		.thumb_func
 5523              		.type	f_mkdir, %function
 5524              	f_mkdir:
 5525              	.LFB36:
 5526              		.loc 1 3255 0
 5527              		.cfi_startproc
 5528              		@ args = 0, pretend = 0, frame = 72
 5529              		@ frame_needed = 0, uses_anonymous_args = 0
 5530              	.LVL735:
 5531 0000 2DE9F04F 		push	{r4, r5, r6, r7, r8, r9, sl, fp, lr}
 5532              	.LCFI38:
 5533              		.cfi_def_cfa_offset 36
 5534              		.cfi_offset 4, -36
 5535              		.cfi_offset 5, -32
 5536              		.cfi_offset 6, -28
 5537              		.cfi_offset 7, -24
 5538              		.cfi_offset 8, -20
 5539              		.cfi_offset 9, -16
 5540              		.cfi_offset 10, -12
 5541              		.cfi_offset 11, -8
 5542              		.cfi_offset 14, -4
 5543 0004 93B0     		sub	sp, sp, #76
 5544              	.LCFI39:
 5545              		.cfi_def_cfa_offset 112
 5546              		.loc 1 3255 0
 5547 0006 12AC     		add	r4, sp, #72
 5548 0008 44F82C0D 		str	r0, [r4, #-44]!
 5549              		.loc 1 3259 0
 5550 000c FFF7FEFF 		bl	get_fattime
ARM GAS  /var/folders/dt/0wfd0knj7gs46m8vwfzktm600000gn/T//cczoWvr4.s 			page 99


 5551              	.LVL736:
 5552              		.loc 1 3263 0
 5553 0010 0122     		movs	r2, #1
 5554              		.loc 1 3259 0
 5555 0012 8146     		mov	r9, r0
 5556              	.LVL737:
 5557              		.loc 1 3263 0
 5558 0014 0BA9     		add	r1, sp, #44
 5559 0016 2046     		mov	r0, r4
 5560              	.LVL738:
 5561 0018 FFF7FEFF 		bl	chk_mounted
 5562              	.LVL739:
 5563 001c 0246     		mov	r2, r0
 5564 001e 0446     		mov	r4, r0
 5565              	.LVL740:
 5566              		.loc 1 3264 0
 5567 0020 18B1     		cbz	r0, .L698
 5568              	.LVL741:
 5569              	.L686:
 5570              		.loc 1 3316 0
 5571 0022 1046     		mov	r0, r2
 5572 0024 13B0     		add	sp, sp, #76
 5573 0026 BDE8F08F 		pop	{r4, r5, r6, r7, r8, r9, sl, fp, pc}
 5574              	.LVL742:
 5575              	.L698:
 5576              		.loc 1 3265 0
 5577 002a 08AB     		add	r3, sp, #32
 5578              		.loc 1 3266 0
 5579 002c 0BA8     		add	r0, sp, #44
 5580              	.LVL743:
 5581 002e 0799     		ldr	r1, [sp, #28]
 5582              		.loc 1 3265 0
 5583 0030 1193     		str	r3, [sp, #68]
 5584              		.loc 1 3266 0
 5585 0032 FFF7FEFF 		bl	follow_path
 5586              	.LVL744:
 5587              		.loc 1 3267 0
 5588 0036 0246     		mov	r2, r0
 5589 0038 0028     		cmp	r0, #0
 5590 003a 00F0AD80 		beq	.L679
 5591              		.loc 1 3270 0
 5592 003e 0428     		cmp	r0, #4
 5593 0040 EFD1     		bne	.L686
 5594              		.loc 1 3271 0
 5595 0042 0B98     		ldr	r0, [sp, #44]
 5596              	.LVL745:
 5597 0044 2146     		mov	r1, r4
 5598 0046 FFF7FEFF 		bl	create_chain
 5599              	.LVL746:
 5600              		.loc 1 3273 0
 5601 004a 8046     		mov	r8, r0
 5602 004c 0028     		cmp	r0, #0
 5603 004e 00F0A580 		beq	.L680
 5604              		.loc 1 3274 0
 5605 0052 0222     		movs	r2, #2
 5606 0054 0128     		cmp	r0, #1
 5607 0056 00F0A280 		beq	.L676
ARM GAS  /var/folders/dt/0wfd0knj7gs46m8vwfzktm600000gn/T//cczoWvr4.s 			page 100


 5608              		.loc 1 3275 0
 5609 005a 0122     		movs	r2, #1
 5610 005c B0F1FF3F 		cmp	r0, #-1
 5611 0060 00F09D80 		beq	.L676
 5612              		.loc 1 3277 0
 5613 0064 0B98     		ldr	r0, [sp, #44]
 5614              	.LVL747:
 5615 0066 2146     		mov	r1, r4
 5616 0068 FFF7FEFF 		bl	move_window
 5617              	.LVL748:
 5618              		.loc 1 3278 0
 5619 006c 0246     		mov	r2, r0
 5620 006e 0028     		cmp	r0, #0
 5621 0070 40F09580 		bne	.L676
 5622              		.loc 1 3279 0
 5623 0074 0B99     		ldr	r1, [sp, #44]
 5624              	.LVL749:
 5625              	.LBB193:
 5626              	.LBB194:
 5627              		.loc 1 800 0
 5628 0076 A8F10203 		sub	r3, r8, #2
 5629              	.LVL750:
 5630              		.loc 1 801 0
 5631 007a 8869     		ldr	r0, [r1, #24]
 5632              	.LVL751:
 5633              	.LBE194:
 5634              	.LBE193:
 5635              		.loc 1 3280 0
 5636 007c 01F13005 		add	r5, r1, #48
 5637              	.LBB198:
 5638              	.LBB195:
 5639              		.loc 1 801 0
 5640 0080 0238     		subs	r0, r0, #2
 5641 0082 8342     		cmp	r3, r0
 5642              		.loc 1 802 0
 5643 0084 3BBF     		ittet	cc
 5644 0086 91F802C0 		ldrbcc	ip, [r1, #2]	@ zero_extendqisi2
 5645 008a 8A6A     		ldrcc	r2, [r1, #40]
 5646              		.loc 1 801 0
 5647 008c 9246     		movcs	sl, r2
 5648              	.LVL752:
 5649              		.loc 1 802 0
 5650 008e 0CFB032A 		mlacc	sl, ip, r3, r2
 5651              	.LBE195:
 5652              	.LBE198:
 5653              		.loc 1 3252 0
 5654 0092 01F50C74 		add	r4, r1, #560
 5655              	.LBB199:
 5656              	.LBB196:
 5657              		.loc 1 539 0
 5658 0096 2B46     		mov	r3, r5
 5659              	.LVL753:
 5660              	.LBE196:
 5661              	.LBE199:
 5662              	.LBB200:
 5663              	.LBB201:
 5664              		.loc 1 542 0
ARM GAS  /var/folders/dt/0wfd0knj7gs46m8vwfzktm600000gn/T//cczoWvr4.s 			page 101


 5665 0098 0022     		movs	r2, #0
 5666              	.LVL754:
 5667              	.L666:
 5668 009a 03F8012B 		strb	r2, [r3], #1
 5669              	.LVL755:
 5670              		.loc 1 541 0
 5671 009e A342     		cmp	r3, r4
 5672 00a0 FBD1     		bne	.L666
 5673              		.loc 1 3252 0
 5674 00a2 01F13B00 		add	r0, r1, #59
 5675              	.LBE201:
 5676              	.LBE200:
 5677              	.LBB202:
 5678              	.LBB197:
 5679 00a6 2B46     		mov	r3, r5
 5680              	.LVL756:
 5681              	.LBE197:
 5682              	.LBE202:
 5683              	.LBB203:
 5684              	.LBB204:
 5685              		.loc 1 542 0
 5686 00a8 2022     		movs	r2, #32
 5687              	.L667:
 5688 00aa 03F8012B 		strb	r2, [r3], #1
 5689              	.LVL757:
 5690              		.loc 1 541 0
 5691 00ae 8342     		cmp	r3, r0
 5692 00b0 FBD1     		bne	.L667
 5693              	.LBE204:
 5694              	.LBE203:
 5695              		.loc 1 3285 0
 5696 00b2 5FFA89F7 		uxtb	r7, r9
 5697 00b6 0297     		str	r7, [sp, #8]
 5698 00b8 C9F30747 		ubfx	r7, r9, #16, #8
 5699 00bc C9F30726 		ubfx	r6, r9, #8, #8
 5700 00c0 0397     		str	r7, [sp, #12]
 5701 00c2 8DF81960 		strb	r6, [sp, #25]
 5702              		.loc 1 3286 0
 5703 00c6 5FFA88F7 		uxtb	r7, r8
 5704              		.loc 1 3285 0
 5705 00ca 81F84760 		strb	r6, [r1, #71]
 5706 00ce 039E     		ldr	r6, [sp, #12]
 5707              		.loc 1 3286 0
 5708 00d0 0597     		str	r7, [sp, #20]
 5709              		.loc 1 3284 0
 5710 00d2 1027     		movs	r7, #16
 5711              		.loc 1 3286 0
 5712 00d4 4FEA184B 		lsr	fp, r8, #16
 5713              		.loc 1 3284 0
 5714 00d8 81F83B70 		strb	r7, [r1, #59]
 5715              		.loc 1 3285 0
 5716 00dc 81F84860 		strb	r6, [r1, #72]
 5717 00e0 029F     		ldr	r7, [sp, #8]
 5718              		.loc 1 3286 0
 5719 00e2 059E     		ldr	r6, [sp, #20]
 5720 00e4 4FEA1B22 		lsr	r2, fp, #8
 5721 00e8 C8F30720 		ubfx	r0, r8, #8, #8
ARM GAS  /var/folders/dt/0wfd0knj7gs46m8vwfzktm600000gn/T//cczoWvr4.s 			page 102


 5722              		.loc 1 3285 0
 5723 00ec 4FEA1969 		lsr	r9, r9, #24
 5724              	.LVL758:
 5725              		.loc 1 3283 0
 5726 00f0 2E23     		movs	r3, #46
 5727              	.LVL759:
 5728              		.loc 1 3286 0
 5729 00f2 5FFA8BFB 		uxtb	fp, fp
 5730 00f6 81F84A60 		strb	r6, [r1, #74]
 5731 00fa 8DF81A00 		strb	r0, [sp, #26]
 5732 00fe 81F84B00 		strb	r0, [r1, #75]
 5733 0102 8DF81B20 		strb	r2, [sp, #27]
 5734 0106 81F84520 		strb	r2, [r1, #69]
 5735              		.loc 1 3285 0
 5736 010a CDF81090 		str	r9, [sp, #16]
 5737              		.loc 1 3283 0
 5738 010e 81F83030 		strb	r3, [r1, #48]
 5739              		.loc 1 3285 0
 5740 0112 81F84670 		strb	r7, [r1, #70]
 5741 0116 81F84990 		strb	r9, [r1, #73]
 5742              		.loc 1 3286 0
 5743 011a 81F844B0 		strb	fp, [r1, #68]
 5744              		.loc 1 3287 0
 5745 011e 01F15002 		add	r2, r1, #80
 5746              	.LVL760:
 5747              		.loc 1 3252 0
 5748 0122 2846     		mov	r0, r5
 5749 0124 01F17006 		add	r6, r1, #112
 5750 0128 01E0     		b	.L669
 5751              	.LVL761:
 5752              	.L699:
 5753 012a 10F8013F 		ldrb	r3, [r0, #1]!	@ zero_extendqisi2
 5754              	.L669:
 5755              	.LBB205:
 5756              	.LBB206:
 5757              		.loc 1 533 0
 5758 012e 02F8013B 		strb	r3, [r2], #1
 5759              	.LVL762:
 5760              		.loc 1 532 0
 5761 0132 B242     		cmp	r2, r6
 5762 0134 F9D1     		bne	.L699
 5763              	.LBE206:
 5764              	.LBE205:
 5765              		.loc 1 3288 0
 5766 0136 2E23     		movs	r3, #46
 5767              		.loc 1 3289 0
 5768 0138 0B98     		ldr	r0, [sp, #44]
 5769              		.loc 1 3288 0
 5770 013a 81F85130 		strb	r3, [r1, #81]
 5771              		.loc 1 3289 0
 5772 013e 0378     		ldrb	r3, [r0, #0]	@ zero_extendqisi2
 5773              		.loc 1 3288 0
 5774 0140 0D9A     		ldr	r2, [sp, #52]
 5775              	.LVL763:
 5776              		.loc 1 3289 0
 5777 0142 032B     		cmp	r3, #3
 5778 0144 58D0     		beq	.L670
ARM GAS  /var/folders/dt/0wfd0knj7gs46m8vwfzktm600000gn/T//cczoWvr4.s 			page 103


 5779              	.L697:
 5780 0146 170C     		lsrs	r7, r2, #16
 5781 0148 D6B2     		uxtb	r6, r2
 5782 014a FBB2     		uxtb	r3, r7
 5783 014c C2F30722 		ubfx	r2, r2, #8, #8
 5784              	.LVL764:
 5785 0150 3F0A     		lsrs	r7, r7, #8
 5786              	.L671:
 5787              	.LVL765:
 5788              		.loc 1 3291 0
 5789 0152 81F86A60 		strb	r6, [r1, #106]
 5790 0156 81F86B20 		strb	r2, [r1, #107]
 5791 015a 81F86430 		strb	r3, [r1, #100]
 5792 015e 81F86570 		strb	r7, [r1, #101]
 5793              		.loc 1 3292 0
 5794 0162 8378     		ldrb	r3, [r0, #2]	@ zero_extendqisi2
 5795              	.LVL766:
 5796 0164 23B3     		cbz	r3, .L672
 5797              		.loc 1 3252 0
 5798 0166 013B     		subs	r3, r3, #1
 5799 0168 DFB2     		uxtb	r7, r3
 5800 016a 0137     		adds	r7, r7, #1
 5801 016c 5744     		add	r7, r7, sl
 5802              		.loc 1 3294 0
 5803 016e 0126     		movs	r6, #1
 5804              		.loc 1 3295 0
 5805 0170 4FF00009 		mov	r9, #0
 5806              	.LVL767:
 5807              	.L675:
 5808              		.loc 1 3293 0
 5809 0174 C0F82CA0 		str	sl, [r0, #44]
 5810              		.loc 1 3294 0
 5811 0178 0671     		strb	r6, [r0, #4]
 5812              		.loc 1 3295 0
 5813 017a 0021     		movs	r1, #0
 5814 017c FFF7FEFF 		bl	move_window
 5815              	.LVL768:
 5816              		.loc 1 3293 0
 5817 0180 0AF1010A 		add	sl, sl, #1
 5818              	.LVL769:
 5819              		.loc 1 3296 0
 5820 0184 90B9     		cbnz	r0, .L695
 5821 0186 2B46     		mov	r3, r5
 5822              	.L674:
 5823              	.LBB207:
 5824              	.LBB208:
 5825              		.loc 1 542 0
 5826 0188 03F8019B 		strb	r9, [r3], #1
 5827              	.LVL770:
 5828              		.loc 1 541 0
 5829 018c A342     		cmp	r3, r4
 5830 018e FBD1     		bne	.L674
 5831              	.LVL771:
 5832              	.LBE208:
 5833              	.LBE207:
 5834              		.loc 1 3292 0
 5835 0190 BA45     		cmp	sl, r7
ARM GAS  /var/folders/dt/0wfd0knj7gs46m8vwfzktm600000gn/T//cczoWvr4.s 			page 104


 5836 0192 0DD0     		beq	.L672
 5837 0194 0B98     		ldr	r0, [sp, #44]
 5838 0196 EDE7     		b	.L675
 5839              	.LVL772:
 5840              	.L679:
 5841              		.loc 1 3267 0
 5842 0198 0822     		movs	r2, #8
 5843              	.LVL773:
 5844 019a 42E7     		b	.L686
 5845              	.LVL774:
 5846              	.L680:
 5847              		.loc 1 3273 0
 5848 019c 0722     		movs	r2, #7
 5849              	.LVL775:
 5850              	.L676:
 5851              		.loc 1 3302 0
 5852 019e 0B98     		ldr	r0, [sp, #44]
 5853 01a0 4146     		mov	r1, r8
 5854 01a2 0192     		str	r2, [sp, #4]
 5855 01a4 FFF7FEFF 		bl	remove_chain
 5856              	.LVL776:
 5857 01a8 019A     		ldr	r2, [sp, #4]
 5858 01aa 3AE7     		b	.L686
 5859              	.LVL777:
 5860              	.L695:
 5861 01ac 0246     		mov	r2, r0
 5862 01ae F6E7     		b	.L676
 5863              	.LVL778:
 5864              	.L672:
 5865              		.loc 1 3300 0
 5866 01b0 0BA8     		add	r0, sp, #44
 5867 01b2 FFF7FEFF 		bl	dir_register
 5868              	.LVL779:
 5869              		.loc 1 3301 0
 5870 01b6 0246     		mov	r2, r0
 5871 01b8 0028     		cmp	r0, #0
 5872 01ba F0D1     		bne	.L676
 5873              		.loc 1 3304 0
 5874 01bc 109B     		ldr	r3, [sp, #64]
 5875              	.LVL780:
 5876              		.loc 1 3306 0
 5877 01be 029F     		ldr	r7, [sp, #8]
 5878 01c0 9DF81960 		ldrb	r6, [sp, #25]	@ zero_extendqisi2
 5879 01c4 9F75     		strb	r7, [r3, #22]
 5880 01c6 039F     		ldr	r7, [sp, #12]
 5881 01c8 DE75     		strb	r6, [r3, #23]
 5882 01ca 1F76     		strb	r7, [r3, #24]
 5883 01cc 049E     		ldr	r6, [sp, #16]
 5884              		.loc 1 3307 0
 5885 01ce 059F     		ldr	r7, [sp, #20]
 5886              		.loc 1 3306 0
 5887 01d0 5E76     		strb	r6, [r3, #25]
 5888              		.loc 1 3307 0
 5889 01d2 9F76     		strb	r7, [r3, #26]
 5890 01d4 9DF81A60 		ldrb	r6, [sp, #26]	@ zero_extendqisi2
 5891 01d8 9DF81B70 		ldrb	r7, [sp, #27]	@ zero_extendqisi2
 5892              		.loc 1 3308 0
ARM GAS  /var/folders/dt/0wfd0knj7gs46m8vwfzktm600000gn/T//cczoWvr4.s 			page 105


 5893 01dc 0B9A     		ldr	r2, [sp, #44]
 5894              		.loc 1 3305 0
 5895 01de 1021     		movs	r1, #16
 5896 01e0 D972     		strb	r1, [r3, #11]
 5897              		.loc 1 3307 0
 5898 01e2 DE76     		strb	r6, [r3, #27]
 5899 01e4 83F814B0 		strb	fp, [r3, #20]
 5900 01e8 5F75     		strb	r7, [r3, #21]
 5901              		.loc 1 3308 0
 5902 01ea 0123     		movs	r3, #1
 5903              	.LVL781:
 5904              		.loc 1 3309 0
 5905 01ec 1046     		mov	r0, r2
 5906              	.LVL782:
 5907              		.loc 1 3308 0
 5908 01ee 1371     		strb	r3, [r2, #4]
 5909              		.loc 1 3309 0
 5910 01f0 FFF7FEFF 		bl	sync
 5911              	.LVL783:
 5912 01f4 0246     		mov	r2, r0
 5913              	.LVL784:
 5914 01f6 14E7     		b	.L686
 5915              	.LVL785:
 5916              	.L670:
 5917              		.loc 1 3289 0 discriminator 1
 5918 01f8 436A     		ldr	r3, [r0, #36]
 5919 01fa 9342     		cmp	r3, r2
 5920 01fc A3D1     		bne	.L697
 5921              		.loc 1 3289 0 is_stmt 0
 5922 01fe 0027     		movs	r7, #0
 5923 0200 3B46     		mov	r3, r7
 5924 0202 3A46     		mov	r2, r7
 5925              	.LVL786:
 5926 0204 3E46     		mov	r6, r7
 5927 0206 A4E7     		b	.L671
 5928              		.cfi_endproc
 5929              	.LFE36:
 5930              		.size	f_mkdir, .-f_mkdir
 5931 0208 AFF30080 		.section	.text.f_chmod,"ax",%progbits
 5931      AFF30080 
 5932              		.align	2
 5933              		.p2align 4,,15
 5934              		.global	f_chmod
 5935              		.thumb
 5936              		.thumb_func
 5937              		.type	f_chmod, %function
 5938              	f_chmod:
 5939              	.LFB37:
 5940              		.loc 1 3330 0 is_stmt 1
 5941              		.cfi_startproc
 5942              		@ args = 0, pretend = 0, frame = 48
 5943              		@ frame_needed = 0, uses_anonymous_args = 0
 5944              	.LVL787:
 5945 0000 30B5     		push	{r4, r5, lr}
 5946              	.LCFI40:
 5947              		.cfi_def_cfa_offset 12
 5948              		.cfi_offset 4, -12
ARM GAS  /var/folders/dt/0wfd0knj7gs46m8vwfzktm600000gn/T//cczoWvr4.s 			page 106


 5949              		.cfi_offset 5, -8
 5950              		.cfi_offset 14, -4
 5951 0002 8DB0     		sub	sp, sp, #52
 5952              	.LCFI41:
 5953              		.cfi_def_cfa_offset 64
 5954              		.loc 1 3330 0
 5955 0004 0CAB     		add	r3, sp, #48
 5956 0006 43F82C0D 		str	r0, [r3, #-44]!
 5957 000a 0C46     		mov	r4, r1
 5958 000c 1546     		mov	r5, r2
 5959              		.loc 1 3337 0
 5960 000e 1846     		mov	r0, r3
 5961              	.LVL788:
 5962 0010 05A9     		add	r1, sp, #20
 5963              	.LVL789:
 5964 0012 0122     		movs	r2, #1
 5965              	.LVL790:
 5966 0014 FFF7FEFF 		bl	chk_mounted
 5967              	.LVL791:
 5968              		.loc 1 3338 0
 5969 0018 08B1     		cbz	r0, .L703
 5970              	.LVL792:
 5971              	.L701:
 5972              		.loc 1 3358 0
 5973 001a 0DB0     		add	sp, sp, #52
 5974 001c 30BD     		pop	{r4, r5, pc}
 5975              	.LVL793:
 5976              	.L703:
 5977              		.loc 1 3339 0
 5978 001e 02AB     		add	r3, sp, #8
 5979              		.loc 1 3340 0
 5980 0020 05A8     		add	r0, sp, #20
 5981              	.LVL794:
 5982 0022 0199     		ldr	r1, [sp, #4]
 5983              		.loc 1 3339 0
 5984 0024 0B93     		str	r3, [sp, #44]
 5985              		.loc 1 3340 0
 5986 0026 FFF7FEFF 		bl	follow_path
 5987              	.LVL795:
 5988              		.loc 1 3344 0
 5989 002a 0028     		cmp	r0, #0
 5990 002c F5D1     		bne	.L701
 5991              		.loc 1 3345 0
 5992 002e 0A9B     		ldr	r3, [sp, #40]
 5993              	.LVL796:
 5994              		.loc 1 3347 0
 5995 0030 0620     		movs	r0, #6
 5996              	.LVL797:
 5997              		.loc 1 3346 0
 5998 0032 002B     		cmp	r3, #0
 5999 0034 F1D0     		beq	.L701
 6000              		.loc 1 3350 0
 6001 0036 D97A     		ldrb	r1, [r3, #11]	@ zero_extendqisi2
 6002              		.loc 1 3349 0
 6003 0038 05F02705 		and	r5, r5, #39
 6004              	.LVL798:
 6005              		.loc 1 3350 0
ARM GAS  /var/folders/dt/0wfd0knj7gs46m8vwfzktm600000gn/T//cczoWvr4.s 			page 107


 6006 003c 21EA0501 		bic	r1, r1, r5
 6007 0040 2540     		ands	r5, r5, r4
 6008              	.LVL799:
 6009              		.loc 1 3351 0
 6010 0042 059A     		ldr	r2, [sp, #20]
 6011              		.loc 1 3350 0
 6012 0044 0D43     		orrs	r5, r5, r1
 6013 0046 DD72     		strb	r5, [r3, #11]
 6014              		.loc 1 3351 0
 6015 0048 0123     		movs	r3, #1
 6016              	.LVL800:
 6017              		.loc 1 3352 0
 6018 004a 1046     		mov	r0, r2
 6019              		.loc 1 3351 0
 6020 004c 1371     		strb	r3, [r2, #4]
 6021              		.loc 1 3352 0
 6022 004e FFF7FEFF 		bl	sync
 6023              	.LVL801:
 6024 0052 E2E7     		b	.L701
 6025              		.cfi_endproc
 6026              	.LFE37:
 6027              		.size	f_chmod, .-f_chmod
 6028 0054 AFF30080 		.section	.text.f_utime,"ax",%progbits
 6028      AFF30080 
 6028      AFF30080 
 6029              		.align	2
 6030              		.p2align 4,,15
 6031              		.global	f_utime
 6032              		.thumb
 6033              		.thumb_func
 6034              		.type	f_utime, %function
 6035              	f_utime:
 6036              	.LFB38:
 6037              		.loc 1 3371 0
 6038              		.cfi_startproc
 6039              		@ args = 0, pretend = 0, frame = 48
 6040              		@ frame_needed = 0, uses_anonymous_args = 0
 6041              	.LVL802:
 6042 0000 10B5     		push	{r4, lr}
 6043              	.LCFI42:
 6044              		.cfi_def_cfa_offset 8
 6045              		.cfi_offset 4, -8
 6046              		.cfi_offset 14, -4
 6047 0002 8CB0     		sub	sp, sp, #48
 6048              	.LCFI43:
 6049              		.cfi_def_cfa_offset 56
 6050              		.loc 1 3371 0
 6051 0004 0CAB     		add	r3, sp, #48
 6052 0006 43F82C0D 		str	r0, [r3, #-44]!
 6053 000a 0C46     		mov	r4, r1
 6054              		.loc 1 3378 0
 6055 000c 1846     		mov	r0, r3
 6056              	.LVL803:
 6057 000e 05A9     		add	r1, sp, #20
 6058              	.LVL804:
 6059 0010 0122     		movs	r2, #1
 6060 0012 FFF7FEFF 		bl	chk_mounted
ARM GAS  /var/folders/dt/0wfd0knj7gs46m8vwfzktm600000gn/T//cczoWvr4.s 			page 108


 6061              	.LVL805:
 6062              		.loc 1 3379 0
 6063 0016 08B1     		cbz	r0, .L707
 6064              	.LVL806:
 6065              	.L705:
 6066              		.loc 1 3399 0
 6067 0018 0CB0     		add	sp, sp, #48
 6068 001a 10BD     		pop	{r4, pc}
 6069              	.LVL807:
 6070              	.L707:
 6071              		.loc 1 3380 0
 6072 001c 02AB     		add	r3, sp, #8
 6073              		.loc 1 3381 0
 6074 001e 05A8     		add	r0, sp, #20
 6075              	.LVL808:
 6076 0020 0199     		ldr	r1, [sp, #4]
 6077              		.loc 1 3380 0
 6078 0022 0B93     		str	r3, [sp, #44]
 6079              		.loc 1 3381 0
 6080 0024 FFF7FEFF 		bl	follow_path
 6081              	.LVL809:
 6082              		.loc 1 3385 0
 6083 0028 0028     		cmp	r0, #0
 6084 002a F5D1     		bne	.L705
 6085              		.loc 1 3386 0
 6086 002c 0A9B     		ldr	r3, [sp, #40]
 6087              	.LVL810:
 6088              		.loc 1 3388 0
 6089 002e 0620     		movs	r0, #6
 6090              	.LVL811:
 6091              		.loc 1 3387 0
 6092 0030 002B     		cmp	r3, #0
 6093 0032 F1D0     		beq	.L705
 6094              		.loc 1 3390 0
 6095 0034 E188     		ldrh	r1, [r4, #6]
 6096              		.loc 1 3392 0
 6097 0036 059A     		ldr	r2, [sp, #20]
 6098              		.loc 1 3390 0
 6099 0038 9975     		strb	r1, [r3, #22]
 6100 003a E188     		ldrh	r1, [r4, #6]
 6101              		.loc 1 3393 0
 6102 003c 1046     		mov	r0, r2
 6103              		.loc 1 3390 0
 6104 003e 090A     		lsrs	r1, r1, #8
 6105 0040 D975     		strb	r1, [r3, #23]
 6106              		.loc 1 3391 0
 6107 0042 A188     		ldrh	r1, [r4, #4]
 6108 0044 1976     		strb	r1, [r3, #24]
 6109 0046 A188     		ldrh	r1, [r4, #4]
 6110 0048 090A     		lsrs	r1, r1, #8
 6111 004a 5976     		strb	r1, [r3, #25]
 6112              		.loc 1 3392 0
 6113 004c 0123     		movs	r3, #1
 6114              	.LVL812:
 6115 004e 1371     		strb	r3, [r2, #4]
 6116              		.loc 1 3393 0
 6117 0050 FFF7FEFF 		bl	sync
ARM GAS  /var/folders/dt/0wfd0knj7gs46m8vwfzktm600000gn/T//cczoWvr4.s 			page 109


 6118              	.LVL813:
 6119 0054 E0E7     		b	.L705
 6120              		.cfi_endproc
 6121              	.LFE38:
 6122              		.size	f_utime, .-f_utime
 6123 0056 00BFAFF3 		.section	.text.f_rename,"ax",%progbits
 6123      0080AFF3 
 6123      0080
 6124              		.align	2
 6125              		.p2align 4,,15
 6126              		.global	f_rename
 6127              		.thumb
 6128              		.thumb_func
 6129              		.type	f_rename, %function
 6130              	f_rename:
 6131              	.LFB39:
 6132              		.loc 1 3412 0
 6133              		.cfi_startproc
 6134              		@ args = 0, pretend = 0, frame = 104
 6135              		@ frame_needed = 0, uses_anonymous_args = 0
 6136              	.LVL814:
 6137 0000 70B5     		push	{r4, r5, r6, lr}
 6138              	.LCFI44:
 6139              		.cfi_def_cfa_offset 16
 6140              		.cfi_offset 4, -16
 6141              		.cfi_offset 5, -12
 6142              		.cfi_offset 6, -8
 6143              		.cfi_offset 14, -4
 6144 0002 9AB0     		sub	sp, sp, #104
 6145              	.LCFI45:
 6146              		.cfi_def_cfa_offset 120
 6147              		.loc 1 3412 0
 6148 0004 1AAB     		add	r3, sp, #104
 6149 0006 43F8640D 		str	r0, [r3, #-100]!
 6150              		.loc 1 3420 0
 6151 000a 0CAD     		add	r5, sp, #48
 6152              		.loc 1 3412 0
 6153 000c 0E46     		mov	r6, r1
 6154              		.loc 1 3420 0
 6155 000e 1846     		mov	r0, r3
 6156              	.LVL815:
 6157 0010 2946     		mov	r1, r5
 6158              	.LVL816:
 6159 0012 0122     		movs	r2, #1
 6160 0014 FFF7FEFF 		bl	chk_mounted
 6161              	.LVL817:
 6162              		.loc 1 3421 0
 6163 0018 08B1     		cbz	r0, .L733
 6164              	.LVL818:
 6165              	.L725:
 6166              		.loc 1 3473 0
 6167 001a 1AB0     		add	sp, sp, #104
 6168 001c 70BD     		pop	{r4, r5, r6, pc}
 6169              	.LVL819:
 6170              	.L733:
 6171              		.loc 1 3422 0
 6172 001e 0C9B     		ldr	r3, [sp, #48]
ARM GAS  /var/folders/dt/0wfd0knj7gs46m8vwfzktm600000gn/T//cczoWvr4.s 			page 110


 6173              		.loc 1 3424 0
 6174 0020 2846     		mov	r0, r5
 6175              	.LVL820:
 6176              		.loc 1 3422 0
 6177 0022 1393     		str	r3, [sp, #76]
 6178              		.loc 1 3424 0
 6179 0024 0199     		ldr	r1, [sp, #4]
 6180              		.loc 1 3423 0
 6181 0026 03AB     		add	r3, sp, #12
 6182 0028 1293     		str	r3, [sp, #72]
 6183              		.loc 1 3424 0
 6184 002a FFF7FEFF 		bl	follow_path
 6185              	.LVL821:
 6186              		.loc 1 3430 0
 6187 002e 0028     		cmp	r0, #0
 6188 0030 F3D1     		bne	.L725
 6189              		.loc 1 3431 0
 6190 0032 119A     		ldr	r2, [sp, #68]
 6191              		.loc 1 3432 0
 6192 0034 0420     		movs	r0, #4
 6193              	.LVL822:
 6194              		.loc 1 3431 0
 6195 0036 002A     		cmp	r2, #0
 6196 0038 EFD0     		beq	.L725
 6197              	.LVL823:
 6198              		.loc 1 3408 0
 6199 003a 0A32     		adds	r2, r2, #10
 6200              	.LVL824:
 6201              		.loc 1 3434 0
 6202 003c 06AB     		add	r3, sp, #24
 6203              	.LVL825:
 6204 003e 0DF12D01 		add	r1, sp, #45
 6205              	.LVL826:
 6206              	.L710:
 6207              	.LBB209:
 6208              	.LBB210:
 6209              		.loc 1 533 0
 6210 0042 12F8014F 		ldrb	r4, [r2, #1]!	@ zero_extendqisi2
 6211 0046 03F8014B 		strb	r4, [r3], #1
 6212              	.LVL827:
 6213              		.loc 1 532 0
 6214 004a 8B42     		cmp	r3, r1
 6215 004c F9D1     		bne	.L710
 6216 004e 0023     		movs	r3, #0
 6217              	.LVL828:
 6218 0050 13AC     		add	r4, sp, #76
 6219              	.L711:
 6220              	.LBE210:
 6221              	.LBE209:
 6222              	.LBB211:
 6223              	.LBB212:
 6224              		.loc 1 533 0
 6225 0052 EA5C     		ldrb	r2, [r5, r3]	@ zero_extendqisi2
 6226 0054 E254     		strb	r2, [r4, r3]
 6227              	.LVL829:
 6228 0056 0133     		adds	r3, r3, #1
 6229              		.loc 1 532 0
ARM GAS  /var/folders/dt/0wfd0knj7gs46m8vwfzktm600000gn/T//cczoWvr4.s 			page 111


 6230 0058 1C2B     		cmp	r3, #28
 6231 005a FAD1     		bne	.L711
 6232              	.LBE212:
 6233              	.LBE211:
 6234              		.loc 1 3436 0
 6235 005c 2046     		mov	r0, r4
 6236 005e 3146     		mov	r1, r6
 6237 0060 FFF7FEFF 		bl	follow_path
 6238              	.LVL830:
 6239              		.loc 1 3437 0
 6240 0064 0028     		cmp	r0, #0
 6241 0066 4BD0     		beq	.L720
 6242              		.loc 1 3438 0
 6243 0068 0428     		cmp	r0, #4
 6244 006a D6D1     		bne	.L725
 6245              		.loc 1 3440 0
 6246 006c 2046     		mov	r0, r4
 6247              	.LVL831:
 6248 006e FFF7FEFF 		bl	dir_register
 6249              	.LVL832:
 6250              		.loc 1 3441 0
 6251 0072 0028     		cmp	r0, #0
 6252 0074 D1D1     		bne	.L725
 6253              		.loc 1 3442 0
 6254 0076 189C     		ldr	r4, [sp, #96]
 6255              	.LVL833:
 6256              		.loc 1 3408 0
 6257 0078 0DF11902 		add	r2, sp, #25
 6258              		.loc 1 3443 0
 6259 007c 04F10D03 		add	r3, r4, #13
 6260              	.LVL834:
 6261              		.loc 1 3408 0
 6262 0080 04F12000 		add	r0, r4, #32
 6263              	.LVL835:
 6264              	.L712:
 6265              	.LBB213:
 6266              	.LBB214:
 6267              		.loc 1 533 0
 6268 0084 12F8011F 		ldrb	r1, [r2, #1]!	@ zero_extendqisi2
 6269 0088 03F8011B 		strb	r1, [r3], #1
 6270              	.LVL836:
 6271              		.loc 1 532 0
 6272 008c 8342     		cmp	r3, r0
 6273 008e F9D1     		bne	.L712
 6274              	.LBE214:
 6275              	.LBE213:
 6276              		.loc 1 3444 0
 6277 0090 9DF81830 		ldrb	r3, [sp, #24]	@ zero_extendqisi2
 6278              	.LVL837:
 6279              		.loc 1 3445 0
 6280 0094 0122     		movs	r2, #1
 6281              		.loc 1 3444 0
 6282 0096 43F02003 		orr	r3, r3, #32
 6283 009a E372     		strb	r3, [r4, #11]
 6284              		.loc 1 3445 0
 6285 009c 0C9B     		ldr	r3, [sp, #48]
 6286 009e 1A71     		strb	r2, [r3, #4]
ARM GAS  /var/folders/dt/0wfd0knj7gs46m8vwfzktm600000gn/T//cczoWvr4.s 			page 112


 6287              		.loc 1 3446 0
 6288 00a0 159B     		ldr	r3, [sp, #84]
 6289 00a2 0E9A     		ldr	r2, [sp, #56]
 6290 00a4 9A42     		cmp	r2, r3
 6291 00a6 22D0     		beq	.L717
 6292              		.loc 1 3446 0 is_stmt 0 discriminator 1
 6293 00a8 E37A     		ldrb	r3, [r4, #11]	@ zero_extendqisi2
 6294 00aa 03F01003 		and	r3, r3, #16
 6295 00ae DBB2     		uxtb	r3, r3
 6296 00b0 EBB1     		cbz	r3, .L717
 6297              		.loc 1 3447 0 is_stmt 1
 6298 00b2 E27E     		ldrb	r2, [r4, #27]	@ zero_extendqisi2
 6299 00b4 1398     		ldr	r0, [sp, #76]
 6300              	.LVL838:
 6301 00b6 667D     		ldrb	r6, [r4, #21]	@ zero_extendqisi2
 6302              	.LVL839:
 6303 00b8 217D     		ldrb	r1, [r4, #20]	@ zero_extendqisi2
 6304 00ba A37E     		ldrb	r3, [r4, #26]	@ zero_extendqisi2
 6305 00bc 41EA0621 		orr	r1, r1, r6, lsl #8
 6306 00c0 43EA0223 		orr	r3, r3, r2, lsl #8
 6307              	.LBB215:
 6308              	.LBB216:
 6309              		.loc 1 801 0
 6310 00c4 8269     		ldr	r2, [r0, #24]
 6311              	.LBE216:
 6312              	.LBE215:
 6313              		.loc 1 3447 0
 6314 00c6 43EA0143 		orr	r3, r3, r1, lsl #16
 6315              	.LBB218:
 6316              	.LBB217:
 6317              		.loc 1 800 0
 6318 00ca 023B     		subs	r3, r3, #2
 6319              	.LVL840:
 6320              		.loc 1 801 0
 6321 00cc 023A     		subs	r2, r2, #2
 6322 00ce 9342     		cmp	r3, r2
 6323 00d0 18D2     		bcs	.L722
 6324              		.loc 1 802 0
 6325 00d2 8178     		ldrb	r1, [r0, #2]	@ zero_extendqisi2
 6326 00d4 826A     		ldr	r2, [r0, #40]
 6327 00d6 01FB0321 		mla	r1, r1, r3, r2
 6328              	.LBE217:
 6329              	.LBE218:
 6330              		.loc 1 3448 0
 6331 00da 99B1     		cbz	r1, .L722
 6332              		.loc 1 3451 0
 6333 00dc FFF7FEFF 		bl	move_window
 6334              	.LVL841:
 6335              		.loc 1 3452 0
 6336 00e0 139B     		ldr	r3, [sp, #76]
 6337              	.LVL842:
 6338              		.loc 1 3453 0
 6339 00e2 0028     		cmp	r0, #0
 6340 00e4 99D1     		bne	.L725
 6341              		.loc 1 3453 0 is_stmt 0 discriminator 1
 6342 00e6 93F85120 		ldrb	r2, [r3, #81]	@ zero_extendqisi2
 6343 00ea 2E2A     		cmp	r2, #46
ARM GAS  /var/folders/dt/0wfd0knj7gs46m8vwfzktm600000gn/T//cczoWvr4.s 			page 113


 6344 00ec 0CD0     		beq	.L734
 6345              	.LVL843:
 6346              	.L717:
 6347              		.loc 1 3461 0 is_stmt 1
 6348 00ee 2846     		mov	r0, r5
 6349 00f0 FFF7FEFF 		bl	dir_remove
 6350              	.LVL844:
 6351              		.loc 1 3462 0
 6352 00f4 0028     		cmp	r0, #0
 6353 00f6 90D1     		bne	.L725
 6354              		.loc 1 3463 0
 6355 00f8 0C98     		ldr	r0, [sp, #48]
 6356              	.LVL845:
 6357 00fa FFF7FEFF 		bl	sync
 6358              	.LVL846:
 6359 00fe 8CE7     		b	.L725
 6360              	.LVL847:
 6361              	.L720:
 6362              		.loc 1 3437 0
 6363 0100 0820     		movs	r0, #8
 6364              	.LVL848:
 6365 0102 8AE7     		b	.L725
 6366              	.LVL849:
 6367              	.L722:
 6368              		.loc 1 3449 0
 6369 0104 0220     		movs	r0, #2
 6370              	.LVL850:
 6371 0106 88E7     		b	.L725
 6372              	.LVL851:
 6373              	.L734:
 6374              		.loc 1 3454 0
 6375 0108 1A78     		ldrb	r2, [r3, #0]	@ zero_extendqisi2
 6376 010a 032A     		cmp	r2, #3
 6377 010c 159A     		ldr	r2, [sp, #84]
 6378 010e 0FD0     		beq	.L732
 6379              	.L715:
 6380              		.loc 1 3454 0 is_stmt 0 discriminator 1
 6381 0110 1046     		mov	r0, r2
 6382              	.LVL852:
 6383              	.L716:
 6384              		.loc 1 3455 0 is_stmt 1 discriminator 3
 6385 0112 020C     		lsrs	r2, r0, #16
 6386 0114 110A     		lsrs	r1, r2, #8
 6387 0116 C0F30724 		ubfx	r4, r0, #8, #8
 6388              	.LVL853:
 6389 011a 83F86420 		strb	r2, [r3, #100]
 6390              		.loc 1 3456 0 discriminator 3
 6391 011e 0122     		movs	r2, #1
 6392              		.loc 1 3455 0 discriminator 3
 6393 0120 83F86A00 		strb	r0, [r3, #106]
 6394 0124 83F86B40 		strb	r4, [r3, #107]
 6395 0128 83F86510 		strb	r1, [r3, #101]
 6396              		.loc 1 3456 0 discriminator 3
 6397 012c 1A71     		strb	r2, [r3, #4]
 6398 012e DEE7     		b	.L717
 6399              	.LVL854:
 6400              	.L732:
ARM GAS  /var/folders/dt/0wfd0knj7gs46m8vwfzktm600000gn/T//cczoWvr4.s 			page 114


 6401              		.loc 1 3454 0 discriminator 2
 6402 0130 596A     		ldr	r1, [r3, #36]
 6403 0132 8A42     		cmp	r2, r1
 6404 0134 ECD1     		bne	.L715
 6405 0136 ECE7     		b	.L716
 6406              		.cfi_endproc
 6407              	.LFE39:
 6408              		.size	f_rename, .-f_rename
 6409 0138 AFF30080 		.section	.bss.Fsid,"aw",%nobits
 6409      AFF30080 
 6410              		.align	1
 6411              		.set	.LANCHOR1,. + 0
 6412              		.type	Fsid, %object
 6413              		.size	Fsid, 2
 6414              	Fsid:
 6415 0000 0000     		.space	2
 6416              		.section	.rodata.str1.4,"aMS",%progbits,1
 6417              		.align	2
 6418              	.LC0:
 6419 0000 222A2B2C 		.ascii	"\"*+,:;<=>?[]|\177\000"
 6419      3A3B3C3D 
 6419      3E3F5B5D 
 6419      7C7F00
 6420 000f 00       		.section	.bss.FatFs,"aw",%nobits
 6421              		.align	2
 6422              		.set	.LANCHOR0,. + 0
 6423              		.type	FatFs, %object
 6424              		.size	FatFs, 4
 6425              	FatFs:
 6426 0000 00000000 		.space	4
 6427              		.text
 6428              	.Letext0:
 6429              		.file 2 "../../ext/fatfs/src/integer.h"
 6430              		.file 3 "../../ext/fatfs/src/ff.h"
 6431              		.file 4 "../../ext/fatfs/src/diskio.h"