ARM GAS  /var/folders/dt/0wfd0knj7gs46m8vwfzktm600000gn/T//cczoWvr4.s 			page 1


   1              		.syntax unified
   2              		.cpu cortex-m3
   3              		.fpu softvfp
   4              		.eabi_attribute 20, 1
   5              		.eabi_attribute 21, 1
   6              		.eabi_attribute 23, 3
   7              		.eabi_attribute 24, 1
   8              		.eabi_attribute 25, 1
   9              		.eabi_attribute 26, 1
  10              		.eabi_attribute 30, 2
  11              		.eabi_attribute 34, 1
  12              		.eabi_attribute 18, 4
  13              		.thumb
  14              		.file	"ff.c"
  15              		.text
  16              	.Ltext0:
  17              		.cfi_sections	.debug_frame
  18              		.section	.text.get_fileinfo,"ax",%progbits
  19              		.align	2
  20              		.p2align 4,,15
  21              		.thumb
  22              		.thumb_func
  23              		.type	get_fileinfo, %function
  24              	get_fileinfo:
  25              	.LFB18:
  26              		.file 1 "../../ext/fatfs/src/ff.c"
  27              		.loc 1 1834 0
  28              		.cfi_startproc
  29              		@ args = 0, pretend = 0, frame = 0
  30              		@ frame_needed = 0, uses_anonymous_args = 0
  31              		@ link register save eliminated.
  32              	.LVL0:
  33              		.loc 1 1841 0
  34 0000 0369     		ldr	r3, [r0, #16]
  35              		.loc 1 1834 0
  36 0002 70B4     		push	{r4, r5, r6}
  37              	.LCFI0:
  38              		.cfi_def_cfa_offset 12
  39              		.cfi_offset 4, -12
  40              		.cfi_offset 5, -8
  41              		.cfi_offset 6, -4
  42              		.loc 1 1840 0
  43 0004 01F10904 		add	r4, r1, #9
  44              	.LVL1:
  45              		.loc 1 1841 0
  46 0008 002B     		cmp	r3, #0
  47 000a 39D0     		beq	.L2
  48              		.loc 1 1842 0
  49 000c 4569     		ldr	r5, [r0, #20]
  50              	.LVL2:
  51 000e 2246     		mov	r2, r4
  52              		.loc 1 1844 0
  53 0010 0020     		movs	r0, #0
  54              	.LVL3:
  55              	.L5:
  56              		.loc 1 1845 0
  57 0012 2B5C     		ldrb	r3, [r5, r0]	@ zero_extendqisi2
ARM GAS  /var/folders/dt/0wfd0knj7gs46m8vwfzktm600000gn/T//cczoWvr4.s 			page 2


  58              	.LVL4:
  59              		.loc 1 1844 0
  60 0014 0130     		adds	r0, r0, #1
  61              	.LVL5:
  62              		.loc 1 1846 0
  63 0016 202B     		cmp	r3, #32
  64 0018 1446     		mov	r4, r2
  65 001a 07D0     		beq	.L3
  66              		.loc 1 1847 0
  67 001c 052B     		cmp	r3, #5
  68 001e 08BF     		it	eq
  69 0020 E523     		moveq	r3, #229
  70              	.LVL6:
  71              		.loc 1 1855 0
  72 0022 02F8013B 		strb	r3, [r2], #1
  73              	.LVL7:
  74              		.loc 1 1844 0
  75 0026 0828     		cmp	r0, #8
  76              		.loc 1 1855 0
  77 0028 1446     		mov	r4, r2
  78              	.LVL8:
  79              		.loc 1 1844 0
  80 002a F2D1     		bne	.L5
  81              	.LVL9:
  82              	.L3:
  83              		.loc 1 1857 0
  84 002c 2B7A     		ldrb	r3, [r5, #8]	@ zero_extendqisi2
  85 002e 202B     		cmp	r3, #32
  86 0030 0FD0     		beq	.L6
  87              		.loc 1 1858 0
  88 0032 1346     		mov	r3, r2
  89 0034 2E20     		movs	r0, #46
  90 0036 03F8010B 		strb	r0, [r3], #1
  91              	.LVL10:
  92              		.loc 1 1830 0
  93 003a EE1D     		adds	r6, r5, #7
  94 003c 0432     		adds	r2, r2, #4
  95              	.LVL11:
  96              	.L7:
  97              		.loc 1 1860 0
  98 003e 16F8010F 		ldrb	r0, [r6, #1]!	@ zero_extendqisi2
  99              	.LVL12:
 100 0042 1C46     		mov	r4, r3
 101              		.loc 1 1861 0
 102 0044 2028     		cmp	r0, #32
 103 0046 04D0     		beq	.L6
 104              		.loc 1 1869 0
 105 0048 03F8010B 		strb	r0, [r3], #1
 106              	.LVL13:
 107              		.loc 1 1859 0
 108 004c 9342     		cmp	r3, r2
 109              		.loc 1 1869 0
 110 004e 1C46     		mov	r4, r3
 111              	.LVL14:
 112              		.loc 1 1859 0
 113 0050 F5D1     		bne	.L7
 114              	.LVL15:
ARM GAS  /var/folders/dt/0wfd0knj7gs46m8vwfzktm600000gn/T//cczoWvr4.s 			page 3


 115              	.L6:
 116              		.loc 1 1872 0
 117 0052 EB7A     		ldrb	r3, [r5, #11]	@ zero_extendqisi2
 118 0054 0B72     		strb	r3, [r1, #8]
 119              		.loc 1 1873 0
 120 0056 AB7F     		ldrb	r3, [r5, #30]	@ zero_extendqisi2
 121 0058 EE7F     		ldrb	r6, [r5, #31]	@ zero_extendqisi2
 122 005a 287F     		ldrb	r0, [r5, #28]	@ zero_extendqisi2
 123 005c 1B04     		lsls	r3, r3, #16
 124 005e 6A7F     		ldrb	r2, [r5, #29]	@ zero_extendqisi2
 125 0060 43EA0663 		orr	r3, r3, r6, lsl #24
 126 0064 0343     		orrs	r3, r3, r0
 127 0066 43EA0223 		orr	r3, r3, r2, lsl #8
 128 006a 0B60     		str	r3, [r1, #0]
 129              		.loc 1 1874 0
 130 006c 6A7E     		ldrb	r2, [r5, #25]	@ zero_extendqisi2
 131 006e 2B7E     		ldrb	r3, [r5, #24]	@ zero_extendqisi2
 132 0070 43EA0223 		orr	r3, r3, r2, lsl #8
 133 0074 8B80     		strh	r3, [r1, #4]	@ movhi
 134              		.loc 1 1875 0
 135 0076 EA7D     		ldrb	r2, [r5, #23]	@ zero_extendqisi2
 136 0078 AB7D     		ldrb	r3, [r5, #22]	@ zero_extendqisi2
 137 007a 43EA0223 		orr	r3, r3, r2, lsl #8
 138 007e CB80     		strh	r3, [r1, #6]	@ movhi
 139              	.LVL16:
 140              	.L2:
 141              		.loc 1 1877 0
 142 0080 0023     		movs	r3, #0
 143 0082 2370     		strb	r3, [r4, #0]
 144              		.loc 1 1901 0
 145 0084 70BC     		pop	{r4, r5, r6}
 146 0086 7047     		bx	lr
 147              		.cfi_endproc
 148              	.LFE18:
 149              		.size	get_fileinfo, .-get_fileinfo
 150 0088 AFF30080 		.section	.text.move_window,"ax",%progbits
 150      AFF30080 
 151              		.align	2
 152              		.p2align 4,,15
 153              		.thumb
 154              		.thumb_func
 155              		.type	move_window, %function
 156              	move_window:
 157              	.LFB4:
 158              		.loc 1 717 0
 159              		.cfi_startproc
 160              		@ args = 0, pretend = 0, frame = 0
 161              		@ frame_needed = 0, uses_anonymous_args = 0
 162              	.LVL17:
 163 0000 2DE9F041 		push	{r4, r5, r6, r7, r8, lr}
 164              	.LCFI1:
 165              		.cfi_def_cfa_offset 24
 166              		.cfi_offset 4, -24
 167              		.cfi_offset 5, -20
 168              		.cfi_offset 6, -16
 169              		.cfi_offset 7, -12
 170              		.cfi_offset 8, -8
ARM GAS  /var/folders/dt/0wfd0knj7gs46m8vwfzktm600000gn/T//cczoWvr4.s 			page 4


 171              		.cfi_offset 14, -4
 172              		.loc 1 721 0
 173 0004 C56A     		ldr	r5, [r0, #44]
 174              	.LVL18:
 175              		.loc 1 717 0
 176 0006 0446     		mov	r4, r0
 177              		.loc 1 722 0
 178 0008 8D42     		cmp	r5, r1
 179              		.loc 1 717 0
 180 000a 0E46     		mov	r6, r1
 181              		.loc 1 722 0
 182 000c 02D0     		beq	.L29
 183              		.loc 1 724 0
 184 000e 0379     		ldrb	r3, [r0, #4]	@ zero_extendqisi2
 185 0010 73B9     		cbnz	r3, .L27
 186              	.LVL19:
 187              	.L31:
 188              		.loc 1 737 0
 189 0012 16B9     		cbnz	r6, .L39
 190              	.L29:
 191              		.loc 1 744 0
 192 0014 0020     		movs	r0, #0
 193 0016 BDE8F081 		pop	{r4, r5, r6, r7, r8, pc}
 194              	.L39:
 195              		.loc 1 738 0
 196 001a 6078     		ldrb	r0, [r4, #1]	@ zero_extendqisi2
 197 001c 04F13001 		add	r1, r4, #48
 198 0020 3246     		mov	r2, r6
 199 0022 0123     		movs	r3, #1
 200 0024 FFF7FEFF 		bl	disk_read
 201              	.LVL20:
 202 0028 20BB     		cbnz	r0, .L33
 203              		.loc 1 740 0
 204 002a E662     		str	r6, [r4, #44]
 205              		.loc 1 745 0
 206 002c BDE8F081 		pop	{r4, r5, r6, r7, r8, pc}
 207              	.LVL21:
 208              	.L27:
 209              		.loc 1 725 0
 210 0030 00F13008 		add	r8, r0, #48
 211 0034 4146     		mov	r1, r8
 212              	.LVL22:
 213 0036 4078     		ldrb	r0, [r0, #1]	@ zero_extendqisi2
 214              	.LVL23:
 215 0038 2A46     		mov	r2, r5
 216 003a 0123     		movs	r3, #1
 217 003c FFF7FEFF 		bl	disk_write
 218              	.LVL24:
 219 0040 C0B9     		cbnz	r0, .L33
 220              		.loc 1 728 0
 221 0042 E369     		ldr	r3, [r4, #28]
 222 0044 226A     		ldr	r2, [r4, #32]
 223              		.loc 1 727 0
 224 0046 2071     		strb	r0, [r4, #4]
 225              		.loc 1 728 0
 226 0048 9A18     		adds	r2, r3, r2
 227 004a 9542     		cmp	r5, r2
ARM GAS  /var/folders/dt/0wfd0knj7gs46m8vwfzktm600000gn/T//cczoWvr4.s 			page 5


 228 004c E1D2     		bcs	.L31
 229              	.LBB62:
 230              		.loc 1 730 0
 231 004e E778     		ldrb	r7, [r4, #3]	@ zero_extendqisi2
 232              	.LVL25:
 233 0050 012F     		cmp	r7, #1
 234 0052 01D8     		bhi	.L37
 235 0054 DDE7     		b	.L31
 236              	.LVL26:
 237              	.L40:
 238 0056 E369     		ldr	r3, [r4, #28]
 239              	.LVL27:
 240              	.L37:
 241              		.loc 1 731 0 discriminator 2
 242 0058 ED18     		adds	r5, r5, r3
 243              	.LVL28:
 244              		.loc 1 730 0 discriminator 2
 245 005a 013F     		subs	r7, r7, #1
 246              		.loc 1 732 0 discriminator 2
 247 005c 0123     		movs	r3, #1
 248 005e 6078     		ldrb	r0, [r4, #1]	@ zero_extendqisi2
 249 0060 4146     		mov	r1, r8
 250 0062 2A46     		mov	r2, r5
 251              		.loc 1 730 0 discriminator 2
 252 0064 FFB2     		uxtb	r7, r7
 253              		.loc 1 732 0 discriminator 2
 254 0066 FFF7FEFF 		bl	disk_write
 255              	.LVL29:
 256              		.loc 1 730 0 discriminator 2
 257 006a 012F     		cmp	r7, #1
 258 006c F3D1     		bne	.L40
 259              	.LBE62:
 260              		.loc 1 737 0
 261 006e 002E     		cmp	r6, #0
 262 0070 D0D0     		beq	.L29
 263 0072 D2E7     		b	.L39
 264              	.LVL30:
 265              	.L33:
 266              		.loc 1 726 0
 267 0074 0120     		movs	r0, #1
 268 0076 BDE8F081 		pop	{r4, r5, r6, r7, r8, pc}
 269              		.cfi_endproc
 270              	.LFE4:
 271              		.size	move_window, .-move_window
 272 007a 00BFAFF3 		.section	.text.sync,"ax",%progbits
 272      0080
 273              		.align	2
 274              		.p2align 4,,15
 275              		.thumb
 276              		.thumb_func
 277              		.type	sync, %function
 278              	sync:
 279              	.LFB5:
 280              		.loc 1 758 0
 281              		.cfi_startproc
 282              		@ args = 0, pretend = 0, frame = 8
 283              		@ frame_needed = 0, uses_anonymous_args = 0
ARM GAS  /var/folders/dt/0wfd0knj7gs46m8vwfzktm600000gn/T//cczoWvr4.s 			page 6


 284              	.LVL31:
 285 0000 2DE9F04F 		push	{r4, r5, r6, r7, r8, r9, sl, fp, lr}
 286              	.LCFI2:
 287              		.cfi_def_cfa_offset 36
 288              		.cfi_offset 4, -36
 289              		.cfi_offset 5, -32
 290              		.cfi_offset 6, -28
 291              		.cfi_offset 7, -24
 292              		.cfi_offset 8, -20
 293              		.cfi_offset 9, -16
 294              		.cfi_offset 10, -12
 295              		.cfi_offset 11, -8
 296              		.cfi_offset 14, -4
 297              		.loc 1 762 0
 298 0004 0021     		movs	r1, #0
 299              		.loc 1 758 0
 300 0006 83B0     		sub	sp, sp, #12
 301              	.LCFI3:
 302              		.cfi_def_cfa_offset 48
 303              		.loc 1 758 0
 304 0008 0446     		mov	r4, r0
 305              		.loc 1 762 0
 306 000a FFF7FEFF 		bl	move_window
 307              	.LVL32:
 308 000e 0346     		mov	r3, r0
 309              	.LVL33:
 310              		.loc 1 763 0
 311 0010 50B9     		cbnz	r0, .L42
 312              		.loc 1 765 0
 313 0012 2378     		ldrb	r3, [r4, #0]	@ zero_extendqisi2
 314 0014 032B     		cmp	r3, #3
 315 0016 0BD0     		beq	.L49
 316              	.LVL34:
 317              	.L43:
 318              		.loc 1 779 0
 319 0018 0021     		movs	r1, #0
 320 001a 6078     		ldrb	r0, [r4, #1]	@ zero_extendqisi2
 321 001c 0A46     		mov	r2, r1
 322 001e FFF7FEFF 		bl	disk_ioctl
 323              	.LVL35:
 324 0022 031C     		adds	r3, r0, #0
 325 0024 18BF     		it	ne
 326 0026 0123     		movne	r3, #1
 327              	.L42:
 328              	.LVL36:
 329              		.loc 1 784 0
 330 0028 1846     		mov	r0, r3
 331 002a 03B0     		add	sp, sp, #12
 332 002c BDE8F08F 		pop	{r4, r5, r6, r7, r8, r9, sl, fp, pc}
 333              	.LVL37:
 334              	.L49:
 335              		.loc 1 765 0 discriminator 1
 336 0030 6379     		ldrb	r3, [r4, #5]	@ zero_extendqisi2
 337 0032 002B     		cmp	r3, #0
 338 0034 F0D0     		beq	.L43
 339              		.loc 1 768 0
 340 0036 04F13001 		add	r1, r4, #48
ARM GAS  /var/folders/dt/0wfd0knj7gs46m8vwfzktm600000gn/T//cczoWvr4.s 			page 7


 341              	.LVL38:
 342              		.loc 1 766 0
 343 003a E062     		str	r0, [r4, #44]
 344              		.loc 1 755 0
 345 003c 04F50C72 		add	r2, r4, #560
 346              		.loc 1 539 0
 347 0040 0B46     		mov	r3, r1
 348              	.LVL39:
 349              	.L44:
 350              	.LBB63:
 351              	.LBB64:
 352              		.loc 1 542 0
 353 0042 03F8010B 		strb	r0, [r3], #1
 354              	.LVL40:
 355              		.loc 1 541 0
 356 0046 9342     		cmp	r3, r2
 357 0048 FBD1     		bne	.L44
 358              	.LBE64:
 359              	.LBE63:
 360              		.loc 1 773 0
 361 004a E368     		ldr	r3, [r4, #12]
 362              	.LVL41:
 363              		.loc 1 772 0
 364 004c 2269     		ldr	r2, [r4, #16]
 365              		.loc 1 773 0
 366 004e 4FEA136B 		lsr	fp, r3, #24
 367 0052 CDF804B0 		str	fp, [sp, #4]
 368 0056 C3F3072C 		ubfx	ip, r3, #8, #8
 369 005a 4FEA134E 		lsr	lr, r3, #16
 370              		.loc 1 769 0
 371 005e 4FF0550B 		mov	fp, #85
 372              		.loc 1 773 0
 373 0062 84F81C32 		strb	r3, [r4, #540]
 374 0066 019B     		ldr	r3, [sp, #4]
 375              		.loc 1 770 0
 376 0068 6120     		movs	r0, #97
 377              	.LVL42:
 378 006a 5227     		movs	r7, #82
 379 006c 4125     		movs	r5, #65
 380              		.loc 1 771 0
 381 006e 7226     		movs	r6, #114
 382              		.loc 1 772 0
 383 0070 C2F3072A 		ubfx	sl, r2, #8, #8
 384 0074 4FEA1249 		lsr	r9, r2, #16
 385 0078 4FEA1268 		lsr	r8, r2, #24
 386              		.loc 1 769 0
 387 007c 84F82EB2 		strb	fp, [r4, #558]
 388 0080 4FF0AA0B 		mov	fp, #170
 389              		.loc 1 770 0
 390 0084 84F83200 		strb	r0, [r4, #50]
 391              		.loc 1 771 0
 392 0088 84F81702 		strb	r0, [r4, #535]
 393              		.loc 1 772 0
 394 008c 84F81822 		strb	r2, [r4, #536]
 395              		.loc 1 773 0
 396 0090 84F81F32 		strb	r3, [r4, #543]
 397              		.loc 1 769 0
ARM GAS  /var/folders/dt/0wfd0knj7gs46m8vwfzktm600000gn/T//cczoWvr4.s 			page 8


 398 0094 84F82FB2 		strb	fp, [r4, #559]
 399              		.loc 1 775 0
 400 0098 0123     		movs	r3, #1
 401              		.loc 1 770 0
 402 009a 84F83070 		strb	r7, [r4, #48]
 403 009e 84F83170 		strb	r7, [r4, #49]
 404 00a2 84F83350 		strb	r5, [r4, #51]
 405              		.loc 1 771 0
 406 00a6 84F81462 		strb	r6, [r4, #532]
 407 00aa 84F81562 		strb	r6, [r4, #533]
 408 00ae 84F81652 		strb	r5, [r4, #534]
 409              		.loc 1 772 0
 410 00b2 84F819A2 		strb	sl, [r4, #537]
 411 00b6 84F81A92 		strb	r9, [r4, #538]
 412 00ba 84F81B82 		strb	r8, [r4, #539]
 413              		.loc 1 773 0
 414 00be 84F81DC2 		strb	ip, [r4, #541]
 415 00c2 84F81EE2 		strb	lr, [r4, #542]
 416              		.loc 1 775 0
 417 00c6 6078     		ldrb	r0, [r4, #1]	@ zero_extendqisi2
 418 00c8 6269     		ldr	r2, [r4, #20]
 419 00ca FFF7FEFF 		bl	disk_write
 420              	.LVL43:
 421              		.loc 1 776 0
 422 00ce 0023     		movs	r3, #0
 423 00d0 6371     		strb	r3, [r4, #5]
 424 00d2 A1E7     		b	.L43
 425              		.cfi_endproc
 426              	.LFE5:
 427              		.size	sync, .-sync
 428 00d4 AFF30080 		.section	.text.validate,"ax",%progbits
 428      AFF30080 
 428      AFF30080 
 429              		.align	2
 430              		.p2align 4,,15
 431              		.thumb
 432              		.thumb_func
 433              		.type	validate, %function
 434              	validate:
 435              	.LFB22:
 436              		.loc 1 2170 0
 437              		.cfi_startproc
 438              		@ args = 0, pretend = 0, frame = 0
 439              		@ frame_needed = 0, uses_anonymous_args = 0
 440              	.LVL44:
 441 0000 08B5     		push	{r3, lr}
 442              	.LCFI4:
 443              		.cfi_def_cfa_offset 8
 444              		.cfi_offset 3, -8
 445              		.cfi_offset 14, -4
 446              		.loc 1 2171 0
 447 0002 08B1     		cbz	r0, .L55
 448              		.loc 1 2171 0 is_stmt 0 discriminator 1
 449 0004 0378     		ldrb	r3, [r0, #0]	@ zero_extendqisi2
 450 0006 0BB9     		cbnz	r3, .L57
 451              	.L55:
 452              		.loc 1 2172 0 is_stmt 1
ARM GAS  /var/folders/dt/0wfd0knj7gs46m8vwfzktm600000gn/T//cczoWvr4.s 			page 9


 453 0008 0920     		movs	r0, #9
 454              	.LVL45:
 455              		.loc 1 2180 0
 456 000a 08BD     		pop	{r3, pc}
 457              	.LVL46:
 458              	.L57:
 459              		.loc 1 2171 0 discriminator 1
 460 000c C388     		ldrh	r3, [r0, #6]
 461 000e 8B42     		cmp	r3, r1
 462 0010 FAD1     		bne	.L55
 463              	.LVL47:
 464              	.LBB67:
 465              	.LBB68:
 466              		.loc 1 2176 0
 467 0012 4078     		ldrb	r0, [r0, #1]	@ zero_extendqisi2
 468              	.LVL48:
 469 0014 FFF7FEFF 		bl	disk_status
 470              	.LVL49:
 471 0018 10F0010F 		tst	r0, #1
 472              		.loc 1 2177 0
 473 001c 0CBF     		ite	eq
 474 001e 0020     		moveq	r0, #0
 475 0020 0320     		movne	r0, #3
 476 0022 08BD     		pop	{r3, pc}
 477              	.LBE68:
 478              	.LBE67:
 479              		.cfi_endproc
 480              	.LFE22:
 481              		.size	validate, .-validate
 482 0024 AFF30080 		.section	.text.check_fs,"ax",%progbits
 482      AFF30080 
 482      AFF30080 
 483              		.align	2
 484              		.p2align 4,,15
 485              		.thumb
 486              		.thumb_func
 487              		.type	check_fs, %function
 488              	check_fs:
 489              	.LFB20:
 490              		.loc 1 1979 0
 491              		.cfi_startproc
 492              		@ args = 0, pretend = 0, frame = 0
 493              		@ frame_needed = 0, uses_anonymous_args = 0
 494              	.LVL50:
 495 0000 10B5     		push	{r4, lr}
 496              	.LCFI5:
 497              		.cfi_def_cfa_offset 8
 498              		.cfi_offset 4, -8
 499              		.cfi_offset 14, -4
 500              		.loc 1 1979 0
 501 0002 0446     		mov	r4, r0
 502 0004 0A46     		mov	r2, r1
 503              		.loc 1 1980 0
 504 0006 4078     		ldrb	r0, [r0, #1]	@ zero_extendqisi2
 505              	.LVL51:
 506 0008 04F13001 		add	r1, r4, #48
 507              	.LVL52:
ARM GAS  /var/folders/dt/0wfd0knj7gs46m8vwfzktm600000gn/T//cczoWvr4.s 			page 10


 508 000c 0123     		movs	r3, #1
 509 000e FFF7FEFF 		bl	disk_read
 510              	.LVL53:
 511 0012 08B1     		cbz	r0, .L63
 512              		.loc 1 1981 0
 513 0014 0320     		movs	r0, #3
 514 0016 10BD     		pop	{r4, pc}
 515              	.L63:
 516              		.loc 1 1982 0
 517 0018 94F82F12 		ldrb	r1, [r4, #559]	@ zero_extendqisi2
 518 001c 94F82E22 		ldrb	r2, [r4, #558]	@ zero_extendqisi2
 519 0020 4AF65523 		movw	r3, #43605
 520 0024 42EA0122 		orr	r2, r2, r1, lsl #8
 521 0028 12B2     		sxth	r2, r2
 522 002a CFF6FF73 		movt	r3, 65535
 523 002e 9A42     		cmp	r2, r3
 524 0030 01D0     		beq	.L64
 525              		.loc 1 1983 0
 526 0032 0220     		movs	r0, #2
 527              	.L59:
 528              		.loc 1 1991 0
 529 0034 10BD     		pop	{r4, pc}
 530              	.L64:
 531              		.loc 1 1985 0
 532 0036 94F86830 		ldrb	r3, [r4, #104]	@ zero_extendqisi2
 533 003a 94F86920 		ldrb	r2, [r4, #105]	@ zero_extendqisi2
 534 003e 1B04     		lsls	r3, r3, #16
 535 0040 94F86610 		ldrb	r1, [r4, #102]	@ zero_extendqisi2
 536 0044 43EA0263 		orr	r3, r3, r2, lsl #24
 537 0048 94F86720 		ldrb	r2, [r4, #103]	@ zero_extendqisi2
 538 004c 0B43     		orrs	r3, r3, r1
 539 004e 43EA0222 		orr	r2, r3, r2, lsl #8
 540 0052 44F24613 		movw	r3, #16710
 541 0056 22F07F42 		bic	r2, r2, #-16777216
 542 005a C0F25403 		movt	r3, 84
 543 005e 9A42     		cmp	r2, r3
 544 0060 E8D0     		beq	.L59
 545              	.LVL54:
 546              	.LBB71:
 547              	.LBB72:
 548              		.loc 1 1987 0
 549 0062 94F88420 		ldrb	r2, [r4, #132]	@ zero_extendqisi2
 550 0066 94F88500 		ldrb	r0, [r4, #133]	@ zero_extendqisi2
 551 006a 1204     		lsls	r2, r2, #16
 552 006c 94F88210 		ldrb	r1, [r4, #130]	@ zero_extendqisi2
 553 0070 42EA0062 		orr	r2, r2, r0, lsl #24
 554 0074 94F88300 		ldrb	r0, [r4, #131]	@ zero_extendqisi2
 555 0078 0A43     		orrs	r2, r2, r1
 556 007a 42EA0020 		orr	r0, r2, r0, lsl #8
 557 007e 20F07F40 		bic	r0, r0, #-16777216
 558              	.LBE72:
 559              	.LBE71:
 560              		.loc 1 1988 0
 561 0082 C01A     		subs	r0, r0, r3
 562 0084 18BF     		it	ne
 563 0086 0120     		movne	r0, #1
 564 0088 10BD     		pop	{r4, pc}
ARM GAS  /var/folders/dt/0wfd0knj7gs46m8vwfzktm600000gn/T//cczoWvr4.s 			page 11


 565              		.cfi_endproc
 566              	.LFE20:
 567              		.size	check_fs, .-check_fs
 568 008a 00BFAFF3 		.section	.text.chk_mounted,"ax",%progbits
 568      0080
 569              		.align	2
 570              		.p2align 4,,15
 571              		.thumb
 572              		.thumb_func
 573              		.type	chk_mounted, %function
 574              	chk_mounted:
 575              	.LFB21:
 576              		.loc 1 2006 0
 577              		.cfi_startproc
 578              		@ args = 0, pretend = 0, frame = 0
 579              		@ frame_needed = 0, uses_anonymous_args = 0
 580              	.LVL55:
 581 0000 F8B5     		push	{r3, r4, r5, r6, r7, lr}
 582              	.LCFI6:
 583              		.cfi_def_cfa_offset 24
 584              		.cfi_offset 3, -24
 585              		.cfi_offset 4, -20
 586              		.cfi_offset 5, -16
 587              		.cfi_offset 6, -12
 588              		.cfi_offset 7, -8
 589              		.cfi_offset 14, -4
 590              		.loc 1 2012 0
 591 0002 0368     		ldr	r3, [r0, #0]
 592              	.LVL56:
 593              		.loc 1 2006 0
 594 0004 1546     		mov	r5, r2
 595              		.loc 1 2016 0
 596 0006 1C78     		ldrb	r4, [r3, #0]	@ zero_extendqisi2
 597 0008 303C     		subs	r4, r4, #48
 598              	.LVL57:
 599              		.loc 1 2017 0
 600 000a 092C     		cmp	r4, #9
 601 000c 02D8     		bhi	.L69
 602              		.loc 1 2017 0 is_stmt 0 discriminator 1
 603 000e 5A78     		ldrb	r2, [r3, #1]	@ zero_extendqisi2
 604              	.LVL58:
 605 0010 3A2A     		cmp	r2, #58
 606 0012 16D0     		beq	.L117
 607              	.L69:
 608              		.loc 1 2030 0 is_stmt 1
 609 0014 B94B     		ldr	r3, .L124
 610              	.LVL59:
 611 0016 1C68     		ldr	r4, [r3, #0]
 612              	.LVL60:
 613 0018 0C60     		str	r4, [r1, #0]
 614              		.loc 1 2031 0
 615 001a 84B1     		cbz	r4, .L118
 616              		.loc 1 2035 0
 617 001c 2378     		ldrb	r3, [r4, #0]	@ zero_extendqisi2
 618 001e B3B1     		cbz	r3, .L70
 619              		.loc 1 2036 0
 620 0020 6078     		ldrb	r0, [r4, #1]	@ zero_extendqisi2
ARM GAS  /var/folders/dt/0wfd0knj7gs46m8vwfzktm600000gn/T//cczoWvr4.s 			page 12


 621              	.LVL61:
 622 0022 FFF7FEFF 		bl	disk_status
 623              	.LVL62:
 624              		.loc 1 2037 0
 625 0026 C207     		lsls	r2, r0, #31
 626 0028 11D4     		bmi	.L70
 627              		.loc 1 2039 0
 628 002a 002D     		cmp	r5, #0
 629 002c 1FD0     		beq	.L88
 630              		.loc 1 2039 0 is_stmt 0 discriminator 1
 631 002e 00F00400 		and	r0, r0, #4
 632              	.LVL63:
 633 0032 C0B2     		uxtb	r0, r0
 634              		.loc 1 2040 0 is_stmt 1 discriminator 1
 635 0034 0028     		cmp	r0, #0
 636 0036 14BF     		ite	ne
 637 0038 0A20     		movne	r0, #10
 638 003a 0020     		moveq	r0, #0
 639 003c F8BD     		pop	{r3, r4, r5, r6, r7, pc}
 640              	.LVL64:
 641              	.L118:
 642              		.loc 1 2031 0
 643 003e 0C20     		movs	r0, #12
 644              	.LVL65:
 645 0040 F8BD     		pop	{r3, r4, r5, r6, r7, pc}
 646              	.LVL66:
 647              	.L117:
 648              		.loc 1 2018 0
 649 0042 0233     		adds	r3, r3, #2
 650              	.LVL67:
 651 0044 0360     		str	r3, [r0, #0]
 652              		.loc 1 2028 0
 653 0046 002C     		cmp	r4, #0
 654 0048 E4D0     		beq	.L69
 655              		.loc 1 2029 0
 656 004a 0B20     		movs	r0, #11
 657              	.LVL68:
 658 004c F8BD     		pop	{r3, r4, r5, r6, r7, pc}
 659              	.LVL69:
 660              	.L70:
 661              		.loc 1 2049 0
 662 004e 0020     		movs	r0, #0
 663 0050 2070     		strb	r0, [r4, #0]
 664              		.loc 1 2050 0
 665 0052 6070     		strb	r0, [r4, #1]
 666              		.loc 1 2051 0
 667 0054 FFF7FEFF 		bl	disk_initialize
 668              	.LVL70:
 669              		.loc 1 2052 0
 670 0058 C307     		lsls	r3, r0, #31
 671 005a 01D5     		bpl	.L119
 672              		.loc 1 2053 0
 673 005c 0320     		movs	r0, #3
 674              	.LVL71:
 675 005e F8BD     		pop	{r3, r4, r5, r6, r7, pc}
 676              	.LVL72:
 677              	.L119:
ARM GAS  /var/folders/dt/0wfd0knj7gs46m8vwfzktm600000gn/T//cczoWvr4.s 			page 13


 678              		.loc 1 2059 0
 679 0060 3DB1     		cbz	r5, .L71
 680              		.loc 1 2059 0 is_stmt 0 discriminator 1
 681 0062 00F00400 		and	r0, r0, #4
 682              	.LVL73:
 683 0066 C0B2     		uxtb	r0, r0
 684 0068 18B1     		cbz	r0, .L71
 685              		.loc 1 2060 0 is_stmt 1
 686 006a 0A20     		movs	r0, #10
 687 006c F8BD     		pop	{r3, r4, r5, r6, r7, pc}
 688              	.LVL74:
 689              	.L88:
 690              		.loc 1 2042 0
 691 006e 2846     		mov	r0, r5
 692              	.LVL75:
 693 0070 F8BD     		pop	{r3, r4, r5, r6, r7, pc}
 694              	.L71:
 695              	.LVL76:
 696              		.loc 1 2063 0
 697 0072 0021     		movs	r1, #0
 698 0074 2046     		mov	r0, r4
 699 0076 FFF7FEFF 		bl	check_fs
 700              	.LVL77:
 701              		.loc 1 2064 0
 702 007a 0128     		cmp	r0, #1
 703 007c 06D0     		beq	.L120
 704              		.loc 1 2063 0
 705 007e 0025     		movs	r5, #0
 706              	.LVL78:
 707              	.L72:
 708              		.loc 1 2072 0
 709 0080 0328     		cmp	r0, #3
 710 0082 00F0B480 		beq	.L93
 711              		.loc 1 2073 0
 712 0086 C0B1     		cbz	r0, .L121
 713              	.LVL79:
 714              	.L74:
 715 0088 0D20     		movs	r0, #13
 716 008a F8BD     		pop	{r3, r4, r5, r6, r7, pc}
 717              	.LVL80:
 718              	.L120:
 719              		.loc 1 2067 0
 720 008c 94F8F231 		ldrb	r3, [r4, #498]	@ zero_extendqisi2
 721 0090 002B     		cmp	r3, #0
 722 0092 F9D0     		beq	.L74
 723              		.loc 1 2068 0
 724 0094 94F8F821 		ldrb	r2, [r4, #504]	@ zero_extendqisi2
 725 0098 94F8F911 		ldrb	r1, [r4, #505]	@ zero_extendqisi2
 726 009c 1204     		lsls	r2, r2, #16
 727 009e 94F8F631 		ldrb	r3, [r4, #502]	@ zero_extendqisi2
 728 00a2 42EA0162 		orr	r2, r2, r1, lsl #24
 729 00a6 94F8F751 		ldrb	r5, [r4, #503]	@ zero_extendqisi2
 730 00aa 1343     		orrs	r3, r3, r2
 731 00ac 43EA0525 		orr	r5, r3, r5, lsl #8
 732              	.LVL81:
 733              		.loc 1 2069 0
 734 00b0 2046     		mov	r0, r4
ARM GAS  /var/folders/dt/0wfd0knj7gs46m8vwfzktm600000gn/T//cczoWvr4.s 			page 14


 735              	.LVL82:
 736 00b2 2946     		mov	r1, r5
 737 00b4 FFF7FEFF 		bl	check_fs
 738              	.LVL83:
 739 00b8 E2E7     		b	.L72
 740              	.LVL84:
 741              	.L121:
 742              		.loc 1 2077 0
 743 00ba 94F83C20 		ldrb	r2, [r4, #60]	@ zero_extendqisi2
 744 00be 94F83B30 		ldrb	r3, [r4, #59]	@ zero_extendqisi2
 745 00c2 43EA0223 		orr	r3, r3, r2, lsl #8
 746 00c6 B3F5007F 		cmp	r3, #512
 747 00ca DDD1     		bne	.L74
 748              		.loc 1 2080 0
 749 00cc 94F84720 		ldrb	r2, [r4, #71]	@ zero_extendqisi2
 750 00d0 94F84630 		ldrb	r3, [r4, #70]	@ zero_extendqisi2
 751              	.LVL85:
 752              		.loc 1 2081 0
 753 00d4 53EA0222 		orrs	r2, r3, r2, lsl #8
 754              	.LVL86:
 755 00d8 0DD1     		bne	.L75
 756              		.loc 1 2081 0 is_stmt 0 discriminator 1
 757 00da 94F85620 		ldrb	r2, [r4, #86]	@ zero_extendqisi2
 758              	.LVL87:
 759 00de 94F85710 		ldrb	r1, [r4, #87]	@ zero_extendqisi2
 760 00e2 1204     		lsls	r2, r2, #16
 761 00e4 94F85430 		ldrb	r3, [r4, #84]	@ zero_extendqisi2
 762              	.LVL88:
 763 00e8 42EA0161 		orr	r1, r2, r1, lsl #24
 764 00ec 94F85520 		ldrb	r2, [r4, #85]	@ zero_extendqisi2
 765 00f0 0B43     		orrs	r3, r3, r1
 766 00f2 43EA0222 		orr	r2, r3, r2, lsl #8
 767              	.LVL89:
 768              	.L75:
 769              		.loc 1 2084 0 is_stmt 1
 770 00f6 94F84000 		ldrb	r0, [r4, #64]	@ zero_extendqisi2
 771              	.LVL90:
 772              		.loc 1 2082 0
 773 00fa E261     		str	r2, [r4, #28]
 774              		.loc 1 2085 0
 775 00fc 431E     		subs	r3, r0, #1
 776 00fe 012B     		cmp	r3, #1
 777              		.loc 1 2084 0
 778 0100 E070     		strb	r0, [r4, #3]
 779              		.loc 1 2085 0
 780 0102 C1D8     		bhi	.L74
 781              	.LVL91:
 782              		.loc 1 2088 0
 783 0104 94F83D30 		ldrb	r3, [r4, #61]	@ zero_extendqisi2
 784              	.LVL92:
 785 0108 A370     		strb	r3, [r4, #2]
 786              		.loc 1 2089 0
 787 010a 002B     		cmp	r3, #0
 788 010c BCD0     		beq	.L74
 789              		.loc 1 2089 0 is_stmt 0 discriminator 2
 790 010e 591E     		subs	r1, r3, #1
 791 0110 1942     		tst	r1, r3
ARM GAS  /var/folders/dt/0wfd0knj7gs46m8vwfzktm600000gn/T//cczoWvr4.s 			page 15


 792 0112 B9D1     		bne	.L74
 793              		.loc 1 2091 0 is_stmt 1
 794 0114 94F84110 		ldrb	r1, [r4, #65]	@ zero_extendqisi2
 795 0118 94F84260 		ldrb	r6, [r4, #66]	@ zero_extendqisi2
 796 011c 41EA0626 		orr	r6, r1, r6, lsl #8
 797 0120 B1B2     		uxth	r1, r6
 798              		.loc 1 2092 0
 799 0122 16F00F0F 		tst	r6, #15
 800              		.loc 1 2091 0
 801 0126 2181     		strh	r1, [r4, #8]	@ movhi
 802              		.loc 1 2092 0
 803 0128 AED1     		bne	.L74
 804              		.loc 1 2094 0
 805 012a 94F84470 		ldrb	r7, [r4, #68]	@ zero_extendqisi2
 806 012e 94F84360 		ldrb	r6, [r4, #67]	@ zero_extendqisi2
 807              	.LVL93:
 808              		.loc 1 2095 0
 809 0132 56EA0726 		orrs	r6, r6, r7, lsl #8
 810              	.LVL94:
 811 0136 0ED1     		bne	.L76
 812              		.loc 1 2095 0 is_stmt 0 discriminator 1
 813 0138 94F85270 		ldrb	r7, [r4, #82]	@ zero_extendqisi2
 814 013c 94F853C0 		ldrb	ip, [r4, #83]	@ zero_extendqisi2
 815 0140 3F04     		lsls	r7, r7, #16
 816 0142 94F85060 		ldrb	r6, [r4, #80]	@ zero_extendqisi2
 817              	.LVL95:
 818 0146 47EA0C6C 		orr	ip, r7, ip, lsl #24
 819 014a 94F85170 		ldrb	r7, [r4, #81]	@ zero_extendqisi2
 820 014e 4CEA0606 		orr	r6, ip, r6
 821 0152 46EA0726 		orr	r6, r6, r7, lsl #8
 822              	.LVL96:
 823              	.L76:
 824              		.loc 1 2097 0 is_stmt 1
 825 0156 94F83FC0 		ldrb	ip, [r4, #63]	@ zero_extendqisi2
 826 015a 94F83E70 		ldrb	r7, [r4, #62]	@ zero_extendqisi2
 827              	.LVL97:
 828              		.loc 1 2098 0
 829 015e 57EA0C27 		orrs	r7, r7, ip, lsl #8
 830              	.LVL98:
 831 0162 91D0     		beq	.L74
 832              		.loc 1 2086 0
 833 0164 00FB02FC 		mul	ip, r0, r2
 834              	.LVL99:
 835              		.loc 1 2101 0
 836 0168 07EB1110 		add	r0, r7, r1, lsr #4
 837              	.LVL100:
 838 016c 6044     		add	r0, r0, ip
 839              	.LVL101:
 840              		.loc 1 2102 0
 841 016e 8642     		cmp	r6, r0
 842 0170 8AD3     		bcc	.L74
 843              		.loc 1 2103 0
 844 0172 361A     		subs	r6, r6, r0
 845              	.LVL102:
 846 0174 B6FBF3F3 		udiv	r3, r6, r3
 847              	.LVL103:
 848              		.loc 1 2104 0
ARM GAS  /var/folders/dt/0wfd0knj7gs46m8vwfzktm600000gn/T//cczoWvr4.s 			page 16


 849 0178 002B     		cmp	r3, #0
 850 017a 85D0     		beq	.L74
 851              	.LVL104:
 852              		.loc 1 2106 0
 853 017c 40F6F576 		movw	r6, #4085
 854 0180 B342     		cmp	r3, r6
 855 0182 40F2B880 		bls	.L94
 856              	.LVL105:
 857              		.loc 1 2107 0
 858 0186 06F57046 		add	r6, r6, #61440
 859 018a B342     		cmp	r3, r6
 860 018c 00F29880 		bhi	.L78
 861              		.loc 1 2106 0
 862 0190 0226     		movs	r6, #2
 863              	.LVL106:
 864              	.L77:
 865              		.loc 1 2110 0
 866 0192 0233     		adds	r3, r3, #2
 867              	.LVL107:
 868              		.loc 1 2111 0
 869 0194 4019     		adds	r0, r0, r5
 870              	.LVL108:
 871              		.loc 1 2112 0
 872 0196 EF19     		adds	r7, r5, r7
 873              	.LVL109:
 874              		.loc 1 2110 0
 875 0198 A361     		str	r3, [r4, #24]
 876              		.loc 1 2111 0
 877 019a A062     		str	r0, [r4, #40]
 878              		.loc 1 2112 0
 879 019c 2762     		str	r7, [r4, #32]
 880              		.loc 1 2118 0
 881 019e 0029     		cmp	r1, #0
 882 01a0 3FF472AF 		beq	.L74
 883              		.loc 1 2119 0
 884 01a4 6744     		add	r7, ip, r7
 885              		.loc 1 2121 0
 886 01a6 022E     		cmp	r6, #2
 887              		.loc 1 2119 0
 888 01a8 6762     		str	r7, [r4, #36]
 889              		.loc 1 2121 0
 890 01aa 00F08780 		beq	.L122
 891              		.loc 1 2121 0 is_stmt 0 discriminator 2
 892 01ae 0321     		movs	r1, #3
 893              	.LVL110:
 894 01b0 01FB03F1 		mul	r1, r1, r3
 895 01b4 03F00103 		and	r3, r3, #1
 896              	.LVL111:
 897 01b8 03EB5103 		add	r3, r3, r1, lsr #1
 898 01bc 0126     		movs	r6, #1
 899              	.LVL112:
 900              	.L79:
 901              		.loc 1 2123 0 is_stmt 1
 902 01be 03F2FF13 		addw	r3, r3, #511
 903              	.LVL113:
 904 01c2 B2EB532F 		cmp	r2, r3, lsr #9
 905 01c6 FFF45FAF 		bcc	.L74
ARM GAS  /var/folders/dt/0wfd0knj7gs46m8vwfzktm600000gn/T//cczoWvr4.s 			page 17


 906              		.loc 1 2129 0
 907 01ca 0023     		movs	r3, #0
 908              	.LVL114:
 909              		.loc 1 2128 0
 910 01cc 4FF0FF32 		mov	r2, #-1
 911              	.LVL115:
 912              		.loc 1 2132 0
 913 01d0 032E     		cmp	r6, #3
 914              		.loc 1 2128 0
 915 01d2 2261     		str	r2, [r4, #16]
 916              		.loc 1 2129 0
 917 01d4 E360     		str	r3, [r4, #12]
 918              		.loc 1 2132 0
 919 01d6 0CD0     		beq	.L123
 920              	.LVL116:
 921              	.L82:
 922              		.loc 1 2145 0
 923 01d8 494A     		ldr	r2, .L124+4
 924              		.loc 1 2146 0
 925 01da 0020     		movs	r0, #0
 926              		.loc 1 2145 0
 927 01dc 1388     		ldrh	r3, [r2, #0]
 928              		.loc 1 2144 0
 929 01de 2670     		strb	r6, [r4, #0]
 930              		.loc 1 2145 0
 931 01e0 0133     		adds	r3, r3, #1
 932 01e2 9BB2     		uxth	r3, r3
 933 01e4 1380     		strh	r3, [r2, #0]	@ movhi
 934 01e6 E380     		strh	r3, [r4, #6]	@ movhi
 935              		.loc 1 2146 0
 936 01e8 E062     		str	r0, [r4, #44]
 937              		.loc 1 2147 0
 938 01ea 2071     		strb	r0, [r4, #4]
 939              		.loc 1 2155 0
 940 01ec F8BD     		pop	{r3, r4, r5, r6, r7, pc}
 941              	.LVL117:
 942              	.L93:
 943              		.loc 1 2072 0
 944 01ee 0120     		movs	r0, #1
 945              	.LVL118:
 946 01f0 F8BD     		pop	{r3, r4, r5, r6, r7, pc}
 947              	.LVL119:
 948              	.L123:
 949              		.loc 1 2134 0
 950 01f2 94F86110 		ldrb	r1, [r4, #97]	@ zero_extendqisi2
 951 01f6 94F86020 		ldrb	r2, [r4, #96]	@ zero_extendqisi2
 952              		.loc 1 2133 0
 953 01fa 6371     		strb	r3, [r4, #5]
 954              		.loc 1 2134 0
 955 01fc 42EA0122 		orr	r2, r2, r1, lsl #8
 956 0200 AA18     		adds	r2, r5, r2
 957 0202 6261     		str	r2, [r4, #20]
 958              		.loc 1 2135 0
 959 0204 6078     		ldrb	r0, [r4, #1]	@ zero_extendqisi2
 960 0206 04F13001 		add	r1, r4, #48
 961 020a 0123     		movs	r3, #1
 962 020c FFF7FEFF 		bl	disk_read
ARM GAS  /var/folders/dt/0wfd0knj7gs46m8vwfzktm600000gn/T//cczoWvr4.s 			page 18


 963              	.LVL120:
 964 0210 0028     		cmp	r0, #0
 965 0212 E1D1     		bne	.L82
 966              		.loc 1 2136 0 discriminator 1
 967 0214 94F82F12 		ldrb	r1, [r4, #559]	@ zero_extendqisi2
 968 0218 94F82E22 		ldrb	r2, [r4, #558]	@ zero_extendqisi2
 969              		.loc 1 2135 0 discriminator 1
 970 021c 4AF65523 		movw	r3, #43605
 971              		.loc 1 2136 0 discriminator 1
 972 0220 42EA0122 		orr	r2, r2, r1, lsl #8
 973              		.loc 1 2135 0 discriminator 1
 974 0224 12B2     		sxth	r2, r2
 975 0226 CFF6FF73 		movt	r3, 65535
 976 022a 9A42     		cmp	r2, r3
 977 022c D4D1     		bne	.L82
 978              		.loc 1 2137 0
 979 022e 94F83220 		ldrb	r2, [r4, #50]	@ zero_extendqisi2
 980 0232 94F83310 		ldrb	r1, [r4, #51]	@ zero_extendqisi2
 981 0236 1204     		lsls	r2, r2, #16
 982 0238 94F83030 		ldrb	r3, [r4, #48]	@ zero_extendqisi2
 983 023c 42EA0162 		orr	r2, r2, r1, lsl #24
 984 0240 94F83110 		ldrb	r1, [r4, #49]	@ zero_extendqisi2
 985 0244 1A43     		orrs	r2, r2, r3
 986              		.loc 1 2136 0
 987 0246 45F25223 		movw	r3, #21074
 988              		.loc 1 2137 0
 989 024a 42EA0122 		orr	r2, r2, r1, lsl #8
 990              		.loc 1 2136 0
 991 024e C4F26113 		movt	r3, 16737
 992 0252 9A42     		cmp	r2, r3
 993 0254 C0D1     		bne	.L82
 994              		.loc 1 2138 0
 995 0256 94F81622 		ldrb	r2, [r4, #534]	@ zero_extendqisi2
 996 025a 94F81712 		ldrb	r1, [r4, #535]	@ zero_extendqisi2
 997 025e 1204     		lsls	r2, r2, #16
 998 0260 94F81432 		ldrb	r3, [r4, #532]	@ zero_extendqisi2
 999 0264 42EA0162 		orr	r2, r2, r1, lsl #24
 1000 0268 94F81512 		ldrb	r1, [r4, #533]	@ zero_extendqisi2
 1001 026c 1A43     		orrs	r2, r2, r3
 1002              		.loc 1 2137 0
 1003 026e 47F27223 		movw	r3, #29298
 1004              		.loc 1 2138 0
 1005 0272 42EA0122 		orr	r2, r2, r1, lsl #8
 1006              		.loc 1 2137 0
 1007 0276 C6F24113 		movt	r3, 24897
 1008 027a 9A42     		cmp	r2, r3
 1009 027c ACD1     		bne	.L82
 1010              		.loc 1 2139 0
 1011 027e 94F81E02 		ldrb	r0, [r4, #542]	@ zero_extendqisi2
 1012              		.loc 1 2140 0
 1013 0282 94F81A12 		ldrb	r1, [r4, #538]	@ zero_extendqisi2
 1014              		.loc 1 2139 0
 1015 0286 94F81F72 		ldrb	r7, [r4, #543]	@ zero_extendqisi2
 1016              		.loc 1 2140 0
 1017 028a 94F81B52 		ldrb	r5, [r4, #539]	@ zero_extendqisi2
 1018              	.LVL121:
 1019              		.loc 1 2139 0
ARM GAS  /var/folders/dt/0wfd0knj7gs46m8vwfzktm600000gn/T//cczoWvr4.s 			page 19


 1020 028e 0004     		lsls	r0, r0, #16
 1021              		.loc 1 2140 0
 1022 0290 0904     		lsls	r1, r1, #16
 1023              		.loc 1 2139 0
 1024 0292 94F81C22 		ldrb	r2, [r4, #540]	@ zero_extendqisi2
 1025              		.loc 1 2140 0
 1026 0296 94F81832 		ldrb	r3, [r4, #536]	@ zero_extendqisi2
 1027              		.loc 1 2139 0
 1028 029a 40EA0767 		orr	r7, r0, r7, lsl #24
 1029              		.loc 1 2140 0
 1030 029e 41EA0565 		orr	r5, r1, r5, lsl #24
 1031              		.loc 1 2139 0
 1032 02a2 94F81D02 		ldrb	r0, [r4, #541]	@ zero_extendqisi2
 1033              		.loc 1 2140 0
 1034 02a6 94F81912 		ldrb	r1, [r4, #537]	@ zero_extendqisi2
 1035              		.loc 1 2139 0
 1036 02aa 3A43     		orrs	r2, r2, r7
 1037              		.loc 1 2140 0
 1038 02ac 2B43     		orrs	r3, r3, r5
 1039              		.loc 1 2139 0
 1040 02ae 42EA0022 		orr	r2, r2, r0, lsl #8
 1041              		.loc 1 2140 0
 1042 02b2 43EA0123 		orr	r3, r3, r1, lsl #8
 1043              		.loc 1 2139 0
 1044 02b6 E260     		str	r2, [r4, #12]
 1045              		.loc 1 2140 0
 1046 02b8 2361     		str	r3, [r4, #16]
 1047 02ba 8DE7     		b	.L82
 1048              	.LVL122:
 1049              	.L122:
 1050              		.loc 1 2121 0 discriminator 1
 1051 02bc 5B00     		lsls	r3, r3, #1
 1052              	.LVL123:
 1053 02be 7EE7     		b	.L79
 1054              	.LVL124:
 1055              	.L78:
 1056              		.loc 1 2110 0
 1057 02c0 0233     		adds	r3, r3, #2
 1058              	.LVL125:
 1059              		.loc 1 2111 0
 1060 02c2 4019     		adds	r0, r0, r5
 1061              	.LVL126:
 1062              		.loc 1 2112 0
 1063 02c4 EF19     		adds	r7, r5, r7
 1064              	.LVL127:
 1065              		.loc 1 2110 0
 1066 02c6 A361     		str	r3, [r4, #24]
 1067              		.loc 1 2111 0
 1068 02c8 A062     		str	r0, [r4, #40]
 1069              		.loc 1 2112 0
 1070 02ca 2762     		str	r7, [r4, #32]
 1071              		.loc 1 2114 0
 1072 02cc 0029     		cmp	r1, #0
 1073 02ce 7FF4DBAE 		bne	.L74
 1074              		.loc 1 2115 0
 1075 02d2 94F85E00 		ldrb	r0, [r4, #94]	@ zero_extendqisi2
 1076 02d6 94F85F60 		ldrb	r6, [r4, #95]	@ zero_extendqisi2
ARM GAS  /var/folders/dt/0wfd0knj7gs46m8vwfzktm600000gn/T//cczoWvr4.s 			page 20


 1077 02da 0004     		lsls	r0, r0, #16
 1078 02dc 94F85C10 		ldrb	r1, [r4, #92]	@ zero_extendqisi2
 1079              	.LVL128:
 1080 02e0 40EA0666 		orr	r6, r0, r6, lsl #24
 1081 02e4 94F85D00 		ldrb	r0, [r4, #93]	@ zero_extendqisi2
 1082 02e8 3143     		orrs	r1, r1, r6
 1083 02ea 41EA0021 		orr	r1, r1, r0, lsl #8
 1084 02ee 6162     		str	r1, [r4, #36]
 1085              		.loc 1 2116 0
 1086 02f0 9B00     		lsls	r3, r3, #2
 1087              	.LVL129:
 1088              		.loc 1 2107 0
 1089 02f2 0326     		movs	r6, #3
 1090 02f4 63E7     		b	.L79
 1091              	.LVL130:
 1092              	.L94:
 1093              		.loc 1 2105 0
 1094 02f6 0126     		movs	r6, #1
 1095 02f8 4BE7     		b	.L77
 1096              	.L125:
 1097 02fa 00BF     		.align	2
 1098              	.L124:
 1099 02fc 00000000 		.word	.LANCHOR0
 1100 0300 00000000 		.word	.LANCHOR1
 1101              		.cfi_endproc
 1102              	.LFE21:
 1103              		.size	chk_mounted, .-chk_mounted
 1104 0304 AFF30080 		.section	.text.clust2sect,"ax",%progbits
 1104      AFF30080 
 1104      AFF30080 
 1105              		.align	2
 1106              		.p2align 4,,15
 1107              		.global	clust2sect
 1108              		.thumb
 1109              		.thumb_func
 1110              		.type	clust2sect, %function
 1111              	clust2sect:
 1112              	.LFB6:
 1113              		.loc 1 799 0
 1114              		.cfi_startproc
 1115              		@ args = 0, pretend = 0, frame = 0
 1116              		@ frame_needed = 0, uses_anonymous_args = 0
 1117              		@ link register save eliminated.
 1118              	.LVL131:
 1119              		.loc 1 801 0
 1120 0000 8369     		ldr	r3, [r0, #24]
 1121              		.loc 1 800 0
 1122 0002 0239     		subs	r1, r1, #2
 1123              	.LVL132:
 1124              		.loc 1 801 0
 1125 0004 023B     		subs	r3, r3, #2
 1126 0006 9942     		cmp	r1, r3
 1127              		.loc 1 802 0
 1128 0008 3DBF     		ittte	cc
 1129 000a 8278     		ldrbcc	r2, [r0, #2]	@ zero_extendqisi2
 1130 000c 836A     		ldrcc	r3, [r0, #40]
 1131 000e 02FB0130 		mlacc	r0, r2, r1, r3
ARM GAS  /var/folders/dt/0wfd0knj7gs46m8vwfzktm600000gn/T//cczoWvr4.s 			page 21


 1132              	.LVL133:
 1133              		.loc 1 801 0
 1134 0012 0020     		movcs	r0, #0
 1135              		.loc 1 803 0
 1136 0014 7047     		bx	lr
 1137              		.cfi_endproc
 1138              	.LFE6:
 1139              		.size	clust2sect, .-clust2sect
 1140 0016 00BFAFF3 		.section	.text.get_fat,"ax",%progbits
 1140      0080AFF3 
 1140      0080
 1141              		.align	2
 1142              		.p2align 4,,15
 1143              		.global	get_fat
 1144              		.thumb
 1145              		.thumb_func
 1146              		.type	get_fat, %function
 1147              	get_fat:
 1148              	.LFB7:
 1149              		.loc 1 817 0
 1150              		.cfi_startproc
 1151              		@ args = 0, pretend = 0, frame = 0
 1152              		@ frame_needed = 0, uses_anonymous_args = 0
 1153              	.LVL134:
 1154              		.loc 1 822 0
 1155 0000 0129     		cmp	r1, #1
 1156              		.loc 1 817 0
 1157 0002 F8B5     		push	{r3, r4, r5, r6, r7, lr}
 1158              	.LCFI7:
 1159              		.cfi_def_cfa_offset 24
 1160              		.cfi_offset 3, -24
 1161              		.cfi_offset 4, -20
 1162              		.cfi_offset 5, -16
 1163              		.cfi_offset 6, -12
 1164              		.cfi_offset 7, -8
 1165              		.cfi_offset 14, -4
 1166              		.loc 1 817 0
 1167 0004 0C46     		mov	r4, r1
 1168 0006 0546     		mov	r5, r0
 1169              		.loc 1 822 0
 1170 0008 0CD9     		bls	.L139
 1171              		.loc 1 822 0 is_stmt 0 discriminator 1
 1172 000a 8369     		ldr	r3, [r0, #24]
 1173 000c 9942     		cmp	r1, r3
 1174 000e 09D2     		bcs	.L139
 1175              	.LVL135:
 1176              	.LBB75:
 1177              	.LBB76:
 1178              		.loc 1 825 0 is_stmt 1
 1179 0010 0378     		ldrb	r3, [r0, #0]	@ zero_extendqisi2
 1180 0012 022B     		cmp	r3, #2
 1181 0014 45D0     		beq	.L133
 1182 0016 032B     		cmp	r3, #3
 1183 0018 28D0     		beq	.L134
 1184 001a 012B     		cmp	r3, #1
 1185 001c 04D0     		beq	.L142
 1186              	.LVL136:
ARM GAS  /var/folders/dt/0wfd0knj7gs46m8vwfzktm600000gn/T//cczoWvr4.s 			page 22


 1187              	.L141:
 1188              		.loc 1 845 0
 1189 001e 4FF0FF30 		mov	r0, #-1
 1190 0022 F8BD     		pop	{r3, r4, r5, r6, r7, pc}
 1191              	.LVL137:
 1192              	.L139:
 1193              	.LBE76:
 1194              	.LBE75:
 1195              		.loc 1 823 0
 1196 0024 0120     		movs	r0, #1
 1197              	.LVL138:
 1198              		.loc 1 846 0
 1199 0026 F8BD     		pop	{r3, r4, r5, r6, r7, pc}
 1200              	.LVL139:
 1201              	.L142:
 1202              	.LBB78:
 1203              	.LBB77:
 1204              		.loc 1 828 0
 1205 0028 016A     		ldr	r1, [r0, #32]
 1206              	.LVL140:
 1207              		.loc 1 827 0
 1208 002a 04EB5406 		add	r6, r4, r4, lsr #1
 1209              	.LVL141:
 1210              		.loc 1 828 0
 1211 002e 01EB5621 		add	r1, r1, r6, lsr #9
 1212 0032 FFF7FEFF 		bl	move_window
 1213              	.LVL142:
 1214 0036 0028     		cmp	r0, #0
 1215 0038 F1D1     		bne	.L141
 1216              		.loc 1 829 0
 1217 003a F305     		lsls	r3, r6, #23
 1218              		.loc 1 830 0
 1219 003c 296A     		ldr	r1, [r5, #32]
 1220              		.loc 1 829 0
 1221 003e DB0D     		lsrs	r3, r3, #23
 1222 0040 0136     		adds	r6, r6, #1
 1223              	.LVL143:
 1224 0042 EB18     		adds	r3, r5, r3
 1225              		.loc 1 830 0
 1226 0044 2846     		mov	r0, r5
 1227 0046 01EB5621 		add	r1, r1, r6, lsr #9
 1228              		.loc 1 829 0
 1229 004a 93F83070 		ldrb	r7, [r3, #48]	@ zero_extendqisi2
 1230              	.LVL144:
 1231              		.loc 1 830 0
 1232 004e FFF7FEFF 		bl	move_window
 1233              	.LVL145:
 1234 0052 0028     		cmp	r0, #0
 1235 0054 E3D1     		bne	.L141
 1236              		.loc 1 831 0
 1237 0056 F605     		lsls	r6, r6, #23
 1238              	.LVL146:
 1239 0058 F60D     		lsrs	r6, r6, #23
 1240 005a AD19     		adds	r5, r5, r6
 1241              	.LVL147:
 1242 005c 95F83000 		ldrb	r0, [r5, #48]	@ zero_extendqisi2
 1243              		.loc 1 832 0
ARM GAS  /var/folders/dt/0wfd0knj7gs46m8vwfzktm600000gn/T//cczoWvr4.s 			page 23


 1244 0060 E107     		lsls	r1, r4, #31
 1245              		.loc 1 831 0
 1246 0062 47EA0020 		orr	r0, r7, r0, lsl #8
 1247              	.LVL148:
 1248              		.loc 1 832 0
 1249 0066 2ED5     		bpl	.L137
 1250 0068 0009     		lsrs	r0, r0, #4
 1251              	.LVL149:
 1252 006a F8BD     		pop	{r3, r4, r5, r6, r7, pc}
 1253              	.LVL150:
 1254              	.L134:
 1255              		.loc 1 840 0
 1256 006c 016A     		ldr	r1, [r0, #32]
 1257              	.LVL151:
 1258 006e 01EBD411 		add	r1, r1, r4, lsr #7
 1259 0072 FFF7FEFF 		bl	move_window
 1260              	.LVL152:
 1261 0076 0028     		cmp	r0, #0
 1262 0078 D1D1     		bne	.L141
 1263              		.loc 1 841 0
 1264 007a 6406     		lsls	r4, r4, #25
 1265              	.LVL153:
 1266 007c E40D     		lsrs	r4, r4, #23
 1267 007e 04F13003 		add	r3, r4, #48
 1268 0082 EB18     		adds	r3, r5, r3
 1269              	.LVL154:
 1270              		.loc 1 842 0
 1271 0084 DA78     		ldrb	r2, [r3, #3]	@ zero_extendqisi2
 1272 0086 9978     		ldrb	r1, [r3, #2]	@ zero_extendqisi2
 1273 0088 5878     		ldrb	r0, [r3, #1]	@ zero_extendqisi2
 1274 008a 1206     		lsls	r2, r2, #24
 1275 008c 2C19     		adds	r4, r5, r4
 1276 008e 42EA0142 		orr	r2, r2, r1, lsl #16
 1277 0092 94F83030 		ldrb	r3, [r4, #48]	@ zero_extendqisi2
 1278              	.LVL155:
 1279 0096 42EA0020 		orr	r0, r2, r0, lsl #8
 1280 009a 1843     		orrs	r0, r0, r3
 1281 009c 20F07040 		bic	r0, r0, #-268435456
 1282 00a0 F8BD     		pop	{r3, r4, r5, r6, r7, pc}
 1283              	.LVL156:
 1284              	.L133:
 1285              		.loc 1 835 0
 1286 00a2 016A     		ldr	r1, [r0, #32]
 1287              	.LVL157:
 1288 00a4 01EB1421 		add	r1, r1, r4, lsr #8
 1289 00a8 FFF7FEFF 		bl	move_window
 1290              	.LVL158:
 1291 00ac 0028     		cmp	r0, #0
 1292 00ae B6D1     		bne	.L141
 1293              		.loc 1 836 0
 1294 00b0 2406     		lsls	r4, r4, #24
 1295              	.LVL159:
 1296 00b2 E40D     		lsrs	r4, r4, #23
 1297              	.LVL160:
 1298              		.loc 1 837 0
 1299 00b4 2B19     		adds	r3, r5, r4
 1300 00b6 1C46     		mov	r4, r3
ARM GAS  /var/folders/dt/0wfd0knj7gs46m8vwfzktm600000gn/T//cczoWvr4.s 			page 24


 1301              	.LVL161:
 1302 00b8 94F83100 		ldrb	r0, [r4, #49]	@ zero_extendqisi2
 1303 00bc 93F83030 		ldrb	r3, [r3, #48]	@ zero_extendqisi2
 1304 00c0 43EA0020 		orr	r0, r3, r0, lsl #8
 1305 00c4 F8BD     		pop	{r3, r4, r5, r6, r7, pc}
 1306              	.LVL162:
 1307              	.L137:
 1308              		.loc 1 832 0
 1309 00c6 0005     		lsls	r0, r0, #20
 1310              	.LVL163:
 1311 00c8 000D     		lsrs	r0, r0, #20
 1312 00ca F8BD     		pop	{r3, r4, r5, r6, r7, pc}
 1313              	.LBE77:
 1314              	.LBE78:
 1315              		.cfi_endproc
 1316              	.LFE7:
 1317              		.size	get_fat, .-get_fat
 1318 00cc AFF30080 		.section	.text.dir_sdi,"ax",%progbits
 1319              		.align	2
 1320              		.p2align 4,,15
 1321              		.thumb
 1322              		.thumb_func
 1323              		.type	dir_sdi, %function
 1324              	dir_sdi:
 1325              	.LFB11:
 1326              		.loc 1 1063 0
 1327              		.cfi_startproc
 1328              		@ args = 0, pretend = 0, frame = 0
 1329              		@ frame_needed = 0, uses_anonymous_args = 0
 1330              	.LVL164:
 1331              		.loc 1 1069 0
 1332 0000 8368     		ldr	r3, [r0, #8]
 1333              	.LVL165:
 1334              		.loc 1 1063 0
 1335 0002 70B5     		push	{r4, r5, r6, lr}
 1336              	.LCFI8:
 1337              		.cfi_def_cfa_offset 16
 1338              		.cfi_offset 4, -16
 1339              		.cfi_offset 5, -12
 1340              		.cfi_offset 6, -8
 1341              		.cfi_offset 14, -4
 1342              		.loc 1 1070 0
 1343 0004 012B     		cmp	r3, #1
 1344              		.loc 1 1063 0
 1345 0006 0546     		mov	r5, r0
 1346 0008 0C46     		mov	r4, r1
 1347              		.loc 1 1068 0
 1348 000a E980     		strh	r1, [r5, #6]	@ movhi
 1349              		.loc 1 1070 0
 1350 000c 03D0     		beq	.L146
 1351              		.loc 1 1070 0 is_stmt 0 discriminator 1
 1352 000e 0068     		ldr	r0, [r0, #0]
 1353              	.LVL166:
 1354 0010 8269     		ldr	r2, [r0, #24]
 1355 0012 9342     		cmp	r3, r2
 1356 0014 01D3     		bcc	.L157
 1357              	.LVL167:
ARM GAS  /var/folders/dt/0wfd0knj7gs46m8vwfzktm600000gn/T//cczoWvr4.s 			page 25


 1358              	.L146:
 1359              		.loc 1 1071 0 is_stmt 1
 1360 0016 0220     		movs	r0, #2
 1361 0018 70BD     		pop	{r4, r5, r6, pc}
 1362              	.LVL168:
 1363              	.L157:
 1364              		.loc 1 1072 0
 1365 001a B3B9     		cbnz	r3, .L147
 1366              		.loc 1 1072 0 is_stmt 0 discriminator 1
 1367 001c 0378     		ldrb	r3, [r0, #0]	@ zero_extendqisi2
 1368              	.LVL169:
 1369 001e 032B     		cmp	r3, #3
 1370 0020 10D0     		beq	.L158
 1371              	.LVL170:
 1372              	.L148:
 1373              		.loc 1 1077 0 is_stmt 1
 1374 0022 0389     		ldrh	r3, [r0, #8]
 1375              		.loc 1 1076 0
 1376 0024 0022     		movs	r2, #0
 1377              		.loc 1 1077 0
 1378 0026 A342     		cmp	r3, r4
 1379              		.loc 1 1076 0
 1380 0028 EA60     		str	r2, [r5, #12]
 1381              		.loc 1 1077 0
 1382 002a F4D9     		bls	.L146
 1383              		.loc 1 1079 0
 1384 002c 436A     		ldr	r3, [r0, #36]
 1385 002e 03EB1413 		add	r3, r3, r4, lsr #4
 1386 0032 2B61     		str	r3, [r5, #16]
 1387              	.LVL171:
 1388              	.L149:
 1389              		.loc 1 1094 0
 1390 0034 04F00F04 		and	r4, r4, #15
 1391              	.LVL172:
 1392 0038 00EB4410 		add	r0, r0, r4, lsl #5
 1393 003c 3030     		adds	r0, r0, #48
 1394 003e 6861     		str	r0, [r5, #20]
 1395              		.loc 1 1096 0
 1396 0040 0020     		movs	r0, #0
 1397 0042 70BD     		pop	{r4, r5, r6, pc}
 1398              	.LVL173:
 1399              	.L158:
 1400              		.loc 1 1073 0
 1401 0044 436A     		ldr	r3, [r0, #36]
 1402              	.LVL174:
 1403              		.loc 1 1075 0
 1404 0046 002B     		cmp	r3, #0
 1405 0048 EBD0     		beq	.L148
 1406              	.L147:
 1407              		.loc 1 1082 0
 1408 004a 8678     		ldrb	r6, [r0, #2]	@ zero_extendqisi2
 1409 004c 3601     		lsls	r6, r6, #4
 1410              	.LVL175:
 1411              		.loc 1 1083 0
 1412 004e B442     		cmp	r4, r6
 1413 0050 08D2     		bcs	.L155
 1414 0052 11E0     		b	.L150
ARM GAS  /var/folders/dt/0wfd0knj7gs46m8vwfzktm600000gn/T//cczoWvr4.s 			page 26


 1415              	.LVL176:
 1416              	.L159:
 1417              		.loc 1 1086 0
 1418 0054 012B     		cmp	r3, #1
 1419 0056 DED9     		bls	.L146
 1420              		.loc 1 1086 0 is_stmt 0 discriminator 1
 1421 0058 2868     		ldr	r0, [r5, #0]
 1422 005a 8269     		ldr	r2, [r0, #24]
 1423 005c 9342     		cmp	r3, r2
 1424 005e DAD2     		bcs	.L146
 1425              		.loc 1 1083 0 is_stmt 1
 1426 0060 A642     		cmp	r6, r4
 1427 0062 09D8     		bhi	.L150
 1428              	.LVL177:
 1429              	.L155:
 1430              		.loc 1 1084 0
 1431 0064 1946     		mov	r1, r3
 1432 0066 FFF7FEFF 		bl	get_fat
 1433              	.LVL178:
 1434              		.loc 1 1088 0
 1435 006a A41B     		subs	r4, r4, r6
 1436              		.loc 1 1084 0
 1437 006c 0346     		mov	r3, r0
 1438              	.LVL179:
 1439              		.loc 1 1085 0
 1440 006e 0130     		adds	r0, r0, #1
 1441              	.LVL180:
 1442              		.loc 1 1088 0
 1443 0070 A4B2     		uxth	r4, r4
 1444              	.LVL181:
 1445              		.loc 1 1085 0
 1446 0072 EFD1     		bne	.L159
 1447 0074 0120     		movs	r0, #1
 1448              		.loc 1 1097 0
 1449 0076 70BD     		pop	{r4, r5, r6, pc}
 1450              	.LVL182:
 1451              	.L150:
 1452              	.LBB79:
 1453              	.LBB80:
 1454              		.loc 1 801 0
 1455 0078 8169     		ldr	r1, [r0, #24]
 1456              		.loc 1 800 0
 1457 007a 9A1E     		subs	r2, r3, #2
 1458              		.loc 1 801 0
 1459 007c 0239     		subs	r1, r1, #2
 1460 007e 8A42     		cmp	r2, r1
 1461              	.LBE80:
 1462              	.LBE79:
 1463              		.loc 1 1090 0
 1464 0080 EB60     		str	r3, [r5, #12]
 1465              	.LVL183:
 1466              	.LBB82:
 1467              	.LBB81:
 1468              		.loc 1 802 0
 1469 0082 3DBF     		ittte	cc
 1470 0084 8178     		ldrbcc	r1, [r0, #2]	@ zero_extendqisi2
 1471 0086 836A     		ldrcc	r3, [r0, #40]
ARM GAS  /var/folders/dt/0wfd0knj7gs46m8vwfzktm600000gn/T//cczoWvr4.s 			page 27


 1472 0088 01FB0232 		mlacc	r2, r1, r2, r3
 1473              	.LVL184:
 1474              		.loc 1 801 0
 1475 008c 0022     		movcs	r2, #0
 1476              	.LBE81:
 1477              	.LBE82:
 1478              		.loc 1 1091 0
 1479 008e 02EB1412 		add	r2, r2, r4, lsr #4
 1480 0092 2A61     		str	r2, [r5, #16]
 1481 0094 CEE7     		b	.L149
 1482              		.cfi_endproc
 1483              	.LFE11:
 1484              		.size	dir_sdi, .-dir_sdi
 1485 0096 00BFAFF3 		.section	.text.dir_remove,"ax",%progbits
 1485      0080AFF3 
 1485      0080
 1486              		.align	2
 1487              		.p2align 4,,15
 1488              		.thumb
 1489              		.thumb_func
 1490              		.type	dir_remove, %function
 1491              	dir_remove:
 1492              	.LFB16:
 1493              		.loc 1 1574 0
 1494              		.cfi_startproc
 1495              		@ args = 0, pretend = 0, frame = 0
 1496              		@ frame_needed = 0, uses_anonymous_args = 0
 1497              	.LVL185:
 1498 0000 10B5     		push	{r4, lr}
 1499              	.LCFI9:
 1500              		.cfi_def_cfa_offset 8
 1501              		.cfi_offset 4, -8
 1502              		.cfi_offset 14, -4
 1503              		.loc 1 1594 0
 1504 0002 C188     		ldrh	r1, [r0, #6]
 1505              		.loc 1 1574 0
 1506 0004 0446     		mov	r4, r0
 1507              		.loc 1 1594 0
 1508 0006 FFF7FEFF 		bl	dir_sdi
 1509              	.LVL186:
 1510              		.loc 1 1595 0
 1511 000a 00B1     		cbz	r0, .L163
 1512              	.LVL187:
 1513              	.L161:
 1514              		.loc 1 1605 0
 1515 000c 10BD     		pop	{r4, pc}
 1516              	.L163:
 1517              	.LVL188:
 1518              	.LBB85:
 1519              	.LBB86:
 1520              		.loc 1 1596 0
 1521 000e 2068     		ldr	r0, [r4, #0]
 1522              	.LVL189:
 1523 0010 2169     		ldr	r1, [r4, #16]
 1524 0012 FFF7FEFF 		bl	move_window
 1525              	.LVL190:
 1526              		.loc 1 1597 0
ARM GAS  /var/folders/dt/0wfd0knj7gs46m8vwfzktm600000gn/T//cczoWvr4.s 			page 28


 1527 0016 0028     		cmp	r0, #0
 1528 0018 F8D1     		bne	.L161
 1529              		.loc 1 1598 0
 1530 001a 6369     		ldr	r3, [r4, #20]
 1531 001c E522     		movs	r2, #229
 1532 001e 1A70     		strb	r2, [r3, #0]
 1533              		.loc 1 1599 0
 1534 0020 2368     		ldr	r3, [r4, #0]
 1535 0022 0122     		movs	r2, #1
 1536 0024 1A71     		strb	r2, [r3, #4]
 1537              	.LVL191:
 1538              	.LBE86:
 1539              	.LBE85:
 1540              		.loc 1 1605 0
 1541 0026 10BD     		pop	{r4, pc}
 1542              		.cfi_endproc
 1543              	.LFE16:
 1544              		.size	dir_remove, .-dir_remove
 1545 0028 AFF30080 		.section	.text.put_fat,"ax",%progbits
 1545      AFF30080 
 1546              		.align	2
 1547              		.p2align 4,,15
 1548              		.global	put_fat
 1549              		.thumb
 1550              		.thumb_func
 1551              		.type	put_fat, %function
 1552              	put_fat:
 1553              	.LFB8:
 1554              		.loc 1 861 0
 1555              		.cfi_startproc
 1556              		@ args = 0, pretend = 0, frame = 8
 1557              		@ frame_needed = 0, uses_anonymous_args = 0
 1558              	.LVL192:
 1559 0000 F0B5     		push	{r4, r5, r6, r7, lr}
 1560              	.LCFI10:
 1561              		.cfi_def_cfa_offset 20
 1562              		.cfi_offset 4, -20
 1563              		.cfi_offset 5, -16
 1564              		.cfi_offset 6, -12
 1565              		.cfi_offset 7, -8
 1566              		.cfi_offset 14, -4
 1567              		.loc 1 867 0
 1568 0002 0129     		cmp	r1, #1
 1569              		.loc 1 861 0
 1570 0004 83B0     		sub	sp, sp, #12
 1571              	.LCFI11:
 1572              		.cfi_def_cfa_offset 32
 1573              		.loc 1 861 0
 1574 0006 0C46     		mov	r4, r1
 1575 0008 0546     		mov	r5, r0
 1576              		.loc 1 867 0
 1577 000a 02D9     		bls	.L175
 1578              		.loc 1 867 0 is_stmt 0 discriminator 1
 1579 000c 8369     		ldr	r3, [r0, #24]
 1580 000e 9942     		cmp	r1, r3
 1581 0010 02D3     		bcc	.L178
 1582              	.L175:
ARM GAS  /var/folders/dt/0wfd0knj7gs46m8vwfzktm600000gn/T//cczoWvr4.s 			page 29


 1583              		.loc 1 868 0 is_stmt 1
 1584 0012 0220     		movs	r0, #2
 1585              	.LVL193:
 1586              	.L165:
 1587              		.loc 1 908 0
 1588 0014 03B0     		add	sp, sp, #12
 1589 0016 F0BD     		pop	{r4, r5, r6, r7, pc}
 1590              	.LVL194:
 1591              	.L178:
 1592              	.LBB89:
 1593              	.LBB90:
 1594              		.loc 1 871 0
 1595 0018 0378     		ldrb	r3, [r0, #0]	@ zero_extendqisi2
 1596 001a 022B     		cmp	r3, #2
 1597 001c 25D0     		beq	.L168
 1598 001e 032B     		cmp	r3, #3
 1599 0020 05D0     		beq	.L169
 1600 0022 012B     		cmp	r3, #1
 1601 0024 35D0     		beq	.L179
 1602              		.loc 1 902 0
 1603 0026 0220     		movs	r0, #2
 1604              	.LVL195:
 1605              	.L166:
 1606              		.loc 1 904 0
 1607 0028 0123     		movs	r3, #1
 1608 002a 2B71     		strb	r3, [r5, #4]
 1609 002c F2E7     		b	.L165
 1610              	.LVL196:
 1611              	.L169:
 1612              		.loc 1 894 0
 1613 002e 016A     		ldr	r1, [r0, #32]
 1614              	.LVL197:
 1615 0030 0192     		str	r2, [sp, #4]
 1616 0032 01EBD411 		add	r1, r1, r4, lsr #7
 1617 0036 FFF7FEFF 		bl	move_window
 1618              	.LVL198:
 1619              		.loc 1 895 0
 1620 003a 019A     		ldr	r2, [sp, #4]
 1621 003c 0028     		cmp	r0, #0
 1622 003e F3D1     		bne	.L166
 1623              		.loc 1 896 0
 1624 0040 6406     		lsls	r4, r4, #25
 1625              	.LVL199:
 1626 0042 E40D     		lsrs	r4, r4, #23
 1627 0044 04F13003 		add	r3, r4, #48
 1628 0048 EB18     		adds	r3, r5, r3
 1629              	.LVL200:
 1630              		.loc 1 897 0
 1631 004a D978     		ldrb	r1, [r3, #3]	@ zero_extendqisi2
 1632 004c 2C19     		adds	r4, r5, r4
 1633 004e 0906     		lsls	r1, r1, #24
 1634 0050 01F07041 		and	r1, r1, #-268435456
 1635 0054 0A43     		orrs	r2, r2, r1
 1636              	.LVL201:
 1637              		.loc 1 898 0
 1638 0056 C2F30727 		ubfx	r7, r2, #8, #8
 1639 005a 160C     		lsrs	r6, r2, #16
ARM GAS  /var/folders/dt/0wfd0knj7gs46m8vwfzktm600000gn/T//cczoWvr4.s 			page 30


 1640 005c 110E     		lsrs	r1, r2, #24
 1641 005e 84F83020 		strb	r2, [r4, #48]
 1642 0062 5F70     		strb	r7, [r3, #1]
 1643 0064 9E70     		strb	r6, [r3, #2]
 1644 0066 D970     		strb	r1, [r3, #3]
 1645 0068 DEE7     		b	.L166
 1646              	.LVL202:
 1647              	.L168:
 1648              		.loc 1 887 0
 1649 006a 016A     		ldr	r1, [r0, #32]
 1650              	.LVL203:
 1651 006c 0192     		str	r2, [sp, #4]
 1652 006e 01EB1421 		add	r1, r1, r4, lsr #8
 1653 0072 FFF7FEFF 		bl	move_window
 1654              	.LVL204:
 1655              		.loc 1 888 0
 1656 0076 019A     		ldr	r2, [sp, #4]
 1657 0078 0028     		cmp	r0, #0
 1658 007a D5D1     		bne	.L166
 1659              		.loc 1 889 0
 1660 007c 2406     		lsls	r4, r4, #24
 1661              	.LVL205:
 1662 007e E40D     		lsrs	r4, r4, #23
 1663              	.LVL206:
 1664              		.loc 1 890 0
 1665 0080 2919     		adds	r1, r5, r4
 1666 0082 C2F30723 		ubfx	r3, r2, #8, #8
 1667 0086 0C46     		mov	r4, r1
 1668              	.LVL207:
 1669 0088 81F83020 		strb	r2, [r1, #48]
 1670 008c 81F83130 		strb	r3, [r1, #49]
 1671 0090 CAE7     		b	.L166
 1672              	.LVL208:
 1673              	.L179:
 1674              		.loc 1 874 0
 1675 0092 016A     		ldr	r1, [r0, #32]
 1676              	.LVL209:
 1677              		.loc 1 873 0
 1678 0094 04EB5406 		add	r6, r4, r4, lsr #1
 1679              	.LVL210:
 1680              		.loc 1 874 0
 1681 0098 01EB5621 		add	r1, r1, r6, lsr #9
 1682 009c 0192     		str	r2, [sp, #4]
 1683 009e FFF7FEFF 		bl	move_window
 1684              	.LVL211:
 1685              		.loc 1 875 0
 1686 00a2 019A     		ldr	r2, [sp, #4]
 1687 00a4 0028     		cmp	r0, #0
 1688 00a6 BFD1     		bne	.L166
 1689              		.loc 1 876 0
 1690 00a8 F305     		lsls	r3, r6, #23
 1691 00aa DB0D     		lsrs	r3, r3, #23
 1692              	.LVL212:
 1693              		.loc 1 877 0
 1694 00ac 14F00104 		ands	r4, r4, #1
 1695              	.LVL213:
 1696 00b0 1FBF     		itttt	ne
ARM GAS  /var/folders/dt/0wfd0knj7gs46m8vwfzktm600000gn/T//cczoWvr4.s 			page 31


 1697 00b2 EB18     		addne	r3, r5, r3
 1698              	.LVL214:
 1699              	.LBE90:
 1700 00b4 93F83010 		ldrbne	r1, [r3, #48]	@ zero_extendqisi2
 1701              		.loc 1 3473 0
 1702 00b8 D0B2     		uxtbne	r0, r2
 1703              	.LVL215:
 1704              		.loc 1 877 0
 1705 00ba 01F00F01 		andne	r1, r1, #15
 1706              	.LBB91:
 1707 00be 15BF     		itete	ne
 1708 00c0 41EA0010 		orrne	r0, r1, r0, lsl #4
 1709 00c4 D0B2     		uxtbeq	r0, r2
 1710 00c6 C0B2     		uxtbne	r0, r0
 1711 00c8 EB18     		addeq	r3, r5, r3
 1712              		.loc 1 880 0
 1713 00ca 296A     		ldr	r1, [r5, #32]
 1714              		.loc 1 877 0
 1715 00cc 83F83000 		strb	r0, [r3, #48]
 1716              		.loc 1 878 0
 1717 00d0 0136     		adds	r6, r6, #1
 1718              	.LVL216:
 1719              		.loc 1 879 0
 1720 00d2 0123     		movs	r3, #1
 1721 00d4 2B71     		strb	r3, [r5, #4]
 1722              		.loc 1 880 0
 1723 00d6 2846     		mov	r0, r5
 1724 00d8 01EB5621 		add	r1, r1, r6, lsr #9
 1725 00dc 0192     		str	r2, [sp, #4]
 1726 00de FFF7FEFF 		bl	move_window
 1727              	.LVL217:
 1728              		.loc 1 881 0
 1729 00e2 019A     		ldr	r2, [sp, #4]
 1730 00e4 0028     		cmp	r0, #0
 1731 00e6 9FD1     		bne	.L166
 1732              		.loc 1 882 0
 1733 00e8 F605     		lsls	r6, r6, #23
 1734              	.LVL218:
 1735 00ea F60D     		lsrs	r6, r6, #23
 1736              	.LVL219:
 1737              		.loc 1 883 0
 1738 00ec 2CB1     		cbz	r4, .L172
 1739 00ee C2F30712 		ubfx	r2, r2, #4, #8
 1740 00f2 AE19     		adds	r6, r5, r6
 1741              	.LVL220:
 1742              	.L173:
 1743 00f4 86F83020 		strb	r2, [r6, #48]
 1744 00f8 96E7     		b	.L166
 1745              	.LVL221:
 1746              	.L172:
 1747 00fa AE19     		adds	r6, r5, r6
 1748              	.LVL222:
 1749 00fc 96F83030 		ldrb	r3, [r6, #48]	@ zero_extendqisi2
 1750              	.LBE91:
 1751 0100 C2F30322 		ubfx	r2, r2, #8, #4
 1752              	.LBB92:
 1753 0104 23F00F03 		bic	r3, r3, #15
ARM GAS  /var/folders/dt/0wfd0knj7gs46m8vwfzktm600000gn/T//cczoWvr4.s 			page 32


 1754 0108 1A43     		orrs	r2, r2, r3
 1755 010a F3E7     		b	.L173
 1756              	.LBE92:
 1757              	.LBE89:
 1758              		.cfi_endproc
 1759              	.LFE8:
 1760              		.size	put_fat, .-put_fat
 1761 010c AFF30080 		.section	.text.create_chain,"ax",%progbits
 1762              		.align	2
 1763              		.p2align 4,,15
 1764              		.thumb
 1765              		.thumb_func
 1766              		.type	create_chain, %function
 1767              	create_chain:
 1768              	.LFB10:
 1769              		.loc 1 976 0
 1770              		.cfi_startproc
 1771              		@ args = 0, pretend = 0, frame = 0
 1772              		@ frame_needed = 0, uses_anonymous_args = 0
 1773              	.LVL223:
 1774 0000 F8B5     		push	{r3, r4, r5, r6, r7, lr}
 1775              	.LCFI12:
 1776              		.cfi_def_cfa_offset 24
 1777              		.cfi_offset 3, -24
 1778              		.cfi_offset 4, -20
 1779              		.cfi_offset 5, -16
 1780              		.cfi_offset 6, -12
 1781              		.cfi_offset 7, -8
 1782              		.cfi_offset 14, -4
 1783              		.loc 1 976 0
 1784 0002 0646     		mov	r6, r0
 1785              		.loc 1 981 0
 1786 0004 0F46     		mov	r7, r1
 1787 0006 01BB     		cbnz	r1, .L181
 1788              		.loc 1 982 0
 1789 0008 C568     		ldr	r5, [r0, #12]
 1790              	.LVL224:
 1791 000a 8369     		ldr	r3, [r0, #24]
 1792              		.loc 1 983 0
 1793 000c BDB9     		cbnz	r5, .L182
 1794 000e 0125     		movs	r5, #1
 1795              	.LVL225:
 1796              	.L183:
 1797 0010 2C46     		mov	r4, r5
 1798 0012 00E0     		b	.L188
 1799              	.LVL226:
 1800              	.L199:
 1801 0014 B369     		ldr	r3, [r6, #24]
 1802              	.LVL227:
 1803              	.L188:
 1804              		.loc 1 994 0
 1805 0016 0134     		adds	r4, r4, #1
 1806              	.LVL228:
 1807              		.loc 1 995 0
 1808 0018 9C42     		cmp	r4, r3
 1809 001a 02D3     		bcc	.L185
 1810              		.loc 1 997 0
ARM GAS  /var/folders/dt/0wfd0knj7gs46m8vwfzktm600000gn/T//cczoWvr4.s 			page 33


 1811 001c 012D     		cmp	r5, #1
 1812 001e 0CD9     		bls	.L187
 1813              		.loc 1 996 0
 1814 0020 0224     		movs	r4, #2
 1815              	.LVL229:
 1816              	.L185:
 1817              		.loc 1 999 0
 1818 0022 3046     		mov	r0, r6
 1819 0024 2146     		mov	r1, r4
 1820 0026 FFF7FEFF 		bl	get_fat
 1821              	.LVL230:
 1822              		.loc 1 1000 0
 1823 002a B8B1     		cbz	r0, .L186
 1824              		.loc 1 1001 0
 1825 002c B0F1FF3F 		cmp	r0, #-1
 1826 0030 18BF     		it	ne
 1827 0032 0128     		cmpne	r0, #1
 1828 0034 08D0     		beq	.L184
 1829              		.loc 1 1003 0
 1830 0036 AC42     		cmp	r4, r5
 1831 0038 ECD1     		bne	.L199
 1832              	.LVL231:
 1833              	.L187:
 1834              		.loc 1 997 0
 1835 003a 0020     		movs	r0, #0
 1836 003c F8BD     		pop	{r3, r4, r5, r6, r7, pc}
 1837              	.LVL232:
 1838              	.L182:
 1839              		.loc 1 983 0 discriminator 2
 1840 003e 9D42     		cmp	r5, r3
 1841 0040 28BF     		it	cs
 1842 0042 0125     		movcs	r5, #1
 1843              	.LVL233:
 1844 0044 E4E7     		b	.L183
 1845              	.LVL234:
 1846              	.L194:
 1847              		.loc 1 1012 0
 1848 0046 2046     		mov	r0, r4
 1849              	.LVL235:
 1850              	.L184:
 1851              		.loc 1 1021 0
 1852 0048 F8BD     		pop	{r3, r4, r5, r6, r7, pc}
 1853              	.LVL236:
 1854              	.L181:
 1855              		.loc 1 986 0
 1856 004a FFF7FEFF 		bl	get_fat
 1857              	.LVL237:
 1858              		.loc 1 987 0
 1859 004e 0128     		cmp	r0, #1
 1860 0050 1DD9     		bls	.L192
 1861              		.loc 1 988 0
 1862 0052 B369     		ldr	r3, [r6, #24]
 1863 0054 9842     		cmp	r0, r3
 1864 0056 F7D3     		bcc	.L184
 1865 0058 3D46     		mov	r5, r7
 1866 005a D9E7     		b	.L183
 1867              	.LVL238:
ARM GAS  /var/folders/dt/0wfd0knj7gs46m8vwfzktm600000gn/T//cczoWvr4.s 			page 34


 1868              	.L186:
 1869              		.loc 1 1006 0
 1870 005c 3046     		mov	r0, r6
 1871              	.LVL239:
 1872 005e 2146     		mov	r1, r4
 1873 0060 6FF07042 		mvn	r2, #-268435456
 1874 0064 FFF7FEFF 		bl	put_fat
 1875              	.LVL240:
 1876              		.loc 1 1007 0
 1877 0068 D0F10103 		rsbs	r3, r0, #1
 1878 006c 38BF     		it	cc
 1879 006e 0023     		movcc	r3, #0
 1880 0070 002F     		cmp	r7, #0
 1881 0072 08BF     		it	eq
 1882 0074 0023     		moveq	r3, #0
 1883 0076 93B9     		cbnz	r3, .L200
 1884              		.loc 1 1010 0
 1885 0078 58B9     		cbnz	r0, .L190
 1886              	.LVL241:
 1887              	.L201:
 1888              		.loc 1 1012 0
 1889 007a 3369     		ldr	r3, [r6, #16]
 1890              		.loc 1 1011 0
 1891 007c F460     		str	r4, [r6, #12]
 1892              		.loc 1 1012 0
 1893 007e 5A1C     		adds	r2, r3, #1
 1894 0080 E1D0     		beq	.L194
 1895              		.loc 1 1013 0
 1896 0082 013B     		subs	r3, r3, #1
 1897 0084 3361     		str	r3, [r6, #16]
 1898              		.loc 1 1014 0
 1899 0086 0123     		movs	r3, #1
 1900 0088 7371     		strb	r3, [r6, #5]
 1901 008a 2046     		mov	r0, r4
 1902 008c F8BD     		pop	{r3, r4, r5, r6, r7, pc}
 1903              	.LVL242:
 1904              	.L192:
 1905              		.loc 1 987 0
 1906 008e 0120     		movs	r0, #1
 1907              	.LVL243:
 1908 0090 F8BD     		pop	{r3, r4, r5, r6, r7, pc}
 1909              	.LVL244:
 1910              	.L190:
 1911              		.loc 1 1017 0
 1912 0092 0128     		cmp	r0, #1
 1913 0094 14BF     		ite	ne
 1914 0096 0120     		movne	r0, #1
 1915 0098 4FF0FF30 		moveq	r0, #-1
 1916 009c F8BD     		pop	{r3, r4, r5, r6, r7, pc}
 1917              	.LVL245:
 1918              	.L200:
 1919              		.loc 1 1008 0
 1920 009e 3046     		mov	r0, r6
 1921              	.LVL246:
 1922 00a0 3946     		mov	r1, r7
 1923 00a2 2246     		mov	r2, r4
 1924 00a4 FFF7FEFF 		bl	put_fat
ARM GAS  /var/folders/dt/0wfd0knj7gs46m8vwfzktm600000gn/T//cczoWvr4.s 			page 35


 1925              	.LVL247:
 1926              		.loc 1 1010 0
 1927 00a8 0028     		cmp	r0, #0
 1928 00aa F2D1     		bne	.L190
 1929 00ac E5E7     		b	.L201
 1930              		.cfi_endproc
 1931              	.LFE10:
 1932              		.size	create_chain, .-create_chain
 1933 00ae 00BF     		.section	.text.dir_next,"ax",%progbits
 1934              		.align	2
 1935              		.p2align 4,,15
 1936              		.thumb
 1937              		.thumb_func
 1938              		.type	dir_next, %function
 1939              	dir_next:
 1940              	.LFB12:
 1941              		.loc 1 1111 0
 1942              		.cfi_startproc
 1943              		@ args = 0, pretend = 0, frame = 0
 1944              		@ frame_needed = 0, uses_anonymous_args = 0
 1945              	.LVL248:
 1946 0000 2DE9F047 		push	{r4, r5, r6, r7, r8, r9, sl, lr}
 1947              	.LCFI13:
 1948              		.cfi_def_cfa_offset 32
 1949              		.cfi_offset 4, -32
 1950              		.cfi_offset 5, -28
 1951              		.cfi_offset 6, -24
 1952              		.cfi_offset 7, -20
 1953              		.cfi_offset 8, -16
 1954              		.cfi_offset 9, -12
 1955              		.cfi_offset 10, -8
 1956              		.cfi_offset 14, -4
 1957              		.loc 1 1116 0
 1958 0004 C588     		ldrh	r5, [r0, #6]
 1959              		.loc 1 1111 0
 1960 0006 0446     		mov	r4, r0
 1961              		.loc 1 1116 0
 1962 0008 0135     		adds	r5, r5, #1
 1963 000a ADB2     		uxth	r5, r5
 1964              	.LVL249:
 1965              		.loc 1 1111 0
 1966 000c 0E46     		mov	r6, r1
 1967              		.loc 1 1117 0
 1968 000e 15B9     		cbnz	r5, .L203
 1969              	.LVL250:
 1970              	.L205:
 1971              	.LBB93:
 1972              	.LBB94:
 1973              		.loc 1 1118 0
 1974 0010 0420     		movs	r0, #4
 1975 0012 BDE8F087 		pop	{r4, r5, r6, r7, r8, r9, sl, pc}
 1976              	.LVL251:
 1977              	.L203:
 1978              	.LBE94:
 1979              	.LBE93:
 1980              		.loc 1 1117 0 discriminator 1
 1981 0016 0369     		ldr	r3, [r0, #16]
ARM GAS  /var/folders/dt/0wfd0knj7gs46m8vwfzktm600000gn/T//cczoWvr4.s 			page 36


 1982 0018 002B     		cmp	r3, #0
 1983 001a F9D0     		beq	.L205
 1984              		.loc 1 1120 0
 1985 001c 15F00F07 		ands	r7, r5, #15
 1986 0020 08D0     		beq	.L206
 1987 0022 0068     		ldr	r0, [r0, #0]
 1988              	.LVL252:
 1989              	.L207:
 1990              		.loc 1 1161 0
 1991 0024 00EB4713 		add	r3, r0, r7, lsl #5
 1992 0028 3033     		adds	r3, r3, #48
 1993              		.loc 1 1160 0
 1994 002a E580     		strh	r5, [r4, #6]	@ movhi
 1995              		.loc 1 1161 0
 1996 002c 6361     		str	r3, [r4, #20]
 1997              		.loc 1 1163 0
 1998 002e 0020     		movs	r0, #0
 1999 0030 BDE8F087 		pop	{r4, r5, r6, r7, r8, r9, sl, pc}
 2000              	.LVL253:
 2001              	.L206:
 2002              		.loc 1 1123 0
 2003 0034 C168     		ldr	r1, [r0, #12]
 2004              	.LVL254:
 2005              		.loc 1 1121 0
 2006 0036 0133     		adds	r3, r3, #1
 2007 0038 0361     		str	r3, [r0, #16]
 2008              		.loc 1 1124 0
 2009 003a 0068     		ldr	r0, [r0, #0]
 2010              	.LVL255:
 2011              		.loc 1 1123 0
 2012 003c E9B1     		cbz	r1, .L237
 2013              		.loc 1 1128 0
 2014 003e 8278     		ldrb	r2, [r0, #2]	@ zero_extendqisi2
 2015 0040 013A     		subs	r2, r2, #1
 2016 0042 12EA1512 		ands	r2, r2, r5, lsr #4
 2017 0046 EDD1     		bne	.L207
 2018              		.loc 1 1129 0
 2019 0048 FFF7FEFF 		bl	get_fat
 2020              	.LVL256:
 2021              		.loc 1 1130 0
 2022 004c 0128     		cmp	r0, #1
 2023              		.loc 1 1129 0
 2024 004e 8046     		mov	r8, r0
 2025              	.LVL257:
 2026              		.loc 1 1130 0
 2027 0050 17D9     		bls	.L212
 2028              		.loc 1 1131 0
 2029 0052 B0F1FF3F 		cmp	r0, #-1
 2030 0056 63D0     		beq	.L213
 2031              		.loc 1 1132 0
 2032 0058 2068     		ldr	r0, [r4, #0]
 2033              	.LVL258:
 2034 005a 8269     		ldr	r2, [r0, #24]
 2035 005c 9045     		cmp	r8, r2
 2036 005e 38BF     		it	cc
 2037 0060 A8F10206 		subcc	r6, r8, #2
 2038              	.LVL259:
ARM GAS  /var/folders/dt/0wfd0knj7gs46m8vwfzktm600000gn/T//cczoWvr4.s 			page 37


 2039 0064 4FD3     		bcc	.L211
 2040              	.LBB97:
 2041              		.loc 1 1135 0
 2042 0066 002E     		cmp	r6, #0
 2043 0068 D2D0     		beq	.L205
 2044              		.loc 1 1136 0
 2045 006a E168     		ldr	r1, [r4, #12]
 2046 006c FFF7FEFF 		bl	create_chain
 2047              	.LVL260:
 2048              		.loc 1 1137 0
 2049 0070 8046     		mov	r8, r0
 2050 0072 48B9     		cbnz	r0, .L238
 2051 0074 0720     		movs	r0, #7
 2052              	.LVL261:
 2053              	.LBE97:
 2054              		.loc 1 1164 0
 2055 0076 BDE8F087 		pop	{r4, r5, r6, r7, r8, r9, sl, pc}
 2056              	.LVL262:
 2057              	.L237:
 2058              		.loc 1 1124 0
 2059 007a 0289     		ldrh	r2, [r0, #8]
 2060 007c AA42     		cmp	r2, r5
 2061 007e C7D9     		bls	.L205
 2062 0080 D0E7     		b	.L207
 2063              	.LVL263:
 2064              	.L212:
 2065              		.loc 1 1130 0
 2066 0082 0220     		movs	r0, #2
 2067              	.LVL264:
 2068 0084 BDE8F087 		pop	{r4, r5, r6, r7, r8, r9, sl, pc}
 2069              	.LVL265:
 2070              	.L238:
 2071              	.LBB108:
 2072              		.loc 1 1138 0
 2073 0088 0128     		cmp	r0, #1
 2074 008a FAD0     		beq	.L212
 2075              		.loc 1 1139 0
 2076 008c B0F1FF3F 		cmp	r0, #-1
 2077 0090 46D0     		beq	.L213
 2078              		.loc 1 1141 0
 2079 0092 2068     		ldr	r0, [r4, #0]
 2080              	.LVL266:
 2081 0094 0021     		movs	r1, #0
 2082 0096 FFF7FEFF 		bl	move_window
 2083              	.LVL267:
 2084 009a 0028     		cmp	r0, #0
 2085 009c 40D1     		bne	.L213
 2086              		.loc 1 1142 0
 2087 009e 2268     		ldr	r2, [r4, #0]
 2088              	.LBB98:
 2089              	.LBB99:
 2090              		.loc 1 542 0
 2091 00a0 0146     		mov	r1, r0
 2092              	.LBE99:
 2093              	.LBE98:
 2094              		.loc 1 1142 0
 2095 00a2 02F13003 		add	r3, r2, #48
ARM GAS  /var/folders/dt/0wfd0knj7gs46m8vwfzktm600000gn/T//cczoWvr4.s 			page 38


 2096              	.LVL268:
 2097              		.loc 1 1107 0
 2098 00a6 02F50C72 		add	r2, r2, #560
 2099              	.LVL269:
 2100              	.L214:
 2101              	.LBB101:
 2102              	.LBB100:
 2103              		.loc 1 542 0
 2104 00aa 03F8011B 		strb	r1, [r3], #1
 2105              	.LVL270:
 2106              		.loc 1 541 0
 2107 00ae 9342     		cmp	r3, r2
 2108 00b0 FBD1     		bne	.L214
 2109              	.LBE100:
 2110              	.LBE101:
 2111              		.loc 1 1143 0
 2112 00b2 2268     		ldr	r2, [r4, #0]
 2113              	.LVL271:
 2114              	.LBB102:
 2115              	.LBB103:
 2116              		.loc 1 800 0
 2117 00b4 A8F10206 		sub	r6, r8, #2
 2118              	.LVL272:
 2119              		.loc 1 801 0
 2120 00b8 9369     		ldr	r3, [r2, #24]
 2121              	.LVL273:
 2122              	.LBE103:
 2123              	.LBE102:
 2124              		.loc 1 1144 0
 2125 00ba 4FF00009 		mov	r9, #0
 2126              	.LBB106:
 2127              	.LBB104:
 2128              		.loc 1 801 0
 2129 00be 023B     		subs	r3, r3, #2
 2130 00c0 9E42     		cmp	r6, r3
 2131              		.loc 1 802 0
 2132 00c2 3CBF     		itt	cc
 2133 00c4 936A     		ldrcc	r3, [r2, #40]
 2134 00c6 9178     		ldrbcc	r1, [r2, #2]	@ zero_extendqisi2
 2135              	.LBE104:
 2136              	.LBE106:
 2137              		.loc 1 1145 0
 2138 00c8 4FF0010A 		mov	sl, #1
 2139              	.LBB107:
 2140              	.LBB105:
 2141              		.loc 1 802 0
 2142 00cc 34BF     		ite	cc
 2143 00ce 01FB0633 		mlacc	r3, r1, r6, r3
 2144              		.loc 1 801 0
 2145 00d2 0023     		movcs	r3, #0
 2146              	.LBE105:
 2147              	.LBE107:
 2148              		.loc 1 1143 0
 2149 00d4 D362     		str	r3, [r2, #44]
 2150              	.LVL274:
 2151              		.loc 1 1144 0
 2152 00d6 0DE0     		b	.L216
ARM GAS  /var/folders/dt/0wfd0knj7gs46m8vwfzktm600000gn/T//cczoWvr4.s 			page 39


 2153              	.LVL275:
 2154              	.L217:
 2155              		.loc 1 1145 0
 2156 00d8 82F804A0 		strb	sl, [r2, #4]
 2157              		.loc 1 1146 0
 2158 00dc 2068     		ldr	r0, [r4, #0]
 2159 00de FFF7FEFF 		bl	move_window
 2160              	.LVL276:
 2161              		.loc 1 1144 0
 2162 00e2 09F10109 		add	r9, r9, #1
 2163              	.LVL277:
 2164              		.loc 1 1146 0
 2165 00e6 D8B9     		cbnz	r0, .L213
 2166              		.loc 1 1147 0
 2167 00e8 2268     		ldr	r2, [r4, #0]
 2168              		.loc 1 1144 0
 2169 00ea 5FFA89F9 		uxtb	r9, r9
 2170              	.LVL278:
 2171              		.loc 1 1147 0
 2172 00ee D36A     		ldr	r3, [r2, #44]
 2173 00f0 0133     		adds	r3, r3, #1
 2174 00f2 D362     		str	r3, [r2, #44]
 2175              	.LVL279:
 2176              	.L216:
 2177              		.loc 1 1144 0 discriminator 1
 2178 00f4 9378     		ldrb	r3, [r2, #2]	@ zero_extendqisi2
 2179              		.loc 1 1146 0 discriminator 1
 2180 00f6 0021     		movs	r1, #0
 2181              		.loc 1 1144 0 discriminator 1
 2182 00f8 4B45     		cmp	r3, r9
 2183 00fa 1046     		mov	r0, r2
 2184 00fc ECD8     		bhi	.L217
 2185              		.loc 1 1149 0
 2186 00fe D26A     		ldr	r2, [r2, #44]
 2187 0100 C9EB0202 		rsb	r2, r9, r2
 2188 0104 C262     		str	r2, [r0, #44]
 2189              	.LVL280:
 2190              	.L211:
 2191              	.LBE108:
 2192              	.LBB109:
 2193              	.LBB95:
 2194              		.loc 1 801 0
 2195 0106 8269     		ldr	r2, [r0, #24]
 2196              	.LBE95:
 2197              	.LBE109:
 2198              		.loc 1 1154 0
 2199 0108 C4F80C80 		str	r8, [r4, #12]
 2200              	.LVL281:
 2201              	.LBB110:
 2202              	.LBB96:
 2203              		.loc 1 801 0
 2204 010c 023A     		subs	r2, r2, #2
 2205 010e 9642     		cmp	r6, r2
 2206              		.loc 1 802 0
 2207 0110 3DBF     		ittte	cc
 2208 0112 8178     		ldrbcc	r1, [r0, #2]	@ zero_extendqisi2
 2209 0114 826A     		ldrcc	r2, [r0, #40]
ARM GAS  /var/folders/dt/0wfd0knj7gs46m8vwfzktm600000gn/T//cczoWvr4.s 			page 40


 2210 0116 01FB0626 		mlacc	r6, r1, r6, r2
 2211              	.LVL282:
 2212              		.loc 1 801 0
 2213 011a 0026     		movcs	r6, #0
 2214              	.LBE96:
 2215              	.LBE110:
 2216              		.loc 1 1155 0
 2217 011c 2661     		str	r6, [r4, #16]
 2218 011e 81E7     		b	.L207
 2219              	.LVL283:
 2220              	.L213:
 2221              		.loc 1 1131 0
 2222 0120 0120     		movs	r0, #1
 2223 0122 BDE8F087 		pop	{r4, r5, r6, r7, r8, r9, sl, pc}
 2224              		.cfi_endproc
 2225              	.LFE12:
 2226              		.size	dir_next, .-dir_next
 2227 0126 00BFAFF3 		.section	.text.follow_path,"ax",%progbits
 2227      0080AFF3 
 2227      0080
 2228              		.align	2
 2229              		.p2align 4,,15
 2230              		.thumb
 2231              		.thumb_func
 2232              		.type	follow_path, %function
 2233              	follow_path:
 2234              	.LFB19:
 2235              		.loc 1 1916 0
 2236              		.cfi_startproc
 2237              		@ args = 0, pretend = 0, frame = 0
 2238              		@ frame_needed = 0, uses_anonymous_args = 0
 2239              	.LVL284:
 2240 0000 2DE9F047 		push	{r4, r5, r6, r7, r8, r9, sl, lr}
 2241              	.LCFI14:
 2242              		.cfi_def_cfa_offset 32
 2243              		.cfi_offset 4, -32
 2244              		.cfi_offset 5, -28
 2245              		.cfi_offset 6, -24
 2246              		.cfi_offset 7, -20
 2247              		.cfi_offset 8, -16
 2248              		.cfi_offset 9, -12
 2249              		.cfi_offset 10, -8
 2250              		.cfi_offset 14, -4
 2251              		.loc 1 1928 0
 2252 0004 0B78     		ldrb	r3, [r1, #0]	@ zero_extendqisi2
 2253              		.loc 1 1916 0
 2254 0006 0D46     		mov	r5, r1
 2255              		.loc 1 1928 0
 2256 0008 2F2B     		cmp	r3, #47
 2257 000a 18BF     		it	ne
 2258 000c 5C2B     		cmpne	r3, #92
 2259              		.loc 1 1929 0
 2260 000e 08BF     		it	eq
 2261 0010 4D1C     		addeq	r5, r1, #1
 2262              	.LVL285:
 2263              		.loc 1 1930 0
 2264 0012 0024     		movs	r4, #0
ARM GAS  /var/folders/dt/0wfd0knj7gs46m8vwfzktm600000gn/T//cczoWvr4.s 			page 41


 2265 0014 8460     		str	r4, [r0, #8]
 2266              		.loc 1 1933 0
 2267 0016 2B78     		ldrb	r3, [r5, #0]	@ zero_extendqisi2
 2268              		.loc 1 1916 0
 2269 0018 0646     		mov	r6, r0
 2270              		.loc 1 1933 0
 2271 001a 1F2B     		cmp	r3, #31
 2272 001c 40F20581 		bls	.L301
 2273 0020 D0F818C0 		ldr	ip, [r0, #24]
 2274              	.LBB121:
 2275              	.LBB122:
 2276              	.LBB123:
 2277              	.LBB124:
 2278              		.loc 1 542 0
 2279 0024 2027     		movs	r7, #32
 2280 0026 0CF10B04 		add	r4, ip, #11
 2281              	.LVL286:
 2282              	.L268:
 2283              	.LBE124:
 2284              	.LBE123:
 2285              		.loc 1 1752 0
 2286 002a 5C2B     		cmp	r3, #92
 2287 002c 18BF     		it	ne
 2288 002e 2F2B     		cmpne	r3, #47
 2289 0030 07D1     		bne	.L243
 2290              		.loc 1 1912 0
 2291 0032 6B1C     		adds	r3, r5, #1
 2292              	.LVL287:
 2293              	.L244:
 2294              		.loc 1 1752 0
 2295 0034 1D46     		mov	r5, r3
 2296              	.LVL288:
 2297 0036 13F8012B 		ldrb	r2, [r3], #1	@ zero_extendqisi2
 2298              	.LVL289:
 2299 003a 2F2A     		cmp	r2, #47
 2300 003c 18BF     		it	ne
 2301 003e 5C2A     		cmpne	r2, #92
 2302 0040 F8D0     		beq	.L244
 2303              	.L243:
 2304              	.LVL290:
 2305              	.LBE122:
 2306              	.LBE121:
 2307              		.loc 1 1912 0
 2308 0042 6346     		mov	r3, ip
 2309              	.LVL291:
 2310              	.L245:
 2311              	.LBB133:
 2312              	.LBB129:
 2313              	.LBB126:
 2314              	.LBB125:
 2315              		.loc 1 542 0
 2316 0044 03F8017B 		strb	r7, [r3], #1
 2317              	.LVL292:
 2318              		.loc 1 541 0
 2319 0048 A342     		cmp	r3, r4
 2320 004a FBD1     		bne	.L245
 2321 004c 0020     		movs	r0, #0
ARM GAS  /var/folders/dt/0wfd0knj7gs46m8vwfzktm600000gn/T//cczoWvr4.s 			page 42


 2322 004e 0246     		mov	r2, r0
 2323 0050 0824     		movs	r4, #8
 2324 0052 8146     		mov	r9, r0
 2325              	.LVL293:
 2326              	.L298:
 2327              	.LBE125:
 2328              	.LBE126:
 2329              		.loc 1 1770 0
 2330 0054 AB5C     		ldrb	r3, [r5, r2]	@ zero_extendqisi2
 2331              	.LVL294:
 2332 0056 02F10108 		add	r8, r2, #1
 2333              	.LVL295:
 2334              		.loc 1 1771 0
 2335 005a 2F2B     		cmp	r3, #47
 2336 005c 18BF     		it	ne
 2337 005e 202B     		cmpne	r3, #32
 2338 0060 3DD9     		bls	.L247
 2339              	.LVL296:
 2340              	.L303:
 2341 0062 5C2B     		cmp	r3, #92
 2342 0064 00F0B780 		beq	.L248
 2343              		.loc 1 1772 0
 2344 0068 2E2B     		cmp	r3, #46
 2345 006a 18BF     		it	ne
 2346 006c A042     		cmpne	r0, r4
 2347 006e 07D3     		bcc	.L249
 2348              		.loc 1 1773 0
 2349 0070 082C     		cmp	r4, #8
 2350 0072 08BF     		it	eq
 2351 0074 2E2B     		cmpeq	r3, #46
 2352 0076 00F0A680 		beq	.L302
 2353              	.LVL297:
 2354              	.L279:
 2355              		.loc 1 1809 0
 2356 007a 0620     		movs	r0, #6
 2357              	.LVL298:
 2358 007c BDE8F087 		pop	{r4, r5, r6, r7, r8, r9, sl, pc}
 2359              	.LVL299:
 2360              	.L249:
 2361              		.loc 1 1777 0
 2362 0080 1906     		lsls	r1, r3, #24
 2363              		.loc 1 1787 0
 2364 0082 03F1200A 		add	sl, r3, #32
 2365 0086 03F17F01 		add	r1, r3, #127
 2366 008a 5FFA8AFA 		uxtb	sl, sl
 2367 008e C9B2     		uxtb	r1, r1
 2368              		.loc 1 1778 0
 2369 0090 48BF     		it	mi
 2370 0092 49F00309 		orrmi	r9, r9, #3
 2371              	.LVL300:
 2372              		.loc 1 1787 0
 2373 0096 1E29     		cmp	r1, #30
 2374 0098 88BF     		it	hi
 2375 009a BAF11C0F 		cmphi	sl, #28
 2376 009e 72D8     		bhi	.L252
 2377              		.loc 1 1788 0
 2378 00a0 15F80810 		ldrb	r1, [r5, r8]	@ zero_extendqisi2
ARM GAS  /var/folders/dt/0wfd0knj7gs46m8vwfzktm600000gn/T//cczoWvr4.s 			page 43


 2379              	.LVL301:
 2380 00a4 0232     		adds	r2, r2, #2
 2381              	.LVL302:
 2382              		.loc 1 1789 0
 2383 00a6 81F0800A 		eor	sl, r1, #128
 2384 00aa A1F14008 		sub	r8, r1, #64
 2385              	.LVL303:
 2386 00ae BAF17C0F 		cmp	sl, #124
 2387 00b2 88BF     		it	hi
 2388 00b4 B8F13E0F 		cmphi	r8, #62
 2389 00b8 DFD8     		bhi	.L279
 2390 00ba 04F1FF38 		add	r8, r4, #-1
 2391 00be 4045     		cmp	r0, r8
 2392 00c0 DBD2     		bcs	.L279
 2393              		.loc 1 1792 0
 2394 00c2 0CEB0008 		add	r8, ip, r0
 2395              		.loc 1 1791 0
 2396 00c6 0CF80030 		strb	r3, [ip, r0]
 2397              	.LVL304:
 2398              		.loc 1 1792 0
 2399 00ca 88F80110 		strb	r1, [r8, #1]
 2400              		.loc 1 1770 0
 2401 00ce AB5C     		ldrb	r3, [r5, r2]	@ zero_extendqisi2
 2402              		.loc 1 1792 0
 2403 00d0 0230     		adds	r0, r0, #2
 2404              	.LVL305:
 2405              		.loc 1 1771 0
 2406 00d2 2F2B     		cmp	r3, #47
 2407 00d4 18BF     		it	ne
 2408 00d6 202B     		cmpne	r3, #32
 2409              		.loc 1 1770 0
 2410 00d8 02F10108 		add	r8, r2, #1
 2411              	.LVL306:
 2412              		.loc 1 1771 0
 2413 00dc C1D8     		bhi	.L303
 2414              	.LVL307:
 2415              	.L247:
 2416              		.loc 1 1807 0
 2417 00de 202B     		cmp	r3, #32
 2418              		.loc 1 1806 0
 2419 00e0 4544     		add	r5, r5, r8
 2420              	.LVL308:
 2421              		.loc 1 1807 0
 2422 00e2 79D8     		bhi	.L271
 2423 00e4 0423     		movs	r3, #4
 2424              	.L256:
 2425              	.LVL309:
 2426              		.loc 1 1809 0
 2427 00e6 0028     		cmp	r0, #0
 2428 00e8 C7D0     		beq	.L279
 2429              		.loc 1 1810 0
 2430 00ea 9CF80020 		ldrb	r2, [ip, #0]	@ zero_extendqisi2
 2431 00ee E52A     		cmp	r2, #229
 2432 00f0 00F0A480 		beq	.L304
 2433              	.L257:
 2434              		.loc 1 1812 0
 2435 00f4 082C     		cmp	r4, #8
ARM GAS  /var/folders/dt/0wfd0knj7gs46m8vwfzktm600000gn/T//cczoWvr4.s 			page 44


 2436 00f6 04BF     		itt	eq
 2437 00f8 4FEA8909 		lsleq	r9, r9, #2
 2438 00fc 5FFA89F9 		uxtbeq	r9, r9
 2439              	.LVL310:
 2440              		.loc 1 1813 0
 2441 0100 09F00302 		and	r2, r9, #3
 2442 0104 012A     		cmp	r2, #1
 2443              		.loc 1 1814 0
 2444 0106 09F00C09 		and	r9, r9, #12
 2445              	.LVL311:
 2446              		.loc 1 1813 0
 2447 010a 08BF     		it	eq
 2448 010c 43F01003 		orreq	r3, r3, #16
 2449              	.LVL312:
 2450              		.loc 1 1814 0
 2451 0110 B9F1040F 		cmp	r9, #4
 2452 0114 08BF     		it	eq
 2453 0116 43F00803 		orreq	r3, r3, #8
 2454              	.LVL313:
 2455              		.loc 1 1816 0
 2456 011a 8CF80B30 		strb	r3, [ip, #11]
 2457              	.LVL314:
 2458              	.LBE129:
 2459              	.LBE133:
 2460              	.LBB134:
 2461              	.LBB135:
 2462              		.loc 1 1356 0
 2463 011e 3046     		mov	r0, r6
 2464              	.LVL315:
 2465 0120 0021     		movs	r1, #0
 2466 0122 FFF7FEFF 		bl	dir_sdi
 2467              	.LVL316:
 2468              		.loc 1 1357 0
 2469 0126 40BB     		cbnz	r0, .L261
 2470              	.LVL317:
 2471              	.L289:
 2472              		.loc 1 1363 0
 2473 0128 3068     		ldr	r0, [r6, #0]
 2474              	.LVL318:
 2475 012a 3169     		ldr	r1, [r6, #16]
 2476 012c FFF7FEFF 		bl	move_window
 2477              	.LVL319:
 2478              		.loc 1 1364 0
 2479 0130 18BB     		cbnz	r0, .L261
 2480              		.loc 1 1365 0
 2481 0132 D6F81490 		ldr	r9, [r6, #20]
 2482              	.LVL320:
 2483              		.loc 1 1366 0
 2484 0136 99F80020 		ldrb	r2, [r9, #0]	@ zero_extendqisi2
 2485              	.LVL321:
 2486              		.loc 1 1367 0
 2487 013a 002A     		cmp	r2, #0
 2488 013c 4ED0     		beq	.L262
 2489              		.loc 1 1390 0
 2490 013e 99F80BA0 		ldrb	sl, [r9, #11]	@ zero_extendqisi2
 2491 0142 0AF00803 		and	r3, sl, #8
 2492 0146 DBB2     		uxtb	r3, r3
ARM GAS  /var/folders/dt/0wfd0knj7gs46m8vwfzktm600000gn/T//cczoWvr4.s 			page 45


 2493 0148 8BB9     		cbnz	r3, .L263
 2494 014a D6F818C0 		ldr	ip, [r6, #24]
 2495              	.LVL322:
 2496 014e C846     		mov	r8, r9
 2497              	.LBE135:
 2498              	.LBE134:
 2499              	.LBB141:
 2500              	.LBB130:
 2501 0150 6346     		mov	r3, ip
 2502              	.LBE130:
 2503              	.LBE141:
 2504              	.LBB142:
 2505              	.LBB140:
 2506              	.LBB136:
 2507              	.LBB137:
 2508              		.loc 1 551 0
 2509 0152 13F8011B 		ldrb	r1, [r3], #1	@ zero_extendqisi2
 2510              	.LVL323:
 2511              	.LBE137:
 2512              	.LBE136:
 2513              		.loc 1 1912 0
 2514 0156 0CF10B04 		add	r4, ip, #11
 2515              	.LBB139:
 2516              	.LBB138:
 2517              		.loc 1 551 0
 2518 015a 9142     		cmp	r1, r2
 2519 015c 07D1     		bne	.L263
 2520              	.LVL324:
 2521              	.L266:
 2522 015e A342     		cmp	r3, r4
 2523 0160 47D0     		beq	.L265
 2524 0162 18F8012F 		ldrb	r2, [r8, #1]!	@ zero_extendqisi2
 2525              	.LVL325:
 2526 0166 13F8011B 		ldrb	r1, [r3], #1	@ zero_extendqisi2
 2527              	.LVL326:
 2528 016a 9142     		cmp	r1, r2
 2529 016c F7D0     		beq	.L266
 2530              	.LVL327:
 2531              	.L263:
 2532              	.LBE138:
 2533              	.LBE139:
 2534              		.loc 1 1393 0
 2535 016e 3046     		mov	r0, r6
 2536              	.LVL328:
 2537 0170 0021     		movs	r1, #0
 2538 0172 FFF7FEFF 		bl	dir_next
 2539              	.LVL329:
 2540              		.loc 1 1394 0
 2541 0176 0028     		cmp	r0, #0
 2542 0178 D6D0     		beq	.L289
 2543              	.LVL330:
 2544              	.L261:
 2545              	.LBE140:
 2546              	.LBE142:
 2547              		.loc 1 1942 0
 2548 017a B369     		ldr	r3, [r6, #24]
 2549              		.loc 1 1944 0
ARM GAS  /var/folders/dt/0wfd0knj7gs46m8vwfzktm600000gn/T//cczoWvr4.s 			page 46


 2550 017c 0428     		cmp	r0, #4
 2551              		.loc 1 1942 0
 2552 017e DB7A     		ldrb	r3, [r3, #11]	@ zero_extendqisi2
 2553              	.LVL331:
 2554              		.loc 1 1944 0
 2555 0180 2ED0     		beq	.L273
 2556              		.loc 1 1965 0
 2557 0182 BDE8F087 		pop	{r4, r5, r6, r7, r8, r9, sl, pc}
 2558              	.LVL332:
 2559              	.L252:
 2560              	.LBB143:
 2561              	.LBB131:
 2562              	.LBB127:
 2563              	.LBB128:
 2564              		.loc 1 558 0
 2565 0186 222B     		cmp	r3, #34
 2566 0188 3FF477AF 		beq	.L279
 2567 018c 2E49     		ldr	r1, .L307
 2568 018e 02E0     		b	.L254
 2569              	.LVL333:
 2570              	.L305:
 2571 0190 9342     		cmp	r3, r2
 2572 0192 3FF472AF 		beq	.L279
 2573              	.L254:
 2574 0196 11F8012F 		ldrb	r2, [r1, #1]!	@ zero_extendqisi2
 2575 019a 002A     		cmp	r2, #0
 2576 019c F8D1     		bne	.L305
 2577              	.LBE128:
 2578              	.LBE127:
 2579              		.loc 1 1796 0
 2580 019e A3F14102 		sub	r2, r3, #65
 2581 01a2 192A     		cmp	r2, #25
 2582              		.loc 1 1797 0
 2583 01a4 98BF     		it	ls
 2584 01a6 49F00209 		orrls	r9, r9, #2
 2585              	.LVL334:
 2586              		.loc 1 1796 0
 2587 01aa 07D9     		bls	.L255
 2588              		.loc 1 1799 0
 2589 01ac A3F16102 		sub	r2, r3, #97
 2590 01b0 192A     		cmp	r2, #25
 2591 01b2 03D8     		bhi	.L255
 2592              		.loc 1 1800 0
 2593 01b4 203B     		subs	r3, r3, #32
 2594              	.LVL335:
 2595 01b6 49F00109 		orr	r9, r9, #1
 2596              	.LVL336:
 2597 01ba DBB2     		uxtb	r3, r3
 2598              	.LVL337:
 2599              	.L255:
 2600              		.loc 1 1803 0
 2601 01bc 0CF80030 		strb	r3, [ip, r0]
 2602              		.loc 1 1770 0
 2603 01c0 4246     		mov	r2, r8
 2604              		.loc 1 1803 0
 2605 01c2 0130     		adds	r0, r0, #1
 2606              	.LVL338:
ARM GAS  /var/folders/dt/0wfd0knj7gs46m8vwfzktm600000gn/T//cczoWvr4.s 			page 47


 2607 01c4 46E7     		b	.L298
 2608              	.LVL339:
 2609              	.L302:
 2610              		.loc 1 1775 0
 2611 01c6 4FEA8909 		lsl	r9, r9, #2
 2612 01ca 5FFA89F9 		uxtb	r9, r9
 2613              	.LVL340:
 2614              		.loc 1 1770 0
 2615 01ce 4246     		mov	r2, r8
 2616              		.loc 1 1774 0
 2617 01d0 0820     		movs	r0, #8
 2618 01d2 0B24     		movs	r4, #11
 2619 01d4 3EE7     		b	.L298
 2620              	.LVL341:
 2621              	.L248:
 2622              		.loc 1 1806 0
 2623 01d6 4544     		add	r5, r5, r8
 2624              	.LVL342:
 2625              	.L271:
 2626              		.loc 1 1807 0
 2627 01d8 0023     		movs	r3, #0
 2628 01da 84E7     		b	.L256
 2629              	.LVL343:
 2630              	.L262:
 2631              	.LBE131:
 2632              	.LBE143:
 2633              		.loc 1 1942 0
 2634 01dc B369     		ldr	r3, [r6, #24]
 2635 01de DB7A     		ldrb	r3, [r3, #11]	@ zero_extendqisi2
 2636              	.LVL344:
 2637              	.L273:
 2638              		.loc 1 1951 0
 2639 01e0 03F00403 		and	r3, r3, #4
 2640 01e4 D8B2     		uxtb	r0, r3
 2641              	.LVL345:
 2642 01e6 0028     		cmp	r0, #0
 2643 01e8 0CBF     		ite	eq
 2644 01ea 0520     		moveq	r0, #5
 2645 01ec 0420     		movne	r0, #4
 2646 01ee BDE8F087 		pop	{r4, r5, r6, r7, r8, r9, sl, pc}
 2647              	.LVL346:
 2648              	.L265:
 2649              		.loc 1 1955 0
 2650 01f2 9CF80B30 		ldrb	r3, [ip, #11]	@ zero_extendqisi2
 2651              	.LVL347:
 2652 01f6 03F00403 		and	r3, r3, #4
 2653 01fa DBB2     		uxtb	r3, r3
 2654 01fc 13BB     		cbnz	r3, .L306
 2655              	.LVL348:
 2656              		.loc 1 1957 0
 2657 01fe 0AF0100A 		and	sl, sl, #16
 2658 0202 5FFA8AF3 		uxtb	r3, sl
 2659 0206 B3B1     		cbz	r3, .L281
 2660              		.loc 1 1960 0
 2661 0208 99F81500 		ldrb	r0, [r9, #21]	@ zero_extendqisi2
 2662              	.LVL349:
 2663 020c 99F81420 		ldrb	r2, [r9, #20]	@ zero_extendqisi2
ARM GAS  /var/folders/dt/0wfd0knj7gs46m8vwfzktm600000gn/T//cczoWvr4.s 			page 48


 2664 0210 99F81B30 		ldrb	r3, [r9, #27]	@ zero_extendqisi2
 2665 0214 99F81A10 		ldrb	r1, [r9, #26]	@ zero_extendqisi2
 2666 0218 42EA0022 		orr	r2, r2, r0, lsl #8
 2667 021c 41EA0323 		orr	r3, r1, r3, lsl #8
 2668 0220 43EA0243 		orr	r3, r3, r2, lsl #16
 2669 0224 B360     		str	r3, [r6, #8]
 2670 0226 2B78     		ldrb	r3, [r5, #0]	@ zero_extendqisi2
 2671              		.loc 1 1961 0
 2672 0228 FFE6     		b	.L268
 2673              	.LVL350:
 2674              	.L301:
 2675              		.loc 1 1934 0
 2676 022a 2146     		mov	r1, r4
 2677 022c FFF7FEFF 		bl	dir_sdi
 2678              	.LVL351:
 2679              		.loc 1 1935 0
 2680 0230 7461     		str	r4, [r6, #20]
 2681 0232 BDE8F087 		pop	{r4, r5, r6, r7, r8, r9, sl, pc}
 2682              	.LVL352:
 2683              	.L281:
 2684              		.loc 1 1958 0
 2685 0236 0520     		movs	r0, #5
 2686              	.LVL353:
 2687 0238 BDE8F087 		pop	{r4, r5, r6, r7, r8, r9, sl, pc}
 2688              	.LVL354:
 2689              	.L304:
 2690              	.LBB144:
 2691              	.LBB132:
 2692              		.loc 1 1810 0
 2693 023c 0522     		movs	r2, #5
 2694 023e 8CF80020 		strb	r2, [ip, #0]
 2695 0242 57E7     		b	.L257
 2696              	.LVL355:
 2697              	.L306:
 2698 0244 BDE8F087 		pop	{r4, r5, r6, r7, r8, r9, sl, pc}
 2699              	.L308:
 2700              		.align	2
 2701              	.L307:
 2702 0248 00000000 		.word	.LC0
 2703              	.LBE132:
 2704              	.LBE144:
 2705              		.cfi_endproc
 2706              	.LFE19:
 2707              		.size	follow_path, .-follow_path
 2708 024c AFF30080 		.section	.text.dir_register,"ax",%progbits
 2709              		.align	2
 2710              		.p2align 4,,15
 2711              		.thumb
 2712              		.thumb_func
 2713              		.type	dir_register, %function
 2714              	dir_register:
 2715              	.LFB15:
 2716              		.loc 1 1467 0
 2717              		.cfi_startproc
 2718              		@ args = 0, pretend = 0, frame = 0
 2719              		@ frame_needed = 0, uses_anonymous_args = 0
 2720              	.LVL356:
ARM GAS  /var/folders/dt/0wfd0knj7gs46m8vwfzktm600000gn/T//cczoWvr4.s 			page 49


 2721 0000 38B5     		push	{r3, r4, r5, lr}
 2722              	.LCFI15:
 2723              		.cfi_def_cfa_offset 16
 2724              		.cfi_offset 3, -16
 2725              		.cfi_offset 4, -12
 2726              		.cfi_offset 5, -8
 2727              		.cfi_offset 14, -4
 2728              		.loc 1 1534 0
 2729 0002 0021     		movs	r1, #0
 2730              		.loc 1 1467 0
 2731 0004 0446     		mov	r4, r0
 2732              		.loc 1 1534 0
 2733 0006 FFF7FEFF 		bl	dir_sdi
 2734              	.LVL357:
 2735              		.loc 1 1535 0
 2736 000a 0246     		mov	r2, r0
 2737 000c 30B1     		cbz	r0, .L321
 2738              	.LVL358:
 2739              	.L319:
 2740              		.loc 1 1560 0
 2741 000e 1046     		mov	r0, r2
 2742 0010 38BD     		pop	{r3, r4, r5, pc}
 2743              	.LVL359:
 2744              	.L326:
 2745              		.loc 1 1541 0
 2746 0012 FFF7FEFF 		bl	dir_next
 2747              	.LVL360:
 2748              		.loc 1 1542 0
 2749 0016 0246     		mov	r2, r0
 2750 0018 0028     		cmp	r0, #0
 2751 001a F8D1     		bne	.L319
 2752              	.L321:
 2753              		.loc 1 1537 0
 2754 001c 2169     		ldr	r1, [r4, #16]
 2755 001e 2068     		ldr	r0, [r4, #0]
 2756              	.LVL361:
 2757 0020 FFF7FEFF 		bl	move_window
 2758              	.LVL362:
 2759              		.loc 1 1538 0
 2760 0024 0246     		mov	r2, r0
 2761              		.loc 1 1541 0
 2762 0026 0121     		movs	r1, #1
 2763 0028 2046     		mov	r0, r4
 2764              	.LVL363:
 2765              		.loc 1 1538 0
 2766 002a 002A     		cmp	r2, #0
 2767 002c EFD1     		bne	.L319
 2768              	.LVL364:
 2769              		.loc 1 1539 0
 2770 002e 6369     		ldr	r3, [r4, #20]
 2771 0030 1B78     		ldrb	r3, [r3, #0]	@ zero_extendqisi2
 2772              	.LVL365:
 2773              		.loc 1 1540 0
 2774 0032 E52B     		cmp	r3, #229
 2775 0034 18BF     		it	ne
 2776 0036 002B     		cmpne	r3, #0
 2777 0038 EBD1     		bne	.L326
ARM GAS  /var/folders/dt/0wfd0knj7gs46m8vwfzktm600000gn/T//cczoWvr4.s 			page 50


 2778              	.LVL366:
 2779              	.LBB151:
 2780              	.LBB152:
 2781              		.loc 1 1547 0
 2782 003a 2068     		ldr	r0, [r4, #0]
 2783              	.LVL367:
 2784 003c 2169     		ldr	r1, [r4, #16]
 2785 003e FFF7FEFF 		bl	move_window
 2786              	.LVL368:
 2787              		.loc 1 1548 0
 2788 0042 0246     		mov	r2, r0
 2789 0044 0028     		cmp	r0, #0
 2790 0046 E2D1     		bne	.L319
 2791              		.loc 1 1549 0
 2792 0048 6169     		ldr	r1, [r4, #20]
 2793              	.LVL369:
 2794              	.LBB153:
 2795              	.LBB154:
 2796              		.loc 1 542 0
 2797 004a 1546     		mov	r5, r2
 2798              	.LBE154:
 2799              	.LBE153:
 2800              		.loc 1 1464 0
 2801 004c 01F12000 		add	r0, r1, #32
 2802              	.LVL370:
 2803              	.LBE152:
 2804              	.LBE151:
 2805              		.loc 1 539 0
 2806 0050 0B46     		mov	r3, r1
 2807              	.LVL371:
 2808              	.L313:
 2809              	.LBB160:
 2810              	.LBB159:
 2811              	.LBB156:
 2812              	.LBB155:
 2813              		.loc 1 542 0
 2814 0052 03F8015B 		strb	r5, [r3], #1
 2815              	.LVL372:
 2816              		.loc 1 541 0
 2817 0056 8342     		cmp	r3, r0
 2818 0058 FBD1     		bne	.L313
 2819              	.LVL373:
 2820              		.loc 1 1464 0
 2821 005a A369     		ldr	r3, [r4, #24]
 2822              	.LVL374:
 2823 005c 01F10B05 		add	r5, r1, #11
 2824 0060 013B     		subs	r3, r3, #1
 2825              	.LVL375:
 2826              	.L314:
 2827              	.LBE155:
 2828              	.LBE156:
 2829              	.LBB157:
 2830              	.LBB158:
 2831              		.loc 1 533 0
 2832 0062 13F8010F 		ldrb	r0, [r3, #1]!	@ zero_extendqisi2
 2833 0066 01F8010B 		strb	r0, [r1], #1
 2834              	.LVL376:
ARM GAS  /var/folders/dt/0wfd0knj7gs46m8vwfzktm600000gn/T//cczoWvr4.s 			page 51


 2835              		.loc 1 532 0
 2836 006a A942     		cmp	r1, r5
 2837 006c F9D1     		bne	.L314
 2838              	.LBE158:
 2839              	.LBE157:
 2840              		.loc 1 1555 0
 2841 006e 2368     		ldr	r3, [r4, #0]
 2842 0070 0121     		movs	r1, #1
 2843              	.LVL377:
 2844 0072 1971     		strb	r1, [r3, #4]
 2845              	.LBE159:
 2846              	.LBE160:
 2847              		.loc 1 1560 0
 2848 0074 1046     		mov	r0, r2
 2849 0076 38BD     		pop	{r3, r4, r5, pc}
 2850              		.cfi_endproc
 2851              	.LFE15:
 2852              		.size	dir_register, .-dir_register
 2853 0078 AFF30080 		.section	.text.dir_read,"ax",%progbits
 2853      AFF30080 
 2854              		.align	2
 2855              		.p2align 4,,15
 2856              		.thumb
 2857              		.thumb_func
 2858              		.type	dir_read, %function
 2859              	dir_read:
 2860              	.LFB14:
 2861              		.loc 1 1410 0
 2862              		.cfi_startproc
 2863              		@ args = 0, pretend = 0, frame = 0
 2864              		@ frame_needed = 0, uses_anonymous_args = 0
 2865              	.LVL378:
 2866 0000 38B5     		push	{r3, r4, r5, lr}
 2867              	.LCFI16:
 2868              		.cfi_def_cfa_offset 16
 2869              		.cfi_offset 3, -16
 2870              		.cfi_offset 4, -12
 2871              		.cfi_offset 5, -8
 2872              		.cfi_offset 14, -4
 2873              		.loc 1 1410 0
 2874 0002 0446     		mov	r4, r0
 2875              		.loc 1 1417 0
 2876 0004 0425     		movs	r5, #4
 2877              		.loc 1 1418 0
 2878 0006 16E0     		b	.L328
 2879              	.LVL379:
 2880              	.L332:
 2881              		.loc 1 1419 0
 2882 0008 2068     		ldr	r0, [r4, #0]
 2883 000a FFF7FEFF 		bl	move_window
 2884              	.LVL380:
 2885              		.loc 1 1420 0
 2886 000e 0546     		mov	r5, r0
 2887              		.loc 1 1447 0
 2888 0010 0021     		movs	r1, #0
 2889 0012 2046     		mov	r0, r4
 2890              	.LVL381:
ARM GAS  /var/folders/dt/0wfd0knj7gs46m8vwfzktm600000gn/T//cczoWvr4.s 			page 52


 2891              		.loc 1 1420 0
 2892 0014 BDB9     		cbnz	r5, .L333
 2893              	.LVL382:
 2894              		.loc 1 1421 0
 2895 0016 6269     		ldr	r2, [r4, #20]
 2896              	.LVL383:
 2897              		.loc 1 1422 0
 2898 0018 1378     		ldrb	r3, [r2, #0]	@ zero_extendqisi2
 2899              	.LVL384:
 2900              		.loc 1 1423 0
 2901 001a 9BB1     		cbz	r3, .L334
 2902              		.loc 1 1444 0
 2903 001c 2E2B     		cmp	r3, #46
 2904 001e 18BF     		it	ne
 2905 0020 E52B     		cmpne	r3, #229
 2906 0022 04D0     		beq	.L330
 2907              		.loc 1 1444 0 is_stmt 0 discriminator 1
 2908 0024 D37A     		ldrb	r3, [r2, #11]	@ zero_extendqisi2
 2909 0026 03F00803 		and	r3, r3, #8
 2910 002a DBB2     		uxtb	r3, r3
 2911 002c 43B1     		cbz	r3, .L339
 2912              	.L330:
 2913              		.loc 1 1447 0 is_stmt 1
 2914 002e FFF7FEFF 		bl	dir_next
 2915              	.LVL385:
 2916 0032 0546     		mov	r5, r0
 2917              	.LVL386:
 2918              		.loc 1 1448 0
 2919 0034 58B9     		cbnz	r0, .L335
 2920              	.LVL387:
 2921              	.L328:
 2922              		.loc 1 1418 0 discriminator 1
 2923 0036 2369     		ldr	r3, [r4, #16]
 2924              		.loc 1 1419 0 discriminator 1
 2925 0038 1946     		mov	r1, r3
 2926              		.loc 1 1418 0 discriminator 1
 2927 003a 002B     		cmp	r3, #0
 2928 003c E4D1     		bne	.L332
 2929              	.LVL388:
 2930              		.loc 1 1451 0
 2931 003e 15B9     		cbnz	r5, .L333
 2932              	.LVL389:
 2933              	.L339:
 2934              		.loc 1 1454 0
 2935 0040 2846     		mov	r0, r5
 2936 0042 38BD     		pop	{r3, r4, r5, pc}
 2937              	.LVL390:
 2938              	.L334:
 2939              		.loc 1 1423 0
 2940 0044 0425     		movs	r5, #4
 2941              	.LVL391:
 2942              	.L333:
 2943              		.loc 1 1451 0 discriminator 1
 2944 0046 0023     		movs	r3, #0
 2945 0048 2361     		str	r3, [r4, #16]
 2946              	.L346:
 2947              		.loc 1 1454 0
ARM GAS  /var/folders/dt/0wfd0knj7gs46m8vwfzktm600000gn/T//cczoWvr4.s 			page 53


 2948 004a 2846     		mov	r0, r5
 2949 004c 38BD     		pop	{r3, r4, r5, pc}
 2950              	.LVL392:
 2951              	.L335:
 2952              		.loc 1 1451 0
 2953 004e 0023     		movs	r3, #0
 2954              		.loc 1 1447 0
 2955 0050 0546     		mov	r5, r0
 2956              	.LVL393:
 2957              		.loc 1 1451 0
 2958 0052 2361     		str	r3, [r4, #16]
 2959 0054 F9E7     		b	.L346
 2960              		.cfi_endproc
 2961              	.LFE14:
 2962              		.size	dir_read, .-dir_read
 2963 0056 00BFAFF3 		.section	.text.remove_chain,"ax",%progbits
 2963      0080AFF3 
 2963      0080
 2964              		.align	2
 2965              		.p2align 4,,15
 2966              		.thumb
 2967              		.thumb_func
 2968              		.type	remove_chain, %function
 2969              	remove_chain:
 2970              	.LFB9:
 2971              		.loc 1 923 0
 2972              		.cfi_startproc
 2973              		@ args = 0, pretend = 0, frame = 0
 2974              		@ frame_needed = 0, uses_anonymous_args = 0
 2975              	.LVL394:
 2976              		.loc 1 930 0
 2977 0000 0129     		cmp	r1, #1
 2978              		.loc 1 923 0
 2979 0002 70B5     		push	{r4, r5, r6, lr}
 2980              	.LCFI17:
 2981              		.cfi_def_cfa_offset 16
 2982              		.cfi_offset 4, -16
 2983              		.cfi_offset 5, -12
 2984              		.cfi_offset 6, -8
 2985              		.cfi_offset 14, -4
 2986              		.loc 1 923 0
 2987 0004 0D46     		mov	r5, r1
 2988 0006 0446     		mov	r4, r0
 2989              		.loc 1 930 0
 2990 0008 02D9     		bls	.L355
 2991              		.loc 1 930 0 is_stmt 0 discriminator 1
 2992 000a 8369     		ldr	r3, [r0, #24]
 2993 000c 9942     		cmp	r1, r3
 2994 000e 01D3     		bcc	.L363
 2995              	.LVL395:
 2996              	.L355:
 2997              		.loc 1 931 0 is_stmt 1
 2998 0010 0220     		movs	r0, #2
 2999              	.LVL396:
 3000              	.L348:
 3001              		.loc 1 961 0
 3002 0012 70BD     		pop	{r4, r5, r6, pc}
ARM GAS  /var/folders/dt/0wfd0knj7gs46m8vwfzktm600000gn/T//cczoWvr4.s 			page 54


 3003              	.LVL397:
 3004              	.L363:
 3005              	.LBB163:
 3006              	.LBB164:
 3007              		.loc 1 944 0
 3008 0014 0126     		movs	r6, #1
 3009              	.LVL398:
 3010              	.L360:
 3011              		.loc 1 936 0
 3012 0016 2946     		mov	r1, r5
 3013 0018 2046     		mov	r0, r4
 3014 001a FFF7FEFF 		bl	get_fat
 3015              	.LVL399:
 3016              		.loc 1 937 0
 3017 001e 0346     		mov	r3, r0
 3018              		.loc 1 940 0
 3019 0020 2946     		mov	r1, r5
 3020 0022 0022     		movs	r2, #0
 3021 0024 0546     		mov	r5, r0
 3022 0026 2046     		mov	r0, r4
 3023              	.LVL400:
 3024              		.loc 1 937 0
 3025 0028 83B1     		cbz	r3, .L353
 3026              	.LVL401:
 3027              		.loc 1 938 0
 3028 002a 012B     		cmp	r3, #1
 3029 002c F0D0     		beq	.L355
 3030              		.loc 1 939 0
 3031 002e 0133     		adds	r3, r3, #1
 3032              	.LVL402:
 3033 0030 0ED0     		beq	.L357
 3034              		.loc 1 940 0
 3035 0032 FFF7FEFF 		bl	put_fat
 3036              	.LVL403:
 3037              		.loc 1 941 0
 3038 0036 0028     		cmp	r0, #0
 3039 0038 EBD1     		bne	.L348
 3040              		.loc 1 942 0
 3041 003a 2369     		ldr	r3, [r4, #16]
 3042 003c 581C     		adds	r0, r3, #1
 3043 003e 02D0     		beq	.L351
 3044              		.loc 1 943 0
 3045 0040 0133     		adds	r3, r3, #1
 3046 0042 2361     		str	r3, [r4, #16]
 3047              		.loc 1 944 0
 3048 0044 6671     		strb	r6, [r4, #5]
 3049              	.L351:
 3050              		.loc 1 935 0
 3051 0046 A369     		ldr	r3, [r4, #24]
 3052 0048 9D42     		cmp	r5, r3
 3053 004a E4D3     		bcc	.L360
 3054              	.LVL404:
 3055              	.L353:
 3056              	.LBE164:
 3057              	.LBE163:
 3058              		.loc 1 923 0
 3059 004c 0020     		movs	r0, #0
ARM GAS  /var/folders/dt/0wfd0knj7gs46m8vwfzktm600000gn/T//cczoWvr4.s 			page 55


 3060 004e 70BD     		pop	{r4, r5, r6, pc}
 3061              	.LVL405:
 3062              	.L357:
 3063              	.LBB166:
 3064              	.LBB165:
 3065              		.loc 1 939 0
 3066 0050 0120     		movs	r0, #1
 3067              	.LVL406:
 3068 0052 70BD     		pop	{r4, r5, r6, pc}
 3069              	.LBE165:
 3070              	.LBE166:
 3071              		.cfi_endproc
 3072              	.LFE9:
 3073              		.size	remove_chain, .-remove_chain
 3074 0054 AFF30080 		.section	.text.f_mount,"ax",%progbits
 3074      AFF30080 
 3074      AFF30080 
 3075              		.align	2
 3076              		.p2align 4,,15
 3077              		.global	f_mount
 3078              		.thumb
 3079              		.thumb_func
 3080              		.type	f_mount, %function
 3081              	f_mount:
 3082              	.LFB23:
 3083              		.loc 1 2201 0
 3084              		.cfi_startproc
 3085              		@ args = 0, pretend = 0, frame = 0
 3086              		@ frame_needed = 0, uses_anonymous_args = 0
 3087              		@ link register save eliminated.
 3088              	.LVL407:
 3089              		.loc 1 2205 0
 3090 0000 08B1     		cbz	r0, .L375
 3091              		.loc 1 2206 0
 3092 0002 0B20     		movs	r0, #11
 3093              	.LVL408:
 3094              		.loc 1 2228 0
 3095 0004 7047     		bx	lr
 3096              	.LVL409:
 3097              	.L375:
 3098              		.loc 1 2207 0
 3099 0006 054B     		ldr	r3, .L376
 3100 0008 1A68     		ldr	r2, [r3, #0]
 3101              	.LVL410:
 3102              		.loc 1 2209 0
 3103 000a 02B1     		cbz	r2, .L366
 3104              		.loc 1 2216 0
 3105 000c 1070     		strb	r0, [r2, #0]
 3106              	.L366:
 3107              		.loc 1 2219 0
 3108 000e 09B1     		cbz	r1, .L367
 3109              		.loc 1 2220 0
 3110 0010 0022     		movs	r2, #0
 3111              	.LVL411:
 3112 0012 0A70     		strb	r2, [r1, #0]
 3113              	.L367:
 3114              		.loc 1 2225 0
ARM GAS  /var/folders/dt/0wfd0knj7gs46m8vwfzktm600000gn/T//cczoWvr4.s 			page 56


 3115 0014 1960     		str	r1, [r3, #0]
 3116              		.loc 1 2227 0
 3117 0016 0020     		movs	r0, #0
 3118              	.LVL412:
 3119 0018 7047     		bx	lr
 3120              	.L377:
 3121 001a 00BF     		.align	2
 3122              	.L376:
 3123 001c 00000000 		.word	.LANCHOR0
 3124              		.cfi_endproc
 3125              	.LFE23:
 3126              		.size	f_mount, .-f_mount
 3127              		.section	.text.f_open,"ax",%progbits
 3128              		.align	2
 3129              		.p2align 4,,15
 3130              		.global	f_open
 3131              		.thumb
 3132              		.thumb_func
 3133              		.type	f_open, %function
 3134              	f_open:
 3135              	.LFB24:
 3136              		.loc 1 2242 0
 3137              		.cfi_startproc
 3138              		@ args = 0, pretend = 0, frame = 48
 3139              		@ frame_needed = 0, uses_anonymous_args = 0
 3140              	.LVL413:
 3141 0000 2DE9F04F 		push	{r4, r5, r6, r7, r8, r9, sl, fp, lr}
 3142              	.LCFI18:
 3143              		.cfi_def_cfa_offset 36
 3144              		.cfi_offset 4, -36
 3145              		.cfi_offset 5, -32
 3146              		.cfi_offset 6, -28
 3147              		.cfi_offset 7, -24
 3148              		.cfi_offset 8, -20
 3149              		.cfi_offset 9, -16
 3150              		.cfi_offset 10, -12
 3151              		.cfi_offset 11, -8
 3152              		.cfi_offset 14, -4
 3153 0004 8DB0     		sub	sp, sp, #52
 3154              	.LCFI19:
 3155              		.cfi_def_cfa_offset 88
 3156              		.loc 1 2242 0
 3157 0006 0CAB     		add	r3, sp, #48
 3158 0008 43F82C1D 		str	r1, [r3, #-44]!
 3159 000c 1646     		mov	r6, r2
 3160              		.loc 1 2249 0
 3161 000e 0022     		movs	r2, #0
 3162              	.LVL414:
 3163 0010 0260     		str	r2, [r0, #0]
 3164              		.loc 1 2242 0
 3165 0012 0546     		mov	r5, r0
 3166              		.loc 1 2253 0
 3167 0014 05A9     		add	r1, sp, #20
 3168              	.LVL415:
 3169 0016 1846     		mov	r0, r3
 3170              	.LVL416:
 3171 0018 06F01E02 		and	r2, r6, #30
ARM GAS  /var/folders/dt/0wfd0knj7gs46m8vwfzktm600000gn/T//cczoWvr4.s 			page 57


 3172 001c FFF7FEFF 		bl	chk_mounted
 3173              	.LVL417:
 3174              		.loc 1 2258 0
 3175 0020 02AB     		add	r3, sp, #8
 3176              		.loc 1 2252 0
 3177 0022 06F01F07 		and	r7, r6, #31
 3178              	.LVL418:
 3179              		.loc 1 2258 0
 3180 0026 0B93     		str	r3, [sp, #44]
 3181              		.loc 1 2259 0
 3182 0028 40B1     		cbz	r0, .L410
 3183              	.LVL419:
 3184              	.L379:
 3185              		.loc 1 2273 0
 3186 002a 16F01C0F 		tst	r6, #28
 3187 002e 02D0     		beq	.L402
 3188              	.LBB167:
 3189              		.loc 1 2277 0
 3190 0030 0428     		cmp	r0, #4
 3191 0032 00F09680 		beq	.L411
 3192              	.LVL420:
 3193              	.L402:
 3194              	.LBE167:
 3195              		.loc 1 2358 0
 3196 0036 0DB0     		add	sp, sp, #52
 3197 0038 BDE8F08F 		pop	{r4, r5, r6, r7, r8, r9, sl, fp, pc}
 3198              	.LVL421:
 3199              	.L410:
 3200              		.loc 1 2260 0
 3201 003c 05A8     		add	r0, sp, #20
 3202              	.LVL422:
 3203 003e 0199     		ldr	r1, [sp, #4]
 3204 0040 FFF7FEFF 		bl	follow_path
 3205              	.LVL423:
 3206              		.loc 1 2261 0
 3207 0044 0A9C     		ldr	r4, [sp, #40]
 3208              	.LVL424:
 3209              		.loc 1 2264 0
 3210 0046 0028     		cmp	r0, #0
 3211 0048 EFD1     		bne	.L379
 3212              		.loc 1 2265 0
 3213 004a 002C     		cmp	r4, #0
 3214 004c 4BD0     		beq	.L412
 3215              	.LVL425:
 3216              		.loc 1 2273 0
 3217 004e 16F01C0F 		tst	r6, #28
 3218 0052 30D0     		beq	.L413
 3219              	.LBB168:
 3220              		.loc 1 2287 0
 3221 0054 E37A     		ldrb	r3, [r4, #11]	@ zero_extendqisi2
 3222 0056 13F0110F 		tst	r3, #17
 3223 005a 42D1     		bne	.L399
 3224              		.loc 1 2290 0
 3225 005c 06F00406 		and	r6, r6, #4
 3226 0060 F6B2     		uxtb	r6, r6
 3227              		.loc 1 2291 0
 3228 0062 0820     		movs	r0, #8
ARM GAS  /var/folders/dt/0wfd0knj7gs46m8vwfzktm600000gn/T//cczoWvr4.s 			page 58


 3229              		.loc 1 2290 0
 3230 0064 002E     		cmp	r6, #0
 3231 0066 E6D1     		bne	.L402
 3232              	.LVL426:
 3233              	.L382:
 3234              		.loc 1 2294 0 discriminator 1
 3235 0068 07F00803 		and	r3, r7, #8
 3236 006c DBB2     		uxtb	r3, r3
 3237 006e 002B     		cmp	r3, #0
 3238 0070 3BD1     		bne	.L414
 3239 0072 059B     		ldr	r3, [sp, #20]
 3240              	.LVL427:
 3241              	.L393:
 3242              	.LBE168:
 3243              		.loc 1 2325 0
 3244 0074 DA6A     		ldr	r2, [r3, #44]
 3245              		.loc 1 2346 0
 3246 0076 AF71     		strb	r7, [r5, #6]
 3247              		.loc 1 2325 0
 3248 0078 EA61     		str	r2, [r5, #28]
 3249              		.loc 1 2326 0
 3250 007a 2C62     		str	r4, [r5, #32]
 3251              		.loc 1 2347 0
 3252 007c A07E     		ldrb	r0, [r4, #26]	@ zero_extendqisi2
 3253 007e 667D     		ldrb	r6, [r4, #21]	@ zero_extendqisi2
 3254 0080 217D     		ldrb	r1, [r4, #20]	@ zero_extendqisi2
 3255 0082 E27E     		ldrb	r2, [r4, #27]	@ zero_extendqisi2
 3256 0084 41EA0621 		orr	r1, r1, r6, lsl #8
 3257 0088 40EA0222 		orr	r2, r0, r2, lsl #8
 3258 008c 42EA0142 		orr	r2, r2, r1, lsl #16
 3259 0090 2A61     		str	r2, [r5, #16]
 3260              		.loc 1 2348 0
 3261 0092 A17F     		ldrb	r1, [r4, #30]	@ zero_extendqisi2
 3262 0094 E07F     		ldrb	r0, [r4, #31]	@ zero_extendqisi2
 3263 0096 227F     		ldrb	r2, [r4, #28]	@ zero_extendqisi2
 3264 0098 0904     		lsls	r1, r1, #16
 3265 009a 647F     		ldrb	r4, [r4, #29]	@ zero_extendqisi2
 3266              	.LVL428:
 3267 009c 41EA0061 		orr	r1, r1, r0, lsl #24
 3268 00a0 1143     		orrs	r1, r1, r2
 3269              		.loc 1 2354 0
 3270 00a2 DA88     		ldrh	r2, [r3, #6]
 3271              		.loc 1 2349 0
 3272 00a4 0020     		movs	r0, #0
 3273              		.loc 1 2348 0
 3274 00a6 41EA0421 		orr	r1, r1, r4, lsl #8
 3275 00aa E960     		str	r1, [r5, #12]
 3276              		.loc 1 2349 0
 3277 00ac A860     		str	r0, [r5, #8]
 3278              		.loc 1 2350 0
 3279 00ae A861     		str	r0, [r5, #24]
 3280              		.loc 1 2354 0
 3281 00b0 2B60     		str	r3, [r5, #0]
 3282 00b2 AA80     		strh	r2, [r5, #4]	@ movhi
 3283 00b4 BFE7     		b	.L402
 3284              	.LVL429:
 3285              	.L413:
ARM GAS  /var/folders/dt/0wfd0knj7gs46m8vwfzktm600000gn/T//cczoWvr4.s 			page 59


 3286              		.loc 1 2314 0
 3287 00b6 E37A     		ldrb	r3, [r4, #11]	@ zero_extendqisi2
 3288              		.loc 1 2315 0
 3289 00b8 0420     		movs	r0, #4
 3290              		.loc 1 2314 0
 3291 00ba 03F01002 		and	r2, r3, #16
 3292 00be D2B2     		uxtb	r2, r2
 3293 00c0 002A     		cmp	r2, #0
 3294 00c2 B8D1     		bne	.L402
 3295              		.loc 1 2317 0
 3296 00c4 06F00202 		and	r2, r6, #2
 3297 00c8 D2B2     		uxtb	r2, r2
 3298 00ca 42B9     		cbnz	r2, .L388
 3299              	.L409:
 3300 00cc 06F00806 		and	r6, r6, #8
 3301 00d0 F6B2     		uxtb	r6, r6
 3302 00d2 059B     		ldr	r3, [sp, #20]
 3303              		.loc 1 2323 0
 3304 00d4 002E     		cmp	r6, #0
 3305 00d6 CDD0     		beq	.L393
 3306              	.LVL430:
 3307              	.L385:
 3308              		.loc 1 2324 0
 3309 00d8 47F02007 		orr	r7, r7, #32
 3310              	.LVL431:
 3311 00dc CAE7     		b	.L393
 3312              	.LVL432:
 3313              	.L388:
 3314              		.loc 1 2317 0 discriminator 1
 3315 00de DB07     		lsls	r3, r3, #31
 3316 00e0 F4D5     		bpl	.L409
 3317              	.L399:
 3318              		.loc 1 2318 0
 3319 00e2 0720     		movs	r0, #7
 3320              	.LVL433:
 3321 00e4 A7E7     		b	.L402
 3322              	.LVL434:
 3323              	.L412:
 3324              		.loc 1 2266 0
 3325 00e6 0620     		movs	r0, #6
 3326              	.LVL435:
 3327 00e8 A5E7     		b	.L402
 3328              	.LVL436:
 3329              	.L414:
 3330              	.LBB169:
 3331              		.loc 1 2295 0
 3332 00ea FFF7FEFF 		bl	get_fattime
 3333              	.LVL437:
 3334              		.loc 1 2299 0
 3335 00ee 94F815B0 		ldrb	fp, [r4, #21]	@ zero_extendqisi2
 3336 00f2 267D     		ldrb	r6, [r4, #20]	@ zero_extendqisi2
 3337 00f4 E17E     		ldrb	r1, [r4, #27]	@ zero_extendqisi2
 3338 00f6 94F81AA0 		ldrb	sl, [r4, #26]	@ zero_extendqisi2
 3339              		.loc 1 2297 0
 3340 00fa 0022     		movs	r2, #0
 3341              		.loc 1 2301 0
 3342 00fc 059B     		ldr	r3, [sp, #20]
ARM GAS  /var/folders/dt/0wfd0knj7gs46m8vwfzktm600000gn/T//cczoWvr4.s 			page 60


 3343              		.loc 1 2299 0
 3344 00fe 46EA0B26 		orr	r6, r6, fp, lsl #8
 3345 0102 4AEA0121 		orr	r1, sl, r1, lsl #8
 3346              	.LVL438:
 3347              		.loc 1 2297 0
 3348 0106 E272     		strb	r2, [r4, #11]
 3349              		.loc 1 2298 0
 3350 0108 2277     		strb	r2, [r4, #28]
 3351 010a 6277     		strb	r2, [r4, #29]
 3352 010c A277     		strb	r2, [r4, #30]
 3353 010e E277     		strb	r2, [r4, #31]
 3354              		.loc 1 2300 0
 3355 0110 A276     		strb	r2, [r4, #26]
 3356 0112 E276     		strb	r2, [r4, #27]
 3357 0114 2275     		strb	r2, [r4, #20]
 3358 0116 6275     		strb	r2, [r4, #21]
 3359              		.loc 1 2296 0
 3360 0118 C0F30729 		ubfx	r9, r0, #8, #8
 3361              		.loc 1 2301 0
 3362 011c 0122     		movs	r2, #1
 3363              		.loc 1 2296 0
 3364 011e 4FEA1048 		lsr	r8, r0, #16
 3365 0122 4FEA106C 		lsr	ip, r0, #24
 3366              		.loc 1 2302 0
 3367 0126 51EA0646 		orrs	r6, r1, r6, lsl #16
 3368              	.LVL439:
 3369              		.loc 1 2296 0
 3370 012a A073     		strb	r0, [r4, #14]
 3371 012c 84F80F90 		strb	r9, [r4, #15]
 3372 0130 84F81080 		strb	r8, [r4, #16]
 3373 0134 84F811C0 		strb	ip, [r4, #17]
 3374              		.loc 1 2301 0
 3375 0138 1A71     		strb	r2, [r3, #4]
 3376              		.loc 1 2302 0
 3377 013a CDD0     		beq	.L385
 3378              		.loc 1 2304 0
 3379 013c 1846     		mov	r0, r3
 3380              	.LVL440:
 3381 013e 3146     		mov	r1, r6
 3382              		.loc 1 2303 0
 3383 0140 D3F82C80 		ldr	r8, [r3, #44]
 3384              	.LVL441:
 3385              		.loc 1 2304 0
 3386 0144 FFF7FEFF 		bl	remove_chain
 3387              	.LVL442:
 3388              		.loc 1 2305 0
 3389 0148 0028     		cmp	r0, #0
 3390 014a 7FF474AF 		bne	.L402
 3391              		.loc 1 2306 0
 3392 014e 0598     		ldr	r0, [sp, #20]
 3393              	.LVL443:
 3394 0150 013E     		subs	r6, r6, #1
 3395              	.LVL444:
 3396 0152 C660     		str	r6, [r0, #12]
 3397              		.loc 1 2307 0
 3398 0154 4146     		mov	r1, r8
 3399 0156 FFF7FEFF 		bl	move_window
ARM GAS  /var/folders/dt/0wfd0knj7gs46m8vwfzktm600000gn/T//cczoWvr4.s 			page 61


 3400              	.LVL445:
 3401 015a 059B     		ldr	r3, [sp, #20]
 3402              	.LBE169:
 3403              		.loc 1 2322 0
 3404 015c 0028     		cmp	r0, #0
 3405 015e BBD0     		beq	.L385
 3406 0160 69E7     		b	.L402
 3407              	.LVL446:
 3408              	.L411:
 3409              	.LBB170:
 3410              		.loc 1 2281 0
 3411 0162 05A8     		add	r0, sp, #20
 3412              	.LVL447:
 3413 0164 FFF7FEFF 		bl	dir_register
 3414              	.LVL448:
 3415              		.loc 1 2283 0
 3416 0168 47F00807 		orr	r7, r7, #8
 3417              	.LVL449:
 3418              		.loc 1 2284 0
 3419 016c 0A9C     		ldr	r4, [sp, #40]
 3420              	.LVL450:
 3421              		.loc 1 2294 0
 3422 016e 0028     		cmp	r0, #0
 3423 0170 3FF47AAF 		beq	.L382
 3424 0174 5FE7     		b	.L402
 3425              	.LBE170:
 3426              		.cfi_endproc
 3427              	.LFE24:
 3428              		.size	f_open, .-f_open
 3429 0176 00BFAFF3 		.section	.text.f_read,"ax",%progbits
 3429      0080AFF3 
 3429      0080
 3430              		.align	2
 3431              		.p2align 4,,15
 3432              		.global	f_read
 3433              		.thumb
 3434              		.thumb_func
 3435              		.type	f_read, %function
 3436              	f_read:
 3437              	.LFB25:
 3438              		.loc 1 2373 0
 3439              		.cfi_startproc
 3440              		@ args = 0, pretend = 0, frame = 8
 3441              		@ frame_needed = 0, uses_anonymous_args = 0
 3442              	.LVL451:
 3443 0000 2DE9F04F 		push	{r4, r5, r6, r7, r8, r9, sl, fp, lr}
 3444              	.LCFI20:
 3445              		.cfi_def_cfa_offset 36
 3446              		.cfi_offset 4, -36
 3447              		.cfi_offset 5, -32
 3448              		.cfi_offset 6, -28
 3449              		.cfi_offset 7, -24
 3450              		.cfi_offset 8, -20
 3451              		.cfi_offset 9, -16
 3452              		.cfi_offset 10, -12
 3453              		.cfi_offset 11, -8
 3454              		.cfi_offset 14, -4
ARM GAS  /var/folders/dt/0wfd0knj7gs46m8vwfzktm600000gn/T//cczoWvr4.s 			page 62


 3455 0004 0746     		mov	r7, r0
 3456 0006 9B46     		mov	fp, r3
 3457              		.loc 1 2380 0
 3458 0008 0023     		movs	r3, #0
 3459              	.LVL452:
 3460              		.loc 1 2373 0
 3461 000a 83B0     		sub	sp, sp, #12
 3462              	.LCFI21:
 3463              		.cfi_def_cfa_offset 48
 3464              		.loc 1 2373 0
 3465 000c 0C46     		mov	r4, r1
 3466              	.LVL453:
 3467              		.loc 1 2380 0
 3468 000e CBF80030 		str	r3, [fp, #0]
 3469              		.loc 1 2382 0
 3470 0012 0068     		ldr	r0, [r0, #0]
 3471              	.LVL454:
 3472 0014 B988     		ldrh	r1, [r7, #4]
 3473              	.LVL455:
 3474              		.loc 1 2373 0
 3475 0016 1546     		mov	r5, r2
 3476              		.loc 1 2382 0
 3477 0018 FFF7FEFF 		bl	validate
 3478              	.LVL456:
 3479              		.loc 1 2383 0
 3480 001c 8146     		mov	r9, r0
 3481 001e 50B9     		cbnz	r0, .L416
 3482              		.loc 1 2384 0
 3483 0020 BB79     		ldrb	r3, [r7, #6]	@ zero_extendqisi2
 3484 0022 1A06     		lsls	r2, r3, #24
 3485              		.loc 1 2385 0
 3486 0024 48BF     		it	mi
 3487 0026 4FF00209 		movmi	r9, #2
 3488              		.loc 1 2384 0
 3489 002a 04D4     		bmi	.L416
 3490              		.loc 1 2386 0
 3491 002c D807     		lsls	r0, r3, #31
 3492              	.LVL457:
 3493              		.loc 1 2387 0
 3494 002e 58BF     		it	pl
 3495 0030 4FF00709 		movpl	r9, #7
 3496              		.loc 1 2386 0
 3497 0034 03D4     		bmi	.L455
 3498              	.LVL458:
 3499              	.L416:
 3500              		.loc 1 2458 0
 3501 0036 4846     		mov	r0, r9
 3502 0038 03B0     		add	sp, sp, #12
 3503 003a BDE8F08F 		pop	{r4, r5, r6, r7, r8, r9, sl, fp, pc}
 3504              	.LVL459:
 3505              	.L455:
 3506              		.loc 1 2388 0
 3507 003e BE68     		ldr	r6, [r7, #8]
 3508              	.LVL460:
 3509 0040 FB68     		ldr	r3, [r7, #12]
 3510 0042 9B1B     		subs	r3, r3, r6
 3511              	.LVL461:
ARM GAS  /var/folders/dt/0wfd0knj7gs46m8vwfzktm600000gn/T//cczoWvr4.s 			page 63


 3512 0044 9D42     		cmp	r5, r3
 3513 0046 34BF     		ite	cc
 3514 0048 A846     		movcc	r8, r5
 3515 004a 9846     		movcs	r8, r3
 3516              	.LVL462:
 3517              		.loc 1 2391 0
 3518 004c B8F1000F 		cmp	r8, #0
 3519 0050 F1D0     		beq	.L416
 3520              		.loc 1 2435 0
 3521 0052 07F1240A 		add	sl, r7, #36
 3522              	.LVL463:
 3523              	.L438:
 3524              		.loc 1 2393 0
 3525 0056 F505     		lsls	r5, r6, #23
 3526 0058 ED0D     		lsrs	r5, r5, #23
 3527 005a 002D     		cmp	r5, #0
 3528 005c 34D1     		bne	.L418
 3529              		.loc 1 2394 0
 3530 005e 3B68     		ldr	r3, [r7, #0]
 3531 0060 9A78     		ldrb	r2, [r3, #2]	@ zero_extendqisi2
 3532 0062 013A     		subs	r2, r2, #1
 3533 0064 02EA5622 		and	r2, r2, r6, lsr #9
 3534              	.LVL464:
 3535              		.loc 1 2395 0
 3536 0068 12F0FF02 		ands	r2, r2, #255
 3537              	.LVL465:
 3538 006c 4AD0     		beq	.L419
 3539 006e 7869     		ldr	r0, [r7, #20]
 3540              	.LVL466:
 3541              	.LBB171:
 3542              	.LBB172:
 3543              		.loc 1 801 0
 3544 0070 9969     		ldr	r1, [r3, #24]
 3545              		.loc 1 800 0
 3546 0072 0238     		subs	r0, r0, #2
 3547              	.LVL467:
 3548              		.loc 1 801 0
 3549 0074 0239     		subs	r1, r1, #2
 3550 0076 8842     		cmp	r0, r1
 3551 0078 52D3     		bcc	.L456
 3552              	.LVL468:
 3553              	.L425:
 3554              	.LBE172:
 3555              	.LBE171:
 3556              		.loc 1 2411 0 discriminator 1
 3557 007a BB79     		ldrb	r3, [r7, #6]	@ zero_extendqisi2
 3558 007c 4FF00209 		mov	r9, #2
 3559 0080 63F07F03 		orn	r3, r3, #127
 3560 0084 BB71     		strb	r3, [r7, #6]
 3561 0086 D6E7     		b	.L416
 3562              	.LVL469:
 3563              	.L427:
 3564              		.loc 1 2432 0
 3565 0088 BA69     		ldr	r2, [r7, #24]
 3566 008a AA42     		cmp	r2, r5
 3567 008c 18D0     		beq	.L434
 3568              		.loc 1 2434 0
ARM GAS  /var/folders/dt/0wfd0knj7gs46m8vwfzktm600000gn/T//cczoWvr4.s 			page 64


 3569 008e B979     		ldrb	r1, [r7, #6]	@ zero_extendqisi2
 3570 0090 01F04001 		and	r1, r1, #64
 3571 0094 C9B2     		uxtb	r1, r1
 3572 0096 59B1     		cbz	r1, .L435
 3573              		.loc 1 2435 0
 3574 0098 5878     		ldrb	r0, [r3, #1]	@ zero_extendqisi2
 3575              	.LVL470:
 3576 009a 5146     		mov	r1, sl
 3577 009c 0123     		movs	r3, #1
 3578              	.LVL471:
 3579 009e FFF7FEFF 		bl	disk_write
 3580              	.LVL472:
 3581 00a2 0028     		cmp	r0, #0
 3582 00a4 6BD1     		bne	.L453
 3583              		.loc 1 2437 0
 3584 00a6 BA79     		ldrb	r2, [r7, #6]	@ zero_extendqisi2
 3585 00a8 3B68     		ldr	r3, [r7, #0]
 3586 00aa 22F04002 		bic	r2, r2, #64
 3587 00ae BA71     		strb	r2, [r7, #6]
 3588              	.L435:
 3589              		.loc 1 2440 0
 3590 00b0 5878     		ldrb	r0, [r3, #1]	@ zero_extendqisi2
 3591 00b2 5146     		mov	r1, sl
 3592 00b4 2A46     		mov	r2, r5
 3593 00b6 0123     		movs	r3, #1
 3594 00b8 FFF7FEFF 		bl	disk_read
 3595              	.LVL473:
 3596 00bc 0028     		cmp	r0, #0
 3597 00be 5ED1     		bne	.L453
 3598              	.L434:
 3599 00c0 BE68     		ldr	r6, [r7, #8]
 3600              	.LVL474:
 3601              		.loc 1 2444 0
 3602 00c2 BD61     		str	r5, [r7, #24]
 3603 00c4 F505     		lsls	r5, r6, #23
 3604              	.LVL475:
 3605 00c6 ED0D     		lsrs	r5, r5, #23
 3606              	.LVL476:
 3607              	.L418:
 3608              		.loc 1 2446 0
 3609 00c8 C5F50072 		rsb	r2, r5, #512
 3610              	.LVL477:
 3611 00cc 4245     		cmp	r2, r8
 3612 00ce 28BF     		it	cs
 3613 00d0 4246     		movcs	r2, r8
 3614              	.LVL478:
 3615              		.loc 1 2453 0
 3616 00d2 2035     		adds	r5, r5, #32
 3617 00d4 7D19     		adds	r5, r7, r5
 3618              	.LVL479:
 3619 00d6 2346     		mov	r3, r4
 3620              	.LBB174:
 3621              	.LBB175:
 3622              		.loc 1 532 0
 3623 00d8 42B1     		cbz	r2, .L431
 3624              	.LVL480:
 3625              		.loc 1 2367 0
ARM GAS  /var/folders/dt/0wfd0knj7gs46m8vwfzktm600000gn/T//cczoWvr4.s 			page 65


 3626 00da 0335     		adds	r5, r5, #3
 3627 00dc A318     		adds	r3, r4, r2
 3628              	.LVL481:
 3629              	.L437:
 3630              		.loc 1 533 0
 3631 00de 15F8016F 		ldrb	r6, [r5, #1]!	@ zero_extendqisi2
 3632 00e2 04F8016B 		strb	r6, [r4], #1
 3633              	.LVL482:
 3634              		.loc 1 532 0
 3635 00e6 9C42     		cmp	r4, r3
 3636 00e8 F9D1     		bne	.L437
 3637 00ea BE68     		ldr	r6, [r7, #8]
 3638              	.LVL483:
 3639              	.L431:
 3640              	.LBE175:
 3641              	.LBE174:
 3642              		.loc 1 2392 0
 3643 00ec DBF80010 		ldr	r1, [fp, #0]
 3644 00f0 B618     		adds	r6, r6, r2
 3645 00f2 8918     		adds	r1, r1, r2
 3646              		.loc 1 2391 0
 3647 00f4 B8EB0208 		subs	r8, r8, r2
 3648              		.loc 1 2392 0
 3649 00f8 BE60     		str	r6, [r7, #8]
 3650 00fa 1C46     		mov	r4, r3
 3651              	.LVL484:
 3652 00fc CBF80010 		str	r1, [fp, #0]
 3653              		.loc 1 2391 0
 3654 0100 A9D1     		bne	.L438
 3655 0102 98E7     		b	.L416
 3656              	.LVL485:
 3657              	.L419:
 3658              		.loc 1 2396 0
 3659 0104 002E     		cmp	r6, #0
 3660 0106 41D1     		bne	.L421
 3661              		.loc 1 2397 0
 3662 0108 3869     		ldr	r0, [r7, #16]
 3663              	.LVL486:
 3664              	.L422:
 3665              		.loc 1 2406 0
 3666 010a 0128     		cmp	r0, #1
 3667 010c B5D9     		bls	.L425
 3668              		.loc 1 2407 0
 3669 010e 411C     		adds	r1, r0, #1
 3670 0110 35D0     		beq	.L453
 3671 0112 3B68     		ldr	r3, [r7, #0]
 3672              		.loc 1 2408 0
 3673 0114 7861     		str	r0, [r7, #20]
 3674              	.LVL487:
 3675              	.LBB176:
 3676              	.LBB173:
 3677              		.loc 1 801 0
 3678 0116 9969     		ldr	r1, [r3, #24]
 3679              		.loc 1 800 0
 3680 0118 0238     		subs	r0, r0, #2
 3681              	.LVL488:
 3682              		.loc 1 801 0
ARM GAS  /var/folders/dt/0wfd0knj7gs46m8vwfzktm600000gn/T//cczoWvr4.s 			page 66


 3683 011a 0239     		subs	r1, r1, #2
 3684 011c 8842     		cmp	r0, r1
 3685 011e ACD2     		bcs	.L425
 3686              	.LVL489:
 3687              	.L456:
 3688              		.loc 1 802 0
 3689 0120 9978     		ldrb	r1, [r3, #2]	@ zero_extendqisi2
 3690 0122 9D6A     		ldr	r5, [r3, #40]
 3691 0124 01FB0055 		mla	r5, r1, r0, r5
 3692              	.LBE173:
 3693              	.LBE176:
 3694              		.loc 1 2411 0
 3695 0128 002D     		cmp	r5, #0
 3696 012a A6D0     		beq	.L425
 3697              		.loc 1 2414 0
 3698 012c 5FEA5826 		lsrs	r6, r8, #9
 3699              		.loc 1 2412 0
 3700 0130 1544     		add	r5, r5, r2
 3701              	.LVL490:
 3702              		.loc 1 2414 0
 3703 0132 A9D0     		beq	.L427
 3704              		.loc 1 2415 0
 3705 0134 9019     		adds	r0, r2, r6
 3706              	.LVL491:
 3707 0136 8842     		cmp	r0, r1
 3708              		.loc 1 2416 0
 3709 0138 88BF     		it	hi
 3710 013a C2EB0106 		rsbhi	r6, r2, r1
 3711              	.LVL492:
 3712              		.loc 1 2417 0
 3713 013e 5878     		ldrb	r0, [r3, #1]	@ zero_extendqisi2
 3714 0140 2146     		mov	r1, r4
 3715 0142 F3B2     		uxtb	r3, r6
 3716              	.LVL493:
 3717 0144 2A46     		mov	r2, r5
 3718 0146 FFF7FEFF 		bl	disk_read
 3719              	.LVL494:
 3720              		.loc 1 2418 0
 3721 014a BB79     		ldrb	r3, [r7, #6]	@ zero_extendqisi2
 3722              		.loc 1 2417 0
 3723 014c C0B9     		cbnz	r0, .L454
 3724              		.loc 1 2424 0
 3725 014e 03F04003 		and	r3, r3, #64
 3726 0152 DBB2     		uxtb	r3, r3
 3727 0154 7BB1     		cbz	r3, .L432
 3728              		.loc 1 2424 0 is_stmt 0 discriminator 1
 3729 0156 BB69     		ldr	r3, [r7, #24]
 3730 0158 5D1B     		subs	r5, r3, r5
 3731              	.LVL495:
 3732 015a AE42     		cmp	r6, r5
 3733 015c 0BD9     		bls	.L432
 3734              		.loc 1 2425 0 is_stmt 1
 3735 015e 04EB4525 		add	r5, r4, r5, lsl #9
 3736              	.LVL496:
 3737              		.loc 1 2367 0
 3738 0162 07F12303 		add	r3, r7, #35
 3739 0166 05F50071 		add	r1, r5, #512
ARM GAS  /var/folders/dt/0wfd0knj7gs46m8vwfzktm600000gn/T//cczoWvr4.s 			page 67


 3740              	.LVL497:
 3741              	.L433:
 3742              	.LBB177:
 3743              	.LBB178:
 3744              		.loc 1 533 0
 3745 016a 13F8012F 		ldrb	r2, [r3, #1]!	@ zero_extendqisi2
 3746 016e 05F8012B 		strb	r2, [r5], #1
 3747              	.LVL498:
 3748              		.loc 1 532 0
 3749 0172 8D42     		cmp	r5, r1
 3750 0174 F9D1     		bne	.L433
 3751              	.LVL499:
 3752              	.L432:
 3753              	.LBE178:
 3754              	.LBE177:
 3755              		.loc 1 2428 0
 3756 0176 7202     		lsls	r2, r6, #9
 3757              	.LVL500:
 3758 0178 A318     		adds	r3, r4, r2
 3759 017a BE68     		ldr	r6, [r7, #8]
 3760              	.LVL501:
 3761              		.loc 1 2429 0
 3762 017c B6E7     		b	.L431
 3763              	.LVL502:
 3764              	.L453:
 3765              		.loc 1 2441 0
 3766 017e BB79     		ldrb	r3, [r7, #6]	@ zero_extendqisi2
 3767              	.L454:
 3768 0180 63F07F03 		orn	r3, r3, #127
 3769 0184 4FF00109 		mov	r9, #1
 3770 0188 BB71     		strb	r3, [r7, #6]
 3771 018a 54E7     		b	.L416
 3772              	.LVL503:
 3773              	.L421:
 3774              		.loc 1 2404 0
 3775 018c 7969     		ldr	r1, [r7, #20]
 3776 018e 1846     		mov	r0, r3
 3777 0190 0192     		str	r2, [sp, #4]
 3778 0192 FFF7FEFF 		bl	get_fat
 3779              	.LVL504:
 3780 0196 019A     		ldr	r2, [sp, #4]
 3781 0198 B7E7     		b	.L422
 3782              		.cfi_endproc
 3783              	.LFE25:
 3784              		.size	f_read, .-f_read
 3785 019a 00BFAFF3 		.section	.text.f_write,"ax",%progbits
 3785      0080
 3786              		.align	2
 3787              		.p2align 4,,15
 3788              		.global	f_write
 3789              		.thumb
 3790              		.thumb_func
 3791              		.type	f_write, %function
 3792              	f_write:
 3793              	.LFB26:
 3794              		.loc 1 2474 0
 3795              		.cfi_startproc
ARM GAS  /var/folders/dt/0wfd0knj7gs46m8vwfzktm600000gn/T//cczoWvr4.s 			page 68


 3796              		@ args = 0, pretend = 0, frame = 8
 3797              		@ frame_needed = 0, uses_anonymous_args = 0
 3798              	.LVL505:
 3799 0000 2DE9F04F 		push	{r4, r5, r6, r7, r8, r9, sl, fp, lr}
 3800              	.LCFI22:
 3801              		.cfi_def_cfa_offset 36
 3802              		.cfi_offset 4, -36
 3803              		.cfi_offset 5, -32
 3804              		.cfi_offset 6, -28
 3805              		.cfi_offset 7, -24
 3806              		.cfi_offset 8, -20
 3807              		.cfi_offset 9, -16
 3808              		.cfi_offset 10, -12
 3809              		.cfi_offset 11, -8
 3810              		.cfi_offset 14, -4
 3811 0004 0446     		mov	r4, r0
 3812 0006 9846     		mov	r8, r3
 3813              		.loc 1 2482 0
 3814 0008 0023     		movs	r3, #0
 3815              	.LVL506:
 3816              		.loc 1 2474 0
 3817 000a 83B0     		sub	sp, sp, #12
 3818              	.LCFI23:
 3819              		.cfi_def_cfa_offset 48
 3820              		.loc 1 2474 0
 3821 000c 8946     		mov	r9, r1
 3822              	.LVL507:
 3823              		.loc 1 2482 0
 3824 000e C8F80030 		str	r3, [r8, #0]
 3825              		.loc 1 2484 0
 3826 0012 0068     		ldr	r0, [r0, #0]
 3827              	.LVL508:
 3828 0014 A188     		ldrh	r1, [r4, #4]
 3829              	.LVL509:
 3830              		.loc 1 2474 0
 3831 0016 1646     		mov	r6, r2
 3832              		.loc 1 2484 0
 3833 0018 FFF7FEFF 		bl	validate
 3834              	.LVL510:
 3835              		.loc 1 2485 0
 3836 001c 0746     		mov	r7, r0
 3837 001e 38B9     		cbnz	r0, .L458
 3838              		.loc 1 2486 0
 3839 0020 A379     		ldrb	r3, [r4, #6]	@ zero_extendqisi2
 3840 0022 1806     		lsls	r0, r3, #24
 3841              	.LVL511:
 3842 0024 08D4     		bmi	.L486
 3843              		.loc 1 2488 0
 3844 0026 03F00202 		and	r2, r3, #2
 3845 002a D2B2     		uxtb	r2, r2
 3846 002c 32B9     		cbnz	r2, .L497
 3847              		.loc 1 2489 0
 3848 002e 0727     		movs	r7, #7
 3849              	.LVL512:
 3850              	.L458:
 3851              		.loc 1 2578 0
 3852 0030 3846     		mov	r0, r7
ARM GAS  /var/folders/dt/0wfd0knj7gs46m8vwfzktm600000gn/T//cczoWvr4.s 			page 69


 3853 0032 03B0     		add	sp, sp, #12
 3854 0034 BDE8F08F 		pop	{r4, r5, r6, r7, r8, r9, sl, fp, pc}
 3855              	.LVL513:
 3856              	.L486:
 3857              		.loc 1 2487 0
 3858 0038 0227     		movs	r7, #2
 3859 003a F9E7     		b	.L458
 3860              	.L497:
 3861              		.loc 1 2490 0
 3862 003c E168     		ldr	r1, [r4, #12]
 3863 003e A268     		ldr	r2, [r4, #8]
 3864 0040 CE42     		cmn	r6, r1
 3865 0042 06D3     		bcc	.L459
 3866              	.LVL514:
 3867              	.L460:
 3868              		.loc 1 2574 0
 3869 0044 8A42     		cmp	r2, r1
 3870              		.loc 1 2575 0
 3871 0046 43F02003 		orr	r3, r3, #32
 3872              		.loc 1 2574 0
 3873 004a 88BF     		it	hi
 3874 004c E260     		strhi	r2, [r4, #12]
 3875              		.loc 1 2575 0
 3876 004e A371     		strb	r3, [r4, #6]
 3877              		.loc 1 2577 0
 3878 0050 EEE7     		b	.L458
 3879              	.LVL515:
 3880              	.L459:
 3881              		.loc 1 2492 0 discriminator 1
 3882 0052 002E     		cmp	r6, #0
 3883 0054 F6D0     		beq	.L460
 3884              		.loc 1 2555 0
 3885 0056 04F12403 		add	r3, r4, #36
 3886 005a 0193     		str	r3, [sp, #4]
 3887              		.loc 1 2468 0
 3888 005c 04F50975 		add	r5, r4, #548
 3889              	.LVL516:
 3890              	.L484:
 3891              		.loc 1 2494 0
 3892 0060 D305     		lsls	r3, r2, #23
 3893 0062 DB0D     		lsrs	r3, r3, #23
 3894 0064 002B     		cmp	r3, #0
 3895 0066 36D1     		bne	.L462
 3896              		.loc 1 2495 0
 3897 0068 2368     		ldr	r3, [r4, #0]
 3898 006a 93F802A0 		ldrb	sl, [r3, #2]	@ zero_extendqisi2
 3899 006e 0AF1FF3A 		add	sl, sl, #-1
 3900 0072 0AEA522A 		and	sl, sl, r2, lsr #9
 3901              	.LVL517:
 3902              		.loc 1 2496 0
 3903 0076 1AF0FF0A 		ands	sl, sl, #255
 3904              	.LVL518:
 3905 007a 0DD1     		bne	.L463
 3906              		.loc 1 2497 0
 3907 007c 002A     		cmp	r2, #0
 3908 007e 40F09880 		bne	.L464
 3909              		.loc 1 2498 0
ARM GAS  /var/folders/dt/0wfd0knj7gs46m8vwfzktm600000gn/T//cczoWvr4.s 			page 70


 3910 0082 2069     		ldr	r0, [r4, #16]
 3911              	.LVL519:
 3912              		.loc 1 2499 0
 3913 0084 0028     		cmp	r0, #0
 3914 0086 00F09F80 		beq	.L498
 3915              	.LVL520:
 3916              	.L465:
 3917              		.loc 1 2510 0
 3918 008a 0128     		cmp	r0, #1
 3919 008c 11D0     		beq	.L471
 3920              		.loc 1 2511 0
 3921 008e 411C     		adds	r1, r0, #1
 3922 0090 00F08980 		beq	.L481
 3923 0094 2368     		ldr	r3, [r4, #0]
 3924              		.loc 1 2512 0
 3925 0096 6061     		str	r0, [r4, #20]
 3926              	.LVL521:
 3927              	.L463:
 3928              		.loc 1 2518 0
 3929 0098 A279     		ldrb	r2, [r4, #6]	@ zero_extendqisi2
 3930 009a 02F04002 		and	r2, r2, #64
 3931 009e D2B2     		uxtb	r2, r2
 3932 00a0 002A     		cmp	r2, #0
 3933 00a2 73D1     		bne	.L499
 3934              	.L469:
 3935              	.LVL522:
 3936              	.LBB179:
 3937              	.LBB180:
 3938              		.loc 1 800 0
 3939 00a4 6169     		ldr	r1, [r4, #20]
 3940              		.loc 1 801 0
 3941 00a6 9A69     		ldr	r2, [r3, #24]
 3942              		.loc 1 800 0
 3943 00a8 A1F1020B 		sub	fp, r1, #2
 3944              	.LVL523:
 3945              		.loc 1 801 0
 3946 00ac 023A     		subs	r2, r2, #2
 3947 00ae 9345     		cmp	fp, r2
 3948 00b0 38D3     		bcc	.L500
 3949              	.LVL524:
 3950              	.L471:
 3951              	.LBE180:
 3952              	.LBE179:
 3953              		.loc 1 2525 0 discriminator 1
 3954 00b2 A379     		ldrb	r3, [r4, #6]	@ zero_extendqisi2
 3955 00b4 0227     		movs	r7, #2
 3956 00b6 63F07F03 		orn	r3, r3, #127
 3957 00ba A371     		strb	r3, [r4, #6]
 3958 00bc B8E7     		b	.L458
 3959              	.LVL525:
 3960              	.L473:
 3961              		.loc 1 2553 0
 3962 00be A269     		ldr	r2, [r4, #24]
 3963 00c0 5A45     		cmp	r2, fp
 3964              		.loc 1 2554 0
 3965 00c2 A268     		ldr	r2, [r4, #8]
 3966              		.loc 1 2553 0
ARM GAS  /var/folders/dt/0wfd0knj7gs46m8vwfzktm600000gn/T//cczoWvr4.s 			page 71


 3967 00c4 03D0     		beq	.L480
 3968              		.loc 1 2554 0
 3969 00c6 E168     		ldr	r1, [r4, #12]
 3970 00c8 8A42     		cmp	r2, r1
 3971 00ca C0F08680 		bcc	.L501
 3972              	.LVL526:
 3973              	.L480:
 3974 00ce D305     		lsls	r3, r2, #23
 3975              		.loc 1 2559 0
 3976 00d0 C4F818B0 		str	fp, [r4, #24]
 3977 00d4 DB0D     		lsrs	r3, r3, #23
 3978              	.LVL527:
 3979              	.L462:
 3980              		.loc 1 2561 0
 3981 00d6 C3F5007C 		rsb	ip, r3, #512
 3982              	.LVL528:
 3983 00da B445     		cmp	ip, r6
 3984 00dc 28BF     		it	cs
 3985 00de B446     		movcs	ip, r6
 3986              	.LVL529:
 3987              		.loc 1 2569 0
 3988 00e0 E318     		adds	r3, r4, r3
 3989 00e2 2433     		adds	r3, r3, #36
 3990              	.LVL530:
 3991              	.LBB182:
 3992              	.LBB183:
 3993              		.loc 1 532 0
 3994 00e4 BCF1000F 		cmp	ip, #0
 3995 00e8 0AD0     		beq	.L482
 3996              		.loc 1 2468 0
 3997 00ea 09F1FF32 		add	r2, r9, #-1
 3998 00ee 03EB0C00 		add	r0, r3, ip
 3999              	.LVL531:
 4000              	.L483:
 4001              		.loc 1 533 0
 4002 00f2 12F8011F 		ldrb	r1, [r2, #1]!	@ zero_extendqisi2
 4003 00f6 03F8011B 		strb	r1, [r3], #1
 4004              	.LVL532:
 4005              		.loc 1 532 0
 4006 00fa 8342     		cmp	r3, r0
 4007 00fc F9D1     		bne	.L483
 4008 00fe A268     		ldr	r2, [r4, #8]
 4009              	.L482:
 4010              	.LBE183:
 4011              	.LBE182:
 4012              		.loc 1 2570 0
 4013 0100 A379     		ldrb	r3, [r4, #6]	@ zero_extendqisi2
 4014              	.LVL533:
 4015 0102 43F04003 		orr	r3, r3, #64
 4016 0106 A371     		strb	r3, [r4, #6]
 4017              	.LVL534:
 4018              	.L478:
 4019              		.loc 1 2493 0
 4020 0108 D8F80030 		ldr	r3, [r8, #0]
 4021 010c 6244     		add	r2, r2, ip
 4022 010e 6344     		add	r3, r3, ip
 4023              		.loc 1 2492 0
ARM GAS  /var/folders/dt/0wfd0knj7gs46m8vwfzktm600000gn/T//cczoWvr4.s 			page 72


 4024 0110 B6EB0C06 		subs	r6, r6, ip
 4025              		.loc 1 2493 0
 4026 0114 A260     		str	r2, [r4, #8]
 4027 0116 E144     		add	r9, r9, ip
 4028              	.LVL535:
 4029 0118 C8F80030 		str	r3, [r8, #0]
 4030              		.loc 1 2492 0
 4031 011c A0D1     		bne	.L484
 4032 011e E168     		ldr	r1, [r4, #12]
 4033 0120 A379     		ldrb	r3, [r4, #6]	@ zero_extendqisi2
 4034 0122 8FE7     		b	.L460
 4035              	.LVL536:
 4036              	.L500:
 4037              	.LBB184:
 4038              	.LBB181:
 4039              		.loc 1 802 0
 4040 0124 9978     		ldrb	r1, [r3, #2]	@ zero_extendqisi2
 4041 0126 9A6A     		ldr	r2, [r3, #40]
 4042 0128 0BFB0122 		mla	r2, fp, r1, r2
 4043              	.LBE181:
 4044              	.LBE184:
 4045              		.loc 1 2525 0
 4046 012c 002A     		cmp	r2, #0
 4047 012e C0D0     		beq	.L471
 4048              		.loc 1 2528 0
 4049 0130 5FEA562C 		lsrs	ip, r6, #9
 4050              		.loc 1 2526 0
 4051 0134 0AEB020B 		add	fp, sl, r2
 4052              	.LVL537:
 4053              		.loc 1 2528 0
 4054 0138 C1D0     		beq	.L473
 4055              		.loc 1 2529 0
 4056 013a 0AEB0C02 		add	r2, sl, ip
 4057 013e 8A42     		cmp	r2, r1
 4058              		.loc 1 2530 0
 4059 0140 88BF     		it	hi
 4060 0142 CAEB010C 		rsbhi	ip, sl, r1
 4061              	.LVL538:
 4062              		.loc 1 2531 0
 4063 0146 5878     		ldrb	r0, [r3, #1]	@ zero_extendqisi2
 4064 0148 4946     		mov	r1, r9
 4065 014a 5FFA8CF3 		uxtb	r3, ip
 4066              	.LVL539:
 4067 014e 5A46     		mov	r2, fp
 4068 0150 CDF800C0 		str	ip, [sp, #0]
 4069 0154 FFF7FEFF 		bl	disk_write
 4070              	.LVL540:
 4071 0158 DDF800C0 		ldr	ip, [sp, #0]
 4072 015c 18BB     		cbnz	r0, .L481
 4073              		.loc 1 2539 0
 4074 015e A369     		ldr	r3, [r4, #24]
 4075 0160 CBEB030B 		rsb	fp, fp, r3
 4076              	.LVL541:
 4077 0164 DC45     		cmp	ip, fp
 4078 0166 0DD9     		bls	.L476
 4079              		.loc 1 2540 0
 4080 0168 09EB4B22 		add	r2, r9, fp, lsl #9
ARM GAS  /var/folders/dt/0wfd0knj7gs46m8vwfzktm600000gn/T//cczoWvr4.s 			page 73


 4081 016c 019B     		ldr	r3, [sp, #4]
 4082              	.LVL542:
 4083              		.loc 1 2468 0
 4084 016e 013A     		subs	r2, r2, #1
 4085              	.LVL543:
 4086              	.L477:
 4087              	.LBB185:
 4088              	.LBB186:
 4089              		.loc 1 533 0
 4090 0170 12F8011F 		ldrb	r1, [r2, #1]!	@ zero_extendqisi2
 4091 0174 03F8011B 		strb	r1, [r3], #1
 4092              	.LVL544:
 4093              		.loc 1 532 0
 4094 0178 AB42     		cmp	r3, r5
 4095 017a F9D1     		bne	.L477
 4096              	.LBE186:
 4097              	.LBE185:
 4098              		.loc 1 2541 0
 4099 017c A379     		ldrb	r3, [r4, #6]	@ zero_extendqisi2
 4100              	.LVL545:
 4101 017e 23F04003 		bic	r3, r3, #64
 4102 0182 A371     		strb	r3, [r4, #6]
 4103              	.LVL546:
 4104              	.L476:
 4105              		.loc 1 2544 0
 4106 0184 4FEA4C2C 		lsl	ip, ip, #9
 4107              	.LVL547:
 4108 0188 A268     		ldr	r2, [r4, #8]
 4109              		.loc 1 2545 0
 4110 018a BDE7     		b	.L478
 4111              	.LVL548:
 4112              	.L499:
 4113              		.loc 1 2519 0
 4114 018c 5878     		ldrb	r0, [r3, #1]	@ zero_extendqisi2
 4115 018e 0199     		ldr	r1, [sp, #4]
 4116 0190 A269     		ldr	r2, [r4, #24]
 4117 0192 0123     		movs	r3, #1
 4118 0194 FFF7FEFF 		bl	disk_write
 4119              	.LVL549:
 4120 0198 28B9     		cbnz	r0, .L481
 4121              		.loc 1 2521 0
 4122 019a A279     		ldrb	r2, [r4, #6]	@ zero_extendqisi2
 4123 019c 2368     		ldr	r3, [r4, #0]
 4124 019e 22F04002 		bic	r2, r2, #64
 4125 01a2 A271     		strb	r2, [r4, #6]
 4126 01a4 7EE7     		b	.L469
 4127              	.L481:
 4128              		.loc 1 2556 0
 4129 01a6 A379     		ldrb	r3, [r4, #6]	@ zero_extendqisi2
 4130 01a8 0127     		movs	r7, #1
 4131 01aa 63F07F03 		orn	r3, r3, #127
 4132 01ae A371     		strb	r3, [r4, #6]
 4133 01b0 3EE7     		b	.L458
 4134              	.LVL550:
 4135              	.L464:
 4136              		.loc 1 2507 0
 4137 01b2 1846     		mov	r0, r3
ARM GAS  /var/folders/dt/0wfd0knj7gs46m8vwfzktm600000gn/T//cczoWvr4.s 			page 74


 4138 01b4 6169     		ldr	r1, [r4, #20]
 4139 01b6 FFF7FEFF 		bl	create_chain
 4140              	.LVL551:
 4141              		.loc 1 2509 0
 4142 01ba 0028     		cmp	r0, #0
 4143 01bc 7FF465AF 		bne	.L465
 4144              	.L502:
 4145 01c0 A268     		ldr	r2, [r4, #8]
 4146 01c2 E168     		ldr	r1, [r4, #12]
 4147 01c4 A379     		ldrb	r3, [r4, #6]	@ zero_extendqisi2
 4148 01c6 3DE7     		b	.L460
 4149              	.LVL552:
 4150              	.L498:
 4151              		.loc 1 2500 0
 4152 01c8 1846     		mov	r0, r3
 4153              	.LVL553:
 4154 01ca 5146     		mov	r1, sl
 4155 01cc FFF7FEFF 		bl	create_chain
 4156              	.LVL554:
 4157 01d0 2061     		str	r0, [r4, #16]
 4158              		.loc 1 2509 0
 4159 01d2 0028     		cmp	r0, #0
 4160 01d4 7FF459AF 		bne	.L465
 4161 01d8 F2E7     		b	.L502
 4162              	.LVL555:
 4163              	.L501:
 4164              		.loc 1 2555 0 discriminator 1
 4165 01da 5878     		ldrb	r0, [r3, #1]	@ zero_extendqisi2
 4166 01dc 0199     		ldr	r1, [sp, #4]
 4167 01de 5A46     		mov	r2, fp
 4168 01e0 0123     		movs	r3, #1
 4169              	.LVL556:
 4170 01e2 FFF7FEFF 		bl	disk_read
 4171              	.LVL557:
 4172              		.loc 1 2554 0 discriminator 1
 4173 01e6 0028     		cmp	r0, #0
 4174 01e8 DDD1     		bne	.L481
 4175 01ea A268     		ldr	r2, [r4, #8]
 4176 01ec 6FE7     		b	.L480
 4177              		.cfi_endproc
 4178              	.LFE26:
 4179              		.size	f_write, .-f_write
 4180 01ee 00BF     		.section	.text.f_sync,"ax",%progbits
 4181              		.align	2
 4182              		.p2align 4,,15
 4183              		.global	f_sync
 4184              		.thumb
 4185              		.thumb_func
 4186              		.type	f_sync, %function
 4187              	f_sync:
 4188              	.LFB27:
 4189              		.loc 1 2590 0
 4190              		.cfi_startproc
 4191              		@ args = 0, pretend = 0, frame = 0
 4192              		@ frame_needed = 0, uses_anonymous_args = 0
 4193              	.LVL558:
 4194 0000 38B5     		push	{r3, r4, r5, lr}
ARM GAS  /var/folders/dt/0wfd0knj7gs46m8vwfzktm600000gn/T//cczoWvr4.s 			page 75


 4195              	.LCFI24:
 4196              		.cfi_def_cfa_offset 16
 4197              		.cfi_offset 3, -16
 4198              		.cfi_offset 4, -12
 4199              		.cfi_offset 5, -8
 4200              		.cfi_offset 14, -4
 4201              		.loc 1 2590 0
 4202 0002 0446     		mov	r4, r0
 4203              		.loc 1 2596 0
 4204 0004 A188     		ldrh	r1, [r4, #4]
 4205 0006 0068     		ldr	r0, [r0, #0]
 4206              	.LVL559:
 4207 0008 FFF7FEFF 		bl	validate
 4208              	.LVL560:
 4209              		.loc 1 2597 0
 4210 000c D8B9     		cbnz	r0, .L504
 4211              		.loc 1 2598 0
 4212 000e A379     		ldrb	r3, [r4, #6]	@ zero_extendqisi2
 4213 0010 03F02002 		and	r2, r3, #32
 4214 0014 D2B2     		uxtb	r2, r2
 4215 0016 B2B1     		cbz	r2, .L504
 4216              		.loc 1 2600 0
 4217 0018 03F04003 		and	r3, r3, #64
 4218 001c DBB2     		uxtb	r3, r3
 4219 001e 6BB1     		cbz	r3, .L505
 4220              		.loc 1 2601 0
 4221 0020 2146     		mov	r1, r4
 4222 0022 51F8243B 		ldr	r3, [r1], #36
 4223 0026 A269     		ldr	r2, [r4, #24]
 4224 0028 5878     		ldrb	r0, [r3, #1]	@ zero_extendqisi2
 4225              	.LVL561:
 4226 002a 0123     		movs	r3, #1
 4227 002c FFF7FEFF 		bl	disk_write
 4228              	.LVL562:
 4229 0030 0028     		cmp	r0, #0
 4230 0032 37D1     		bne	.L506
 4231              		.loc 1 2603 0
 4232 0034 A379     		ldrb	r3, [r4, #6]	@ zero_extendqisi2
 4233 0036 23F04003 		bic	r3, r3, #64
 4234 003a A371     		strb	r3, [r4, #6]
 4235              	.L505:
 4236              		.loc 1 2607 0
 4237 003c 2068     		ldr	r0, [r4, #0]
 4238 003e E169     		ldr	r1, [r4, #28]
 4239 0040 FFF7FEFF 		bl	move_window
 4240              	.LVL563:
 4241              		.loc 1 2608 0
 4242 0044 00B1     		cbz	r0, .L513
 4243              	.LVL564:
 4244              	.L504:
 4245              		.loc 1 2623 0
 4246 0046 38BD     		pop	{r3, r4, r5, pc}
 4247              	.LVL565:
 4248              	.L513:
 4249              		.loc 1 2609 0
 4250 0048 256A     		ldr	r5, [r4, #32]
 4251              	.LVL566:
ARM GAS  /var/folders/dt/0wfd0knj7gs46m8vwfzktm600000gn/T//cczoWvr4.s 			page 76


 4252              		.loc 1 2610 0
 4253 004a EB7A     		ldrb	r3, [r5, #11]	@ zero_extendqisi2
 4254 004c 43F02003 		orr	r3, r3, #32
 4255 0050 EB72     		strb	r3, [r5, #11]
 4256              		.loc 1 2611 0
 4257 0052 E368     		ldr	r3, [r4, #12]
 4258 0054 2B77     		strb	r3, [r5, #28]
 4259 0056 A389     		ldrh	r3, [r4, #12]
 4260 0058 1B0A     		lsrs	r3, r3, #8
 4261 005a 6B77     		strb	r3, [r5, #29]
 4262 005c E389     		ldrh	r3, [r4, #14]
 4263 005e AB77     		strb	r3, [r5, #30]
 4264 0060 E37B     		ldrb	r3, [r4, #15]	@ zero_extendqisi2
 4265 0062 EB77     		strb	r3, [r5, #31]
 4266              		.loc 1 2612 0
 4267 0064 2369     		ldr	r3, [r4, #16]
 4268 0066 AB76     		strb	r3, [r5, #26]
 4269 0068 238A     		ldrh	r3, [r4, #16]
 4270 006a 1B0A     		lsrs	r3, r3, #8
 4271 006c EB76     		strb	r3, [r5, #27]
 4272 006e 638A     		ldrh	r3, [r4, #18]
 4273 0070 2B75     		strb	r3, [r5, #20]
 4274 0072 638A     		ldrh	r3, [r4, #18]
 4275 0074 1B0A     		lsrs	r3, r3, #8
 4276 0076 6B75     		strb	r3, [r5, #21]
 4277              		.loc 1 2613 0
 4278 0078 FFF7FEFF 		bl	get_fattime
 4279              	.LVL567:
 4280              		.loc 1 2614 0
 4281 007c 020C     		lsrs	r2, r0, #16
 4282 007e 030E     		lsrs	r3, r0, #24
 4283 0080 C0F30721 		ubfx	r1, r0, #8, #8
 4284 0084 A875     		strb	r0, [r5, #22]
 4285 0086 E975     		strb	r1, [r5, #23]
 4286 0088 2A76     		strb	r2, [r5, #24]
 4287 008a 6B76     		strb	r3, [r5, #25]
 4288              		.loc 1 2615 0
 4289 008c A279     		ldrb	r2, [r4, #6]	@ zero_extendqisi2
 4290              		.loc 1 2616 0
 4291 008e 2368     		ldr	r3, [r4, #0]
 4292              		.loc 1 2615 0
 4293 0090 22F02002 		bic	r2, r2, #32
 4294 0094 A271     		strb	r2, [r4, #6]
 4295              		.loc 1 2616 0
 4296 0096 0122     		movs	r2, #1
 4297 0098 1A71     		strb	r2, [r3, #4]
 4298              		.loc 1 2617 0
 4299 009a 2068     		ldr	r0, [r4, #0]
 4300              	.LVL568:
 4301              		.loc 1 2623 0
 4302 009c BDE83840 		pop	{r3, r4, r5, lr}
 4303              		.loc 1 2617 0
 4304 00a0 FFF7FEBF 		b	sync
 4305              	.LVL569:
 4306              	.L506:
 4307              		.loc 1 2602 0
 4308 00a4 0120     		movs	r0, #1
ARM GAS  /var/folders/dt/0wfd0knj7gs46m8vwfzktm600000gn/T//cczoWvr4.s 			page 77


 4309 00a6 CEE7     		b	.L504
 4310              		.cfi_endproc
 4311              	.LFE27:
 4312              		.size	f_sync, .-f_sync
 4313 00a8 AFF30080 		.section	.text.f_close,"ax",%progbits
 4313      AFF30080 
 4314              		.align	2
 4315              		.p2align 4,,15
 4316              		.global	f_close
 4317              		.thumb
 4318              		.thumb_func
 4319              		.type	f_close, %function
 4320              	f_close:
 4321              	.LFB28:
 4322              		.loc 1 2637 0
 4323              		.cfi_startproc
 4324              		@ args = 0, pretend = 0, frame = 0
 4325              		@ frame_needed = 0, uses_anonymous_args = 0
 4326              	.LVL570:
 4327 0000 10B5     		push	{r4, lr}
 4328              	.LCFI25:
 4329              		.cfi_def_cfa_offset 8
 4330              		.cfi_offset 4, -8
 4331              		.cfi_offset 14, -4
 4332              		.loc 1 2637 0
 4333 0002 0446     		mov	r4, r0
 4334              		.loc 1 2647 0
 4335 0004 FFF7FEFF 		bl	f_sync
 4336              	.LVL571:
 4337              		.loc 1 2661 0
 4338 0008 00B9     		cbnz	r0, .L515
 4339              		.loc 1 2661 0 is_stmt 0 discriminator 1
 4340 000a 2060     		str	r0, [r4, #0]
 4341              	.L515:
 4342              		.loc 1 2664 0 is_stmt 1
 4343 000c 10BD     		pop	{r4, pc}
 4344              		.cfi_endproc
 4345              	.LFE28:
 4346              		.size	f_close, .-f_close
 4347 000e 00BF     		.section	.text.f_lseek,"ax",%progbits
 4348              		.align	2
 4349              		.p2align 4,,15
 4350              		.global	f_lseek
 4351              		.thumb
 4352              		.thumb_func
 4353              		.type	f_lseek, %function
 4354              	f_lseek:
 4355              	.LFB29:
 4356              		.loc 1 2802 0
 4357              		.cfi_startproc
 4358              		@ args = 0, pretend = 0, frame = 0
 4359              		@ frame_needed = 0, uses_anonymous_args = 0
 4360              	.LVL572:
 4361 0000 F8B5     		push	{r3, r4, r5, r6, r7, lr}
 4362              	.LCFI26:
 4363              		.cfi_def_cfa_offset 24
 4364              		.cfi_offset 3, -24
ARM GAS  /var/folders/dt/0wfd0knj7gs46m8vwfzktm600000gn/T//cczoWvr4.s 			page 78


 4365              		.cfi_offset 4, -20
 4366              		.cfi_offset 5, -16
 4367              		.cfi_offset 6, -12
 4368              		.cfi_offset 7, -8
 4369              		.cfi_offset 14, -4
 4370              		.loc 1 2802 0
 4371 0002 0446     		mov	r4, r0
 4372 0004 0D46     		mov	r5, r1
 4373              		.loc 1 2806 0
 4374 0006 0068     		ldr	r0, [r0, #0]
 4375              	.LVL573:
 4376 0008 A188     		ldrh	r1, [r4, #4]
 4377              	.LVL574:
 4378 000a FFF7FEFF 		bl	validate
 4379              	.LVL575:
 4380              		.loc 1 2807 0
 4381 000e 0646     		mov	r6, r0
 4382 0010 0028     		cmp	r0, #0
 4383 0012 51D1     		bne	.L517
 4384              		.loc 1 2808 0
 4385 0014 A379     		ldrb	r3, [r4, #6]	@ zero_extendqisi2
 4386 0016 1806     		lsls	r0, r3, #24
 4387              	.LVL576:
 4388 0018 50D4     		bmi	.L542
 4389              	.LBB187:
 4390              		.loc 1 2872 0
 4391 001a E268     		ldr	r2, [r4, #12]
 4392 001c AA42     		cmp	r2, r5
 4393 001e 05D2     		bcs	.L518
 4394              		.loc 1 2874 0
 4395 0020 03F00203 		and	r3, r3, #2
 4396 0024 DBB2     		uxtb	r3, r3
 4397 0026 002B     		cmp	r3, #0
 4398 0028 08BF     		it	eq
 4399 002a 1546     		moveq	r5, r2
 4400              	.LVL577:
 4401              	.L518:
 4402              		.loc 1 2879 0
 4403 002c 0023     		movs	r3, #0
 4404              		.loc 1 2878 0
 4405 002e A268     		ldr	r2, [r4, #8]
 4406              	.LVL578:
 4407              		.loc 1 2879 0
 4408 0030 A360     		str	r3, [r4, #8]
 4409              		.loc 1 2880 0
 4410 0032 002D     		cmp	r5, #0
 4411 0034 40D0     		beq	.L517
 4412              		.loc 1 2881 0
 4413 0036 2068     		ldr	r0, [r4, #0]
 4414 0038 8778     		ldrb	r7, [r0, #2]	@ zero_extendqisi2
 4415 003a 7F02     		lsls	r7, r7, #9
 4416              	.LVL579:
 4417              		.loc 1 2882 0
 4418 003c 3AB1     		cbz	r2, .L519
 4419              		.loc 1 2883 0 discriminator 1
 4420 003e 013A     		subs	r2, r2, #1
 4421              	.LVL580:
ARM GAS  /var/folders/dt/0wfd0knj7gs46m8vwfzktm600000gn/T//cczoWvr4.s 			page 79


 4422 0040 691E     		subs	r1, r5, #1
 4423 0042 B1FBF7F1 		udiv	r1, r1, r7
 4424 0046 B2FBF7F3 		udiv	r3, r2, r7
 4425              		.loc 1 2882 0 discriminator 1
 4426 004a 9942     		cmp	r1, r3
 4427 004c 79D2     		bcs	.L558
 4428              	.L519:
 4429              		.loc 1 2888 0
 4430 004e 2269     		ldr	r2, [r4, #16]
 4431              	.LVL581:
 4432              		.loc 1 2890 0
 4433 0050 002A     		cmp	r2, #0
 4434 0052 36D0     		beq	.L559
 4435              	.LVL582:
 4436              	.L521:
 4437              		.loc 1 2897 0
 4438 0054 6261     		str	r2, [r4, #20]
 4439              	.L520:
 4440              		.loc 1 2899 0
 4441 0056 002A     		cmp	r2, #0
 4442 0058 43D1     		bne	.L524
 4443 005a A168     		ldr	r1, [r4, #8]
 4444              		.loc 1 2879 0
 4445 005c 1546     		mov	r5, r2
 4446              	.LVL583:
 4447              	.L525:
 4448              		.loc 1 2924 0
 4449 005e CB05     		lsls	r3, r1, #23
 4450 0060 DB0D     		lsrs	r3, r3, #23
 4451 0062 002B     		cmp	r3, #0
 4452 0064 73D0     		beq	.L555
 4453              		.loc 1 2924 0 is_stmt 0 discriminator 1
 4454 0066 A269     		ldr	r2, [r4, #24]
 4455 0068 AA42     		cmp	r2, r5
 4456 006a 70D0     		beq	.L555
 4457              		.loc 1 2927 0 is_stmt 1
 4458 006c A379     		ldrb	r3, [r4, #6]	@ zero_extendqisi2
 4459 006e 04F12407 		add	r7, r4, #36
 4460              	.LVL584:
 4461 0072 03F04003 		and	r3, r3, #64
 4462 0076 DBB2     		uxtb	r3, r3
 4463 0078 63B1     		cbz	r3, .L539
 4464              		.loc 1 2928 0
 4465 007a 2746     		mov	r7, r4
 4466 007c 57F8243B 		ldr	r3, [r7], #36
 4467 0080 5878     		ldrb	r0, [r3, #1]	@ zero_extendqisi2
 4468 0082 3946     		mov	r1, r7
 4469 0084 0123     		movs	r3, #1
 4470 0086 FFF7FEFF 		bl	disk_write
 4471              	.LVL585:
 4472              		.loc 1 2929 0
 4473 008a A379     		ldrb	r3, [r4, #6]	@ zero_extendqisi2
 4474              		.loc 1 2928 0
 4475 008c 20BB     		cbnz	r0, .L557
 4476              		.loc 1 2930 0
 4477 008e 23F04003 		bic	r3, r3, #64
 4478 0092 A371     		strb	r3, [r4, #6]
ARM GAS  /var/folders/dt/0wfd0knj7gs46m8vwfzktm600000gn/T//cczoWvr4.s 			page 80


 4479              	.L539:
 4480              		.loc 1 2933 0
 4481 0094 2368     		ldr	r3, [r4, #0]
 4482 0096 3946     		mov	r1, r7
 4483 0098 5878     		ldrb	r0, [r3, #1]	@ zero_extendqisi2
 4484 009a 2A46     		mov	r2, r5
 4485 009c 0123     		movs	r3, #1
 4486 009e FFF7FEFF 		bl	disk_read
 4487              	.LVL586:
 4488 00a2 C0B9     		cbnz	r0, .L556
 4489 00a4 A168     		ldr	r1, [r4, #8]
 4490 00a6 E368     		ldr	r3, [r4, #12]
 4491              		.loc 1 2936 0
 4492 00a8 A561     		str	r5, [r4, #24]
 4493              	.L537:
 4494              		.loc 1 2939 0
 4495 00aa 9942     		cmp	r1, r3
 4496 00ac 04D9     		bls	.L517
 4497              		.loc 1 2941 0
 4498 00ae A379     		ldrb	r3, [r4, #6]	@ zero_extendqisi2
 4499              		.loc 1 2940 0
 4500 00b0 E160     		str	r1, [r4, #12]
 4501              		.loc 1 2941 0
 4502 00b2 43F02003 		orr	r3, r3, #32
 4503 00b6 A371     		strb	r3, [r4, #6]
 4504              	.LVL587:
 4505              	.L517:
 4506              	.LBE187:
 4507              		.loc 1 2947 0
 4508 00b8 3046     		mov	r0, r6
 4509 00ba F8BD     		pop	{r3, r4, r5, r6, r7, pc}
 4510              	.LVL588:
 4511              	.L542:
 4512              		.loc 1 2809 0
 4513 00bc 0226     		movs	r6, #2
 4514              		.loc 1 2947 0
 4515 00be 3046     		mov	r0, r6
 4516 00c0 F8BD     		pop	{r3, r4, r5, r6, r7, pc}
 4517              	.LVL589:
 4518              	.L559:
 4519              	.LBB190:
 4520              		.loc 1 2891 0
 4521 00c2 1146     		mov	r1, r2
 4522 00c4 FFF7FEFF 		bl	create_chain
 4523              	.LVL590:
 4524              		.loc 1 2892 0
 4525 00c8 0128     		cmp	r0, #1
 4526              		.loc 1 2891 0
 4527 00ca 0246     		mov	r2, r0
 4528              	.LVL591:
 4529              		.loc 1 2892 0
 4530 00cc 33D0     		beq	.L534
 4531              		.loc 1 2893 0
 4532 00ce 411C     		adds	r1, r0, #1
 4533              		.loc 1 2894 0
 4534 00d0 18BF     		it	ne
 4535 00d2 2061     		strne	r0, [r4, #16]
ARM GAS  /var/folders/dt/0wfd0knj7gs46m8vwfzktm600000gn/T//cczoWvr4.s 			page 81


 4536              		.loc 1 2893 0
 4537 00d4 BED1     		bne	.L521
 4538              	.LVL592:
 4539              	.L556:
 4540              		.loc 1 2934 0
 4541 00d6 A379     		ldrb	r3, [r4, #6]	@ zero_extendqisi2
 4542              	.L557:
 4543 00d8 63F07F03 		orn	r3, r3, #127
 4544 00dc 0126     		movs	r6, #1
 4545 00de A371     		strb	r3, [r4, #6]
 4546 00e0 EAE7     		b	.L517
 4547              	.LVL593:
 4548              	.L524:
 4549              		.loc 1 2900 0 discriminator 1
 4550 00e2 BD42     		cmp	r5, r7
 4551 00e4 98BF     		it	ls
 4552 00e6 A168     		ldrls	r1, [r4, #8]
 4553 00e8 35D9     		bls	.L527
 4554 00ea 2368     		ldr	r3, [r4, #0]
 4555 00ec 11E0     		b	.L533
 4556              	.LVL594:
 4557              	.L561:
 4558              		.loc 1 2903 0
 4559 00ee FFF7FEFF 		bl	create_chain
 4560              	.LVL595:
 4561              		.loc 1 2904 0
 4562 00f2 0246     		mov	r2, r0
 4563 00f4 68B3     		cbz	r0, .L560
 4564              	.L529:
 4565              	.LVL596:
 4566              		.loc 1 2910 0
 4567 00f6 531C     		adds	r3, r2, #1
 4568 00f8 EDD0     		beq	.L556
 4569              		.loc 1 2911 0
 4570 00fa 012A     		cmp	r2, #1
 4571 00fc 1BD9     		bls	.L534
 4572              		.loc 1 2911 0 is_stmt 0 discriminator 2
 4573 00fe 2368     		ldr	r3, [r4, #0]
 4574 0100 9969     		ldr	r1, [r3, #24]
 4575 0102 8A42     		cmp	r2, r1
 4576 0104 17D2     		bcs	.L534
 4577              		.loc 1 2913 0 is_stmt 1
 4578 0106 A168     		ldr	r1, [r4, #8]
 4579              		.loc 1 2900 0
 4580 0108 AF42     		cmp	r7, r5
 4581              		.loc 1 2913 0
 4582 010a 3944     		add	r1, r7, r1
 4583              		.loc 1 2912 0
 4584 010c 6261     		str	r2, [r4, #20]
 4585              		.loc 1 2913 0
 4586 010e A160     		str	r1, [r4, #8]
 4587              		.loc 1 2900 0
 4588 0110 21D2     		bcs	.L527
 4589              	.LVL597:
 4590              	.L533:
 4591              		.loc 1 2902 0
 4592 0112 94F806E0 		ldrb	lr, [r4, #6]	@ zero_extendqisi2
ARM GAS  /var/folders/dt/0wfd0knj7gs46m8vwfzktm600000gn/T//cczoWvr4.s 			page 82


 4593              		.loc 1 2914 0
 4594 0116 ED1B     		subs	r5, r5, r7
 4595              	.LVL598:
 4596              		.loc 1 2902 0
 4597 0118 0EF0020E 		and	lr, lr, #2
 4598 011c 5FFA8EFE 		uxtb	lr, lr
 4599              		.loc 1 2903 0
 4600 0120 1846     		mov	r0, r3
 4601 0122 1146     		mov	r1, r2
 4602              		.loc 1 2902 0
 4603 0124 BEF1000F 		cmp	lr, #0
 4604 0128 E1D1     		bne	.L561
 4605              	.LVL599:
 4606              		.loc 1 2909 0
 4607 012a 1146     		mov	r1, r2
 4608 012c 1846     		mov	r0, r3
 4609 012e FFF7FEFF 		bl	get_fat
 4610              	.LVL600:
 4611 0132 0246     		mov	r2, r0
 4612              	.LVL601:
 4613 0134 DFE7     		b	.L529
 4614              	.LVL602:
 4615              	.L534:
 4616              		.loc 1 2919 0 discriminator 1
 4617 0136 A379     		ldrb	r3, [r4, #6]	@ zero_extendqisi2
 4618 0138 0226     		movs	r6, #2
 4619 013a 63F07F03 		orn	r3, r3, #127
 4620 013e A371     		strb	r3, [r4, #6]
 4621 0140 BAE7     		b	.L517
 4622              	.LVL603:
 4623              	.L558:
 4624              		.loc 1 2884 0
 4625 0142 7B42     		negs	r3, r7
 4626 0144 1A40     		ands	r2, r2, r3
 4627 0146 A260     		str	r2, [r4, #8]
 4628              		.loc 1 2885 0
 4629 0148 AD1A     		subs	r5, r5, r2
 4630              	.LVL604:
 4631              		.loc 1 2886 0
 4632 014a 6269     		ldr	r2, [r4, #20]
 4633              	.LVL605:
 4634 014c 83E7     		b	.L520
 4635              	.LVL606:
 4636              	.L555:
 4637 014e E368     		ldr	r3, [r4, #12]
 4638 0150 ABE7     		b	.L537
 4639              	.LVL607:
 4640              	.L560:
 4641 0152 A168     		ldr	r1, [r4, #8]
 4642              		.loc 1 2904 0
 4643 0154 3D46     		mov	r5, r7
 4644              	.LVL608:
 4645              	.L527:
 4646              		.loc 1 2917 0
 4647 0156 EB05     		lsls	r3, r5, #23
 4648              		.loc 1 2916 0
 4649 0158 4919     		adds	r1, r1, r5
ARM GAS  /var/folders/dt/0wfd0knj7gs46m8vwfzktm600000gn/T//cczoWvr4.s 			page 83


 4650              		.loc 1 2917 0
 4651 015a DB0D     		lsrs	r3, r3, #23
 4652              		.loc 1 2916 0
 4653 015c A160     		str	r1, [r4, #8]
 4654              		.loc 1 2917 0
 4655 015e 73B1     		cbz	r3, .L544
 4656              		.loc 1 2918 0
 4657 0160 2368     		ldr	r3, [r4, #0]
 4658              	.LVL609:
 4659              	.LBB188:
 4660              	.LBB189:
 4661              		.loc 1 800 0
 4662 0162 023A     		subs	r2, r2, #2
 4663              	.LVL610:
 4664              		.loc 1 801 0
 4665 0164 9869     		ldr	r0, [r3, #24]
 4666 0166 0238     		subs	r0, r0, #2
 4667 0168 8242     		cmp	r2, r0
 4668 016a E4D2     		bcs	.L534
 4669              		.loc 1 802 0
 4670 016c 9878     		ldrb	r0, [r3, #2]	@ zero_extendqisi2
 4671 016e 9B6A     		ldr	r3, [r3, #40]
 4672              	.LVL611:
 4673 0170 00FB0232 		mla	r2, r0, r2, r3
 4674              	.LVL612:
 4675              	.LBE189:
 4676              	.LBE188:
 4677              		.loc 1 2919 0
 4678 0174 002A     		cmp	r2, #0
 4679 0176 DED0     		beq	.L534
 4680              		.loc 1 2920 0
 4681 0178 02EB5525 		add	r5, r2, r5, lsr #9
 4682              	.LVL613:
 4683 017c 6FE7     		b	.L525
 4684              	.LVL614:
 4685              	.L544:
 4686              		.loc 1 2879 0
 4687 017e 1D46     		mov	r5, r3
 4688              	.LVL615:
 4689 0180 6DE7     		b	.L525
 4690              	.LBE190:
 4691              		.cfi_endproc
 4692              	.LFE29:
 4693              		.size	f_lseek, .-f_lseek
 4694 0182 00BFAFF3 		.section	.text.f_opendir,"ax",%progbits
 4694      0080AFF3 
 4694      0080AFF3 
 4694      0080
 4695              		.align	2
 4696              		.p2align 4,,15
 4697              		.global	f_opendir
 4698              		.thumb
 4699              		.thumb_func
 4700              		.type	f_opendir, %function
 4701              	f_opendir:
 4702              	.LFB30:
 4703              		.loc 1 2960 0
ARM GAS  /var/folders/dt/0wfd0knj7gs46m8vwfzktm600000gn/T//cczoWvr4.s 			page 84


 4704              		.cfi_startproc
 4705              		@ args = 0, pretend = 0, frame = 24
 4706              		@ frame_needed = 0, uses_anonymous_args = 0
 4707              	.LVL616:
 4708 0000 30B5     		push	{r4, r5, lr}
 4709              	.LCFI27:
 4710              		.cfi_def_cfa_offset 12
 4711              		.cfi_offset 4, -12
 4712              		.cfi_offset 5, -8
 4713              		.cfi_offset 14, -4
 4714 0002 87B0     		sub	sp, sp, #28
 4715              	.LCFI28:
 4716              		.cfi_def_cfa_offset 40
 4717              		.loc 1 2960 0
 4718 0004 06AB     		add	r3, sp, #24
 4719 0006 43F8141D 		str	r1, [r3, #-20]!
 4720 000a 0446     		mov	r4, r0
 4721              		.loc 1 2965 0
 4722 000c 0146     		mov	r1, r0
 4723              	.LVL617:
 4724 000e 0022     		movs	r2, #0
 4725 0010 1846     		mov	r0, r3
 4726              	.LVL618:
 4727 0012 FFF7FEFF 		bl	chk_mounted
 4728              	.LVL619:
 4729              		.loc 1 2966 0
 4730 0016 08B1     		cbz	r0, .L573
 4731              	.LVL620:
 4732              	.L570:
 4733              		.loc 1 2987 0
 4734 0018 07B0     		add	sp, sp, #28
 4735 001a 30BD     		pop	{r4, r5, pc}
 4736              	.LVL621:
 4737              	.L573:
 4738              		.loc 1 2967 0
 4739 001c 03AB     		add	r3, sp, #12
 4740 001e A361     		str	r3, [r4, #24]
 4741              		.loc 1 2968 0
 4742 0020 2046     		mov	r0, r4
 4743              	.LVL622:
 4744 0022 0199     		ldr	r1, [sp, #4]
 4745 0024 FFF7FEFF 		bl	follow_path
 4746              	.LVL623:
 4747              		.loc 1 2970 0
 4748 0028 D0B9     		cbnz	r0, .L564
 4749              		.loc 1 2971 0
 4750 002a 6369     		ldr	r3, [r4, #20]
 4751 002c 8BB1     		cbz	r3, .L565
 4752              		.loc 1 2972 0
 4753 002e DA7A     		ldrb	r2, [r3, #11]	@ zero_extendqisi2
 4754              		.loc 1 2975 0
 4755 0030 0520     		movs	r0, #5
 4756              	.LVL624:
 4757              		.loc 1 2972 0
 4758 0032 02F01002 		and	r2, r2, #16
 4759 0036 D2B2     		uxtb	r2, r2
 4760 0038 002A     		cmp	r2, #0
ARM GAS  /var/folders/dt/0wfd0knj7gs46m8vwfzktm600000gn/T//cczoWvr4.s 			page 85


 4761 003a EDD0     		beq	.L570
 4762              		.loc 1 2973 0
 4763 003c 5D7D     		ldrb	r5, [r3, #21]	@ zero_extendqisi2
 4764 003e 1A7D     		ldrb	r2, [r3, #20]	@ zero_extendqisi2
 4765 0040 D87E     		ldrb	r0, [r3, #27]	@ zero_extendqisi2
 4766 0042 997E     		ldrb	r1, [r3, #26]	@ zero_extendqisi2
 4767 0044 42EA0522 		orr	r2, r2, r5, lsl #8
 4768 0048 41EA0023 		orr	r3, r1, r0, lsl #8
 4769 004c 43EA0243 		orr	r3, r3, r2, lsl #16
 4770 0050 A360     		str	r3, [r4, #8]
 4771              	.L565:
 4772              	.LVL625:
 4773              		.loc 1 2979 0
 4774 0052 2368     		ldr	r3, [r4, #0]
 4775              		.loc 1 2980 0
 4776 0054 2046     		mov	r0, r4
 4777              		.loc 1 2979 0
 4778 0056 DB88     		ldrh	r3, [r3, #6]
 4779              		.loc 1 2980 0
 4780 0058 0021     		movs	r1, #0
 4781              		.loc 1 2979 0
 4782 005a A380     		strh	r3, [r4, #4]	@ movhi
 4783              		.loc 1 2980 0
 4784 005c FFF7FEFF 		bl	dir_sdi
 4785              	.LVL626:
 4786              	.L564:
 4787              		.loc 1 2983 0
 4788 0060 0428     		cmp	r0, #4
 4789 0062 08BF     		it	eq
 4790 0064 0520     		moveq	r0, #5
 4791              	.LVL627:
 4792 0066 D7E7     		b	.L570
 4793              		.cfi_endproc
 4794              	.LFE30:
 4795              		.size	f_opendir, .-f_opendir
 4796 0068 AFF30080 		.section	.text.f_readdir,"ax",%progbits
 4796      AFF30080 
 4797              		.align	2
 4798              		.p2align 4,,15
 4799              		.global	f_readdir
 4800              		.thumb
 4801              		.thumb_func
 4802              		.type	f_readdir, %function
 4803              	f_readdir:
 4804              	.LFB31:
 4805              		.loc 1 3000 0
 4806              		.cfi_startproc
 4807              		@ args = 0, pretend = 0, frame = 16
 4808              		@ frame_needed = 0, uses_anonymous_args = 0
 4809              	.LVL628:
 4810 0000 70B5     		push	{r4, r5, r6, lr}
 4811              	.LCFI29:
 4812              		.cfi_def_cfa_offset 16
 4813              		.cfi_offset 4, -16
 4814              		.cfi_offset 5, -12
 4815              		.cfi_offset 6, -8
 4816              		.cfi_offset 14, -4
ARM GAS  /var/folders/dt/0wfd0knj7gs46m8vwfzktm600000gn/T//cczoWvr4.s 			page 86


 4817 0002 0446     		mov	r4, r0
 4818 0004 84B0     		sub	sp, sp, #16
 4819              	.LCFI30:
 4820              		.cfi_def_cfa_offset 32
 4821              		.loc 1 3000 0
 4822 0006 0E46     		mov	r6, r1
 4823              		.loc 1 3005 0
 4824 0008 0068     		ldr	r0, [r0, #0]
 4825              	.LVL629:
 4826 000a A188     		ldrh	r1, [r4, #4]
 4827              	.LVL630:
 4828 000c FFF7FEFF 		bl	validate
 4829              	.LVL631:
 4830              		.loc 1 3006 0
 4831 0010 0546     		mov	r5, r0
 4832 0012 58B9     		cbnz	r0, .L575
 4833              		.loc 1 3007 0
 4834 0014 D6B1     		cbz	r6, .L581
 4835              		.loc 1 3010 0
 4836 0016 01AB     		add	r3, sp, #4
 4837 0018 A361     		str	r3, [r4, #24]
 4838              		.loc 1 3011 0
 4839 001a 2046     		mov	r0, r4
 4840              	.LVL632:
 4841 001c FFF7FEFF 		bl	dir_read
 4842              	.LVL633:
 4843              		.loc 1 3012 0
 4844 0020 0428     		cmp	r0, #4
 4845              		.loc 1 3013 0
 4846 0022 08BF     		it	eq
 4847 0024 2561     		streq	r5, [r4, #16]
 4848              		.loc 1 3012 0
 4849 0026 04D0     		beq	.L578
 4850              		.loc 1 3016 0
 4851 0028 18B1     		cbz	r0, .L578
 4852              	.LVL634:
 4853              	.L580:
 4854              		.loc 1 3019 0
 4855 002a 0546     		mov	r5, r0
 4856              	.L575:
 4857              	.LVL635:
 4858              		.loc 1 3029 0
 4859 002c 2846     		mov	r0, r5
 4860 002e 04B0     		add	sp, sp, #16
 4861 0030 70BD     		pop	{r4, r5, r6, pc}
 4862              	.LVL636:
 4863              	.L578:
 4864              		.loc 1 3017 0
 4865 0032 3146     		mov	r1, r6
 4866 0034 2046     		mov	r0, r4
 4867              	.LVL637:
 4868 0036 FFF7FEFF 		bl	get_fileinfo
 4869              	.LVL638:
 4870              		.loc 1 3018 0
 4871 003a 0021     		movs	r1, #0
 4872 003c 2046     		mov	r0, r4
 4873 003e FFF7FEFF 		bl	dir_next
ARM GAS  /var/folders/dt/0wfd0knj7gs46m8vwfzktm600000gn/T//cczoWvr4.s 			page 87


 4874              	.LVL639:
 4875              		.loc 1 3019 0
 4876 0042 0428     		cmp	r0, #4
 4877 0044 F1D1     		bne	.L580
 4878              		.loc 1 3020 0
 4879 0046 0023     		movs	r3, #0
 4880 0048 2361     		str	r3, [r4, #16]
 4881              	.LVL640:
 4882 004a EFE7     		b	.L575
 4883              	.LVL641:
 4884              	.L581:
 4885              		.loc 1 3008 0
 4886 004c 2946     		mov	r1, r5
 4887 004e 2046     		mov	r0, r4
 4888              	.LVL642:
 4889 0050 FFF7FEFF 		bl	dir_sdi
 4890              	.LVL643:
 4891 0054 0546     		mov	r5, r0
 4892              	.LVL644:
 4893 0056 E9E7     		b	.L575
 4894              		.cfi_endproc
 4895              	.LFE31:
 4896              		.size	f_readdir, .-f_readdir
 4897 0058 AFF30080 		.section	.text.f_stat,"ax",%progbits
 4897      AFF30080 
 4898              		.align	2
 4899              		.p2align 4,,15
 4900              		.global	f_stat
 4901              		.thumb
 4902              		.thumb_func
 4903              		.type	f_stat, %function
 4904              	f_stat:
 4905              	.LFB32:
 4906              		.loc 1 3042 0
 4907              		.cfi_startproc
 4908              		@ args = 0, pretend = 0, frame = 48
 4909              		@ frame_needed = 0, uses_anonymous_args = 0
 4910              	.LVL645:
 4911 0000 30B5     		push	{r4, r5, lr}
 4912              	.LCFI31:
 4913              		.cfi_def_cfa_offset 12
 4914              		.cfi_offset 4, -12
 4915              		.cfi_offset 5, -8
 4916              		.cfi_offset 14, -4
 4917 0002 8DB0     		sub	sp, sp, #52
 4918              	.LCFI32:
 4919              		.cfi_def_cfa_offset 64
 4920              		.loc 1 3042 0
 4921 0004 0CAB     		add	r3, sp, #48
 4922 0006 43F82C0D 		str	r0, [r3, #-44]!
 4923 000a 0D46     		mov	r5, r1
 4924              		.loc 1 3048 0
 4925 000c 1846     		mov	r0, r3
 4926              	.LVL646:
 4927 000e 05A9     		add	r1, sp, #20
 4928              	.LVL647:
 4929 0010 0022     		movs	r2, #0
ARM GAS  /var/folders/dt/0wfd0knj7gs46m8vwfzktm600000gn/T//cczoWvr4.s 			page 88


 4930 0012 FFF7FEFF 		bl	chk_mounted
 4931              	.LVL648:
 4932              		.loc 1 3049 0
 4933 0016 0446     		mov	r4, r0
 4934 0018 10B1     		cbz	r0, .L585
 4935              	.LVL649:
 4936              	.L583:
 4937              		.loc 1 3062 0
 4938 001a 2046     		mov	r0, r4
 4939 001c 0DB0     		add	sp, sp, #52
 4940 001e 30BD     		pop	{r4, r5, pc}
 4941              	.LVL650:
 4942              	.L585:
 4943              		.loc 1 3050 0
 4944 0020 02AB     		add	r3, sp, #8
 4945              		.loc 1 3051 0
 4946 0022 05A8     		add	r0, sp, #20
 4947              	.LVL651:
 4948 0024 0199     		ldr	r1, [sp, #4]
 4949              		.loc 1 3050 0
 4950 0026 0B93     		str	r3, [sp, #44]
 4951              		.loc 1 3051 0
 4952 0028 FFF7FEFF 		bl	follow_path
 4953              	.LVL652:
 4954              		.loc 1 3052 0
 4955 002c 0446     		mov	r4, r0
 4956 002e 0028     		cmp	r0, #0
 4957 0030 F3D1     		bne	.L583
 4958              		.loc 1 3053 0
 4959 0032 0A9B     		ldr	r3, [sp, #40]
 4960 0034 23B1     		cbz	r3, .L584
 4961              		.loc 1 3054 0
 4962 0036 05A8     		add	r0, sp, #20
 4963              	.LVL653:
 4964 0038 2946     		mov	r1, r5
 4965 003a FFF7FEFF 		bl	get_fileinfo
 4966              	.LVL654:
 4967 003e ECE7     		b	.L583
 4968              	.LVL655:
 4969              	.L584:
 4970              		.loc 1 3056 0
 4971 0040 0624     		movs	r4, #6
 4972 0042 EAE7     		b	.L583
 4973              		.cfi_endproc
 4974              	.LFE32:
 4975              		.size	f_stat, .-f_stat
 4976 0044 AFF30080 		.section	.text.f_getfree,"ax",%progbits
 4976      AFF30080 
 4976      AFF30080 
 4977              		.align	2
 4978              		.p2align 4,,15
 4979              		.global	f_getfree
 4980              		.thumb
 4981              		.thumb_func
 4982              		.type	f_getfree, %function
 4983              	f_getfree:
 4984              	.LFB33:
ARM GAS  /var/folders/dt/0wfd0knj7gs46m8vwfzktm600000gn/T//cczoWvr4.s 			page 89


 4985              		.loc 1 3076 0
 4986              		.cfi_startproc
 4987              		@ args = 0, pretend = 0, frame = 8
 4988              		@ frame_needed = 0, uses_anonymous_args = 0
 4989              	.LVL656:
 4990 0000 2DE9F04F 		push	{r4, r5, r6, r7, r8, r9, sl, fp, lr}
 4991              	.LCFI33:
 4992              		.cfi_def_cfa_offset 36
 4993              		.cfi_offset 4, -36
 4994              		.cfi_offset 5, -32
 4995              		.cfi_offset 6, -28
 4996              		.cfi_offset 7, -24
 4997              		.cfi_offset 8, -20
 4998              		.cfi_offset 9, -16
 4999              		.cfi_offset 10, -12
 5000              		.cfi_offset 11, -8
 5001              		.cfi_offset 14, -4
 5002 0004 83B0     		sub	sp, sp, #12
 5003              	.LCFI34:
 5004              		.cfi_def_cfa_offset 48
 5005              		.loc 1 3076 0
 5006 0006 02AB     		add	r3, sp, #8
 5007 0008 43F8040D 		str	r0, [r3, #-4]!
 5008 000c 9046     		mov	r8, r2
 5009 000e 8946     		mov	r9, r1
 5010              		.loc 1 3084 0
 5011 0010 1846     		mov	r0, r3
 5012              	.LVL657:
 5013 0012 1146     		mov	r1, r2
 5014              	.LVL658:
 5015 0014 0022     		movs	r2, #0
 5016              	.LVL659:
 5017 0016 FFF7FEFF 		bl	chk_mounted
 5018              	.LVL660:
 5019              		.loc 1 3085 0
 5020 001a 0746     		mov	r7, r0
 5021 001c 88BB     		cbnz	r0, .L604
 5022              		.loc 1 3087 0
 5023 001e D8F80050 		ldr	r5, [r8, #0]
 5024 0022 AC69     		ldr	r4, [r5, #24]
 5025 0024 2B69     		ldr	r3, [r5, #16]
 5026 0026 A21E     		subs	r2, r4, #2
 5027 0028 9342     		cmp	r3, r2
 5028              		.loc 1 3088 0
 5029 002a 98BF     		it	ls
 5030 002c C9F80030 		strls	r3, [r9, #0]
 5031              		.loc 1 3087 0
 5032 0030 27D9     		bls	.L604
 5033              		.loc 1 3091 0
 5034 0032 95F800B0 		ldrb	fp, [r5, #0]	@ zero_extendqisi2
 5035              	.LVL661:
 5036              		.loc 1 3093 0
 5037 0036 BBF1010F 		cmp	fp, #1
 5038 003a 46D0     		beq	.L607
 5039              	.LVL662:
 5040              		.loc 1 3103 0
 5041 003c D5F820C0 		ldr	ip, [r5, #32]
ARM GAS  /var/folders/dt/0wfd0knj7gs46m8vwfzktm600000gn/T//cczoWvr4.s 			page 90


 5042              	.LVL663:
 5043              		.loc 1 3104 0
 5044 0040 0346     		mov	r3, r0
 5045 0042 0646     		mov	r6, r0
 5046              		.loc 1 3092 0
 5047 0044 8246     		mov	sl, r0
 5048              	.LVL664:
 5049              	.L602:
 5050              		.loc 1 3106 0
 5051 0046 06B3     		cbz	r6, .L608
 5052              		.loc 1 3112 0
 5053 0048 BBF1020F 		cmp	fp, #2
 5054 004c 2ED0     		beq	.L609
 5055              	.L598:
 5056              		.loc 1 3116 0
 5057 004e 9A78     		ldrb	r2, [r3, #2]	@ zero_extendqisi2
 5058 0050 D978     		ldrb	r1, [r3, #3]	@ zero_extendqisi2
 5059 0052 1204     		lsls	r2, r2, #16
 5060 0054 1878     		ldrb	r0, [r3, #0]	@ zero_extendqisi2
 5061 0056 42EA0162 		orr	r2, r2, r1, lsl #24
 5062 005a 5978     		ldrb	r1, [r3, #1]	@ zero_extendqisi2
 5063 005c 0243     		orrs	r2, r2, r0
 5064 005e 42EA0122 		orr	r2, r2, r1, lsl #8
 5065 0062 22F07042 		bic	r2, r2, #-268435456
 5066 0066 0AB9     		cbnz	r2, .L601
 5067              		.loc 1 3116 0 is_stmt 0 discriminator 1
 5068 0068 0AF1010A 		add	sl, sl, #1
 5069              	.LVL665:
 5070              	.L601:
 5071              		.loc 1 3117 0 is_stmt 1
 5072 006c 0433     		adds	r3, r3, #4
 5073              	.LVL666:
 5074 006e 043E     		subs	r6, r6, #4
 5075              	.LVL667:
 5076              	.L600:
 5077              		.loc 1 3119 0
 5078 0070 013C     		subs	r4, r4, #1
 5079              	.LVL668:
 5080 0072 E8D1     		bne	.L602
 5081              	.LVL669:
 5082              	.L597:
 5083              		.loc 1 3122 0
 5084 0074 BBF1030F 		cmp	fp, #3
 5085              		.loc 1 3121 0
 5086 0078 C5F810A0 		str	sl, [r5, #16]
 5087              		.loc 1 3122 0
 5088 007c 20D0     		beq	.L610
 5089              		.loc 1 3123 0
 5090 007e C9F800A0 		str	sl, [r9, #0]
 5091              	.LVL670:
 5092              	.L604:
 5093              		.loc 1 3127 0
 5094 0082 3846     		mov	r0, r7
 5095 0084 03B0     		add	sp, sp, #12
 5096 0086 BDE8F08F 		pop	{r4, r5, r6, r7, r8, r9, sl, fp, pc}
 5097              	.LVL671:
 5098              	.L608:
ARM GAS  /var/folders/dt/0wfd0knj7gs46m8vwfzktm600000gn/T//cczoWvr4.s 			page 91


 5099              		.loc 1 3107 0
 5100 008a 2846     		mov	r0, r5
 5101 008c 6146     		mov	r1, ip
 5102 008e 0CF10106 		add	r6, ip, #1
 5103              	.LVL672:
 5104 0092 FFF7FEFF 		bl	move_window
 5105              	.LVL673:
 5106 0096 D8F80050 		ldr	r5, [r8, #0]
 5107              		.loc 1 3108 0
 5108 009a 70BB     		cbnz	r0, .L611
 5109              		.loc 1 3112 0
 5110 009c BBF1020F 		cmp	fp, #2
 5111              		.loc 1 3107 0
 5112 00a0 B446     		mov	ip, r6
 5113              		.loc 1 3109 0
 5114 00a2 05F13003 		add	r3, r5, #48
 5115              	.LVL674:
 5116              		.loc 1 3110 0
 5117 00a6 4FF40076 		mov	r6, #512
 5118              	.LVL675:
 5119              		.loc 1 3112 0
 5120 00aa D0D1     		bne	.L598
 5121              	.L609:
 5122              		.loc 1 3113 0
 5123 00ac 5978     		ldrb	r1, [r3, #1]	@ zero_extendqisi2
 5124 00ae 1A78     		ldrb	r2, [r3, #0]	@ zero_extendqisi2
 5125 00b0 52EA0122 		orrs	r2, r2, r1, lsl #8
 5126 00b4 08BF     		it	eq
 5127 00b6 0AF1010A 		addeq	sl, sl, #1
 5128              	.LVL676:
 5129              		.loc 1 3114 0
 5130 00ba 0233     		adds	r3, r3, #2
 5131              	.LVL677:
 5132 00bc 023E     		subs	r6, r6, #2
 5133              	.LVL678:
 5134 00be D7E7     		b	.L600
 5135              	.LVL679:
 5136              	.L610:
 5137              		.loc 1 3122 0 discriminator 1
 5138 00c0 0123     		movs	r3, #1
 5139 00c2 6B71     		strb	r3, [r5, #5]
 5140              		.loc 1 3123 0 discriminator 1
 5141 00c4 C9F800A0 		str	sl, [r9, #0]
 5142 00c8 DBE7     		b	.L604
 5143              	.LVL680:
 5144              	.L607:
 5145              		.loc 1 3093 0
 5146 00ca 0224     		movs	r4, #2
 5147 00cc 8246     		mov	sl, r0
 5148              	.LVL681:
 5149              	.L594:
 5150              		.loc 1 3096 0
 5151 00ce 2846     		mov	r0, r5
 5152 00d0 2146     		mov	r1, r4
 5153 00d2 FFF7FEFF 		bl	get_fat
 5154              	.LVL682:
 5155              		.loc 1 3100 0
ARM GAS  /var/folders/dt/0wfd0knj7gs46m8vwfzktm600000gn/T//cczoWvr4.s 			page 92


 5156 00d6 0134     		adds	r4, r4, #1
 5157              	.LVL683:
 5158              		.loc 1 3097 0
 5159 00d8 451C     		adds	r5, r0, #1
 5160 00da 10D0     		beq	.L590
 5161              		.loc 1 3098 0
 5162 00dc 0128     		cmp	r0, #1
 5163 00de 12D0     		beq	.L612
 5164              		.loc 1 3099 0
 5165 00e0 08B9     		cbnz	r0, .L593
 5166              		.loc 1 3099 0 is_stmt 0 discriminator 1
 5167 00e2 0AF1010A 		add	sl, sl, #1
 5168              	.LVL684:
 5169              	.L593:
 5170              		.loc 1 3100 0 is_stmt 1
 5171 00e6 D8F80050 		ldr	r5, [r8, #0]
 5172 00ea AB69     		ldr	r3, [r5, #24]
 5173 00ec 9C42     		cmp	r4, r3
 5174 00ee EED3     		bcc	.L594
 5175              	.LVL685:
 5176              	.L592:
 5177              		.loc 1 3121 0
 5178 00f0 C5F810A0 		str	sl, [r5, #16]
 5179              		.loc 1 3123 0
 5180 00f4 C9F800A0 		str	sl, [r9, #0]
 5181 00f8 C3E7     		b	.L604
 5182              	.LVL686:
 5183              	.L611:
 5184              		.loc 1 3107 0
 5185 00fa 0746     		mov	r7, r0
 5186 00fc BAE7     		b	.L597
 5187              	.LVL687:
 5188              	.L590:
 5189 00fe D8F80050 		ldr	r5, [r8, #0]
 5190              		.loc 1 3097 0
 5191 0102 0127     		movs	r7, #1
 5192 0104 F4E7     		b	.L592
 5193              	.L612:
 5194 0106 D8F80050 		ldr	r5, [r8, #0]
 5195              		.loc 1 3098 0
 5196 010a 0227     		movs	r7, #2
 5197 010c F0E7     		b	.L592
 5198              		.cfi_endproc
 5199              	.LFE33:
 5200              		.size	f_getfree, .-f_getfree
 5201 010e 00BF     		.section	.text.f_truncate,"ax",%progbits
 5202              		.align	2
 5203              		.p2align 4,,15
 5204              		.global	f_truncate
 5205              		.thumb
 5206              		.thumb_func
 5207              		.type	f_truncate, %function
 5208              	f_truncate:
 5209              	.LFB34:
 5210              		.loc 1 3139 0
 5211              		.cfi_startproc
 5212              		@ args = 0, pretend = 0, frame = 0
ARM GAS  /var/folders/dt/0wfd0knj7gs46m8vwfzktm600000gn/T//cczoWvr4.s 			page 93


 5213              		@ frame_needed = 0, uses_anonymous_args = 0
 5214              	.LVL688:
 5215 0000 70B5     		push	{r4, r5, r6, lr}
 5216              	.LCFI35:
 5217              		.cfi_def_cfa_offset 16
 5218              		.cfi_offset 4, -16
 5219              		.cfi_offset 5, -12
 5220              		.cfi_offset 6, -8
 5221              		.cfi_offset 14, -4
 5222              		.loc 1 3139 0
 5223 0002 0446     		mov	r4, r0
 5224              		.loc 1 3144 0
 5225 0004 A188     		ldrh	r1, [r4, #4]
 5226 0006 0068     		ldr	r0, [r0, #0]
 5227              	.LVL689:
 5228 0008 FFF7FEFF 		bl	validate
 5229              	.LVL690:
 5230              		.loc 1 3145 0
 5231 000c 0546     		mov	r5, r0
 5232 000e D0B9     		cbnz	r0, .L630
 5233              		.loc 1 3146 0
 5234 0010 A379     		ldrb	r3, [r4, #6]	@ zero_extendqisi2
 5235 0012 1A06     		lsls	r2, r3, #24
 5236 0014 1CD4     		bmi	.L625
 5237              		.loc 1 3149 0
 5238 0016 03F00202 		and	r2, r3, #2
 5239 001a D2B2     		uxtb	r2, r2
 5240 001c AAB1     		cbz	r2, .L626
 5241              	.LVL691:
 5242              		.loc 1 3154 0
 5243 001e A668     		ldr	r6, [r4, #8]
 5244 0020 E268     		ldr	r2, [r4, #12]
 5245 0022 B242     		cmp	r2, r6
 5246 0024 0FD9     		bls	.L630
 5247              		.loc 1 3156 0
 5248 0026 43F02003 		orr	r3, r3, #32
 5249              		.loc 1 3155 0
 5250 002a E660     		str	r6, [r4, #12]
 5251              		.loc 1 3156 0
 5252 002c A371     		strb	r3, [r4, #6]
 5253              		.loc 1 3158 0
 5254 002e 2068     		ldr	r0, [r4, #0]
 5255              		.loc 1 3157 0
 5256 0030 8EB9     		cbnz	r6, .L616
 5257              		.loc 1 3158 0
 5258 0032 2169     		ldr	r1, [r4, #16]
 5259 0034 FFF7FEFF 		bl	remove_chain
 5260              	.LVL692:
 5261              		.loc 1 3159 0
 5262 0038 2661     		str	r6, [r4, #16]
 5263              		.loc 1 3158 0
 5264 003a 0546     		mov	r5, r0
 5265              	.LVL693:
 5266              	.L617:
 5267              		.loc 1 3171 0
 5268 003c 1DB1     		cbz	r5, .L630
 5269              	.LVL694:
ARM GAS  /var/folders/dt/0wfd0knj7gs46m8vwfzktm600000gn/T//cczoWvr4.s 			page 94


 5270              	.L623:
 5271              		.loc 1 3171 0 is_stmt 0 discriminator 1
 5272 003e A379     		ldrb	r3, [r4, #6]	@ zero_extendqisi2
 5273 0040 63F07F03 		orn	r3, r3, #127
 5274 0044 A371     		strb	r3, [r4, #6]
 5275              	.L630:
 5276              		.loc 1 3175 0 is_stmt 1
 5277 0046 2846     		mov	r0, r5
 5278 0048 70BD     		pop	{r4, r5, r6, pc}
 5279              	.LVL695:
 5280              	.L626:
 5281              		.loc 1 3150 0
 5282 004a 0725     		movs	r5, #7
 5283              	.LVL696:
 5284              		.loc 1 3175 0
 5285 004c 2846     		mov	r0, r5
 5286 004e 70BD     		pop	{r4, r5, r6, pc}
 5287              	.LVL697:
 5288              	.L625:
 5289              		.loc 1 3147 0
 5290 0050 0225     		movs	r5, #2
 5291              		.loc 1 3175 0
 5292 0052 2846     		mov	r0, r5
 5293              	.LVL698:
 5294 0054 70BD     		pop	{r4, r5, r6, pc}
 5295              	.LVL699:
 5296              	.L616:
 5297              		.loc 1 3161 0
 5298 0056 6169     		ldr	r1, [r4, #20]
 5299 0058 FFF7FEFF 		bl	get_fat
 5300              	.LVL700:
 5301              		.loc 1 3163 0
 5302 005c 431C     		adds	r3, r0, #1
 5303              		.loc 1 3161 0
 5304 005e 0646     		mov	r6, r0
 5305              	.LVL701:
 5306              		.loc 1 3163 0
 5307 0060 15D0     		beq	.L627
 5308              		.loc 1 3164 0
 5309 0062 0128     		cmp	r0, #1
 5310 0064 11D0     		beq	.L635
 5311              		.loc 1 3165 0
 5312 0066 2068     		ldr	r0, [r4, #0]
 5313              	.LVL702:
 5314 0068 8369     		ldr	r3, [r0, #24]
 5315 006a 9E42     		cmp	r6, r3
 5316 006c EBD2     		bcs	.L630
 5317              		.loc 1 3166 0
 5318 006e 6169     		ldr	r1, [r4, #20]
 5319 0070 6FF07042 		mvn	r2, #-268435456
 5320 0074 FFF7FEFF 		bl	put_fat
 5321              	.LVL703:
 5322              		.loc 1 3167 0
 5323 0078 0546     		mov	r5, r0
 5324 007a 0028     		cmp	r0, #0
 5325 007c DFD1     		bne	.L623
 5326              		.loc 1 3167 0 is_stmt 0 discriminator 1
ARM GAS  /var/folders/dt/0wfd0knj7gs46m8vwfzktm600000gn/T//cczoWvr4.s 			page 95


 5327 007e 2068     		ldr	r0, [r4, #0]
 5328              	.LVL704:
 5329 0080 3146     		mov	r1, r6
 5330 0082 FFF7FEFF 		bl	remove_chain
 5331              	.LVL705:
 5332 0086 0546     		mov	r5, r0
 5333              	.LVL706:
 5334 0088 D8E7     		b	.L617
 5335              	.LVL707:
 5336              	.L635:
 5337              		.loc 1 3164 0 is_stmt 1
 5338 008a 0225     		movs	r5, #2
 5339 008c D7E7     		b	.L623
 5340              	.L627:
 5341              		.loc 1 3163 0
 5342 008e 0125     		movs	r5, #1
 5343 0090 D5E7     		b	.L623
 5344              		.cfi_endproc
 5345              	.LFE34:
 5346              		.size	f_truncate, .-f_truncate
 5347 0092 00BFAFF3 		.section	.text.f_unlink,"ax",%progbits
 5347      0080AFF3 
 5347      0080AFF3 
 5347      0080
 5348              		.align	2
 5349              		.p2align 4,,15
 5350              		.global	f_unlink
 5351              		.thumb
 5352              		.thumb_func
 5353              		.type	f_unlink, %function
 5354              	f_unlink:
 5355              	.LFB35:
 5356              		.loc 1 3187 0
 5357              		.cfi_startproc
 5358              		@ args = 0, pretend = 0, frame = 80
 5359              		@ frame_needed = 0, uses_anonymous_args = 0
 5360              	.LVL708:
 5361 0000 30B5     		push	{r4, r5, lr}
 5362              	.LCFI36:
 5363              		.cfi_def_cfa_offset 12
 5364              		.cfi_offset 4, -12
 5365              		.cfi_offset 5, -8
 5366              		.cfi_offset 14, -4
 5367 0002 95B0     		sub	sp, sp, #84
 5368              	.LCFI37:
 5369              		.cfi_def_cfa_offset 96
 5370              		.loc 1 3187 0
 5371 0004 14AB     		add	r3, sp, #80
 5372 0006 43F84C0D 		str	r0, [r3, #-76]!
 5373              		.loc 1 3195 0
 5374 000a 1846     		mov	r0, r3
 5375              	.LVL709:
 5376 000c 06A9     		add	r1, sp, #24
 5377 000e 0122     		movs	r2, #1
 5378 0010 FFF7FEFF 		bl	chk_mounted
 5379              	.LVL710:
 5380              		.loc 1 3196 0
ARM GAS  /var/folders/dt/0wfd0knj7gs46m8vwfzktm600000gn/T//cczoWvr4.s 			page 96


 5381 0014 08B1     		cbz	r0, .L660
 5382              	.LVL711:
 5383              	.L653:
 5384              		.loc 1 3243 0
 5385 0016 15B0     		add	sp, sp, #84
 5386 0018 30BD     		pop	{r4, r5, pc}
 5387              	.LVL712:
 5388              	.L660:
 5389              		.loc 1 3197 0
 5390 001a 03AB     		add	r3, sp, #12
 5391              		.loc 1 3198 0
 5392 001c 06A8     		add	r0, sp, #24
 5393              	.LVL713:
 5394 001e 0199     		ldr	r1, [sp, #4]
 5395              		.loc 1 3197 0
 5396 0020 0C93     		str	r3, [sp, #48]
 5397              		.loc 1 3198 0
 5398 0022 FFF7FEFF 		bl	follow_path
 5399              	.LVL714:
 5400              		.loc 1 3204 0
 5401 0026 0028     		cmp	r0, #0
 5402 0028 F5D1     		bne	.L653
 5403              		.loc 1 3205 0
 5404 002a 0B9A     		ldr	r2, [sp, #44]
 5405              	.LVL715:
 5406              		.loc 1 3207 0
 5407 002c 0620     		movs	r0, #6
 5408              	.LVL716:
 5409              		.loc 1 3206 0
 5410 002e 002A     		cmp	r2, #0
 5411 0030 F1D0     		beq	.L653
 5412              		.loc 1 3209 0
 5413 0032 D17A     		ldrb	r1, [r2, #11]	@ zero_extendqisi2
 5414 0034 11F00103 		ands	r3, r1, #1
 5415 0038 2ED1     		bne	.L648
 5416              	.LVL717:
 5417              		.loc 1 3212 0
 5418 003a 557D     		ldrb	r5, [r2, #21]	@ zero_extendqisi2
 5419              	.LVL718:
 5420 003c 147D     		ldrb	r4, [r2, #20]	@ zero_extendqisi2
 5421 003e D07E     		ldrb	r0, [r2, #27]	@ zero_extendqisi2
 5422              	.LVL719:
 5423 0040 927E     		ldrb	r2, [r2, #26]	@ zero_extendqisi2
 5424              	.LVL720:
 5425              		.loc 1 3213 0
 5426 0042 01F01001 		and	r1, r1, #16
 5427              		.loc 1 3212 0
 5428 0046 44EA0525 		orr	r5, r4, r5, lsl #8
 5429              	.LVL721:
 5430 004a 42EA0022 		orr	r2, r2, r0, lsl #8
 5431              		.loc 1 3213 0
 5432 004e C9B2     		uxtb	r1, r1
 5433              		.loc 1 3212 0
 5434 0050 42EA0545 		orr	r5, r2, r5, lsl #16
 5435              		.loc 1 3213 0
 5436 0054 B1B1     		cbz	r1, .L642
 5437              		.loc 1 3215 0
ARM GAS  /var/folders/dt/0wfd0knj7gs46m8vwfzktm600000gn/T//cczoWvr4.s 			page 97


 5438 0056 0220     		movs	r0, #2
 5439              	.LVL722:
 5440              		.loc 1 3214 0
 5441 0058 012D     		cmp	r5, #1
 5442 005a DCD9     		bls	.L653
 5443 005c 0DAC     		add	r4, sp, #52
 5444              	.L641:
 5445              	.LBB191:
 5446              	.LBB192:
 5447              		.loc 1 533 0
 5448 005e 06A9     		add	r1, sp, #24
 5449 0060 CA5C     		ldrb	r2, [r1, r3]	@ zero_extendqisi2
 5450 0062 E254     		strb	r2, [r4, r3]
 5451              	.LVL723:
 5452 0064 0133     		adds	r3, r3, #1
 5453              		.loc 1 532 0
 5454 0066 1C2B     		cmp	r3, #28
 5455 0068 F9D1     		bne	.L641
 5456              	.LBE192:
 5457              	.LBE191:
 5458              		.loc 1 3219 0
 5459 006a 2046     		mov	r0, r4
 5460 006c 0221     		movs	r1, #2
 5461              		.loc 1 3218 0
 5462 006e 0F95     		str	r5, [sp, #60]
 5463              		.loc 1 3219 0
 5464 0070 FFF7FEFF 		bl	dir_sdi
 5465              	.LVL724:
 5466              		.loc 1 3220 0
 5467 0074 0028     		cmp	r0, #0
 5468 0076 CED1     		bne	.L653
 5469              		.loc 1 3221 0
 5470 0078 2046     		mov	r0, r4
 5471              	.LVL725:
 5472 007a FFF7FEFF 		bl	dir_read
 5473              	.LVL726:
 5474              		.loc 1 3222 0
 5475 007e 58B1     		cbz	r0, .L648
 5476              		.loc 1 3227 0
 5477 0080 0428     		cmp	r0, #4
 5478 0082 C8D1     		bne	.L653
 5479              	.LVL727:
 5480              	.L642:
 5481              		.loc 1 3232 0
 5482 0084 06A8     		add	r0, sp, #24
 5483 0086 FFF7FEFF 		bl	dir_remove
 5484              	.LVL728:
 5485              		.loc 1 3233 0
 5486 008a 0028     		cmp	r0, #0
 5487 008c C3D1     		bne	.L653
 5488              		.loc 1 3234 0
 5489 008e 2DB9     		cbnz	r5, .L643
 5490              	.L644:
 5491              		.loc 1 3236 0
 5492 0090 0698     		ldr	r0, [sp, #24]
 5493              	.LVL729:
 5494 0092 FFF7FEFF 		bl	sync
ARM GAS  /var/folders/dt/0wfd0knj7gs46m8vwfzktm600000gn/T//cczoWvr4.s 			page 98


 5495              	.LVL730:
 5496 0096 BEE7     		b	.L653
 5497              	.LVL731:
 5498              	.L648:
 5499              		.loc 1 3210 0
 5500 0098 0720     		movs	r0, #7
 5501              	.LVL732:
 5502 009a BCE7     		b	.L653
 5503              	.L643:
 5504              		.loc 1 3235 0
 5505 009c 0698     		ldr	r0, [sp, #24]
 5506              	.LVL733:
 5507 009e 2946     		mov	r1, r5
 5508 00a0 FFF7FEFF 		bl	remove_chain
 5509              	.LVL734:
 5510              		.loc 1 3236 0
 5511 00a4 0028     		cmp	r0, #0
 5512 00a6 B6D1     		bne	.L653
 5513 00a8 F2E7     		b	.L644
 5514              		.cfi_endproc
 5515              	.LFE35:
 5516              		.size	f_unlink, .-f_unlink
 5517 00aa 00BFAFF3 		.section	.text.f_mkdir,"ax",%progbits
 5517      0080
 5518              		.align	2
 5519              		.p2align 4,,15
 5520              		.global	f_mkdir
 5521              		.thumb
 5522              		.thumb_func
 5523              		.type	f_mkdir, %function
 5524              	f_mkdir:
 5525              	.LFB36:
 5526              		.loc 1 3255 0
 5527              		.cfi_startproc
 5528              		@ args = 0, pretend = 0, frame = 72
 5529              		@ frame_needed = 0, uses_anonymous_args = 0
 5530              	.LVL735:
 5531 0000 2DE9F04F 		push	{r4, r5, r6, r7, r8, r9, sl, fp, lr}
 5532              	.LCFI38:
 5533              		.cfi_def_cfa_offset 36
 5534              		.cfi_offset 4, -36
 5535              		.cfi_offset 5, -32
 5536              		.cfi_offset 6, -28
 5537              		.cfi_offset 7, -24
 5538              		.cfi_offset 8, -20
 5539              		.cfi_offset 9, -16
 5540              		.cfi_offset 10, -12
 5541              		.cfi_offset 11, -8
 5542              		.cfi_offset 14, -4
 5543 0004 93B0     		sub	sp, sp, #76
 5544              	.LCFI39:
 5545              		.cfi_def_cfa_offset 112
 5546              		.loc 1 3255 0
 5547 0006 12AC     		add	r4, sp, #72
 5548 0008 44F82C0D 		str	r0, [r4, #-44]!
 5549              		.loc 1 3259 0
 5550 000c FFF7FEFF 		bl	get_fattime
ARM GAS  /var/folders/dt/0wfd0knj7gs46m8vwfzktm600000gn/T//cczoWvr4.s 			page 99


 5551              	.LVL736:
 5552              		.loc 1 3263 0
 5553 0010 0122     		movs	r2, #1
 5554              		.loc 1 3259 0
 5555 0012 8146     		mov	r9, r0
 5556              	.LVL737:
 5557              		.loc 1 3263 0
 5558 0014 0BA9     		add	r1, sp, #44
 5559 0016 2046     		mov	r0, r4
 5560              	.LVL738:
 5561 0018 FFF7FEFF 		bl	chk_mounted
 5562              	.LVL739:
 5563 001c 0246     		mov	r2, r0
 5564 001e 0446     		mov	r4, r0
 5565              	.LVL740:
 5566              		.loc 1 3264 0
 5567 0020 18B1     		cbz	r0, .L698
 5568              	.LVL741:
 5569              	.L686:
 5570              		.loc 1 3316 0
 5571 0022 1046     		mov	r0, r2
 5572 0024 13B0     		add	sp, sp, #76
 5573 0026 BDE8F08F 		pop	{r4, r5, r6, r7, r8, r9, sl, fp, pc}
 5574              	.LVL742:
 5575              	.L698:
 5576              		.loc 1 3265 0
 5577 002a 08AB     		add	r3, sp, #32
 5578              		.loc 1 3266 0
 5579 002c 0BA8     		add	r0, sp, #44
 5580              	.LVL743:
 5581 002e 0799     		ldr	r1, [sp, #28]
 5582              		.loc 1 3265 0
 5583 0030 1193     		str	r3, [sp, #68]
 5584              		.loc 1 3266 0
 5585 0032 FFF7FEFF 		bl	follow_path
 5586              	.LVL744:
 5587              		.loc 1 3267 0
 5588 0036 0246     		mov	r2, r0
 5589 0038 0028     		cmp	r0, #0
 5590 003a 00F0AD80 		beq	.L679
 5591              		.loc 1 3270 0
 5592 003e 0428     		cmp	r0, #4
 5593 0040 EFD1     		bne	.L686
 5594              		.loc 1 3271 0
 5595 0042 0B98     		ldr	r0, [sp, #44]
 5596              	.LVL745:
 5597 0044 2146     		mov	r1, r4
 5598 0046 FFF7FEFF 		bl	create_chain
 5599              	.LVL746:
 5600              		.loc 1 3273 0
 5601 004a 8046     		mov	r8, r0
 5602 004c 0028     		cmp	r0, #0
 5603 004e 00F0A580 		beq	.L680
 5604              		.loc 1 3274 0
 5605 0052 0222     		movs	r2, #2
 5606 0054 0128     		cmp	r0, #1
 5607 0056 00F0A280 		beq	.L676
ARM GAS  /var/folders/dt/0wfd0knj7gs46m8vwfzktm600000gn/T//cczoWvr4.s 			page 100


 5608              		.loc 1 3275 0
 5609 005a 0122     		movs	r2, #1
 5610 005c B0F1FF3F 		cmp	r0, #-1
 5611 0060 00F09D80 		beq	.L676
 5612              		.loc 1 3277 0
 5613 0064 0B98     		ldr	r0, [sp, #44]
 5614              	.LVL747:
 5615 0066 2146     		mov	r1, r4
 5616 0068 FFF7FEFF 		bl	move_window
 5617              	.LVL748:
 5618              		.loc 1 3278 0
 5619 006c 0246     		mov	r2, r0
 5620 006e 0028     		cmp	r0, #0
 5621 0070 40F09580 		bne	.L676
 5622              		.loc 1 3279 0
 5623 0074 0B99     		ldr	r1, [sp, #44]
 5624              	.LVL749:
 5625              	.LBB193:
 5626              	.LBB194:
 5627              		.loc 1 800 0
 5628 0076 A8F10203 		sub	r3, r8, #2
 5629              	.LVL750:
 5630              		.loc 1 801 0
 5631 007a 8869     		ldr	r0, [r1, #24]
 5632              	.LVL751:
 5633              	.LBE194:
 5634              	.LBE193:
 5635              		.loc 1 3280 0
 5636 007c 01F13005 		add	r5, r1, #48
 5637              	.LBB198:
 5638              	.LBB195:
 5639              		.loc 1 801 0
 5640 0080 0238     		subs	r0, r0, #2
 5641 0082 8342     		cmp	r3, r0
 5642              		.loc 1 802 0
 5643 0084 3BBF     		ittet	cc
 5644 0086 91F802C0 		ldrbcc	ip, [r1, #2]	@ zero_extendqisi2
 5645 008a 8A6A     		ldrcc	r2, [r1, #40]
 5646              		.loc 1 801 0
 5647 008c 9246     		movcs	sl, r2
 5648              	.LVL752:
 5649              		.loc 1 802 0
 5650 008e 0CFB032A 		mlacc	sl, ip, r3, r2
 5651              	.LBE195:
 5652              	.LBE198:
 5653              		.loc 1 3252 0
 5654 0092 01F50C74 		add	r4, r1, #560
 5655              	.LBB199:
 5656              	.LBB196:
 5657              		.loc 1 539 0
 5658 0096 2B46     		mov	r3, r5
 5659              	.LVL753:
 5660              	.LBE196:
 5661              	.LBE199:
 5662              	.LBB200:
 5663              	.LBB201:
 5664              		.loc 1 542 0
ARM GAS  /var/folders/dt/0wfd0knj7gs46m8vwfzktm600000gn/T//cczoWvr4.s 			page 101


 5665 0098 0022     		movs	r2, #0
 5666              	.LVL754:
 5667              	.L666:
 5668 009a 03F8012B 		strb	r2, [r3], #1
 5669              	.LVL755:
 5670              		.loc 1 541 0
 5671 009e A342     		cmp	r3, r4
 5672 00a0 FBD1     		bne	.L666
 5673              		.loc 1 3252 0
 5674 00a2 01F13B00 		add	r0, r1, #59
 5675              	.LBE201:
 5676              	.LBE200:
 5677              	.LBB202:
 5678              	.LBB197:
 5679 00a6 2B46     		mov	r3, r5
 5680              	.LVL756:
 5681              	.LBE197:
 5682              	.LBE202:
 5683              	.LBB203:
 5684              	.LBB204:
 5685              		.loc 1 542 0
 5686 00a8 2022     		movs	r2, #32
 5687              	.L667:
 5688 00aa 03F8012B 		strb	r2, [r3], #1
 5689              	.LVL757:
 5690              		.loc 1 541 0
 5691 00ae 8342     		cmp	r3, r0
 5692 00b0 FBD1     		bne	.L667
 5693              	.LBE204:
 5694              	.LBE203:
 5695              		.loc 1 3285 0
 5696 00b2 5FFA89F7 		uxtb	r7, r9
 5697 00b6 0297     		str	r7, [sp, #8]
 5698 00b8 C9F30747 		ubfx	r7, r9, #16, #8
 5699 00bc C9F30726 		ubfx	r6, r9, #8, #8
 5700 00c0 0397     		str	r7, [sp, #12]
 5701 00c2 8DF81960 		strb	r6, [sp, #25]
 5702              		.loc 1 3286 0
 5703 00c6 5FFA88F7 		uxtb	r7, r8
 5704              		.loc 1 3285 0
 5705 00ca 81F84760 		strb	r6, [r1, #71]
 5706 00ce 039E     		ldr	r6, [sp, #12]
 5707              		.loc 1 3286 0
 5708 00d0 0597     		str	r7, [sp, #20]
 5709              		.loc 1 3284 0
 5710 00d2 1027     		movs	r7, #16
 5711              		.loc 1 3286 0
 5712 00d4 4FEA184B 		lsr	fp, r8, #16
 5713              		.loc 1 3284 0
 5714 00d8 81F83B70 		strb	r7, [r1, #59]
 5715              		.loc 1 3285 0
 5716 00dc 81F84860 		strb	r6, [r1, #72]
 5717 00e0 029F     		ldr	r7, [sp, #8]
 5718              		.loc 1 3286 0
 5719 00e2 059E     		ldr	r6, [sp, #20]
 5720 00e4 4FEA1B22 		lsr	r2, fp, #8
 5721 00e8 C8F30720 		ubfx	r0, r8, #8, #8
ARM GAS  /var/folders/dt/0wfd0knj7gs46m8vwfzktm600000gn/T//cczoWvr4.s 			page 102


 5722              		.loc 1 3285 0
 5723 00ec 4FEA1969 		lsr	r9, r9, #24
 5724              	.LVL758:
 5725              		.loc 1 3283 0
 5726 00f0 2E23     		movs	r3, #46
 5727              	.LVL759:
 5728              		.loc 1 3286 0
 5729 00f2 5FFA8BFB 		uxtb	fp, fp
 5730 00f6 81F84A60 		strb	r6, [r1, #74]
 5731 00fa 8DF81A00 		strb	r0, [sp, #26]
 5732 00fe 81F84B00 		strb	r0, [r1, #75]
 5733 0102 8DF81B20 		strb	r2, [sp, #27]
 5734 0106 81F84520 		strb	r2, [r1, #69]
 5735              		.loc 1 3285 0
 5736 010a CDF81090 		str	r9, [sp, #16]
 5737              		.loc 1 3283 0
 5738 010e 81F83030 		strb	r3, [r1, #48]
 5739              		.loc 1 3285 0
 5740 0112 81F84670 		strb	r7, [r1, #70]
 5741 0116 81F84990 		strb	r9, [r1, #73]
 5742              		.loc 1 3286 0
 5743 011a 81F844B0 		strb	fp, [r1, #68]
 5744              		.loc 1 3287 0
 5745 011e 01F15002 		add	r2, r1, #80
 5746              	.LVL760:
 5747              		.loc 1 3252 0
 5748 0122 2846     		mov	r0, r5
 5749 0124 01F17006 		add	r6, r1, #112
 5750 0128 01E0     		b	.L669
 5751              	.LVL761:
 5752              	.L699:
 5753 012a 10F8013F 		ldrb	r3, [r0, #1]!	@ zero_extendqisi2
 5754              	.L669:
 5755              	.LBB205:
 5756              	.LBB206:
 5757              		.loc 1 533 0
 5758 012e 02F8013B 		strb	r3, [r2], #1
 5759              	.LVL762:
 5760              		.loc 1 532 0
 5761 0132 B242     		cmp	r2, r6
 5762 0134 F9D1     		bne	.L699
 5763              	.LBE206:
 5764              	.LBE205:
 5765              		.loc 1 3288 0
 5766 0136 2E23     		movs	r3, #46
 5767              		.loc 1 3289 0
 5768 0138 0B98     		ldr	r0, [sp, #44]
 5769              		.loc 1 3288 0
 5770 013a 81F85130 		strb	r3, [r1, #81]
 5771              		.loc 1 3289 0
 5772 013e 0378     		ldrb	r3, [r0, #0]	@ zero_extendqisi2
 5773              		.loc 1 3288 0
 5774 0140 0D9A     		ldr	r2, [sp, #52]
 5775              	.LVL763:
 5776              		.loc 1 3289 0
 5777 0142 032B     		cmp	r3, #3
 5778 0144 58D0     		beq	.L670
ARM GAS  /var/folders/dt/0wfd0knj7gs46m8vwfzktm600000gn/T//cczoWvr4.s 			page 103


 5779              	.L697:
 5780 0146 170C     		lsrs	r7, r2, #16
 5781 0148 D6B2     		uxtb	r6, r2
 5782 014a FBB2     		uxtb	r3, r7
 5783 014c C2F30722 		ubfx	r2, r2, #8, #8
 5784              	.LVL764:
 5785 0150 3F0A     		lsrs	r7, r7, #8
 5786              	.L671:
 5787              	.LVL765:
 5788              		.loc 1 3291 0
 5789 0152 81F86A60 		strb	r6, [r1, #106]
 5790 0156 81F86B20 		strb	r2, [r1, #107]
 5791 015a 81F86430 		strb	r3, [r1, #100]
 5792 015e 81F86570 		strb	r7, [r1, #101]
 5793              		.loc 1 3292 0
 5794 0162 8378     		ldrb	r3, [r0, #2]	@ zero_extendqisi2
 5795              	.LVL766:
 5796 0164 23B3     		cbz	r3, .L672
 5797              		.loc 1 3252 0
 5798 0166 013B     		subs	r3, r3, #1
 5799 0168 DFB2     		uxtb	r7, r3
 5800 016a 0137     		adds	r7, r7, #1
 5801 016c 5744     		add	r7, r7, sl
 5802              		.loc 1 3294 0
 5803 016e 0126     		movs	r6, #1
 5804              		.loc 1 3295 0
 5805 0170 4FF00009 		mov	r9, #0
 5806              	.LVL767:
 5807              	.L675:
 5808              		.loc 1 3293 0
 5809 0174 C0F82CA0 		str	sl, [r0, #44]
 5810              		.loc 1 3294 0
 5811 0178 0671     		strb	r6, [r0, #4]
 5812              		.loc 1 3295 0
 5813 017a 0021     		movs	r1, #0
 5814 017c FFF7FEFF 		bl	move_window
 5815              	.LVL768:
 5816              		.loc 1 3293 0
 5817 0180 0AF1010A 		add	sl, sl, #1
 5818              	.LVL769:
 5819              		.loc 1 3296 0
 5820 0184 90B9     		cbnz	r0, .L695
 5821 0186 2B46     		mov	r3, r5
 5822              	.L674:
 5823              	.LBB207:
 5824              	.LBB208:
 5825              		.loc 1 542 0
 5826 0188 03F8019B 		strb	r9, [r3], #1
 5827              	.LVL770:
 5828              		.loc 1 541 0
 5829 018c A342     		cmp	r3, r4
 5830 018e FBD1     		bne	.L674
 5831              	.LVL771:
 5832              	.LBE208:
 5833              	.LBE207:
 5834              		.loc 1 3292 0
 5835 0190 BA45     		cmp	sl, r7
ARM GAS  /var/folders/dt/0wfd0knj7gs46m8vwfzktm600000gn/T//cczoWvr4.s 			page 104


 5836 0192 0DD0     		beq	.L672
 5837 0194 0B98     		ldr	r0, [sp, #44]
 5838 0196 EDE7     		b	.L675
 5839              	.LVL772:
 5840              	.L679:
 5841              		.loc 1 3267 0
 5842 0198 0822     		movs	r2, #8
 5843              	.LVL773:
 5844 019a 42E7     		b	.L686
 5845              	.LVL774:
 5846              	.L680:
 5847              		.loc 1 3273 0
 5848 019c 0722     		movs	r2, #7
 5849              	.LVL775:
 5850              	.L676:
 5851              		.loc 1 3302 0
 5852 019e 0B98     		ldr	r0, [sp, #44]
 5853 01a0 4146     		mov	r1, r8
 5854 01a2 0192     		str	r2, [sp, #4]
 5855 01a4 FFF7FEFF 		bl	remove_chain
 5856              	.LVL776:
 5857 01a8 019A     		ldr	r2, [sp, #4]
 5858 01aa 3AE7     		b	.L686
 5859              	.LVL777:
 5860              	.L695:
 5861 01ac 0246     		mov	r2, r0
 5862 01ae F6E7     		b	.L676
 5863              	.LVL778:
 5864              	.L672:
 5865              		.loc 1 3300 0
 5866 01b0 0BA8     		add	r0, sp, #44
 5867 01b2 FFF7FEFF 		bl	dir_register
 5868              	.LVL779:
 5869              		.loc 1 3301 0
 5870 01b6 0246     		mov	r2, r0
 5871 01b8 0028     		cmp	r0, #0
 5872 01ba F0D1     		bne	.L676
 5873              		.loc 1 3304 0
 5874 01bc 109B     		ldr	r3, [sp, #64]
 5875              	.LVL780:
 5876              		.loc 1 3306 0
 5877 01be 029F     		ldr	r7, [sp, #8]
 5878 01c0 9DF81960 		ldrb	r6, [sp, #25]	@ zero_extendqisi2
 5879 01c4 9F75     		strb	r7, [r3, #22]
 5880 01c6 039F     		ldr	r7, [sp, #12]
 5881 01c8 DE75     		strb	r6, [r3, #23]
 5882 01ca 1F76     		strb	r7, [r3, #24]
 5883 01cc 049E     		ldr	r6, [sp, #16]
 5884              		.loc 1 3307 0
 5885 01ce 059F     		ldr	r7, [sp, #20]
 5886              		.loc 1 3306 0
 5887 01d0 5E76     		strb	r6, [r3, #25]
 5888              		.loc 1 3307 0
 5889 01d2 9F76     		strb	r7, [r3, #26]
 5890 01d4 9DF81A60 		ldrb	r6, [sp, #26]	@ zero_extendqisi2
 5891 01d8 9DF81B70 		ldrb	r7, [sp, #27]	@ zero_extendqisi2
 5892              		.loc 1 3308 0
ARM GAS  /var/folders/dt/0wfd0knj7gs46m8vwfzktm600000gn/T//cczoWvr4.s 			page 105


 5893 01dc 0B9A     		ldr	r2, [sp, #44]
 5894              		.loc 1 3305 0
 5895 01de 1021     		movs	r1, #16
 5896 01e0 D972     		strb	r1, [r3, #11]
 5897              		.loc 1 3307 0
 5898 01e2 DE76     		strb	r6, [r3, #27]
 5899 01e4 83F814B0 		strb	fp, [r3, #20]
 5900 01e8 5F75     		strb	r7, [r3, #21]
 5901              		.loc 1 3308 0
 5902 01ea 0123     		movs	r3, #1
 5903              	.LVL781:
 5904              		.loc 1 3309 0
 5905 01ec 1046     		mov	r0, r2
 5906              	.LVL782:
 5907              		.loc 1 3308 0
 5908 01ee 1371     		strb	r3, [r2, #4]
 5909              		.loc 1 3309 0
 5910 01f0 FFF7FEFF 		bl	sync
 5911              	.LVL783:
 5912 01f4 0246     		mov	r2, r0
 5913              	.LVL784:
 5914 01f6 14E7     		b	.L686
 5915              	.LVL785:
 5916              	.L670:
 5917              		.loc 1 3289 0 discriminator 1
 5918 01f8 436A     		ldr	r3, [r0, #36]
 5919 01fa 9342     		cmp	r3, r2
 5920 01fc A3D1     		bne	.L697
 5921              		.loc 1 3289 0 is_stmt 0
 5922 01fe 0027     		movs	r7, #0
 5923 0200 3B46     		mov	r3, r7
 5924 0202 3A46     		mov	r2, r7
 5925              	.LVL786:
 5926 0204 3E46     		mov	r6, r7
 5927 0206 A4E7     		b	.L671
 5928              		.cfi_endproc
 5929              	.LFE36:
 5930              		.size	f_mkdir, .-f_mkdir
 5931 0208 AFF30080 		.section	.text.f_chmod,"ax",%progbits
 5931      AFF30080 
 5932              		.align	2
 5933              		.p2align 4,,15
 5934              		.global	f_chmod
 5935              		.thumb
 5936              		.thumb_func
 5937              		.type	f_chmod, %function
 5938              	f_chmod:
 5939              	.LFB37:
 5940              		.loc 1 3330 0 is_stmt 1
 5941              		.cfi_startproc
 5942              		@ args = 0, pretend = 0, frame = 48
 5943              		@ frame_needed = 0, uses_anonymous_args = 0
 5944              	.LVL787:
 5945 0000 30B5     		push	{r4, r5, lr}
 5946              	.LCFI40:
 5947              		.cfi_def_cfa_offset 12
 5948              		.cfi_offset 4, -12
ARM GAS  /var/folders/dt/0wfd0knj7gs46m8vwfzktm600000gn/T//cczoWvr4.s 			page 106


 5949              		.cfi_offset 5, -8
 5950              		.cfi_offset 14, -4
 5951 0002 8DB0     		sub	sp, sp, #52
 5952              	.LCFI41:
 5953              		.cfi_def_cfa_offset 64
 5954              		.loc 1 3330 0
 5955 0004 0CAB     		add	r3, sp, #48
 5956 0006 43F82C0D 		str	r0, [r3, #-44]!
 5957 000a 0C46     		mov	r4, r1
 5958 000c 1546     		mov	r5, r2
 5959              		.loc 1 3337 0
 5960 000e 1846     		mov	r0, r3
 5961              	.LVL788:
 5962 0010 05A9     		add	r1, sp, #20
 5963              	.LVL789:
 5964 0012 0122     		movs	r2, #1
 5965              	.LVL790:
 5966 0014 FFF7FEFF 		bl	chk_mounted
 5967              	.LVL791:
 5968              		.loc 1 3338 0
 5969 0018 08B1     		cbz	r0, .L703
 5970              	.LVL792:
 5971              	.L701:
 5972              		.loc 1 3358 0
 5973 001a 0DB0     		add	sp, sp, #52
 5974 001c 30BD     		pop	{r4, r5, pc}
 5975              	.LVL793:
 5976              	.L703:
 5977              		.loc 1 3339 0
 5978 001e 02AB     		add	r3, sp, #8
 5979              		.loc 1 3340 0
 5980 0020 05A8     		add	r0, sp, #20
 5981              	.LVL794:
 5982 0022 0199     		ldr	r1, [sp, #4]
 5983              		.loc 1 3339 0
 5984 0024 0B93     		str	r3, [sp, #44]
 5985              		.loc 1 3340 0
 5986 0026 FFF7FEFF 		bl	follow_path
 5987              	.LVL795:
 5988              		.loc 1 3344 0
 5989 002a 0028     		cmp	r0, #0
 5990 002c F5D1     		bne	.L701
 5991              		.loc 1 3345 0
 5992 002e 0A9B     		ldr	r3, [sp, #40]
 5993              	.LVL796:
 5994              		.loc 1 3347 0
 5995 0030 0620     		movs	r0, #6
 5996              	.LVL797:
 5997              		.loc 1 3346 0
 5998 0032 002B     		cmp	r3, #0
 5999 0034 F1D0     		beq	.L701
 6000              		.loc 1 3350 0
 6001 0036 D97A     		ldrb	r1, [r3, #11]	@ zero_extendqisi2
 6002              		.loc 1 3349 0
 6003 0038 05F02705 		and	r5, r5, #39
 6004              	.LVL798:
 6005              		.loc 1 3350 0
ARM GAS  /var/folders/dt/0wfd0knj7gs46m8vwfzktm600000gn/T//cczoWvr4.s 			page 107


 6006 003c 21EA0501 		bic	r1, r1, r5
 6007 0040 2540     		ands	r5, r5, r4
 6008              	.LVL799:
 6009              		.loc 1 3351 0
 6010 0042 059A     		ldr	r2, [sp, #20]
 6011              		.loc 1 3350 0
 6012 0044 0D43     		orrs	r5, r5, r1
 6013 0046 DD72     		strb	r5, [r3, #11]
 6014              		.loc 1 3351 0
 6015 0048 0123     		movs	r3, #1
 6016              	.LVL800:
 6017              		.loc 1 3352 0
 6018 004a 1046     		mov	r0, r2
 6019              		.loc 1 3351 0
 6020 004c 1371     		strb	r3, [r2, #4]
 6021              		.loc 1 3352 0
 6022 004e FFF7FEFF 		bl	sync
 6023              	.LVL801:
 6024 0052 E2E7     		b	.L701
 6025              		.cfi_endproc
 6026              	.LFE37:
 6027              		.size	f_chmod, .-f_chmod
 6028 0054 AFF30080 		.section	.text.f_utime,"ax",%progbits
 6028      AFF30080 
 6028      AFF30080 
 6029              		.align	2
 6030              		.p2align 4,,15
 6031              		.global	f_utime
 6032              		.thumb
 6033              		.thumb_func
 6034              		.type	f_utime, %function
 6035              	f_utime:
 6036              	.LFB38:
 6037              		.loc 1 3371 0
 6038              		.cfi_startproc
 6039              		@ args = 0, pretend = 0, frame = 48
 6040              		@ frame_needed = 0, uses_anonymous_args = 0
 6041              	.LVL802:
 6042 0000 10B5     		push	{r4, lr}
 6043              	.LCFI42:
 6044              		.cfi_def_cfa_offset 8
 6045              		.cfi_offset 4, -8
 6046              		.cfi_offset 14, -4
 6047 0002 8CB0     		sub	sp, sp, #48
 6048              	.LCFI43:
 6049              		.cfi_def_cfa_offset 56
 6050              		.loc 1 3371 0
 6051 0004 0CAB     		add	r3, sp, #48
 6052 0006 43F82C0D 		str	r0, [r3, #-44]!
 6053 000a 0C46     		mov	r4, r1
 6054              		.loc 1 3378 0
 6055 000c 1846     		mov	r0, r3
 6056              	.LVL803:
 6057 000e 05A9     		add	r1, sp, #20
 6058              	.LVL804:
 6059 0010 0122     		movs	r2, #1
 6060 0012 FFF7FEFF 		bl	chk_mounted
ARM GAS  /var/folders/dt/0wfd0knj7gs46m8vwfzktm600000gn/T//cczoWvr4.s 			page 108


 6061              	.LVL805:
 6062              		.loc 1 3379 0
 6063 0016 08B1     		cbz	r0, .L707
 6064              	.LVL806:
 6065              	.L705:
 6066              		.loc 1 3399 0
 6067 0018 0CB0     		add	sp, sp, #48
 6068 001a 10BD     		pop	{r4, pc}
 6069              	.LVL807:
 6070              	.L707:
 6071              		.loc 1 3380 0
 6072 001c 02AB     		add	r3, sp, #8
 6073              		.loc 1 3381 0
 6074 001e 05A8     		add	r0, sp, #20
 6075              	.LVL808:
 6076 0020 0199     		ldr	r1, [sp, #4]
 6077              		.loc 1 3380 0
 6078 0022 0B93     		str	r3, [sp, #44]
 6079              		.loc 1 3381 0
 6080 0024 FFF7FEFF 		bl	follow_path
 6081              	.LVL809:
 6082              		.loc 1 3385 0
 6083 0028 0028     		cmp	r0, #0
 6084 002a F5D1     		bne	.L705
 6085              		.loc 1 3386 0
 6086 002c 0A9B     		ldr	r3, [sp, #40]
 6087              	.LVL810:
 6088              		.loc 1 3388 0
 6089 002e 0620     		movs	r0, #6
 6090              	.LVL811:
 6091              		.loc 1 3387 0
 6092 0030 002B     		cmp	r3, #0
 6093 0032 F1D0     		beq	.L705
 6094              		.loc 1 3390 0
 6095 0034 E188     		ldrh	r1, [r4, #6]
 6096              		.loc 1 3392 0
 6097 0036 059A     		ldr	r2, [sp, #20]
 6098              		.loc 1 3390 0
 6099 0038 9975     		strb	r1, [r3, #22]
 6100 003a E188     		ldrh	r1, [r4, #6]
 6101              		.loc 1 3393 0
 6102 003c 1046     		mov	r0, r2
 6103              		.loc 1 3390 0
 6104 003e 090A     		lsrs	r1, r1, #8
 6105 0040 D975     		strb	r1, [r3, #23]
 6106              		.loc 1 3391 0
 6107 0042 A188     		ldrh	r1, [r4, #4]
 6108 0044 1976     		strb	r1, [r3, #24]
 6109 0046 A188     		ldrh	r1, [r4, #4]
 6110 0048 090A     		lsrs	r1, r1, #8
 6111 004a 5976     		strb	r1, [r3, #25]
 6112              		.loc 1 3392 0
 6113 004c 0123     		movs	r3, #1
 6114              	.LVL812:
 6115 004e 1371     		strb	r3, [r2, #4]
 6116              		.loc 1 3393 0
 6117 0050 FFF7FEFF 		bl	sync
ARM GAS  /var/folders/dt/0wfd0knj7gs46m8vwfzktm600000gn/T//cczoWvr4.s 			page 109


 6118              	.LVL813:
 6119 0054 E0E7     		b	.L705
 6120              		.cfi_endproc
 6121              	.LFE38:
 6122              		.size	f_utime, .-f_utime
 6123 0056 00BFAFF3 		.section	.text.f_rename,"ax",%progbits
 6123      0080AFF3 
 6123      0080
 6124              		.align	2
 6125              		.p2align 4,,15
 6126              		.global	f_rename
 6127              		.thumb
 6128              		.thumb_func
 6129              		.type	f_rename, %function
 6130              	f_rename:
 6131              	.LFB39:
 6132              		.loc 1 3412 0
 6133              		.cfi_startproc
 6134              		@ args = 0, pretend = 0, frame = 104
 6135              		@ frame_needed = 0, uses_anonymous_args = 0
 6136              	.LVL814:
 6137 0000 70B5     		push	{r4, r5, r6, lr}
 6138              	.LCFI44:
 6139              		.cfi_def_cfa_offset 16
 6140              		.cfi_offset 4, -16
 6141              		.cfi_offset 5, -12
 6142              		.cfi_offset 6, -8
 6143              		.cfi_offset 14, -4
 6144 0002 9AB0     		sub	sp, sp, #104
 6145              	.LCFI45:
 6146              		.cfi_def_cfa_offset 120
 6147              		.loc 1 3412 0
 6148 0004 1AAB     		add	r3, sp, #104
 6149 0006 43F8640D 		str	r0, [r3, #-100]!
 6150              		.loc 1 3420 0
 6151 000a 0CAD     		add	r5, sp, #48
 6152              		.loc 1 3412 0
 6153 000c 0E46     		mov	r6, r1
 6154              		.loc 1 3420 0
 6155 000e 1846     		mov	r0, r3
 6156              	.LVL815:
 6157 0010 2946     		mov	r1, r5
 6158              	.LVL816:
 6159 0012 0122     		movs	r2, #1
 6160 0014 FFF7FEFF 		bl	chk_mounted
 6161              	.LVL817:
 6162              		.loc 1 3421 0
 6163 0018 08B1     		cbz	r0, .L733
 6164              	.LVL818:
 6165              	.L725:
 6166              		.loc 1 3473 0
 6167 001a 1AB0     		add	sp, sp, #104
 6168 001c 70BD     		pop	{r4, r5, r6, pc}
 6169              	.LVL819:
 6170              	.L733:
 6171              		.loc 1 3422 0
 6172 001e 0C9B     		ldr	r3, [sp, #48]
ARM GAS  /var/folders/dt/0wfd0knj7gs46m8vwfzktm600000gn/T//cczoWvr4.s 			page 110


 6173              		.loc 1 3424 0
 6174 0020 2846     		mov	r0, r5
 6175              	.LVL820:
 6176              		.loc 1 3422 0
 6177 0022 1393     		str	r3, [sp, #76]
 6178              		.loc 1 3424 0
 6179 0024 0199     		ldr	r1, [sp, #4]
 6180              		.loc 1 3423 0
 6181 0026 03AB     		add	r3, sp, #12
 6182 0028 1293     		str	r3, [sp, #72]
 6183              		.loc 1 3424 0
 6184 002a FFF7FEFF 		bl	follow_path
 6185              	.LVL821:
 6186              		.loc 1 3430 0
 6187 002e 0028     		cmp	r0, #0
 6188 0030 F3D1     		bne	.L725
 6189              		.loc 1 3431 0
 6190 0032 119A     		ldr	r2, [sp, #68]
 6191              		.loc 1 3432 0
 6192 0034 0420     		movs	r0, #4
 6193              	.LVL822:
 6194              		.loc 1 3431 0
 6195 0036 002A     		cmp	r2, #0
 6196 0038 EFD0     		beq	.L725
 6197              	.LVL823:
 6198              		.loc 1 3408 0
 6199 003a 0A32     		adds	r2, r2, #10
 6200              	.LVL824:
 6201              		.loc 1 3434 0
 6202 003c 06AB     		add	r3, sp, #24
 6203              	.LVL825:
 6204 003e 0DF12D01 		add	r1, sp, #45
 6205              	.LVL826:
 6206              	.L710:
 6207              	.LBB209:
 6208              	.LBB210:
 6209              		.loc 1 533 0
 6210 0042 12F8014F 		ldrb	r4, [r2, #1]!	@ zero_extendqisi2
 6211 0046 03F8014B 		strb	r4, [r3], #1
 6212              	.LVL827:
 6213              		.loc 1 532 0
 6214 004a 8B42     		cmp	r3, r1
 6215 004c F9D1     		bne	.L710
 6216 004e 0023     		movs	r3, #0
 6217              	.LVL828:
 6218 0050 13AC     		add	r4, sp, #76
 6219              	.L711:
 6220              	.LBE210:
 6221              	.LBE209:
 6222              	.LBB211:
 6223              	.LBB212:
 6224              		.loc 1 533 0
 6225 0052 EA5C     		ldrb	r2, [r5, r3]	@ zero_extendqisi2
 6226 0054 E254     		strb	r2, [r4, r3]
 6227              	.LVL829:
 6228 0056 0133     		adds	r3, r3, #1
 6229              		.loc 1 532 0
ARM GAS  /var/folders/dt/0wfd0knj7gs46m8vwfzktm600000gn/T//cczoWvr4.s 			page 111


 6230 0058 1C2B     		cmp	r3, #28
 6231 005a FAD1     		bne	.L711
 6232              	.LBE212:
 6233              	.LBE211:
 6234              		.loc 1 3436 0
 6235 005c 2046     		mov	r0, r4
 6236 005e 3146     		mov	r1, r6
 6237 0060 FFF7FEFF 		bl	follow_path
 6238              	.LVL830:
 6239              		.loc 1 3437 0
 6240 0064 0028     		cmp	r0, #0
 6241 0066 4BD0     		beq	.L720
 6242              		.loc 1 3438 0
 6243 0068 0428     		cmp	r0, #4
 6244 006a D6D1     		bne	.L725
 6245              		.loc 1 3440 0
 6246 006c 2046     		mov	r0, r4
 6247              	.LVL831:
 6248 006e FFF7FEFF 		bl	dir_register
 6249              	.LVL832:
 6250              		.loc 1 3441 0
 6251 0072 0028     		cmp	r0, #0
 6252 0074 D1D1     		bne	.L725
 6253              		.loc 1 3442 0
 6254 0076 189C     		ldr	r4, [sp, #96]
 6255              	.LVL833:
 6256              		.loc 1 3408 0
 6257 0078 0DF11902 		add	r2, sp, #25
 6258              		.loc 1 3443 0
 6259 007c 04F10D03 		add	r3, r4, #13
 6260              	.LVL834:
 6261              		.loc 1 3408 0
 6262 0080 04F12000 		add	r0, r4, #32
 6263              	.LVL835:
 6264              	.L712:
 6265              	.LBB213:
 6266              	.LBB214:
 6267              		.loc 1 533 0
 6268 0084 12F8011F 		ldrb	r1, [r2, #1]!	@ zero_extendqisi2
 6269 0088 03F8011B 		strb	r1, [r3], #1
 6270              	.LVL836:
 6271              		.loc 1 532 0
 6272 008c 8342     		cmp	r3, r0
 6273 008e F9D1     		bne	.L712
 6274              	.LBE214:
 6275              	.LBE213:
 6276              		.loc 1 3444 0
 6277 0090 9DF81830 		ldrb	r3, [sp, #24]	@ zero_extendqisi2
 6278              	.LVL837:
 6279              		.loc 1 3445 0
 6280 0094 0122     		movs	r2, #1
 6281              		.loc 1 3444 0
 6282 0096 43F02003 		orr	r3, r3, #32
 6283 009a E372     		strb	r3, [r4, #11]
 6284              		.loc 1 3445 0
 6285 009c 0C9B     		ldr	r3, [sp, #48]
 6286 009e 1A71     		strb	r2, [r3, #4]
ARM GAS  /var/folders/dt/0wfd0knj7gs46m8vwfzktm600000gn/T//cczoWvr4.s 			page 112


 6287              		.loc 1 3446 0
 6288 00a0 159B     		ldr	r3, [sp, #84]
 6289 00a2 0E9A     		ldr	r2, [sp, #56]
 6290 00a4 9A42     		cmp	r2, r3
 6291 00a6 22D0     		beq	.L717
 6292              		.loc 1 3446 0 is_stmt 0 discriminator 1
 6293 00a8 E37A     		ldrb	r3, [r4, #11]	@ zero_extendqisi2
 6294 00aa 03F01003 		and	r3, r3, #16
 6295 00ae DBB2     		uxtb	r3, r3
 6296 00b0 EBB1     		cbz	r3, .L717
 6297              		.loc 1 3447 0 is_stmt 1
 6298 00b2 E27E     		ldrb	r2, [r4, #27]	@ zero_extendqisi2
 6299 00b4 1398     		ldr	r0, [sp, #76]
 6300              	.LVL838:
 6301 00b6 667D     		ldrb	r6, [r4, #21]	@ zero_extendqisi2
 6302              	.LVL839:
 6303 00b8 217D     		ldrb	r1, [r4, #20]	@ zero_extendqisi2
 6304 00ba A37E     		ldrb	r3, [r4, #26]	@ zero_extendqisi2
 6305 00bc 41EA0621 		orr	r1, r1, r6, lsl #8
 6306 00c0 43EA0223 		orr	r3, r3, r2, lsl #8
 6307              	.LBB215:
 6308              	.LBB216:
 6309              		.loc 1 801 0
 6310 00c4 8269     		ldr	r2, [r0, #24]
 6311              	.LBE216:
 6312              	.LBE215:
 6313              		.loc 1 3447 0
 6314 00c6 43EA0143 		orr	r3, r3, r1, lsl #16
 6315              	.LBB218:
 6316              	.LBB217:
 6317              		.loc 1 800 0
 6318 00ca 023B     		subs	r3, r3, #2
 6319              	.LVL840:
 6320              		.loc 1 801 0
 6321 00cc 023A     		subs	r2, r2, #2
 6322 00ce 9342     		cmp	r3, r2
 6323 00d0 18D2     		bcs	.L722
 6324              		.loc 1 802 0
 6325 00d2 8178     		ldrb	r1, [r0, #2]	@ zero_extendqisi2
 6326 00d4 826A     		ldr	r2, [r0, #40]
 6327 00d6 01FB0321 		mla	r1, r1, r3, r2
 6328              	.LBE217:
 6329              	.LBE218:
 6330              		.loc 1 3448 0
 6331 00da 99B1     		cbz	r1, .L722
 6332              		.loc 1 3451 0
 6333 00dc FFF7FEFF 		bl	move_window
 6334              	.LVL841:
 6335              		.loc 1 3452 0
 6336 00e0 139B     		ldr	r3, [sp, #76]
 6337              	.LVL842:
 6338              		.loc 1 3453 0
 6339 00e2 0028     		cmp	r0, #0
 6340 00e4 99D1     		bne	.L725
 6341              		.loc 1 3453 0 is_stmt 0 discriminator 1
 6342 00e6 93F85120 		ldrb	r2, [r3, #81]	@ zero_extendqisi2
 6343 00ea 2E2A     		cmp	r2, #46
ARM GAS  /var/folders/dt/0wfd0knj7gs46m8vwfzktm600000gn/T//cczoWvr4.s 			page 113


 6344 00ec 0CD0     		beq	.L734
 6345              	.LVL843:
 6346              	.L717:
 6347              		.loc 1 3461 0 is_stmt 1
 6348 00ee 2846     		mov	r0, r5
 6349 00f0 FFF7FEFF 		bl	dir_remove
 6350              	.LVL844:
 6351              		.loc 1 3462 0
 6352 00f4 0028     		cmp	r0, #0
 6353 00f6 90D1     		bne	.L725
 6354              		.loc 1 3463 0
 6355 00f8 0C98     		ldr	r0, [sp, #48]
 6356              	.LVL845:
 6357 00fa FFF7FEFF 		bl	sync
 6358              	.LVL846:
 6359 00fe 8CE7     		b	.L725
 6360              	.LVL847:
 6361              	.L720:
 6362              		.loc 1 3437 0
 6363 0100 0820     		movs	r0, #8
 6364              	.LVL848:
 6365 0102 8AE7     		b	.L725
 6366              	.LVL849:
 6367              	.L722:
 6368              		.loc 1 3449 0
 6369 0104 0220     		movs	r0, #2
 6370              	.LVL850:
 6371 0106 88E7     		b	.L725
 6372              	.LVL851:
 6373              	.L734:
 6374              		.loc 1 3454 0
 6375 0108 1A78     		ldrb	r2, [r3, #0]	@ zero_extendqisi2
 6376 010a 032A     		cmp	r2, #3
 6377 010c 159A     		ldr	r2, [sp, #84]
 6378 010e 0FD0     		beq	.L732
 6379              	.L715:
 6380              		.loc 1 3454 0 is_stmt 0 discriminator 1
 6381 0110 1046     		mov	r0, r2
 6382              	.LVL852:
 6383              	.L716:
 6384              		.loc 1 3455 0 is_stmt 1 discriminator 3
 6385 0112 020C     		lsrs	r2, r0, #16
 6386 0114 110A     		lsrs	r1, r2, #8
 6387 0116 C0F30724 		ubfx	r4, r0, #8, #8
 6388              	.LVL853:
 6389 011a 83F86420 		strb	r2, [r3, #100]
 6390              		.loc 1 3456 0 discriminator 3
 6391 011e 0122     		movs	r2, #1
 6392              		.loc 1 3455 0 discriminator 3
 6393 0120 83F86A00 		strb	r0, [r3, #106]
 6394 0124 83F86B40 		strb	r4, [r3, #107]
 6395 0128 83F86510 		strb	r1, [r3, #101]
 6396              		.loc 1 3456 0 discriminator 3
 6397 012c 1A71     		strb	r2, [r3, #4]
 6398 012e DEE7     		b	.L717
 6399              	.LVL854:
 6400              	.L732:
ARM GAS  /var/folders/dt/0wfd0knj7gs46m8vwfzktm600000gn/T//cczoWvr4.s 			page 114


 6401              		.loc 1 3454 0 discriminator 2
 6402 0130 596A     		ldr	r1, [r3, #36]
 6403 0132 8A42     		cmp	r2, r1
 6404 0134 ECD1     		bne	.L715
 6405 0136 ECE7     		b	.L716
 6406              		.cfi_endproc
 6407              	.LFE39:
 6408              		.size	f_rename, .-f_rename
 6409 0138 AFF30080 		.section	.bss.Fsid,"aw",%nobits
 6409      AFF30080 
 6410              		.align	1
 6411              		.set	.LANCHOR1,. + 0
 6412              		.type	Fsid, %object
 6413              		.size	Fsid, 2
 6414              	Fsid:
 6415 0000 0000     		.space	2
 6416              		.section	.rodata.str1.4,"aMS",%progbits,1
 6417              		.align	2
 6418              	.LC0:
 6419 0000 222A2B2C 		.ascii	"\"*+,:;<=>?[]|\177\000"
 6419      3A3B3C3D 
 6419      3E3F5B5D 
 6419      7C7F00
 6420 000f 00       		.section	.bss.FatFs,"aw",%nobits
 6421              		.align	2
 6422              		.set	.LANCHOR0,. + 0
 6423              		.type	FatFs, %object
 6424              		.size	FatFs, 4
 6425              	FatFs:
 6426 0000 00000000 		.space	4
 6427              		.text
 6428              	.Letext0:
 6429              		.file 2 "../../ext/fatfs/src/integer.h"
 6430              		.file 3 "../../ext/fatfs/src/ff.h"
 6431              		.file 4 "../../ext/fatfs/src/diskio.h"
 6432              		.section	.debug_info,"",%progbits
 6433              	.Ldebug_info0:
 6434 0000 77290000 		.4byte	0x2977
 6435 0004 0200     		.2byte	0x2
 6436 0006 00000000 		.4byte	.Ldebug_abbrev0
 6437 000a 04       		.byte	0x4
 6438 000b 01       		.uleb128 0x1
 6439 000c 77030000 		.4byte	.LASF147
 6440 0010 01       		.byte	0x1
 6441 0011 D8000000 		.4byte	.LASF148
 6442 0015 2E010000 		.4byte	.LASF149
 6443 0019 20030000 		.4byte	.Ldebug_ranges0+0x320
 6444 001d 00000000 		.4byte	0
 6445 0021 00000000 		.4byte	0
 6446 0025 00000000 		.4byte	.Ldebug_line0
 6447 0029 02       		.uleb128 0x2
 6448 002a 04       		.byte	0x4
 6449 002b 05       		.byte	0x5
 6450 002c 696E7400 		.ascii	"int\000"
 6451 0030 03       		.uleb128 0x3
 6452 0031 F6010000 		.4byte	.LASF3
 6453 0035 02       		.byte	0x2
ARM GAS  /var/folders/dt/0wfd0knj7gs46m8vwfzktm600000gn/T//cczoWvr4.s 			page 115


 6454 0036 11       		.byte	0x11
 6455 0037 3B000000 		.4byte	0x3b
 6456 003b 04       		.uleb128 0x4
 6457 003c 04       		.byte	0x4
 6458 003d 07       		.byte	0x7
 6459 003e E9010000 		.4byte	.LASF0
 6460 0042 04       		.uleb128 0x4
 6461 0043 01       		.byte	0x1
 6462 0044 08       		.byte	0x8
 6463 0045 7B040000 		.4byte	.LASF1
 6464 0049 04       		.uleb128 0x4
 6465 004a 01       		.byte	0x1
 6466 004b 08       		.byte	0x8
 6467 004c D1030000 		.4byte	.LASF2
 6468 0050 03       		.uleb128 0x3
 6469 0051 CF010000 		.4byte	.LASF4
 6470 0055 02       		.byte	0x2
 6471 0056 16       		.byte	0x16
 6472 0057 49000000 		.4byte	0x49
 6473 005b 04       		.uleb128 0x4
 6474 005c 02       		.byte	0x2
 6475 005d 05       		.byte	0x5
 6476 005e F6030000 		.4byte	.LASF5
 6477 0062 04       		.uleb128 0x4
 6478 0063 02       		.byte	0x2
 6479 0064 07       		.byte	0x7
 6480 0065 34020000 		.4byte	.LASF6
 6481 0069 03       		.uleb128 0x3
 6482 006a 42030000 		.4byte	.LASF7
 6483 006e 02       		.byte	0x2
 6484 006f 1B       		.byte	0x1b
 6485 0070 62000000 		.4byte	0x62
 6486 0074 04       		.uleb128 0x4
 6487 0075 04       		.byte	0x4
 6488 0076 05       		.byte	0x5
 6489 0077 F1000000 		.4byte	.LASF8
 6490 007b 04       		.uleb128 0x4
 6491 007c 04       		.byte	0x4
 6492 007d 07       		.byte	0x7
 6493 007e 01020000 		.4byte	.LASF9
 6494 0082 03       		.uleb128 0x3
 6495 0083 9B010000 		.4byte	.LASF10
 6496 0087 02       		.byte	0x2
 6497 0088 21       		.byte	0x21
 6498 0089 7B000000 		.4byte	0x7b
 6499 008d 03       		.uleb128 0x3
 6500 008e 71030000 		.4byte	.LASF11
 6501 0092 03       		.byte	0x3
 6502 0093 42       		.byte	0x42
 6503 0094 42000000 		.4byte	0x42
 6504 0098 05       		.uleb128 0x5
 6505 0099 3002     		.2byte	0x230
 6506 009b 03       		.byte	0x3
 6507 009c 4D       		.byte	0x4d
 6508 009d 9D010000 		.4byte	0x19d
 6509 00a1 06       		.uleb128 0x6
 6510 00a2 3C000000 		.4byte	.LASF12
ARM GAS  /var/folders/dt/0wfd0knj7gs46m8vwfzktm600000gn/T//cczoWvr4.s 			page 116


 6511 00a6 03       		.byte	0x3
 6512 00a7 4E       		.byte	0x4e
 6513 00a8 50000000 		.4byte	0x50
 6514 00ac 02       		.byte	0x2
 6515 00ad 23       		.byte	0x23
 6516 00ae 00       		.uleb128 0
 6517 00af 07       		.uleb128 0x7
 6518 00b0 64727600 		.ascii	"drv\000"
 6519 00b4 03       		.byte	0x3
 6520 00b5 4F       		.byte	0x4f
 6521 00b6 50000000 		.4byte	0x50
 6522 00ba 02       		.byte	0x2
 6523 00bb 23       		.byte	0x23
 6524 00bc 01       		.uleb128 0x1
 6525 00bd 06       		.uleb128 0x6
 6526 00be B9010000 		.4byte	.LASF13
 6527 00c2 03       		.byte	0x3
 6528 00c3 50       		.byte	0x50
 6529 00c4 50000000 		.4byte	0x50
 6530 00c8 02       		.byte	0x2
 6531 00c9 23       		.byte	0x23
 6532 00ca 02       		.uleb128 0x2
 6533 00cb 06       		.uleb128 0x6
 6534 00cc 10010000 		.4byte	.LASF14
 6535 00d0 03       		.byte	0x3
 6536 00d1 51       		.byte	0x51
 6537 00d2 50000000 		.4byte	0x50
 6538 00d6 02       		.byte	0x2
 6539 00d7 23       		.byte	0x23
 6540 00d8 03       		.uleb128 0x3
 6541 00d9 06       		.uleb128 0x6
 6542 00da 6F040000 		.4byte	.LASF15
 6543 00de 03       		.byte	0x3
 6544 00df 52       		.byte	0x52
 6545 00e0 50000000 		.4byte	0x50
 6546 00e4 02       		.byte	0x2
 6547 00e5 23       		.byte	0x23
 6548 00e6 04       		.uleb128 0x4
 6549 00e7 06       		.uleb128 0x6
 6550 00e8 EA040000 		.4byte	.LASF16
 6551 00ec 03       		.byte	0x3
 6552 00ed 53       		.byte	0x53
 6553 00ee 50000000 		.4byte	0x50
 6554 00f2 02       		.byte	0x2
 6555 00f3 23       		.byte	0x23
 6556 00f4 05       		.uleb128 0x5
 6557 00f5 07       		.uleb128 0x7
 6558 00f6 696400   		.ascii	"id\000"
 6559 00f9 03       		.byte	0x3
 6560 00fa 54       		.byte	0x54
 6561 00fb 69000000 		.4byte	0x69
 6562 00ff 02       		.byte	0x2
 6563 0100 23       		.byte	0x23
 6564 0101 06       		.uleb128 0x6
 6565 0102 06       		.uleb128 0x6
 6566 0103 64000000 		.4byte	.LASF17
 6567 0107 03       		.byte	0x3
ARM GAS  /var/folders/dt/0wfd0knj7gs46m8vwfzktm600000gn/T//cczoWvr4.s 			page 117


 6568 0108 55       		.byte	0x55
 6569 0109 69000000 		.4byte	0x69
 6570 010d 02       		.byte	0x2
 6571 010e 23       		.byte	0x23
 6572 010f 08       		.uleb128 0x8
 6573 0110 06       		.uleb128 0x6
 6574 0111 9F000000 		.4byte	.LASF18
 6575 0115 03       		.byte	0x3
 6576 0116 5D       		.byte	0x5d
 6577 0117 82000000 		.4byte	0x82
 6578 011b 02       		.byte	0x2
 6579 011c 23       		.byte	0x23
 6580 011d 0C       		.uleb128 0xc
 6581 011e 06       		.uleb128 0x6
 6582 011f 55030000 		.4byte	.LASF19
 6583 0123 03       		.byte	0x3
 6584 0124 5E       		.byte	0x5e
 6585 0125 82000000 		.4byte	0x82
 6586 0129 02       		.byte	0x2
 6587 012a 23       		.byte	0x23
 6588 012b 10       		.uleb128 0x10
 6589 012c 06       		.uleb128 0x6
 6590 012d 3F050000 		.4byte	.LASF20
 6591 0131 03       		.byte	0x3
 6592 0132 5F       		.byte	0x5f
 6593 0133 82000000 		.4byte	0x82
 6594 0137 02       		.byte	0x2
 6595 0138 23       		.byte	0x23
 6596 0139 14       		.uleb128 0x14
 6597 013a 06       		.uleb128 0x6
 6598 013b CF000000 		.4byte	.LASF21
 6599 013f 03       		.byte	0x3
 6600 0140 64       		.byte	0x64
 6601 0141 82000000 		.4byte	0x82
 6602 0145 02       		.byte	0x2
 6603 0146 23       		.byte	0x23
 6604 0147 18       		.uleb128 0x18
 6605 0148 06       		.uleb128 0x6
 6606 0149 C9000000 		.4byte	.LASF22
 6607 014d 03       		.byte	0x3
 6608 014e 65       		.byte	0x65
 6609 014f 82000000 		.4byte	0x82
 6610 0153 02       		.byte	0x2
 6611 0154 23       		.byte	0x23
 6612 0155 1C       		.uleb128 0x1c
 6613 0156 06       		.uleb128 0x6
 6614 0157 93010000 		.4byte	.LASF23
 6615 015b 03       		.byte	0x3
 6616 015c 66       		.byte	0x66
 6617 015d 82000000 		.4byte	0x82
 6618 0161 02       		.byte	0x2
 6619 0162 23       		.byte	0x23
 6620 0163 20       		.uleb128 0x20
 6621 0164 06       		.uleb128 0x6
 6622 0165 BC000000 		.4byte	.LASF24
 6623 0169 03       		.byte	0x3
 6624 016a 67       		.byte	0x67
ARM GAS  /var/folders/dt/0wfd0knj7gs46m8vwfzktm600000gn/T//cczoWvr4.s 			page 118


 6625 016b 82000000 		.4byte	0x82
 6626 016f 02       		.byte	0x2
 6627 0170 23       		.byte	0x23
 6628 0171 24       		.uleb128 0x24
 6629 0172 06       		.uleb128 0x6
 6630 0173 47020000 		.4byte	.LASF25
 6631 0177 03       		.byte	0x3
 6632 0178 68       		.byte	0x68
 6633 0179 82000000 		.4byte	0x82
 6634 017d 02       		.byte	0x2
 6635 017e 23       		.byte	0x23
 6636 017f 28       		.uleb128 0x28
 6637 0180 06       		.uleb128 0x6
 6638 0181 7D020000 		.4byte	.LASF26
 6639 0185 03       		.byte	0x3
 6640 0186 69       		.byte	0x69
 6641 0187 82000000 		.4byte	0x82
 6642 018b 02       		.byte	0x2
 6643 018c 23       		.byte	0x23
 6644 018d 2C       		.uleb128 0x2c
 6645 018e 07       		.uleb128 0x7
 6646 018f 77696E00 		.ascii	"win\000"
 6647 0193 03       		.byte	0x3
 6648 0194 6A       		.byte	0x6a
 6649 0195 9D010000 		.4byte	0x19d
 6650 0199 02       		.byte	0x2
 6651 019a 23       		.byte	0x23
 6652 019b 30       		.uleb128 0x30
 6653 019c 00       		.byte	0
 6654 019d 08       		.uleb128 0x8
 6655 019e 50000000 		.4byte	0x50
 6656 01a2 AE010000 		.4byte	0x1ae
 6657 01a6 09       		.uleb128 0x9
 6658 01a7 AE010000 		.4byte	0x1ae
 6659 01ab FF01     		.2byte	0x1ff
 6660 01ad 00       		.byte	0
 6661 01ae 04       		.uleb128 0x4
 6662 01af 04       		.byte	0x4
 6663 01b0 07       		.byte	0x7
 6664 01b1 0F030000 		.4byte	.LASF27
 6665 01b5 03       		.uleb128 0x3
 6666 01b6 CE020000 		.4byte	.LASF28
 6667 01ba 03       		.byte	0x3
 6668 01bb 6B       		.byte	0x6b
 6669 01bc 98000000 		.4byte	0x98
 6670 01c0 05       		.uleb128 0x5
 6671 01c1 2402     		.2byte	0x224
 6672 01c3 03       		.byte	0x3
 6673 01c4 71       		.byte	0x71
 6674 01c5 70020000 		.4byte	0x270
 6675 01c9 07       		.uleb128 0x7
 6676 01ca 667300   		.ascii	"fs\000"
 6677 01cd 03       		.byte	0x3
 6678 01ce 72       		.byte	0x72
 6679 01cf 70020000 		.4byte	0x270
 6680 01d3 02       		.byte	0x2
 6681 01d4 23       		.byte	0x23
ARM GAS  /var/folders/dt/0wfd0knj7gs46m8vwfzktm600000gn/T//cczoWvr4.s 			page 119


 6682 01d5 00       		.uleb128 0
 6683 01d6 07       		.uleb128 0x7
 6684 01d7 696400   		.ascii	"id\000"
 6685 01da 03       		.byte	0x3
 6686 01db 73       		.byte	0x73
 6687 01dc 69000000 		.4byte	0x69
 6688 01e0 02       		.byte	0x2
 6689 01e1 23       		.byte	0x23
 6690 01e2 04       		.uleb128 0x4
 6691 01e3 06       		.uleb128 0x6
 6692 01e4 00040000 		.4byte	.LASF29
 6693 01e8 03       		.byte	0x3
 6694 01e9 74       		.byte	0x74
 6695 01ea 50000000 		.4byte	0x50
 6696 01ee 02       		.byte	0x2
 6697 01ef 23       		.byte	0x23
 6698 01f0 06       		.uleb128 0x6
 6699 01f1 06       		.uleb128 0x6
 6700 01f2 02050000 		.4byte	.LASF30
 6701 01f6 03       		.byte	0x3
 6702 01f7 75       		.byte	0x75
 6703 01f8 50000000 		.4byte	0x50
 6704 01fc 02       		.byte	0x2
 6705 01fd 23       		.byte	0x23
 6706 01fe 07       		.uleb128 0x7
 6707 01ff 06       		.uleb128 0x6
 6708 0200 EE020000 		.4byte	.LASF31
 6709 0204 03       		.byte	0x3
 6710 0205 76       		.byte	0x76
 6711 0206 82000000 		.4byte	0x82
 6712 020a 02       		.byte	0x2
 6713 020b 23       		.byte	0x23
 6714 020c 08       		.uleb128 0x8
 6715 020d 06       		.uleb128 0x6
 6716 020e C9000000 		.4byte	.LASF22
 6717 0212 03       		.byte	0x3
 6718 0213 77       		.byte	0x77
 6719 0214 82000000 		.4byte	0x82
 6720 0218 02       		.byte	0x2
 6721 0219 23       		.byte	0x23
 6722 021a 0C       		.uleb128 0xc
 6723 021b 06       		.uleb128 0x6
 6724 021c 47030000 		.4byte	.LASF32
 6725 0220 03       		.byte	0x3
 6726 0221 78       		.byte	0x78
 6727 0222 82000000 		.4byte	0x82
 6728 0226 02       		.byte	0x2
 6729 0227 23       		.byte	0x23
 6730 0228 10       		.uleb128 0x10
 6731 0229 06       		.uleb128 0x6
 6732 022a 93050000 		.4byte	.LASF33
 6733 022e 03       		.byte	0x3
 6734 022f 79       		.byte	0x79
 6735 0230 82000000 		.4byte	0x82
 6736 0234 02       		.byte	0x2
 6737 0235 23       		.byte	0x23
 6738 0236 14       		.uleb128 0x14
ARM GAS  /var/folders/dt/0wfd0knj7gs46m8vwfzktm600000gn/T//cczoWvr4.s 			page 120


 6739 0237 06       		.uleb128 0x6
 6740 0238 CB030000 		.4byte	.LASF34
 6741 023c 03       		.byte	0x3
 6742 023d 7A       		.byte	0x7a
 6743 023e 82000000 		.4byte	0x82
 6744 0242 02       		.byte	0x2
 6745 0243 23       		.byte	0x23
 6746 0244 18       		.uleb128 0x18
 6747 0245 06       		.uleb128 0x6
 6748 0246 AA000000 		.4byte	.LASF35
 6749 024a 03       		.byte	0x3
 6750 024b 7C       		.byte	0x7c
 6751 024c 82000000 		.4byte	0x82
 6752 0250 02       		.byte	0x2
 6753 0251 23       		.byte	0x23
 6754 0252 1C       		.uleb128 0x1c
 6755 0253 06       		.uleb128 0x6
 6756 0254 D4010000 		.4byte	.LASF36
 6757 0258 03       		.byte	0x3
 6758 0259 7D       		.byte	0x7d
 6759 025a 76020000 		.4byte	0x276
 6760 025e 02       		.byte	0x2
 6761 025f 23       		.byte	0x23
 6762 0260 20       		.uleb128 0x20
 6763 0261 07       		.uleb128 0x7
 6764 0262 62756600 		.ascii	"buf\000"
 6765 0266 03       		.byte	0x3
 6766 0267 86       		.byte	0x86
 6767 0268 9D010000 		.4byte	0x19d
 6768 026c 02       		.byte	0x2
 6769 026d 23       		.byte	0x23
 6770 026e 24       		.uleb128 0x24
 6771 026f 00       		.byte	0
 6772 0270 0A       		.uleb128 0xa
 6773 0271 04       		.byte	0x4
 6774 0272 B5010000 		.4byte	0x1b5
 6775 0276 0A       		.uleb128 0xa
 6776 0277 04       		.byte	0x4
 6777 0278 50000000 		.4byte	0x50
 6778 027c 0B       		.uleb128 0xb
 6779 027d 46494C00 		.ascii	"FIL\000"
 6780 0281 03       		.byte	0x3
 6781 0282 88       		.byte	0x88
 6782 0283 C0010000 		.4byte	0x1c0
 6783 0287 0C       		.uleb128 0xc
 6784 0288 1C       		.byte	0x1c
 6785 0289 03       		.byte	0x3
 6786 028a 8E       		.byte	0x8e
 6787 028b FD020000 		.4byte	0x2fd
 6788 028f 07       		.uleb128 0x7
 6789 0290 667300   		.ascii	"fs\000"
 6790 0293 03       		.byte	0x3
 6791 0294 8F       		.byte	0x8f
 6792 0295 70020000 		.4byte	0x270
 6793 0299 02       		.byte	0x2
 6794 029a 23       		.byte	0x23
 6795 029b 00       		.uleb128 0
ARM GAS  /var/folders/dt/0wfd0knj7gs46m8vwfzktm600000gn/T//cczoWvr4.s 			page 121


 6796 029c 07       		.uleb128 0x7
 6797 029d 696400   		.ascii	"id\000"
 6798 02a0 03       		.byte	0x3
 6799 02a1 90       		.byte	0x90
 6800 02a2 69000000 		.4byte	0x69
 6801 02a6 02       		.byte	0x2
 6802 02a7 23       		.byte	0x23
 6803 02a8 04       		.uleb128 0x4
 6804 02a9 06       		.uleb128 0x6
 6805 02aa 92040000 		.4byte	.LASF37
 6806 02ae 03       		.byte	0x3
 6807 02af 91       		.byte	0x91
 6808 02b0 69000000 		.4byte	0x69
 6809 02b4 02       		.byte	0x2
 6810 02b5 23       		.byte	0x23
 6811 02b6 06       		.uleb128 0x6
 6812 02b7 06       		.uleb128 0x6
 6813 02b8 47030000 		.4byte	.LASF32
 6814 02bc 03       		.byte	0x3
 6815 02bd 92       		.byte	0x92
 6816 02be 82000000 		.4byte	0x82
 6817 02c2 02       		.byte	0x2
 6818 02c3 23       		.byte	0x23
 6819 02c4 08       		.uleb128 0x8
 6820 02c5 06       		.uleb128 0x6
 6821 02c6 93050000 		.4byte	.LASF33
 6822 02ca 03       		.byte	0x3
 6823 02cb 93       		.byte	0x93
 6824 02cc 82000000 		.4byte	0x82
 6825 02d0 02       		.byte	0x2
 6826 02d1 23       		.byte	0x23
 6827 02d2 0C       		.uleb128 0xc
 6828 02d3 06       		.uleb128 0x6
 6829 02d4 81000000 		.4byte	.LASF38
 6830 02d8 03       		.byte	0x3
 6831 02d9 94       		.byte	0x94
 6832 02da 82000000 		.4byte	0x82
 6833 02de 02       		.byte	0x2
 6834 02df 23       		.byte	0x23
 6835 02e0 10       		.uleb128 0x10
 6836 02e1 07       		.uleb128 0x7
 6837 02e2 64697200 		.ascii	"dir\000"
 6838 02e6 03       		.byte	0x3
 6839 02e7 95       		.byte	0x95
 6840 02e8 76020000 		.4byte	0x276
 6841 02ec 02       		.byte	0x2
 6842 02ed 23       		.byte	0x23
 6843 02ee 14       		.uleb128 0x14
 6844 02ef 07       		.uleb128 0x7
 6845 02f0 666E00   		.ascii	"fn\000"
 6846 02f3 03       		.byte	0x3
 6847 02f4 96       		.byte	0x96
 6848 02f5 76020000 		.4byte	0x276
 6849 02f9 02       		.byte	0x2
 6850 02fa 23       		.byte	0x23
 6851 02fb 18       		.uleb128 0x18
 6852 02fc 00       		.byte	0
ARM GAS  /var/folders/dt/0wfd0knj7gs46m8vwfzktm600000gn/T//cczoWvr4.s 			page 122


 6853 02fd 0B       		.uleb128 0xb
 6854 02fe 44495200 		.ascii	"DIR\000"
 6855 0302 03       		.byte	0x3
 6856 0303 9B       		.byte	0x9b
 6857 0304 87020000 		.4byte	0x287
 6858 0308 0C       		.uleb128 0xc
 6859 0309 18       		.byte	0x18
 6860 030a 03       		.byte	0x3
 6861 030b A1       		.byte	0xa1
 6862 030c 57030000 		.4byte	0x357
 6863 0310 06       		.uleb128 0x6
 6864 0311 C9000000 		.4byte	.LASF22
 6865 0315 03       		.byte	0x3
 6866 0316 A2       		.byte	0xa2
 6867 0317 82000000 		.4byte	0x82
 6868 031b 02       		.byte	0x2
 6869 031c 23       		.byte	0x23
 6870 031d 00       		.uleb128 0
 6871 031e 06       		.uleb128 0x6
 6872 031f DC020000 		.4byte	.LASF39
 6873 0323 03       		.byte	0x3
 6874 0324 A3       		.byte	0xa3
 6875 0325 69000000 		.4byte	0x69
 6876 0329 02       		.byte	0x2
 6877 032a 23       		.byte	0x23
 6878 032b 04       		.uleb128 0x4
 6879 032c 06       		.uleb128 0x6
 6880 032d FB010000 		.4byte	.LASF40
 6881 0331 03       		.byte	0x3
 6882 0332 A4       		.byte	0xa4
 6883 0333 69000000 		.4byte	0x69
 6884 0337 02       		.byte	0x2
 6885 0338 23       		.byte	0x23
 6886 0339 06       		.uleb128 0x6
 6887 033a 06       		.uleb128 0x6
 6888 033b 07050000 		.4byte	.LASF41
 6889 033f 03       		.byte	0x3
 6890 0340 A5       		.byte	0xa5
 6891 0341 50000000 		.4byte	0x50
 6892 0345 02       		.byte	0x2
 6893 0346 23       		.byte	0x23
 6894 0347 08       		.uleb128 0x8
 6895 0348 06       		.uleb128 0x6
 6896 0349 A4020000 		.4byte	.LASF42
 6897 034d 03       		.byte	0x3
 6898 034e A6       		.byte	0xa6
 6899 034f 57030000 		.4byte	0x357
 6900 0353 02       		.byte	0x2
 6901 0354 23       		.byte	0x23
 6902 0355 09       		.uleb128 0x9
 6903 0356 00       		.byte	0
 6904 0357 08       		.uleb128 0x8
 6905 0358 8D000000 		.4byte	0x8d
 6906 035c 67030000 		.4byte	0x367
 6907 0360 0D       		.uleb128 0xd
 6908 0361 AE010000 		.4byte	0x1ae
 6909 0365 0C       		.byte	0xc
ARM GAS  /var/folders/dt/0wfd0knj7gs46m8vwfzktm600000gn/T//cczoWvr4.s 			page 123


 6910 0366 00       		.byte	0
 6911 0367 03       		.uleb128 0x3
 6912 0368 25050000 		.4byte	.LASF43
 6913 036c 03       		.byte	0x3
 6914 036d AB       		.byte	0xab
 6915 036e 08030000 		.4byte	0x308
 6916 0372 0E       		.uleb128 0xe
 6917 0373 01       		.byte	0x1
 6918 0374 03       		.byte	0x3
 6919 0375 B1       		.byte	0xb1
 6920 0376 ED030000 		.4byte	0x3ed
 6921 037a 0F       		.uleb128 0xf
 6922 037b 8C040000 		.4byte	.LASF44
 6923 037f 00       		.sleb128 0
 6924 0380 0F       		.uleb128 0xf
 6925 0381 71020000 		.4byte	.LASF45
 6926 0385 01       		.sleb128 1
 6927 0386 0F       		.uleb128 0xf
 6928 0387 5E020000 		.4byte	.LASF46
 6929 038b 02       		.sleb128 2
 6930 038c 0F       		.uleb128 0xf
 6931 038d 00000000 		.4byte	.LASF47
 6932 0391 03       		.sleb128 3
 6933 0392 0F       		.uleb128 0xf
 6934 0393 60030000 		.4byte	.LASF48
 6935 0397 04       		.sleb128 4
 6936 0398 0F       		.uleb128 0xf
 6937 0399 71050000 		.4byte	.LASF49
 6938 039d 05       		.sleb128 5
 6939 039e 0F       		.uleb128 0xf
 6940 039f C3040000 		.4byte	.LASF50
 6941 03a3 06       		.sleb128 6
 6942 03a4 0F       		.uleb128 0xf
 6943 03a5 2B040000 		.4byte	.LASF51
 6944 03a9 07       		.sleb128 7
 6945 03aa 0F       		.uleb128 0xf
 6946 03ab 8A010000 		.4byte	.LASF52
 6947 03af 08       		.sleb128 8
 6948 03b0 0F       		.uleb128 0xf
 6949 03b1 86000000 		.4byte	.LASF53
 6950 03b5 09       		.sleb128 9
 6951 03b6 0F       		.uleb128 0xf
 6952 03b7 B0020000 		.4byte	.LASF54
 6953 03bb 0A       		.sleb128 10
 6954 03bc 0F       		.uleb128 0xf
 6955 03bd 1A040000 		.4byte	.LASF55
 6956 03c1 0B       		.sleb128 11
 6957 03c2 0F       		.uleb128 0xf
 6958 03c3 83030000 		.4byte	.LASF56
 6959 03c7 0C       		.sleb128 12
 6960 03c8 0F       		.uleb128 0xf
 6961 03c9 1D010000 		.4byte	.LASF57
 6962 03cd 0D       		.sleb128 13
 6963 03ce 0F       		.uleb128 0xf
 6964 03cf 4B040000 		.4byte	.LASF58
 6965 03d3 0E       		.sleb128 14
 6966 03d4 0F       		.uleb128 0xf
ARM GAS  /var/folders/dt/0wfd0knj7gs46m8vwfzktm600000gn/T//cczoWvr4.s 			page 124


 6967 03d5 37030000 		.4byte	.LASF59
 6968 03d9 0F       		.sleb128 15
 6969 03da 0F       		.uleb128 0xf
 6970 03db 65040000 		.4byte	.LASF60
 6971 03df 10       		.sleb128 16
 6972 03e0 0F       		.uleb128 0xf
 6973 03e1 77010000 		.4byte	.LASF61
 6974 03e5 11       		.sleb128 17
 6975 03e6 0F       		.uleb128 0xf
 6976 03e7 1D000000 		.4byte	.LASF62
 6977 03eb 12       		.sleb128 18
 6978 03ec 00       		.byte	0
 6979 03ed 03       		.uleb128 0x3
 6980 03ee 4F050000 		.4byte	.LASF63
 6981 03f2 03       		.byte	0x3
 6982 03f3 C5       		.byte	0xc5
 6983 03f4 72030000 		.4byte	0x372
 6984 03f8 03       		.uleb128 0x3
 6985 03f9 A5040000 		.4byte	.LASF64
 6986 03fd 04       		.byte	0x4
 6987 03fe 0E       		.byte	0xe
 6988 03ff 50000000 		.4byte	0x50
 6989 0403 0E       		.uleb128 0xe
 6990 0404 01       		.byte	0x1
 6991 0405 04       		.byte	0x4
 6992 0406 11       		.byte	0x11
 6993 0407 2A040000 		.4byte	0x42a
 6994 040b 0F       		.uleb128 0xf
 6995 040c 4E030000 		.4byte	.LASF65
 6996 0410 00       		.sleb128 0
 6997 0411 0F       		.uleb128 0xf
 6998 0412 57050000 		.4byte	.LASF66
 6999 0416 01       		.sleb128 1
 7000 0417 0F       		.uleb128 0xf
 7001 0418 0D000000 		.4byte	.LASF67
 7002 041c 02       		.sleb128 2
 7003 041d 0F       		.uleb128 0xf
 7004 041e 59000000 		.4byte	.LASF68
 7005 0422 03       		.sleb128 3
 7006 0423 0F       		.uleb128 0xf
 7007 0424 05010000 		.4byte	.LASF69
 7008 0428 04       		.sleb128 4
 7009 0429 00       		.byte	0
 7010 042a 03       		.uleb128 0x3
 7011 042b 2D050000 		.4byte	.LASF70
 7012 042f 04       		.byte	0x4
 7013 0430 17       		.byte	0x17
 7014 0431 03040000 		.4byte	0x403
 7015 0435 10       		.uleb128 0x10
 7016 0436 07030000 		.4byte	.LASF80
 7017 043a 01       		.byte	0x1
 7018 043b 1A02     		.2byte	0x21a
 7019 043d 01       		.byte	0x1
 7020 043e 01       		.byte	0x1
 7021 043f 72040000 		.4byte	0x472
 7022 0443 11       		.uleb128 0x11
 7023 0444 64737400 		.ascii	"dst\000"
ARM GAS  /var/folders/dt/0wfd0knj7gs46m8vwfzktm600000gn/T//cczoWvr4.s 			page 125


 7024 0448 01       		.byte	0x1
 7025 0449 1A02     		.2byte	0x21a
 7026 044b 72040000 		.4byte	0x472
 7027 044f 11       		.uleb128 0x11
 7028 0450 76616C00 		.ascii	"val\000"
 7029 0454 01       		.byte	0x1
 7030 0455 1A02     		.2byte	0x21a
 7031 0457 29000000 		.4byte	0x29
 7032 045b 11       		.uleb128 0x11
 7033 045c 636E7400 		.ascii	"cnt\000"
 7034 0460 01       		.byte	0x1
 7035 0461 1A02     		.2byte	0x21a
 7036 0463 30000000 		.4byte	0x30
 7037 0467 12       		.uleb128 0x12
 7038 0468 6400     		.ascii	"d\000"
 7039 046a 01       		.byte	0x1
 7040 046b 1B02     		.2byte	0x21b
 7041 046d 76020000 		.4byte	0x276
 7042 0471 00       		.byte	0
 7043 0472 13       		.uleb128 0x13
 7044 0473 04       		.byte	0x4
 7045 0474 14       		.uleb128 0x14
 7046 0475 4A000000 		.4byte	.LASF71
 7047 0479 01       		.byte	0x1
 7048 047a 2D02     		.2byte	0x22d
 7049 047c 01       		.byte	0x1
 7050 047d 29000000 		.4byte	0x29
 7051 0481 01       		.byte	0x1
 7052 0482 9F040000 		.4byte	0x49f
 7053 0486 11       		.uleb128 0x11
 7054 0487 73747200 		.ascii	"str\000"
 7055 048b 01       		.byte	0x1
 7056 048c 2D02     		.2byte	0x22d
 7057 048e 9F040000 		.4byte	0x49f
 7058 0492 11       		.uleb128 0x11
 7059 0493 63687200 		.ascii	"chr\000"
 7060 0497 01       		.byte	0x1
 7061 0498 2D02     		.2byte	0x22d
 7062 049a 29000000 		.4byte	0x29
 7063 049e 00       		.byte	0
 7064 049f 0A       		.uleb128 0xa
 7065 04a0 04       		.byte	0x4
 7066 04a1 A5040000 		.4byte	0x4a5
 7067 04a5 15       		.uleb128 0x15
 7068 04a6 42000000 		.4byte	0x42
 7069 04aa 14       		.uleb128 0x14
 7070 04ab 35040000 		.4byte	.LASF72
 7071 04af 01       		.byte	0x1
 7072 04b0 7608     		.2byte	0x876
 7073 04b2 01       		.byte	0x1
 7074 04b3 ED030000 		.4byte	0x3ed
 7075 04b7 01       		.byte	0x1
 7076 04b8 D3040000 		.4byte	0x4d3
 7077 04bc 11       		.uleb128 0x11
 7078 04bd 667300   		.ascii	"fs\000"
 7079 04c0 01       		.byte	0x1
 7080 04c1 7708     		.2byte	0x877
ARM GAS  /var/folders/dt/0wfd0knj7gs46m8vwfzktm600000gn/T//cczoWvr4.s 			page 126


 7081 04c3 70020000 		.4byte	0x270
 7082 04c7 11       		.uleb128 0x11
 7083 04c8 696400   		.ascii	"id\000"
 7084 04cb 01       		.byte	0x1
 7085 04cc 7808     		.2byte	0x878
 7086 04ce 69000000 		.4byte	0x69
 7087 04d2 00       		.byte	0
 7088 04d3 14       		.uleb128 0x14
 7089 04d4 11040000 		.4byte	.LASF73
 7090 04d8 01       		.byte	0x1
 7091 04d9 B707     		.2byte	0x7b7
 7092 04db 01       		.byte	0x1
 7093 04dc 50000000 		.4byte	0x50
 7094 04e0 01       		.byte	0x1
 7095 04e1 FD040000 		.4byte	0x4fd
 7096 04e5 11       		.uleb128 0x11
 7097 04e6 667300   		.ascii	"fs\000"
 7098 04e9 01       		.byte	0x1
 7099 04ea B807     		.2byte	0x7b8
 7100 04ec 70020000 		.4byte	0x270
 7101 04f0 16       		.uleb128 0x16
 7102 04f1 81000000 		.4byte	.LASF38
 7103 04f5 01       		.byte	0x1
 7104 04f6 B907     		.2byte	0x7b9
 7105 04f8 82000000 		.4byte	0x82
 7106 04fc 00       		.byte	0
 7107 04fd 17       		.uleb128 0x17
 7108 04fe 01       		.byte	0x1
 7109 04ff B6030000 		.4byte	.LASF75
 7110 0503 01       		.byte	0x1
 7111 0504 2D03     		.2byte	0x32d
 7112 0506 01       		.byte	0x1
 7113 0507 82000000 		.4byte	0x82
 7114 050b 01       		.byte	0x1
 7115 050c 48050000 		.4byte	0x548
 7116 0510 11       		.uleb128 0x11
 7117 0511 667300   		.ascii	"fs\000"
 7118 0514 01       		.byte	0x1
 7119 0515 2E03     		.2byte	0x32e
 7120 0517 70020000 		.4byte	0x270
 7121 051b 16       		.uleb128 0x16
 7122 051c 59020000 		.4byte	.LASF74
 7123 0520 01       		.byte	0x1
 7124 0521 2F03     		.2byte	0x32f
 7125 0523 82000000 		.4byte	0x82
 7126 0527 12       		.uleb128 0x12
 7127 0528 776300   		.ascii	"wc\000"
 7128 052b 01       		.byte	0x1
 7129 052c 3203     		.2byte	0x332
 7130 052e 30000000 		.4byte	0x30
 7131 0532 12       		.uleb128 0x12
 7132 0533 626300   		.ascii	"bc\000"
 7133 0536 01       		.byte	0x1
 7134 0537 3203     		.2byte	0x332
 7135 0539 30000000 		.4byte	0x30
 7136 053d 12       		.uleb128 0x12
 7137 053e 7000     		.ascii	"p\000"
ARM GAS  /var/folders/dt/0wfd0knj7gs46m8vwfzktm600000gn/T//cczoWvr4.s 			page 127


 7138 0540 01       		.byte	0x1
 7139 0541 3303     		.2byte	0x333
 7140 0543 76020000 		.4byte	0x276
 7141 0547 00       		.byte	0
 7142 0548 17       		.uleb128 0x17
 7143 0549 01       		.byte	0x1
 7144 054a F3020000 		.4byte	.LASF76
 7145 054e 01       		.byte	0x1
 7146 054f 1B03     		.2byte	0x31b
 7147 0551 01       		.byte	0x1
 7148 0552 82000000 		.4byte	0x82
 7149 0556 01       		.byte	0x1
 7150 0557 73050000 		.4byte	0x573
 7151 055b 11       		.uleb128 0x11
 7152 055c 667300   		.ascii	"fs\000"
 7153 055f 01       		.byte	0x1
 7154 0560 1C03     		.2byte	0x31c
 7155 0562 70020000 		.4byte	0x270
 7156 0566 16       		.uleb128 0x16
 7157 0567 59020000 		.4byte	.LASF74
 7158 056b 01       		.byte	0x1
 7159 056c 1D03     		.2byte	0x31d
 7160 056e 82000000 		.4byte	0x82
 7161 0572 00       		.byte	0
 7162 0573 14       		.uleb128 0x14
 7163 0574 FA000000 		.4byte	.LASF77
 7164 0578 01       		.byte	0x1
 7165 0579 2306     		.2byte	0x623
 7166 057b 01       		.byte	0x1
 7167 057c ED030000 		.4byte	0x3ed
 7168 0580 01       		.byte	0x1
 7169 0581 9D050000 		.4byte	0x59d
 7170 0585 11       		.uleb128 0x11
 7171 0586 646A00   		.ascii	"dj\000"
 7172 0589 01       		.byte	0x1
 7173 058a 2406     		.2byte	0x624
 7174 058c 9D050000 		.4byte	0x59d
 7175 0590 12       		.uleb128 0x12
 7176 0591 72657300 		.ascii	"res\000"
 7177 0595 01       		.byte	0x1
 7178 0596 2706     		.2byte	0x627
 7179 0598 ED030000 		.4byte	0x3ed
 7180 059c 00       		.byte	0
 7181 059d 0A       		.uleb128 0xa
 7182 059e 04       		.byte	0x4
 7183 059f FD020000 		.4byte	0x2fd
 7184 05a3 17       		.uleb128 0x17
 7185 05a4 01       		.byte	0x1
 7186 05a5 34000000 		.4byte	.LASF78
 7187 05a9 01       		.byte	0x1
 7188 05aa 5803     		.2byte	0x358
 7189 05ac 01       		.byte	0x1
 7190 05ad ED030000 		.4byte	0x3ed
 7191 05b1 01       		.byte	0x1
 7192 05b2 FB050000 		.4byte	0x5fb
 7193 05b6 11       		.uleb128 0x11
 7194 05b7 667300   		.ascii	"fs\000"
ARM GAS  /var/folders/dt/0wfd0knj7gs46m8vwfzktm600000gn/T//cczoWvr4.s 			page 128


 7195 05ba 01       		.byte	0x1
 7196 05bb 5903     		.2byte	0x359
 7197 05bd 70020000 		.4byte	0x270
 7198 05c1 16       		.uleb128 0x16
 7199 05c2 59020000 		.4byte	.LASF74
 7200 05c6 01       		.byte	0x1
 7201 05c7 5A03     		.2byte	0x35a
 7202 05c9 82000000 		.4byte	0x82
 7203 05cd 11       		.uleb128 0x11
 7204 05ce 76616C00 		.ascii	"val\000"
 7205 05d2 01       		.byte	0x1
 7206 05d3 5B03     		.2byte	0x35b
 7207 05d5 82000000 		.4byte	0x82
 7208 05d9 12       		.uleb128 0x12
 7209 05da 626300   		.ascii	"bc\000"
 7210 05dd 01       		.byte	0x1
 7211 05de 5E03     		.2byte	0x35e
 7212 05e0 30000000 		.4byte	0x30
 7213 05e4 12       		.uleb128 0x12
 7214 05e5 7000     		.ascii	"p\000"
 7215 05e7 01       		.byte	0x1
 7216 05e8 5F03     		.2byte	0x35f
 7217 05ea 76020000 		.4byte	0x276
 7218 05ee 12       		.uleb128 0x12
 7219 05ef 72657300 		.ascii	"res\000"
 7220 05f3 01       		.byte	0x1
 7221 05f4 6003     		.2byte	0x360
 7222 05f6 ED030000 		.4byte	0x3ed
 7223 05fa 00       		.byte	0
 7224 05fb 14       		.uleb128 0x14
 7225 05fc 85020000 		.4byte	.LASF79
 7226 0600 01       		.byte	0x1
 7227 0601 2302     		.2byte	0x223
 7228 0603 01       		.byte	0x1
 7229 0604 29000000 		.4byte	0x29
 7230 0608 01       		.byte	0x1
 7231 0609 50060000 		.4byte	0x650
 7232 060d 11       		.uleb128 0x11
 7233 060e 64737400 		.ascii	"dst\000"
 7234 0612 01       		.byte	0x1
 7235 0613 2302     		.2byte	0x223
 7236 0615 50060000 		.4byte	0x650
 7237 0619 11       		.uleb128 0x11
 7238 061a 73726300 		.ascii	"src\000"
 7239 061e 01       		.byte	0x1
 7240 061f 2302     		.2byte	0x223
 7241 0621 50060000 		.4byte	0x650
 7242 0625 11       		.uleb128 0x11
 7243 0626 636E7400 		.ascii	"cnt\000"
 7244 062a 01       		.byte	0x1
 7245 062b 2302     		.2byte	0x223
 7246 062d 30000000 		.4byte	0x30
 7247 0631 12       		.uleb128 0x12
 7248 0632 6400     		.ascii	"d\000"
 7249 0634 01       		.byte	0x1
 7250 0635 2402     		.2byte	0x224
 7251 0637 57060000 		.4byte	0x657
ARM GAS  /var/folders/dt/0wfd0knj7gs46m8vwfzktm600000gn/T//cczoWvr4.s 			page 129


 7252 063b 12       		.uleb128 0x12
 7253 063c 7300     		.ascii	"s\000"
 7254 063e 01       		.byte	0x1
 7255 063f 2402     		.2byte	0x224
 7256 0641 57060000 		.4byte	0x657
 7257 0645 12       		.uleb128 0x12
 7258 0646 7200     		.ascii	"r\000"
 7259 0648 01       		.byte	0x1
 7260 0649 2502     		.2byte	0x225
 7261 064b 29000000 		.4byte	0x29
 7262 064f 00       		.byte	0
 7263 0650 0A       		.uleb128 0xa
 7264 0651 04       		.byte	0x4
 7265 0652 56060000 		.4byte	0x656
 7266 0656 18       		.uleb128 0x18
 7267 0657 0A       		.uleb128 0xa
 7268 0658 04       		.byte	0x4
 7269 0659 5D060000 		.4byte	0x65d
 7270 065d 15       		.uleb128 0x15
 7271 065e 50000000 		.4byte	0x50
 7272 0662 10       		.uleb128 0x10
 7273 0663 F3040000 		.4byte	.LASF81
 7274 0667 01       		.byte	0x1
 7275 0668 0902     		.2byte	0x209
 7276 066a 01       		.byte	0x1
 7277 066b 01       		.byte	0x1
 7278 066c A9060000 		.4byte	0x6a9
 7279 0670 11       		.uleb128 0x11
 7280 0671 64737400 		.ascii	"dst\000"
 7281 0675 01       		.byte	0x1
 7282 0676 0902     		.2byte	0x209
 7283 0678 72040000 		.4byte	0x472
 7284 067c 11       		.uleb128 0x11
 7285 067d 73726300 		.ascii	"src\000"
 7286 0681 01       		.byte	0x1
 7287 0682 0902     		.2byte	0x209
 7288 0684 50060000 		.4byte	0x650
 7289 0688 11       		.uleb128 0x11
 7290 0689 636E7400 		.ascii	"cnt\000"
 7291 068d 01       		.byte	0x1
 7292 068e 0902     		.2byte	0x209
 7293 0690 30000000 		.4byte	0x30
 7294 0694 12       		.uleb128 0x12
 7295 0695 6400     		.ascii	"d\000"
 7296 0697 01       		.byte	0x1
 7297 0698 0A02     		.2byte	0x20a
 7298 069a 76020000 		.4byte	0x276
 7299 069e 12       		.uleb128 0x12
 7300 069f 7300     		.ascii	"s\000"
 7301 06a1 01       		.byte	0x1
 7302 06a2 0B02     		.2byte	0x20b
 7303 06a4 57060000 		.4byte	0x657
 7304 06a8 00       		.byte	0
 7305 06a9 14       		.uleb128 0x14
 7306 06aa 3E040000 		.4byte	.LASF82
 7307 06ae 01       		.byte	0x1
 7308 06af B805     		.2byte	0x5b8
ARM GAS  /var/folders/dt/0wfd0knj7gs46m8vwfzktm600000gn/T//cczoWvr4.s 			page 130


 7309 06b1 01       		.byte	0x1
 7310 06b2 ED030000 		.4byte	0x3ed
 7311 06b6 01       		.byte	0x1
 7312 06b7 E9060000 		.4byte	0x6e9
 7313 06bb 11       		.uleb128 0x11
 7314 06bc 646A00   		.ascii	"dj\000"
 7315 06bf 01       		.byte	0x1
 7316 06c0 B905     		.2byte	0x5b9
 7317 06c2 9D050000 		.4byte	0x59d
 7318 06c6 12       		.uleb128 0x12
 7319 06c7 72657300 		.ascii	"res\000"
 7320 06cb 01       		.byte	0x1
 7321 06cc BC05     		.2byte	0x5bc
 7322 06ce ED030000 		.4byte	0x3ed
 7323 06d2 12       		.uleb128 0x12
 7324 06d3 6300     		.ascii	"c\000"
 7325 06d5 01       		.byte	0x1
 7326 06d6 BD05     		.2byte	0x5bd
 7327 06d8 50000000 		.4byte	0x50
 7328 06dc 12       		.uleb128 0x12
 7329 06dd 64697200 		.ascii	"dir\000"
 7330 06e1 01       		.byte	0x1
 7331 06e2 BD05     		.2byte	0x5bd
 7332 06e4 76020000 		.4byte	0x276
 7333 06e8 00       		.byte	0
 7334 06e9 14       		.uleb128 0x14
 7335 06ea 98040000 		.4byte	.LASF83
 7336 06ee 01       		.byte	0x1
 7337 06ef 9703     		.2byte	0x397
 7338 06f1 01       		.byte	0x1
 7339 06f2 ED030000 		.4byte	0x3ed
 7340 06f6 01       		.byte	0x1
 7341 06f7 2B070000 		.4byte	0x72b
 7342 06fb 11       		.uleb128 0x11
 7343 06fc 667300   		.ascii	"fs\000"
 7344 06ff 01       		.byte	0x1
 7345 0700 9803     		.2byte	0x398
 7346 0702 70020000 		.4byte	0x270
 7347 0706 16       		.uleb128 0x16
 7348 0707 59020000 		.4byte	.LASF74
 7349 070b 01       		.byte	0x1
 7350 070c 9903     		.2byte	0x399
 7351 070e 82000000 		.4byte	0x82
 7352 0712 12       		.uleb128 0x12
 7353 0713 72657300 		.ascii	"res\000"
 7354 0717 01       		.byte	0x1
 7355 0718 9C03     		.2byte	0x39c
 7356 071a ED030000 		.4byte	0x3ed
 7357 071e 12       		.uleb128 0x12
 7358 071f 6E787400 		.ascii	"nxt\000"
 7359 0723 01       		.byte	0x1
 7360 0724 9D03     		.2byte	0x39d
 7361 0726 82000000 		.4byte	0x82
 7362 072a 00       		.byte	0
 7363 072b 19       		.uleb128 0x19
 7364 072c 18030000 		.4byte	.LASF150
 7365 0730 01       		.byte	0x1
ARM GAS  /var/folders/dt/0wfd0knj7gs46m8vwfzktm600000gn/T//cczoWvr4.s 			page 131


 7366 0731 2607     		.2byte	0x726
 7367 0733 01       		.byte	0x1
 7368 0734 00000000 		.4byte	.LFB18
 7369 0738 88000000 		.4byte	.LFE18
 7370 073c 00000000 		.4byte	.LLST0
 7371 0740 01       		.byte	0x1
 7372 0741 AC070000 		.4byte	0x7ac
 7373 0745 1A       		.uleb128 0x1a
 7374 0746 646A00   		.ascii	"dj\000"
 7375 0749 01       		.byte	0x1
 7376 074a 2707     		.2byte	0x727
 7377 074c 9D050000 		.4byte	0x59d
 7378 0750 20000000 		.4byte	.LLST1
 7379 0754 1B       		.uleb128 0x1b
 7380 0755 666E6F00 		.ascii	"fno\000"
 7381 0759 01       		.byte	0x1
 7382 075a 2807     		.2byte	0x728
 7383 075c AC070000 		.4byte	0x7ac
 7384 0760 01       		.byte	0x1
 7385 0761 51       		.byte	0x51
 7386 0762 1C       		.uleb128 0x1c
 7387 0763 6900     		.ascii	"i\000"
 7388 0765 01       		.byte	0x1
 7389 0766 2B07     		.2byte	0x72b
 7390 0768 30000000 		.4byte	0x30
 7391 076c 41000000 		.4byte	.LLST2
 7392 0770 1C       		.uleb128 0x1c
 7393 0771 6E7400   		.ascii	"nt\000"
 7394 0774 01       		.byte	0x1
 7395 0775 2C07     		.2byte	0x72c
 7396 0777 50000000 		.4byte	0x50
 7397 077b 6C000000 		.4byte	.LLST3
 7398 077f 1C       		.uleb128 0x1c
 7399 0780 64697200 		.ascii	"dir\000"
 7400 0784 01       		.byte	0x1
 7401 0785 2C07     		.2byte	0x72c
 7402 0787 76020000 		.4byte	0x276
 7403 078b 80000000 		.4byte	.LLST4
 7404 078f 1C       		.uleb128 0x1c
 7405 0790 7000     		.ascii	"p\000"
 7406 0792 01       		.byte	0x1
 7407 0793 2D07     		.2byte	0x72d
 7408 0795 B2070000 		.4byte	0x7b2
 7409 0799 93000000 		.4byte	.LLST5
 7410 079d 1C       		.uleb128 0x1c
 7411 079e 6300     		.ascii	"c\000"
 7412 07a0 01       		.byte	0x1
 7413 07a1 2D07     		.2byte	0x72d
 7414 07a3 8D000000 		.4byte	0x8d
 7415 07a7 F3000000 		.4byte	.LLST6
 7416 07ab 00       		.byte	0
 7417 07ac 0A       		.uleb128 0xa
 7418 07ad 04       		.byte	0x4
 7419 07ae 67030000 		.4byte	0x367
 7420 07b2 0A       		.uleb128 0xa
 7421 07b3 04       		.byte	0x4
 7422 07b4 8D000000 		.4byte	0x8d
ARM GAS  /var/folders/dt/0wfd0knj7gs46m8vwfzktm600000gn/T//cczoWvr4.s 			page 132


 7423 07b8 1D       		.uleb128 0x1d
 7424 07b9 DE040000 		.4byte	.LASF86
 7425 07bd 01       		.byte	0x1
 7426 07be C902     		.2byte	0x2c9
 7427 07c0 01       		.byte	0x1
 7428 07c1 ED030000 		.4byte	0x3ed
 7429 07c5 00000000 		.4byte	.LFB4
 7430 07c9 7A000000 		.4byte	.LFE4
 7431 07cd 32010000 		.4byte	.LLST7
 7432 07d1 01       		.byte	0x1
 7433 07d2 76080000 		.4byte	0x876
 7434 07d6 1A       		.uleb128 0x1a
 7435 07d7 667300   		.ascii	"fs\000"
 7436 07da 01       		.byte	0x1
 7437 07db CA02     		.2byte	0x2ca
 7438 07dd 70020000 		.4byte	0x270
 7439 07e1 52010000 		.4byte	.LLST8
 7440 07e5 1E       		.uleb128 0x1e
 7441 07e6 8D020000 		.4byte	.LASF84
 7442 07ea 01       		.byte	0x1
 7443 07eb CB02     		.2byte	0x2cb
 7444 07ed 82000000 		.4byte	0x82
 7445 07f1 86010000 		.4byte	.LLST9
 7446 07f5 1F       		.uleb128 0x1f
 7447 07f6 14050000 		.4byte	.LASF85
 7448 07fa 01       		.byte	0x1
 7449 07fb CE02     		.2byte	0x2ce
 7450 07fd 82000000 		.4byte	0x82
 7451 0801 01       		.byte	0x1
 7452 0802 55       		.byte	0x55
 7453 0803 20       		.uleb128 0x20
 7454 0804 4E000000 		.4byte	.LBB62
 7455 0808 6E000000 		.4byte	.LBE62
 7456 080c 3B080000 		.4byte	0x83b
 7457 0810 1C       		.uleb128 0x1c
 7458 0811 6E6600   		.ascii	"nf\000"
 7459 0814 01       		.byte	0x1
 7460 0815 D902     		.2byte	0x2d9
 7461 0817 50000000 		.4byte	0x50
 7462 081b BA010000 		.4byte	.LLST10
 7463 081f 21       		.uleb128 0x21
 7464 0820 6A000000 		.4byte	.LVL29
 7465 0824 CC280000 		.4byte	0x28cc
 7466 0828 22       		.uleb128 0x22
 7467 0829 01       		.byte	0x1
 7468 082a 53       		.byte	0x53
 7469 082b 01       		.byte	0x1
 7470 082c 31       		.byte	0x31
 7471 082d 22       		.uleb128 0x22
 7472 082e 01       		.byte	0x1
 7473 082f 52       		.byte	0x52
 7474 0830 02       		.byte	0x2
 7475 0831 75       		.byte	0x75
 7476 0832 00       		.sleb128 0
 7477 0833 22       		.uleb128 0x22
 7478 0834 01       		.byte	0x1
 7479 0835 51       		.byte	0x51
ARM GAS  /var/folders/dt/0wfd0knj7gs46m8vwfzktm600000gn/T//cczoWvr4.s 			page 133


 7480 0836 02       		.byte	0x2
 7481 0837 78       		.byte	0x78
 7482 0838 00       		.sleb128 0
 7483 0839 00       		.byte	0
 7484 083a 00       		.byte	0
 7485 083b 23       		.uleb128 0x23
 7486 083c 28000000 		.4byte	.LVL20
 7487 0840 F3280000 		.4byte	0x28f3
 7488 0844 5A080000 		.4byte	0x85a
 7489 0848 22       		.uleb128 0x22
 7490 0849 01       		.byte	0x1
 7491 084a 53       		.byte	0x53
 7492 084b 01       		.byte	0x1
 7493 084c 31       		.byte	0x31
 7494 084d 22       		.uleb128 0x22
 7495 084e 01       		.byte	0x1
 7496 084f 52       		.byte	0x52
 7497 0850 02       		.byte	0x2
 7498 0851 76       		.byte	0x76
 7499 0852 00       		.sleb128 0
 7500 0853 22       		.uleb128 0x22
 7501 0854 01       		.byte	0x1
 7502 0855 51       		.byte	0x51
 7503 0856 02       		.byte	0x2
 7504 0857 74       		.byte	0x74
 7505 0858 30       		.sleb128 48
 7506 0859 00       		.byte	0
 7507 085a 21       		.uleb128 0x21
 7508 085b 40000000 		.4byte	.LVL24
 7509 085f CC280000 		.4byte	0x28cc
 7510 0863 22       		.uleb128 0x22
 7511 0864 01       		.byte	0x1
 7512 0865 53       		.byte	0x53
 7513 0866 01       		.byte	0x1
 7514 0867 31       		.byte	0x31
 7515 0868 22       		.uleb128 0x22
 7516 0869 01       		.byte	0x1
 7517 086a 52       		.byte	0x52
 7518 086b 02       		.byte	0x2
 7519 086c 75       		.byte	0x75
 7520 086d 00       		.sleb128 0
 7521 086e 22       		.uleb128 0x22
 7522 086f 01       		.byte	0x1
 7523 0870 51       		.byte	0x51
 7524 0871 02       		.byte	0x2
 7525 0872 78       		.byte	0x78
 7526 0873 00       		.sleb128 0
 7527 0874 00       		.byte	0
 7528 0875 00       		.byte	0
 7529 0876 1D       		.uleb128 0x1d
 7530 0877 3A050000 		.4byte	.LASF87
 7531 087b 01       		.byte	0x1
 7532 087c F302     		.2byte	0x2f3
 7533 087e 01       		.byte	0x1
 7534 087f ED030000 		.4byte	0x3ed
 7535 0883 00000000 		.4byte	.LFB5
 7536 0887 D4000000 		.4byte	.LFE5
ARM GAS  /var/folders/dt/0wfd0knj7gs46m8vwfzktm600000gn/T//cczoWvr4.s 			page 134


 7537 088b E4010000 		.4byte	.LLST11
 7538 088f 01       		.byte	0x1
 7539 0890 34090000 		.4byte	0x934
 7540 0894 1A       		.uleb128 0x1a
 7541 0895 667300   		.ascii	"fs\000"
 7542 0898 01       		.byte	0x1
 7543 0899 F402     		.2byte	0x2f4
 7544 089b 70020000 		.4byte	0x270
 7545 089f 10020000 		.4byte	.LLST12
 7546 08a3 1C       		.uleb128 0x1c
 7547 08a4 72657300 		.ascii	"res\000"
 7548 08a8 01       		.byte	0x1
 7549 08a9 F702     		.2byte	0x2f7
 7550 08ab ED030000 		.4byte	0x3ed
 7551 08af 2E020000 		.4byte	.LLST13
 7552 08b3 24       		.uleb128 0x24
 7553 08b4 35040000 		.4byte	0x435
 7554 08b8 42000000 		.4byte	.LBB63
 7555 08bc 4A000000 		.4byte	.LBE63
 7556 08c0 01       		.byte	0x1
 7557 08c1 0003     		.2byte	0x300
 7558 08c3 F3080000 		.4byte	0x8f3
 7559 08c7 25       		.uleb128 0x25
 7560 08c8 5B040000 		.4byte	0x45b
 7561 08cc 63020000 		.4byte	.LLST14
 7562 08d0 26       		.uleb128 0x26
 7563 08d1 4F040000 		.4byte	0x44f
 7564 08d5 00       		.byte	0
 7565 08d6 25       		.uleb128 0x25
 7566 08d7 43040000 		.4byte	0x443
 7567 08db 79020000 		.4byte	.LLST15
 7568 08df 27       		.uleb128 0x27
 7569 08e0 42000000 		.4byte	.LBB64
 7570 08e4 4A000000 		.4byte	.LBE64
 7571 08e8 28       		.uleb128 0x28
 7572 08e9 67040000 		.4byte	0x467
 7573 08ed 99020000 		.4byte	.LLST16
 7574 08f1 00       		.byte	0
 7575 08f2 00       		.byte	0
 7576 08f3 23       		.uleb128 0x23
 7577 08f4 0E000000 		.4byte	.LVL32
 7578 08f8 B8070000 		.4byte	0x7b8
 7579 08fc 0C090000 		.4byte	0x90c
 7580 0900 22       		.uleb128 0x22
 7581 0901 01       		.byte	0x1
 7582 0902 51       		.byte	0x51
 7583 0903 01       		.byte	0x1
 7584 0904 30       		.byte	0x30
 7585 0905 22       		.uleb128 0x22
 7586 0906 01       		.byte	0x1
 7587 0907 50       		.byte	0x50
 7588 0908 02       		.byte	0x2
 7589 0909 74       		.byte	0x74
 7590 090a 00       		.sleb128 0
 7591 090b 00       		.byte	0
 7592 090c 23       		.uleb128 0x23
 7593 090d 22000000 		.4byte	.LVL35
ARM GAS  /var/folders/dt/0wfd0knj7gs46m8vwfzktm600000gn/T//cczoWvr4.s 			page 135


 7594 0911 1A290000 		.4byte	0x291a
 7595 0915 24090000 		.4byte	0x924
 7596 0919 22       		.uleb128 0x22
 7597 091a 01       		.byte	0x1
 7598 091b 52       		.byte	0x52
 7599 091c 01       		.byte	0x1
 7600 091d 30       		.byte	0x30
 7601 091e 22       		.uleb128 0x22
 7602 091f 01       		.byte	0x1
 7603 0920 51       		.byte	0x51
 7604 0921 01       		.byte	0x1
 7605 0922 30       		.byte	0x30
 7606 0923 00       		.byte	0
 7607 0924 21       		.uleb128 0x21
 7608 0925 CE000000 		.4byte	.LVL43
 7609 0929 CC280000 		.4byte	0x28cc
 7610 092d 22       		.uleb128 0x22
 7611 092e 01       		.byte	0x1
 7612 092f 53       		.byte	0x53
 7613 0930 01       		.byte	0x1
 7614 0931 31       		.byte	0x31
 7615 0932 00       		.byte	0
 7616 0933 00       		.byte	0
 7617 0934 29       		.uleb128 0x29
 7618 0935 AA040000 		.4byte	0x4aa
 7619 0939 00000000 		.4byte	.LFB22
 7620 093d 24000000 		.4byte	.LFE22
 7621 0941 B7020000 		.4byte	.LLST17
 7622 0945 01       		.byte	0x1
 7623 0946 8F090000 		.4byte	0x98f
 7624 094a 25       		.uleb128 0x25
 7625 094b BC040000 		.4byte	0x4bc
 7626 094f D7020000 		.4byte	.LLST18
 7627 0953 25       		.uleb128 0x25
 7628 0954 C7040000 		.4byte	0x4c7
 7629 0958 11030000 		.4byte	.LLST19
 7630 095c 2A       		.uleb128 0x2a
 7631 095d AA040000 		.4byte	0x4aa
 7632 0961 12000000 		.4byte	.LBB67
 7633 0965 24000000 		.4byte	.LBE67
 7634 0969 01       		.byte	0x1
 7635 096a 7608     		.2byte	0x876
 7636 096c 25       		.uleb128 0x25
 7637 096d BC040000 		.4byte	0x4bc
 7638 0971 32030000 		.4byte	.LLST20
 7639 0975 27       		.uleb128 0x27
 7640 0976 12000000 		.4byte	.LBB68
 7641 097a 24000000 		.4byte	.LBE68
 7642 097e 2B       		.uleb128 0x2b
 7643 097f C7040000 		.4byte	0x4c7
 7644 0983 2C       		.uleb128 0x2c
 7645 0984 18000000 		.4byte	.LVL49
 7646 0988 3C290000 		.4byte	0x293c
 7647 098c 00       		.byte	0
 7648 098d 00       		.byte	0
 7649 098e 00       		.byte	0
 7650 098f 29       		.uleb128 0x29
ARM GAS  /var/folders/dt/0wfd0knj7gs46m8vwfzktm600000gn/T//cczoWvr4.s 			page 136


 7651 0990 D3040000 		.4byte	0x4d3
 7652 0994 00000000 		.4byte	.LFB20
 7653 0998 8A000000 		.4byte	.LFE20
 7654 099c 53030000 		.4byte	.LLST21
 7655 09a0 01       		.byte	0x1
 7656 09a1 FF090000 		.4byte	0x9ff
 7657 09a5 25       		.uleb128 0x25
 7658 09a6 E5040000 		.4byte	0x4e5
 7659 09aa 73030000 		.4byte	.LLST22
 7660 09ae 25       		.uleb128 0x25
 7661 09af F0040000 		.4byte	0x4f0
 7662 09b3 91030000 		.4byte	.LLST23
 7663 09b7 24       		.uleb128 0x24
 7664 09b8 D3040000 		.4byte	0x4d3
 7665 09bc 62000000 		.4byte	.LBB71
 7666 09c0 82000000 		.4byte	.LBE71
 7667 09c4 01       		.byte	0x1
 7668 09c5 B707     		.2byte	0x7b7
 7669 09c7 E2090000 		.4byte	0x9e2
 7670 09cb 2D       		.uleb128 0x2d
 7671 09cc E5040000 		.4byte	0x4e5
 7672 09d0 01       		.byte	0x1
 7673 09d1 54       		.byte	0x54
 7674 09d2 27       		.uleb128 0x27
 7675 09d3 62000000 		.4byte	.LBB72
 7676 09d7 82000000 		.4byte	.LBE72
 7677 09db 2B       		.uleb128 0x2b
 7678 09dc F0040000 		.4byte	0x4f0
 7679 09e0 00       		.byte	0
 7680 09e1 00       		.byte	0
 7681 09e2 21       		.uleb128 0x21
 7682 09e3 12000000 		.4byte	.LVL53
 7683 09e7 F3280000 		.4byte	0x28f3
 7684 09eb 22       		.uleb128 0x22
 7685 09ec 01       		.byte	0x1
 7686 09ed 53       		.byte	0x53
 7687 09ee 01       		.byte	0x1
 7688 09ef 31       		.byte	0x31
 7689 09f0 22       		.uleb128 0x22
 7690 09f1 01       		.byte	0x1
 7691 09f2 52       		.byte	0x52
 7692 09f3 03       		.byte	0x3
 7693 09f4 F3       		.byte	0xf3
 7694 09f5 01       		.uleb128 0x1
 7695 09f6 51       		.byte	0x51
 7696 09f7 22       		.uleb128 0x22
 7697 09f8 01       		.byte	0x1
 7698 09f9 51       		.byte	0x51
 7699 09fa 02       		.byte	0x2
 7700 09fb 74       		.byte	0x74
 7701 09fc 30       		.sleb128 48
 7702 09fd 00       		.byte	0
 7703 09fe 00       		.byte	0
 7704 09ff 1D       		.uleb128 0x1d
 7705 0a00 25030000 		.4byte	.LASF88
 7706 0a04 01       		.byte	0x1
 7707 0a05 D107     		.2byte	0x7d1
ARM GAS  /var/folders/dt/0wfd0knj7gs46m8vwfzktm600000gn/T//cczoWvr4.s 			page 137


 7708 0a07 01       		.byte	0x1
 7709 0a08 ED030000 		.4byte	0x3ed
 7710 0a0c 00000000 		.4byte	.LFB21
 7711 0a10 04030000 		.4byte	.LFE21
 7712 0a14 BD030000 		.4byte	.LLST24
 7713 0a18 01       		.byte	0x1
 7714 0a19 8D0B0000 		.4byte	0xb8d
 7715 0a1d 1E       		.uleb128 0x1e
 7716 0a1e 6E000000 		.4byte	.LASF89
 7717 0a22 01       		.byte	0x1
 7718 0a23 D207     		.2byte	0x7d2
 7719 0a25 8D0B0000 		.4byte	0xb8d
 7720 0a29 DD030000 		.4byte	.LLST25
 7721 0a2d 1A       		.uleb128 0x1a
 7722 0a2e 72667300 		.ascii	"rfs\000"
 7723 0a32 01       		.byte	0x1
 7724 0a33 D307     		.2byte	0x7d3
 7725 0a35 9E0B0000 		.4byte	0xb9e
 7726 0a39 30040000 		.4byte	.LLST26
 7727 0a3d 1E       		.uleb128 0x1e
 7728 0a3e AD040000 		.4byte	.LASF90
 7729 0a42 01       		.byte	0x1
 7730 0a43 D407     		.2byte	0x7d4
 7731 0a45 50000000 		.4byte	0x50
 7732 0a49 6A040000 		.4byte	.LLST27
 7733 0a4d 1C       		.uleb128 0x1c
 7734 0a4e 666D7400 		.ascii	"fmt\000"
 7735 0a52 01       		.byte	0x1
 7736 0a53 D707     		.2byte	0x7d7
 7737 0a55 50000000 		.4byte	0x50
 7738 0a59 8B040000 		.4byte	.LLST28
 7739 0a5d 1C       		.uleb128 0x1c
 7740 0a5e 6200     		.ascii	"b\000"
 7741 0a60 01       		.byte	0x1
 7742 0a61 D707     		.2byte	0x7d7
 7743 0a63 50000000 		.4byte	0x50
 7744 0a67 05050000 		.4byte	.LLST29
 7745 0a6b 1C       		.uleb128 0x1c
 7746 0a6c 74626C00 		.ascii	"tbl\000"
 7747 0a70 01       		.byte	0x1
 7748 0a71 D707     		.2byte	0x7d7
 7749 0a73 76020000 		.4byte	0x276
 7750 0a77 3E050000 		.4byte	.LLST30
 7751 0a7b 1C       		.uleb128 0x1c
 7752 0a7c 766F6C00 		.ascii	"vol\000"
 7753 0a80 01       		.byte	0x1
 7754 0a81 D807     		.2byte	0x7d8
 7755 0a83 30000000 		.4byte	0x30
 7756 0a87 54050000 		.4byte	.LLST31
 7757 0a8b 2E       		.uleb128 0x2e
 7758 0a8c 4A050000 		.4byte	.LASF91
 7759 0a90 01       		.byte	0x1
 7760 0a91 D907     		.2byte	0x7d9
 7761 0a93 F8030000 		.4byte	0x3f8
 7762 0a97 CC050000 		.4byte	.LLST32
 7763 0a9b 2E       		.uleb128 0x2e
 7764 0a9c 27020000 		.4byte	.LASF92
ARM GAS  /var/folders/dt/0wfd0knj7gs46m8vwfzktm600000gn/T//cczoWvr4.s 			page 138


 7765 0aa0 01       		.byte	0x1
 7766 0aa1 DA07     		.2byte	0x7da
 7767 0aa3 82000000 		.4byte	0x82
 7768 0aa7 00060000 		.4byte	.LLST33
 7769 0aab 2E       		.uleb128 0x2e
 7770 0aac 98000000 		.4byte	.LASF93
 7771 0ab0 01       		.byte	0x1
 7772 0ab1 DA07     		.2byte	0x7da
 7773 0ab3 82000000 		.4byte	0x82
 7774 0ab7 4C060000 		.4byte	.LLST34
 7775 0abb 2E       		.uleb128 0x2e
 7776 0abc 99050000 		.4byte	.LASF94
 7777 0ac0 01       		.byte	0x1
 7778 0ac1 DA07     		.2byte	0x7da
 7779 0ac3 82000000 		.4byte	0x82
 7780 0ac7 1F070000 		.4byte	.LLST35
 7781 0acb 2E       		.uleb128 0x2e
 7782 0acc 2D020000 		.4byte	.LASF95
 7783 0ad0 01       		.byte	0x1
 7784 0ad1 DA07     		.2byte	0x7da
 7785 0ad3 82000000 		.4byte	0x82
 7786 0ad7 6D070000 		.4byte	.LLST36
 7787 0adb 2E       		.uleb128 0x2e
 7788 0adc 31030000 		.4byte	.LASF96
 7789 0ae0 01       		.byte	0x1
 7790 0ae1 DA07     		.2byte	0x7da
 7791 0ae3 82000000 		.4byte	0x82
 7792 0ae7 D7080000 		.4byte	.LLST37
 7793 0aeb 2E       		.uleb128 0x2e
 7794 0aec 94020000 		.4byte	.LASF97
 7795 0af0 01       		.byte	0x1
 7796 0af1 DA07     		.2byte	0x7da
 7797 0af3 82000000 		.4byte	0x82
 7798 0af7 57090000 		.4byte	.LLST38
 7799 0afb 2E       		.uleb128 0x2e
 7800 0afc BE040000 		.4byte	.LASF98
 7801 0b00 01       		.byte	0x1
 7802 0b01 DB07     		.2byte	0x7db
 7803 0b03 69000000 		.4byte	0x69
 7804 0b07 83090000 		.4byte	.LLST39
 7805 0b0b 1C       		.uleb128 0x1c
 7806 0b0c 7000     		.ascii	"p\000"
 7807 0b0e 01       		.byte	0x1
 7808 0b0f DC07     		.2byte	0x7dc
 7809 0b11 930B0000 		.4byte	0xb93
 7810 0b15 080A0000 		.4byte	.LLST40
 7811 0b19 1C       		.uleb128 0x1c
 7812 0b1a 667300   		.ascii	"fs\000"
 7813 0b1d 01       		.byte	0x1
 7814 0b1e DD07     		.2byte	0x7dd
 7815 0b20 70020000 		.4byte	0x270
 7816 0b24 330A0000 		.4byte	.LLST41
 7817 0b28 2C       		.uleb128 0x2c
 7818 0b29 26000000 		.4byte	.LVL62
 7819 0b2d 3C290000 		.4byte	0x293c
 7820 0b31 23       		.uleb128 0x23
 7821 0b32 58000000 		.4byte	.LVL70
ARM GAS  /var/folders/dt/0wfd0knj7gs46m8vwfzktm600000gn/T//cczoWvr4.s 			page 139


 7822 0b36 54290000 		.4byte	0x2954
 7823 0b3a 440B0000 		.4byte	0xb44
 7824 0b3e 22       		.uleb128 0x22
 7825 0b3f 01       		.byte	0x1
 7826 0b40 50       		.byte	0x50
 7827 0b41 01       		.byte	0x1
 7828 0b42 30       		.byte	0x30
 7829 0b43 00       		.byte	0
 7830 0b44 23       		.uleb128 0x23
 7831 0b45 7A000000 		.4byte	.LVL77
 7832 0b49 D3040000 		.4byte	0x4d3
 7833 0b4d 5D0B0000 		.4byte	0xb5d
 7834 0b51 22       		.uleb128 0x22
 7835 0b52 01       		.byte	0x1
 7836 0b53 51       		.byte	0x51
 7837 0b54 01       		.byte	0x1
 7838 0b55 30       		.byte	0x30
 7839 0b56 22       		.uleb128 0x22
 7840 0b57 01       		.byte	0x1
 7841 0b58 50       		.byte	0x50
 7842 0b59 02       		.byte	0x2
 7843 0b5a 74       		.byte	0x74
 7844 0b5b 00       		.sleb128 0
 7845 0b5c 00       		.byte	0
 7846 0b5d 23       		.uleb128 0x23
 7847 0b5e B8000000 		.4byte	.LVL83
 7848 0b62 D3040000 		.4byte	0x4d3
 7849 0b66 770B0000 		.4byte	0xb77
 7850 0b6a 22       		.uleb128 0x22
 7851 0b6b 01       		.byte	0x1
 7852 0b6c 51       		.byte	0x51
 7853 0b6d 02       		.byte	0x2
 7854 0b6e 75       		.byte	0x75
 7855 0b6f 00       		.sleb128 0
 7856 0b70 22       		.uleb128 0x22
 7857 0b71 01       		.byte	0x1
 7858 0b72 50       		.byte	0x50
 7859 0b73 02       		.byte	0x2
 7860 0b74 74       		.byte	0x74
 7861 0b75 00       		.sleb128 0
 7862 0b76 00       		.byte	0
 7863 0b77 21       		.uleb128 0x21
 7864 0b78 10020000 		.4byte	.LVL120
 7865 0b7c F3280000 		.4byte	0x28f3
 7866 0b80 22       		.uleb128 0x22
 7867 0b81 01       		.byte	0x1
 7868 0b82 53       		.byte	0x53
 7869 0b83 01       		.byte	0x1
 7870 0b84 31       		.byte	0x31
 7871 0b85 22       		.uleb128 0x22
 7872 0b86 01       		.byte	0x1
 7873 0b87 51       		.byte	0x51
 7874 0b88 02       		.byte	0x2
 7875 0b89 74       		.byte	0x74
 7876 0b8a 30       		.sleb128 48
 7877 0b8b 00       		.byte	0
 7878 0b8c 00       		.byte	0
ARM GAS  /var/folders/dt/0wfd0knj7gs46m8vwfzktm600000gn/T//cczoWvr4.s 			page 140


 7879 0b8d 0A       		.uleb128 0xa
 7880 0b8e 04       		.byte	0x4
 7881 0b8f 930B0000 		.4byte	0xb93
 7882 0b93 0A       		.uleb128 0xa
 7883 0b94 04       		.byte	0x4
 7884 0b95 990B0000 		.4byte	0xb99
 7885 0b99 15       		.uleb128 0x15
 7886 0b9a 8D000000 		.4byte	0x8d
 7887 0b9e 0A       		.uleb128 0xa
 7888 0b9f 04       		.byte	0x4
 7889 0ba0 70020000 		.4byte	0x270
 7890 0ba4 2F       		.uleb128 0x2f
 7891 0ba5 48050000 		.4byte	0x548
 7892 0ba9 00000000 		.4byte	.LFB6
 7893 0bad 16000000 		.4byte	.LFE6
 7894 0bb1 02       		.byte	0x2
 7895 0bb2 7D       		.byte	0x7d
 7896 0bb3 00       		.sleb128 0
 7897 0bb4 01       		.byte	0x1
 7898 0bb5 CC0B0000 		.4byte	0xbcc
 7899 0bb9 25       		.uleb128 0x25
 7900 0bba 5B050000 		.4byte	0x55b
 7901 0bbe 510A0000 		.4byte	.LLST42
 7902 0bc2 25       		.uleb128 0x25
 7903 0bc3 66050000 		.4byte	0x566
 7904 0bc7 720A0000 		.4byte	.LLST43
 7905 0bcb 00       		.byte	0
 7906 0bcc 29       		.uleb128 0x29
 7907 0bcd FD040000 		.4byte	0x4fd
 7908 0bd1 00000000 		.4byte	.LFB7
 7909 0bd5 CC000000 		.4byte	.LFE7
 7910 0bd9 900A0000 		.4byte	.LLST44
 7911 0bdd 01       		.byte	0x1
 7912 0bde 940C0000 		.4byte	0xc94
 7913 0be2 25       		.uleb128 0x25
 7914 0be3 10050000 		.4byte	0x510
 7915 0be7 B00A0000 		.4byte	.LLST45
 7916 0beb 25       		.uleb128 0x25
 7917 0bec 1B050000 		.4byte	0x51b
 7918 0bf0 420B0000 		.4byte	.LLST46
 7919 0bf4 30       		.uleb128 0x30
 7920 0bf5 27050000 		.4byte	0x527
 7921 0bf9 30       		.uleb128 0x30
 7922 0bfa 32050000 		.4byte	0x532
 7923 0bfe 30       		.uleb128 0x30
 7924 0bff 3D050000 		.4byte	0x53d
 7925 0c03 31       		.uleb128 0x31
 7926 0c04 FD040000 		.4byte	0x4fd
 7927 0c08 10000000 		.4byte	.LBB75
 7928 0c0c 00000000 		.4byte	.Ldebug_ranges0+0
 7929 0c10 01       		.byte	0x1
 7930 0c11 2D03     		.2byte	0x32d
 7931 0c13 25       		.uleb128 0x25
 7932 0c14 1B050000 		.4byte	0x51b
 7933 0c18 C90B0000 		.4byte	.LLST47
 7934 0c1c 25       		.uleb128 0x25
 7935 0c1d 10050000 		.4byte	0x510
ARM GAS  /var/folders/dt/0wfd0knj7gs46m8vwfzktm600000gn/T//cczoWvr4.s 			page 141


 7936 0c21 500C0000 		.4byte	.LLST48
 7937 0c25 32       		.uleb128 0x32
 7938 0c26 18000000 		.4byte	.Ldebug_ranges0+0x18
 7939 0c2a 28       		.uleb128 0x28
 7940 0c2b 27050000 		.4byte	0x527
 7941 0c2f CC0C0000 		.4byte	.LLST49
 7942 0c33 28       		.uleb128 0x28
 7943 0c34 32050000 		.4byte	0x532
 7944 0c38 280D0000 		.4byte	.LLST50
 7945 0c3c 28       		.uleb128 0x28
 7946 0c3d 3D050000 		.4byte	0x53d
 7947 0c41 910D0000 		.4byte	.LLST51
 7948 0c45 23       		.uleb128 0x23
 7949 0c46 36000000 		.4byte	.LVL142
 7950 0c4a B8070000 		.4byte	0x7b8
 7951 0c4e 590C0000 		.4byte	0xc59
 7952 0c52 22       		.uleb128 0x22
 7953 0c53 01       		.byte	0x1
 7954 0c54 50       		.byte	0x50
 7955 0c55 02       		.byte	0x2
 7956 0c56 75       		.byte	0x75
 7957 0c57 00       		.sleb128 0
 7958 0c58 00       		.byte	0
 7959 0c59 23       		.uleb128 0x23
 7960 0c5a 52000000 		.4byte	.LVL145
 7961 0c5e B8070000 		.4byte	0x7b8
 7962 0c62 6D0C0000 		.4byte	0xc6d
 7963 0c66 22       		.uleb128 0x22
 7964 0c67 01       		.byte	0x1
 7965 0c68 50       		.byte	0x50
 7966 0c69 02       		.byte	0x2
 7967 0c6a 75       		.byte	0x75
 7968 0c6b 00       		.sleb128 0
 7969 0c6c 00       		.byte	0
 7970 0c6d 23       		.uleb128 0x23
 7971 0c6e 76000000 		.4byte	.LVL152
 7972 0c72 B8070000 		.4byte	0x7b8
 7973 0c76 810C0000 		.4byte	0xc81
 7974 0c7a 22       		.uleb128 0x22
 7975 0c7b 01       		.byte	0x1
 7976 0c7c 50       		.byte	0x50
 7977 0c7d 02       		.byte	0x2
 7978 0c7e 75       		.byte	0x75
 7979 0c7f 00       		.sleb128 0
 7980 0c80 00       		.byte	0
 7981 0c81 21       		.uleb128 0x21
 7982 0c82 AC000000 		.4byte	.LVL158
 7983 0c86 B8070000 		.4byte	0x7b8
 7984 0c8a 22       		.uleb128 0x22
 7985 0c8b 01       		.byte	0x1
 7986 0c8c 50       		.byte	0x50
 7987 0c8d 02       		.byte	0x2
 7988 0c8e 75       		.byte	0x75
 7989 0c8f 00       		.sleb128 0
 7990 0c90 00       		.byte	0
 7991 0c91 00       		.byte	0
 7992 0c92 00       		.byte	0
ARM GAS  /var/folders/dt/0wfd0knj7gs46m8vwfzktm600000gn/T//cczoWvr4.s 			page 142


 7993 0c93 00       		.byte	0
 7994 0c94 1D       		.uleb128 0x1d
 7995 0c95 86050000 		.4byte	.LASF99
 7996 0c99 01       		.byte	0x1
 7997 0c9a 2304     		.2byte	0x423
 7998 0c9c 01       		.byte	0x1
 7999 0c9d ED030000 		.4byte	0x3ed
 8000 0ca1 00000000 		.4byte	.LFB11
 8001 0ca5 96000000 		.4byte	.LFE11
 8002 0ca9 E40D0000 		.4byte	.LLST52
 8003 0cad 01       		.byte	0x1
 8004 0cae 1D0D0000 		.4byte	0xd1d
 8005 0cb2 1A       		.uleb128 0x1a
 8006 0cb3 646A00   		.ascii	"dj\000"
 8007 0cb6 01       		.byte	0x1
 8008 0cb7 2404     		.2byte	0x424
 8009 0cb9 9D050000 		.4byte	0x59d
 8010 0cbd 040E0000 		.4byte	.LLST53
 8011 0cc1 1A       		.uleb128 0x1a
 8012 0cc2 69647800 		.ascii	"idx\000"
 8013 0cc6 01       		.byte	0x1
 8014 0cc7 2504     		.2byte	0x425
 8015 0cc9 69000000 		.4byte	0x69
 8016 0ccd 220E0000 		.4byte	.LLST54
 8017 0cd1 2E       		.uleb128 0x2e
 8018 0cd2 59020000 		.4byte	.LASF74
 8019 0cd6 01       		.byte	0x1
 8020 0cd7 2804     		.2byte	0x428
 8021 0cd9 82000000 		.4byte	0x82
 8022 0cdd 6C0E0000 		.4byte	.LLST55
 8023 0ce1 33       		.uleb128 0x33
 8024 0ce2 696300   		.ascii	"ic\000"
 8025 0ce5 01       		.byte	0x1
 8026 0ce6 2904     		.2byte	0x429
 8027 0ce8 69000000 		.4byte	0x69
 8028 0cec 01       		.byte	0x1
 8029 0ced 56       		.byte	0x56
 8030 0cee 34       		.uleb128 0x34
 8031 0cef 48050000 		.4byte	0x548
 8032 0cf3 78000000 		.4byte	.LBB79
 8033 0cf7 30000000 		.4byte	.Ldebug_ranges0+0x30
 8034 0cfb 01       		.byte	0x1
 8035 0cfc 4304     		.2byte	0x443
 8036 0cfe 130D0000 		.4byte	0xd13
 8037 0d02 25       		.uleb128 0x25
 8038 0d03 66050000 		.4byte	0x566
 8039 0d07 C30E0000 		.4byte	.LLST56
 8040 0d0b 2D       		.uleb128 0x2d
 8041 0d0c 5B050000 		.4byte	0x55b
 8042 0d10 01       		.byte	0x1
 8043 0d11 50       		.byte	0x50
 8044 0d12 00       		.byte	0
 8045 0d13 2C       		.uleb128 0x2c
 8046 0d14 6A000000 		.4byte	.LVL178
 8047 0d18 FD040000 		.4byte	0x4fd
 8048 0d1c 00       		.byte	0
 8049 0d1d 29       		.uleb128 0x29
ARM GAS  /var/folders/dt/0wfd0knj7gs46m8vwfzktm600000gn/T//cczoWvr4.s 			page 143


 8050 0d1e 73050000 		.4byte	0x573
 8051 0d22 00000000 		.4byte	.LFB16
 8052 0d26 28000000 		.4byte	.LFE16
 8053 0d2a E60E0000 		.4byte	.LLST57
 8054 0d2e 01       		.byte	0x1
 8055 0d2f 8C0D0000 		.4byte	0xd8c
 8056 0d33 25       		.uleb128 0x25
 8057 0d34 85050000 		.4byte	0x585
 8058 0d38 060F0000 		.4byte	.LLST58
 8059 0d3c 28       		.uleb128 0x28
 8060 0d3d 90050000 		.4byte	0x590
 8061 0d41 240F0000 		.4byte	.LLST59
 8062 0d45 24       		.uleb128 0x24
 8063 0d46 73050000 		.4byte	0x573
 8064 0d4a 0E000000 		.4byte	.LBB85
 8065 0d4e 26000000 		.4byte	.LBE85
 8066 0d52 01       		.byte	0x1
 8067 0d53 2306     		.2byte	0x623
 8068 0d55 7B0D0000 		.4byte	0xd7b
 8069 0d59 2D       		.uleb128 0x2d
 8070 0d5a 85050000 		.4byte	0x585
 8071 0d5e 01       		.byte	0x1
 8072 0d5f 54       		.byte	0x54
 8073 0d60 27       		.uleb128 0x27
 8074 0d61 0E000000 		.4byte	.LBB86
 8075 0d65 26000000 		.4byte	.LBE86
 8076 0d69 35       		.uleb128 0x35
 8077 0d6a 90050000 		.4byte	0x590
 8078 0d6e 01       		.byte	0x1
 8079 0d6f 50       		.byte	0x50
 8080 0d70 2C       		.uleb128 0x2c
 8081 0d71 16000000 		.4byte	.LVL190
 8082 0d75 B8070000 		.4byte	0x7b8
 8083 0d79 00       		.byte	0
 8084 0d7a 00       		.byte	0
 8085 0d7b 21       		.uleb128 0x21
 8086 0d7c 0A000000 		.4byte	.LVL186
 8087 0d80 940C0000 		.4byte	0xc94
 8088 0d84 22       		.uleb128 0x22
 8089 0d85 01       		.byte	0x1
 8090 0d86 50       		.byte	0x50
 8091 0d87 02       		.byte	0x2
 8092 0d88 74       		.byte	0x74
 8093 0d89 00       		.sleb128 0
 8094 0d8a 00       		.byte	0
 8095 0d8b 00       		.byte	0
 8096 0d8c 29       		.uleb128 0x29
 8097 0d8d A3050000 		.4byte	0x5a3
 8098 0d91 00000000 		.4byte	.LFB8
 8099 0d95 0C010000 		.4byte	.LFE8
 8100 0d99 420F0000 		.4byte	.LLST60
 8101 0d9d 01       		.byte	0x1
 8102 0d9e 6A0E0000 		.4byte	0xe6a
 8103 0da2 25       		.uleb128 0x25
 8104 0da3 B6050000 		.4byte	0x5b6
 8105 0da7 6E0F0000 		.4byte	.LLST61
 8106 0dab 25       		.uleb128 0x25
ARM GAS  /var/folders/dt/0wfd0knj7gs46m8vwfzktm600000gn/T//cczoWvr4.s 			page 144


 8107 0dac C1050000 		.4byte	0x5c1
 8108 0db0 E40F0000 		.4byte	.LLST62
 8109 0db4 25       		.uleb128 0x25
 8110 0db5 CD050000 		.4byte	0x5cd
 8111 0db9 8A100000 		.4byte	.LLST63
 8112 0dbd 30       		.uleb128 0x30
 8113 0dbe D9050000 		.4byte	0x5d9
 8114 0dc2 30       		.uleb128 0x30
 8115 0dc3 E4050000 		.4byte	0x5e4
 8116 0dc7 28       		.uleb128 0x28
 8117 0dc8 EE050000 		.4byte	0x5ee
 8118 0dcc 0F110000 		.4byte	.LLST64
 8119 0dd0 2A       		.uleb128 0x2a
 8120 0dd1 A3050000 		.4byte	0x5a3
 8121 0dd5 18000000 		.4byte	.LBB89
 8122 0dd9 0C010000 		.4byte	.LBE89
 8123 0ddd 01       		.byte	0x1
 8124 0dde 5803     		.2byte	0x358
 8125 0de0 25       		.uleb128 0x25
 8126 0de1 CD050000 		.4byte	0x5cd
 8127 0de5 22110000 		.4byte	.LLST65
 8128 0de9 25       		.uleb128 0x25
 8129 0dea C1050000 		.4byte	0x5c1
 8130 0dee 80110000 		.4byte	.LLST66
 8131 0df2 25       		.uleb128 0x25
 8132 0df3 B6050000 		.4byte	0x5b6
 8133 0df7 0D120000 		.4byte	.LLST67
 8134 0dfb 32       		.uleb128 0x32
 8135 0dfc 48000000 		.4byte	.Ldebug_ranges0+0x48
 8136 0e00 28       		.uleb128 0x28
 8137 0e01 D9050000 		.4byte	0x5d9
 8138 0e05 6D120000 		.4byte	.LLST68
 8139 0e09 28       		.uleb128 0x28
 8140 0e0a E4050000 		.4byte	0x5e4
 8141 0e0e AC120000 		.4byte	.LLST69
 8142 0e12 28       		.uleb128 0x28
 8143 0e13 EE050000 		.4byte	0x5ee
 8144 0e17 A5130000 		.4byte	.LLST70
 8145 0e1b 23       		.uleb128 0x23
 8146 0e1c 3A000000 		.4byte	.LVL198
 8147 0e20 B8070000 		.4byte	0x7b8
 8148 0e24 2F0E0000 		.4byte	0xe2f
 8149 0e28 22       		.uleb128 0x22
 8150 0e29 01       		.byte	0x1
 8151 0e2a 50       		.byte	0x50
 8152 0e2b 02       		.byte	0x2
 8153 0e2c 75       		.byte	0x75
 8154 0e2d 00       		.sleb128 0
 8155 0e2e 00       		.byte	0
 8156 0e2f 23       		.uleb128 0x23
 8157 0e30 76000000 		.4byte	.LVL204
 8158 0e34 B8070000 		.4byte	0x7b8
 8159 0e38 430E0000 		.4byte	0xe43
 8160 0e3c 22       		.uleb128 0x22
 8161 0e3d 01       		.byte	0x1
 8162 0e3e 50       		.byte	0x50
 8163 0e3f 02       		.byte	0x2
ARM GAS  /var/folders/dt/0wfd0knj7gs46m8vwfzktm600000gn/T//cczoWvr4.s 			page 145


 8164 0e40 75       		.byte	0x75
 8165 0e41 00       		.sleb128 0
 8166 0e42 00       		.byte	0
 8167 0e43 23       		.uleb128 0x23
 8168 0e44 A2000000 		.4byte	.LVL211
 8169 0e48 B8070000 		.4byte	0x7b8
 8170 0e4c 570E0000 		.4byte	0xe57
 8171 0e50 22       		.uleb128 0x22
 8172 0e51 01       		.byte	0x1
 8173 0e52 50       		.byte	0x50
 8174 0e53 02       		.byte	0x2
 8175 0e54 75       		.byte	0x75
 8176 0e55 00       		.sleb128 0
 8177 0e56 00       		.byte	0
 8178 0e57 21       		.uleb128 0x21
 8179 0e58 E2000000 		.4byte	.LVL217
 8180 0e5c B8070000 		.4byte	0x7b8
 8181 0e60 22       		.uleb128 0x22
 8182 0e61 01       		.byte	0x1
 8183 0e62 50       		.byte	0x50
 8184 0e63 02       		.byte	0x2
 8185 0e64 75       		.byte	0x75
 8186 0e65 00       		.sleb128 0
 8187 0e66 00       		.byte	0
 8188 0e67 00       		.byte	0
 8189 0e68 00       		.byte	0
 8190 0e69 00       		.byte	0
 8191 0e6a 1D       		.uleb128 0x1d
 8192 0e6b BE030000 		.4byte	.LASF100
 8193 0e6f 01       		.byte	0x1
 8194 0e70 CC03     		.2byte	0x3cc
 8195 0e72 01       		.byte	0x1
 8196 0e73 82000000 		.4byte	0x82
 8197 0e77 00000000 		.4byte	.LFB10
 8198 0e7b AE000000 		.4byte	.LFE10
 8199 0e7f E4130000 		.4byte	.LLST71
 8200 0e83 01       		.byte	0x1
 8201 0e84 490F0000 		.4byte	0xf49
 8202 0e88 1A       		.uleb128 0x1a
 8203 0e89 667300   		.ascii	"fs\000"
 8204 0e8c 01       		.byte	0x1
 8205 0e8d CD03     		.2byte	0x3cd
 8206 0e8f 70020000 		.4byte	0x270
 8207 0e93 04140000 		.4byte	.LLST72
 8208 0e97 1E       		.uleb128 0x1e
 8209 0e98 59020000 		.4byte	.LASF74
 8210 0e9c 01       		.byte	0x1
 8211 0e9d CE03     		.2byte	0x3ce
 8212 0e9f 82000000 		.4byte	0x82
 8213 0ea3 4E140000 		.4byte	.LLST73
 8214 0ea7 1C       		.uleb128 0x1c
 8215 0ea8 637300   		.ascii	"cs\000"
 8216 0eab 01       		.byte	0x1
 8217 0eac D103     		.2byte	0x3d1
 8218 0eae 82000000 		.4byte	0x82
 8219 0eb2 98140000 		.4byte	.LLST74
 8220 0eb6 1C       		.uleb128 0x1c
ARM GAS  /var/folders/dt/0wfd0knj7gs46m8vwfzktm600000gn/T//cczoWvr4.s 			page 146


 8221 0eb7 6E636C00 		.ascii	"ncl\000"
 8222 0ebb 01       		.byte	0x1
 8223 0ebc D103     		.2byte	0x3d1
 8224 0ebe 82000000 		.4byte	0x82
 8225 0ec2 CC140000 		.4byte	.LLST75
 8226 0ec6 1C       		.uleb128 0x1c
 8227 0ec7 73636C00 		.ascii	"scl\000"
 8228 0ecb 01       		.byte	0x1
 8229 0ecc D103     		.2byte	0x3d1
 8230 0ece 82000000 		.4byte	0x82
 8231 0ed2 22150000 		.4byte	.LLST76
 8232 0ed6 1C       		.uleb128 0x1c
 8233 0ed7 72657300 		.ascii	"res\000"
 8234 0edb 01       		.byte	0x1
 8235 0edc D203     		.2byte	0x3d2
 8236 0ede ED030000 		.4byte	0x3ed
 8237 0ee2 62150000 		.4byte	.LLST77
 8238 0ee6 23       		.uleb128 0x23
 8239 0ee7 2A000000 		.4byte	.LVL230
 8240 0eeb FD040000 		.4byte	0x4fd
 8241 0eef 000F0000 		.4byte	0xf00
 8242 0ef3 22       		.uleb128 0x22
 8243 0ef4 01       		.byte	0x1
 8244 0ef5 51       		.byte	0x51
 8245 0ef6 02       		.byte	0x2
 8246 0ef7 74       		.byte	0x74
 8247 0ef8 00       		.sleb128 0
 8248 0ef9 22       		.uleb128 0x22
 8249 0efa 01       		.byte	0x1
 8250 0efb 50       		.byte	0x50
 8251 0efc 02       		.byte	0x2
 8252 0efd 76       		.byte	0x76
 8253 0efe 00       		.sleb128 0
 8254 0eff 00       		.byte	0
 8255 0f00 2C       		.uleb128 0x2c
 8256 0f01 4E000000 		.4byte	.LVL237
 8257 0f05 FD040000 		.4byte	0x4fd
 8258 0f09 23       		.uleb128 0x23
 8259 0f0a 68000000 		.4byte	.LVL240
 8260 0f0e A3050000 		.4byte	0x5a3
 8261 0f12 2C0F0000 		.4byte	0xf2c
 8262 0f16 22       		.uleb128 0x22
 8263 0f17 01       		.byte	0x1
 8264 0f18 52       		.byte	0x52
 8265 0f19 05       		.byte	0x5
 8266 0f1a 0C       		.byte	0xc
 8267 0f1b FFFFFF0F 		.4byte	0xfffffff
 8268 0f1f 22       		.uleb128 0x22
 8269 0f20 01       		.byte	0x1
 8270 0f21 51       		.byte	0x51
 8271 0f22 02       		.byte	0x2
 8272 0f23 74       		.byte	0x74
 8273 0f24 00       		.sleb128 0
 8274 0f25 22       		.uleb128 0x22
 8275 0f26 01       		.byte	0x1
 8276 0f27 50       		.byte	0x50
 8277 0f28 02       		.byte	0x2
ARM GAS  /var/folders/dt/0wfd0knj7gs46m8vwfzktm600000gn/T//cczoWvr4.s 			page 147


 8278 0f29 76       		.byte	0x76
 8279 0f2a 00       		.sleb128 0
 8280 0f2b 00       		.byte	0
 8281 0f2c 21       		.uleb128 0x21
 8282 0f2d A8000000 		.4byte	.LVL247
 8283 0f31 A3050000 		.4byte	0x5a3
 8284 0f35 22       		.uleb128 0x22
 8285 0f36 01       		.byte	0x1
 8286 0f37 52       		.byte	0x52
 8287 0f38 02       		.byte	0x2
 8288 0f39 74       		.byte	0x74
 8289 0f3a 00       		.sleb128 0
 8290 0f3b 22       		.uleb128 0x22
 8291 0f3c 01       		.byte	0x1
 8292 0f3d 51       		.byte	0x51
 8293 0f3e 02       		.byte	0x2
 8294 0f3f 77       		.byte	0x77
 8295 0f40 00       		.sleb128 0
 8296 0f41 22       		.uleb128 0x22
 8297 0f42 01       		.byte	0x1
 8298 0f43 50       		.byte	0x50
 8299 0f44 02       		.byte	0x2
 8300 0f45 76       		.byte	0x76
 8301 0f46 00       		.sleb128 0
 8302 0f47 00       		.byte	0
 8303 0f48 00       		.byte	0
 8304 0f49 1D       		.uleb128 0x1d
 8305 0f4a 9B020000 		.4byte	.LASF101
 8306 0f4e 01       		.byte	0x1
 8307 0f4f 5304     		.2byte	0x453
 8308 0f51 01       		.byte	0x1
 8309 0f52 ED030000 		.4byte	0x3ed
 8310 0f56 00000000 		.4byte	.LFB12
 8311 0f5a 26010000 		.4byte	.LFE12
 8312 0f5e 8B150000 		.4byte	.LLST78
 8313 0f62 01       		.byte	0x1
 8314 0f63 76100000 		.4byte	0x1076
 8315 0f67 1A       		.uleb128 0x1a
 8316 0f68 646A00   		.ascii	"dj\000"
 8317 0f6b 01       		.byte	0x1
 8318 0f6c 5404     		.2byte	0x454
 8319 0f6e 9D050000 		.4byte	0x59d
 8320 0f72 AB150000 		.4byte	.LLST79
 8321 0f76 1E       		.uleb128 0x1e
 8322 0f77 DC010000 		.4byte	.LASF102
 8323 0f7b 01       		.byte	0x1
 8324 0f7c 5504     		.2byte	0x455
 8325 0f7e 29000000 		.4byte	0x29
 8326 0f82 F5150000 		.4byte	.LLST80
 8327 0f86 2E       		.uleb128 0x2e
 8328 0f87 59020000 		.4byte	.LASF74
 8329 0f8b 01       		.byte	0x1
 8330 0f8c 5804     		.2byte	0x458
 8331 0f8e 82000000 		.4byte	0x82
 8332 0f92 6C160000 		.4byte	.LLST81
 8333 0f96 33       		.uleb128 0x33
 8334 0f97 6900     		.ascii	"i\000"
ARM GAS  /var/folders/dt/0wfd0knj7gs46m8vwfzktm600000gn/T//cczoWvr4.s 			page 148


 8335 0f99 01       		.byte	0x1
 8336 0f9a 5904     		.2byte	0x459
 8337 0f9c 69000000 		.4byte	0x69
 8338 0fa0 01       		.byte	0x1
 8339 0fa1 55       		.byte	0x55
 8340 0fa2 34       		.uleb128 0x34
 8341 0fa3 48050000 		.4byte	0x548
 8342 0fa7 10000000 		.4byte	.LBB93
 8343 0fab 68000000 		.4byte	.Ldebug_ranges0+0x68
 8344 0faf 01       		.byte	0x1
 8345 0fb0 8304     		.2byte	0x483
 8346 0fb2 C90F0000 		.4byte	0xfc9
 8347 0fb6 25       		.uleb128 0x25
 8348 0fb7 66050000 		.4byte	0x566
 8349 0fbb CC160000 		.4byte	.LLST82
 8350 0fbf 25       		.uleb128 0x25
 8351 0fc0 5B050000 		.4byte	0x55b
 8352 0fc4 DF160000 		.4byte	.LLST83
 8353 0fc8 00       		.byte	0
 8354 0fc9 36       		.uleb128 0x36
 8355 0fca 88000000 		.4byte	.Ldebug_ranges0+0x88
 8356 0fce 6C100000 		.4byte	0x106c
 8357 0fd2 1C       		.uleb128 0x1c
 8358 0fd3 6300     		.ascii	"c\000"
 8359 0fd5 01       		.byte	0x1
 8360 0fd6 6E04     		.2byte	0x46e
 8361 0fd8 50000000 		.4byte	0x50
 8362 0fdc F2160000 		.4byte	.LLST84
 8363 0fe0 34       		.uleb128 0x34
 8364 0fe1 35040000 		.4byte	0x435
 8365 0fe5 A0000000 		.4byte	.LBB98
 8366 0fe9 A0000000 		.4byte	.Ldebug_ranges0+0xa0
 8367 0fed 01       		.byte	0x1
 8368 0fee 7604     		.2byte	0x476
 8369 0ff0 1F100000 		.4byte	0x101f
 8370 0ff4 25       		.uleb128 0x25
 8371 0ff5 5B040000 		.4byte	0x45b
 8372 0ff9 29170000 		.4byte	.LLST85
 8373 0ffd 25       		.uleb128 0x25
 8374 0ffe 4F040000 		.4byte	0x44f
 8375 1002 3F170000 		.4byte	.LLST86
 8376 1006 25       		.uleb128 0x25
 8377 1007 43040000 		.4byte	0x443
 8378 100b 53170000 		.4byte	.LLST87
 8379 100f 32       		.uleb128 0x32
 8380 1010 B8000000 		.4byte	.Ldebug_ranges0+0xb8
 8381 1014 28       		.uleb128 0x28
 8382 1015 67040000 		.4byte	0x467
 8383 1019 76170000 		.4byte	.LLST88
 8384 101d 00       		.byte	0
 8385 101e 00       		.byte	0
 8386 101f 34       		.uleb128 0x34
 8387 1020 48050000 		.4byte	0x548
 8388 1024 B4000000 		.4byte	.LBB102
 8389 1028 D0000000 		.4byte	.Ldebug_ranges0+0xd0
 8390 102c 01       		.byte	0x1
 8391 102d 7704     		.2byte	0x477
ARM GAS  /var/folders/dt/0wfd0knj7gs46m8vwfzktm600000gn/T//cczoWvr4.s 			page 149


 8392 102f 46100000 		.4byte	0x1046
 8393 1033 25       		.uleb128 0x25
 8394 1034 66050000 		.4byte	0x566
 8395 1038 89170000 		.4byte	.LLST89
 8396 103c 25       		.uleb128 0x25
 8397 103d 5B050000 		.4byte	0x55b
 8398 1041 A7170000 		.4byte	.LLST90
 8399 1045 00       		.byte	0
 8400 1046 2C       		.uleb128 0x2c
 8401 1047 70000000 		.4byte	.LVL260
 8402 104b 6A0E0000 		.4byte	0xe6a
 8403 104f 23       		.uleb128 0x23
 8404 1050 9A000000 		.4byte	.LVL267
 8405 1054 B8070000 		.4byte	0x7b8
 8406 1058 62100000 		.4byte	0x1062
 8407 105c 22       		.uleb128 0x22
 8408 105d 01       		.byte	0x1
 8409 105e 51       		.byte	0x51
 8410 105f 01       		.byte	0x1
 8411 1060 30       		.byte	0x30
 8412 1061 00       		.byte	0
 8413 1062 2C       		.uleb128 0x2c
 8414 1063 E2000000 		.4byte	.LVL276
 8415 1067 B8070000 		.4byte	0x7b8
 8416 106b 00       		.byte	0
 8417 106c 2C       		.uleb128 0x2c
 8418 106d 4C000000 		.4byte	.LVL256
 8419 1071 FD040000 		.4byte	0x4fd
 8420 1075 00       		.byte	0
 8421 1076 14       		.uleb128 0x14
 8422 1077 80040000 		.4byte	.LASF103
 8423 107b 01       		.byte	0x1
 8424 107c 5006     		.2byte	0x650
 8425 107e 01       		.byte	0x1
 8426 107f ED030000 		.4byte	0x3ed
 8427 1083 01       		.byte	0x1
 8428 1084 F4100000 		.4byte	0x10f4
 8429 1088 11       		.uleb128 0x11
 8430 1089 646A00   		.ascii	"dj\000"
 8431 108c 01       		.byte	0x1
 8432 108d 5106     		.2byte	0x651
 8433 108f 9D050000 		.4byte	0x59d
 8434 1093 16       		.uleb128 0x16
 8435 1094 6E000000 		.4byte	.LASF89
 8436 1098 01       		.byte	0x1
 8437 1099 5206     		.2byte	0x652
 8438 109b 8D0B0000 		.4byte	0xb8d
 8439 109f 12       		.uleb128 0x12
 8440 10a0 6200     		.ascii	"b\000"
 8441 10a2 01       		.byte	0x1
 8442 10a3 D306     		.2byte	0x6d3
 8443 10a5 50000000 		.4byte	0x50
 8444 10a9 12       		.uleb128 0x12
 8445 10aa 6300     		.ascii	"c\000"
 8446 10ac 01       		.byte	0x1
 8447 10ad D306     		.2byte	0x6d3
 8448 10af 50000000 		.4byte	0x50
ARM GAS  /var/folders/dt/0wfd0knj7gs46m8vwfzktm600000gn/T//cczoWvr4.s 			page 150


 8449 10b3 12       		.uleb128 0x12
 8450 10b4 6400     		.ascii	"d\000"
 8451 10b6 01       		.byte	0x1
 8452 10b7 D306     		.2byte	0x6d3
 8453 10b9 50000000 		.4byte	0x50
 8454 10bd 12       		.uleb128 0x12
 8455 10be 73666E00 		.ascii	"sfn\000"
 8456 10c2 01       		.byte	0x1
 8457 10c3 D306     		.2byte	0x6d3
 8458 10c5 76020000 		.4byte	0x276
 8459 10c9 12       		.uleb128 0x12
 8460 10ca 6E6900   		.ascii	"ni\000"
 8461 10cd 01       		.byte	0x1
 8462 10ce D406     		.2byte	0x6d4
 8463 10d0 30000000 		.4byte	0x30
 8464 10d4 12       		.uleb128 0x12
 8465 10d5 736900   		.ascii	"si\000"
 8466 10d8 01       		.byte	0x1
 8467 10d9 D406     		.2byte	0x6d4
 8468 10db 30000000 		.4byte	0x30
 8469 10df 12       		.uleb128 0x12
 8470 10e0 6900     		.ascii	"i\000"
 8471 10e2 01       		.byte	0x1
 8472 10e3 D406     		.2byte	0x6d4
 8473 10e5 30000000 		.4byte	0x30
 8474 10e9 12       		.uleb128 0x12
 8475 10ea 7000     		.ascii	"p\000"
 8476 10ec 01       		.byte	0x1
 8477 10ed D506     		.2byte	0x6d5
 8478 10ef 9F040000 		.4byte	0x49f
 8479 10f3 00       		.byte	0
 8480 10f4 14       		.uleb128 0x14
 8481 10f5 A9010000 		.4byte	.LASF104
 8482 10f9 01       		.byte	0x1
 8483 10fa 4205     		.2byte	0x542
 8484 10fc 01       		.byte	0x1
 8485 10fd ED030000 		.4byte	0x3ed
 8486 1101 01       		.byte	0x1
 8487 1102 34110000 		.4byte	0x1134
 8488 1106 11       		.uleb128 0x11
 8489 1107 646A00   		.ascii	"dj\000"
 8490 110a 01       		.byte	0x1
 8491 110b 4305     		.2byte	0x543
 8492 110d 9D050000 		.4byte	0x59d
 8493 1111 12       		.uleb128 0x12
 8494 1112 72657300 		.ascii	"res\000"
 8495 1116 01       		.byte	0x1
 8496 1117 4605     		.2byte	0x546
 8497 1119 ED030000 		.4byte	0x3ed
 8498 111d 12       		.uleb128 0x12
 8499 111e 6300     		.ascii	"c\000"
 8500 1120 01       		.byte	0x1
 8501 1121 4705     		.2byte	0x547
 8502 1123 50000000 		.4byte	0x50
 8503 1127 12       		.uleb128 0x12
 8504 1128 64697200 		.ascii	"dir\000"
 8505 112c 01       		.byte	0x1
ARM GAS  /var/folders/dt/0wfd0knj7gs46m8vwfzktm600000gn/T//cczoWvr4.s 			page 151


 8506 112d 4705     		.2byte	0x547
 8507 112f 76020000 		.4byte	0x276
 8508 1133 00       		.byte	0
 8509 1134 1D       		.uleb128 0x1d
 8510 1135 05040000 		.4byte	.LASF105
 8511 1139 01       		.byte	0x1
 8512 113a 7807     		.2byte	0x778
 8513 113c 01       		.byte	0x1
 8514 113d ED030000 		.4byte	0x3ed
 8515 1141 00000000 		.4byte	.LFB19
 8516 1145 4C020000 		.4byte	.LFE19
 8517 1149 BA170000 		.4byte	.LLST91
 8518 114d 01       		.byte	0x1
 8519 114e 4B130000 		.4byte	0x134b
 8520 1152 1A       		.uleb128 0x1a
 8521 1153 646A00   		.ascii	"dj\000"
 8522 1156 01       		.byte	0x1
 8523 1157 7907     		.2byte	0x779
 8524 1159 9D050000 		.4byte	0x59d
 8525 115d DA170000 		.4byte	.LLST92
 8526 1161 1E       		.uleb128 0x1e
 8527 1162 6E000000 		.4byte	.LASF89
 8528 1166 01       		.byte	0x1
 8529 1167 7A07     		.2byte	0x77a
 8530 1169 930B0000 		.4byte	0xb93
 8531 116d 0E180000 		.4byte	.LLST93
 8532 1171 1C       		.uleb128 0x1c
 8533 1172 72657300 		.ascii	"res\000"
 8534 1176 01       		.byte	0x1
 8535 1177 7D07     		.2byte	0x77d
 8536 1179 ED030000 		.4byte	0x3ed
 8537 117d 42180000 		.4byte	.LLST94
 8538 1181 1C       		.uleb128 0x1c
 8539 1182 64697200 		.ascii	"dir\000"
 8540 1186 01       		.byte	0x1
 8541 1187 7E07     		.2byte	0x77e
 8542 1189 76020000 		.4byte	0x276
 8543 118d 55180000 		.4byte	.LLST95
 8544 1191 1C       		.uleb128 0x1c
 8545 1192 6E7300   		.ascii	"ns\000"
 8546 1195 01       		.byte	0x1
 8547 1196 7E07     		.2byte	0x77e
 8548 1198 50000000 		.4byte	0x50
 8549 119c 73180000 		.4byte	.LLST96
 8550 11a0 34       		.uleb128 0x34
 8551 11a1 76100000 		.4byte	0x1076
 8552 11a5 24000000 		.4byte	.LBB121
 8553 11a9 F0000000 		.4byte	.Ldebug_ranges0+0xf0
 8554 11ad 01       		.byte	0x1
 8555 11ae 9307     		.2byte	0x793
 8556 11b0 73120000 		.4byte	0x1273
 8557 11b4 25       		.uleb128 0x25
 8558 11b5 93100000 		.4byte	0x1093
 8559 11b9 AE180000 		.4byte	.LLST97
 8560 11bd 2B       		.uleb128 0x2b
 8561 11be 88100000 		.4byte	0x1088
 8562 11c2 32       		.uleb128 0x32
ARM GAS  /var/folders/dt/0wfd0knj7gs46m8vwfzktm600000gn/T//cczoWvr4.s 			page 152


 8563 11c3 20010000 		.4byte	.Ldebug_ranges0+0x120
 8564 11c7 28       		.uleb128 0x28
 8565 11c8 9F100000 		.4byte	0x109f
 8566 11cc D6180000 		.4byte	.LLST98
 8567 11d0 28       		.uleb128 0x28
 8568 11d1 A9100000 		.4byte	0x10a9
 8569 11d5 20190000 		.4byte	.LLST99
 8570 11d9 28       		.uleb128 0x28
 8571 11da B3100000 		.4byte	0x10b3
 8572 11de 67190000 		.4byte	.LLST100
 8573 11e2 28       		.uleb128 0x28
 8574 11e3 BD100000 		.4byte	0x10bd
 8575 11e7 89190000 		.4byte	.LLST101
 8576 11eb 28       		.uleb128 0x28
 8577 11ec C9100000 		.4byte	0x10c9
 8578 11f0 B2190000 		.4byte	.LLST102
 8579 11f4 28       		.uleb128 0x28
 8580 11f5 D4100000 		.4byte	0x10d4
 8581 11f9 F2190000 		.4byte	.LLST103
 8582 11fd 28       		.uleb128 0x28
 8583 11fe DF100000 		.4byte	0x10df
 8584 1202 471A0000 		.4byte	.LLST104
 8585 1206 28       		.uleb128 0x28
 8586 1207 E9100000 		.4byte	0x10e9
 8587 120b AA1A0000 		.4byte	.LLST105
 8588 120f 34       		.uleb128 0x34
 8589 1210 35040000 		.4byte	0x435
 8590 1214 24000000 		.4byte	.LBB123
 8591 1218 50010000 		.4byte	.Ldebug_ranges0+0x150
 8592 121c 01       		.byte	0x1
 8593 121d DA06     		.2byte	0x6da
 8594 121f 4E120000 		.4byte	0x124e
 8595 1223 25       		.uleb128 0x25
 8596 1224 5B040000 		.4byte	0x45b
 8597 1228 E91A0000 		.4byte	.LLST106
 8598 122c 25       		.uleb128 0x25
 8599 122d 43040000 		.4byte	0x443
 8600 1231 89190000 		.4byte	.LLST101
 8601 1235 25       		.uleb128 0x25
 8602 1236 4F040000 		.4byte	0x44f
 8603 123a FD1A0000 		.4byte	.LLST108
 8604 123e 32       		.uleb128 0x32
 8605 123f 68010000 		.4byte	.Ldebug_ranges0+0x168
 8606 1243 28       		.uleb128 0x28
 8607 1244 67040000 		.4byte	0x467
 8608 1248 1F1B0000 		.4byte	.LLST109
 8609 124c 00       		.byte	0
 8610 124d 00       		.byte	0
 8611 124e 2A       		.uleb128 0x2a
 8612 124f 74040000 		.4byte	0x474
 8613 1253 86010000 		.4byte	.LBB127
 8614 1257 9E010000 		.4byte	.LBE127
 8615 125b 01       		.byte	0x1
 8616 125c 0207     		.2byte	0x702
 8617 125e 25       		.uleb128 0x25
 8618 125f 92040000 		.4byte	0x492
 8619 1263 3D1B0000 		.4byte	.LLST110
ARM GAS  /var/folders/dt/0wfd0knj7gs46m8vwfzktm600000gn/T//cczoWvr4.s 			page 153


 8620 1267 25       		.uleb128 0x25
 8621 1268 86040000 		.4byte	0x486
 8622 126c 5D1B0000 		.4byte	.LLST111
 8623 1270 00       		.byte	0
 8624 1271 00       		.byte	0
 8625 1272 00       		.byte	0
 8626 1273 34       		.uleb128 0x34
 8627 1274 F4100000 		.4byte	0x10f4
 8628 1278 1E010000 		.4byte	.LBB134
 8629 127c 80010000 		.4byte	.Ldebug_ranges0+0x180
 8630 1280 01       		.byte	0x1
 8631 1281 9507     		.2byte	0x795
 8632 1283 3A130000 		.4byte	0x133a
 8633 1287 25       		.uleb128 0x25
 8634 1288 06110000 		.4byte	0x1106
 8635 128c 751B0000 		.4byte	.LLST112
 8636 1290 32       		.uleb128 0x32
 8637 1291 98010000 		.4byte	.Ldebug_ranges0+0x198
 8638 1295 28       		.uleb128 0x28
 8639 1296 11110000 		.4byte	0x1111
 8640 129a A91B0000 		.4byte	.LLST113
 8641 129e 28       		.uleb128 0x28
 8642 129f 1D110000 		.4byte	0x111d
 8643 12a3 FE1B0000 		.4byte	.LLST114
 8644 12a7 28       		.uleb128 0x28
 8645 12a8 27110000 		.4byte	0x1127
 8646 12ac 421C0000 		.4byte	.LLST115
 8647 12b0 34       		.uleb128 0x34
 8648 12b1 FB050000 		.4byte	0x5fb
 8649 12b5 52010000 		.4byte	.LBB136
 8650 12b9 B0010000 		.4byte	.Ldebug_ranges0+0x1b0
 8651 12bd 01       		.byte	0x1
 8652 12be 6E05     		.2byte	0x56e
 8653 12c0 01130000 		.4byte	0x1301
 8654 12c4 25       		.uleb128 0x25
 8655 12c5 25060000 		.4byte	0x625
 8656 12c9 811C0000 		.4byte	.LLST116
 8657 12cd 25       		.uleb128 0x25
 8658 12ce 19060000 		.4byte	0x619
 8659 12d2 951C0000 		.4byte	.LLST117
 8660 12d6 25       		.uleb128 0x25
 8661 12d7 0D060000 		.4byte	0x60d
 8662 12db C91C0000 		.4byte	.LLST118
 8663 12df 32       		.uleb128 0x32
 8664 12e0 C8010000 		.4byte	.Ldebug_ranges0+0x1c8
 8665 12e4 28       		.uleb128 0x28
 8666 12e5 31060000 		.4byte	0x631
 8667 12e9 FD1C0000 		.4byte	.LLST119
 8668 12ed 28       		.uleb128 0x28
 8669 12ee 3B060000 		.4byte	0x63b
 8670 12f2 101D0000 		.4byte	.LLST120
 8671 12f6 28       		.uleb128 0x28
 8672 12f7 45060000 		.4byte	0x645
 8673 12fb 391D0000 		.4byte	.LLST121
 8674 12ff 00       		.byte	0
 8675 1300 00       		.byte	0
 8676 1301 23       		.uleb128 0x23
ARM GAS  /var/folders/dt/0wfd0knj7gs46m8vwfzktm600000gn/T//cczoWvr4.s 			page 154


 8677 1302 26010000 		.4byte	.LVL316
 8678 1306 940C0000 		.4byte	0xc94
 8679 130a 1A130000 		.4byte	0x131a
 8680 130e 22       		.uleb128 0x22
 8681 130f 01       		.byte	0x1
 8682 1310 51       		.byte	0x51
 8683 1311 01       		.byte	0x1
 8684 1312 30       		.byte	0x30
 8685 1313 22       		.uleb128 0x22
 8686 1314 01       		.byte	0x1
 8687 1315 50       		.byte	0x50
 8688 1316 02       		.byte	0x2
 8689 1317 76       		.byte	0x76
 8690 1318 00       		.sleb128 0
 8691 1319 00       		.byte	0
 8692 131a 2C       		.uleb128 0x2c
 8693 131b 30010000 		.4byte	.LVL319
 8694 131f B8070000 		.4byte	0x7b8
 8695 1323 21       		.uleb128 0x21
 8696 1324 76010000 		.4byte	.LVL329
 8697 1328 490F0000 		.4byte	0xf49
 8698 132c 22       		.uleb128 0x22
 8699 132d 01       		.byte	0x1
 8700 132e 51       		.byte	0x51
 8701 132f 01       		.byte	0x1
 8702 1330 30       		.byte	0x30
 8703 1331 22       		.uleb128 0x22
 8704 1332 01       		.byte	0x1
 8705 1333 50       		.byte	0x50
 8706 1334 02       		.byte	0x2
 8707 1335 76       		.byte	0x76
 8708 1336 00       		.sleb128 0
 8709 1337 00       		.byte	0
 8710 1338 00       		.byte	0
 8711 1339 00       		.byte	0
 8712 133a 21       		.uleb128 0x21
 8713 133b 30020000 		.4byte	.LVL351
 8714 133f 940C0000 		.4byte	0xc94
 8715 1343 22       		.uleb128 0x22
 8716 1344 01       		.byte	0x1
 8717 1345 51       		.byte	0x51
 8718 1346 02       		.byte	0x2
 8719 1347 74       		.byte	0x74
 8720 1348 00       		.sleb128 0
 8721 1349 00       		.byte	0
 8722 134a 00       		.byte	0
 8723 134b 29       		.uleb128 0x29
 8724 134c A9060000 		.4byte	0x6a9
 8725 1350 00000000 		.4byte	.LFB15
 8726 1354 78000000 		.4byte	.LFE15
 8727 1358 A91D0000 		.4byte	.LLST122
 8728 135c 01       		.byte	0x1
 8729 135d 78140000 		.4byte	0x1478
 8730 1361 25       		.uleb128 0x25
 8731 1362 BB060000 		.4byte	0x6bb
 8732 1366 C91D0000 		.4byte	.LLST123
 8733 136a 28       		.uleb128 0x28
ARM GAS  /var/folders/dt/0wfd0knj7gs46m8vwfzktm600000gn/T//cczoWvr4.s 			page 155


 8734 136b C6060000 		.4byte	0x6c6
 8735 136f 131E0000 		.4byte	.LLST124
 8736 1373 28       		.uleb128 0x28
 8737 1374 D2060000 		.4byte	0x6d2
 8738 1378 481E0000 		.4byte	.LLST125
 8739 137c 30       		.uleb128 0x30
 8740 137d DC060000 		.4byte	0x6dc
 8741 1381 34       		.uleb128 0x34
 8742 1382 A9060000 		.4byte	0x6a9
 8743 1386 3A000000 		.4byte	.LBB151
 8744 138a E0010000 		.4byte	.Ldebug_ranges0+0x1e0
 8745 138e 01       		.byte	0x1
 8746 138f B805     		.2byte	0x5b8
 8747 1391 4C140000 		.4byte	0x144c
 8748 1395 25       		.uleb128 0x25
 8749 1396 BB060000 		.4byte	0x6bb
 8750 139a 771E0000 		.4byte	.LLST126
 8751 139e 32       		.uleb128 0x32
 8752 139f F8010000 		.4byte	.Ldebug_ranges0+0x1f8
 8753 13a3 28       		.uleb128 0x28
 8754 13a4 C6060000 		.4byte	0x6c6
 8755 13a8 951E0000 		.4byte	.LLST127
 8756 13ac 30       		.uleb128 0x30
 8757 13ad D2060000 		.4byte	0x6d2
 8758 13b1 28       		.uleb128 0x28
 8759 13b2 DC060000 		.4byte	0x6dc
 8760 13b6 A81E0000 		.4byte	.LLST128
 8761 13ba 34       		.uleb128 0x34
 8762 13bb 35040000 		.4byte	0x435
 8763 13bf 4A000000 		.4byte	.LBB153
 8764 13c3 10020000 		.4byte	.Ldebug_ranges0+0x210
 8765 13c7 01       		.byte	0x1
 8766 13c8 0E06     		.2byte	0x60e
 8767 13ca F6130000 		.4byte	0x13f6
 8768 13ce 25       		.uleb128 0x25
 8769 13cf 5B040000 		.4byte	0x45b
 8770 13d3 C71E0000 		.4byte	.LLST129
 8771 13d7 26       		.uleb128 0x26
 8772 13d8 4F040000 		.4byte	0x44f
 8773 13dc 00       		.byte	0
 8774 13dd 25       		.uleb128 0x25
 8775 13de 43040000 		.4byte	0x443
 8776 13e2 A81E0000 		.4byte	.LLST128
 8777 13e6 32       		.uleb128 0x32
 8778 13e7 28020000 		.4byte	.Ldebug_ranges0+0x228
 8779 13eb 28       		.uleb128 0x28
 8780 13ec 67040000 		.4byte	0x467
 8781 13f0 DB1E0000 		.4byte	.LLST131
 8782 13f4 00       		.byte	0
 8783 13f5 00       		.byte	0
 8784 13f6 24       		.uleb128 0x24
 8785 13f7 62060000 		.4byte	0x662
 8786 13fb 62000000 		.4byte	.LBB157
 8787 13ff 6E000000 		.4byte	.LBE157
 8788 1403 01       		.byte	0x1
 8789 1404 0F06     		.2byte	0x60f
 8790 1406 41140000 		.4byte	0x1441
ARM GAS  /var/folders/dt/0wfd0knj7gs46m8vwfzktm600000gn/T//cczoWvr4.s 			page 156


 8791 140a 25       		.uleb128 0x25
 8792 140b 88060000 		.4byte	0x688
 8793 140f F91E0000 		.4byte	.LLST132
 8794 1413 2D       		.uleb128 0x2d
 8795 1414 7C060000 		.4byte	0x67c
 8796 1418 02       		.byte	0x2
 8797 1419 74       		.byte	0x74
 8798 141a 18       		.sleb128 24
 8799 141b 25       		.uleb128 0x25
 8800 141c 70060000 		.4byte	0x670
 8801 1420 0D1F0000 		.4byte	.LLST133
 8802 1424 27       		.uleb128 0x27
 8803 1425 62000000 		.4byte	.LBB158
 8804 1429 6E000000 		.4byte	.LBE158
 8805 142d 28       		.uleb128 0x28
 8806 142e 9E060000 		.4byte	0x69e
 8807 1432 2C1F0000 		.4byte	.LLST134
 8808 1436 28       		.uleb128 0x28
 8809 1437 94060000 		.4byte	0x694
 8810 143b 401F0000 		.4byte	.LLST135
 8811 143f 00       		.byte	0
 8812 1440 00       		.byte	0
 8813 1441 2C       		.uleb128 0x2c
 8814 1442 42000000 		.4byte	.LVL368
 8815 1446 B8070000 		.4byte	0x7b8
 8816 144a 00       		.byte	0
 8817 144b 00       		.byte	0
 8818 144c 23       		.uleb128 0x23
 8819 144d 0A000000 		.4byte	.LVL357
 8820 1451 940C0000 		.4byte	0xc94
 8821 1455 65140000 		.4byte	0x1465
 8822 1459 22       		.uleb128 0x22
 8823 145a 01       		.byte	0x1
 8824 145b 51       		.byte	0x51
 8825 145c 01       		.byte	0x1
 8826 145d 30       		.byte	0x30
 8827 145e 22       		.uleb128 0x22
 8828 145f 01       		.byte	0x1
 8829 1460 50       		.byte	0x50
 8830 1461 02       		.byte	0x2
 8831 1462 74       		.byte	0x74
 8832 1463 00       		.sleb128 0
 8833 1464 00       		.byte	0
 8834 1465 2C       		.uleb128 0x2c
 8835 1466 16000000 		.4byte	.LVL360
 8836 146a 490F0000 		.4byte	0xf49
 8837 146e 2C       		.uleb128 0x2c
 8838 146f 24000000 		.4byte	.LVL362
 8839 1473 B8070000 		.4byte	0x7b8
 8840 1477 00       		.byte	0
 8841 1478 1D       		.uleb128 0x1d
 8842 1479 61050000 		.4byte	.LASF106
 8843 147d 01       		.byte	0x1
 8844 147e 7F05     		.2byte	0x57f
 8845 1480 01       		.byte	0x1
 8846 1481 ED030000 		.4byte	0x3ed
 8847 1485 00000000 		.4byte	.LFB14
ARM GAS  /var/folders/dt/0wfd0knj7gs46m8vwfzktm600000gn/T//cczoWvr4.s 			page 157


 8848 1489 56000000 		.4byte	.LFE14
 8849 148d 531F0000 		.4byte	.LLST136
 8850 1491 01       		.byte	0x1
 8851 1492 E6140000 		.4byte	0x14e6
 8852 1496 1A       		.uleb128 0x1a
 8853 1497 646A00   		.ascii	"dj\000"
 8854 149a 01       		.byte	0x1
 8855 149b 8005     		.2byte	0x580
 8856 149d 9D050000 		.4byte	0x59d
 8857 14a1 731F0000 		.4byte	.LLST137
 8858 14a5 1C       		.uleb128 0x1c
 8859 14a6 72657300 		.ascii	"res\000"
 8860 14aa 01       		.byte	0x1
 8861 14ab 8305     		.2byte	0x583
 8862 14ad ED030000 		.4byte	0x3ed
 8863 14b1 BD1F0000 		.4byte	.LLST138
 8864 14b5 1C       		.uleb128 0x1c
 8865 14b6 6300     		.ascii	"c\000"
 8866 14b8 01       		.byte	0x1
 8867 14b9 8405     		.2byte	0x584
 8868 14bb 50000000 		.4byte	0x50
 8869 14bf 08200000 		.4byte	.LLST139
 8870 14c3 1C       		.uleb128 0x1c
 8871 14c4 64697200 		.ascii	"dir\000"
 8872 14c8 01       		.byte	0x1
 8873 14c9 8405     		.2byte	0x584
 8874 14cb 76020000 		.4byte	0x276
 8875 14cf 28200000 		.4byte	.LLST140
 8876 14d3 2C       		.uleb128 0x2c
 8877 14d4 0E000000 		.4byte	.LVL380
 8878 14d8 B8070000 		.4byte	0x7b8
 8879 14dc 2C       		.uleb128 0x2c
 8880 14dd 32000000 		.4byte	.LVL385
 8881 14e1 490F0000 		.4byte	0xf49
 8882 14e5 00       		.byte	0
 8883 14e6 29       		.uleb128 0x29
 8884 14e7 E9060000 		.4byte	0x6e9
 8885 14eb 00000000 		.4byte	.LFB9
 8886 14ef 54000000 		.4byte	.LFE9
 8887 14f3 46200000 		.4byte	.LLST141
 8888 14f7 01       		.byte	0x1
 8889 14f8 7F150000 		.4byte	0x157f
 8890 14fc 25       		.uleb128 0x25
 8891 14fd FB060000 		.4byte	0x6fb
 8892 1501 66200000 		.4byte	.LLST142
 8893 1505 25       		.uleb128 0x25
 8894 1506 06070000 		.4byte	0x706
 8895 150a C6200000 		.4byte	.LLST143
 8896 150e 28       		.uleb128 0x28
 8897 150f 12070000 		.4byte	0x712
 8898 1513 00210000 		.4byte	.LLST144
 8899 1517 30       		.uleb128 0x30
 8900 1518 1E070000 		.4byte	0x71e
 8901 151c 31       		.uleb128 0x31
 8902 151d E9060000 		.4byte	0x6e9
 8903 1521 14000000 		.4byte	.LBB163
 8904 1525 40020000 		.4byte	.Ldebug_ranges0+0x240
ARM GAS  /var/folders/dt/0wfd0knj7gs46m8vwfzktm600000gn/T//cczoWvr4.s 			page 158


 8905 1529 01       		.byte	0x1
 8906 152a 9703     		.2byte	0x397
 8907 152c 2B       		.uleb128 0x2b
 8908 152d 06070000 		.4byte	0x706
 8909 1531 2B       		.uleb128 0x2b
 8910 1532 FB060000 		.4byte	0x6fb
 8911 1536 32       		.uleb128 0x32
 8912 1537 58020000 		.4byte	.Ldebug_ranges0+0x258
 8913 153b 28       		.uleb128 0x28
 8914 153c 12070000 		.4byte	0x712
 8915 1540 13210000 		.4byte	.LLST145
 8916 1544 28       		.uleb128 0x28
 8917 1545 1E070000 		.4byte	0x71e
 8918 1549 33210000 		.4byte	.LLST146
 8919 154d 23       		.uleb128 0x23
 8920 154e 1E000000 		.4byte	.LVL399
 8921 1552 FD040000 		.4byte	0x4fd
 8922 1556 67150000 		.4byte	0x1567
 8923 155a 22       		.uleb128 0x22
 8924 155b 01       		.byte	0x1
 8925 155c 51       		.byte	0x51
 8926 155d 02       		.byte	0x2
 8927 155e 75       		.byte	0x75
 8928 155f 00       		.sleb128 0
 8929 1560 22       		.uleb128 0x22
 8930 1561 01       		.byte	0x1
 8931 1562 50       		.byte	0x50
 8932 1563 02       		.byte	0x2
 8933 1564 74       		.byte	0x74
 8934 1565 00       		.sleb128 0
 8935 1566 00       		.byte	0
 8936 1567 21       		.uleb128 0x21
 8937 1568 36000000 		.4byte	.LVL403
 8938 156c A3050000 		.4byte	0x5a3
 8939 1570 22       		.uleb128 0x22
 8940 1571 01       		.byte	0x1
 8941 1572 52       		.byte	0x52
 8942 1573 01       		.byte	0x1
 8943 1574 30       		.byte	0x30
 8944 1575 22       		.uleb128 0x22
 8945 1576 01       		.byte	0x1
 8946 1577 50       		.byte	0x50
 8947 1578 02       		.byte	0x2
 8948 1579 74       		.byte	0x74
 8949 157a 00       		.sleb128 0
 8950 157b 00       		.byte	0
 8951 157c 00       		.byte	0
 8952 157d 00       		.byte	0
 8953 157e 00       		.byte	0
 8954 157f 37       		.uleb128 0x37
 8955 1580 01       		.byte	0x1
 8956 1581 A8030000 		.4byte	.LASF107
 8957 1585 01       		.byte	0x1
 8958 1586 9508     		.2byte	0x895
 8959 1588 01       		.byte	0x1
 8960 1589 ED030000 		.4byte	0x3ed
 8961 158d 00000000 		.4byte	.LFB23
ARM GAS  /var/folders/dt/0wfd0knj7gs46m8vwfzktm600000gn/T//cczoWvr4.s 			page 159


 8962 1591 20000000 		.4byte	.LFE23
 8963 1595 02       		.byte	0x2
 8964 1596 7D       		.byte	0x7d
 8965 1597 00       		.sleb128 0
 8966 1598 01       		.byte	0x1
 8967 1599 CB150000 		.4byte	0x15cb
 8968 159d 1A       		.uleb128 0x1a
 8969 159e 766F6C00 		.ascii	"vol\000"
 8970 15a2 01       		.byte	0x1
 8971 15a3 9608     		.2byte	0x896
 8972 15a5 50000000 		.4byte	0x50
 8973 15a9 5C210000 		.4byte	.LLST147
 8974 15ad 1B       		.uleb128 0x1b
 8975 15ae 667300   		.ascii	"fs\000"
 8976 15b1 01       		.byte	0x1
 8977 15b2 9708     		.2byte	0x897
 8978 15b4 70020000 		.4byte	0x270
 8979 15b8 01       		.byte	0x1
 8980 15b9 51       		.byte	0x51
 8981 15ba 1C       		.uleb128 0x1c
 8982 15bb 72667300 		.ascii	"rfs\000"
 8983 15bf 01       		.byte	0x1
 8984 15c0 9A08     		.2byte	0x89a
 8985 15c2 70020000 		.4byte	0x270
 8986 15c6 96210000 		.4byte	.LLST148
 8987 15ca 00       		.byte	0
 8988 15cb 38       		.uleb128 0x38
 8989 15cc 01       		.byte	0x1
 8990 15cd 6A050000 		.4byte	.LASF108
 8991 15d1 01       		.byte	0x1
 8992 15d2 BD08     		.2byte	0x8bd
 8993 15d4 01       		.byte	0x1
 8994 15d5 ED030000 		.4byte	0x3ed
 8995 15d9 00000000 		.4byte	.LFB24
 8996 15dd 76010000 		.4byte	.LFE24
 8997 15e1 B8210000 		.4byte	.LLST149
 8998 15e5 01       		.byte	0x1
 8999 15e6 F8160000 		.4byte	0x16f8
 9000 15ea 1A       		.uleb128 0x1a
 9001 15eb 667000   		.ascii	"fp\000"
 9002 15ee 01       		.byte	0x1
 9003 15ef BE08     		.2byte	0x8be
 9004 15f1 F8160000 		.4byte	0x16f8
 9005 15f5 E5210000 		.4byte	.LLST150
 9006 15f9 1E       		.uleb128 0x1e
 9007 15fa 6E000000 		.4byte	.LASF89
 9008 15fe 01       		.byte	0x1
 9009 15ff BF08     		.2byte	0x8bf
 9010 1601 930B0000 		.4byte	0xb93
 9011 1605 03220000 		.4byte	.LLST151
 9012 1609 1E       		.uleb128 0x1e
 9013 160a E4010000 		.4byte	.LASF109
 9014 160e 01       		.byte	0x1
 9015 160f C008     		.2byte	0x8c0
 9016 1611 50000000 		.4byte	0x50
 9017 1615 22220000 		.4byte	.LLST152
 9018 1619 1C       		.uleb128 0x1c
ARM GAS  /var/folders/dt/0wfd0knj7gs46m8vwfzktm600000gn/T//cczoWvr4.s 			page 160


 9019 161a 72657300 		.ascii	"res\000"
 9020 161e 01       		.byte	0x1
 9021 161f C308     		.2byte	0x8c3
 9022 1621 ED030000 		.4byte	0x3ed
 9023 1625 85220000 		.4byte	.LLST153
 9024 1629 33       		.uleb128 0x33
 9025 162a 646A00   		.ascii	"dj\000"
 9026 162d 01       		.byte	0x1
 9027 162e C408     		.2byte	0x8c4
 9028 1630 FD020000 		.4byte	0x2fd
 9029 1634 03       		.byte	0x3
 9030 1635 91       		.byte	0x91
 9031 1636 BC7F     		.sleb128 -68
 9032 1638 1C       		.uleb128 0x1c
 9033 1639 64697200 		.ascii	"dir\000"
 9034 163d 01       		.byte	0x1
 9035 163e C508     		.2byte	0x8c5
 9036 1640 76020000 		.4byte	0x276
 9037 1644 0A230000 		.4byte	.LLST154
 9038 1648 33       		.uleb128 0x33
 9039 1649 73666E00 		.ascii	"sfn\000"
 9040 164d 01       		.byte	0x1
 9041 164e C608     		.2byte	0x8c6
 9042 1650 FE160000 		.4byte	0x16fe
 9043 1654 03       		.byte	0x3
 9044 1655 91       		.byte	0x91
 9045 1656 B07F     		.sleb128 -80
 9046 1658 36       		.uleb128 0x36
 9047 1659 70020000 		.4byte	.Ldebug_ranges0+0x270
 9048 165d C2160000 		.4byte	0x16c2
 9049 1661 1C       		.uleb128 0x1c
 9050 1662 647700   		.ascii	"dw\000"
 9051 1665 01       		.byte	0x1
 9052 1666 E208     		.2byte	0x8e2
 9053 1668 82000000 		.4byte	0x82
 9054 166c 4A230000 		.4byte	.LLST155
 9055 1670 1C       		.uleb128 0x1c
 9056 1671 636C00   		.ascii	"cl\000"
 9057 1674 01       		.byte	0x1
 9058 1675 E208     		.2byte	0x8e2
 9059 1677 82000000 		.4byte	0x82
 9060 167b 68230000 		.4byte	.LLST156
 9061 167f 2C       		.uleb128 0x2c
 9062 1680 EE000000 		.4byte	.LVL437
 9063 1684 6C290000 		.4byte	0x296c
 9064 1688 23       		.uleb128 0x23
 9065 1689 48010000 		.4byte	.LVL442
 9066 168d E9060000 		.4byte	0x6e9
 9067 1691 9C160000 		.4byte	0x169c
 9068 1695 22       		.uleb128 0x22
 9069 1696 01       		.byte	0x1
 9070 1697 51       		.byte	0x51
 9071 1698 02       		.byte	0x2
 9072 1699 76       		.byte	0x76
 9073 169a 00       		.sleb128 0
 9074 169b 00       		.byte	0
 9075 169c 23       		.uleb128 0x23
ARM GAS  /var/folders/dt/0wfd0knj7gs46m8vwfzktm600000gn/T//cczoWvr4.s 			page 161


 9076 169d 5A010000 		.4byte	.LVL445
 9077 16a1 B8070000 		.4byte	0x7b8
 9078 16a5 B0160000 		.4byte	0x16b0
 9079 16a9 22       		.uleb128 0x22
 9080 16aa 01       		.byte	0x1
 9081 16ab 51       		.byte	0x51
 9082 16ac 02       		.byte	0x2
 9083 16ad 78       		.byte	0x78
 9084 16ae 00       		.sleb128 0
 9085 16af 00       		.byte	0
 9086 16b0 21       		.uleb128 0x21
 9087 16b1 68010000 		.4byte	.LVL448
 9088 16b5 A9060000 		.4byte	0x6a9
 9089 16b9 22       		.uleb128 0x22
 9090 16ba 01       		.byte	0x1
 9091 16bb 50       		.byte	0x50
 9092 16bc 03       		.byte	0x3
 9093 16bd 91       		.byte	0x91
 9094 16be BC7F     		.sleb128 -68
 9095 16c0 00       		.byte	0
 9096 16c1 00       		.byte	0
 9097 16c2 23       		.uleb128 0x23
 9098 16c3 20000000 		.4byte	.LVL417
 9099 16c7 FF090000 		.4byte	0x9ff
 9100 16cb E6160000 		.4byte	0x16e6
 9101 16cf 22       		.uleb128 0x22
 9102 16d0 01       		.byte	0x1
 9103 16d1 52       		.byte	0x52
 9104 16d2 04       		.byte	0x4
 9105 16d3 76       		.byte	0x76
 9106 16d4 00       		.sleb128 0
 9107 16d5 4E       		.byte	0x4e
 9108 16d6 1A       		.byte	0x1a
 9109 16d7 22       		.uleb128 0x22
 9110 16d8 01       		.byte	0x1
 9111 16d9 51       		.byte	0x51
 9112 16da 03       		.byte	0x3
 9113 16db 91       		.byte	0x91
 9114 16dc BC7F     		.sleb128 -68
 9115 16de 22       		.uleb128 0x22
 9116 16df 01       		.byte	0x1
 9117 16e0 50       		.byte	0x50
 9118 16e1 03       		.byte	0x3
 9119 16e2 91       		.byte	0x91
 9120 16e3 AC7F     		.sleb128 -84
 9121 16e5 00       		.byte	0
 9122 16e6 21       		.uleb128 0x21
 9123 16e7 44000000 		.4byte	.LVL423
 9124 16eb 34110000 		.4byte	0x1134
 9125 16ef 22       		.uleb128 0x22
 9126 16f0 01       		.byte	0x1
 9127 16f1 50       		.byte	0x50
 9128 16f2 03       		.byte	0x3
 9129 16f3 91       		.byte	0x91
 9130 16f4 BC7F     		.sleb128 -68
 9131 16f6 00       		.byte	0
 9132 16f7 00       		.byte	0
ARM GAS  /var/folders/dt/0wfd0knj7gs46m8vwfzktm600000gn/T//cczoWvr4.s 			page 162


 9133 16f8 0A       		.uleb128 0xa
 9134 16f9 04       		.byte	0x4
 9135 16fa 7C020000 		.4byte	0x27c
 9136 16fe 08       		.uleb128 0x8
 9137 16ff 50000000 		.4byte	0x50
 9138 1703 0E170000 		.4byte	0x170e
 9139 1707 0D       		.uleb128 0xd
 9140 1708 AE010000 		.4byte	0x1ae
 9141 170c 0B       		.byte	0xb
 9142 170d 00       		.byte	0
 9143 170e 38       		.uleb128 0x38
 9144 170f 01       		.byte	0x1
 9145 1710 52000000 		.4byte	.LASF110
 9146 1714 01       		.byte	0x1
 9147 1715 3F09     		.2byte	0x93f
 9148 1717 01       		.byte	0x1
 9149 1718 ED030000 		.4byte	0x3ed
 9150 171c 00000000 		.4byte	.LFB25
 9151 1720 9A010000 		.4byte	.LFE25
 9152 1724 9A230000 		.4byte	.LLST157
 9153 1728 01       		.byte	0x1
 9154 1729 0C190000 		.4byte	0x190c
 9155 172d 1A       		.uleb128 0x1a
 9156 172e 667000   		.ascii	"fp\000"
 9157 1731 01       		.byte	0x1
 9158 1732 4009     		.2byte	0x940
 9159 1734 F8160000 		.4byte	0x16f8
 9160 1738 C6230000 		.4byte	.LLST158
 9161 173c 1E       		.uleb128 0x1e
 9162 173d C4000000 		.4byte	.LASF111
 9163 1741 01       		.byte	0x1
 9164 1742 4109     		.2byte	0x941
 9165 1744 72040000 		.4byte	0x472
 9166 1748 E4230000 		.4byte	.LLST159
 9167 174c 1A       		.uleb128 0x1a
 9168 174d 62747200 		.ascii	"btr\000"
 9169 1751 01       		.byte	0x1
 9170 1752 4209     		.2byte	0x942
 9171 1754 30000000 		.4byte	0x30
 9172 1758 29240000 		.4byte	.LLST160
 9173 175c 1A       		.uleb128 0x1a
 9174 175d 627200   		.ascii	"br\000"
 9175 1760 01       		.byte	0x1
 9176 1761 4309     		.2byte	0x943
 9177 1763 0C190000 		.4byte	0x190c
 9178 1767 5D240000 		.4byte	.LLST161
 9179 176b 1C       		.uleb128 0x1c
 9180 176c 72657300 		.ascii	"res\000"
 9181 1770 01       		.byte	0x1
 9182 1771 4609     		.2byte	0x946
 9183 1773 ED030000 		.4byte	0x3ed
 9184 1777 7B240000 		.4byte	.LLST162
 9185 177b 2E       		.uleb128 0x2e
 9186 177c 59020000 		.4byte	.LASF74
 9187 1780 01       		.byte	0x1
 9188 1781 4709     		.2byte	0x947
 9189 1783 82000000 		.4byte	0x82
ARM GAS  /var/folders/dt/0wfd0knj7gs46m8vwfzktm600000gn/T//cczoWvr4.s 			page 163


 9190 1787 8E240000 		.4byte	.LLST163
 9191 178b 2E       		.uleb128 0x2e
 9192 178c 81000000 		.4byte	.LASF38
 9193 1790 01       		.byte	0x1
 9194 1791 4709     		.2byte	0x947
 9195 1793 82000000 		.4byte	0x82
 9196 1797 B8240000 		.4byte	.LLST164
 9197 179b 2E       		.uleb128 0x2e
 9198 179c FB040000 		.4byte	.LASF112
 9199 17a0 01       		.byte	0x1
 9200 17a1 4709     		.2byte	0x947
 9201 17a3 82000000 		.4byte	0x82
 9202 17a7 E2240000 		.4byte	.LLST165
 9203 17ab 2E       		.uleb128 0x2e
 9204 17ac 35050000 		.4byte	.LASF113
 9205 17b0 01       		.byte	0x1
 9206 17b1 4809     		.2byte	0x948
 9207 17b3 30000000 		.4byte	0x30
 9208 17b7 06250000 		.4byte	.LLST166
 9209 17bb 1C       		.uleb128 0x1c
 9210 17bc 636300   		.ascii	"cc\000"
 9211 17bf 01       		.byte	0x1
 9212 17c0 4809     		.2byte	0x948
 9213 17c2 30000000 		.4byte	0x30
 9214 17c6 24250000 		.4byte	.LLST167
 9215 17ca 2E       		.uleb128 0x2e
 9216 17cb 44000000 		.4byte	.LASF114
 9217 17cf 01       		.byte	0x1
 9218 17d0 4909     		.2byte	0x949
 9219 17d2 50000000 		.4byte	0x50
 9220 17d6 51250000 		.4byte	.LLST168
 9221 17da 2E       		.uleb128 0x2e
 9222 17db 73000000 		.4byte	.LASF115
 9223 17df 01       		.byte	0x1
 9224 17e0 4909     		.2byte	0x949
 9225 17e2 76020000 		.4byte	0x276
 9226 17e6 AF250000 		.4byte	.LLST169
 9227 17ea 34       		.uleb128 0x34
 9228 17eb 48050000 		.4byte	0x548
 9229 17ef 70000000 		.4byte	.LBB171
 9230 17f3 98020000 		.4byte	.Ldebug_ranges0+0x298
 9231 17f7 01       		.byte	0x1
 9232 17f8 6A09     		.2byte	0x96a
 9233 17fa 11180000 		.4byte	0x1811
 9234 17fe 25       		.uleb128 0x25
 9235 17ff 66050000 		.4byte	0x566
 9236 1803 EE250000 		.4byte	.LLST170
 9237 1807 25       		.uleb128 0x25
 9238 1808 5B050000 		.4byte	0x55b
 9239 180c 17260000 		.4byte	.LLST171
 9240 1810 00       		.byte	0
 9241 1811 24       		.uleb128 0x24
 9242 1812 62060000 		.4byte	0x662
 9243 1816 D8000000 		.4byte	.LBB174
 9244 181a EC000000 		.4byte	.LBE174
 9245 181e 01       		.byte	0x1
 9246 181f 9509     		.2byte	0x995
ARM GAS  /var/folders/dt/0wfd0knj7gs46m8vwfzktm600000gn/T//cczoWvr4.s 			page 164


 9247 1821 55180000 		.4byte	0x1855
 9248 1825 25       		.uleb128 0x25
 9249 1826 88060000 		.4byte	0x688
 9250 182a 40260000 		.4byte	.LLST172
 9251 182e 2B       		.uleb128 0x2b
 9252 182f 7C060000 		.4byte	0x67c
 9253 1833 25       		.uleb128 0x25
 9254 1834 70060000 		.4byte	0x670
 9255 1838 55260000 		.4byte	.LLST173
 9256 183c 27       		.uleb128 0x27
 9257 183d D8000000 		.4byte	.LBB175
 9258 1841 EC000000 		.4byte	.LBE175
 9259 1845 28       		.uleb128 0x28
 9260 1846 94060000 		.4byte	0x694
 9261 184a 73260000 		.4byte	.LLST174
 9262 184e 30       		.uleb128 0x30
 9263 184f 9E060000 		.4byte	0x69e
 9264 1853 00       		.byte	0
 9265 1854 00       		.byte	0
 9266 1855 24       		.uleb128 0x24
 9267 1856 62060000 		.4byte	0x662
 9268 185a 6A010000 		.4byte	.LBB177
 9269 185e 76010000 		.4byte	.LBE177
 9270 1862 01       		.byte	0x1
 9271 1863 7909     		.2byte	0x979
 9272 1865 A1180000 		.4byte	0x18a1
 9273 1869 25       		.uleb128 0x25
 9274 186a 88060000 		.4byte	0x688
 9275 186e 9C260000 		.4byte	.LLST175
 9276 1872 25       		.uleb128 0x25
 9277 1873 7C060000 		.4byte	0x67c
 9278 1877 B2260000 		.4byte	.LLST176
 9279 187b 25       		.uleb128 0x25
 9280 187c 70060000 		.4byte	0x670
 9281 1880 C7260000 		.4byte	.LLST177
 9282 1884 27       		.uleb128 0x27
 9283 1885 6A010000 		.4byte	.LBB178
 9284 1889 76010000 		.4byte	.LBE178
 9285 188d 28       		.uleb128 0x28
 9286 188e 94060000 		.4byte	0x694
 9287 1892 E8260000 		.4byte	.LLST178
 9288 1896 28       		.uleb128 0x28
 9289 1897 9E060000 		.4byte	0x69e
 9290 189b FB260000 		.4byte	.LLST179
 9291 189f 00       		.byte	0
 9292 18a0 00       		.byte	0
 9293 18a1 2C       		.uleb128 0x2c
 9294 18a2 1C000000 		.4byte	.LVL456
 9295 18a6 AA040000 		.4byte	0x4aa
 9296 18aa 23       		.uleb128 0x23
 9297 18ab A2000000 		.4byte	.LVL472
 9298 18af CC280000 		.4byte	0x28cc
 9299 18b3 C3180000 		.4byte	0x18c3
 9300 18b7 22       		.uleb128 0x22
 9301 18b8 01       		.byte	0x1
 9302 18b9 53       		.byte	0x53
 9303 18ba 01       		.byte	0x1
ARM GAS  /var/folders/dt/0wfd0knj7gs46m8vwfzktm600000gn/T//cczoWvr4.s 			page 165


 9304 18bb 31       		.byte	0x31
 9305 18bc 22       		.uleb128 0x22
 9306 18bd 01       		.byte	0x1
 9307 18be 51       		.byte	0x51
 9308 18bf 02       		.byte	0x2
 9309 18c0 7A       		.byte	0x7a
 9310 18c1 00       		.sleb128 0
 9311 18c2 00       		.byte	0
 9312 18c3 23       		.uleb128 0x23
 9313 18c4 BC000000 		.4byte	.LVL473
 9314 18c8 F3280000 		.4byte	0x28f3
 9315 18cc E2180000 		.4byte	0x18e2
 9316 18d0 22       		.uleb128 0x22
 9317 18d1 01       		.byte	0x1
 9318 18d2 53       		.byte	0x53
 9319 18d3 01       		.byte	0x1
 9320 18d4 31       		.byte	0x31
 9321 18d5 22       		.uleb128 0x22
 9322 18d6 01       		.byte	0x1
 9323 18d7 52       		.byte	0x52
 9324 18d8 02       		.byte	0x2
 9325 18d9 75       		.byte	0x75
 9326 18da 00       		.sleb128 0
 9327 18db 22       		.uleb128 0x22
 9328 18dc 01       		.byte	0x1
 9329 18dd 51       		.byte	0x51
 9330 18de 02       		.byte	0x2
 9331 18df 7A       		.byte	0x7a
 9332 18e0 00       		.sleb128 0
 9333 18e1 00       		.byte	0
 9334 18e2 23       		.uleb128 0x23
 9335 18e3 4A010000 		.4byte	.LVL494
 9336 18e7 F3280000 		.4byte	0x28f3
 9337 18eb 02190000 		.4byte	0x1902
 9338 18ef 22       		.uleb128 0x22
 9339 18f0 01       		.byte	0x1
 9340 18f1 53       		.byte	0x53
 9341 18f2 02       		.byte	0x2
 9342 18f3 76       		.byte	0x76
 9343 18f4 00       		.sleb128 0
 9344 18f5 22       		.uleb128 0x22
 9345 18f6 01       		.byte	0x1
 9346 18f7 52       		.byte	0x52
 9347 18f8 02       		.byte	0x2
 9348 18f9 75       		.byte	0x75
 9349 18fa 00       		.sleb128 0
 9350 18fb 22       		.uleb128 0x22
 9351 18fc 01       		.byte	0x1
 9352 18fd 51       		.byte	0x51
 9353 18fe 02       		.byte	0x2
 9354 18ff 74       		.byte	0x74
 9355 1900 00       		.sleb128 0
 9356 1901 00       		.byte	0
 9357 1902 2C       		.uleb128 0x2c
 9358 1903 96010000 		.4byte	.LVL504
 9359 1907 FD040000 		.4byte	0x4fd
 9360 190b 00       		.byte	0
ARM GAS  /var/folders/dt/0wfd0knj7gs46m8vwfzktm600000gn/T//cczoWvr4.s 			page 166


 9361 190c 0A       		.uleb128 0xa
 9362 190d 04       		.byte	0x4
 9363 190e 30000000 		.4byte	0x30
 9364 1912 38       		.uleb128 0x38
 9365 1913 01       		.byte	0x1
 9366 1914 A1010000 		.4byte	.LASF116
 9367 1918 01       		.byte	0x1
 9368 1919 A409     		.2byte	0x9a4
 9369 191b 01       		.byte	0x1
 9370 191c ED030000 		.4byte	0x3ed
 9371 1920 00000000 		.4byte	.LFB26
 9372 1924 EE010000 		.4byte	.LFE26
 9373 1928 10270000 		.4byte	.LLST180
 9374 192c 01       		.byte	0x1
 9375 192d 141B0000 		.4byte	0x1b14
 9376 1931 1A       		.uleb128 0x1a
 9377 1932 667000   		.ascii	"fp\000"
 9378 1935 01       		.byte	0x1
 9379 1936 A509     		.2byte	0x9a5
 9380 1938 F8160000 		.4byte	0x16f8
 9381 193c 3C270000 		.4byte	.LLST181
 9382 1940 1E       		.uleb128 0x1e
 9383 1941 C4000000 		.4byte	.LASF111
 9384 1945 01       		.byte	0x1
 9385 1946 A609     		.2byte	0x9a6
 9386 1948 50060000 		.4byte	0x650
 9387 194c 5A270000 		.4byte	.LLST182
 9388 1950 1A       		.uleb128 0x1a
 9389 1951 62747700 		.ascii	"btw\000"
 9390 1955 01       		.byte	0x1
 9391 1956 A709     		.2byte	0x9a7
 9392 1958 30000000 		.4byte	0x30
 9393 195c B8270000 		.4byte	.LLST183
 9394 1960 1A       		.uleb128 0x1a
 9395 1961 627700   		.ascii	"bw\000"
 9396 1964 01       		.byte	0x1
 9397 1965 A809     		.2byte	0x9a8
 9398 1967 0C190000 		.4byte	0x190c
 9399 196b EC270000 		.4byte	.LLST184
 9400 196f 1C       		.uleb128 0x1c
 9401 1970 72657300 		.ascii	"res\000"
 9402 1974 01       		.byte	0x1
 9403 1975 AB09     		.2byte	0x9ab
 9404 1977 ED030000 		.4byte	0x3ed
 9405 197b 0A280000 		.4byte	.LLST185
 9406 197f 2E       		.uleb128 0x2e
 9407 1980 59020000 		.4byte	.LASF74
 9408 1984 01       		.byte	0x1
 9409 1985 AC09     		.2byte	0x9ac
 9410 1987 82000000 		.4byte	0x82
 9411 198b 1D280000 		.4byte	.LLST186
 9412 198f 2E       		.uleb128 0x2e
 9413 1990 81000000 		.4byte	.LASF38
 9414 1994 01       		.byte	0x1
 9415 1995 AC09     		.2byte	0x9ac
 9416 1997 82000000 		.4byte	0x82
 9417 199b 52280000 		.4byte	.LLST187
ARM GAS  /var/folders/dt/0wfd0knj7gs46m8vwfzktm600000gn/T//cczoWvr4.s 			page 167


 9418 199f 2E       		.uleb128 0x2e
 9419 19a0 E9020000 		.4byte	.LASF117
 9420 19a4 01       		.byte	0x1
 9421 19a5 AD09     		.2byte	0x9ad
 9422 19a7 30000000 		.4byte	0x30
 9423 19ab 7B280000 		.4byte	.LLST188
 9424 19af 1C       		.uleb128 0x1c
 9425 19b0 636300   		.ascii	"cc\000"
 9426 19b3 01       		.byte	0x1
 9427 19b4 AD09     		.2byte	0x9ad
 9428 19b6 30000000 		.4byte	0x30
 9429 19ba 99280000 		.4byte	.LLST189
 9430 19be 2E       		.uleb128 0x2e
 9431 19bf F0030000 		.4byte	.LASF118
 9432 19c3 01       		.byte	0x1
 9433 19c4 AE09     		.2byte	0x9ae
 9434 19c6 57060000 		.4byte	0x657
 9435 19ca E0280000 		.4byte	.LLST190
 9436 19ce 2E       		.uleb128 0x2e
 9437 19cf 44000000 		.4byte	.LASF114
 9438 19d3 01       		.byte	0x1
 9439 19d4 AF09     		.2byte	0x9af
 9440 19d6 50000000 		.4byte	0x50
 9441 19da FE280000 		.4byte	.LLST191
 9442 19de 34       		.uleb128 0x34
 9443 19df 48050000 		.4byte	0x548
 9444 19e3 A4000000 		.4byte	.LBB179
 9445 19e7 B0020000 		.4byte	.Ldebug_ranges0+0x2b0
 9446 19eb 01       		.byte	0x1
 9447 19ec DC09     		.2byte	0x9dc
 9448 19ee 051A0000 		.4byte	0x1a05
 9449 19f2 25       		.uleb128 0x25
 9450 19f3 66050000 		.4byte	0x566
 9451 19f7 5C290000 		.4byte	.LLST192
 9452 19fb 25       		.uleb128 0x25
 9453 19fc 5B050000 		.4byte	0x55b
 9454 1a00 B6290000 		.4byte	.LLST193
 9455 1a04 00       		.byte	0
 9456 1a05 24       		.uleb128 0x24
 9457 1a06 62060000 		.4byte	0x662
 9458 1a0a E4000000 		.4byte	.LBB182
 9459 1a0e 00010000 		.4byte	.LBE182
 9460 1a12 01       		.byte	0x1
 9461 1a13 090A     		.2byte	0xa09
 9462 1a15 511A0000 		.4byte	0x1a51
 9463 1a19 25       		.uleb128 0x25
 9464 1a1a 88060000 		.4byte	0x688
 9465 1a1e EA290000 		.4byte	.LLST194
 9466 1a22 25       		.uleb128 0x25
 9467 1a23 7C060000 		.4byte	0x67c
 9468 1a27 FF290000 		.4byte	.LLST195
 9469 1a2b 25       		.uleb128 0x25
 9470 1a2c 70060000 		.4byte	0x670
 9471 1a30 122A0000 		.4byte	.LLST196
 9472 1a34 27       		.uleb128 0x27
 9473 1a35 E4000000 		.4byte	.LBB183
 9474 1a39 00010000 		.4byte	.LBE183
ARM GAS  /var/folders/dt/0wfd0knj7gs46m8vwfzktm600000gn/T//cczoWvr4.s 			page 168


 9475 1a3d 28       		.uleb128 0x28
 9476 1a3e 94060000 		.4byte	0x694
 9477 1a42 252A0000 		.4byte	.LLST197
 9478 1a46 28       		.uleb128 0x28
 9479 1a47 9E060000 		.4byte	0x69e
 9480 1a4b 382A0000 		.4byte	.LLST198
 9481 1a4f 00       		.byte	0
 9482 1a50 00       		.byte	0
 9483 1a51 24       		.uleb128 0x24
 9484 1a52 62060000 		.4byte	0x662
 9485 1a56 70010000 		.4byte	.LBB185
 9486 1a5a 7C010000 		.4byte	.LBE185
 9487 1a5e 01       		.byte	0x1
 9488 1a5f EC09     		.2byte	0x9ec
 9489 1a61 9D1A0000 		.4byte	0x1a9d
 9490 1a65 25       		.uleb128 0x25
 9491 1a66 88060000 		.4byte	0x688
 9492 1a6a 4B2A0000 		.4byte	.LLST199
 9493 1a6e 25       		.uleb128 0x25
 9494 1a6f 7C060000 		.4byte	0x67c
 9495 1a73 612A0000 		.4byte	.LLST200
 9496 1a77 25       		.uleb128 0x25
 9497 1a78 70060000 		.4byte	0x670
 9498 1a7c 7B2A0000 		.4byte	.LLST201
 9499 1a80 27       		.uleb128 0x27
 9500 1a81 70010000 		.4byte	.LBB186
 9501 1a85 7C010000 		.4byte	.LBE186
 9502 1a89 28       		.uleb128 0x28
 9503 1a8a 94060000 		.4byte	0x694
 9504 1a8e 9A2A0000 		.4byte	.LLST202
 9505 1a92 28       		.uleb128 0x28
 9506 1a93 9E060000 		.4byte	0x69e
 9507 1a97 AD2A0000 		.4byte	.LLST203
 9508 1a9b 00       		.byte	0
 9509 1a9c 00       		.byte	0
 9510 1a9d 2C       		.uleb128 0x2c
 9511 1a9e 1C000000 		.4byte	.LVL510
 9512 1aa2 AA040000 		.4byte	0x4aa
 9513 1aa6 23       		.uleb128 0x23
 9514 1aa7 58010000 		.4byte	.LVL540
 9515 1aab CC280000 		.4byte	0x28cc
 9516 1aaf C01A0000 		.4byte	0x1ac0
 9517 1ab3 22       		.uleb128 0x22
 9518 1ab4 01       		.byte	0x1
 9519 1ab5 52       		.byte	0x52
 9520 1ab6 02       		.byte	0x2
 9521 1ab7 7B       		.byte	0x7b
 9522 1ab8 00       		.sleb128 0
 9523 1ab9 22       		.uleb128 0x22
 9524 1aba 01       		.byte	0x1
 9525 1abb 51       		.byte	0x51
 9526 1abc 02       		.byte	0x2
 9527 1abd 79       		.byte	0x79
 9528 1abe 00       		.sleb128 0
 9529 1abf 00       		.byte	0
 9530 1ac0 23       		.uleb128 0x23
 9531 1ac1 98010000 		.4byte	.LVL549
ARM GAS  /var/folders/dt/0wfd0knj7gs46m8vwfzktm600000gn/T//cczoWvr4.s 			page 169


 9532 1ac5 CC280000 		.4byte	0x28cc
 9533 1ac9 DA1A0000 		.4byte	0x1ada
 9534 1acd 22       		.uleb128 0x22
 9535 1ace 01       		.byte	0x1
 9536 1acf 53       		.byte	0x53
 9537 1ad0 01       		.byte	0x1
 9538 1ad1 31       		.byte	0x31
 9539 1ad2 22       		.uleb128 0x22
 9540 1ad3 01       		.byte	0x1
 9541 1ad4 51       		.byte	0x51
 9542 1ad5 03       		.byte	0x3
 9543 1ad6 91       		.byte	0x91
 9544 1ad7 54       		.sleb128 -44
 9545 1ad8 06       		.byte	0x6
 9546 1ad9 00       		.byte	0
 9547 1ada 2C       		.uleb128 0x2c
 9548 1adb BA010000 		.4byte	.LVL551
 9549 1adf 6A0E0000 		.4byte	0xe6a
 9550 1ae3 23       		.uleb128 0x23
 9551 1ae4 D0010000 		.4byte	.LVL554
 9552 1ae8 6A0E0000 		.4byte	0xe6a
 9553 1aec F71A0000 		.4byte	0x1af7
 9554 1af0 22       		.uleb128 0x22
 9555 1af1 01       		.byte	0x1
 9556 1af2 51       		.byte	0x51
 9557 1af3 02       		.byte	0x2
 9558 1af4 7A       		.byte	0x7a
 9559 1af5 00       		.sleb128 0
 9560 1af6 00       		.byte	0
 9561 1af7 21       		.uleb128 0x21
 9562 1af8 E6010000 		.4byte	.LVL557
 9563 1afc F3280000 		.4byte	0x28f3
 9564 1b00 22       		.uleb128 0x22
 9565 1b01 01       		.byte	0x1
 9566 1b02 53       		.byte	0x53
 9567 1b03 01       		.byte	0x1
 9568 1b04 31       		.byte	0x31
 9569 1b05 22       		.uleb128 0x22
 9570 1b06 01       		.byte	0x1
 9571 1b07 52       		.byte	0x52
 9572 1b08 02       		.byte	0x2
 9573 1b09 7B       		.byte	0x7b
 9574 1b0a 00       		.sleb128 0
 9575 1b0b 22       		.uleb128 0x22
 9576 1b0c 01       		.byte	0x1
 9577 1b0d 51       		.byte	0x51
 9578 1b0e 03       		.byte	0x3
 9579 1b0f 91       		.byte	0x91
 9580 1b10 54       		.sleb128 -44
 9581 1b11 06       		.byte	0x6
 9582 1b12 00       		.byte	0
 9583 1b13 00       		.byte	0
 9584 1b14 38       		.uleb128 0x38
 9585 1b15 01       		.byte	0x1
 9586 1b16 E2020000 		.4byte	.LASF119
 9587 1b1a 01       		.byte	0x1
 9588 1b1b 1B0A     		.2byte	0xa1b
ARM GAS  /var/folders/dt/0wfd0knj7gs46m8vwfzktm600000gn/T//cczoWvr4.s 			page 170


 9589 1b1d 01       		.byte	0x1
 9590 1b1e ED030000 		.4byte	0x3ed
 9591 1b22 00000000 		.4byte	.LFB27
 9592 1b26 A8000000 		.4byte	.LFE27
 9593 1b2a C72A0000 		.4byte	.LLST204
 9594 1b2e 01       		.byte	0x1
 9595 1b2f B11B0000 		.4byte	0x1bb1
 9596 1b33 1A       		.uleb128 0x1a
 9597 1b34 667000   		.ascii	"fp\000"
 9598 1b37 01       		.byte	0x1
 9599 1b38 1C0A     		.2byte	0xa1c
 9600 1b3a F8160000 		.4byte	0x16f8
 9601 1b3e E72A0000 		.4byte	.LLST205
 9602 1b42 1C       		.uleb128 0x1c
 9603 1b43 72657300 		.ascii	"res\000"
 9604 1b47 01       		.byte	0x1
 9605 1b48 1F0A     		.2byte	0xa1f
 9606 1b4a ED030000 		.4byte	0x3ed
 9607 1b4e 052B0000 		.4byte	.LLST206
 9608 1b52 1C       		.uleb128 0x1c
 9609 1b53 74696D00 		.ascii	"tim\000"
 9610 1b57 01       		.byte	0x1
 9611 1b58 200A     		.2byte	0xa20
 9612 1b5a 82000000 		.4byte	0x82
 9613 1b5e 2E2B0000 		.4byte	.LLST207
 9614 1b62 1C       		.uleb128 0x1c
 9615 1b63 64697200 		.ascii	"dir\000"
 9616 1b67 01       		.byte	0x1
 9617 1b68 210A     		.2byte	0xa21
 9618 1b6a 76020000 		.4byte	0x276
 9619 1b6e 412B0000 		.4byte	.LLST208
 9620 1b72 2C       		.uleb128 0x2c
 9621 1b73 0C000000 		.4byte	.LVL560
 9622 1b77 AA040000 		.4byte	0x4aa
 9623 1b7b 23       		.uleb128 0x23
 9624 1b7c 30000000 		.4byte	.LVL562
 9625 1b80 CC280000 		.4byte	0x28cc
 9626 1b84 941B0000 		.4byte	0x1b94
 9627 1b88 22       		.uleb128 0x22
 9628 1b89 01       		.byte	0x1
 9629 1b8a 53       		.byte	0x53
 9630 1b8b 01       		.byte	0x1
 9631 1b8c 31       		.byte	0x31
 9632 1b8d 22       		.uleb128 0x22
 9633 1b8e 01       		.byte	0x1
 9634 1b8f 51       		.byte	0x51
 9635 1b90 02       		.byte	0x2
 9636 1b91 74       		.byte	0x74
 9637 1b92 24       		.sleb128 36
 9638 1b93 00       		.byte	0
 9639 1b94 2C       		.uleb128 0x2c
 9640 1b95 44000000 		.4byte	.LVL563
 9641 1b99 B8070000 		.4byte	0x7b8
 9642 1b9d 2C       		.uleb128 0x2c
 9643 1b9e 7C000000 		.4byte	.LVL567
 9644 1ba2 6C290000 		.4byte	0x296c
 9645 1ba6 39       		.uleb128 0x39
ARM GAS  /var/folders/dt/0wfd0knj7gs46m8vwfzktm600000gn/T//cczoWvr4.s 			page 171


 9646 1ba7 A4000000 		.4byte	.LVL569
 9647 1bab 01       		.byte	0x1
 9648 1bac 76080000 		.4byte	0x876
 9649 1bb0 00       		.byte	0
 9650 1bb1 38       		.uleb128 0x38
 9651 1bb2 01       		.byte	0x1
 9652 1bb3 1F020000 		.4byte	.LASF120
 9653 1bb7 01       		.byte	0x1
 9654 1bb8 4A0A     		.2byte	0xa4a
 9655 1bba 01       		.byte	0x1
 9656 1bbb ED030000 		.4byte	0x3ed
 9657 1bbf 00000000 		.4byte	.LFB28
 9658 1bc3 0E000000 		.4byte	.LFE28
 9659 1bc7 542B0000 		.4byte	.LLST209
 9660 1bcb 01       		.byte	0x1
 9661 1bcc FE1B0000 		.4byte	0x1bfe
 9662 1bd0 1A       		.uleb128 0x1a
 9663 1bd1 667000   		.ascii	"fp\000"
 9664 1bd4 01       		.byte	0x1
 9665 1bd5 4B0A     		.2byte	0xa4b
 9666 1bd7 F8160000 		.4byte	0x16f8
 9667 1bdb 742B0000 		.4byte	.LLST210
 9668 1bdf 33       		.uleb128 0x33
 9669 1be0 72657300 		.ascii	"res\000"
 9670 1be4 01       		.byte	0x1
 9671 1be5 4E0A     		.2byte	0xa4e
 9672 1be7 ED030000 		.4byte	0x3ed
 9673 1beb 01       		.byte	0x1
 9674 1bec 50       		.byte	0x50
 9675 1bed 21       		.uleb128 0x21
 9676 1bee 08000000 		.4byte	.LVL571
 9677 1bf2 141B0000 		.4byte	0x1b14
 9678 1bf6 22       		.uleb128 0x22
 9679 1bf7 01       		.byte	0x1
 9680 1bf8 50       		.byte	0x50
 9681 1bf9 02       		.byte	0x2
 9682 1bfa 74       		.byte	0x74
 9683 1bfb 00       		.sleb128 0
 9684 1bfc 00       		.byte	0
 9685 1bfd 00       		.byte	0
 9686 1bfe 38       		.uleb128 0x38
 9687 1bff 01       		.byte	0x1
 9688 1c00 69020000 		.4byte	.LASF121
 9689 1c04 01       		.byte	0x1
 9690 1c05 EE0A     		.2byte	0xaee
 9691 1c07 01       		.byte	0x1
 9692 1c08 ED030000 		.4byte	0x3ed
 9693 1c0c 00000000 		.4byte	.LFB29
 9694 1c10 82010000 		.4byte	.LFE29
 9695 1c14 922B0000 		.4byte	.LLST211
 9696 1c18 01       		.byte	0x1
 9697 1c19 1A1D0000 		.4byte	0x1d1a
 9698 1c1d 1A       		.uleb128 0x1a
 9699 1c1e 667000   		.ascii	"fp\000"
 9700 1c21 01       		.byte	0x1
 9701 1c22 EF0A     		.2byte	0xaef
 9702 1c24 F8160000 		.4byte	0x16f8
ARM GAS  /var/folders/dt/0wfd0knj7gs46m8vwfzktm600000gn/T//cczoWvr4.s 			page 172


 9703 1c28 B22B0000 		.4byte	.LLST212
 9704 1c2c 1A       		.uleb128 0x1a
 9705 1c2d 6F667300 		.ascii	"ofs\000"
 9706 1c31 01       		.byte	0x1
 9707 1c32 F00A     		.2byte	0xaf0
 9708 1c34 82000000 		.4byte	0x82
 9709 1c38 D02B0000 		.4byte	.LLST213
 9710 1c3c 1C       		.uleb128 0x1c
 9711 1c3d 72657300 		.ascii	"res\000"
 9712 1c41 01       		.byte	0x1
 9713 1c42 F30A     		.2byte	0xaf3
 9714 1c44 ED030000 		.4byte	0x3ed
 9715 1c48 302C0000 		.4byte	.LLST214
 9716 1c4c 36       		.uleb128 0x36
 9717 1c4d C8020000 		.4byte	.Ldebug_ranges0+0x2c8
 9718 1c51 101D0000 		.4byte	0x1d10
 9719 1c55 2E       		.uleb128 0x2e
 9720 1c56 59020000 		.4byte	.LASF74
 9721 1c5a 01       		.byte	0x1
 9722 1c5b 360B     		.2byte	0xb36
 9723 1c5d 82000000 		.4byte	0x82
 9724 1c61 432C0000 		.4byte	.LLST215
 9725 1c65 1C       		.uleb128 0x1c
 9726 1c66 62637300 		.ascii	"bcs\000"
 9727 1c6a 01       		.byte	0x1
 9728 1c6b 360B     		.2byte	0xb36
 9729 1c6d 82000000 		.4byte	0x82
 9730 1c71 E72C0000 		.4byte	.LLST216
 9731 1c75 2E       		.uleb128 0x2e
 9732 1c76 75040000 		.4byte	.LASF122
 9733 1c7a 01       		.byte	0x1
 9734 1c7b 360B     		.2byte	0xb36
 9735 1c7d 82000000 		.4byte	0x82
 9736 1c81 102D0000 		.4byte	.LLST217
 9737 1c85 2E       		.uleb128 0x2e
 9738 1c86 AA020000 		.4byte	.LASF123
 9739 1c8a 01       		.byte	0x1
 9740 1c8b 360B     		.2byte	0xb36
 9741 1c8d 82000000 		.4byte	0x82
 9742 1c91 812D0000 		.4byte	.LLST218
 9743 1c95 24       		.uleb128 0x24
 9744 1c96 48050000 		.4byte	0x548
 9745 1c9a 62010000 		.4byte	.LBB188
 9746 1c9e 74010000 		.4byte	.LBE188
 9747 1ca2 01       		.byte	0x1
 9748 1ca3 660B     		.2byte	0xb66
 9749 1ca5 BC1C0000 		.4byte	0x1cbc
 9750 1ca9 25       		.uleb128 0x25
 9751 1caa 66050000 		.4byte	0x566
 9752 1cae B82D0000 		.4byte	.LLST219
 9753 1cb2 25       		.uleb128 0x25
 9754 1cb3 5B050000 		.4byte	0x55b
 9755 1cb7 CB2D0000 		.4byte	.LLST220
 9756 1cbb 00       		.byte	0
 9757 1cbc 23       		.uleb128 0x23
 9758 1cbd 8A000000 		.4byte	.LVL585
 9759 1cc1 CC280000 		.4byte	0x28cc
ARM GAS  /var/folders/dt/0wfd0knj7gs46m8vwfzktm600000gn/T//cczoWvr4.s 			page 173


 9760 1cc5 D51C0000 		.4byte	0x1cd5
 9761 1cc9 22       		.uleb128 0x22
 9762 1cca 01       		.byte	0x1
 9763 1ccb 53       		.byte	0x53
 9764 1ccc 01       		.byte	0x1
 9765 1ccd 31       		.byte	0x31
 9766 1cce 22       		.uleb128 0x22
 9767 1ccf 01       		.byte	0x1
 9768 1cd0 51       		.byte	0x51
 9769 1cd1 02       		.byte	0x2
 9770 1cd2 77       		.byte	0x77
 9771 1cd3 00       		.sleb128 0
 9772 1cd4 00       		.byte	0
 9773 1cd5 23       		.uleb128 0x23
 9774 1cd6 A2000000 		.4byte	.LVL586
 9775 1cda F3280000 		.4byte	0x28f3
 9776 1cde F41C0000 		.4byte	0x1cf4
 9777 1ce2 22       		.uleb128 0x22
 9778 1ce3 01       		.byte	0x1
 9779 1ce4 53       		.byte	0x53
 9780 1ce5 01       		.byte	0x1
 9781 1ce6 31       		.byte	0x31
 9782 1ce7 22       		.uleb128 0x22
 9783 1ce8 01       		.byte	0x1
 9784 1ce9 52       		.byte	0x52
 9785 1cea 02       		.byte	0x2
 9786 1ceb 75       		.byte	0x75
 9787 1cec 00       		.sleb128 0
 9788 1ced 22       		.uleb128 0x22
 9789 1cee 01       		.byte	0x1
 9790 1cef 51       		.byte	0x51
 9791 1cf0 02       		.byte	0x2
 9792 1cf1 77       		.byte	0x77
 9793 1cf2 00       		.sleb128 0
 9794 1cf3 00       		.byte	0
 9795 1cf4 2C       		.uleb128 0x2c
 9796 1cf5 C8000000 		.4byte	.LVL590
 9797 1cf9 6A0E0000 		.4byte	0xe6a
 9798 1cfd 2C       		.uleb128 0x2c
 9799 1cfe F2000000 		.4byte	.LVL595
 9800 1d02 6A0E0000 		.4byte	0xe6a
 9801 1d06 2C       		.uleb128 0x2c
 9802 1d07 32010000 		.4byte	.LVL600
 9803 1d0b FD040000 		.4byte	0x4fd
 9804 1d0f 00       		.byte	0
 9805 1d10 2C       		.uleb128 0x2c
 9806 1d11 0E000000 		.4byte	.LVL575
 9807 1d15 AA040000 		.4byte	0x4aa
 9808 1d19 00       		.byte	0
 9809 1d1a 38       		.uleb128 0x38
 9810 1d1b 01       		.byte	0x1
 9811 1d1c B4040000 		.4byte	.LASF124
 9812 1d20 01       		.byte	0x1
 9813 1d21 8C0B     		.2byte	0xb8c
 9814 1d23 01       		.byte	0x1
 9815 1d24 ED030000 		.4byte	0x3ed
 9816 1d28 00000000 		.4byte	.LFB30
ARM GAS  /var/folders/dt/0wfd0knj7gs46m8vwfzktm600000gn/T//cczoWvr4.s 			page 174


 9817 1d2c 68000000 		.4byte	.LFE30
 9818 1d30 EA2D0000 		.4byte	.LLST221
 9819 1d34 01       		.byte	0x1
 9820 1d35 C01D0000 		.4byte	0x1dc0
 9821 1d39 1A       		.uleb128 0x1a
 9822 1d3a 646A00   		.ascii	"dj\000"
 9823 1d3d 01       		.byte	0x1
 9824 1d3e 8D0B     		.2byte	0xb8d
 9825 1d40 9D050000 		.4byte	0x59d
 9826 1d44 162E0000 		.4byte	.LLST222
 9827 1d48 1E       		.uleb128 0x1e
 9828 1d49 6E000000 		.4byte	.LASF89
 9829 1d4d 01       		.byte	0x1
 9830 1d4e 8E0B     		.2byte	0xb8e
 9831 1d50 930B0000 		.4byte	0xb93
 9832 1d54 3F2E0000 		.4byte	.LLST223
 9833 1d58 1C       		.uleb128 0x1c
 9834 1d59 72657300 		.ascii	"res\000"
 9835 1d5d 01       		.byte	0x1
 9836 1d5e 910B     		.2byte	0xb91
 9837 1d60 ED030000 		.4byte	0x3ed
 9838 1d64 762E0000 		.4byte	.LLST224
 9839 1d68 33       		.uleb128 0x33
 9840 1d69 73666E00 		.ascii	"sfn\000"
 9841 1d6d 01       		.byte	0x1
 9842 1d6e 920B     		.2byte	0xb92
 9843 1d70 FE160000 		.4byte	0x16fe
 9844 1d74 02       		.byte	0x2
 9845 1d75 91       		.byte	0x91
 9846 1d76 64       		.sleb128 -28
 9847 1d77 23       		.uleb128 0x23
 9848 1d78 16000000 		.4byte	.LVL619
 9849 1d7c FF090000 		.4byte	0x9ff
 9850 1d80 961D0000 		.4byte	0x1d96
 9851 1d84 22       		.uleb128 0x22
 9852 1d85 01       		.byte	0x1
 9853 1d86 52       		.byte	0x52
 9854 1d87 01       		.byte	0x1
 9855 1d88 30       		.byte	0x30
 9856 1d89 22       		.uleb128 0x22
 9857 1d8a 01       		.byte	0x1
 9858 1d8b 51       		.byte	0x51
 9859 1d8c 02       		.byte	0x2
 9860 1d8d 74       		.byte	0x74
 9861 1d8e 00       		.sleb128 0
 9862 1d8f 22       		.uleb128 0x22
 9863 1d90 01       		.byte	0x1
 9864 1d91 50       		.byte	0x50
 9865 1d92 02       		.byte	0x2
 9866 1d93 91       		.byte	0x91
 9867 1d94 5C       		.sleb128 -36
 9868 1d95 00       		.byte	0
 9869 1d96 23       		.uleb128 0x23
 9870 1d97 28000000 		.4byte	.LVL623
 9871 1d9b 34110000 		.4byte	0x1134
 9872 1d9f AA1D0000 		.4byte	0x1daa
 9873 1da3 22       		.uleb128 0x22
ARM GAS  /var/folders/dt/0wfd0knj7gs46m8vwfzktm600000gn/T//cczoWvr4.s 			page 175


 9874 1da4 01       		.byte	0x1
 9875 1da5 50       		.byte	0x50
 9876 1da6 02       		.byte	0x2
 9877 1da7 74       		.byte	0x74
 9878 1da8 00       		.sleb128 0
 9879 1da9 00       		.byte	0
 9880 1daa 21       		.uleb128 0x21
 9881 1dab 60000000 		.4byte	.LVL626
 9882 1daf 940C0000 		.4byte	0xc94
 9883 1db3 22       		.uleb128 0x22
 9884 1db4 01       		.byte	0x1
 9885 1db5 51       		.byte	0x51
 9886 1db6 01       		.byte	0x1
 9887 1db7 30       		.byte	0x30
 9888 1db8 22       		.uleb128 0x22
 9889 1db9 01       		.byte	0x1
 9890 1dba 50       		.byte	0x50
 9891 1dbb 02       		.byte	0x2
 9892 1dbc 74       		.byte	0x74
 9893 1dbd 00       		.sleb128 0
 9894 1dbe 00       		.byte	0
 9895 1dbf 00       		.byte	0
 9896 1dc0 38       		.uleb128 0x38
 9897 1dc1 01       		.byte	0x1
 9898 1dc2 5B040000 		.4byte	.LASF125
 9899 1dc6 01       		.byte	0x1
 9900 1dc7 B40B     		.2byte	0xbb4
 9901 1dc9 01       		.byte	0x1
 9902 1dca ED030000 		.4byte	0x3ed
 9903 1dce 00000000 		.4byte	.LFB31
 9904 1dd2 58000000 		.4byte	.LFE31
 9905 1dd6 B62E0000 		.4byte	.LLST225
 9906 1dda 01       		.byte	0x1
 9907 1ddb 841E0000 		.4byte	0x1e84
 9908 1ddf 1A       		.uleb128 0x1a
 9909 1de0 646A00   		.ascii	"dj\000"
 9910 1de3 01       		.byte	0x1
 9911 1de4 B50B     		.2byte	0xbb5
 9912 1de6 9D050000 		.4byte	0x59d
 9913 1dea E22E0000 		.4byte	.LLST226
 9914 1dee 1A       		.uleb128 0x1a
 9915 1def 666E6F00 		.ascii	"fno\000"
 9916 1df3 01       		.byte	0x1
 9917 1df4 B60B     		.2byte	0xbb6
 9918 1df6 AC070000 		.4byte	0x7ac
 9919 1dfa 002F0000 		.4byte	.LLST227
 9920 1dfe 1C       		.uleb128 0x1c
 9921 1dff 72657300 		.ascii	"res\000"
 9922 1e03 01       		.byte	0x1
 9923 1e04 B90B     		.2byte	0xbb9
 9924 1e06 ED030000 		.4byte	0x3ed
 9925 1e0a 1E2F0000 		.4byte	.LLST228
 9926 1e0e 33       		.uleb128 0x33
 9927 1e0f 73666E00 		.ascii	"sfn\000"
 9928 1e13 01       		.byte	0x1
 9929 1e14 BA0B     		.2byte	0xbba
 9930 1e16 FE160000 		.4byte	0x16fe
ARM GAS  /var/folders/dt/0wfd0knj7gs46m8vwfzktm600000gn/T//cczoWvr4.s 			page 176


 9931 1e1a 02       		.byte	0x2
 9932 1e1b 91       		.byte	0x91
 9933 1e1c 64       		.sleb128 -28
 9934 1e1d 2C       		.uleb128 0x2c
 9935 1e1e 10000000 		.4byte	.LVL631
 9936 1e22 AA040000 		.4byte	0x4aa
 9937 1e26 23       		.uleb128 0x23
 9938 1e27 20000000 		.4byte	.LVL633
 9939 1e2b 78140000 		.4byte	0x1478
 9940 1e2f 3A1E0000 		.4byte	0x1e3a
 9941 1e33 22       		.uleb128 0x22
 9942 1e34 01       		.byte	0x1
 9943 1e35 50       		.byte	0x50
 9944 1e36 02       		.byte	0x2
 9945 1e37 74       		.byte	0x74
 9946 1e38 00       		.sleb128 0
 9947 1e39 00       		.byte	0
 9948 1e3a 23       		.uleb128 0x23
 9949 1e3b 3A000000 		.4byte	.LVL638
 9950 1e3f 2B070000 		.4byte	0x72b
 9951 1e43 541E0000 		.4byte	0x1e54
 9952 1e47 22       		.uleb128 0x22
 9953 1e48 01       		.byte	0x1
 9954 1e49 51       		.byte	0x51
 9955 1e4a 02       		.byte	0x2
 9956 1e4b 76       		.byte	0x76
 9957 1e4c 00       		.sleb128 0
 9958 1e4d 22       		.uleb128 0x22
 9959 1e4e 01       		.byte	0x1
 9960 1e4f 50       		.byte	0x50
 9961 1e50 02       		.byte	0x2
 9962 1e51 74       		.byte	0x74
 9963 1e52 00       		.sleb128 0
 9964 1e53 00       		.byte	0
 9965 1e54 23       		.uleb128 0x23
 9966 1e55 42000000 		.4byte	.LVL639
 9967 1e59 490F0000 		.4byte	0xf49
 9968 1e5d 6D1E0000 		.4byte	0x1e6d
 9969 1e61 22       		.uleb128 0x22
 9970 1e62 01       		.byte	0x1
 9971 1e63 51       		.byte	0x51
 9972 1e64 01       		.byte	0x1
 9973 1e65 30       		.byte	0x30
 9974 1e66 22       		.uleb128 0x22
 9975 1e67 01       		.byte	0x1
 9976 1e68 50       		.byte	0x50
 9977 1e69 02       		.byte	0x2
 9978 1e6a 74       		.byte	0x74
 9979 1e6b 00       		.sleb128 0
 9980 1e6c 00       		.byte	0
 9981 1e6d 21       		.uleb128 0x21
 9982 1e6e 54000000 		.4byte	.LVL643
 9983 1e72 940C0000 		.4byte	0xc94
 9984 1e76 22       		.uleb128 0x22
 9985 1e77 01       		.byte	0x1
 9986 1e78 51       		.byte	0x51
 9987 1e79 02       		.byte	0x2
ARM GAS  /var/folders/dt/0wfd0knj7gs46m8vwfzktm600000gn/T//cczoWvr4.s 			page 177


 9988 1e7a 75       		.byte	0x75
 9989 1e7b 00       		.sleb128 0
 9990 1e7c 22       		.uleb128 0x22
 9991 1e7d 01       		.byte	0x1
 9992 1e7e 50       		.byte	0x50
 9993 1e7f 02       		.byte	0x2
 9994 1e80 74       		.byte	0x74
 9995 1e81 00       		.sleb128 0
 9996 1e82 00       		.byte	0
 9997 1e83 00       		.byte	0
 9998 1e84 38       		.uleb128 0x38
 9999 1e85 01       		.byte	0x1
 10000 1e86 B2010000 		.4byte	.LASF126
 10001 1e8a 01       		.byte	0x1
 10002 1e8b DE0B     		.2byte	0xbde
 10003 1e8d 01       		.byte	0x1
 10004 1e8e ED030000 		.4byte	0x3ed
 10005 1e92 00000000 		.4byte	.LFB32
 10006 1e96 44000000 		.4byte	.LFE32
 10007 1e9a 7F2F0000 		.4byte	.LLST229
 10008 1e9e 01       		.byte	0x1
 10009 1e9f 3A1F0000 		.4byte	0x1f3a
 10010 1ea3 1E       		.uleb128 0x1e
 10011 1ea4 6E000000 		.4byte	.LASF89
 10012 1ea8 01       		.byte	0x1
 10013 1ea9 DF0B     		.2byte	0xbdf
 10014 1eab 930B0000 		.4byte	0xb93
 10015 1eaf AC2F0000 		.4byte	.LLST230
 10016 1eb3 1A       		.uleb128 0x1a
 10017 1eb4 666E6F00 		.ascii	"fno\000"
 10018 1eb8 01       		.byte	0x1
 10019 1eb9 E00B     		.2byte	0xbe0
 10020 1ebb AC070000 		.4byte	0x7ac
 10021 1ebf E32F0000 		.4byte	.LLST231
 10022 1ec3 1C       		.uleb128 0x1c
 10023 1ec4 72657300 		.ascii	"res\000"
 10024 1ec8 01       		.byte	0x1
 10025 1ec9 E30B     		.2byte	0xbe3
 10026 1ecb ED030000 		.4byte	0x3ed
 10027 1ecf 01300000 		.4byte	.LLST232
 10028 1ed3 33       		.uleb128 0x33
 10029 1ed4 646A00   		.ascii	"dj\000"
 10030 1ed7 01       		.byte	0x1
 10031 1ed8 E40B     		.2byte	0xbe4
 10032 1eda FD020000 		.4byte	0x2fd
 10033 1ede 02       		.byte	0x2
 10034 1edf 91       		.byte	0x91
 10035 1ee0 54       		.sleb128 -44
 10036 1ee1 33       		.uleb128 0x33
 10037 1ee2 73666E00 		.ascii	"sfn\000"
 10038 1ee6 01       		.byte	0x1
 10039 1ee7 E50B     		.2byte	0xbe5
 10040 1ee9 FE160000 		.4byte	0x16fe
 10041 1eed 02       		.byte	0x2
 10042 1eee 91       		.byte	0x91
 10043 1eef 48       		.sleb128 -56
 10044 1ef0 23       		.uleb128 0x23
ARM GAS  /var/folders/dt/0wfd0knj7gs46m8vwfzktm600000gn/T//cczoWvr4.s 			page 178


 10045 1ef1 16000000 		.4byte	.LVL648
 10046 1ef5 FF090000 		.4byte	0x9ff
 10047 1ef9 0F1F0000 		.4byte	0x1f0f
 10048 1efd 22       		.uleb128 0x22
 10049 1efe 01       		.byte	0x1
 10050 1eff 52       		.byte	0x52
 10051 1f00 01       		.byte	0x1
 10052 1f01 30       		.byte	0x30
 10053 1f02 22       		.uleb128 0x22
 10054 1f03 01       		.byte	0x1
 10055 1f04 51       		.byte	0x51
 10056 1f05 02       		.byte	0x2
 10057 1f06 91       		.byte	0x91
 10058 1f07 54       		.sleb128 -44
 10059 1f08 22       		.uleb128 0x22
 10060 1f09 01       		.byte	0x1
 10061 1f0a 50       		.byte	0x50
 10062 1f0b 02       		.byte	0x2
 10063 1f0c 91       		.byte	0x91
 10064 1f0d 44       		.sleb128 -60
 10065 1f0e 00       		.byte	0
 10066 1f0f 23       		.uleb128 0x23
 10067 1f10 2C000000 		.4byte	.LVL652
 10068 1f14 34110000 		.4byte	0x1134
 10069 1f18 231F0000 		.4byte	0x1f23
 10070 1f1c 22       		.uleb128 0x22
 10071 1f1d 01       		.byte	0x1
 10072 1f1e 50       		.byte	0x50
 10073 1f1f 02       		.byte	0x2
 10074 1f20 91       		.byte	0x91
 10075 1f21 54       		.sleb128 -44
 10076 1f22 00       		.byte	0
 10077 1f23 21       		.uleb128 0x21
 10078 1f24 3E000000 		.4byte	.LVL654
 10079 1f28 2B070000 		.4byte	0x72b
 10080 1f2c 22       		.uleb128 0x22
 10081 1f2d 01       		.byte	0x1
 10082 1f2e 51       		.byte	0x51
 10083 1f2f 02       		.byte	0x2
 10084 1f30 75       		.byte	0x75
 10085 1f31 00       		.sleb128 0
 10086 1f32 22       		.uleb128 0x22
 10087 1f33 01       		.byte	0x1
 10088 1f34 50       		.byte	0x50
 10089 1f35 02       		.byte	0x2
 10090 1f36 91       		.byte	0x91
 10091 1f37 54       		.sleb128 -44
 10092 1f38 00       		.byte	0
 10093 1f39 00       		.byte	0
 10094 1f3a 38       		.uleb128 0x38
 10095 1f3b 01       		.byte	0x1
 10096 1f3c 9E030000 		.4byte	.LASF127
 10097 1f40 01       		.byte	0x1
 10098 1f41 FF0B     		.2byte	0xbff
 10099 1f43 01       		.byte	0x1
 10100 1f44 ED030000 		.4byte	0x3ed
 10101 1f48 00000000 		.4byte	.LFB33
ARM GAS  /var/folders/dt/0wfd0knj7gs46m8vwfzktm600000gn/T//cczoWvr4.s 			page 179


 10102 1f4c 0E010000 		.4byte	.LFE33
 10103 1f50 40300000 		.4byte	.LLST233
 10104 1f54 01       		.byte	0x1
 10105 1f55 53200000 		.4byte	0x2053
 10106 1f59 1E       		.uleb128 0x1e
 10107 1f5a 6E000000 		.4byte	.LASF89
 10108 1f5e 01       		.byte	0x1
 10109 1f5f 000C     		.2byte	0xc00
 10110 1f61 930B0000 		.4byte	0xb93
 10111 1f65 6C300000 		.4byte	.LLST234
 10112 1f69 1E       		.uleb128 0x1e
 10113 1f6a 31030000 		.4byte	.LASF96
 10114 1f6e 01       		.byte	0x1
 10115 1f6f 010C     		.2byte	0xc01
 10116 1f71 53200000 		.4byte	0x2053
 10117 1f75 8B300000 		.4byte	.LLST235
 10118 1f79 1E       		.uleb128 0x1e
 10119 1f7a 6B030000 		.4byte	.LASF128
 10120 1f7e 01       		.byte	0x1
 10121 1f7f 020C     		.2byte	0xc02
 10122 1f81 9E0B0000 		.4byte	0xb9e
 10123 1f85 A9300000 		.4byte	.LLST236
 10124 1f89 1C       		.uleb128 0x1c
 10125 1f8a 72657300 		.ascii	"res\000"
 10126 1f8e 01       		.byte	0x1
 10127 1f8f 050C     		.2byte	0xc05
 10128 1f91 ED030000 		.4byte	0x3ed
 10129 1f95 D2300000 		.4byte	.LLST237
 10130 1f99 1C       		.uleb128 0x1c
 10131 1f9a 6E00     		.ascii	"n\000"
 10132 1f9c 01       		.byte	0x1
 10133 1f9d 060C     		.2byte	0xc06
 10134 1f9f 82000000 		.4byte	0x82
 10135 1fa3 4B310000 		.4byte	.LLST238
 10136 1fa7 2E       		.uleb128 0x2e
 10137 1fa8 59020000 		.4byte	.LASF74
 10138 1fac 01       		.byte	0x1
 10139 1fad 060C     		.2byte	0xc06
 10140 1faf 82000000 		.4byte	0x82
 10141 1fb3 8C310000 		.4byte	.LLST239
 10142 1fb7 2E       		.uleb128 0x2e
 10143 1fb8 81000000 		.4byte	.LASF38
 10144 1fbc 01       		.byte	0x1
 10145 1fbd 060C     		.2byte	0xc06
 10146 1fbf 82000000 		.4byte	0x82
 10147 1fc3 FD310000 		.4byte	.LLST240
 10148 1fc7 2E       		.uleb128 0x2e
 10149 1fc8 4A050000 		.4byte	.LASF91
 10150 1fcc 01       		.byte	0x1
 10151 1fcd 060C     		.2byte	0xc06
 10152 1fcf 82000000 		.4byte	0x82
 10153 1fd3 3C320000 		.4byte	.LLST241
 10154 1fd7 1C       		.uleb128 0x1c
 10155 1fd8 6900     		.ascii	"i\000"
 10156 1fda 01       		.byte	0x1
 10157 1fdb 070C     		.2byte	0xc07
 10158 1fdd 30000000 		.4byte	0x30
ARM GAS  /var/folders/dt/0wfd0knj7gs46m8vwfzktm600000gn/T//cczoWvr4.s 			page 180


 10159 1fe1 5A320000 		.4byte	.LLST242
 10160 1fe5 1C       		.uleb128 0x1c
 10161 1fe6 66617400 		.ascii	"fat\000"
 10162 1fea 01       		.byte	0x1
 10163 1feb 080C     		.2byte	0xc08
 10164 1fed 50000000 		.4byte	0x50
 10165 1ff1 9D320000 		.4byte	.LLST243
 10166 1ff5 1C       		.uleb128 0x1c
 10167 1ff6 7000     		.ascii	"p\000"
 10168 1ff8 01       		.byte	0x1
 10169 1ff9 080C     		.2byte	0xc08
 10170 1ffb 76020000 		.4byte	0x276
 10171 1fff DE320000 		.4byte	.LLST244
 10172 2003 23       		.uleb128 0x23
 10173 2004 1A000000 		.4byte	.LVL660
 10174 2008 FF090000 		.4byte	0x9ff
 10175 200c 22200000 		.4byte	0x2022
 10176 2010 22       		.uleb128 0x22
 10177 2011 01       		.byte	0x1
 10178 2012 52       		.byte	0x52
 10179 2013 01       		.byte	0x1
 10180 2014 30       		.byte	0x30
 10181 2015 22       		.uleb128 0x22
 10182 2016 01       		.byte	0x1
 10183 2017 51       		.byte	0x51
 10184 2018 02       		.byte	0x2
 10185 2019 78       		.byte	0x78
 10186 201a 00       		.sleb128 0
 10187 201b 22       		.uleb128 0x22
 10188 201c 01       		.byte	0x1
 10189 201d 50       		.byte	0x50
 10190 201e 02       		.byte	0x2
 10191 201f 91       		.byte	0x91
 10192 2020 54       		.sleb128 -44
 10193 2021 00       		.byte	0
 10194 2022 23       		.uleb128 0x23
 10195 2023 96000000 		.4byte	.LVL673
 10196 2027 B8070000 		.4byte	0x7b8
 10197 202b 3C200000 		.4byte	0x203c
 10198 202f 22       		.uleb128 0x22
 10199 2030 01       		.byte	0x1
 10200 2031 51       		.byte	0x51
 10201 2032 02       		.byte	0x2
 10202 2033 76       		.byte	0x76
 10203 2034 7F       		.sleb128 -1
 10204 2035 22       		.uleb128 0x22
 10205 2036 01       		.byte	0x1
 10206 2037 50       		.byte	0x50
 10207 2038 02       		.byte	0x2
 10208 2039 75       		.byte	0x75
 10209 203a 00       		.sleb128 0
 10210 203b 00       		.byte	0
 10211 203c 21       		.uleb128 0x21
 10212 203d D6000000 		.4byte	.LVL682
 10213 2041 FD040000 		.4byte	0x4fd
 10214 2045 22       		.uleb128 0x22
 10215 2046 01       		.byte	0x1
ARM GAS  /var/folders/dt/0wfd0knj7gs46m8vwfzktm600000gn/T//cczoWvr4.s 			page 181


 10216 2047 51       		.byte	0x51
 10217 2048 02       		.byte	0x2
 10218 2049 74       		.byte	0x74
 10219 204a 00       		.sleb128 0
 10220 204b 22       		.uleb128 0x22
 10221 204c 01       		.byte	0x1
 10222 204d 50       		.byte	0x50
 10223 204e 02       		.byte	0x2
 10224 204f 75       		.byte	0x75
 10225 2050 00       		.sleb128 0
 10226 2051 00       		.byte	0
 10227 2052 00       		.byte	0
 10228 2053 0A       		.uleb128 0xa
 10229 2054 04       		.byte	0x4
 10230 2055 82000000 		.4byte	0x82
 10231 2059 38       		.uleb128 0x38
 10232 205a 01       		.byte	0x1
 10233 205b 1A050000 		.4byte	.LASF129
 10234 205f 01       		.byte	0x1
 10235 2060 400C     		.2byte	0xc40
 10236 2062 01       		.byte	0x1
 10237 2063 ED030000 		.4byte	0x3ed
 10238 2067 00000000 		.4byte	.LFB34
 10239 206b 92000000 		.4byte	.LFE34
 10240 206f 13330000 		.4byte	.LLST245
 10241 2073 01       		.byte	0x1
 10242 2074 EA200000 		.4byte	0x20ea
 10243 2078 1A       		.uleb128 0x1a
 10244 2079 667000   		.ascii	"fp\000"
 10245 207c 01       		.byte	0x1
 10246 207d 410C     		.2byte	0xc41
 10247 207f F8160000 		.4byte	0x16f8
 10248 2083 33330000 		.4byte	.LLST246
 10249 2087 1C       		.uleb128 0x1c
 10250 2088 72657300 		.ascii	"res\000"
 10251 208c 01       		.byte	0x1
 10252 208d 440C     		.2byte	0xc44
 10253 208f ED030000 		.4byte	0x3ed
 10254 2093 51330000 		.4byte	.LLST247
 10255 2097 1C       		.uleb128 0x1c
 10256 2098 6E636C00 		.ascii	"ncl\000"
 10257 209c 01       		.byte	0x1
 10258 209d 450C     		.2byte	0xc45
 10259 209f 82000000 		.4byte	0x82
 10260 20a3 CB330000 		.4byte	.LLST248
 10261 20a7 2C       		.uleb128 0x2c
 10262 20a8 0C000000 		.4byte	.LVL690
 10263 20ac AA040000 		.4byte	0x4aa
 10264 20b0 2C       		.uleb128 0x2c
 10265 20b1 38000000 		.4byte	.LVL692
 10266 20b5 E9060000 		.4byte	0x6e9
 10267 20b9 2C       		.uleb128 0x2c
 10268 20ba 5C000000 		.4byte	.LVL700
 10269 20be FD040000 		.4byte	0x4fd
 10270 20c2 23       		.uleb128 0x23
 10271 20c3 78000000 		.4byte	.LVL703
 10272 20c7 A3050000 		.4byte	0x5a3
ARM GAS  /var/folders/dt/0wfd0knj7gs46m8vwfzktm600000gn/T//cczoWvr4.s 			page 182


 10273 20cb D9200000 		.4byte	0x20d9
 10274 20cf 22       		.uleb128 0x22
 10275 20d0 01       		.byte	0x1
 10276 20d1 52       		.byte	0x52
 10277 20d2 05       		.byte	0x5
 10278 20d3 0C       		.byte	0xc
 10279 20d4 FFFFFF0F 		.4byte	0xfffffff
 10280 20d8 00       		.byte	0
 10281 20d9 21       		.uleb128 0x21
 10282 20da 86000000 		.4byte	.LVL705
 10283 20de E9060000 		.4byte	0x6e9
 10284 20e2 22       		.uleb128 0x22
 10285 20e3 01       		.byte	0x1
 10286 20e4 51       		.byte	0x51
 10287 20e5 02       		.byte	0x2
 10288 20e6 76       		.byte	0x76
 10289 20e7 00       		.sleb128 0
 10290 20e8 00       		.byte	0
 10291 20e9 00       		.byte	0
 10292 20ea 38       		.uleb128 0x38
 10293 20eb 01       		.byte	0x1
 10294 20ec DF030000 		.4byte	.LASF130
 10295 20f0 01       		.byte	0x1
 10296 20f1 700C     		.2byte	0xc70
 10297 20f3 01       		.byte	0x1
 10298 20f4 ED030000 		.4byte	0x3ed
 10299 20f8 00000000 		.4byte	.LFB35
 10300 20fc AA000000 		.4byte	.LFE35
 10301 2100 F4330000 		.4byte	.LLST249
 10302 2104 01       		.byte	0x1
 10303 2105 41220000 		.4byte	0x2241
 10304 2109 1E       		.uleb128 0x1e
 10305 210a 6E000000 		.4byte	.LASF89
 10306 210e 01       		.byte	0x1
 10307 210f 710C     		.2byte	0xc71
 10308 2111 930B0000 		.4byte	0xb93
 10309 2115 21340000 		.4byte	.LLST250
 10310 2119 1C       		.uleb128 0x1c
 10311 211a 72657300 		.ascii	"res\000"
 10312 211e 01       		.byte	0x1
 10313 211f 740C     		.2byte	0xc74
 10314 2121 ED030000 		.4byte	0x3ed
 10315 2125 5B340000 		.4byte	.LLST251
 10316 2129 33       		.uleb128 0x33
 10317 212a 646A00   		.ascii	"dj\000"
 10318 212d 01       		.byte	0x1
 10319 212e 750C     		.2byte	0xc75
 10320 2130 FD020000 		.4byte	0x2fd
 10321 2134 03       		.byte	0x3
 10322 2135 91       		.byte	0x91
 10323 2136 B87F     		.sleb128 -72
 10324 2138 33       		.uleb128 0x33
 10325 2139 73646A00 		.ascii	"sdj\000"
 10326 213d 01       		.byte	0x1
 10327 213e 750C     		.2byte	0xc75
 10328 2140 FD020000 		.4byte	0x2fd
 10329 2144 02       		.byte	0x2
ARM GAS  /var/folders/dt/0wfd0knj7gs46m8vwfzktm600000gn/T//cczoWvr4.s 			page 183


 10330 2145 91       		.byte	0x91
 10331 2146 54       		.sleb128 -44
 10332 2147 1C       		.uleb128 0x1c
 10333 2148 64697200 		.ascii	"dir\000"
 10334 214c 01       		.byte	0x1
 10335 214d 760C     		.2byte	0xc76
 10336 214f 76020000 		.4byte	0x276
 10337 2153 DE340000 		.4byte	.LLST252
 10338 2157 2E       		.uleb128 0x2e
 10339 2158 B0030000 		.4byte	.LASF131
 10340 215c 01       		.byte	0x1
 10341 215d 770C     		.2byte	0xc77
 10342 215f 82000000 		.4byte	0x82
 10343 2163 FD340000 		.4byte	.LLST253
 10344 2167 33       		.uleb128 0x33
 10345 2168 73666E00 		.ascii	"sfn\000"
 10346 216c 01       		.byte	0x1
 10347 216d 780C     		.2byte	0xc78
 10348 216f FE160000 		.4byte	0x16fe
 10349 2173 03       		.byte	0x3
 10350 2174 91       		.byte	0x91
 10351 2175 AC7F     		.sleb128 -84
 10352 2177 24       		.uleb128 0x24
 10353 2178 62060000 		.4byte	0x662
 10354 217c 5E000000 		.4byte	.LBB191
 10355 2180 6A000000 		.4byte	.LBE191
 10356 2184 01       		.byte	0x1
 10357 2185 910C     		.2byte	0xc91
 10358 2187 AF210000 		.4byte	0x21af
 10359 218b 2B       		.uleb128 0x2b
 10360 218c 88060000 		.4byte	0x688
 10361 2190 2B       		.uleb128 0x2b
 10362 2191 7C060000 		.4byte	0x67c
 10363 2195 2B       		.uleb128 0x2b
 10364 2196 70060000 		.4byte	0x670
 10365 219a 27       		.uleb128 0x27
 10366 219b 5E000000 		.4byte	.LBB192
 10367 219f 6A000000 		.4byte	.LBE192
 10368 21a3 30       		.uleb128 0x30
 10369 21a4 94060000 		.4byte	0x694
 10370 21a8 30       		.uleb128 0x30
 10371 21a9 9E060000 		.4byte	0x69e
 10372 21ad 00       		.byte	0
 10373 21ae 00       		.byte	0
 10374 21af 23       		.uleb128 0x23
 10375 21b0 14000000 		.4byte	.LVL710
 10376 21b4 FF090000 		.4byte	0x9ff
 10377 21b8 D0210000 		.4byte	0x21d0
 10378 21bc 22       		.uleb128 0x22
 10379 21bd 01       		.byte	0x1
 10380 21be 52       		.byte	0x52
 10381 21bf 01       		.byte	0x1
 10382 21c0 31       		.byte	0x31
 10383 21c1 22       		.uleb128 0x22
 10384 21c2 01       		.byte	0x1
 10385 21c3 51       		.byte	0x51
 10386 21c4 03       		.byte	0x3
ARM GAS  /var/folders/dt/0wfd0knj7gs46m8vwfzktm600000gn/T//cczoWvr4.s 			page 184


 10387 21c5 91       		.byte	0x91
 10388 21c6 B87F     		.sleb128 -72
 10389 21c8 22       		.uleb128 0x22
 10390 21c9 01       		.byte	0x1
 10391 21ca 50       		.byte	0x50
 10392 21cb 03       		.byte	0x3
 10393 21cc 91       		.byte	0x91
 10394 21cd A47F     		.sleb128 -92
 10395 21cf 00       		.byte	0
 10396 21d0 23       		.uleb128 0x23
 10397 21d1 26000000 		.4byte	.LVL714
 10398 21d5 34110000 		.4byte	0x1134
 10399 21d9 E5210000 		.4byte	0x21e5
 10400 21dd 22       		.uleb128 0x22
 10401 21de 01       		.byte	0x1
 10402 21df 50       		.byte	0x50
 10403 21e0 03       		.byte	0x3
 10404 21e1 91       		.byte	0x91
 10405 21e2 B87F     		.sleb128 -72
 10406 21e4 00       		.byte	0
 10407 21e5 23       		.uleb128 0x23
 10408 21e6 74000000 		.4byte	.LVL724
 10409 21ea 940C0000 		.4byte	0xc94
 10410 21ee FE210000 		.4byte	0x21fe
 10411 21f2 22       		.uleb128 0x22
 10412 21f3 01       		.byte	0x1
 10413 21f4 51       		.byte	0x51
 10414 21f5 01       		.byte	0x1
 10415 21f6 32       		.byte	0x32
 10416 21f7 22       		.uleb128 0x22
 10417 21f8 01       		.byte	0x1
 10418 21f9 50       		.byte	0x50
 10419 21fa 02       		.byte	0x2
 10420 21fb 74       		.byte	0x74
 10421 21fc 00       		.sleb128 0
 10422 21fd 00       		.byte	0
 10423 21fe 23       		.uleb128 0x23
 10424 21ff 7E000000 		.4byte	.LVL726
 10425 2203 78140000 		.4byte	0x1478
 10426 2207 12220000 		.4byte	0x2212
 10427 220b 22       		.uleb128 0x22
 10428 220c 01       		.byte	0x1
 10429 220d 50       		.byte	0x50
 10430 220e 02       		.byte	0x2
 10431 220f 74       		.byte	0x74
 10432 2210 00       		.sleb128 0
 10433 2211 00       		.byte	0
 10434 2212 23       		.uleb128 0x23
 10435 2213 8A000000 		.4byte	.LVL728
 10436 2217 73050000 		.4byte	0x573
 10437 221b 27220000 		.4byte	0x2227
 10438 221f 22       		.uleb128 0x22
 10439 2220 01       		.byte	0x1
 10440 2221 50       		.byte	0x50
 10441 2222 03       		.byte	0x3
 10442 2223 91       		.byte	0x91
 10443 2224 B87F     		.sleb128 -72
ARM GAS  /var/folders/dt/0wfd0knj7gs46m8vwfzktm600000gn/T//cczoWvr4.s 			page 185


 10444 2226 00       		.byte	0
 10445 2227 2C       		.uleb128 0x2c
 10446 2228 96000000 		.4byte	.LVL730
 10447 222c 76080000 		.4byte	0x876
 10448 2230 21       		.uleb128 0x21
 10449 2231 A4000000 		.4byte	.LVL734
 10450 2235 E9060000 		.4byte	0x6e9
 10451 2239 22       		.uleb128 0x22
 10452 223a 01       		.byte	0x1
 10453 223b 51       		.byte	0x51
 10454 223c 02       		.byte	0x2
 10455 223d 75       		.byte	0x75
 10456 223e 00       		.sleb128 0
 10457 223f 00       		.byte	0
 10458 2240 00       		.byte	0
 10459 2241 38       		.uleb128 0x38
 10460 2242 01       		.byte	0x1
 10461 2243 D4020000 		.4byte	.LASF132
 10462 2247 01       		.byte	0x1
 10463 2248 B40C     		.2byte	0xcb4
 10464 224a 01       		.byte	0x1
 10465 224b ED030000 		.4byte	0x3ed
 10466 224f 00000000 		.4byte	.LFB36
 10467 2253 08020000 		.4byte	.LFE36
 10468 2257 52360000 		.4byte	.LLST254
 10469 225b 01       		.byte	0x1
 10470 225c CE240000 		.4byte	0x24ce
 10471 2260 1E       		.uleb128 0x1e
 10472 2261 6E000000 		.4byte	.LASF89
 10473 2265 01       		.byte	0x1
 10474 2266 B50C     		.2byte	0xcb5
 10475 2268 930B0000 		.4byte	0xb93
 10476 226c 7F360000 		.4byte	.LLST255
 10477 2270 1C       		.uleb128 0x1c
 10478 2271 72657300 		.ascii	"res\000"
 10479 2275 01       		.byte	0x1
 10480 2276 B80C     		.2byte	0xcb8
 10481 2278 ED030000 		.4byte	0x3ed
 10482 227c B7360000 		.4byte	.LLST256
 10483 2280 33       		.uleb128 0x33
 10484 2281 646A00   		.ascii	"dj\000"
 10485 2284 01       		.byte	0x1
 10486 2285 B90C     		.2byte	0xcb9
 10487 2287 FD020000 		.4byte	0x2fd
 10488 228b 03       		.byte	0x3
 10489 228c 91       		.byte	0x91
 10490 228d BC7F     		.sleb128 -68
 10491 228f 1C       		.uleb128 0x1c
 10492 2290 64697200 		.ascii	"dir\000"
 10493 2294 01       		.byte	0x1
 10494 2295 BA0C     		.2byte	0xcba
 10495 2297 76020000 		.4byte	0x276
 10496 229b 8A370000 		.4byte	.LLST257
 10497 229f 1C       		.uleb128 0x1c
 10498 22a0 6E00     		.ascii	"n\000"
 10499 22a2 01       		.byte	0x1
 10500 22a3 BA0C     		.2byte	0xcba
ARM GAS  /var/folders/dt/0wfd0knj7gs46m8vwfzktm600000gn/T//cczoWvr4.s 			page 186


 10501 22a5 50000000 		.4byte	0x50
 10502 22a9 CA370000 		.4byte	.LLST258
 10503 22ad 1C       		.uleb128 0x1c
 10504 22ae 64736300 		.ascii	"dsc\000"
 10505 22b2 01       		.byte	0x1
 10506 22b3 BB0C     		.2byte	0xcbb
 10507 22b5 82000000 		.4byte	0x82
 10508 22b9 DE370000 		.4byte	.LLST259
 10509 22bd 1C       		.uleb128 0x1c
 10510 22be 64636C00 		.ascii	"dcl\000"
 10511 22c2 01       		.byte	0x1
 10512 22c3 BB0C     		.2byte	0xcbb
 10513 22c5 82000000 		.4byte	0x82
 10514 22c9 FC370000 		.4byte	.LLST260
 10515 22cd 1C       		.uleb128 0x1c
 10516 22ce 70636C00 		.ascii	"pcl\000"
 10517 22d2 01       		.byte	0x1
 10518 22d3 BB0C     		.2byte	0xcbb
 10519 22d5 82000000 		.4byte	0x82
 10520 22d9 30380000 		.4byte	.LLST261
 10521 22dd 1C       		.uleb128 0x1c
 10522 22de 74696D00 		.ascii	"tim\000"
 10523 22e2 01       		.byte	0x1
 10524 22e3 BB0C     		.2byte	0xcbb
 10525 22e5 82000000 		.4byte	0x82
 10526 22e9 66380000 		.4byte	.LLST262
 10527 22ed 33       		.uleb128 0x33
 10528 22ee 73666E00 		.ascii	"sfn\000"
 10529 22f2 01       		.byte	0x1
 10530 22f3 BC0C     		.2byte	0xcbc
 10531 22f5 FE160000 		.4byte	0x16fe
 10532 22f9 03       		.byte	0x3
 10533 22fa 91       		.byte	0x91
 10534 22fb B07F     		.sleb128 -80
 10535 22fd 34       		.uleb128 0x34
 10536 22fe 48050000 		.4byte	0x548
 10537 2302 76000000 		.4byte	.LBB193
 10538 2306 E0020000 		.4byte	.Ldebug_ranges0+0x2e0
 10539 230a 01       		.byte	0x1
 10540 230b CF0C     		.2byte	0xccf
 10541 230d 24230000 		.4byte	0x2324
 10542 2311 25       		.uleb128 0x25
 10543 2312 66050000 		.4byte	0x566
 10544 2316 9A380000 		.4byte	.LLST263
 10545 231a 25       		.uleb128 0x25
 10546 231b 5B050000 		.4byte	0x55b
 10547 231f D2380000 		.4byte	.LLST264
 10548 2323 00       		.byte	0
 10549 2324 24       		.uleb128 0x24
 10550 2325 35040000 		.4byte	0x435
 10551 2329 98000000 		.4byte	.LBB200
 10552 232d A6000000 		.4byte	.LBE200
 10553 2331 01       		.byte	0x1
 10554 2332 D10C     		.2byte	0xcd1
 10555 2334 67230000 		.4byte	0x2367
 10556 2338 25       		.uleb128 0x25
 10557 2339 5B040000 		.4byte	0x45b
ARM GAS  /var/folders/dt/0wfd0knj7gs46m8vwfzktm600000gn/T//cczoWvr4.s 			page 187


 10558 233d 0C390000 		.4byte	.LLST265
 10559 2341 25       		.uleb128 0x25
 10560 2342 4F040000 		.4byte	0x44f
 10561 2346 22390000 		.4byte	.LLST266
 10562 234a 25       		.uleb128 0x25
 10563 234b 43040000 		.4byte	0x443
 10564 234f 42390000 		.4byte	.LLST267
 10565 2353 27       		.uleb128 0x27
 10566 2354 98000000 		.4byte	.LBB201
 10567 2358 A6000000 		.4byte	.LBE201
 10568 235c 28       		.uleb128 0x28
 10569 235d 67040000 		.4byte	0x467
 10570 2361 60390000 		.4byte	.LLST268
 10571 2365 00       		.byte	0
 10572 2366 00       		.byte	0
 10573 2367 24       		.uleb128 0x24
 10574 2368 35040000 		.4byte	0x435
 10575 236c A8000000 		.4byte	.LBB203
 10576 2370 B2000000 		.4byte	.LBE203
 10577 2374 01       		.byte	0x1
 10578 2375 D20C     		.2byte	0xcd2
 10579 2377 9E230000 		.4byte	0x239e
 10580 237b 2B       		.uleb128 0x2b
 10581 237c 5B040000 		.4byte	0x45b
 10582 2380 2B       		.uleb128 0x2b
 10583 2381 4F040000 		.4byte	0x44f
 10584 2385 2B       		.uleb128 0x2b
 10585 2386 43040000 		.4byte	0x443
 10586 238a 27       		.uleb128 0x27
 10587 238b A8000000 		.4byte	.LBB204
 10588 238f B2000000 		.4byte	.LBE204
 10589 2393 28       		.uleb128 0x28
 10590 2394 67040000 		.4byte	0x467
 10591 2398 7E390000 		.4byte	.LLST269
 10592 239c 00       		.byte	0
 10593 239d 00       		.byte	0
 10594 239e 24       		.uleb128 0x24
 10595 239f 62060000 		.4byte	0x662
 10596 23a3 2E010000 		.4byte	.LBB205
 10597 23a7 36010000 		.4byte	.LBE205
 10598 23ab 01       		.byte	0x1
 10599 23ac D70C     		.2byte	0xcd7
 10600 23ae EA230000 		.4byte	0x23ea
 10601 23b2 25       		.uleb128 0x25
 10602 23b3 88060000 		.4byte	0x688
 10603 23b7 91390000 		.4byte	.LLST270
 10604 23bb 25       		.uleb128 0x25
 10605 23bc 7C060000 		.4byte	0x67c
 10606 23c0 A5390000 		.4byte	.LLST271
 10607 23c4 25       		.uleb128 0x25
 10608 23c5 70060000 		.4byte	0x670
 10609 23c9 C3390000 		.4byte	.LLST272
 10610 23cd 27       		.uleb128 0x27
 10611 23ce 2E010000 		.4byte	.LBB206
 10612 23d2 36010000 		.4byte	.LBE206
 10613 23d6 28       		.uleb128 0x28
 10614 23d7 94060000 		.4byte	0x694
ARM GAS  /var/folders/dt/0wfd0knj7gs46m8vwfzktm600000gn/T//cczoWvr4.s 			page 188


 10615 23db 0E3A0000 		.4byte	.LLST273
 10616 23df 28       		.uleb128 0x28
 10617 23e0 9E060000 		.4byte	0x69e
 10618 23e4 213A0000 		.4byte	.LLST274
 10619 23e8 00       		.byte	0
 10620 23e9 00       		.byte	0
 10621 23ea 24       		.uleb128 0x24
 10622 23eb 35040000 		.4byte	0x435
 10623 23ef 88010000 		.4byte	.LBB207
 10624 23f3 90010000 		.4byte	.LBE207
 10625 23f7 01       		.byte	0x1
 10626 23f8 E10C     		.2byte	0xce1
 10627 23fa 21240000 		.4byte	0x2421
 10628 23fe 2B       		.uleb128 0x2b
 10629 23ff 5B040000 		.4byte	0x45b
 10630 2403 2B       		.uleb128 0x2b
 10631 2404 4F040000 		.4byte	0x44f
 10632 2408 2B       		.uleb128 0x2b
 10633 2409 43040000 		.4byte	0x443
 10634 240d 27       		.uleb128 0x27
 10635 240e 88010000 		.4byte	.LBB208
 10636 2412 90010000 		.4byte	.LBE208
 10637 2416 28       		.uleb128 0x28
 10638 2417 67040000 		.4byte	0x467
 10639 241b 343A0000 		.4byte	.LLST275
 10640 241f 00       		.byte	0
 10641 2420 00       		.byte	0
 10642 2421 2C       		.uleb128 0x2c
 10643 2422 10000000 		.4byte	.LVL736
 10644 2426 6C290000 		.4byte	0x296c
 10645 242a 23       		.uleb128 0x23
 10646 242b 1C000000 		.4byte	.LVL739
 10647 242f FF090000 		.4byte	0x9ff
 10648 2433 4A240000 		.4byte	0x244a
 10649 2437 22       		.uleb128 0x22
 10650 2438 01       		.byte	0x1
 10651 2439 52       		.byte	0x52
 10652 243a 01       		.byte	0x1
 10653 243b 31       		.byte	0x31
 10654 243c 22       		.uleb128 0x22
 10655 243d 01       		.byte	0x1
 10656 243e 51       		.byte	0x51
 10657 243f 03       		.byte	0x3
 10658 2440 91       		.byte	0x91
 10659 2441 BC7F     		.sleb128 -68
 10660 2443 22       		.uleb128 0x22
 10661 2444 01       		.byte	0x1
 10662 2445 50       		.byte	0x50
 10663 2446 02       		.byte	0x2
 10664 2447 74       		.byte	0x74
 10665 2448 00       		.sleb128 0
 10666 2449 00       		.byte	0
 10667 244a 23       		.uleb128 0x23
 10668 244b 36000000 		.4byte	.LVL744
 10669 244f 34110000 		.4byte	0x1134
 10670 2453 5F240000 		.4byte	0x245f
 10671 2457 22       		.uleb128 0x22
ARM GAS  /var/folders/dt/0wfd0knj7gs46m8vwfzktm600000gn/T//cczoWvr4.s 			page 189


 10672 2458 01       		.byte	0x1
 10673 2459 50       		.byte	0x50
 10674 245a 03       		.byte	0x3
 10675 245b 91       		.byte	0x91
 10676 245c BC7F     		.sleb128 -68
 10677 245e 00       		.byte	0
 10678 245f 23       		.uleb128 0x23
 10679 2460 4A000000 		.4byte	.LVL746
 10680 2464 6A0E0000 		.4byte	0xe6a
 10681 2468 73240000 		.4byte	0x2473
 10682 246c 22       		.uleb128 0x22
 10683 246d 01       		.byte	0x1
 10684 246e 51       		.byte	0x51
 10685 246f 02       		.byte	0x2
 10686 2470 74       		.byte	0x74
 10687 2471 00       		.sleb128 0
 10688 2472 00       		.byte	0
 10689 2473 23       		.uleb128 0x23
 10690 2474 6C000000 		.4byte	.LVL748
 10691 2478 B8070000 		.4byte	0x7b8
 10692 247c 87240000 		.4byte	0x2487
 10693 2480 22       		.uleb128 0x22
 10694 2481 01       		.byte	0x1
 10695 2482 51       		.byte	0x51
 10696 2483 02       		.byte	0x2
 10697 2484 74       		.byte	0x74
 10698 2485 00       		.sleb128 0
 10699 2486 00       		.byte	0
 10700 2487 23       		.uleb128 0x23
 10701 2488 80010000 		.4byte	.LVL768
 10702 248c B8070000 		.4byte	0x7b8
 10703 2490 9B240000 		.4byte	0x249b
 10704 2494 22       		.uleb128 0x22
 10705 2495 01       		.byte	0x1
 10706 2496 51       		.byte	0x51
 10707 2497 02       		.byte	0x2
 10708 2498 79       		.byte	0x79
 10709 2499 00       		.sleb128 0
 10710 249a 00       		.byte	0
 10711 249b 23       		.uleb128 0x23
 10712 249c A8010000 		.4byte	.LVL776
 10713 24a0 E9060000 		.4byte	0x6e9
 10714 24a4 AF240000 		.4byte	0x24af
 10715 24a8 22       		.uleb128 0x22
 10716 24a9 01       		.byte	0x1
 10717 24aa 51       		.byte	0x51
 10718 24ab 02       		.byte	0x2
 10719 24ac 78       		.byte	0x78
 10720 24ad 00       		.sleb128 0
 10721 24ae 00       		.byte	0
 10722 24af 23       		.uleb128 0x23
 10723 24b0 B6010000 		.4byte	.LVL779
 10724 24b4 A9060000 		.4byte	0x6a9
 10725 24b8 C4240000 		.4byte	0x24c4
 10726 24bc 22       		.uleb128 0x22
 10727 24bd 01       		.byte	0x1
 10728 24be 50       		.byte	0x50
ARM GAS  /var/folders/dt/0wfd0knj7gs46m8vwfzktm600000gn/T//cczoWvr4.s 			page 190


 10729 24bf 03       		.byte	0x3
 10730 24c0 91       		.byte	0x91
 10731 24c1 BC7F     		.sleb128 -68
 10732 24c3 00       		.byte	0
 10733 24c4 2C       		.uleb128 0x2c
 10734 24c5 F4010000 		.4byte	.LVL783
 10735 24c9 76080000 		.4byte	0x876
 10736 24cd 00       		.byte	0
 10737 24ce 38       		.uleb128 0x38
 10738 24cf 01       		.byte	0x1
 10739 24d0 E8030000 		.4byte	.LASF133
 10740 24d4 01       		.byte	0x1
 10741 24d5 FD0C     		.2byte	0xcfd
 10742 24d7 01       		.byte	0x1
 10743 24d8 ED030000 		.4byte	0x3ed
 10744 24dc 00000000 		.4byte	.LFB37
 10745 24e0 54000000 		.4byte	.LFE37
 10746 24e4 473A0000 		.4byte	.LLST276
 10747 24e8 01       		.byte	0x1
 10748 24e9 97250000 		.4byte	0x2597
 10749 24ed 1E       		.uleb128 0x1e
 10750 24ee 6E000000 		.4byte	.LASF89
 10751 24f2 01       		.byte	0x1
 10752 24f3 FE0C     		.2byte	0xcfe
 10753 24f5 930B0000 		.4byte	0xb93
 10754 24f9 743A0000 		.4byte	.LLST277
 10755 24fd 1E       		.uleb128 0x1e
 10756 24fe 17000000 		.4byte	.LASF134
 10757 2502 01       		.byte	0x1
 10758 2503 FF0C     		.2byte	0xcff
 10759 2505 50000000 		.4byte	0x50
 10760 2509 AB3A0000 		.4byte	.LLST278
 10761 250d 1E       		.uleb128 0x1e
 10762 250e 0F050000 		.4byte	.LASF135
 10763 2512 01       		.byte	0x1
 10764 2513 000D     		.2byte	0xd00
 10765 2515 50000000 		.4byte	0x50
 10766 2519 CC3A0000 		.4byte	.LLST279
 10767 251d 1C       		.uleb128 0x1c
 10768 251e 72657300 		.ascii	"res\000"
 10769 2522 01       		.byte	0x1
 10770 2523 030D     		.2byte	0xd03
 10771 2525 ED030000 		.4byte	0x3ed
 10772 2529 063B0000 		.4byte	.LLST280
 10773 252d 33       		.uleb128 0x33
 10774 252e 646A00   		.ascii	"dj\000"
 10775 2531 01       		.byte	0x1
 10776 2532 040D     		.2byte	0xd04
 10777 2534 FD020000 		.4byte	0x2fd
 10778 2538 02       		.byte	0x2
 10779 2539 91       		.byte	0x91
 10780 253a 54       		.sleb128 -44
 10781 253b 1C       		.uleb128 0x1c
 10782 253c 64697200 		.ascii	"dir\000"
 10783 2540 01       		.byte	0x1
 10784 2541 050D     		.2byte	0xd05
 10785 2543 76020000 		.4byte	0x276
ARM GAS  /var/folders/dt/0wfd0knj7gs46m8vwfzktm600000gn/T//cczoWvr4.s 			page 191


 10786 2547 2F3B0000 		.4byte	.LLST281
 10787 254b 33       		.uleb128 0x33
 10788 254c 73666E00 		.ascii	"sfn\000"
 10789 2550 01       		.byte	0x1
 10790 2551 060D     		.2byte	0xd06
 10791 2553 FE160000 		.4byte	0x16fe
 10792 2557 02       		.byte	0x2
 10793 2558 91       		.byte	0x91
 10794 2559 48       		.sleb128 -56
 10795 255a 23       		.uleb128 0x23
 10796 255b 18000000 		.4byte	.LVL791
 10797 255f FF090000 		.4byte	0x9ff
 10798 2563 79250000 		.4byte	0x2579
 10799 2567 22       		.uleb128 0x22
 10800 2568 01       		.byte	0x1
 10801 2569 52       		.byte	0x52
 10802 256a 01       		.byte	0x1
 10803 256b 31       		.byte	0x31
 10804 256c 22       		.uleb128 0x22
 10805 256d 01       		.byte	0x1
 10806 256e 51       		.byte	0x51
 10807 256f 02       		.byte	0x2
 10808 2570 91       		.byte	0x91
 10809 2571 54       		.sleb128 -44
 10810 2572 22       		.uleb128 0x22
 10811 2573 01       		.byte	0x1
 10812 2574 50       		.byte	0x50
 10813 2575 02       		.byte	0x2
 10814 2576 91       		.byte	0x91
 10815 2577 44       		.sleb128 -60
 10816 2578 00       		.byte	0
 10817 2579 23       		.uleb128 0x23
 10818 257a 2A000000 		.4byte	.LVL795
 10819 257e 34110000 		.4byte	0x1134
 10820 2582 8D250000 		.4byte	0x258d
 10821 2586 22       		.uleb128 0x22
 10822 2587 01       		.byte	0x1
 10823 2588 50       		.byte	0x50
 10824 2589 02       		.byte	0x2
 10825 258a 91       		.byte	0x91
 10826 258b 54       		.sleb128 -44
 10827 258c 00       		.byte	0
 10828 258d 2C       		.uleb128 0x2c
 10829 258e 52000000 		.4byte	.LVL801
 10830 2592 76080000 		.4byte	0x876
 10831 2596 00       		.byte	0
 10832 2597 38       		.uleb128 0x38
 10833 2598 01       		.byte	0x1
 10834 2599 79000000 		.4byte	.LASF136
 10835 259d 01       		.byte	0x1
 10836 259e 270D     		.2byte	0xd27
 10837 25a0 01       		.byte	0x1
 10838 25a1 ED030000 		.4byte	0x3ed
 10839 25a5 00000000 		.4byte	.LFB38
 10840 25a9 56000000 		.4byte	.LFE38
 10841 25ad 4E3B0000 		.4byte	.LLST282
 10842 25b1 01       		.byte	0x1
ARM GAS  /var/folders/dt/0wfd0knj7gs46m8vwfzktm600000gn/T//cczoWvr4.s 			page 192


 10843 25b2 50260000 		.4byte	0x2650
 10844 25b6 1E       		.uleb128 0x1e
 10845 25b7 6E000000 		.4byte	.LASF89
 10846 25bb 01       		.byte	0x1
 10847 25bc 280D     		.2byte	0xd28
 10848 25be 930B0000 		.4byte	0xb93
 10849 25c2 7A3B0000 		.4byte	.LLST283
 10850 25c6 1A       		.uleb128 0x1a
 10851 25c7 666E6F00 		.ascii	"fno\000"
 10852 25cb 01       		.byte	0x1
 10853 25cc 290D     		.2byte	0xd29
 10854 25ce 50260000 		.4byte	0x2650
 10855 25d2 B13B0000 		.4byte	.LLST284
 10856 25d6 1C       		.uleb128 0x1c
 10857 25d7 72657300 		.ascii	"res\000"
 10858 25db 01       		.byte	0x1
 10859 25dc 2C0D     		.2byte	0xd2c
 10860 25de ED030000 		.4byte	0x3ed
 10861 25e2 CF3B0000 		.4byte	.LLST285
 10862 25e6 33       		.uleb128 0x33
 10863 25e7 646A00   		.ascii	"dj\000"
 10864 25ea 01       		.byte	0x1
 10865 25eb 2D0D     		.2byte	0xd2d
 10866 25ed FD020000 		.4byte	0x2fd
 10867 25f1 02       		.byte	0x2
 10868 25f2 91       		.byte	0x91
 10869 25f3 5C       		.sleb128 -36
 10870 25f4 1C       		.uleb128 0x1c
 10871 25f5 64697200 		.ascii	"dir\000"
 10872 25f9 01       		.byte	0x1
 10873 25fa 2E0D     		.2byte	0xd2e
 10874 25fc 76020000 		.4byte	0x276
 10875 2600 F83B0000 		.4byte	.LLST286
 10876 2604 33       		.uleb128 0x33
 10877 2605 73666E00 		.ascii	"sfn\000"
 10878 2609 01       		.byte	0x1
 10879 260a 2F0D     		.2byte	0xd2f
 10880 260c FE160000 		.4byte	0x16fe
 10881 2610 02       		.byte	0x2
 10882 2611 91       		.byte	0x91
 10883 2612 50       		.sleb128 -48
 10884 2613 23       		.uleb128 0x23
 10885 2614 16000000 		.4byte	.LVL805
 10886 2618 FF090000 		.4byte	0x9ff
 10887 261c 32260000 		.4byte	0x2632
 10888 2620 22       		.uleb128 0x22
 10889 2621 01       		.byte	0x1
 10890 2622 52       		.byte	0x52
 10891 2623 01       		.byte	0x1
 10892 2624 31       		.byte	0x31
 10893 2625 22       		.uleb128 0x22
 10894 2626 01       		.byte	0x1
 10895 2627 51       		.byte	0x51
 10896 2628 02       		.byte	0x2
 10897 2629 91       		.byte	0x91
 10898 262a 5C       		.sleb128 -36
 10899 262b 22       		.uleb128 0x22
ARM GAS  /var/folders/dt/0wfd0knj7gs46m8vwfzktm600000gn/T//cczoWvr4.s 			page 193


 10900 262c 01       		.byte	0x1
 10901 262d 50       		.byte	0x50
 10902 262e 02       		.byte	0x2
 10903 262f 91       		.byte	0x91
 10904 2630 4C       		.sleb128 -52
 10905 2631 00       		.byte	0
 10906 2632 23       		.uleb128 0x23
 10907 2633 28000000 		.4byte	.LVL809
 10908 2637 34110000 		.4byte	0x1134
 10909 263b 46260000 		.4byte	0x2646
 10910 263f 22       		.uleb128 0x22
 10911 2640 01       		.byte	0x1
 10912 2641 50       		.byte	0x50
 10913 2642 02       		.byte	0x2
 10914 2643 91       		.byte	0x91
 10915 2644 5C       		.sleb128 -36
 10916 2645 00       		.byte	0
 10917 2646 2C       		.uleb128 0x2c
 10918 2647 54000000 		.4byte	.LVL813
 10919 264b 76080000 		.4byte	0x876
 10920 264f 00       		.byte	0
 10921 2650 0A       		.uleb128 0xa
 10922 2651 04       		.byte	0x4
 10923 2652 56260000 		.4byte	0x2656
 10924 2656 15       		.uleb128 0x15
 10925 2657 67030000 		.4byte	0x367
 10926 265b 38       		.uleb128 0x38
 10927 265c 01       		.byte	0x1
 10928 265d 50020000 		.4byte	.LASF137
 10929 2661 01       		.byte	0x1
 10930 2662 500D     		.2byte	0xd50
 10931 2664 01       		.byte	0x1
 10932 2665 ED030000 		.4byte	0x3ed
 10933 2669 00000000 		.4byte	.LFB39
 10934 266d 38010000 		.4byte	.LFE39
 10935 2671 173C0000 		.4byte	.LLST287
 10936 2675 01       		.byte	0x1
 10937 2676 88280000 		.4byte	0x2888
 10938 267a 1E       		.uleb128 0x1e
 10939 267b B3000000 		.4byte	.LASF138
 10940 267f 01       		.byte	0x1
 10941 2680 510D     		.2byte	0xd51
 10942 2682 930B0000 		.4byte	0xb93
 10943 2686 443C0000 		.4byte	.LLST288
 10944 268a 1E       		.uleb128 0x1e
 10945 268b FE020000 		.4byte	.LASF139
 10946 268f 01       		.byte	0x1
 10947 2690 520D     		.2byte	0xd52
 10948 2692 930B0000 		.4byte	0xb93
 10949 2696 7E3C0000 		.4byte	.LLST289
 10950 269a 1C       		.uleb128 0x1c
 10951 269b 72657300 		.ascii	"res\000"
 10952 269f 01       		.byte	0x1
 10953 26a0 550D     		.2byte	0xd55
 10954 26a2 ED030000 		.4byte	0x3ed
 10955 26a6 DC3C0000 		.4byte	.LLST290
 10956 26aa 33       		.uleb128 0x33
ARM GAS  /var/folders/dt/0wfd0knj7gs46m8vwfzktm600000gn/T//cczoWvr4.s 			page 194


 10957 26ab 646A6F00 		.ascii	"djo\000"
 10958 26af 01       		.byte	0x1
 10959 26b0 560D     		.2byte	0xd56
 10960 26b2 FD020000 		.4byte	0x2fd
 10961 26b6 03       		.byte	0x3
 10962 26b7 91       		.byte	0x91
 10963 26b8 B87F     		.sleb128 -72
 10964 26ba 33       		.uleb128 0x33
 10965 26bb 646A6E00 		.ascii	"djn\000"
 10966 26bf 01       		.byte	0x1
 10967 26c0 560D     		.2byte	0xd56
 10968 26c2 FD020000 		.4byte	0x2fd
 10969 26c6 02       		.byte	0x2
 10970 26c7 91       		.byte	0x91
 10971 26c8 54       		.sleb128 -44
 10972 26c9 33       		.uleb128 0x33
 10973 26ca 62756600 		.ascii	"buf\000"
 10974 26ce 01       		.byte	0x1
 10975 26cf 570D     		.2byte	0xd57
 10976 26d1 88280000 		.4byte	0x2888
 10977 26d5 03       		.byte	0x3
 10978 26d6 91       		.byte	0x91
 10979 26d7 A07F     		.sleb128 -96
 10980 26d9 1C       		.uleb128 0x1c
 10981 26da 64697200 		.ascii	"dir\000"
 10982 26de 01       		.byte	0x1
 10983 26df 570D     		.2byte	0xd57
 10984 26e1 76020000 		.4byte	0x276
 10985 26e5 5E3D0000 		.4byte	.LLST291
 10986 26e9 1C       		.uleb128 0x1c
 10987 26ea 647700   		.ascii	"dw\000"
 10988 26ed 01       		.byte	0x1
 10989 26ee 580D     		.2byte	0xd58
 10990 26f0 82000000 		.4byte	0x82
 10991 26f4 983D0000 		.4byte	.LLST292
 10992 26f8 33       		.uleb128 0x33
 10993 26f9 73666E00 		.ascii	"sfn\000"
 10994 26fd 01       		.byte	0x1
 10995 26fe 590D     		.2byte	0xd59
 10996 2700 FE160000 		.4byte	0x16fe
 10997 2704 03       		.byte	0x3
 10998 2705 91       		.byte	0x91
 10999 2706 947F     		.sleb128 -108
 11000 2708 24       		.uleb128 0x24
 11001 2709 62060000 		.4byte	0x662
 11002 270d 42000000 		.4byte	.LBB209
 11003 2711 52000000 		.4byte	.LBE209
 11004 2715 01       		.byte	0x1
 11005 2716 6A0D     		.2byte	0xd6a
 11006 2718 54270000 		.4byte	0x2754
 11007 271c 25       		.uleb128 0x25
 11008 271d 88060000 		.4byte	0x688
 11009 2721 AB3D0000 		.4byte	.LLST293
 11010 2725 25       		.uleb128 0x25
 11011 2726 7C060000 		.4byte	0x67c
 11012 272a BF3D0000 		.4byte	.LLST294
 11013 272e 25       		.uleb128 0x25
ARM GAS  /var/folders/dt/0wfd0knj7gs46m8vwfzktm600000gn/T//cczoWvr4.s 			page 195


 11014 272f 70060000 		.4byte	0x670
 11015 2733 E43D0000 		.4byte	.LLST295
 11016 2737 27       		.uleb128 0x27
 11017 2738 42000000 		.4byte	.LBB210
 11018 273c 52000000 		.4byte	.LBE210
 11019 2740 28       		.uleb128 0x28
 11020 2741 94060000 		.4byte	0x694
 11021 2745 133E0000 		.4byte	.LLST296
 11022 2749 28       		.uleb128 0x28
 11023 274a 9E060000 		.4byte	0x69e
 11024 274e 343E0000 		.4byte	.LLST297
 11025 2752 00       		.byte	0
 11026 2753 00       		.byte	0
 11027 2754 24       		.uleb128 0x24
 11028 2755 62060000 		.4byte	0x662
 11029 2759 52000000 		.4byte	.LBB211
 11030 275d 5C000000 		.4byte	.LBE211
 11031 2761 01       		.byte	0x1
 11032 2762 6B0D     		.2byte	0xd6b
 11033 2764 8C270000 		.4byte	0x278c
 11034 2768 2B       		.uleb128 0x2b
 11035 2769 88060000 		.4byte	0x688
 11036 276d 2B       		.uleb128 0x2b
 11037 276e 7C060000 		.4byte	0x67c
 11038 2772 2B       		.uleb128 0x2b
 11039 2773 70060000 		.4byte	0x670
 11040 2777 27       		.uleb128 0x27
 11041 2778 52000000 		.4byte	.LBB212
 11042 277c 5C000000 		.4byte	.LBE212
 11043 2780 30       		.uleb128 0x30
 11044 2781 94060000 		.4byte	0x694
 11045 2785 30       		.uleb128 0x30
 11046 2786 9E060000 		.4byte	0x69e
 11047 278a 00       		.byte	0
 11048 278b 00       		.byte	0
 11049 278c 24       		.uleb128 0x24
 11050 278d 62060000 		.4byte	0x662
 11051 2791 84000000 		.4byte	.LBB213
 11052 2795 90000000 		.4byte	.LBE213
 11053 2799 01       		.byte	0x1
 11054 279a 730D     		.2byte	0xd73
 11055 279c D8270000 		.4byte	0x27d8
 11056 27a0 25       		.uleb128 0x25
 11057 27a1 88060000 		.4byte	0x688
 11058 27a5 593E0000 		.4byte	.LLST298
 11059 27a9 25       		.uleb128 0x25
 11060 27aa 7C060000 		.4byte	0x67c
 11061 27ae 6D3E0000 		.4byte	.LLST299
 11062 27b2 25       		.uleb128 0x25
 11063 27b3 70060000 		.4byte	0x670
 11064 27b7 913E0000 		.4byte	.LLST300
 11065 27bb 27       		.uleb128 0x27
 11066 27bc 84000000 		.4byte	.LBB214
 11067 27c0 90000000 		.4byte	.LBE214
 11068 27c4 28       		.uleb128 0x28
 11069 27c5 94060000 		.4byte	0x694
 11070 27c9 CB3E0000 		.4byte	.LLST301
ARM GAS  /var/folders/dt/0wfd0knj7gs46m8vwfzktm600000gn/T//cczoWvr4.s 			page 196


 11071 27cd 28       		.uleb128 0x28
 11072 27ce 9E060000 		.4byte	0x69e
 11073 27d2 DE3E0000 		.4byte	.LLST302
 11074 27d6 00       		.byte	0
 11075 27d7 00       		.byte	0
 11076 27d8 34       		.uleb128 0x34
 11077 27d9 48050000 		.4byte	0x548
 11078 27dd C4000000 		.4byte	.LBB215
 11079 27e1 08030000 		.4byte	.Ldebug_ranges0+0x308
 11080 27e5 01       		.byte	0x1
 11081 27e6 770D     		.2byte	0xd77
 11082 27e8 FF270000 		.4byte	0x27ff
 11083 27ec 25       		.uleb128 0x25
 11084 27ed 66050000 		.4byte	0x566
 11085 27f1 F43E0000 		.4byte	.LLST303
 11086 27f5 25       		.uleb128 0x25
 11087 27f6 5B050000 		.4byte	0x55b
 11088 27fa 4A3F0000 		.4byte	.LLST304
 11089 27fe 00       		.byte	0
 11090 27ff 23       		.uleb128 0x23
 11091 2800 18000000 		.4byte	.LVL817
 11092 2804 FF090000 		.4byte	0x9ff
 11093 2808 1F280000 		.4byte	0x281f
 11094 280c 22       		.uleb128 0x22
 11095 280d 01       		.byte	0x1
 11096 280e 52       		.byte	0x52
 11097 280f 01       		.byte	0x1
 11098 2810 31       		.byte	0x31
 11099 2811 22       		.uleb128 0x22
 11100 2812 01       		.byte	0x1
 11101 2813 51       		.byte	0x51
 11102 2814 02       		.byte	0x2
 11103 2815 75       		.byte	0x75
 11104 2816 00       		.sleb128 0
 11105 2817 22       		.uleb128 0x22
 11106 2818 01       		.byte	0x1
 11107 2819 50       		.byte	0x50
 11108 281a 03       		.byte	0x3
 11109 281b 91       		.byte	0x91
 11110 281c 8C7F     		.sleb128 -116
 11111 281e 00       		.byte	0
 11112 281f 23       		.uleb128 0x23
 11113 2820 2E000000 		.4byte	.LVL821
 11114 2824 34110000 		.4byte	0x1134
 11115 2828 33280000 		.4byte	0x2833
 11116 282c 22       		.uleb128 0x22
 11117 282d 01       		.byte	0x1
 11118 282e 50       		.byte	0x50
 11119 282f 02       		.byte	0x2
 11120 2830 75       		.byte	0x75
 11121 2831 00       		.sleb128 0
 11122 2832 00       		.byte	0
 11123 2833 23       		.uleb128 0x23
 11124 2834 64000000 		.4byte	.LVL830
 11125 2838 34110000 		.4byte	0x1134
 11126 283c 4D280000 		.4byte	0x284d
 11127 2840 22       		.uleb128 0x22
ARM GAS  /var/folders/dt/0wfd0knj7gs46m8vwfzktm600000gn/T//cczoWvr4.s 			page 197


 11128 2841 01       		.byte	0x1
 11129 2842 51       		.byte	0x51
 11130 2843 02       		.byte	0x2
 11131 2844 76       		.byte	0x76
 11132 2845 00       		.sleb128 0
 11133 2846 22       		.uleb128 0x22
 11134 2847 01       		.byte	0x1
 11135 2848 50       		.byte	0x50
 11136 2849 02       		.byte	0x2
 11137 284a 74       		.byte	0x74
 11138 284b 00       		.sleb128 0
 11139 284c 00       		.byte	0
 11140 284d 23       		.uleb128 0x23
 11141 284e 72000000 		.4byte	.LVL832
 11142 2852 A9060000 		.4byte	0x6a9
 11143 2856 61280000 		.4byte	0x2861
 11144 285a 22       		.uleb128 0x22
 11145 285b 01       		.byte	0x1
 11146 285c 50       		.byte	0x50
 11147 285d 02       		.byte	0x2
 11148 285e 74       		.byte	0x74
 11149 285f 00       		.sleb128 0
 11150 2860 00       		.byte	0
 11151 2861 2C       		.uleb128 0x2c
 11152 2862 E0000000 		.4byte	.LVL841
 11153 2866 B8070000 		.4byte	0x7b8
 11154 286a 23       		.uleb128 0x23
 11155 286b F4000000 		.4byte	.LVL844
 11156 286f 73050000 		.4byte	0x573
 11157 2873 7E280000 		.4byte	0x287e
 11158 2877 22       		.uleb128 0x22
 11159 2878 01       		.byte	0x1
 11160 2879 50       		.byte	0x50
 11161 287a 02       		.byte	0x2
 11162 287b 75       		.byte	0x75
 11163 287c 00       		.sleb128 0
 11164 287d 00       		.byte	0
 11165 287e 2C       		.uleb128 0x2c
 11166 287f FE000000 		.4byte	.LVL846
 11167 2883 76080000 		.4byte	0x876
 11168 2887 00       		.byte	0
 11169 2888 08       		.uleb128 0x8
 11170 2889 50000000 		.4byte	0x50
 11171 288d 98280000 		.4byte	0x2898
 11172 2891 0D       		.uleb128 0xd
 11173 2892 AE010000 		.4byte	0x1ae
 11174 2896 14       		.byte	0x14
 11175 2897 00       		.byte	0
 11176 2898 08       		.uleb128 0x8
 11177 2899 70020000 		.4byte	0x270
 11178 289d A8280000 		.4byte	0x28a8
 11179 28a1 0D       		.uleb128 0xd
 11180 28a2 AE010000 		.4byte	0x1ae
 11181 28a6 00       		.byte	0
 11182 28a7 00       		.byte	0
 11183 28a8 1F       		.uleb128 0x1f
 11184 28a9 17010000 		.4byte	.LASF140
ARM GAS  /var/folders/dt/0wfd0knj7gs46m8vwfzktm600000gn/T//cczoWvr4.s 			page 198


 11185 28ad 01       		.byte	0x1
 11186 28ae CC01     		.2byte	0x1cc
 11187 28b0 98280000 		.4byte	0x2898
 11188 28b4 05       		.byte	0x5
 11189 28b5 03       		.byte	0x3
 11190 28b6 00000000 		.4byte	FatFs
 11191 28ba 1F       		.uleb128 0x1f
 11192 28bb 8E050000 		.4byte	.LASF141
 11193 28bf 01       		.byte	0x1
 11194 28c0 D201     		.2byte	0x1d2
 11195 28c2 69000000 		.4byte	0x69
 11196 28c6 05       		.byte	0x5
 11197 28c7 03       		.byte	0x3
 11198 28c8 00000000 		.4byte	Fsid
 11199 28cc 3A       		.uleb128 0x3a
 11200 28cd 01       		.byte	0x1
 11201 28ce D3040000 		.4byte	.LASF142
 11202 28d2 04       		.byte	0x4
 11203 28d3 22       		.byte	0x22
 11204 28d4 01       		.byte	0x1
 11205 28d5 2A040000 		.4byte	0x42a
 11206 28d9 01       		.byte	0x1
 11207 28da F3280000 		.4byte	0x28f3
 11208 28de 3B       		.uleb128 0x3b
 11209 28df 50000000 		.4byte	0x50
 11210 28e3 3B       		.uleb128 0x3b
 11211 28e4 57060000 		.4byte	0x657
 11212 28e8 3B       		.uleb128 0x3b
 11213 28e9 82000000 		.4byte	0x82
 11214 28ed 3B       		.uleb128 0x3b
 11215 28ee 50000000 		.4byte	0x50
 11216 28f2 00       		.byte	0
 11217 28f3 3A       		.uleb128 0x3a
 11218 28f4 01       		.byte	0x1
 11219 28f5 7C050000 		.4byte	.LASF143
 11220 28f9 04       		.byte	0x4
 11221 28fa 20       		.byte	0x20
 11222 28fb 01       		.byte	0x1
 11223 28fc 2A040000 		.4byte	0x42a
 11224 2900 01       		.byte	0x1
 11225 2901 1A290000 		.4byte	0x291a
 11226 2905 3B       		.uleb128 0x3b
 11227 2906 50000000 		.4byte	0x50
 11228 290a 3B       		.uleb128 0x3b
 11229 290b 76020000 		.4byte	0x276
 11230 290f 3B       		.uleb128 0x3b
 11231 2910 82000000 		.4byte	0x82
 11232 2914 3B       		.uleb128 0x3b
 11233 2915 50000000 		.4byte	0x50
 11234 2919 00       		.byte	0
 11235 291a 3A       		.uleb128 0x3a
 11236 291b 01       		.byte	0x1
 11237 291c C3020000 		.4byte	.LASF144
 11238 2920 04       		.byte	0x4
 11239 2921 24       		.byte	0x24
 11240 2922 01       		.byte	0x1
 11241 2923 2A040000 		.4byte	0x42a
ARM GAS  /var/folders/dt/0wfd0knj7gs46m8vwfzktm600000gn/T//cczoWvr4.s 			page 199


 11242 2927 01       		.byte	0x1
 11243 2928 3C290000 		.4byte	0x293c
 11244 292c 3B       		.uleb128 0x3b
 11245 292d 50000000 		.4byte	0x50
 11246 2931 3B       		.uleb128 0x3b
 11247 2932 50000000 		.4byte	0x50
 11248 2936 3B       		.uleb128 0x3b
 11249 2937 72040000 		.4byte	0x472
 11250 293b 00       		.byte	0
 11251 293c 3A       		.uleb128 0x3a
 11252 293d 01       		.byte	0x1
 11253 293e 13020000 		.4byte	.LASF145
 11254 2942 04       		.byte	0x4
 11255 2943 1F       		.byte	0x1f
 11256 2944 01       		.byte	0x1
 11257 2945 F8030000 		.4byte	0x3f8
 11258 2949 01       		.byte	0x1
 11259 294a 54290000 		.4byte	0x2954
 11260 294e 3B       		.uleb128 0x3b
 11261 294f 50000000 		.4byte	0x50
 11262 2953 00       		.byte	0
 11263 2954 3A       		.uleb128 0x3a
 11264 2955 01       		.byte	0x1
 11265 2956 BF010000 		.4byte	.LASF146
 11266 295a 04       		.byte	0x4
 11267 295b 1E       		.byte	0x1e
 11268 295c 01       		.byte	0x1
 11269 295d F8030000 		.4byte	0x3f8
 11270 2961 01       		.byte	0x1
 11271 2962 6C290000 		.4byte	0x296c
 11272 2966 3B       		.uleb128 0x3b
 11273 2967 50000000 		.4byte	0x50
 11274 296b 00       		.byte	0
 11275 296c 3C       		.uleb128 0x3c
 11276 296d 01       		.byte	0x1
 11277 296e 92030000 		.4byte	.LASF151
 11278 2972 03       		.byte	0x3
 11279 2973 F8       		.byte	0xf8
 11280 2974 01       		.byte	0x1
 11281 2975 82000000 		.4byte	0x82
 11282 2979 01       		.byte	0x1
 11283 297a 00       		.byte	0
 11284              		.section	.debug_abbrev,"",%progbits
 11285              	.Ldebug_abbrev0:
 11286 0000 01       		.uleb128 0x1
 11287 0001 11       		.uleb128 0x11
 11288 0002 01       		.byte	0x1
 11289 0003 25       		.uleb128 0x25
 11290 0004 0E       		.uleb128 0xe
 11291 0005 13       		.uleb128 0x13
 11292 0006 0B       		.uleb128 0xb
 11293 0007 03       		.uleb128 0x3
 11294 0008 0E       		.uleb128 0xe
 11295 0009 1B       		.uleb128 0x1b
 11296 000a 0E       		.uleb128 0xe
 11297 000b 55       		.uleb128 0x55
 11298 000c 06       		.uleb128 0x6
ARM GAS  /var/folders/dt/0wfd0knj7gs46m8vwfzktm600000gn/T//cczoWvr4.s 			page 200


 11299 000d 11       		.uleb128 0x11
 11300 000e 01       		.uleb128 0x1
 11301 000f 52       		.uleb128 0x52
 11302 0010 01       		.uleb128 0x1
 11303 0011 10       		.uleb128 0x10
 11304 0012 06       		.uleb128 0x6
 11305 0013 00       		.byte	0
 11306 0014 00       		.byte	0
 11307 0015 02       		.uleb128 0x2
 11308 0016 24       		.uleb128 0x24
 11309 0017 00       		.byte	0
 11310 0018 0B       		.uleb128 0xb
 11311 0019 0B       		.uleb128 0xb
 11312 001a 3E       		.uleb128 0x3e
 11313 001b 0B       		.uleb128 0xb
 11314 001c 03       		.uleb128 0x3
 11315 001d 08       		.uleb128 0x8
 11316 001e 00       		.byte	0
 11317 001f 00       		.byte	0
 11318 0020 03       		.uleb128 0x3
 11319 0021 16       		.uleb128 0x16
 11320 0022 00       		.byte	0
 11321 0023 03       		.uleb128 0x3
 11322 0024 0E       		.uleb128 0xe
 11323 0025 3A       		.uleb128 0x3a
 11324 0026 0B       		.uleb128 0xb
 11325 0027 3B       		.uleb128 0x3b
 11326 0028 0B       		.uleb128 0xb
 11327 0029 49       		.uleb128 0x49
 11328 002a 13       		.uleb128 0x13
 11329 002b 00       		.byte	0
 11330 002c 00       		.byte	0
 11331 002d 04       		.uleb128 0x4
 11332 002e 24       		.uleb128 0x24
 11333 002f 00       		.byte	0
 11334 0030 0B       		.uleb128 0xb
 11335 0031 0B       		.uleb128 0xb
 11336 0032 3E       		.uleb128 0x3e
 11337 0033 0B       		.uleb128 0xb
 11338 0034 03       		.uleb128 0x3
 11339 0035 0E       		.uleb128 0xe
 11340 0036 00       		.byte	0
 11341 0037 00       		.byte	0
 11342 0038 05       		.uleb128 0x5
 11343 0039 13       		.uleb128 0x13
 11344 003a 01       		.byte	0x1
 11345 003b 0B       		.uleb128 0xb
 11346 003c 05       		.uleb128 0x5
 11347 003d 3A       		.uleb128 0x3a
 11348 003e 0B       		.uleb128 0xb
 11349 003f 3B       		.uleb128 0x3b
 11350 0040 0B       		.uleb128 0xb
 11351 0041 01       		.uleb128 0x1
 11352 0042 13       		.uleb128 0x13
 11353 0043 00       		.byte	0
 11354 0044 00       		.byte	0
 11355 0045 06       		.uleb128 0x6
ARM GAS  /var/folders/dt/0wfd0knj7gs46m8vwfzktm600000gn/T//cczoWvr4.s 			page 201


 11356 0046 0D       		.uleb128 0xd
 11357 0047 00       		.byte	0
 11358 0048 03       		.uleb128 0x3
 11359 0049 0E       		.uleb128 0xe
 11360 004a 3A       		.uleb128 0x3a
 11361 004b 0B       		.uleb128 0xb
 11362 004c 3B       		.uleb128 0x3b
 11363 004d 0B       		.uleb128 0xb
 11364 004e 49       		.uleb128 0x49
 11365 004f 13       		.uleb128 0x13
 11366 0050 38       		.uleb128 0x38
 11367 0051 0A       		.uleb128 0xa
 11368 0052 00       		.byte	0
 11369 0053 00       		.byte	0
 11370 0054 07       		.uleb128 0x7
 11371 0055 0D       		.uleb128 0xd
 11372 0056 00       		.byte	0
 11373 0057 03       		.uleb128 0x3
 11374 0058 08       		.uleb128 0x8
 11375 0059 3A       		.uleb128 0x3a
 11376 005a 0B       		.uleb128 0xb
 11377 005b 3B       		.uleb128 0x3b
 11378 005c 0B       		.uleb128 0xb
 11379 005d 49       		.uleb128 0x49
 11380 005e 13       		.uleb128 0x13
 11381 005f 38       		.uleb128 0x38
 11382 0060 0A       		.uleb128 0xa
 11383 0061 00       		.byte	0
 11384 0062 00       		.byte	0
 11385 0063 08       		.uleb128 0x8
 11386 0064 01       		.uleb128 0x1
 11387 0065 01       		.byte	0x1
 11388 0066 49       		.uleb128 0x49
 11389 0067 13       		.uleb128 0x13
 11390 0068 01       		.uleb128 0x1
 11391 0069 13       		.uleb128 0x13
 11392 006a 00       		.byte	0
 11393 006b 00       		.byte	0
 11394 006c 09       		.uleb128 0x9
 11395 006d 21       		.uleb128 0x21
 11396 006e 00       		.byte	0
 11397 006f 49       		.uleb128 0x49
 11398 0070 13       		.uleb128 0x13
 11399 0071 2F       		.uleb128 0x2f
 11400 0072 05       		.uleb128 0x5
 11401 0073 00       		.byte	0
 11402 0074 00       		.byte	0
 11403 0075 0A       		.uleb128 0xa
 11404 0076 0F       		.uleb128 0xf
 11405 0077 00       		.byte	0
 11406 0078 0B       		.uleb128 0xb
 11407 0079 0B       		.uleb128 0xb
 11408 007a 49       		.uleb128 0x49
 11409 007b 13       		.uleb128 0x13
 11410 007c 00       		.byte	0
 11411 007d 00       		.byte	0
 11412 007e 0B       		.uleb128 0xb
ARM GAS  /var/folders/dt/0wfd0knj7gs46m8vwfzktm600000gn/T//cczoWvr4.s 			page 202


 11413 007f 16       		.uleb128 0x16
 11414 0080 00       		.byte	0
 11415 0081 03       		.uleb128 0x3
 11416 0082 08       		.uleb128 0x8
 11417 0083 3A       		.uleb128 0x3a
 11418 0084 0B       		.uleb128 0xb
 11419 0085 3B       		.uleb128 0x3b
 11420 0086 0B       		.uleb128 0xb
 11421 0087 49       		.uleb128 0x49
 11422 0088 13       		.uleb128 0x13
 11423 0089 00       		.byte	0
 11424 008a 00       		.byte	0
 11425 008b 0C       		.uleb128 0xc
 11426 008c 13       		.uleb128 0x13
 11427 008d 01       		.byte	0x1
 11428 008e 0B       		.uleb128 0xb
 11429 008f 0B       		.uleb128 0xb
 11430 0090 3A       		.uleb128 0x3a
 11431 0091 0B       		.uleb128 0xb
 11432 0092 3B       		.uleb128 0x3b
 11433 0093 0B       		.uleb128 0xb
 11434 0094 01       		.uleb128 0x1
 11435 0095 13       		.uleb128 0x13
 11436 0096 00       		.byte	0
 11437 0097 00       		.byte	0
 11438 0098 0D       		.uleb128 0xd
 11439 0099 21       		.uleb128 0x21
 11440 009a 00       		.byte	0
 11441 009b 49       		.uleb128 0x49
 11442 009c 13       		.uleb128 0x13
 11443 009d 2F       		.uleb128 0x2f
 11444 009e 0B       		.uleb128 0xb
 11445 009f 00       		.byte	0
 11446 00a0 00       		.byte	0
 11447 00a1 0E       		.uleb128 0xe
 11448 00a2 04       		.uleb128 0x4
 11449 00a3 01       		.byte	0x1
 11450 00a4 0B       		.uleb128 0xb
 11451 00a5 0B       		.uleb128 0xb
 11452 00a6 3A       		.uleb128 0x3a
 11453 00a7 0B       		.uleb128 0xb
 11454 00a8 3B       		.uleb128 0x3b
 11455 00a9 0B       		.uleb128 0xb
 11456 00aa 01       		.uleb128 0x1
 11457 00ab 13       		.uleb128 0x13
 11458 00ac 00       		.byte	0
 11459 00ad 00       		.byte	0
 11460 00ae 0F       		.uleb128 0xf
 11461 00af 28       		.uleb128 0x28
 11462 00b0 00       		.byte	0
 11463 00b1 03       		.uleb128 0x3
 11464 00b2 0E       		.uleb128 0xe
 11465 00b3 1C       		.uleb128 0x1c
 11466 00b4 0D       		.uleb128 0xd
 11467 00b5 00       		.byte	0
 11468 00b6 00       		.byte	0
 11469 00b7 10       		.uleb128 0x10
ARM GAS  /var/folders/dt/0wfd0knj7gs46m8vwfzktm600000gn/T//cczoWvr4.s 			page 203


 11470 00b8 2E       		.uleb128 0x2e
 11471 00b9 01       		.byte	0x1
 11472 00ba 03       		.uleb128 0x3
 11473 00bb 0E       		.uleb128 0xe
 11474 00bc 3A       		.uleb128 0x3a
 11475 00bd 0B       		.uleb128 0xb
 11476 00be 3B       		.uleb128 0x3b
 11477 00bf 05       		.uleb128 0x5
 11478 00c0 27       		.uleb128 0x27
 11479 00c1 0C       		.uleb128 0xc
 11480 00c2 20       		.uleb128 0x20
 11481 00c3 0B       		.uleb128 0xb
 11482 00c4 01       		.uleb128 0x1
 11483 00c5 13       		.uleb128 0x13
 11484 00c6 00       		.byte	0
 11485 00c7 00       		.byte	0
 11486 00c8 11       		.uleb128 0x11
 11487 00c9 05       		.uleb128 0x5
 11488 00ca 00       		.byte	0
 11489 00cb 03       		.uleb128 0x3
 11490 00cc 08       		.uleb128 0x8
 11491 00cd 3A       		.uleb128 0x3a
 11492 00ce 0B       		.uleb128 0xb
 11493 00cf 3B       		.uleb128 0x3b
 11494 00d0 05       		.uleb128 0x5
 11495 00d1 49       		.uleb128 0x49
 11496 00d2 13       		.uleb128 0x13
 11497 00d3 00       		.byte	0
 11498 00d4 00       		.byte	0
 11499 00d5 12       		.uleb128 0x12
 11500 00d6 34       		.uleb128 0x34
 11501 00d7 00       		.byte	0
 11502 00d8 03       		.uleb128 0x3
 11503 00d9 08       		.uleb128 0x8
 11504 00da 3A       		.uleb128 0x3a
 11505 00db 0B       		.uleb128 0xb
 11506 00dc 3B       		.uleb128 0x3b
 11507 00dd 05       		.uleb128 0x5
 11508 00de 49       		.uleb128 0x49
 11509 00df 13       		.uleb128 0x13
 11510 00e0 00       		.byte	0
 11511 00e1 00       		.byte	0
 11512 00e2 13       		.uleb128 0x13
 11513 00e3 0F       		.uleb128 0xf
 11514 00e4 00       		.byte	0
 11515 00e5 0B       		.uleb128 0xb
 11516 00e6 0B       		.uleb128 0xb
 11517 00e7 00       		.byte	0
 11518 00e8 00       		.byte	0
 11519 00e9 14       		.uleb128 0x14
 11520 00ea 2E       		.uleb128 0x2e
 11521 00eb 01       		.byte	0x1
 11522 00ec 03       		.uleb128 0x3
 11523 00ed 0E       		.uleb128 0xe
 11524 00ee 3A       		.uleb128 0x3a
 11525 00ef 0B       		.uleb128 0xb
 11526 00f0 3B       		.uleb128 0x3b
ARM GAS  /var/folders/dt/0wfd0knj7gs46m8vwfzktm600000gn/T//cczoWvr4.s 			page 204


 11527 00f1 05       		.uleb128 0x5
 11528 00f2 27       		.uleb128 0x27
 11529 00f3 0C       		.uleb128 0xc
 11530 00f4 49       		.uleb128 0x49
 11531 00f5 13       		.uleb128 0x13
 11532 00f6 20       		.uleb128 0x20
 11533 00f7 0B       		.uleb128 0xb
 11534 00f8 01       		.uleb128 0x1
 11535 00f9 13       		.uleb128 0x13
 11536 00fa 00       		.byte	0
 11537 00fb 00       		.byte	0
 11538 00fc 15       		.uleb128 0x15
 11539 00fd 26       		.uleb128 0x26
 11540 00fe 00       		.byte	0
 11541 00ff 49       		.uleb128 0x49
 11542 0100 13       		.uleb128 0x13
 11543 0101 00       		.byte	0
 11544 0102 00       		.byte	0
 11545 0103 16       		.uleb128 0x16
 11546 0104 05       		.uleb128 0x5
 11547 0105 00       		.byte	0
 11548 0106 03       		.uleb128 0x3
 11549 0107 0E       		.uleb128 0xe
 11550 0108 3A       		.uleb128 0x3a
 11551 0109 0B       		.uleb128 0xb
 11552 010a 3B       		.uleb128 0x3b
 11553 010b 05       		.uleb128 0x5
 11554 010c 49       		.uleb128 0x49
 11555 010d 13       		.uleb128 0x13
 11556 010e 00       		.byte	0
 11557 010f 00       		.byte	0
 11558 0110 17       		.uleb128 0x17
 11559 0111 2E       		.uleb128 0x2e
 11560 0112 01       		.byte	0x1
 11561 0113 3F       		.uleb128 0x3f
 11562 0114 0C       		.uleb128 0xc
 11563 0115 03       		.uleb128 0x3
 11564 0116 0E       		.uleb128 0xe
 11565 0117 3A       		.uleb128 0x3a
 11566 0118 0B       		.uleb128 0xb
 11567 0119 3B       		.uleb128 0x3b
 11568 011a 05       		.uleb128 0x5
 11569 011b 27       		.uleb128 0x27
 11570 011c 0C       		.uleb128 0xc
 11571 011d 49       		.uleb128 0x49
 11572 011e 13       		.uleb128 0x13
 11573 011f 20       		.uleb128 0x20
 11574 0120 0B       		.uleb128 0xb
 11575 0121 01       		.uleb128 0x1
 11576 0122 13       		.uleb128 0x13
 11577 0123 00       		.byte	0
 11578 0124 00       		.byte	0
 11579 0125 18       		.uleb128 0x18
 11580 0126 26       		.uleb128 0x26
 11581 0127 00       		.byte	0
 11582 0128 00       		.byte	0
 11583 0129 00       		.byte	0
ARM GAS  /var/folders/dt/0wfd0knj7gs46m8vwfzktm600000gn/T//cczoWvr4.s 			page 205


 11584 012a 19       		.uleb128 0x19
 11585 012b 2E       		.uleb128 0x2e
 11586 012c 01       		.byte	0x1
 11587 012d 03       		.uleb128 0x3
 11588 012e 0E       		.uleb128 0xe
 11589 012f 3A       		.uleb128 0x3a
 11590 0130 0B       		.uleb128 0xb
 11591 0131 3B       		.uleb128 0x3b
 11592 0132 05       		.uleb128 0x5
 11593 0133 27       		.uleb128 0x27
 11594 0134 0C       		.uleb128 0xc
 11595 0135 11       		.uleb128 0x11
 11596 0136 01       		.uleb128 0x1
 11597 0137 12       		.uleb128 0x12
 11598 0138 01       		.uleb128 0x1
 11599 0139 40       		.uleb128 0x40
 11600 013a 06       		.uleb128 0x6
 11601 013b 9742     		.uleb128 0x2117
 11602 013d 0C       		.uleb128 0xc
 11603 013e 01       		.uleb128 0x1
 11604 013f 13       		.uleb128 0x13
 11605 0140 00       		.byte	0
 11606 0141 00       		.byte	0
 11607 0142 1A       		.uleb128 0x1a
 11608 0143 05       		.uleb128 0x5
 11609 0144 00       		.byte	0
 11610 0145 03       		.uleb128 0x3
 11611 0146 08       		.uleb128 0x8
 11612 0147 3A       		.uleb128 0x3a
 11613 0148 0B       		.uleb128 0xb
 11614 0149 3B       		.uleb128 0x3b
 11615 014a 05       		.uleb128 0x5
 11616 014b 49       		.uleb128 0x49
 11617 014c 13       		.uleb128 0x13
 11618 014d 02       		.uleb128 0x2
 11619 014e 06       		.uleb128 0x6
 11620 014f 00       		.byte	0
 11621 0150 00       		.byte	0
 11622 0151 1B       		.uleb128 0x1b
 11623 0152 05       		.uleb128 0x5
 11624 0153 00       		.byte	0
 11625 0154 03       		.uleb128 0x3
 11626 0155 08       		.uleb128 0x8
 11627 0156 3A       		.uleb128 0x3a
 11628 0157 0B       		.uleb128 0xb
 11629 0158 3B       		.uleb128 0x3b
 11630 0159 05       		.uleb128 0x5
 11631 015a 49       		.uleb128 0x49
 11632 015b 13       		.uleb128 0x13
 11633 015c 02       		.uleb128 0x2
 11634 015d 0A       		.uleb128 0xa
 11635 015e 00       		.byte	0
 11636 015f 00       		.byte	0
 11637 0160 1C       		.uleb128 0x1c
 11638 0161 34       		.uleb128 0x34
 11639 0162 00       		.byte	0
 11640 0163 03       		.uleb128 0x3
ARM GAS  /var/folders/dt/0wfd0knj7gs46m8vwfzktm600000gn/T//cczoWvr4.s 			page 206


 11641 0164 08       		.uleb128 0x8
 11642 0165 3A       		.uleb128 0x3a
 11643 0166 0B       		.uleb128 0xb
 11644 0167 3B       		.uleb128 0x3b
 11645 0168 05       		.uleb128 0x5
 11646 0169 49       		.uleb128 0x49
 11647 016a 13       		.uleb128 0x13
 11648 016b 02       		.uleb128 0x2
 11649 016c 06       		.uleb128 0x6
 11650 016d 00       		.byte	0
 11651 016e 00       		.byte	0
 11652 016f 1D       		.uleb128 0x1d
 11653 0170 2E       		.uleb128 0x2e
 11654 0171 01       		.byte	0x1
 11655 0172 03       		.uleb128 0x3
 11656 0173 0E       		.uleb128 0xe
 11657 0174 3A       		.uleb128 0x3a
 11658 0175 0B       		.uleb128 0xb
 11659 0176 3B       		.uleb128 0x3b
 11660 0177 05       		.uleb128 0x5
 11661 0178 27       		.uleb128 0x27
 11662 0179 0C       		.uleb128 0xc
 11663 017a 49       		.uleb128 0x49
 11664 017b 13       		.uleb128 0x13
 11665 017c 11       		.uleb128 0x11
 11666 017d 01       		.uleb128 0x1
 11667 017e 12       		.uleb128 0x12
 11668 017f 01       		.uleb128 0x1
 11669 0180 40       		.uleb128 0x40
 11670 0181 06       		.uleb128 0x6
 11671 0182 9742     		.uleb128 0x2117
 11672 0184 0C       		.uleb128 0xc
 11673 0185 01       		.uleb128 0x1
 11674 0186 13       		.uleb128 0x13
 11675 0187 00       		.byte	0
 11676 0188 00       		.byte	0
 11677 0189 1E       		.uleb128 0x1e
 11678 018a 05       		.uleb128 0x5
 11679 018b 00       		.byte	0
 11680 018c 03       		.uleb128 0x3
 11681 018d 0E       		.uleb128 0xe
 11682 018e 3A       		.uleb128 0x3a
 11683 018f 0B       		.uleb128 0xb
 11684 0190 3B       		.uleb128 0x3b
 11685 0191 05       		.uleb128 0x5
 11686 0192 49       		.uleb128 0x49
 11687 0193 13       		.uleb128 0x13
 11688 0194 02       		.uleb128 0x2
 11689 0195 06       		.uleb128 0x6
 11690 0196 00       		.byte	0
 11691 0197 00       		.byte	0
 11692 0198 1F       		.uleb128 0x1f
 11693 0199 34       		.uleb128 0x34
 11694 019a 00       		.byte	0
 11695 019b 03       		.uleb128 0x3
 11696 019c 0E       		.uleb128 0xe
 11697 019d 3A       		.uleb128 0x3a
ARM GAS  /var/folders/dt/0wfd0knj7gs46m8vwfzktm600000gn/T//cczoWvr4.s 			page 207


 11698 019e 0B       		.uleb128 0xb
 11699 019f 3B       		.uleb128 0x3b
 11700 01a0 05       		.uleb128 0x5
 11701 01a1 49       		.uleb128 0x49
 11702 01a2 13       		.uleb128 0x13
 11703 01a3 02       		.uleb128 0x2
 11704 01a4 0A       		.uleb128 0xa
 11705 01a5 00       		.byte	0
 11706 01a6 00       		.byte	0
 11707 01a7 20       		.uleb128 0x20
 11708 01a8 0B       		.uleb128 0xb
 11709 01a9 01       		.byte	0x1
 11710 01aa 11       		.uleb128 0x11
 11711 01ab 01       		.uleb128 0x1
 11712 01ac 12       		.uleb128 0x12
 11713 01ad 01       		.uleb128 0x1
 11714 01ae 01       		.uleb128 0x1
 11715 01af 13       		.uleb128 0x13
 11716 01b0 00       		.byte	0
 11717 01b1 00       		.byte	0
 11718 01b2 21       		.uleb128 0x21
 11719 01b3 898201   		.uleb128 0x4109
 11720 01b6 01       		.byte	0x1
 11721 01b7 11       		.uleb128 0x11
 11722 01b8 01       		.uleb128 0x1
 11723 01b9 31       		.uleb128 0x31
 11724 01ba 13       		.uleb128 0x13
 11725 01bb 00       		.byte	0
 11726 01bc 00       		.byte	0
 11727 01bd 22       		.uleb128 0x22
 11728 01be 8A8201   		.uleb128 0x410a
 11729 01c1 00       		.byte	0
 11730 01c2 02       		.uleb128 0x2
 11731 01c3 0A       		.uleb128 0xa
 11732 01c4 9142     		.uleb128 0x2111
 11733 01c6 0A       		.uleb128 0xa
 11734 01c7 00       		.byte	0
 11735 01c8 00       		.byte	0
 11736 01c9 23       		.uleb128 0x23
 11737 01ca 898201   		.uleb128 0x4109
 11738 01cd 01       		.byte	0x1
 11739 01ce 11       		.uleb128 0x11
 11740 01cf 01       		.uleb128 0x1
 11741 01d0 31       		.uleb128 0x31
 11742 01d1 13       		.uleb128 0x13
 11743 01d2 01       		.uleb128 0x1
 11744 01d3 13       		.uleb128 0x13
 11745 01d4 00       		.byte	0
 11746 01d5 00       		.byte	0
 11747 01d6 24       		.uleb128 0x24
 11748 01d7 1D       		.uleb128 0x1d
 11749 01d8 01       		.byte	0x1
 11750 01d9 31       		.uleb128 0x31
 11751 01da 13       		.uleb128 0x13
 11752 01db 11       		.uleb128 0x11
 11753 01dc 01       		.uleb128 0x1
 11754 01dd 12       		.uleb128 0x12
ARM GAS  /var/folders/dt/0wfd0knj7gs46m8vwfzktm600000gn/T//cczoWvr4.s 			page 208


 11755 01de 01       		.uleb128 0x1
 11756 01df 58       		.uleb128 0x58
 11757 01e0 0B       		.uleb128 0xb
 11758 01e1 59       		.uleb128 0x59
 11759 01e2 05       		.uleb128 0x5
 11760 01e3 01       		.uleb128 0x1
 11761 01e4 13       		.uleb128 0x13
 11762 01e5 00       		.byte	0
 11763 01e6 00       		.byte	0
 11764 01e7 25       		.uleb128 0x25
 11765 01e8 05       		.uleb128 0x5
 11766 01e9 00       		.byte	0
 11767 01ea 31       		.uleb128 0x31
 11768 01eb 13       		.uleb128 0x13
 11769 01ec 02       		.uleb128 0x2
 11770 01ed 06       		.uleb128 0x6
 11771 01ee 00       		.byte	0
 11772 01ef 00       		.byte	0
 11773 01f0 26       		.uleb128 0x26
 11774 01f1 05       		.uleb128 0x5
 11775 01f2 00       		.byte	0
 11776 01f3 31       		.uleb128 0x31
 11777 01f4 13       		.uleb128 0x13
 11778 01f5 1C       		.uleb128 0x1c
 11779 01f6 0B       		.uleb128 0xb
 11780 01f7 00       		.byte	0
 11781 01f8 00       		.byte	0
 11782 01f9 27       		.uleb128 0x27
 11783 01fa 0B       		.uleb128 0xb
 11784 01fb 01       		.byte	0x1
 11785 01fc 11       		.uleb128 0x11
 11786 01fd 01       		.uleb128 0x1
 11787 01fe 12       		.uleb128 0x12
 11788 01ff 01       		.uleb128 0x1
 11789 0200 00       		.byte	0
 11790 0201 00       		.byte	0
 11791 0202 28       		.uleb128 0x28
 11792 0203 34       		.uleb128 0x34
 11793 0204 00       		.byte	0
 11794 0205 31       		.uleb128 0x31
 11795 0206 13       		.uleb128 0x13
 11796 0207 02       		.uleb128 0x2
 11797 0208 06       		.uleb128 0x6
 11798 0209 00       		.byte	0
 11799 020a 00       		.byte	0
 11800 020b 29       		.uleb128 0x29
 11801 020c 2E       		.uleb128 0x2e
 11802 020d 01       		.byte	0x1
 11803 020e 31       		.uleb128 0x31
 11804 020f 13       		.uleb128 0x13
 11805 0210 11       		.uleb128 0x11
 11806 0211 01       		.uleb128 0x1
 11807 0212 12       		.uleb128 0x12
 11808 0213 01       		.uleb128 0x1
 11809 0214 40       		.uleb128 0x40
 11810 0215 06       		.uleb128 0x6
 11811 0216 9742     		.uleb128 0x2117
ARM GAS  /var/folders/dt/0wfd0knj7gs46m8vwfzktm600000gn/T//cczoWvr4.s 			page 209


 11812 0218 0C       		.uleb128 0xc
 11813 0219 01       		.uleb128 0x1
 11814 021a 13       		.uleb128 0x13
 11815 021b 00       		.byte	0
 11816 021c 00       		.byte	0
 11817 021d 2A       		.uleb128 0x2a
 11818 021e 1D       		.uleb128 0x1d
 11819 021f 01       		.byte	0x1
 11820 0220 31       		.uleb128 0x31
 11821 0221 13       		.uleb128 0x13
 11822 0222 11       		.uleb128 0x11
 11823 0223 01       		.uleb128 0x1
 11824 0224 12       		.uleb128 0x12
 11825 0225 01       		.uleb128 0x1
 11826 0226 58       		.uleb128 0x58
 11827 0227 0B       		.uleb128 0xb
 11828 0228 59       		.uleb128 0x59
 11829 0229 05       		.uleb128 0x5
 11830 022a 00       		.byte	0
 11831 022b 00       		.byte	0
 11832 022c 2B       		.uleb128 0x2b
 11833 022d 05       		.uleb128 0x5
 11834 022e 00       		.byte	0
 11835 022f 31       		.uleb128 0x31
 11836 0230 13       		.uleb128 0x13
 11837 0231 00       		.byte	0
 11838 0232 00       		.byte	0
 11839 0233 2C       		.uleb128 0x2c
 11840 0234 898201   		.uleb128 0x4109
 11841 0237 00       		.byte	0
 11842 0238 11       		.uleb128 0x11
 11843 0239 01       		.uleb128 0x1
 11844 023a 31       		.uleb128 0x31
 11845 023b 13       		.uleb128 0x13
 11846 023c 00       		.byte	0
 11847 023d 00       		.byte	0
 11848 023e 2D       		.uleb128 0x2d
 11849 023f 05       		.uleb128 0x5
 11850 0240 00       		.byte	0
 11851 0241 31       		.uleb128 0x31
 11852 0242 13       		.uleb128 0x13
 11853 0243 02       		.uleb128 0x2
 11854 0244 0A       		.uleb128 0xa
 11855 0245 00       		.byte	0
 11856 0246 00       		.byte	0
 11857 0247 2E       		.uleb128 0x2e
 11858 0248 34       		.uleb128 0x34
 11859 0249 00       		.byte	0
 11860 024a 03       		.uleb128 0x3
 11861 024b 0E       		.uleb128 0xe
 11862 024c 3A       		.uleb128 0x3a
 11863 024d 0B       		.uleb128 0xb
 11864 024e 3B       		.uleb128 0x3b
 11865 024f 05       		.uleb128 0x5
 11866 0250 49       		.uleb128 0x49
 11867 0251 13       		.uleb128 0x13
 11868 0252 02       		.uleb128 0x2
ARM GAS  /var/folders/dt/0wfd0knj7gs46m8vwfzktm600000gn/T//cczoWvr4.s 			page 210


 11869 0253 06       		.uleb128 0x6
 11870 0254 00       		.byte	0
 11871 0255 00       		.byte	0
 11872 0256 2F       		.uleb128 0x2f
 11873 0257 2E       		.uleb128 0x2e
 11874 0258 01       		.byte	0x1
 11875 0259 31       		.uleb128 0x31
 11876 025a 13       		.uleb128 0x13
 11877 025b 11       		.uleb128 0x11
 11878 025c 01       		.uleb128 0x1
 11879 025d 12       		.uleb128 0x12
 11880 025e 01       		.uleb128 0x1
 11881 025f 40       		.uleb128 0x40
 11882 0260 0A       		.uleb128 0xa
 11883 0261 9742     		.uleb128 0x2117
 11884 0263 0C       		.uleb128 0xc
 11885 0264 01       		.uleb128 0x1
 11886 0265 13       		.uleb128 0x13
 11887 0266 00       		.byte	0
 11888 0267 00       		.byte	0
 11889 0268 30       		.uleb128 0x30
 11890 0269 34       		.uleb128 0x34
 11891 026a 00       		.byte	0
 11892 026b 31       		.uleb128 0x31
 11893 026c 13       		.uleb128 0x13
 11894 026d 00       		.byte	0
 11895 026e 00       		.byte	0
 11896 026f 31       		.uleb128 0x31
 11897 0270 1D       		.uleb128 0x1d
 11898 0271 01       		.byte	0x1
 11899 0272 31       		.uleb128 0x31
 11900 0273 13       		.uleb128 0x13
 11901 0274 52       		.uleb128 0x52
 11902 0275 01       		.uleb128 0x1
 11903 0276 55       		.uleb128 0x55
 11904 0277 06       		.uleb128 0x6
 11905 0278 58       		.uleb128 0x58
 11906 0279 0B       		.uleb128 0xb
 11907 027a 59       		.uleb128 0x59
 11908 027b 05       		.uleb128 0x5
 11909 027c 00       		.byte	0
 11910 027d 00       		.byte	0
 11911 027e 32       		.uleb128 0x32
 11912 027f 0B       		.uleb128 0xb
 11913 0280 01       		.byte	0x1
 11914 0281 55       		.uleb128 0x55
 11915 0282 06       		.uleb128 0x6
 11916 0283 00       		.byte	0
 11917 0284 00       		.byte	0
 11918 0285 33       		.uleb128 0x33
 11919 0286 34       		.uleb128 0x34
 11920 0287 00       		.byte	0
 11921 0288 03       		.uleb128 0x3
 11922 0289 08       		.uleb128 0x8
 11923 028a 3A       		.uleb128 0x3a
 11924 028b 0B       		.uleb128 0xb
 11925 028c 3B       		.uleb128 0x3b
ARM GAS  /var/folders/dt/0wfd0knj7gs46m8vwfzktm600000gn/T//cczoWvr4.s 			page 211


 11926 028d 05       		.uleb128 0x5
 11927 028e 49       		.uleb128 0x49
 11928 028f 13       		.uleb128 0x13
 11929 0290 02       		.uleb128 0x2
 11930 0291 0A       		.uleb128 0xa
 11931 0292 00       		.byte	0
 11932 0293 00       		.byte	0
 11933 0294 34       		.uleb128 0x34
 11934 0295 1D       		.uleb128 0x1d
 11935 0296 01       		.byte	0x1
 11936 0297 31       		.uleb128 0x31
 11937 0298 13       		.uleb128 0x13
 11938 0299 52       		.uleb128 0x52
 11939 029a 01       		.uleb128 0x1
 11940 029b 55       		.uleb128 0x55
 11941 029c 06       		.uleb128 0x6
 11942 029d 58       		.uleb128 0x58
 11943 029e 0B       		.uleb128 0xb
 11944 029f 59       		.uleb128 0x59
 11945 02a0 05       		.uleb128 0x5
 11946 02a1 01       		.uleb128 0x1
 11947 02a2 13       		.uleb128 0x13
 11948 02a3 00       		.byte	0
 11949 02a4 00       		.byte	0
 11950 02a5 35       		.uleb128 0x35
 11951 02a6 34       		.uleb128 0x34
 11952 02a7 00       		.byte	0
 11953 02a8 31       		.uleb128 0x31
 11954 02a9 13       		.uleb128 0x13
 11955 02aa 02       		.uleb128 0x2
 11956 02ab 0A       		.uleb128 0xa
 11957 02ac 00       		.byte	0
 11958 02ad 00       		.byte	0
 11959 02ae 36       		.uleb128 0x36
 11960 02af 0B       		.uleb128 0xb
 11961 02b0 01       		.byte	0x1
 11962 02b1 55       		.uleb128 0x55
 11963 02b2 06       		.uleb128 0x6
 11964 02b3 01       		.uleb128 0x1
 11965 02b4 13       		.uleb128 0x13
 11966 02b5 00       		.byte	0
 11967 02b6 00       		.byte	0
 11968 02b7 37       		.uleb128 0x37
 11969 02b8 2E       		.uleb128 0x2e
 11970 02b9 01       		.byte	0x1
 11971 02ba 3F       		.uleb128 0x3f
 11972 02bb 0C       		.uleb128 0xc
 11973 02bc 03       		.uleb128 0x3
 11974 02bd 0E       		.uleb128 0xe
 11975 02be 3A       		.uleb128 0x3a
 11976 02bf 0B       		.uleb128 0xb
 11977 02c0 3B       		.uleb128 0x3b
 11978 02c1 05       		.uleb128 0x5
 11979 02c2 27       		.uleb128 0x27
 11980 02c3 0C       		.uleb128 0xc
 11981 02c4 49       		.uleb128 0x49
 11982 02c5 13       		.uleb128 0x13
ARM GAS  /var/folders/dt/0wfd0knj7gs46m8vwfzktm600000gn/T//cczoWvr4.s 			page 212


 11983 02c6 11       		.uleb128 0x11
 11984 02c7 01       		.uleb128 0x1
 11985 02c8 12       		.uleb128 0x12
 11986 02c9 01       		.uleb128 0x1
 11987 02ca 40       		.uleb128 0x40
 11988 02cb 0A       		.uleb128 0xa
 11989 02cc 9742     		.uleb128 0x2117
 11990 02ce 0C       		.uleb128 0xc
 11991 02cf 01       		.uleb128 0x1
 11992 02d0 13       		.uleb128 0x13
 11993 02d1 00       		.byte	0
 11994 02d2 00       		.byte	0
 11995 02d3 38       		.uleb128 0x38
 11996 02d4 2E       		.uleb128 0x2e
 11997 02d5 01       		.byte	0x1
 11998 02d6 3F       		.uleb128 0x3f
 11999 02d7 0C       		.uleb128 0xc
 12000 02d8 03       		.uleb128 0x3
 12001 02d9 0E       		.uleb128 0xe
 12002 02da 3A       		.uleb128 0x3a
 12003 02db 0B       		.uleb128 0xb
 12004 02dc 3B       		.uleb128 0x3b
 12005 02dd 05       		.uleb128 0x5
 12006 02de 27       		.uleb128 0x27
 12007 02df 0C       		.uleb128 0xc
 12008 02e0 49       		.uleb128 0x49
 12009 02e1 13       		.uleb128 0x13
 12010 02e2 11       		.uleb128 0x11
 12011 02e3 01       		.uleb128 0x1
 12012 02e4 12       		.uleb128 0x12
 12013 02e5 01       		.uleb128 0x1
 12014 02e6 40       		.uleb128 0x40
 12015 02e7 06       		.uleb128 0x6
 12016 02e8 9742     		.uleb128 0x2117
 12017 02ea 0C       		.uleb128 0xc
 12018 02eb 01       		.uleb128 0x1
 12019 02ec 13       		.uleb128 0x13
 12020 02ed 00       		.byte	0
 12021 02ee 00       		.byte	0
 12022 02ef 39       		.uleb128 0x39
 12023 02f0 898201   		.uleb128 0x4109
 12024 02f3 00       		.byte	0
 12025 02f4 11       		.uleb128 0x11
 12026 02f5 01       		.uleb128 0x1
 12027 02f6 9542     		.uleb128 0x2115
 12028 02f8 0C       		.uleb128 0xc
 12029 02f9 31       		.uleb128 0x31
 12030 02fa 13       		.uleb128 0x13
 12031 02fb 00       		.byte	0
 12032 02fc 00       		.byte	0
 12033 02fd 3A       		.uleb128 0x3a
 12034 02fe 2E       		.uleb128 0x2e
 12035 02ff 01       		.byte	0x1
 12036 0300 3F       		.uleb128 0x3f
 12037 0301 0C       		.uleb128 0xc
 12038 0302 03       		.uleb128 0x3
 12039 0303 0E       		.uleb128 0xe
ARM GAS  /var/folders/dt/0wfd0knj7gs46m8vwfzktm600000gn/T//cczoWvr4.s 			page 213


 12040 0304 3A       		.uleb128 0x3a
 12041 0305 0B       		.uleb128 0xb
 12042 0306 3B       		.uleb128 0x3b
 12043 0307 0B       		.uleb128 0xb
 12044 0308 27       		.uleb128 0x27
 12045 0309 0C       		.uleb128 0xc
 12046 030a 49       		.uleb128 0x49
 12047 030b 13       		.uleb128 0x13
 12048 030c 3C       		.uleb128 0x3c
 12049 030d 0C       		.uleb128 0xc
 12050 030e 01       		.uleb128 0x1
 12051 030f 13       		.uleb128 0x13
 12052 0310 00       		.byte	0
 12053 0311 00       		.byte	0
 12054 0312 3B       		.uleb128 0x3b
 12055 0313 05       		.uleb128 0x5
 12056 0314 00       		.byte	0
 12057 0315 49       		.uleb128 0x49
 12058 0316 13       		.uleb128 0x13
 12059 0317 00       		.byte	0
 12060 0318 00       		.byte	0
 12061 0319 3C       		.uleb128 0x3c
 12062 031a 2E       		.uleb128 0x2e
 12063 031b 00       		.byte	0
 12064 031c 3F       		.uleb128 0x3f
 12065 031d 0C       		.uleb128 0xc
 12066 031e 03       		.uleb128 0x3
 12067 031f 0E       		.uleb128 0xe
 12068 0320 3A       		.uleb128 0x3a
 12069 0321 0B       		.uleb128 0xb
 12070 0322 3B       		.uleb128 0x3b
 12071 0323 0B       		.uleb128 0xb
 12072 0324 27       		.uleb128 0x27
 12073 0325 0C       		.uleb128 0xc
 12074 0326 49       		.uleb128 0x49
 12075 0327 13       		.uleb128 0x13
 12076 0328 3C       		.uleb128 0x3c
 12077 0329 0C       		.uleb128 0xc
 12078 032a 00       		.byte	0
 12079 032b 00       		.byte	0
 12080 032c 00       		.byte	0
 12081              		.section	.debug_loc,"",%progbits
 12082              	.Ldebug_loc0:
 12083              	.LLST0:
 12084 0000 00000000 		.4byte	.LFB18
 12085 0004 04000000 		.4byte	.LCFI0
 12086 0008 0200     		.2byte	0x2
 12087 000a 7D       		.byte	0x7d
 12088 000b 00       		.sleb128 0
 12089 000c 04000000 		.4byte	.LCFI0
 12090 0010 88000000 		.4byte	.LFE18
 12091 0014 0200     		.2byte	0x2
 12092 0016 7D       		.byte	0x7d
 12093 0017 0C       		.sleb128 12
 12094 0018 00000000 		.4byte	0
 12095 001c 00000000 		.4byte	0
 12096              	.LLST1:
ARM GAS  /var/folders/dt/0wfd0knj7gs46m8vwfzktm600000gn/T//cczoWvr4.s 			page 214


 12097 0020 00000000 		.4byte	.LVL0
 12098 0024 12000000 		.4byte	.LVL3
 12099 0028 0100     		.2byte	0x1
 12100 002a 50       		.byte	0x50
 12101 002b 12000000 		.4byte	.LVL3
 12102 002f 88000000 		.4byte	.LFE18
 12103 0033 0400     		.2byte	0x4
 12104 0035 F3       		.byte	0xf3
 12105 0036 01       		.uleb128 0x1
 12106 0037 50       		.byte	0x50
 12107 0038 9F       		.byte	0x9f
 12108 0039 00000000 		.4byte	0
 12109 003d 00000000 		.4byte	0
 12110              	.LLST2:
 12111 0041 0E000000 		.4byte	.LVL2
 12112 0045 12000000 		.4byte	.LVL3
 12113 0049 0200     		.2byte	0x2
 12114 004b 30       		.byte	0x30
 12115 004c 9F       		.byte	0x9f
 12116 004d 2A000000 		.4byte	.LVL8
 12117 0051 2C000000 		.4byte	.LVL9
 12118 0055 0100     		.2byte	0x1
 12119 0057 50       		.byte	0x50
 12120 0058 3A000000 		.4byte	.LVL10
 12121 005c 3E000000 		.4byte	.LVL11
 12122 0060 0200     		.2byte	0x2
 12123 0062 38       		.byte	0x38
 12124 0063 9F       		.byte	0x9f
 12125 0064 00000000 		.4byte	0
 12126 0068 00000000 		.4byte	0
 12127              	.LLST3:
 12128 006c 0E000000 		.4byte	.LVL2
 12129 0070 80000000 		.4byte	.LVL16
 12130 0074 0200     		.2byte	0x2
 12131 0076 75       		.byte	0x75
 12132 0077 0C       		.sleb128 12
 12133 0078 00000000 		.4byte	0
 12134 007c 00000000 		.4byte	0
 12135              	.LLST4:
 12136 0080 0E000000 		.4byte	.LVL2
 12137 0084 80000000 		.4byte	.LVL16
 12138 0088 0100     		.2byte	0x1
 12139 008a 55       		.byte	0x55
 12140 008b 00000000 		.4byte	0
 12141 008f 00000000 		.4byte	0
 12142              	.LLST5:
 12143 0093 08000000 		.4byte	.LVL1
 12144 0097 12000000 		.4byte	.LVL3
 12145 009b 0100     		.2byte	0x1
 12146 009d 54       		.byte	0x54
 12147 009e 12000000 		.4byte	.LVL3
 12148 00a2 26000000 		.4byte	.LVL7
 12149 00a6 0100     		.2byte	0x1
 12150 00a8 52       		.byte	0x52
 12151 00a9 26000000 		.4byte	.LVL7
 12152 00ad 2A000000 		.4byte	.LVL8
 12153 00b1 0100     		.2byte	0x1
ARM GAS  /var/folders/dt/0wfd0knj7gs46m8vwfzktm600000gn/T//cczoWvr4.s 			page 215


 12154 00b3 54       		.byte	0x54
 12155 00b4 2A000000 		.4byte	.LVL8
 12156 00b8 3A000000 		.4byte	.LVL10
 12157 00bc 0100     		.2byte	0x1
 12158 00be 52       		.byte	0x52
 12159 00bf 3A000000 		.4byte	.LVL10
 12160 00c3 4C000000 		.4byte	.LVL13
 12161 00c7 0100     		.2byte	0x1
 12162 00c9 53       		.byte	0x53
 12163 00ca 4C000000 		.4byte	.LVL13
 12164 00ce 50000000 		.4byte	.LVL14
 12165 00d2 0100     		.2byte	0x1
 12166 00d4 54       		.byte	0x54
 12167 00d5 50000000 		.4byte	.LVL14
 12168 00d9 52000000 		.4byte	.LVL15
 12169 00dd 0100     		.2byte	0x1
 12170 00df 53       		.byte	0x53
 12171 00e0 52000000 		.4byte	.LVL15
 12172 00e4 88000000 		.4byte	.LFE18
 12173 00e8 0100     		.2byte	0x1
 12174 00ea 54       		.byte	0x54
 12175 00eb 00000000 		.4byte	0
 12176 00ef 00000000 		.4byte	0
 12177              	.LLST6:
 12178 00f3 14000000 		.4byte	.LVL4
 12179 00f7 16000000 		.4byte	.LVL5
 12180 00fb 0500     		.2byte	0x5
 12181 00fd 75       		.byte	0x75
 12182 00fe 00       		.sleb128 0
 12183 00ff 70       		.byte	0x70
 12184 0100 00       		.sleb128 0
 12185 0101 22       		.byte	0x22
 12186 0102 16000000 		.4byte	.LVL5
 12187 0106 22000000 		.4byte	.LVL6
 12188 010a 0700     		.2byte	0x7
 12189 010c 75       		.byte	0x75
 12190 010d 00       		.sleb128 0
 12191 010e 70       		.byte	0x70
 12192 010f 00       		.sleb128 0
 12193 0110 22       		.byte	0x22
 12194 0111 31       		.byte	0x31
 12195 0112 1C       		.byte	0x1c
 12196 0113 22000000 		.4byte	.LVL6
 12197 0117 2C000000 		.4byte	.LVL9
 12198 011b 0100     		.2byte	0x1
 12199 011d 53       		.byte	0x53
 12200 011e 42000000 		.4byte	.LVL12
 12201 0122 52000000 		.4byte	.LVL15
 12202 0126 0200     		.2byte	0x2
 12203 0128 76       		.byte	0x76
 12204 0129 00       		.sleb128 0
 12205 012a 00000000 		.4byte	0
 12206 012e 00000000 		.4byte	0
 12207              	.LLST7:
 12208 0132 00000000 		.4byte	.LFB4
 12209 0136 04000000 		.4byte	.LCFI1
 12210 013a 0200     		.2byte	0x2
ARM GAS  /var/folders/dt/0wfd0knj7gs46m8vwfzktm600000gn/T//cczoWvr4.s 			page 216


 12211 013c 7D       		.byte	0x7d
 12212 013d 00       		.sleb128 0
 12213 013e 04000000 		.4byte	.LCFI1
 12214 0142 7A000000 		.4byte	.LFE4
 12215 0146 0200     		.2byte	0x2
 12216 0148 7D       		.byte	0x7d
 12217 0149 18       		.sleb128 24
 12218 014a 00000000 		.4byte	0
 12219 014e 00000000 		.4byte	0
 12220              	.LLST8:
 12221 0152 00000000 		.4byte	.LVL17
 12222 0156 12000000 		.4byte	.LVL19
 12223 015a 0100     		.2byte	0x1
 12224 015c 50       		.byte	0x50
 12225 015d 12000000 		.4byte	.LVL19
 12226 0161 30000000 		.4byte	.LVL21
 12227 0165 0100     		.2byte	0x1
 12228 0167 54       		.byte	0x54
 12229 0168 30000000 		.4byte	.LVL21
 12230 016c 38000000 		.4byte	.LVL23
 12231 0170 0100     		.2byte	0x1
 12232 0172 50       		.byte	0x50
 12233 0173 38000000 		.4byte	.LVL23
 12234 0177 7A000000 		.4byte	.LFE4
 12235 017b 0100     		.2byte	0x1
 12236 017d 54       		.byte	0x54
 12237 017e 00000000 		.4byte	0
 12238 0182 00000000 		.4byte	0
 12239              	.LLST9:
 12240 0186 00000000 		.4byte	.LVL17
 12241 018a 12000000 		.4byte	.LVL19
 12242 018e 0100     		.2byte	0x1
 12243 0190 51       		.byte	0x51
 12244 0191 12000000 		.4byte	.LVL19
 12245 0195 30000000 		.4byte	.LVL21
 12246 0199 0100     		.2byte	0x1
 12247 019b 56       		.byte	0x56
 12248 019c 30000000 		.4byte	.LVL21
 12249 01a0 36000000 		.4byte	.LVL22
 12250 01a4 0100     		.2byte	0x1
 12251 01a6 51       		.byte	0x51
 12252 01a7 36000000 		.4byte	.LVL22
 12253 01ab 7A000000 		.4byte	.LFE4
 12254 01af 0100     		.2byte	0x1
 12255 01b1 56       		.byte	0x56
 12256 01b2 00000000 		.4byte	0
 12257 01b6 00000000 		.4byte	0
 12258              	.LLST10:
 12259 01ba 50000000 		.4byte	.LVL25
 12260 01be 56000000 		.4byte	.LVL26
 12261 01c2 0200     		.2byte	0x2
 12262 01c4 74       		.byte	0x74
 12263 01c5 03       		.sleb128 3
 12264 01c6 56000000 		.4byte	.LVL26
 12265 01ca 58000000 		.4byte	.LVL27
 12266 01ce 0100     		.2byte	0x1
 12267 01d0 57       		.byte	0x57
ARM GAS  /var/folders/dt/0wfd0knj7gs46m8vwfzktm600000gn/T//cczoWvr4.s 			page 217


 12268 01d1 6A000000 		.4byte	.LVL29
 12269 01d5 74000000 		.4byte	.LVL30
 12270 01d9 0100     		.2byte	0x1
 12271 01db 57       		.byte	0x57
 12272 01dc 00000000 		.4byte	0
 12273 01e0 00000000 		.4byte	0
 12274              	.LLST11:
 12275 01e4 00000000 		.4byte	.LFB5
 12276 01e8 04000000 		.4byte	.LCFI2
 12277 01ec 0200     		.2byte	0x2
 12278 01ee 7D       		.byte	0x7d
 12279 01ef 00       		.sleb128 0
 12280 01f0 04000000 		.4byte	.LCFI2
 12281 01f4 08000000 		.4byte	.LCFI3
 12282 01f8 0200     		.2byte	0x2
 12283 01fa 7D       		.byte	0x7d
 12284 01fb 24       		.sleb128 36
 12285 01fc 08000000 		.4byte	.LCFI3
 12286 0200 D4000000 		.4byte	.LFE5
 12287 0204 0200     		.2byte	0x2
 12288 0206 7D       		.byte	0x7d
 12289 0207 30       		.sleb128 48
 12290 0208 00000000 		.4byte	0
 12291 020c 00000000 		.4byte	0
 12292              	.LLST12:
 12293 0210 00000000 		.4byte	.LVL31
 12294 0214 0D000000 		.4byte	.LVL32-1
 12295 0218 0100     		.2byte	0x1
 12296 021a 50       		.byte	0x50
 12297 021b 0D000000 		.4byte	.LVL32-1
 12298 021f D4000000 		.4byte	.LFE5
 12299 0223 0100     		.2byte	0x1
 12300 0225 54       		.byte	0x54
 12301 0226 00000000 		.4byte	0
 12302 022a 00000000 		.4byte	0
 12303              	.LLST13:
 12304 022e 10000000 		.4byte	.LVL33
 12305 0232 18000000 		.4byte	.LVL34
 12306 0236 0100     		.2byte	0x1
 12307 0238 50       		.byte	0x50
 12308 0239 28000000 		.4byte	.LVL36
 12309 023d 30000000 		.4byte	.LVL37
 12310 0241 0100     		.2byte	0x1
 12311 0243 53       		.byte	0x53
 12312 0244 30000000 		.4byte	.LVL37
 12313 0248 6A000000 		.4byte	.LVL42
 12314 024c 0100     		.2byte	0x1
 12315 024e 50       		.byte	0x50
 12316 024f 6A000000 		.4byte	.LVL42
 12317 0253 CD000000 		.4byte	.LVL43-1
 12318 0257 0200     		.2byte	0x2
 12319 0259 74       		.byte	0x74
 12320 025a 2C       		.sleb128 44
 12321 025b 00000000 		.4byte	0
 12322 025f 00000000 		.4byte	0
 12323              	.LLST14:
 12324 0263 3A000000 		.4byte	.LVL38
ARM GAS  /var/folders/dt/0wfd0knj7gs46m8vwfzktm600000gn/T//cczoWvr4.s 			page 218


 12325 0267 42000000 		.4byte	.LVL39
 12326 026b 0400     		.2byte	0x4
 12327 026d 0A       		.byte	0xa
 12328 026e FF01     		.2byte	0x1ff
 12329 0270 9F       		.byte	0x9f
 12330 0271 00000000 		.4byte	0
 12331 0275 00000000 		.4byte	0
 12332              	.LLST15:
 12333 0279 3A000000 		.4byte	.LVL38
 12334 027d CD000000 		.4byte	.LVL43-1
 12335 0281 0100     		.2byte	0x1
 12336 0283 51       		.byte	0x51
 12337 0284 CD000000 		.4byte	.LVL43-1
 12338 0288 D4000000 		.4byte	.LFE5
 12339 028c 0300     		.2byte	0x3
 12340 028e 74       		.byte	0x74
 12341 028f 30       		.sleb128 48
 12342 0290 9F       		.byte	0x9f
 12343 0291 00000000 		.4byte	0
 12344 0295 00000000 		.4byte	0
 12345              	.LLST16:
 12346 0299 3A000000 		.4byte	.LVL38
 12347 029d 42000000 		.4byte	.LVL39
 12348 02a1 0100     		.2byte	0x1
 12349 02a3 51       		.byte	0x51
 12350 02a4 42000000 		.4byte	.LVL39
 12351 02a8 4C000000 		.4byte	.LVL41
 12352 02ac 0100     		.2byte	0x1
 12353 02ae 53       		.byte	0x53
 12354 02af 00000000 		.4byte	0
 12355 02b3 00000000 		.4byte	0
 12356              	.LLST17:
 12357 02b7 00000000 		.4byte	.LFB22
 12358 02bb 02000000 		.4byte	.LCFI4
 12359 02bf 0200     		.2byte	0x2
 12360 02c1 7D       		.byte	0x7d
 12361 02c2 00       		.sleb128 0
 12362 02c3 02000000 		.4byte	.LCFI4
 12363 02c7 24000000 		.4byte	.LFE22
 12364 02cb 0200     		.2byte	0x2
 12365 02cd 7D       		.byte	0x7d
 12366 02ce 08       		.sleb128 8
 12367 02cf 00000000 		.4byte	0
 12368 02d3 00000000 		.4byte	0
 12369              	.LLST18:
 12370 02d7 00000000 		.4byte	.LVL44
 12371 02db 0A000000 		.4byte	.LVL45
 12372 02df 0100     		.2byte	0x1
 12373 02e1 50       		.byte	0x50
 12374 02e2 0A000000 		.4byte	.LVL45
 12375 02e6 0C000000 		.4byte	.LVL46
 12376 02ea 0400     		.2byte	0x4
 12377 02ec F3       		.byte	0xf3
 12378 02ed 01       		.uleb128 0x1
 12379 02ee 50       		.byte	0x50
 12380 02ef 9F       		.byte	0x9f
 12381 02f0 0C000000 		.4byte	.LVL46
ARM GAS  /var/folders/dt/0wfd0knj7gs46m8vwfzktm600000gn/T//cczoWvr4.s 			page 219


 12382 02f4 14000000 		.4byte	.LVL48
 12383 02f8 0100     		.2byte	0x1
 12384 02fa 50       		.byte	0x50
 12385 02fb 14000000 		.4byte	.LVL48
 12386 02ff 24000000 		.4byte	.LFE22
 12387 0303 0400     		.2byte	0x4
 12388 0305 F3       		.byte	0xf3
 12389 0306 01       		.uleb128 0x1
 12390 0307 50       		.byte	0x50
 12391 0308 9F       		.byte	0x9f
 12392 0309 00000000 		.4byte	0
 12393 030d 00000000 		.4byte	0
 12394              	.LLST19:
 12395 0311 00000000 		.4byte	.LVL44
 12396 0315 17000000 		.4byte	.LVL49-1
 12397 0319 0100     		.2byte	0x1
 12398 031b 51       		.byte	0x51
 12399 031c 17000000 		.4byte	.LVL49-1
 12400 0320 24000000 		.4byte	.LFE22
 12401 0324 0400     		.2byte	0x4
 12402 0326 F3       		.byte	0xf3
 12403 0327 01       		.uleb128 0x1
 12404 0328 51       		.byte	0x51
 12405 0329 9F       		.byte	0x9f
 12406 032a 00000000 		.4byte	0
 12407 032e 00000000 		.4byte	0
 12408              	.LLST20:
 12409 0332 12000000 		.4byte	.LVL47
 12410 0336 14000000 		.4byte	.LVL48
 12411 033a 0100     		.2byte	0x1
 12412 033c 50       		.byte	0x50
 12413 033d 14000000 		.4byte	.LVL48
 12414 0341 24000000 		.4byte	.LFE22
 12415 0345 0400     		.2byte	0x4
 12416 0347 F3       		.byte	0xf3
 12417 0348 01       		.uleb128 0x1
 12418 0349 50       		.byte	0x50
 12419 034a 9F       		.byte	0x9f
 12420 034b 00000000 		.4byte	0
 12421 034f 00000000 		.4byte	0
 12422              	.LLST21:
 12423 0353 00000000 		.4byte	.LFB20
 12424 0357 02000000 		.4byte	.LCFI5
 12425 035b 0200     		.2byte	0x2
 12426 035d 7D       		.byte	0x7d
 12427 035e 00       		.sleb128 0
 12428 035f 02000000 		.4byte	.LCFI5
 12429 0363 8A000000 		.4byte	.LFE20
 12430 0367 0200     		.2byte	0x2
 12431 0369 7D       		.byte	0x7d
 12432 036a 08       		.sleb128 8
 12433 036b 00000000 		.4byte	0
 12434 036f 00000000 		.4byte	0
 12435              	.LLST22:
 12436 0373 00000000 		.4byte	.LVL50
 12437 0377 08000000 		.4byte	.LVL51
 12438 037b 0100     		.2byte	0x1
ARM GAS  /var/folders/dt/0wfd0knj7gs46m8vwfzktm600000gn/T//cczoWvr4.s 			page 220


 12439 037d 50       		.byte	0x50
 12440 037e 08000000 		.4byte	.LVL51
 12441 0382 8A000000 		.4byte	.LFE20
 12442 0386 0100     		.2byte	0x1
 12443 0388 54       		.byte	0x54
 12444 0389 00000000 		.4byte	0
 12445 038d 00000000 		.4byte	0
 12446              	.LLST23:
 12447 0391 00000000 		.4byte	.LVL50
 12448 0395 0C000000 		.4byte	.LVL52
 12449 0399 0100     		.2byte	0x1
 12450 039b 51       		.byte	0x51
 12451 039c 0C000000 		.4byte	.LVL52
 12452 03a0 11000000 		.4byte	.LVL53-1
 12453 03a4 0100     		.2byte	0x1
 12454 03a6 52       		.byte	0x52
 12455 03a7 11000000 		.4byte	.LVL53-1
 12456 03ab 8A000000 		.4byte	.LFE20
 12457 03af 0400     		.2byte	0x4
 12458 03b1 F3       		.byte	0xf3
 12459 03b2 01       		.uleb128 0x1
 12460 03b3 51       		.byte	0x51
 12461 03b4 9F       		.byte	0x9f
 12462 03b5 00000000 		.4byte	0
 12463 03b9 00000000 		.4byte	0
 12464              	.LLST24:
 12465 03bd 00000000 		.4byte	.LFB21
 12466 03c1 02000000 		.4byte	.LCFI6
 12467 03c5 0200     		.2byte	0x2
 12468 03c7 7D       		.byte	0x7d
 12469 03c8 00       		.sleb128 0
 12470 03c9 02000000 		.4byte	.LCFI6
 12471 03cd 04030000 		.4byte	.LFE21
 12472 03d1 0200     		.2byte	0x2
 12473 03d3 7D       		.byte	0x7d
 12474 03d4 18       		.sleb128 24
 12475 03d5 00000000 		.4byte	0
 12476 03d9 00000000 		.4byte	0
 12477              	.LLST25:
 12478 03dd 00000000 		.4byte	.LVL55
 12479 03e1 22000000 		.4byte	.LVL61
 12480 03e5 0100     		.2byte	0x1
 12481 03e7 50       		.byte	0x50
 12482 03e8 22000000 		.4byte	.LVL61
 12483 03ec 3E000000 		.4byte	.LVL64
 12484 03f0 0400     		.2byte	0x4
 12485 03f2 F3       		.byte	0xf3
 12486 03f3 01       		.uleb128 0x1
 12487 03f4 50       		.byte	0x50
 12488 03f5 9F       		.byte	0x9f
 12489 03f6 3E000000 		.4byte	.LVL64
 12490 03fa 40000000 		.4byte	.LVL65
 12491 03fe 0100     		.2byte	0x1
 12492 0400 50       		.byte	0x50
 12493 0401 40000000 		.4byte	.LVL65
 12494 0405 42000000 		.4byte	.LVL66
 12495 0409 0400     		.2byte	0x4
ARM GAS  /var/folders/dt/0wfd0knj7gs46m8vwfzktm600000gn/T//cczoWvr4.s 			page 221


 12496 040b F3       		.byte	0xf3
 12497 040c 01       		.uleb128 0x1
 12498 040d 50       		.byte	0x50
 12499 040e 9F       		.byte	0x9f
 12500 040f 42000000 		.4byte	.LVL66
 12501 0413 4C000000 		.4byte	.LVL68
 12502 0417 0100     		.2byte	0x1
 12503 0419 50       		.byte	0x50
 12504 041a 4C000000 		.4byte	.LVL68
 12505 041e 04030000 		.4byte	.LFE21
 12506 0422 0400     		.2byte	0x4
 12507 0424 F3       		.byte	0xf3
 12508 0425 01       		.uleb128 0x1
 12509 0426 50       		.byte	0x50
 12510 0427 9F       		.byte	0x9f
 12511 0428 00000000 		.4byte	0
 12512 042c 00000000 		.4byte	0
 12513              	.LLST26:
 12514 0430 00000000 		.4byte	.LVL55
 12515 0434 25000000 		.4byte	.LVL62-1
 12516 0438 0100     		.2byte	0x1
 12517 043a 51       		.byte	0x51
 12518 043b 25000000 		.4byte	.LVL62-1
 12519 043f 3E000000 		.4byte	.LVL64
 12520 0443 0400     		.2byte	0x4
 12521 0445 F3       		.byte	0xf3
 12522 0446 01       		.uleb128 0x1
 12523 0447 51       		.byte	0x51
 12524 0448 9F       		.byte	0x9f
 12525 0449 3E000000 		.4byte	.LVL64
 12526 044d 4E000000 		.4byte	.LVL69
 12527 0451 0100     		.2byte	0x1
 12528 0453 51       		.byte	0x51
 12529 0454 4E000000 		.4byte	.LVL69
 12530 0458 04030000 		.4byte	.LFE21
 12531 045c 0400     		.2byte	0x4
 12532 045e F3       		.byte	0xf3
 12533 045f 01       		.uleb128 0x1
 12534 0460 51       		.byte	0x51
 12535 0461 9F       		.byte	0x9f
 12536 0462 00000000 		.4byte	0
 12537 0466 00000000 		.4byte	0
 12538              	.LLST27:
 12539 046a 00000000 		.4byte	.LVL55
 12540 046e 10000000 		.4byte	.LVL58
 12541 0472 0100     		.2byte	0x1
 12542 0474 52       		.byte	0x52
 12543 0475 10000000 		.4byte	.LVL58
 12544 0479 04030000 		.4byte	.LFE21
 12545 047d 0400     		.2byte	0x4
 12546 047f F3       		.byte	0xf3
 12547 0480 01       		.uleb128 0x1
 12548 0481 52       		.byte	0x52
 12549 0482 9F       		.byte	0x9f
 12550 0483 00000000 		.4byte	0
 12551 0487 00000000 		.4byte	0
 12552              	.LLST28:
ARM GAS  /var/folders/dt/0wfd0knj7gs46m8vwfzktm600000gn/T//cczoWvr4.s 			page 222


 12553 048b 7A000000 		.4byte	.LVL77
 12554 048f 88000000 		.4byte	.LVL79
 12555 0493 0100     		.2byte	0x1
 12556 0495 50       		.byte	0x50
 12557 0496 8C000000 		.4byte	.LVL80
 12558 049a B2000000 		.4byte	.LVL82
 12559 049e 0100     		.2byte	0x1
 12560 04a0 50       		.byte	0x50
 12561 04a1 B8000000 		.4byte	.LVL83
 12562 04a5 FA000000 		.4byte	.LVL90
 12563 04a9 0100     		.2byte	0x1
 12564 04ab 50       		.byte	0x50
 12565 04ac 7C010000 		.4byte	.LVL104
 12566 04b0 86010000 		.4byte	.LVL105
 12567 04b4 0200     		.2byte	0x2
 12568 04b6 31       		.byte	0x31
 12569 04b7 9F       		.byte	0x9f
 12570 04b8 86010000 		.4byte	.LVL105
 12571 04bc 92010000 		.4byte	.LVL106
 12572 04c0 0200     		.2byte	0x2
 12573 04c2 32       		.byte	0x32
 12574 04c3 9F       		.byte	0x9f
 12575 04c4 92010000 		.4byte	.LVL106
 12576 04c8 BE010000 		.4byte	.LVL112
 12577 04cc 0100     		.2byte	0x1
 12578 04ce 56       		.byte	0x56
 12579 04cf EE010000 		.4byte	.LVL117
 12580 04d3 F0010000 		.4byte	.LVL118
 12581 04d7 0100     		.2byte	0x1
 12582 04d9 50       		.byte	0x50
 12583 04da BC020000 		.4byte	.LVL122
 12584 04de C0020000 		.4byte	.LVL124
 12585 04e2 0100     		.2byte	0x1
 12586 04e4 56       		.byte	0x56
 12587 04e5 C0020000 		.4byte	.LVL124
 12588 04e9 F6020000 		.4byte	.LVL130
 12589 04ed 0200     		.2byte	0x2
 12590 04ef 33       		.byte	0x33
 12591 04f0 9F       		.byte	0x9f
 12592 04f1 F6020000 		.4byte	.LVL130
 12593 04f5 04030000 		.4byte	.LFE21
 12594 04f9 0200     		.2byte	0x2
 12595 04fb 31       		.byte	0x31
 12596 04fc 9F       		.byte	0x9f
 12597 04fd 00000000 		.4byte	0
 12598 0501 00000000 		.4byte	0
 12599              	.LLST29:
 12600 0505 FA000000 		.4byte	.LVL90
 12601 0509 08010000 		.4byte	.LVL92
 12602 050d 0300     		.2byte	0x3
 12603 050f 74       		.byte	0x74
 12604 0510 C000     		.sleb128 64
 12605 0512 08010000 		.4byte	.LVL92
 12606 0516 D8010000 		.4byte	.LVL116
 12607 051a 0200     		.2byte	0x2
 12608 051c 74       		.byte	0x74
 12609 051d 3D       		.sleb128 61
ARM GAS  /var/folders/dt/0wfd0knj7gs46m8vwfzktm600000gn/T//cczoWvr4.s 			page 223


 12610 051e F2010000 		.4byte	.LVL119
 12611 0522 0F020000 		.4byte	.LVL120-1
 12612 0526 0200     		.2byte	0x2
 12613 0528 74       		.byte	0x74
 12614 0529 3D       		.sleb128 61
 12615 052a BC020000 		.4byte	.LVL122
 12616 052e 04030000 		.4byte	.LFE21
 12617 0532 0200     		.2byte	0x2
 12618 0534 74       		.byte	0x74
 12619 0535 3D       		.sleb128 61
 12620 0536 00000000 		.4byte	0
 12621 053a 00000000 		.4byte	0
 12622              	.LLST30:
 12623 053e 8C000000 		.4byte	.LVL80
 12624 0542 BA000000 		.4byte	.LVL84
 12625 0546 0400     		.2byte	0x4
 12626 0548 74       		.byte	0x74
 12627 0549 EE03     		.sleb128 494
 12628 054b 9F       		.byte	0x9f
 12629 054c 00000000 		.4byte	0
 12630 0550 00000000 		.4byte	0
 12631              	.LLST31:
 12632 0554 0A000000 		.4byte	.LVL57
 12633 0558 18000000 		.4byte	.LVL60
 12634 055c 0100     		.2byte	0x1
 12635 055e 54       		.byte	0x54
 12636 055f 18000000 		.4byte	.LVL60
 12637 0563 22000000 		.4byte	.LVL61
 12638 0567 0C00     		.2byte	0xc
 12639 0569 70       		.byte	0x70
 12640 056a 00       		.sleb128 0
 12641 056b 06       		.byte	0x6
 12642 056c 94       		.byte	0x94
 12643 056d 01       		.byte	0x1
 12644 056e 08       		.byte	0x8
 12645 056f FF       		.byte	0xff
 12646 0570 1A       		.byte	0x1a
 12647 0571 08       		.byte	0x8
 12648 0572 30       		.byte	0x30
 12649 0573 1C       		.byte	0x1c
 12650 0574 9F       		.byte	0x9f
 12651 0575 22000000 		.4byte	.LVL61
 12652 0579 25000000 		.4byte	.LVL62-1
 12653 057d 0D00     		.2byte	0xd
 12654 057f F3       		.byte	0xf3
 12655 0580 01       		.uleb128 0x1
 12656 0581 50       		.byte	0x50
 12657 0582 06       		.byte	0x6
 12658 0583 94       		.byte	0x94
 12659 0584 01       		.byte	0x1
 12660 0585 08       		.byte	0x8
 12661 0586 FF       		.byte	0xff
 12662 0587 1A       		.byte	0x1a
 12663 0588 08       		.byte	0x8
 12664 0589 30       		.byte	0x30
 12665 058a 1C       		.byte	0x1c
 12666 058b 9F       		.byte	0x9f
ARM GAS  /var/folders/dt/0wfd0knj7gs46m8vwfzktm600000gn/T//cczoWvr4.s 			page 224


 12667 058c 3E000000 		.4byte	.LVL64
 12668 0590 40000000 		.4byte	.LVL65
 12669 0594 0C00     		.2byte	0xc
 12670 0596 70       		.byte	0x70
 12671 0597 00       		.sleb128 0
 12672 0598 06       		.byte	0x6
 12673 0599 94       		.byte	0x94
 12674 059a 01       		.byte	0x1
 12675 059b 08       		.byte	0x8
 12676 059c FF       		.byte	0xff
 12677 059d 1A       		.byte	0x1a
 12678 059e 08       		.byte	0x8
 12679 059f 30       		.byte	0x30
 12680 05a0 1C       		.byte	0x1c
 12681 05a1 9F       		.byte	0x9f
 12682 05a2 40000000 		.4byte	.LVL65
 12683 05a6 42000000 		.4byte	.LVL66
 12684 05aa 0D00     		.2byte	0xd
 12685 05ac F3       		.byte	0xf3
 12686 05ad 01       		.uleb128 0x1
 12687 05ae 50       		.byte	0x50
 12688 05af 06       		.byte	0x6
 12689 05b0 94       		.byte	0x94
 12690 05b1 01       		.byte	0x1
 12691 05b2 08       		.byte	0x8
 12692 05b3 FF       		.byte	0xff
 12693 05b4 1A       		.byte	0x1a
 12694 05b5 08       		.byte	0x8
 12695 05b6 30       		.byte	0x30
 12696 05b7 1C       		.byte	0x1c
 12697 05b8 9F       		.byte	0x9f
 12698 05b9 42000000 		.4byte	.LVL66
 12699 05bd 4E000000 		.4byte	.LVL69
 12700 05c1 0100     		.2byte	0x1
 12701 05c3 54       		.byte	0x54
 12702 05c4 00000000 		.4byte	0
 12703 05c8 00000000 		.4byte	0
 12704              	.LLST32:
 12705 05cc 26000000 		.4byte	.LVL62
 12706 05d0 32000000 		.4byte	.LVL63
 12707 05d4 0100     		.2byte	0x1
 12708 05d6 50       		.byte	0x50
 12709 05d7 58000000 		.4byte	.LVL70
 12710 05db 5E000000 		.4byte	.LVL71
 12711 05df 0100     		.2byte	0x1
 12712 05e1 50       		.byte	0x50
 12713 05e2 60000000 		.4byte	.LVL72
 12714 05e6 66000000 		.4byte	.LVL73
 12715 05ea 0100     		.2byte	0x1
 12716 05ec 50       		.byte	0x50
 12717 05ed 6E000000 		.4byte	.LVL74
 12718 05f1 70000000 		.4byte	.LVL75
 12719 05f5 0100     		.2byte	0x1
 12720 05f7 50       		.byte	0x50
 12721 05f8 00000000 		.4byte	0
 12722 05fc 00000000 		.4byte	0
 12723              	.LLST33:
ARM GAS  /var/folders/dt/0wfd0knj7gs46m8vwfzktm600000gn/T//cczoWvr4.s 			page 225


 12724 0600 72000000 		.4byte	.LVL76
 12725 0604 80000000 		.4byte	.LVL78
 12726 0608 0200     		.2byte	0x2
 12727 060a 30       		.byte	0x30
 12728 060b 9F       		.byte	0x9f
 12729 060c 80000000 		.4byte	.LVL78
 12730 0610 88000000 		.4byte	.LVL79
 12731 0614 0100     		.2byte	0x1
 12732 0616 55       		.byte	0x55
 12733 0617 8C000000 		.4byte	.LVL80
 12734 061b B0000000 		.4byte	.LVL81
 12735 061f 0200     		.2byte	0x2
 12736 0621 30       		.byte	0x30
 12737 0622 9F       		.byte	0x9f
 12738 0623 B0000000 		.4byte	.LVL81
 12739 0627 D8010000 		.4byte	.LVL116
 12740 062b 0100     		.2byte	0x1
 12741 062d 55       		.byte	0x55
 12742 062e EE010000 		.4byte	.LVL117
 12743 0632 8E020000 		.4byte	.LVL121
 12744 0636 0100     		.2byte	0x1
 12745 0638 55       		.byte	0x55
 12746 0639 BC020000 		.4byte	.LVL122
 12747 063d 04030000 		.4byte	.LFE21
 12748 0641 0100     		.2byte	0x1
 12749 0643 55       		.byte	0x55
 12750 0644 00000000 		.4byte	0
 12751 0648 00000000 		.4byte	0
 12752              	.LLST34:
 12753 064c D4000000 		.4byte	.LVL85
 12754 0650 D8000000 		.4byte	.LVL86
 12755 0654 0800     		.2byte	0x8
 12756 0656 72       		.byte	0x72
 12757 0657 00       		.sleb128 0
 12758 0658 38       		.byte	0x38
 12759 0659 24       		.byte	0x24
 12760 065a 73       		.byte	0x73
 12761 065b 00       		.sleb128 0
 12762 065c 21       		.byte	0x21
 12763 065d 9F       		.byte	0x9f
 12764 065e D8000000 		.4byte	.LVL86
 12765 0662 DE000000 		.4byte	.LVL87
 12766 0666 0100     		.2byte	0x1
 12767 0668 52       		.byte	0x52
 12768 0669 DE000000 		.4byte	.LVL87
 12769 066d E8000000 		.4byte	.LVL88
 12770 0671 0E00     		.2byte	0xe
 12771 0673 74       		.byte	0x74
 12772 0674 C700     		.sleb128 71
 12773 0676 94       		.byte	0x94
 12774 0677 01       		.byte	0x1
 12775 0678 08       		.byte	0x8
 12776 0679 FF       		.byte	0xff
 12777 067a 1A       		.byte	0x1a
 12778 067b 38       		.byte	0x38
 12779 067c 24       		.byte	0x24
 12780 067d 73       		.byte	0x73
ARM GAS  /var/folders/dt/0wfd0knj7gs46m8vwfzktm600000gn/T//cczoWvr4.s 			page 226


 12781 067e 00       		.sleb128 0
 12782 067f 21       		.byte	0x21
 12783 0680 9F       		.byte	0x9f
 12784 0681 E8000000 		.4byte	.LVL88
 12785 0685 F6000000 		.4byte	.LVL89
 12786 0689 1400     		.2byte	0x14
 12787 068b 74       		.byte	0x74
 12788 068c C700     		.sleb128 71
 12789 068e 94       		.byte	0x94
 12790 068f 01       		.byte	0x1
 12791 0690 08       		.byte	0x8
 12792 0691 FF       		.byte	0xff
 12793 0692 1A       		.byte	0x1a
 12794 0693 38       		.byte	0x38
 12795 0694 24       		.byte	0x24
 12796 0695 74       		.byte	0x74
 12797 0696 C600     		.sleb128 70
 12798 0698 94       		.byte	0x94
 12799 0699 01       		.byte	0x1
 12800 069a 08       		.byte	0x8
 12801 069b FF       		.byte	0xff
 12802 069c 1A       		.byte	0x1a
 12803 069d 21       		.byte	0x21
 12804 069e 9F       		.byte	0x9f
 12805 069f F6000000 		.4byte	.LVL89
 12806 06a3 04010000 		.4byte	.LVL91
 12807 06a7 0100     		.2byte	0x1
 12808 06a9 52       		.byte	0x52
 12809 06aa 04010000 		.4byte	.LVL91
 12810 06ae 6C010000 		.4byte	.LVL100
 12811 06b2 0900     		.2byte	0x9
 12812 06b4 70       		.byte	0x70
 12813 06b5 00       		.sleb128 0
 12814 06b6 08       		.byte	0x8
 12815 06b7 FF       		.byte	0xff
 12816 06b8 1A       		.byte	0x1a
 12817 06b9 72       		.byte	0x72
 12818 06ba 00       		.sleb128 0
 12819 06bb 1E       		.byte	0x1e
 12820 06bc 9F       		.byte	0x9f
 12821 06bd 6C010000 		.4byte	.LVL100
 12822 06c1 D0010000 		.4byte	.LVL115
 12823 06c5 0C00     		.2byte	0xc
 12824 06c7 74       		.byte	0x74
 12825 06c8 C000     		.sleb128 64
 12826 06ca 94       		.byte	0x94
 12827 06cb 01       		.byte	0x1
 12828 06cc 08       		.byte	0x8
 12829 06cd FF       		.byte	0xff
 12830 06ce 1A       		.byte	0x1a
 12831 06cf 72       		.byte	0x72
 12832 06d0 00       		.sleb128 0
 12833 06d1 1E       		.byte	0x1e
 12834 06d2 9F       		.byte	0x9f
 12835 06d3 D0010000 		.4byte	.LVL115
 12836 06d7 D8010000 		.4byte	.LVL116
 12837 06db 0D00     		.2byte	0xd
ARM GAS  /var/folders/dt/0wfd0knj7gs46m8vwfzktm600000gn/T//cczoWvr4.s 			page 227


 12838 06dd 74       		.byte	0x74
 12839 06de C000     		.sleb128 64
 12840 06e0 94       		.byte	0x94
 12841 06e1 01       		.byte	0x1
 12842 06e2 08       		.byte	0x8
 12843 06e3 FF       		.byte	0xff
 12844 06e4 1A       		.byte	0x1a
 12845 06e5 74       		.byte	0x74
 12846 06e6 1C       		.sleb128 28
 12847 06e7 06       		.byte	0x6
 12848 06e8 1E       		.byte	0x1e
 12849 06e9 9F       		.byte	0x9f
 12850 06ea F2010000 		.4byte	.LVL119
 12851 06ee 0F020000 		.4byte	.LVL120-1
 12852 06f2 0D00     		.2byte	0xd
 12853 06f4 74       		.byte	0x74
 12854 06f5 C000     		.sleb128 64
 12855 06f7 94       		.byte	0x94
 12856 06f8 01       		.byte	0x1
 12857 06f9 08       		.byte	0x8
 12858 06fa FF       		.byte	0xff
 12859 06fb 1A       		.byte	0x1a
 12860 06fc 74       		.byte	0x74
 12861 06fd 1C       		.sleb128 28
 12862 06fe 06       		.byte	0x6
 12863 06ff 1E       		.byte	0x1e
 12864 0700 9F       		.byte	0x9f
 12865 0701 BC020000 		.4byte	.LVL122
 12866 0705 04030000 		.4byte	.LFE21
 12867 0709 0C00     		.2byte	0xc
 12868 070b 74       		.byte	0x74
 12869 070c C000     		.sleb128 64
 12870 070e 94       		.byte	0x94
 12871 070f 01       		.byte	0x1
 12872 0710 08       		.byte	0x8
 12873 0711 FF       		.byte	0xff
 12874 0712 1A       		.byte	0x1a
 12875 0713 72       		.byte	0x72
 12876 0714 00       		.sleb128 0
 12877 0715 1E       		.byte	0x1e
 12878 0716 9F       		.byte	0x9f
 12879 0717 00000000 		.4byte	0
 12880 071b 00000000 		.4byte	0
 12881              	.LLST35:
 12882 071f 32010000 		.4byte	.LVL93
 12883 0723 36010000 		.4byte	.LVL94
 12884 0727 0800     		.2byte	0x8
 12885 0729 77       		.byte	0x77
 12886 072a 00       		.sleb128 0
 12887 072b 38       		.byte	0x38
 12888 072c 24       		.byte	0x24
 12889 072d 76       		.byte	0x76
 12890 072e 00       		.sleb128 0
 12891 072f 21       		.byte	0x21
 12892 0730 9F       		.byte	0x9f
 12893 0731 36010000 		.4byte	.LVL94
 12894 0735 46010000 		.4byte	.LVL95
ARM GAS  /var/folders/dt/0wfd0knj7gs46m8vwfzktm600000gn/T//cczoWvr4.s 			page 228


 12895 0739 0100     		.2byte	0x1
 12896 073b 56       		.byte	0x56
 12897 073c 46010000 		.4byte	.LVL95
 12898 0740 56010000 		.4byte	.LVL96
 12899 0744 1400     		.2byte	0x14
 12900 0746 74       		.byte	0x74
 12901 0747 C400     		.sleb128 68
 12902 0749 94       		.byte	0x94
 12903 074a 01       		.byte	0x1
 12904 074b 08       		.byte	0x8
 12905 074c FF       		.byte	0xff
 12906 074d 1A       		.byte	0x1a
 12907 074e 38       		.byte	0x38
 12908 074f 24       		.byte	0x24
 12909 0750 74       		.byte	0x74
 12910 0751 C300     		.sleb128 67
 12911 0753 94       		.byte	0x94
 12912 0754 01       		.byte	0x1
 12913 0755 08       		.byte	0x8
 12914 0756 FF       		.byte	0xff
 12915 0757 1A       		.byte	0x1a
 12916 0758 21       		.byte	0x21
 12917 0759 9F       		.byte	0x9f
 12918 075a 56010000 		.4byte	.LVL96
 12919 075e 74010000 		.4byte	.LVL102
 12920 0762 0100     		.2byte	0x1
 12921 0764 56       		.byte	0x56
 12922 0765 00000000 		.4byte	0
 12923 0769 00000000 		.4byte	0
 12924              	.LLST36:
 12925 076d 6E010000 		.4byte	.LVL101
 12926 0771 96010000 		.4byte	.LVL108
 12927 0775 0100     		.2byte	0x1
 12928 0777 50       		.byte	0x50
 12929 0778 96010000 		.4byte	.LVL108
 12930 077c 98010000 		.4byte	.LVL109
 12931 0780 0B00     		.2byte	0xb
 12932 0782 71       		.byte	0x71
 12933 0783 00       		.sleb128 0
 12934 0784 34       		.byte	0x34
 12935 0785 25       		.byte	0x25
 12936 0786 77       		.byte	0x77
 12937 0787 00       		.sleb128 0
 12938 0788 22       		.byte	0x22
 12939 0789 7C       		.byte	0x7c
 12940 078a 00       		.sleb128 0
 12941 078b 22       		.byte	0x22
 12942 078c 9F       		.byte	0x9f
 12943 078d 98010000 		.4byte	.LVL109
 12944 0791 B0010000 		.4byte	.LVL110
 12945 0795 1A00     		.2byte	0x1a
 12946 0797 74       		.byte	0x74
 12947 0798 3F       		.sleb128 63
 12948 0799 94       		.byte	0x94
 12949 079a 01       		.byte	0x1
 12950 079b 08       		.byte	0x8
 12951 079c FF       		.byte	0xff
ARM GAS  /var/folders/dt/0wfd0knj7gs46m8vwfzktm600000gn/T//cczoWvr4.s 			page 229


 12952 079d 1A       		.byte	0x1a
 12953 079e 38       		.byte	0x38
 12954 079f 24       		.byte	0x24
 12955 07a0 74       		.byte	0x74
 12956 07a1 3E       		.sleb128 62
 12957 07a2 94       		.byte	0x94
 12958 07a3 01       		.byte	0x1
 12959 07a4 08       		.byte	0x8
 12960 07a5 FF       		.byte	0xff
 12961 07a6 1A       		.byte	0x1a
 12962 07a7 21       		.byte	0x21
 12963 07a8 71       		.byte	0x71
 12964 07a9 00       		.sleb128 0
 12965 07aa 34       		.byte	0x34
 12966 07ab 25       		.byte	0x25
 12967 07ac 22       		.byte	0x22
 12968 07ad 7C       		.byte	0x7c
 12969 07ae 00       		.sleb128 0
 12970 07af 22       		.byte	0x22
 12971 07b0 9F       		.byte	0x9f
 12972 07b1 B0010000 		.4byte	.LVL110
 12973 07b5 D8010000 		.4byte	.LVL116
 12974 07b9 2F00     		.2byte	0x2f
 12975 07bb 74       		.byte	0x74
 12976 07bc 3F       		.sleb128 63
 12977 07bd 94       		.byte	0x94
 12978 07be 01       		.byte	0x1
 12979 07bf 08       		.byte	0x8
 12980 07c0 FF       		.byte	0xff
 12981 07c1 1A       		.byte	0x1a
 12982 07c2 38       		.byte	0x38
 12983 07c3 24       		.byte	0x24
 12984 07c4 74       		.byte	0x74
 12985 07c5 3E       		.sleb128 62
 12986 07c6 94       		.byte	0x94
 12987 07c7 01       		.byte	0x1
 12988 07c8 08       		.byte	0x8
 12989 07c9 FF       		.byte	0xff
 12990 07ca 1A       		.byte	0x1a
 12991 07cb 21       		.byte	0x21
 12992 07cc 74       		.byte	0x74
 12993 07cd C200     		.sleb128 66
 12994 07cf 94       		.byte	0x94
 12995 07d0 01       		.byte	0x1
 12996 07d1 08       		.byte	0x8
 12997 07d2 FF       		.byte	0xff
 12998 07d3 1A       		.byte	0x1a
 12999 07d4 38       		.byte	0x38
 13000 07d5 24       		.byte	0x24
 13001 07d6 74       		.byte	0x74
 13002 07d7 C100     		.sleb128 65
 13003 07d9 94       		.byte	0x94
 13004 07da 01       		.byte	0x1
 13005 07db 08       		.byte	0x8
 13006 07dc FF       		.byte	0xff
 13007 07dd 1A       		.byte	0x1a
 13008 07de 21       		.byte	0x21
ARM GAS  /var/folders/dt/0wfd0knj7gs46m8vwfzktm600000gn/T//cczoWvr4.s 			page 230


 13009 07df 0A       		.byte	0xa
 13010 07e0 FFFF     		.2byte	0xffff
 13011 07e2 1A       		.byte	0x1a
 13012 07e3 34       		.byte	0x34
 13013 07e4 25       		.byte	0x25
 13014 07e5 22       		.byte	0x22
 13015 07e6 7C       		.byte	0x7c
 13016 07e7 00       		.sleb128 0
 13017 07e8 22       		.byte	0x22
 13018 07e9 9F       		.byte	0x9f
 13019 07ea F2010000 		.4byte	.LVL119
 13020 07ee 0F020000 		.4byte	.LVL120-1
 13021 07f2 2F00     		.2byte	0x2f
 13022 07f4 74       		.byte	0x74
 13023 07f5 3F       		.sleb128 63
 13024 07f6 94       		.byte	0x94
 13025 07f7 01       		.byte	0x1
 13026 07f8 08       		.byte	0x8
 13027 07f9 FF       		.byte	0xff
 13028 07fa 1A       		.byte	0x1a
 13029 07fb 38       		.byte	0x38
 13030 07fc 24       		.byte	0x24
 13031 07fd 74       		.byte	0x74
 13032 07fe 3E       		.sleb128 62
 13033 07ff 94       		.byte	0x94
 13034 0800 01       		.byte	0x1
 13035 0801 08       		.byte	0x8
 13036 0802 FF       		.byte	0xff
 13037 0803 1A       		.byte	0x1a
 13038 0804 21       		.byte	0x21
 13039 0805 74       		.byte	0x74
 13040 0806 C200     		.sleb128 66
 13041 0808 94       		.byte	0x94
 13042 0809 01       		.byte	0x1
 13043 080a 08       		.byte	0x8
 13044 080b FF       		.byte	0xff
 13045 080c 1A       		.byte	0x1a
 13046 080d 38       		.byte	0x38
 13047 080e 24       		.byte	0x24
 13048 080f 74       		.byte	0x74
 13049 0810 C100     		.sleb128 65
 13050 0812 94       		.byte	0x94
 13051 0813 01       		.byte	0x1
 13052 0814 08       		.byte	0x8
 13053 0815 FF       		.byte	0xff
 13054 0816 1A       		.byte	0x1a
 13055 0817 21       		.byte	0x21
 13056 0818 0A       		.byte	0xa
 13057 0819 FFFF     		.2byte	0xffff
 13058 081b 1A       		.byte	0x1a
 13059 081c 34       		.byte	0x34
 13060 081d 25       		.byte	0x25
 13061 081e 22       		.byte	0x22
 13062 081f 7C       		.byte	0x7c
 13063 0820 00       		.sleb128 0
 13064 0821 22       		.byte	0x22
 13065 0822 9F       		.byte	0x9f
ARM GAS  /var/folders/dt/0wfd0knj7gs46m8vwfzktm600000gn/T//cczoWvr4.s 			page 231


 13066 0823 BC020000 		.4byte	.LVL122
 13067 0827 C0020000 		.4byte	.LVL124
 13068 082b 1A00     		.2byte	0x1a
 13069 082d 74       		.byte	0x74
 13070 082e 3F       		.sleb128 63
 13071 082f 94       		.byte	0x94
 13072 0830 01       		.byte	0x1
 13073 0831 08       		.byte	0x8
 13074 0832 FF       		.byte	0xff
 13075 0833 1A       		.byte	0x1a
 13076 0834 38       		.byte	0x38
 13077 0835 24       		.byte	0x24
 13078 0836 74       		.byte	0x74
 13079 0837 3E       		.sleb128 62
 13080 0838 94       		.byte	0x94
 13081 0839 01       		.byte	0x1
 13082 083a 08       		.byte	0x8
 13083 083b FF       		.byte	0xff
 13084 083c 1A       		.byte	0x1a
 13085 083d 21       		.byte	0x21
 13086 083e 71       		.byte	0x71
 13087 083f 00       		.sleb128 0
 13088 0840 34       		.byte	0x34
 13089 0841 25       		.byte	0x25
 13090 0842 22       		.byte	0x22
 13091 0843 7C       		.byte	0x7c
 13092 0844 00       		.sleb128 0
 13093 0845 22       		.byte	0x22
 13094 0846 9F       		.byte	0x9f
 13095 0847 C0020000 		.4byte	.LVL124
 13096 084b C4020000 		.4byte	.LVL126
 13097 084f 0100     		.2byte	0x1
 13098 0851 50       		.byte	0x50
 13099 0852 C4020000 		.4byte	.LVL126
 13100 0856 C6020000 		.4byte	.LVL127
 13101 085a 0B00     		.2byte	0xb
 13102 085c 71       		.byte	0x71
 13103 085d 00       		.sleb128 0
 13104 085e 34       		.byte	0x34
 13105 085f 25       		.byte	0x25
 13106 0860 77       		.byte	0x77
 13107 0861 00       		.sleb128 0
 13108 0862 22       		.byte	0x22
 13109 0863 7C       		.byte	0x7c
 13110 0864 00       		.sleb128 0
 13111 0865 22       		.byte	0x22
 13112 0866 9F       		.byte	0x9f
 13113 0867 C6020000 		.4byte	.LVL127
 13114 086b E0020000 		.4byte	.LVL128
 13115 086f 1A00     		.2byte	0x1a
 13116 0871 74       		.byte	0x74
 13117 0872 3F       		.sleb128 63
 13118 0873 94       		.byte	0x94
 13119 0874 01       		.byte	0x1
 13120 0875 08       		.byte	0x8
 13121 0876 FF       		.byte	0xff
 13122 0877 1A       		.byte	0x1a
ARM GAS  /var/folders/dt/0wfd0knj7gs46m8vwfzktm600000gn/T//cczoWvr4.s 			page 232


 13123 0878 38       		.byte	0x38
 13124 0879 24       		.byte	0x24
 13125 087a 74       		.byte	0x74
 13126 087b 3E       		.sleb128 62
 13127 087c 94       		.byte	0x94
 13128 087d 01       		.byte	0x1
 13129 087e 08       		.byte	0x8
 13130 087f FF       		.byte	0xff
 13131 0880 1A       		.byte	0x1a
 13132 0881 21       		.byte	0x21
 13133 0882 71       		.byte	0x71
 13134 0883 00       		.sleb128 0
 13135 0884 34       		.byte	0x34
 13136 0885 25       		.byte	0x25
 13137 0886 22       		.byte	0x22
 13138 0887 7C       		.byte	0x7c
 13139 0888 00       		.sleb128 0
 13140 0889 22       		.byte	0x22
 13141 088a 9F       		.byte	0x9f
 13142 088b E0020000 		.4byte	.LVL128
 13143 088f F6020000 		.4byte	.LVL130
 13144 0893 2F00     		.2byte	0x2f
 13145 0895 74       		.byte	0x74
 13146 0896 3F       		.sleb128 63
 13147 0897 94       		.byte	0x94
 13148 0898 01       		.byte	0x1
 13149 0899 08       		.byte	0x8
 13150 089a FF       		.byte	0xff
 13151 089b 1A       		.byte	0x1a
 13152 089c 38       		.byte	0x38
 13153 089d 24       		.byte	0x24
 13154 089e 74       		.byte	0x74
 13155 089f 3E       		.sleb128 62
 13156 08a0 94       		.byte	0x94
 13157 08a1 01       		.byte	0x1
 13158 08a2 08       		.byte	0x8
 13159 08a3 FF       		.byte	0xff
 13160 08a4 1A       		.byte	0x1a
 13161 08a5 21       		.byte	0x21
 13162 08a6 74       		.byte	0x74
 13163 08a7 C200     		.sleb128 66
 13164 08a9 94       		.byte	0x94
 13165 08aa 01       		.byte	0x1
 13166 08ab 08       		.byte	0x8
 13167 08ac FF       		.byte	0xff
 13168 08ad 1A       		.byte	0x1a
 13169 08ae 38       		.byte	0x38
 13170 08af 24       		.byte	0x24
 13171 08b0 74       		.byte	0x74
 13172 08b1 C100     		.sleb128 65
 13173 08b3 94       		.byte	0x94
 13174 08b4 01       		.byte	0x1
 13175 08b5 08       		.byte	0x8
 13176 08b6 FF       		.byte	0xff
 13177 08b7 1A       		.byte	0x1a
 13178 08b8 21       		.byte	0x21
 13179 08b9 0A       		.byte	0xa
ARM GAS  /var/folders/dt/0wfd0knj7gs46m8vwfzktm600000gn/T//cczoWvr4.s 			page 233


 13180 08ba FFFF     		.2byte	0xffff
 13181 08bc 1A       		.byte	0x1a
 13182 08bd 34       		.byte	0x34
 13183 08be 25       		.byte	0x25
 13184 08bf 22       		.byte	0x22
 13185 08c0 7C       		.byte	0x7c
 13186 08c1 00       		.sleb128 0
 13187 08c2 22       		.byte	0x22
 13188 08c3 9F       		.byte	0x9f
 13189 08c4 F6020000 		.4byte	.LVL130
 13190 08c8 04030000 		.4byte	.LFE21
 13191 08cc 0100     		.2byte	0x1
 13192 08ce 50       		.byte	0x50
 13193 08cf 00000000 		.4byte	0
 13194 08d3 00000000 		.4byte	0
 13195              	.LLST37:
 13196 08d7 78010000 		.4byte	.LVL103
 13197 08db 94010000 		.4byte	.LVL107
 13198 08df 0100     		.2byte	0x1
 13199 08e1 53       		.byte	0x53
 13200 08e2 94010000 		.4byte	.LVL107
 13201 08e6 B8010000 		.4byte	.LVL111
 13202 08ea 0300     		.2byte	0x3
 13203 08ec 73       		.byte	0x73
 13204 08ed 7E       		.sleb128 -2
 13205 08ee 9F       		.byte	0x9f
 13206 08ef B8010000 		.4byte	.LVL111
 13207 08f3 BE010000 		.4byte	.LVL112
 13208 08f7 0600     		.2byte	0x6
 13209 08f9 74       		.byte	0x74
 13210 08fa 18       		.sleb128 24
 13211 08fb 06       		.byte	0x6
 13212 08fc 32       		.byte	0x32
 13213 08fd 1C       		.byte	0x1c
 13214 08fe 9F       		.byte	0x9f
 13215 08ff BC020000 		.4byte	.LVL122
 13216 0903 BE020000 		.4byte	.LVL123
 13217 0907 0300     		.2byte	0x3
 13218 0909 73       		.byte	0x73
 13219 090a 7E       		.sleb128 -2
 13220 090b 9F       		.byte	0x9f
 13221 090c BE020000 		.4byte	.LVL123
 13222 0910 C0020000 		.4byte	.LVL124
 13223 0914 0600     		.2byte	0x6
 13224 0916 74       		.byte	0x74
 13225 0917 18       		.sleb128 24
 13226 0918 06       		.byte	0x6
 13227 0919 32       		.byte	0x32
 13228 091a 1C       		.byte	0x1c
 13229 091b 9F       		.byte	0x9f
 13230 091c C0020000 		.4byte	.LVL124
 13231 0920 C2020000 		.4byte	.LVL125
 13232 0924 0100     		.2byte	0x1
 13233 0926 53       		.byte	0x53
 13234 0927 C2020000 		.4byte	.LVL125
 13235 092b F2020000 		.4byte	.LVL129
 13236 092f 0300     		.2byte	0x3
ARM GAS  /var/folders/dt/0wfd0knj7gs46m8vwfzktm600000gn/T//cczoWvr4.s 			page 234


 13237 0931 73       		.byte	0x73
 13238 0932 7E       		.sleb128 -2
 13239 0933 9F       		.byte	0x9f
 13240 0934 F2020000 		.4byte	.LVL129
 13241 0938 F6020000 		.4byte	.LVL130
 13242 093c 0600     		.2byte	0x6
 13243 093e 74       		.byte	0x74
 13244 093f 18       		.sleb128 24
 13245 0940 06       		.byte	0x6
 13246 0941 32       		.byte	0x32
 13247 0942 1C       		.byte	0x1c
 13248 0943 9F       		.byte	0x9f
 13249 0944 F6020000 		.4byte	.LVL130
 13250 0948 04030000 		.4byte	.LFE21
 13251 094c 0100     		.2byte	0x1
 13252 094e 53       		.byte	0x53
 13253 094f 00000000 		.4byte	0
 13254 0953 00000000 		.4byte	0
 13255              	.LLST38:
 13256 0957 BE010000 		.4byte	.LVL112
 13257 095b C2010000 		.4byte	.LVL113
 13258 095f 0100     		.2byte	0x1
 13259 0961 53       		.byte	0x53
 13260 0962 C2010000 		.4byte	.LVL113
 13261 0966 CC010000 		.4byte	.LVL114
 13262 096a 0400     		.2byte	0x4
 13263 096c 73       		.byte	0x73
 13264 096d 817C     		.sleb128 -511
 13265 096f 9F       		.byte	0x9f
 13266 0970 F2020000 		.4byte	.LVL129
 13267 0974 F6020000 		.4byte	.LVL130
 13268 0978 0100     		.2byte	0x1
 13269 097a 53       		.byte	0x53
 13270 097b 00000000 		.4byte	0
 13271 097f 00000000 		.4byte	0
 13272              	.LLST39:
 13273 0983 5E010000 		.4byte	.LVL97
 13274 0987 62010000 		.4byte	.LVL98
 13275 098b 0800     		.2byte	0x8
 13276 098d 7C       		.byte	0x7c
 13277 098e 00       		.sleb128 0
 13278 098f 38       		.byte	0x38
 13279 0990 24       		.byte	0x24
 13280 0991 77       		.byte	0x77
 13281 0992 00       		.sleb128 0
 13282 0993 21       		.byte	0x21
 13283 0994 9F       		.byte	0x9f
 13284 0995 62010000 		.4byte	.LVL98
 13285 0999 68010000 		.4byte	.LVL99
 13286 099d 0D00     		.2byte	0xd
 13287 099f 7C       		.byte	0x7c
 13288 09a0 00       		.sleb128 0
 13289 09a1 38       		.byte	0x38
 13290 09a2 24       		.byte	0x24
 13291 09a3 74       		.byte	0x74
 13292 09a4 3E       		.sleb128 62
 13293 09a5 94       		.byte	0x94
ARM GAS  /var/folders/dt/0wfd0knj7gs46m8vwfzktm600000gn/T//cczoWvr4.s 			page 235


 13294 09a6 01       		.byte	0x1
 13295 09a7 08       		.byte	0x8
 13296 09a8 FF       		.byte	0xff
 13297 09a9 1A       		.byte	0x1a
 13298 09aa 21       		.byte	0x21
 13299 09ab 9F       		.byte	0x9f
 13300 09ac 68010000 		.4byte	.LVL99
 13301 09b0 D8010000 		.4byte	.LVL116
 13302 09b4 1200     		.2byte	0x12
 13303 09b6 74       		.byte	0x74
 13304 09b7 3F       		.sleb128 63
 13305 09b8 94       		.byte	0x94
 13306 09b9 01       		.byte	0x1
 13307 09ba 08       		.byte	0x8
 13308 09bb FF       		.byte	0xff
 13309 09bc 1A       		.byte	0x1a
 13310 09bd 38       		.byte	0x38
 13311 09be 24       		.byte	0x24
 13312 09bf 74       		.byte	0x74
 13313 09c0 3E       		.sleb128 62
 13314 09c1 94       		.byte	0x94
 13315 09c2 01       		.byte	0x1
 13316 09c3 08       		.byte	0x8
 13317 09c4 FF       		.byte	0xff
 13318 09c5 1A       		.byte	0x1a
 13319 09c6 21       		.byte	0x21
 13320 09c7 9F       		.byte	0x9f
 13321 09c8 F2010000 		.4byte	.LVL119
 13322 09cc 0F020000 		.4byte	.LVL120-1
 13323 09d0 1200     		.2byte	0x12
 13324 09d2 74       		.byte	0x74
 13325 09d3 3F       		.sleb128 63
 13326 09d4 94       		.byte	0x94
 13327 09d5 01       		.byte	0x1
 13328 09d6 08       		.byte	0x8
 13329 09d7 FF       		.byte	0xff
 13330 09d8 1A       		.byte	0x1a
 13331 09d9 38       		.byte	0x38
 13332 09da 24       		.byte	0x24
 13333 09db 74       		.byte	0x74
 13334 09dc 3E       		.sleb128 62
 13335 09dd 94       		.byte	0x94
 13336 09de 01       		.byte	0x1
 13337 09df 08       		.byte	0x8
 13338 09e0 FF       		.byte	0xff
 13339 09e1 1A       		.byte	0x1a
 13340 09e2 21       		.byte	0x21
 13341 09e3 9F       		.byte	0x9f
 13342 09e4 BC020000 		.4byte	.LVL122
 13343 09e8 04030000 		.4byte	.LFE21
 13344 09ec 1200     		.2byte	0x12
 13345 09ee 74       		.byte	0x74
 13346 09ef 3F       		.sleb128 63
 13347 09f0 94       		.byte	0x94
 13348 09f1 01       		.byte	0x1
 13349 09f2 08       		.byte	0x8
 13350 09f3 FF       		.byte	0xff
ARM GAS  /var/folders/dt/0wfd0knj7gs46m8vwfzktm600000gn/T//cczoWvr4.s 			page 236


 13351 09f4 1A       		.byte	0x1a
 13352 09f5 38       		.byte	0x38
 13353 09f6 24       		.byte	0x24
 13354 09f7 74       		.byte	0x74
 13355 09f8 3E       		.sleb128 62
 13356 09f9 94       		.byte	0x94
 13357 09fa 01       		.byte	0x1
 13358 09fb 08       		.byte	0x8
 13359 09fc FF       		.byte	0xff
 13360 09fd 1A       		.byte	0x1a
 13361 09fe 21       		.byte	0x21
 13362 09ff 9F       		.byte	0x9f
 13363 0a00 00000000 		.4byte	0
 13364 0a04 00000000 		.4byte	0
 13365              	.LLST40:
 13366 0a08 04000000 		.4byte	.LVL56
 13367 0a0c 16000000 		.4byte	.LVL59
 13368 0a10 0100     		.2byte	0x1
 13369 0a12 53       		.byte	0x53
 13370 0a13 42000000 		.4byte	.LVL66
 13371 0a17 44000000 		.4byte	.LVL67
 13372 0a1b 0300     		.2byte	0x3
 13373 0a1d 73       		.byte	0x73
 13374 0a1e 02       		.sleb128 2
 13375 0a1f 9F       		.byte	0x9f
 13376 0a20 44000000 		.4byte	.LVL67
 13377 0a24 4E000000 		.4byte	.LVL69
 13378 0a28 0100     		.2byte	0x1
 13379 0a2a 53       		.byte	0x53
 13380 0a2b 00000000 		.4byte	0
 13381 0a2f 00000000 		.4byte	0
 13382              	.LLST41:
 13383 0a33 18000000 		.4byte	.LVL60
 13384 0a37 42000000 		.4byte	.LVL66
 13385 0a3b 0100     		.2byte	0x1
 13386 0a3d 54       		.byte	0x54
 13387 0a3e 4E000000 		.4byte	.LVL69
 13388 0a42 04030000 		.4byte	.LFE21
 13389 0a46 0100     		.2byte	0x1
 13390 0a48 54       		.byte	0x54
 13391 0a49 00000000 		.4byte	0
 13392 0a4d 00000000 		.4byte	0
 13393              	.LLST42:
 13394 0a51 00000000 		.4byte	.LVL131
 13395 0a55 12000000 		.4byte	.LVL133
 13396 0a59 0100     		.2byte	0x1
 13397 0a5b 50       		.byte	0x50
 13398 0a5c 12000000 		.4byte	.LVL133
 13399 0a60 16000000 		.4byte	.LFE6
 13400 0a64 0400     		.2byte	0x4
 13401 0a66 F3       		.byte	0xf3
 13402 0a67 01       		.uleb128 0x1
 13403 0a68 50       		.byte	0x50
 13404 0a69 9F       		.byte	0x9f
 13405 0a6a 00000000 		.4byte	0
 13406 0a6e 00000000 		.4byte	0
 13407              	.LLST43:
ARM GAS  /var/folders/dt/0wfd0knj7gs46m8vwfzktm600000gn/T//cczoWvr4.s 			page 237


 13408 0a72 00000000 		.4byte	.LVL131
 13409 0a76 04000000 		.4byte	.LVL132
 13410 0a7a 0100     		.2byte	0x1
 13411 0a7c 51       		.byte	0x51
 13412 0a7d 04000000 		.4byte	.LVL132
 13413 0a81 16000000 		.4byte	.LFE6
 13414 0a85 0100     		.2byte	0x1
 13415 0a87 51       		.byte	0x51
 13416 0a88 00000000 		.4byte	0
 13417 0a8c 00000000 		.4byte	0
 13418              	.LLST44:
 13419 0a90 00000000 		.4byte	.LFB7
 13420 0a94 04000000 		.4byte	.LCFI7
 13421 0a98 0200     		.2byte	0x2
 13422 0a9a 7D       		.byte	0x7d
 13423 0a9b 00       		.sleb128 0
 13424 0a9c 04000000 		.4byte	.LCFI7
 13425 0aa0 CC000000 		.4byte	.LFE7
 13426 0aa4 0200     		.2byte	0x2
 13427 0aa6 7D       		.byte	0x7d
 13428 0aa7 18       		.sleb128 24
 13429 0aa8 00000000 		.4byte	0
 13430 0aac 00000000 		.4byte	0
 13431              	.LLST45:
 13432 0ab0 00000000 		.4byte	.LVL134
 13433 0ab4 1E000000 		.4byte	.LVL136
 13434 0ab8 0100     		.2byte	0x1
 13435 0aba 50       		.byte	0x50
 13436 0abb 1E000000 		.4byte	.LVL136
 13437 0abf 24000000 		.4byte	.LVL137
 13438 0ac3 0100     		.2byte	0x1
 13439 0ac5 55       		.byte	0x55
 13440 0ac6 24000000 		.4byte	.LVL137
 13441 0aca 26000000 		.4byte	.LVL138
 13442 0ace 0100     		.2byte	0x1
 13443 0ad0 50       		.byte	0x50
 13444 0ad1 26000000 		.4byte	.LVL138
 13445 0ad5 28000000 		.4byte	.LVL139
 13446 0ad9 0100     		.2byte	0x1
 13447 0adb 55       		.byte	0x55
 13448 0adc 28000000 		.4byte	.LVL139
 13449 0ae0 35000000 		.4byte	.LVL142-1
 13450 0ae4 0100     		.2byte	0x1
 13451 0ae6 50       		.byte	0x50
 13452 0ae7 35000000 		.4byte	.LVL142-1
 13453 0aeb 5C000000 		.4byte	.LVL147
 13454 0aef 0100     		.2byte	0x1
 13455 0af1 55       		.byte	0x55
 13456 0af2 5C000000 		.4byte	.LVL147
 13457 0af6 6C000000 		.4byte	.LVL150
 13458 0afa 0400     		.2byte	0x4
 13459 0afc F3       		.byte	0xf3
 13460 0afd 01       		.uleb128 0x1
 13461 0afe 50       		.byte	0x50
 13462 0aff 9F       		.byte	0x9f
 13463 0b00 6C000000 		.4byte	.LVL150
 13464 0b04 75000000 		.4byte	.LVL152-1
ARM GAS  /var/folders/dt/0wfd0knj7gs46m8vwfzktm600000gn/T//cczoWvr4.s 			page 238


 13465 0b08 0100     		.2byte	0x1
 13466 0b0a 50       		.byte	0x50
 13467 0b0b 75000000 		.4byte	.LVL152-1
 13468 0b0f A2000000 		.4byte	.LVL156
 13469 0b13 0100     		.2byte	0x1
 13470 0b15 55       		.byte	0x55
 13471 0b16 A2000000 		.4byte	.LVL156
 13472 0b1a AB000000 		.4byte	.LVL158-1
 13473 0b1e 0100     		.2byte	0x1
 13474 0b20 50       		.byte	0x50
 13475 0b21 AB000000 		.4byte	.LVL158-1
 13476 0b25 C6000000 		.4byte	.LVL162
 13477 0b29 0100     		.2byte	0x1
 13478 0b2b 55       		.byte	0x55
 13479 0b2c C6000000 		.4byte	.LVL162
 13480 0b30 CC000000 		.4byte	.LFE7
 13481 0b34 0400     		.2byte	0x4
 13482 0b36 F3       		.byte	0xf3
 13483 0b37 01       		.uleb128 0x1
 13484 0b38 50       		.byte	0x50
 13485 0b39 9F       		.byte	0x9f
 13486 0b3a 00000000 		.4byte	0
 13487 0b3e 00000000 		.4byte	0
 13488              	.LLST46:
 13489 0b42 00000000 		.4byte	.LVL134
 13490 0b46 1E000000 		.4byte	.LVL136
 13491 0b4a 0100     		.2byte	0x1
 13492 0b4c 51       		.byte	0x51
 13493 0b4d 1E000000 		.4byte	.LVL136
 13494 0b51 24000000 		.4byte	.LVL137
 13495 0b55 0100     		.2byte	0x1
 13496 0b57 54       		.byte	0x54
 13497 0b58 24000000 		.4byte	.LVL137
 13498 0b5c 2A000000 		.4byte	.LVL140
 13499 0b60 0100     		.2byte	0x1
 13500 0b62 51       		.byte	0x51
 13501 0b63 2A000000 		.4byte	.LVL140
 13502 0b67 6C000000 		.4byte	.LVL150
 13503 0b6b 0100     		.2byte	0x1
 13504 0b6d 54       		.byte	0x54
 13505 0b6e 6C000000 		.4byte	.LVL150
 13506 0b72 6E000000 		.4byte	.LVL151
 13507 0b76 0100     		.2byte	0x1
 13508 0b78 51       		.byte	0x51
 13509 0b79 6E000000 		.4byte	.LVL151
 13510 0b7d 7C000000 		.4byte	.LVL153
 13511 0b81 0100     		.2byte	0x1
 13512 0b83 54       		.byte	0x54
 13513 0b84 7C000000 		.4byte	.LVL153
 13514 0b88 A2000000 		.4byte	.LVL156
 13515 0b8c 0400     		.2byte	0x4
 13516 0b8e F3       		.byte	0xf3
 13517 0b8f 01       		.uleb128 0x1
 13518 0b90 51       		.byte	0x51
 13519 0b91 9F       		.byte	0x9f
 13520 0b92 A2000000 		.4byte	.LVL156
 13521 0b96 A4000000 		.4byte	.LVL157
ARM GAS  /var/folders/dt/0wfd0knj7gs46m8vwfzktm600000gn/T//cczoWvr4.s 			page 239


 13522 0b9a 0100     		.2byte	0x1
 13523 0b9c 51       		.byte	0x51
 13524 0b9d A4000000 		.4byte	.LVL157
 13525 0ba1 B2000000 		.4byte	.LVL159
 13526 0ba5 0100     		.2byte	0x1
 13527 0ba7 54       		.byte	0x54
 13528 0ba8 B2000000 		.4byte	.LVL159
 13529 0bac C6000000 		.4byte	.LVL162
 13530 0bb0 0400     		.2byte	0x4
 13531 0bb2 F3       		.byte	0xf3
 13532 0bb3 01       		.uleb128 0x1
 13533 0bb4 51       		.byte	0x51
 13534 0bb5 9F       		.byte	0x9f
 13535 0bb6 C6000000 		.4byte	.LVL162
 13536 0bba CC000000 		.4byte	.LFE7
 13537 0bbe 0100     		.2byte	0x1
 13538 0bc0 54       		.byte	0x54
 13539 0bc1 00000000 		.4byte	0
 13540 0bc5 00000000 		.4byte	0
 13541              	.LLST47:
 13542 0bc9 10000000 		.4byte	.LVL135
 13543 0bcd 1E000000 		.4byte	.LVL136
 13544 0bd1 0100     		.2byte	0x1
 13545 0bd3 51       		.byte	0x51
 13546 0bd4 1E000000 		.4byte	.LVL136
 13547 0bd8 24000000 		.4byte	.LVL137
 13548 0bdc 0100     		.2byte	0x1
 13549 0bde 54       		.byte	0x54
 13550 0bdf 28000000 		.4byte	.LVL139
 13551 0be3 2A000000 		.4byte	.LVL140
 13552 0be7 0100     		.2byte	0x1
 13553 0be9 51       		.byte	0x51
 13554 0bea 2A000000 		.4byte	.LVL140
 13555 0bee 6C000000 		.4byte	.LVL150
 13556 0bf2 0100     		.2byte	0x1
 13557 0bf4 54       		.byte	0x54
 13558 0bf5 6C000000 		.4byte	.LVL150
 13559 0bf9 6E000000 		.4byte	.LVL151
 13560 0bfd 0100     		.2byte	0x1
 13561 0bff 51       		.byte	0x51
 13562 0c00 6E000000 		.4byte	.LVL151
 13563 0c04 7C000000 		.4byte	.LVL153
 13564 0c08 0100     		.2byte	0x1
 13565 0c0a 54       		.byte	0x54
 13566 0c0b 7C000000 		.4byte	.LVL153
 13567 0c0f A2000000 		.4byte	.LVL156
 13568 0c13 0400     		.2byte	0x4
 13569 0c15 F3       		.byte	0xf3
 13570 0c16 01       		.uleb128 0x1
 13571 0c17 51       		.byte	0x51
 13572 0c18 9F       		.byte	0x9f
 13573 0c19 A2000000 		.4byte	.LVL156
 13574 0c1d A4000000 		.4byte	.LVL157
 13575 0c21 0100     		.2byte	0x1
 13576 0c23 51       		.byte	0x51
 13577 0c24 A4000000 		.4byte	.LVL157
 13578 0c28 B2000000 		.4byte	.LVL159
ARM GAS  /var/folders/dt/0wfd0knj7gs46m8vwfzktm600000gn/T//cczoWvr4.s 			page 240


 13579 0c2c 0100     		.2byte	0x1
 13580 0c2e 54       		.byte	0x54
 13581 0c2f B2000000 		.4byte	.LVL159
 13582 0c33 C6000000 		.4byte	.LVL162
 13583 0c37 0400     		.2byte	0x4
 13584 0c39 F3       		.byte	0xf3
 13585 0c3a 01       		.uleb128 0x1
 13586 0c3b 51       		.byte	0x51
 13587 0c3c 9F       		.byte	0x9f
 13588 0c3d C6000000 		.4byte	.LVL162
 13589 0c41 CC000000 		.4byte	.LFE7
 13590 0c45 0100     		.2byte	0x1
 13591 0c47 54       		.byte	0x54
 13592 0c48 00000000 		.4byte	0
 13593 0c4c 00000000 		.4byte	0
 13594              	.LLST48:
 13595 0c50 10000000 		.4byte	.LVL135
 13596 0c54 1E000000 		.4byte	.LVL136
 13597 0c58 0100     		.2byte	0x1
 13598 0c5a 50       		.byte	0x50
 13599 0c5b 1E000000 		.4byte	.LVL136
 13600 0c5f 24000000 		.4byte	.LVL137
 13601 0c63 0100     		.2byte	0x1
 13602 0c65 55       		.byte	0x55
 13603 0c66 28000000 		.4byte	.LVL139
 13604 0c6a 35000000 		.4byte	.LVL142-1
 13605 0c6e 0100     		.2byte	0x1
 13606 0c70 50       		.byte	0x50
 13607 0c71 35000000 		.4byte	.LVL142-1
 13608 0c75 5C000000 		.4byte	.LVL147
 13609 0c79 0100     		.2byte	0x1
 13610 0c7b 55       		.byte	0x55
 13611 0c7c 5C000000 		.4byte	.LVL147
 13612 0c80 6C000000 		.4byte	.LVL150
 13613 0c84 0400     		.2byte	0x4
 13614 0c86 F3       		.byte	0xf3
 13615 0c87 01       		.uleb128 0x1
 13616 0c88 50       		.byte	0x50
 13617 0c89 9F       		.byte	0x9f
 13618 0c8a 6C000000 		.4byte	.LVL150
 13619 0c8e 75000000 		.4byte	.LVL152-1
 13620 0c92 0100     		.2byte	0x1
 13621 0c94 50       		.byte	0x50
 13622 0c95 75000000 		.4byte	.LVL152-1
 13623 0c99 A2000000 		.4byte	.LVL156
 13624 0c9d 0100     		.2byte	0x1
 13625 0c9f 55       		.byte	0x55
 13626 0ca0 A2000000 		.4byte	.LVL156
 13627 0ca4 AB000000 		.4byte	.LVL158-1
 13628 0ca8 0100     		.2byte	0x1
 13629 0caa 50       		.byte	0x50
 13630 0cab AB000000 		.4byte	.LVL158-1
 13631 0caf C6000000 		.4byte	.LVL162
 13632 0cb3 0100     		.2byte	0x1
 13633 0cb5 55       		.byte	0x55
 13634 0cb6 C6000000 		.4byte	.LVL162
 13635 0cba CC000000 		.4byte	.LFE7
ARM GAS  /var/folders/dt/0wfd0knj7gs46m8vwfzktm600000gn/T//cczoWvr4.s 			page 241


 13636 0cbe 0400     		.2byte	0x4
 13637 0cc0 F3       		.byte	0xf3
 13638 0cc1 01       		.uleb128 0x1
 13639 0cc2 50       		.byte	0x50
 13640 0cc3 9F       		.byte	0x9f
 13641 0cc4 00000000 		.4byte	0
 13642 0cc8 00000000 		.4byte	0
 13643              	.LLST49:
 13644 0ccc 4E000000 		.4byte	.LVL144
 13645 0cd0 66000000 		.4byte	.LVL148
 13646 0cd4 0600     		.2byte	0x6
 13647 0cd6 77       		.byte	0x77
 13648 0cd7 00       		.sleb128 0
 13649 0cd8 08       		.byte	0x8
 13650 0cd9 FF       		.byte	0xff
 13651 0cda 1A       		.byte	0x1a
 13652 0cdb 9F       		.byte	0x9f
 13653 0cdc 66000000 		.4byte	.LVL148
 13654 0ce0 6A000000 		.4byte	.LVL149
 13655 0ce4 0100     		.2byte	0x1
 13656 0ce6 50       		.byte	0x50
 13657 0ce7 6A000000 		.4byte	.LVL149
 13658 0ceb 6C000000 		.4byte	.LVL150
 13659 0cef 0D00     		.2byte	0xd
 13660 0cf1 75       		.byte	0x75
 13661 0cf2 30       		.sleb128 48
 13662 0cf3 94       		.byte	0x94
 13663 0cf4 01       		.byte	0x1
 13664 0cf5 08       		.byte	0x8
 13665 0cf6 FF       		.byte	0xff
 13666 0cf7 1A       		.byte	0x1a
 13667 0cf8 38       		.byte	0x38
 13668 0cf9 24       		.byte	0x24
 13669 0cfa 77       		.byte	0x77
 13670 0cfb 00       		.sleb128 0
 13671 0cfc 21       		.byte	0x21
 13672 0cfd 9F       		.byte	0x9f
 13673 0cfe C6000000 		.4byte	.LVL162
 13674 0d02 C8000000 		.4byte	.LVL163
 13675 0d06 0100     		.2byte	0x1
 13676 0d08 50       		.byte	0x50
 13677 0d09 C8000000 		.4byte	.LVL163
 13678 0d0d CC000000 		.4byte	.LFE7
 13679 0d11 0D00     		.2byte	0xd
 13680 0d13 75       		.byte	0x75
 13681 0d14 30       		.sleb128 48
 13682 0d15 94       		.byte	0x94
 13683 0d16 01       		.byte	0x1
 13684 0d17 08       		.byte	0x8
 13685 0d18 FF       		.byte	0xff
 13686 0d19 1A       		.byte	0x1a
 13687 0d1a 38       		.byte	0x38
 13688 0d1b 24       		.byte	0x24
 13689 0d1c 77       		.byte	0x77
 13690 0d1d 00       		.sleb128 0
 13691 0d1e 21       		.byte	0x21
 13692 0d1f 9F       		.byte	0x9f
ARM GAS  /var/folders/dt/0wfd0knj7gs46m8vwfzktm600000gn/T//cczoWvr4.s 			page 242


 13693 0d20 00000000 		.4byte	0
 13694 0d24 00000000 		.4byte	0
 13695              	.LLST50:
 13696 0d28 28000000 		.4byte	.LVL139
 13697 0d2c 2A000000 		.4byte	.LVL140
 13698 0d30 0100     		.2byte	0x1
 13699 0d32 51       		.byte	0x51
 13700 0d33 2A000000 		.4byte	.LVL140
 13701 0d37 2E000000 		.4byte	.LVL141
 13702 0d3b 0100     		.2byte	0x1
 13703 0d3d 54       		.byte	0x54
 13704 0d3e 2E000000 		.4byte	.LVL141
 13705 0d42 42000000 		.4byte	.LVL143
 13706 0d46 0100     		.2byte	0x1
 13707 0d48 56       		.byte	0x56
 13708 0d49 42000000 		.4byte	.LVL143
 13709 0d4d 4E000000 		.4byte	.LVL144
 13710 0d51 0300     		.2byte	0x3
 13711 0d53 76       		.byte	0x76
 13712 0d54 7F       		.sleb128 -1
 13713 0d55 9F       		.byte	0x9f
 13714 0d56 4E000000 		.4byte	.LVL144
 13715 0d5a 58000000 		.4byte	.LVL146
 13716 0d5e 0100     		.2byte	0x1
 13717 0d60 56       		.byte	0x56
 13718 0d61 58000000 		.4byte	.LVL146
 13719 0d65 6C000000 		.4byte	.LVL150
 13720 0d69 0A00     		.2byte	0xa
 13721 0d6b 74       		.byte	0x74
 13722 0d6c 00       		.sleb128 0
 13723 0d6d 31       		.byte	0x31
 13724 0d6e 25       		.byte	0x25
 13725 0d6f 74       		.byte	0x74
 13726 0d70 00       		.sleb128 0
 13727 0d71 22       		.byte	0x22
 13728 0d72 23       		.byte	0x23
 13729 0d73 01       		.uleb128 0x1
 13730 0d74 9F       		.byte	0x9f
 13731 0d75 C6000000 		.4byte	.LVL162
 13732 0d79 CC000000 		.4byte	.LFE7
 13733 0d7d 0A00     		.2byte	0xa
 13734 0d7f 74       		.byte	0x74
 13735 0d80 00       		.sleb128 0
 13736 0d81 31       		.byte	0x31
 13737 0d82 25       		.byte	0x25
 13738 0d83 74       		.byte	0x74
 13739 0d84 00       		.sleb128 0
 13740 0d85 22       		.byte	0x22
 13741 0d86 23       		.byte	0x23
 13742 0d87 01       		.uleb128 0x1
 13743 0d88 9F       		.byte	0x9f
 13744 0d89 00000000 		.4byte	0
 13745 0d8d 00000000 		.4byte	0
 13746              	.LLST51:
 13747 0d91 84000000 		.4byte	.LVL154
 13748 0d95 96000000 		.4byte	.LVL155
 13749 0d99 0100     		.2byte	0x1
ARM GAS  /var/folders/dt/0wfd0knj7gs46m8vwfzktm600000gn/T//cczoWvr4.s 			page 243


 13750 0d9b 53       		.byte	0x53
 13751 0d9c 96000000 		.4byte	.LVL155
 13752 0da0 A2000000 		.4byte	.LVL156
 13753 0da4 0D00     		.2byte	0xd
 13754 0da6 F3       		.byte	0xf3
 13755 0da7 01       		.uleb128 0x1
 13756 0da8 51       		.byte	0x51
 13757 0da9 49       		.byte	0x49
 13758 0daa 24       		.byte	0x24
 13759 0dab 47       		.byte	0x47
 13760 0dac 25       		.byte	0x25
 13761 0dad 75       		.byte	0x75
 13762 0dae 00       		.sleb128 0
 13763 0daf 22       		.byte	0x22
 13764 0db0 23       		.byte	0x23
 13765 0db1 30       		.uleb128 0x30
 13766 0db2 9F       		.byte	0x9f
 13767 0db3 B4000000 		.4byte	.LVL160
 13768 0db7 B8000000 		.4byte	.LVL161
 13769 0dbb 0800     		.2byte	0x8
 13770 0dbd 75       		.byte	0x75
 13771 0dbe 00       		.sleb128 0
 13772 0dbf 74       		.byte	0x74
 13773 0dc0 00       		.sleb128 0
 13774 0dc1 22       		.byte	0x22
 13775 0dc2 23       		.byte	0x23
 13776 0dc3 30       		.uleb128 0x30
 13777 0dc4 9F       		.byte	0x9f
 13778 0dc5 B8000000 		.4byte	.LVL161
 13779 0dc9 C6000000 		.4byte	.LVL162
 13780 0dcd 0D00     		.2byte	0xd
 13781 0dcf F3       		.byte	0xf3
 13782 0dd0 01       		.uleb128 0x1
 13783 0dd1 51       		.byte	0x51
 13784 0dd2 48       		.byte	0x48
 13785 0dd3 24       		.byte	0x24
 13786 0dd4 47       		.byte	0x47
 13787 0dd5 25       		.byte	0x25
 13788 0dd6 75       		.byte	0x75
 13789 0dd7 00       		.sleb128 0
 13790 0dd8 22       		.byte	0x22
 13791 0dd9 23       		.byte	0x23
 13792 0dda 30       		.uleb128 0x30
 13793 0ddb 9F       		.byte	0x9f
 13794 0ddc 00000000 		.4byte	0
 13795 0de0 00000000 		.4byte	0
 13796              	.LLST52:
 13797 0de4 00000000 		.4byte	.LFB11
 13798 0de8 04000000 		.4byte	.LCFI8
 13799 0dec 0200     		.2byte	0x2
 13800 0dee 7D       		.byte	0x7d
 13801 0def 00       		.sleb128 0
 13802 0df0 04000000 		.4byte	.LCFI8
 13803 0df4 96000000 		.4byte	.LFE11
 13804 0df8 0200     		.2byte	0x2
 13805 0dfa 7D       		.byte	0x7d
 13806 0dfb 10       		.sleb128 16
ARM GAS  /var/folders/dt/0wfd0knj7gs46m8vwfzktm600000gn/T//cczoWvr4.s 			page 244


 13807 0dfc 00000000 		.4byte	0
 13808 0e00 00000000 		.4byte	0
 13809              	.LLST53:
 13810 0e04 00000000 		.4byte	.LVL164
 13811 0e08 10000000 		.4byte	.LVL166
 13812 0e0c 0100     		.2byte	0x1
 13813 0e0e 50       		.byte	0x50
 13814 0e0f 10000000 		.4byte	.LVL166
 13815 0e13 96000000 		.4byte	.LFE11
 13816 0e17 0100     		.2byte	0x1
 13817 0e19 55       		.byte	0x55
 13818 0e1a 00000000 		.4byte	0
 13819 0e1e 00000000 		.4byte	0
 13820              	.LLST54:
 13821 0e22 00000000 		.4byte	.LVL164
 13822 0e26 16000000 		.4byte	.LVL167
 13823 0e2a 0100     		.2byte	0x1
 13824 0e2c 51       		.byte	0x51
 13825 0e2d 1A000000 		.4byte	.LVL168
 13826 0e31 34000000 		.4byte	.LVL171
 13827 0e35 0100     		.2byte	0x1
 13828 0e37 51       		.byte	0x51
 13829 0e38 34000000 		.4byte	.LVL171
 13830 0e3c 38000000 		.4byte	.LVL172
 13831 0e40 0100     		.2byte	0x1
 13832 0e42 54       		.byte	0x54
 13833 0e43 44000000 		.4byte	.LVL173
 13834 0e47 54000000 		.4byte	.LVL176
 13835 0e4b 0100     		.2byte	0x1
 13836 0e4d 51       		.byte	0x51
 13837 0e4e 54000000 		.4byte	.LVL176
 13838 0e52 64000000 		.4byte	.LVL177
 13839 0e56 0100     		.2byte	0x1
 13840 0e58 54       		.byte	0x54
 13841 0e59 72000000 		.4byte	.LVL181
 13842 0e5d 78000000 		.4byte	.LVL182
 13843 0e61 0100     		.2byte	0x1
 13844 0e63 54       		.byte	0x54
 13845 0e64 00000000 		.4byte	0
 13846 0e68 00000000 		.4byte	0
 13847              	.LLST55:
 13848 0e6c 02000000 		.4byte	.LVL165
 13849 0e70 16000000 		.4byte	.LVL167
 13850 0e74 0100     		.2byte	0x1
 13851 0e76 53       		.byte	0x53
 13852 0e77 1A000000 		.4byte	.LVL168
 13853 0e7b 1E000000 		.4byte	.LVL169
 13854 0e7f 0100     		.2byte	0x1
 13855 0e81 53       		.byte	0x53
 13856 0e82 1E000000 		.4byte	.LVL169
 13857 0e86 22000000 		.4byte	.LVL170
 13858 0e8a 0200     		.2byte	0x2
 13859 0e8c 75       		.byte	0x75
 13860 0e8d 08       		.sleb128 8
 13861 0e8e 44000000 		.4byte	.LVL173
 13862 0e92 46000000 		.4byte	.LVL174
 13863 0e96 0200     		.2byte	0x2
ARM GAS  /var/folders/dt/0wfd0knj7gs46m8vwfzktm600000gn/T//cczoWvr4.s 			page 245


 13864 0e98 75       		.byte	0x75
 13865 0e99 08       		.sleb128 8
 13866 0e9a 46000000 		.4byte	.LVL174
 13867 0e9e 54000000 		.4byte	.LVL176
 13868 0ea2 0100     		.2byte	0x1
 13869 0ea4 53       		.byte	0x53
 13870 0ea5 6E000000 		.4byte	.LVL179
 13871 0ea9 70000000 		.4byte	.LVL180
 13872 0ead 0100     		.2byte	0x1
 13873 0eaf 50       		.byte	0x50
 13874 0eb0 70000000 		.4byte	.LVL180
 13875 0eb4 72000000 		.4byte	.LVL181
 13876 0eb8 0100     		.2byte	0x1
 13877 0eba 53       		.byte	0x53
 13878 0ebb 00000000 		.4byte	0
 13879 0ebf 00000000 		.4byte	0
 13880              	.LLST56:
 13881 0ec3 82000000 		.4byte	.LVL183
 13882 0ec7 8C000000 		.4byte	.LVL184
 13883 0ecb 0100     		.2byte	0x1
 13884 0ecd 52       		.byte	0x52
 13885 0ece 8C000000 		.4byte	.LVL184
 13886 0ed2 96000000 		.4byte	.LFE11
 13887 0ed6 0600     		.2byte	0x6
 13888 0ed8 75       		.byte	0x75
 13889 0ed9 0C       		.sleb128 12
 13890 0eda 06       		.byte	0x6
 13891 0edb 32       		.byte	0x32
 13892 0edc 1C       		.byte	0x1c
 13893 0edd 9F       		.byte	0x9f
 13894 0ede 00000000 		.4byte	0
 13895 0ee2 00000000 		.4byte	0
 13896              	.LLST57:
 13897 0ee6 00000000 		.4byte	.LFB16
 13898 0eea 02000000 		.4byte	.LCFI9
 13899 0eee 0200     		.2byte	0x2
 13900 0ef0 7D       		.byte	0x7d
 13901 0ef1 00       		.sleb128 0
 13902 0ef2 02000000 		.4byte	.LCFI9
 13903 0ef6 28000000 		.4byte	.LFE16
 13904 0efa 0200     		.2byte	0x2
 13905 0efc 7D       		.byte	0x7d
 13906 0efd 08       		.sleb128 8
 13907 0efe 00000000 		.4byte	0
 13908 0f02 00000000 		.4byte	0
 13909              	.LLST58:
 13910 0f06 00000000 		.4byte	.LVL185
 13911 0f0a 09000000 		.4byte	.LVL186-1
 13912 0f0e 0100     		.2byte	0x1
 13913 0f10 50       		.byte	0x50
 13914 0f11 09000000 		.4byte	.LVL186-1
 13915 0f15 28000000 		.4byte	.LFE16
 13916 0f19 0100     		.2byte	0x1
 13917 0f1b 54       		.byte	0x54
 13918 0f1c 00000000 		.4byte	0
 13919 0f20 00000000 		.4byte	0
 13920              	.LLST59:
ARM GAS  /var/folders/dt/0wfd0knj7gs46m8vwfzktm600000gn/T//cczoWvr4.s 			page 246


 13921 0f24 0A000000 		.4byte	.LVL186
 13922 0f28 10000000 		.4byte	.LVL189
 13923 0f2c 0100     		.2byte	0x1
 13924 0f2e 50       		.byte	0x50
 13925 0f2f 26000000 		.4byte	.LVL191
 13926 0f33 28000000 		.4byte	.LFE16
 13927 0f37 0100     		.2byte	0x1
 13928 0f39 50       		.byte	0x50
 13929 0f3a 00000000 		.4byte	0
 13930 0f3e 00000000 		.4byte	0
 13931              	.LLST60:
 13932 0f42 00000000 		.4byte	.LFB8
 13933 0f46 02000000 		.4byte	.LCFI10
 13934 0f4a 0200     		.2byte	0x2
 13935 0f4c 7D       		.byte	0x7d
 13936 0f4d 00       		.sleb128 0
 13937 0f4e 02000000 		.4byte	.LCFI10
 13938 0f52 06000000 		.4byte	.LCFI11
 13939 0f56 0200     		.2byte	0x2
 13940 0f58 7D       		.byte	0x7d
 13941 0f59 14       		.sleb128 20
 13942 0f5a 06000000 		.4byte	.LCFI11
 13943 0f5e 0C010000 		.4byte	.LFE8
 13944 0f62 0200     		.2byte	0x2
 13945 0f64 7D       		.byte	0x7d
 13946 0f65 20       		.sleb128 32
 13947 0f66 00000000 		.4byte	0
 13948 0f6a 00000000 		.4byte	0
 13949              	.LLST61:
 13950 0f6e 00000000 		.4byte	.LVL192
 13951 0f72 14000000 		.4byte	.LVL193
 13952 0f76 0100     		.2byte	0x1
 13953 0f78 50       		.byte	0x50
 13954 0f79 14000000 		.4byte	.LVL193
 13955 0f7d 18000000 		.4byte	.LVL194
 13956 0f81 0100     		.2byte	0x1
 13957 0f83 55       		.byte	0x55
 13958 0f84 18000000 		.4byte	.LVL194
 13959 0f88 28000000 		.4byte	.LVL195
 13960 0f8c 0100     		.2byte	0x1
 13961 0f8e 50       		.byte	0x50
 13962 0f8f 28000000 		.4byte	.LVL195
 13963 0f93 2E000000 		.4byte	.LVL196
 13964 0f97 0100     		.2byte	0x1
 13965 0f99 55       		.byte	0x55
 13966 0f9a 2E000000 		.4byte	.LVL196
 13967 0f9e 39000000 		.4byte	.LVL198-1
 13968 0fa2 0100     		.2byte	0x1
 13969 0fa4 50       		.byte	0x50
 13970 0fa5 39000000 		.4byte	.LVL198-1
 13971 0fa9 6A000000 		.4byte	.LVL202
 13972 0fad 0100     		.2byte	0x1
 13973 0faf 55       		.byte	0x55
 13974 0fb0 6A000000 		.4byte	.LVL202
 13975 0fb4 75000000 		.4byte	.LVL204-1
 13976 0fb8 0100     		.2byte	0x1
 13977 0fba 50       		.byte	0x50
ARM GAS  /var/folders/dt/0wfd0knj7gs46m8vwfzktm600000gn/T//cczoWvr4.s 			page 247


 13978 0fbb 75000000 		.4byte	.LVL204-1
 13979 0fbf 92000000 		.4byte	.LVL208
 13980 0fc3 0100     		.2byte	0x1
 13981 0fc5 55       		.byte	0x55
 13982 0fc6 92000000 		.4byte	.LVL208
 13983 0fca A1000000 		.4byte	.LVL211-1
 13984 0fce 0100     		.2byte	0x1
 13985 0fd0 50       		.byte	0x50
 13986 0fd1 A1000000 		.4byte	.LVL211-1
 13987 0fd5 0C010000 		.4byte	.LFE8
 13988 0fd9 0100     		.2byte	0x1
 13989 0fdb 55       		.byte	0x55
 13990 0fdc 00000000 		.4byte	0
 13991 0fe0 00000000 		.4byte	0
 13992              	.LLST62:
 13993 0fe4 00000000 		.4byte	.LVL192
 13994 0fe8 14000000 		.4byte	.LVL193
 13995 0fec 0100     		.2byte	0x1
 13996 0fee 51       		.byte	0x51
 13997 0fef 14000000 		.4byte	.LVL193
 13998 0ff3 18000000 		.4byte	.LVL194
 13999 0ff7 0400     		.2byte	0x4
 14000 0ff9 F3       		.byte	0xf3
 14001 0ffa 01       		.uleb128 0x1
 14002 0ffb 51       		.byte	0x51
 14003 0ffc 9F       		.byte	0x9f
 14004 0ffd 18000000 		.4byte	.LVL194
 14005 1001 28000000 		.4byte	.LVL195
 14006 1005 0100     		.2byte	0x1
 14007 1007 51       		.byte	0x51
 14008 1008 28000000 		.4byte	.LVL195
 14009 100c 2E000000 		.4byte	.LVL196
 14010 1010 0400     		.2byte	0x4
 14011 1012 F3       		.byte	0xf3
 14012 1013 01       		.uleb128 0x1
 14013 1014 51       		.byte	0x51
 14014 1015 9F       		.byte	0x9f
 14015 1016 2E000000 		.4byte	.LVL196
 14016 101a 30000000 		.4byte	.LVL197
 14017 101e 0100     		.2byte	0x1
 14018 1020 51       		.byte	0x51
 14019 1021 30000000 		.4byte	.LVL197
 14020 1025 42000000 		.4byte	.LVL199
 14021 1029 0100     		.2byte	0x1
 14022 102b 54       		.byte	0x54
 14023 102c 42000000 		.4byte	.LVL199
 14024 1030 6A000000 		.4byte	.LVL202
 14025 1034 0400     		.2byte	0x4
 14026 1036 F3       		.byte	0xf3
 14027 1037 01       		.uleb128 0x1
 14028 1038 51       		.byte	0x51
 14029 1039 9F       		.byte	0x9f
 14030 103a 6A000000 		.4byte	.LVL202
 14031 103e 6C000000 		.4byte	.LVL203
 14032 1042 0100     		.2byte	0x1
 14033 1044 51       		.byte	0x51
 14034 1045 6C000000 		.4byte	.LVL203
ARM GAS  /var/folders/dt/0wfd0knj7gs46m8vwfzktm600000gn/T//cczoWvr4.s 			page 248


 14035 1049 7E000000 		.4byte	.LVL205
 14036 104d 0100     		.2byte	0x1
 14037 104f 54       		.byte	0x54
 14038 1050 7E000000 		.4byte	.LVL205
 14039 1054 92000000 		.4byte	.LVL208
 14040 1058 0400     		.2byte	0x4
 14041 105a F3       		.byte	0xf3
 14042 105b 01       		.uleb128 0x1
 14043 105c 51       		.byte	0x51
 14044 105d 9F       		.byte	0x9f
 14045 105e 92000000 		.4byte	.LVL208
 14046 1062 94000000 		.4byte	.LVL209
 14047 1066 0100     		.2byte	0x1
 14048 1068 51       		.byte	0x51
 14049 1069 94000000 		.4byte	.LVL209
 14050 106d B0000000 		.4byte	.LVL213
 14051 1071 0100     		.2byte	0x1
 14052 1073 54       		.byte	0x54
 14053 1074 B0000000 		.4byte	.LVL213
 14054 1078 0C010000 		.4byte	.LFE8
 14055 107c 0400     		.2byte	0x4
 14056 107e F3       		.byte	0xf3
 14057 107f 01       		.uleb128 0x1
 14058 1080 51       		.byte	0x51
 14059 1081 9F       		.byte	0x9f
 14060 1082 00000000 		.4byte	0
 14061 1086 00000000 		.4byte	0
 14062              	.LLST63:
 14063 108a 00000000 		.4byte	.LVL192
 14064 108e 14000000 		.4byte	.LVL193
 14065 1092 0100     		.2byte	0x1
 14066 1094 52       		.byte	0x52
 14067 1095 14000000 		.4byte	.LVL193
 14068 1099 18000000 		.4byte	.LVL194
 14069 109d 0400     		.2byte	0x4
 14070 109f F3       		.byte	0xf3
 14071 10a0 01       		.uleb128 0x1
 14072 10a1 52       		.byte	0x52
 14073 10a2 9F       		.byte	0x9f
 14074 10a3 18000000 		.4byte	.LVL194
 14075 10a7 28000000 		.4byte	.LVL195
 14076 10ab 0100     		.2byte	0x1
 14077 10ad 52       		.byte	0x52
 14078 10ae 28000000 		.4byte	.LVL195
 14079 10b2 2E000000 		.4byte	.LVL196
 14080 10b6 0400     		.2byte	0x4
 14081 10b8 F3       		.byte	0xf3
 14082 10b9 01       		.uleb128 0x1
 14083 10ba 52       		.byte	0x52
 14084 10bb 9F       		.byte	0x9f
 14085 10bc 2E000000 		.4byte	.LVL196
 14086 10c0 39000000 		.4byte	.LVL198-1
 14087 10c4 0100     		.2byte	0x1
 14088 10c6 52       		.byte	0x52
 14089 10c7 39000000 		.4byte	.LVL198-1
 14090 10cb 6A000000 		.4byte	.LVL202
 14091 10cf 0400     		.2byte	0x4
ARM GAS  /var/folders/dt/0wfd0knj7gs46m8vwfzktm600000gn/T//cczoWvr4.s 			page 249


 14092 10d1 F3       		.byte	0xf3
 14093 10d2 01       		.uleb128 0x1
 14094 10d3 52       		.byte	0x52
 14095 10d4 9F       		.byte	0x9f
 14096 10d5 6A000000 		.4byte	.LVL202
 14097 10d9 75000000 		.4byte	.LVL204-1
 14098 10dd 0100     		.2byte	0x1
 14099 10df 52       		.byte	0x52
 14100 10e0 75000000 		.4byte	.LVL204-1
 14101 10e4 92000000 		.4byte	.LVL208
 14102 10e8 0400     		.2byte	0x4
 14103 10ea F3       		.byte	0xf3
 14104 10eb 01       		.uleb128 0x1
 14105 10ec 52       		.byte	0x52
 14106 10ed 9F       		.byte	0x9f
 14107 10ee 92000000 		.4byte	.LVL208
 14108 10f2 A1000000 		.4byte	.LVL211-1
 14109 10f6 0100     		.2byte	0x1
 14110 10f8 52       		.byte	0x52
 14111 10f9 A1000000 		.4byte	.LVL211-1
 14112 10fd 0C010000 		.4byte	.LFE8
 14113 1101 0400     		.2byte	0x4
 14114 1103 F3       		.byte	0xf3
 14115 1104 01       		.uleb128 0x1
 14116 1105 52       		.byte	0x52
 14117 1106 9F       		.byte	0x9f
 14118 1107 00000000 		.4byte	0
 14119 110b 00000000 		.4byte	0
 14120              	.LLST64:
 14121 110f 14000000 		.4byte	.LVL193
 14122 1113 18000000 		.4byte	.LVL194
 14123 1117 0100     		.2byte	0x1
 14124 1119 50       		.byte	0x50
 14125 111a 00000000 		.4byte	0
 14126 111e 00000000 		.4byte	0
 14127              	.LLST65:
 14128 1122 18000000 		.4byte	.LVL194
 14129 1126 28000000 		.4byte	.LVL195
 14130 112a 0100     		.2byte	0x1
 14131 112c 52       		.byte	0x52
 14132 112d 2E000000 		.4byte	.LVL196
 14133 1131 39000000 		.4byte	.LVL198-1
 14134 1135 0100     		.2byte	0x1
 14135 1137 52       		.byte	0x52
 14136 1138 39000000 		.4byte	.LVL198-1
 14137 113c 56000000 		.4byte	.LVL201
 14138 1140 0400     		.2byte	0x4
 14139 1142 F3       		.byte	0xf3
 14140 1143 01       		.uleb128 0x1
 14141 1144 52       		.byte	0x52
 14142 1145 9F       		.byte	0x9f
 14143 1146 56000000 		.4byte	.LVL201
 14144 114a 75000000 		.4byte	.LVL204-1
 14145 114e 0100     		.2byte	0x1
 14146 1150 52       		.byte	0x52
 14147 1151 75000000 		.4byte	.LVL204-1
 14148 1155 92000000 		.4byte	.LVL208
ARM GAS  /var/folders/dt/0wfd0knj7gs46m8vwfzktm600000gn/T//cczoWvr4.s 			page 250


 14149 1159 0400     		.2byte	0x4
 14150 115b F3       		.byte	0xf3
 14151 115c 01       		.uleb128 0x1
 14152 115d 52       		.byte	0x52
 14153 115e 9F       		.byte	0x9f
 14154 115f 92000000 		.4byte	.LVL208
 14155 1163 A1000000 		.4byte	.LVL211-1
 14156 1167 0100     		.2byte	0x1
 14157 1169 52       		.byte	0x52
 14158 116a A1000000 		.4byte	.LVL211-1
 14159 116e 0C010000 		.4byte	.LFE8
 14160 1172 0400     		.2byte	0x4
 14161 1174 F3       		.byte	0xf3
 14162 1175 01       		.uleb128 0x1
 14163 1176 52       		.byte	0x52
 14164 1177 9F       		.byte	0x9f
 14165 1178 00000000 		.4byte	0
 14166 117c 00000000 		.4byte	0
 14167              	.LLST66:
 14168 1180 18000000 		.4byte	.LVL194
 14169 1184 28000000 		.4byte	.LVL195
 14170 1188 0100     		.2byte	0x1
 14171 118a 51       		.byte	0x51
 14172 118b 28000000 		.4byte	.LVL195
 14173 118f 2E000000 		.4byte	.LVL196
 14174 1193 0400     		.2byte	0x4
 14175 1195 F3       		.byte	0xf3
 14176 1196 01       		.uleb128 0x1
 14177 1197 51       		.byte	0x51
 14178 1198 9F       		.byte	0x9f
 14179 1199 2E000000 		.4byte	.LVL196
 14180 119d 30000000 		.4byte	.LVL197
 14181 11a1 0100     		.2byte	0x1
 14182 11a3 51       		.byte	0x51
 14183 11a4 30000000 		.4byte	.LVL197
 14184 11a8 42000000 		.4byte	.LVL199
 14185 11ac 0100     		.2byte	0x1
 14186 11ae 54       		.byte	0x54
 14187 11af 42000000 		.4byte	.LVL199
 14188 11b3 6A000000 		.4byte	.LVL202
 14189 11b7 0400     		.2byte	0x4
 14190 11b9 F3       		.byte	0xf3
 14191 11ba 01       		.uleb128 0x1
 14192 11bb 51       		.byte	0x51
 14193 11bc 9F       		.byte	0x9f
 14194 11bd 6A000000 		.4byte	.LVL202
 14195 11c1 6C000000 		.4byte	.LVL203
 14196 11c5 0100     		.2byte	0x1
 14197 11c7 51       		.byte	0x51
 14198 11c8 6C000000 		.4byte	.LVL203
 14199 11cc 7E000000 		.4byte	.LVL205
 14200 11d0 0100     		.2byte	0x1
 14201 11d2 54       		.byte	0x54
 14202 11d3 7E000000 		.4byte	.LVL205
 14203 11d7 92000000 		.4byte	.LVL208
 14204 11db 0400     		.2byte	0x4
 14205 11dd F3       		.byte	0xf3
ARM GAS  /var/folders/dt/0wfd0knj7gs46m8vwfzktm600000gn/T//cczoWvr4.s 			page 251


 14206 11de 01       		.uleb128 0x1
 14207 11df 51       		.byte	0x51
 14208 11e0 9F       		.byte	0x9f
 14209 11e1 92000000 		.4byte	.LVL208
 14210 11e5 94000000 		.4byte	.LVL209
 14211 11e9 0100     		.2byte	0x1
 14212 11eb 51       		.byte	0x51
 14213 11ec 94000000 		.4byte	.LVL209
 14214 11f0 B0000000 		.4byte	.LVL213
 14215 11f4 0100     		.2byte	0x1
 14216 11f6 54       		.byte	0x54
 14217 11f7 B0000000 		.4byte	.LVL213
 14218 11fb 0C010000 		.4byte	.LFE8
 14219 11ff 0400     		.2byte	0x4
 14220 1201 F3       		.byte	0xf3
 14221 1202 01       		.uleb128 0x1
 14222 1203 51       		.byte	0x51
 14223 1204 9F       		.byte	0x9f
 14224 1205 00000000 		.4byte	0
 14225 1209 00000000 		.4byte	0
 14226              	.LLST67:
 14227 120d 18000000 		.4byte	.LVL194
 14228 1211 28000000 		.4byte	.LVL195
 14229 1215 0100     		.2byte	0x1
 14230 1217 50       		.byte	0x50
 14231 1218 28000000 		.4byte	.LVL195
 14232 121c 2E000000 		.4byte	.LVL196
 14233 1220 0100     		.2byte	0x1
 14234 1222 55       		.byte	0x55
 14235 1223 2E000000 		.4byte	.LVL196
 14236 1227 39000000 		.4byte	.LVL198-1
 14237 122b 0100     		.2byte	0x1
 14238 122d 50       		.byte	0x50
 14239 122e 39000000 		.4byte	.LVL198-1
 14240 1232 6A000000 		.4byte	.LVL202
 14241 1236 0100     		.2byte	0x1
 14242 1238 55       		.byte	0x55
 14243 1239 6A000000 		.4byte	.LVL202
 14244 123d 75000000 		.4byte	.LVL204-1
 14245 1241 0100     		.2byte	0x1
 14246 1243 50       		.byte	0x50
 14247 1244 75000000 		.4byte	.LVL204-1
 14248 1248 92000000 		.4byte	.LVL208
 14249 124c 0100     		.2byte	0x1
 14250 124e 55       		.byte	0x55
 14251 124f 92000000 		.4byte	.LVL208
 14252 1253 A1000000 		.4byte	.LVL211-1
 14253 1257 0100     		.2byte	0x1
 14254 1259 50       		.byte	0x50
 14255 125a A1000000 		.4byte	.LVL211-1
 14256 125e 0C010000 		.4byte	.LFE8
 14257 1262 0100     		.2byte	0x1
 14258 1264 55       		.byte	0x55
 14259 1265 00000000 		.4byte	0
 14260 1269 00000000 		.4byte	0
 14261              	.LLST68:
 14262 126d 92000000 		.4byte	.LVL208
ARM GAS  /var/folders/dt/0wfd0knj7gs46m8vwfzktm600000gn/T//cczoWvr4.s 			page 252


 14263 1271 94000000 		.4byte	.LVL209
 14264 1275 0100     		.2byte	0x1
 14265 1277 51       		.byte	0x51
 14266 1278 94000000 		.4byte	.LVL209
 14267 127c 98000000 		.4byte	.LVL210
 14268 1280 0100     		.2byte	0x1
 14269 1282 54       		.byte	0x54
 14270 1283 98000000 		.4byte	.LVL210
 14271 1287 EA000000 		.4byte	.LVL218
 14272 128b 0100     		.2byte	0x1
 14273 128d 56       		.byte	0x56
 14274 128e EA000000 		.4byte	.LVL218
 14275 1292 0C010000 		.4byte	.LFE8
 14276 1296 0C00     		.2byte	0xc
 14277 1298 F3       		.byte	0xf3
 14278 1299 01       		.uleb128 0x1
 14279 129a 51       		.byte	0x51
 14280 129b 31       		.byte	0x31
 14281 129c 25       		.byte	0x25
 14282 129d F3       		.byte	0xf3
 14283 129e 01       		.uleb128 0x1
 14284 129f 51       		.byte	0x51
 14285 12a0 22       		.byte	0x22
 14286 12a1 23       		.byte	0x23
 14287 12a2 01       		.uleb128 0x1
 14288 12a3 9F       		.byte	0x9f
 14289 12a4 00000000 		.4byte	0
 14290 12a8 00000000 		.4byte	0
 14291              	.LLST69:
 14292 12ac 4A000000 		.4byte	.LVL200
 14293 12b0 6A000000 		.4byte	.LVL202
 14294 12b4 0100     		.2byte	0x1
 14295 12b6 53       		.byte	0x53
 14296 12b7 80000000 		.4byte	.LVL206
 14297 12bb 88000000 		.4byte	.LVL207
 14298 12bf 0800     		.2byte	0x8
 14299 12c1 75       		.byte	0x75
 14300 12c2 00       		.sleb128 0
 14301 12c3 74       		.byte	0x74
 14302 12c4 00       		.sleb128 0
 14303 12c5 22       		.byte	0x22
 14304 12c6 23       		.byte	0x23
 14305 12c7 30       		.uleb128 0x30
 14306 12c8 9F       		.byte	0x9f
 14307 12c9 88000000 		.4byte	.LVL207
 14308 12cd 92000000 		.4byte	.LVL208
 14309 12d1 0D00     		.2byte	0xd
 14310 12d3 F3       		.byte	0xf3
 14311 12d4 01       		.uleb128 0x1
 14312 12d5 51       		.byte	0x51
 14313 12d6 48       		.byte	0x48
 14314 12d7 24       		.byte	0x24
 14315 12d8 47       		.byte	0x47
 14316 12d9 25       		.byte	0x25
 14317 12da 75       		.byte	0x75
 14318 12db 00       		.sleb128 0
 14319 12dc 22       		.byte	0x22
ARM GAS  /var/folders/dt/0wfd0knj7gs46m8vwfzktm600000gn/T//cczoWvr4.s 			page 253


 14320 12dd 23       		.byte	0x23
 14321 12de 30       		.uleb128 0x30
 14322 12df 9F       		.byte	0x9f
 14323 12e0 AC000000 		.4byte	.LVL212
 14324 12e4 B4000000 		.4byte	.LVL214
 14325 12e8 0800     		.2byte	0x8
 14326 12ea 75       		.byte	0x75
 14327 12eb 00       		.sleb128 0
 14328 12ec 73       		.byte	0x73
 14329 12ed 00       		.sleb128 0
 14330 12ee 22       		.byte	0x22
 14331 12ef 23       		.byte	0x23
 14332 12f0 30       		.uleb128 0x30
 14333 12f1 9F       		.byte	0x9f
 14334 12f2 B4000000 		.4byte	.LVL214
 14335 12f6 D2000000 		.4byte	.LVL216
 14336 12fa 0C00     		.2byte	0xc
 14337 12fc 76       		.byte	0x76
 14338 12fd 00       		.sleb128 0
 14339 12fe 47       		.byte	0x47
 14340 12ff 24       		.byte	0x24
 14341 1300 47       		.byte	0x47
 14342 1301 25       		.byte	0x25
 14343 1302 75       		.byte	0x75
 14344 1303 00       		.sleb128 0
 14345 1304 22       		.byte	0x22
 14346 1305 23       		.byte	0x23
 14347 1306 30       		.uleb128 0x30
 14348 1307 9F       		.byte	0x9f
 14349 1308 D2000000 		.4byte	.LVL216
 14350 130c EA000000 		.4byte	.LVL218
 14351 1310 0C00     		.2byte	0xc
 14352 1312 76       		.byte	0x76
 14353 1313 7F       		.sleb128 -1
 14354 1314 47       		.byte	0x47
 14355 1315 24       		.byte	0x24
 14356 1316 47       		.byte	0x47
 14357 1317 25       		.byte	0x25
 14358 1318 75       		.byte	0x75
 14359 1319 00       		.sleb128 0
 14360 131a 22       		.byte	0x22
 14361 131b 23       		.byte	0x23
 14362 131c 30       		.uleb128 0x30
 14363 131d 9F       		.byte	0x9f
 14364 131e EA000000 		.4byte	.LVL218
 14365 1322 EC000000 		.4byte	.LVL219
 14366 1326 1300     		.2byte	0x13
 14367 1328 F3       		.byte	0xf3
 14368 1329 01       		.uleb128 0x1
 14369 132a 51       		.byte	0x51
 14370 132b 31       		.byte	0x31
 14371 132c 25       		.byte	0x25
 14372 132d F3       		.byte	0xf3
 14373 132e 01       		.uleb128 0x1
 14374 132f 51       		.byte	0x51
 14375 1330 22       		.byte	0x22
 14376 1331 47       		.byte	0x47
ARM GAS  /var/folders/dt/0wfd0knj7gs46m8vwfzktm600000gn/T//cczoWvr4.s 			page 254


 14377 1332 24       		.byte	0x24
 14378 1333 47       		.byte	0x47
 14379 1334 25       		.byte	0x25
 14380 1335 75       		.byte	0x75
 14381 1336 00       		.sleb128 0
 14382 1337 22       		.byte	0x22
 14383 1338 23       		.byte	0x23
 14384 1339 30       		.uleb128 0x30
 14385 133a 9F       		.byte	0x9f
 14386 133b EC000000 		.4byte	.LVL219
 14387 133f F4000000 		.4byte	.LVL220
 14388 1343 0800     		.2byte	0x8
 14389 1345 75       		.byte	0x75
 14390 1346 00       		.sleb128 0
 14391 1347 76       		.byte	0x76
 14392 1348 00       		.sleb128 0
 14393 1349 22       		.byte	0x22
 14394 134a 23       		.byte	0x23
 14395 134b 30       		.uleb128 0x30
 14396 134c 9F       		.byte	0x9f
 14397 134d F4000000 		.4byte	.LVL220
 14398 1351 FA000000 		.4byte	.LVL221
 14399 1355 1500     		.2byte	0x15
 14400 1357 F3       		.byte	0xf3
 14401 1358 01       		.uleb128 0x1
 14402 1359 51       		.byte	0x51
 14403 135a 31       		.byte	0x31
 14404 135b 25       		.byte	0x25
 14405 135c F3       		.byte	0xf3
 14406 135d 01       		.uleb128 0x1
 14407 135e 51       		.byte	0x51
 14408 135f 22       		.byte	0x22
 14409 1360 23       		.byte	0x23
 14410 1361 01       		.uleb128 0x1
 14411 1362 47       		.byte	0x47
 14412 1363 24       		.byte	0x24
 14413 1364 47       		.byte	0x47
 14414 1365 25       		.byte	0x25
 14415 1366 75       		.byte	0x75
 14416 1367 00       		.sleb128 0
 14417 1368 22       		.byte	0x22
 14418 1369 23       		.byte	0x23
 14419 136a 30       		.uleb128 0x30
 14420 136b 9F       		.byte	0x9f
 14421 136c FA000000 		.4byte	.LVL221
 14422 1370 FC000000 		.4byte	.LVL222
 14423 1374 0800     		.2byte	0x8
 14424 1376 75       		.byte	0x75
 14425 1377 00       		.sleb128 0
 14426 1378 76       		.byte	0x76
 14427 1379 00       		.sleb128 0
 14428 137a 22       		.byte	0x22
 14429 137b 23       		.byte	0x23
 14430 137c 30       		.uleb128 0x30
 14431 137d 9F       		.byte	0x9f
 14432 137e FC000000 		.4byte	.LVL222
 14433 1382 0C010000 		.4byte	.LFE8
ARM GAS  /var/folders/dt/0wfd0knj7gs46m8vwfzktm600000gn/T//cczoWvr4.s 			page 255


 14434 1386 1500     		.2byte	0x15
 14435 1388 F3       		.byte	0xf3
 14436 1389 01       		.uleb128 0x1
 14437 138a 51       		.byte	0x51
 14438 138b 31       		.byte	0x31
 14439 138c 25       		.byte	0x25
 14440 138d F3       		.byte	0xf3
 14441 138e 01       		.uleb128 0x1
 14442 138f 51       		.byte	0x51
 14443 1390 22       		.byte	0x22
 14444 1391 23       		.byte	0x23
 14445 1392 01       		.uleb128 0x1
 14446 1393 47       		.byte	0x47
 14447 1394 24       		.byte	0x24
 14448 1395 47       		.byte	0x47
 14449 1396 25       		.byte	0x25
 14450 1397 75       		.byte	0x75
 14451 1398 00       		.sleb128 0
 14452 1399 22       		.byte	0x22
 14453 139a 23       		.byte	0x23
 14454 139b 30       		.uleb128 0x30
 14455 139c 9F       		.byte	0x9f
 14456 139d 00000000 		.4byte	0
 14457 13a1 00000000 		.4byte	0
 14458              	.LLST70:
 14459 13a5 28000000 		.4byte	.LVL195
 14460 13a9 2E000000 		.4byte	.LVL196
 14461 13ad 0100     		.2byte	0x1
 14462 13af 50       		.byte	0x50
 14463 13b0 3A000000 		.4byte	.LVL198
 14464 13b4 6A000000 		.4byte	.LVL202
 14465 13b8 0100     		.2byte	0x1
 14466 13ba 50       		.byte	0x50
 14467 13bb 76000000 		.4byte	.LVL204
 14468 13bf 92000000 		.4byte	.LVL208
 14469 13c3 0100     		.2byte	0x1
 14470 13c5 50       		.byte	0x50
 14471 13c6 A2000000 		.4byte	.LVL211
 14472 13ca BA000000 		.4byte	.LVL215
 14473 13ce 0100     		.2byte	0x1
 14474 13d0 50       		.byte	0x50
 14475 13d1 E2000000 		.4byte	.LVL217
 14476 13d5 0C010000 		.4byte	.LFE8
 14477 13d9 0100     		.2byte	0x1
 14478 13db 50       		.byte	0x50
 14479 13dc 00000000 		.4byte	0
 14480 13e0 00000000 		.4byte	0
 14481              	.LLST71:
 14482 13e4 00000000 		.4byte	.LFB10
 14483 13e8 02000000 		.4byte	.LCFI12
 14484 13ec 0200     		.2byte	0x2
 14485 13ee 7D       		.byte	0x7d
 14486 13ef 00       		.sleb128 0
 14487 13f0 02000000 		.4byte	.LCFI12
 14488 13f4 AE000000 		.4byte	.LFE10
 14489 13f8 0200     		.2byte	0x2
 14490 13fa 7D       		.byte	0x7d
ARM GAS  /var/folders/dt/0wfd0knj7gs46m8vwfzktm600000gn/T//cczoWvr4.s 			page 256


 14491 13fb 18       		.sleb128 24
 14492 13fc 00000000 		.4byte	0
 14493 1400 00000000 		.4byte	0
 14494              	.LLST72:
 14495 1404 00000000 		.4byte	.LVL223
 14496 1408 10000000 		.4byte	.LVL225
 14497 140c 0100     		.2byte	0x1
 14498 140e 50       		.byte	0x50
 14499 140f 10000000 		.4byte	.LVL225
 14500 1413 3E000000 		.4byte	.LVL232
 14501 1417 0100     		.2byte	0x1
 14502 1419 56       		.byte	0x56
 14503 141a 3E000000 		.4byte	.LVL232
 14504 141e 46000000 		.4byte	.LVL234
 14505 1422 0100     		.2byte	0x1
 14506 1424 50       		.byte	0x50
 14507 1425 46000000 		.4byte	.LVL234
 14508 1429 4A000000 		.4byte	.LVL236
 14509 142d 0100     		.2byte	0x1
 14510 142f 56       		.byte	0x56
 14511 1430 4A000000 		.4byte	.LVL236
 14512 1434 4D000000 		.4byte	.LVL237-1
 14513 1438 0100     		.2byte	0x1
 14514 143a 50       		.byte	0x50
 14515 143b 4D000000 		.4byte	.LVL237-1
 14516 143f AE000000 		.4byte	.LFE10
 14517 1443 0100     		.2byte	0x1
 14518 1445 56       		.byte	0x56
 14519 1446 00000000 		.4byte	0
 14520 144a 00000000 		.4byte	0
 14521              	.LLST73:
 14522 144e 00000000 		.4byte	.LVL223
 14523 1452 10000000 		.4byte	.LVL225
 14524 1456 0100     		.2byte	0x1
 14525 1458 51       		.byte	0x51
 14526 1459 10000000 		.4byte	.LVL225
 14527 145d 3E000000 		.4byte	.LVL232
 14528 1461 0100     		.2byte	0x1
 14529 1463 57       		.byte	0x57
 14530 1464 3E000000 		.4byte	.LVL232
 14531 1468 46000000 		.4byte	.LVL234
 14532 146c 0100     		.2byte	0x1
 14533 146e 51       		.byte	0x51
 14534 146f 46000000 		.4byte	.LVL234
 14535 1473 4A000000 		.4byte	.LVL236
 14536 1477 0100     		.2byte	0x1
 14537 1479 57       		.byte	0x57
 14538 147a 4A000000 		.4byte	.LVL236
 14539 147e 4D000000 		.4byte	.LVL237-1
 14540 1482 0100     		.2byte	0x1
 14541 1484 51       		.byte	0x51
 14542 1485 4D000000 		.4byte	.LVL237-1
 14543 1489 AE000000 		.4byte	.LFE10
 14544 148d 0100     		.2byte	0x1
 14545 148f 57       		.byte	0x57
 14546 1490 00000000 		.4byte	0
 14547 1494 00000000 		.4byte	0
ARM GAS  /var/folders/dt/0wfd0knj7gs46m8vwfzktm600000gn/T//cczoWvr4.s 			page 257


 14548              	.LLST74:
 14549 1498 14000000 		.4byte	.LVL226
 14550 149c 16000000 		.4byte	.LVL227
 14551 14a0 0100     		.2byte	0x1
 14552 14a2 50       		.byte	0x50
 14553 14a3 2A000000 		.4byte	.LVL230
 14554 14a7 3A000000 		.4byte	.LVL231
 14555 14ab 0100     		.2byte	0x1
 14556 14ad 50       		.byte	0x50
 14557 14ae 4E000000 		.4byte	.LVL237
 14558 14b2 5E000000 		.4byte	.LVL239
 14559 14b6 0100     		.2byte	0x1
 14560 14b8 50       		.byte	0x50
 14561 14b9 8E000000 		.4byte	.LVL242
 14562 14bd 90000000 		.4byte	.LVL243
 14563 14c1 0100     		.2byte	0x1
 14564 14c3 50       		.byte	0x50
 14565 14c4 00000000 		.4byte	0
 14566 14c8 00000000 		.4byte	0
 14567              	.LLST75:
 14568 14cc 10000000 		.4byte	.LVL225
 14569 14d0 14000000 		.4byte	.LVL226
 14570 14d4 0100     		.2byte	0x1
 14571 14d6 55       		.byte	0x55
 14572 14d7 14000000 		.4byte	.LVL226
 14573 14db 16000000 		.4byte	.LVL227
 14574 14df 0100     		.2byte	0x1
 14575 14e1 54       		.byte	0x54
 14576 14e2 16000000 		.4byte	.LVL227
 14577 14e6 18000000 		.4byte	.LVL228
 14578 14ea 0200     		.2byte	0x2
 14579 14ec 32       		.byte	0x32
 14580 14ed 9F       		.byte	0x9f
 14581 14ee 18000000 		.4byte	.LVL228
 14582 14f2 3E000000 		.4byte	.LVL232
 14583 14f6 0100     		.2byte	0x1
 14584 14f8 54       		.byte	0x54
 14585 14f9 46000000 		.4byte	.LVL234
 14586 14fd 48000000 		.4byte	.LVL235
 14587 1501 0100     		.2byte	0x1
 14588 1503 54       		.byte	0x54
 14589 1504 5C000000 		.4byte	.LVL238
 14590 1508 8E000000 		.4byte	.LVL242
 14591 150c 0100     		.2byte	0x1
 14592 150e 54       		.byte	0x54
 14593 150f 92000000 		.4byte	.LVL244
 14594 1513 AE000000 		.4byte	.LFE10
 14595 1517 0100     		.2byte	0x1
 14596 1519 54       		.byte	0x54
 14597 151a 00000000 		.4byte	0
 14598 151e 00000000 		.4byte	0
 14599              	.LLST76:
 14600 1522 0A000000 		.4byte	.LVL224
 14601 1526 44000000 		.4byte	.LVL233
 14602 152a 0100     		.2byte	0x1
 14603 152c 55       		.byte	0x55
 14604 152d 44000000 		.4byte	.LVL233
ARM GAS  /var/folders/dt/0wfd0knj7gs46m8vwfzktm600000gn/T//cczoWvr4.s 			page 258


 14605 1531 46000000 		.4byte	.LVL234
 14606 1535 0200     		.2byte	0x2
 14607 1537 70       		.byte	0x70
 14608 1538 0C       		.sleb128 12
 14609 1539 46000000 		.4byte	.LVL234
 14610 153d 48000000 		.4byte	.LVL235
 14611 1541 0100     		.2byte	0x1
 14612 1543 55       		.byte	0x55
 14613 1544 5C000000 		.4byte	.LVL238
 14614 1548 8E000000 		.4byte	.LVL242
 14615 154c 0100     		.2byte	0x1
 14616 154e 55       		.byte	0x55
 14617 154f 92000000 		.4byte	.LVL244
 14618 1553 AE000000 		.4byte	.LFE10
 14619 1557 0100     		.2byte	0x1
 14620 1559 55       		.byte	0x55
 14621 155a 00000000 		.4byte	0
 14622 155e 00000000 		.4byte	0
 14623              	.LLST77:
 14624 1562 68000000 		.4byte	.LVL240
 14625 1566 7A000000 		.4byte	.LVL241
 14626 156a 0100     		.2byte	0x1
 14627 156c 50       		.byte	0x50
 14628 156d 9E000000 		.4byte	.LVL245
 14629 1571 A0000000 		.4byte	.LVL246
 14630 1575 0100     		.2byte	0x1
 14631 1577 50       		.byte	0x50
 14632 1578 A8000000 		.4byte	.LVL247
 14633 157c AE000000 		.4byte	.LFE10
 14634 1580 0100     		.2byte	0x1
 14635 1582 50       		.byte	0x50
 14636 1583 00000000 		.4byte	0
 14637 1587 00000000 		.4byte	0
 14638              	.LLST78:
 14639 158b 00000000 		.4byte	.LFB12
 14640 158f 04000000 		.4byte	.LCFI13
 14641 1593 0200     		.2byte	0x2
 14642 1595 7D       		.byte	0x7d
 14643 1596 00       		.sleb128 0
 14644 1597 04000000 		.4byte	.LCFI13
 14645 159b 26010000 		.4byte	.LFE12
 14646 159f 0200     		.2byte	0x2
 14647 15a1 7D       		.byte	0x7d
 14648 15a2 20       		.sleb128 32
 14649 15a3 00000000 		.4byte	0
 14650 15a7 00000000 		.4byte	0
 14651              	.LLST79:
 14652 15ab 00000000 		.4byte	.LVL248
 14653 15af 10000000 		.4byte	.LVL250
 14654 15b3 0100     		.2byte	0x1
 14655 15b5 50       		.byte	0x50
 14656 15b6 10000000 		.4byte	.LVL250
 14657 15ba 16000000 		.4byte	.LVL251
 14658 15be 0100     		.2byte	0x1
 14659 15c0 54       		.byte	0x54
 14660 15c1 16000000 		.4byte	.LVL251
 14661 15c5 24000000 		.4byte	.LVL252
ARM GAS  /var/folders/dt/0wfd0knj7gs46m8vwfzktm600000gn/T//cczoWvr4.s 			page 259


 14662 15c9 0100     		.2byte	0x1
 14663 15cb 50       		.byte	0x50
 14664 15cc 24000000 		.4byte	.LVL252
 14665 15d0 34000000 		.4byte	.LVL253
 14666 15d4 0100     		.2byte	0x1
 14667 15d6 54       		.byte	0x54
 14668 15d7 34000000 		.4byte	.LVL253
 14669 15db 3C000000 		.4byte	.LVL255
 14670 15df 0100     		.2byte	0x1
 14671 15e1 50       		.byte	0x50
 14672 15e2 3C000000 		.4byte	.LVL255
 14673 15e6 26010000 		.4byte	.LFE12
 14674 15ea 0100     		.2byte	0x1
 14675 15ec 54       		.byte	0x54
 14676 15ed 00000000 		.4byte	0
 14677 15f1 00000000 		.4byte	0
 14678              	.LLST80:
 14679 15f5 00000000 		.4byte	.LVL248
 14680 15f9 10000000 		.4byte	.LVL250
 14681 15fd 0100     		.2byte	0x1
 14682 15ff 51       		.byte	0x51
 14683 1600 10000000 		.4byte	.LVL250
 14684 1604 16000000 		.4byte	.LVL251
 14685 1608 0400     		.2byte	0x4
 14686 160a F3       		.byte	0xf3
 14687 160b 01       		.uleb128 0x1
 14688 160c 51       		.byte	0x51
 14689 160d 9F       		.byte	0x9f
 14690 160e 16000000 		.4byte	.LVL251
 14691 1612 24000000 		.4byte	.LVL252
 14692 1616 0100     		.2byte	0x1
 14693 1618 51       		.byte	0x51
 14694 1619 24000000 		.4byte	.LVL252
 14695 161d 34000000 		.4byte	.LVL253
 14696 1621 0400     		.2byte	0x4
 14697 1623 F3       		.byte	0xf3
 14698 1624 01       		.uleb128 0x1
 14699 1625 51       		.byte	0x51
 14700 1626 9F       		.byte	0x9f
 14701 1627 34000000 		.4byte	.LVL253
 14702 162b 36000000 		.4byte	.LVL254
 14703 162f 0100     		.2byte	0x1
 14704 1631 51       		.byte	0x51
 14705 1632 36000000 		.4byte	.LVL254
 14706 1636 64000000 		.4byte	.LVL259
 14707 163a 0100     		.2byte	0x1
 14708 163c 56       		.byte	0x56
 14709 163d 64000000 		.4byte	.LVL259
 14710 1641 7A000000 		.4byte	.LVL262
 14711 1645 0400     		.2byte	0x4
 14712 1647 F3       		.byte	0xf3
 14713 1648 01       		.uleb128 0x1
 14714 1649 51       		.byte	0x51
 14715 164a 9F       		.byte	0x9f
 14716 164b 7A000000 		.4byte	.LVL262
 14717 164f 82000000 		.4byte	.LVL263
 14718 1653 0100     		.2byte	0x1
ARM GAS  /var/folders/dt/0wfd0knj7gs46m8vwfzktm600000gn/T//cczoWvr4.s 			page 260


 14719 1655 56       		.byte	0x56
 14720 1656 82000000 		.4byte	.LVL263
 14721 165a 26010000 		.4byte	.LFE12
 14722 165e 0400     		.2byte	0x4
 14723 1660 F3       		.byte	0xf3
 14724 1661 01       		.uleb128 0x1
 14725 1662 51       		.byte	0x51
 14726 1663 9F       		.byte	0x9f
 14727 1664 00000000 		.4byte	0
 14728 1668 00000000 		.4byte	0
 14729              	.LLST81:
 14730 166c 50000000 		.4byte	.LVL257
 14731 1670 5A000000 		.4byte	.LVL258
 14732 1674 0100     		.2byte	0x1
 14733 1676 50       		.byte	0x50
 14734 1677 5A000000 		.4byte	.LVL258
 14735 167b 70000000 		.4byte	.LVL260
 14736 167f 0100     		.2byte	0x1
 14737 1681 58       		.byte	0x58
 14738 1682 70000000 		.4byte	.LVL260
 14739 1686 76000000 		.4byte	.LVL261
 14740 168a 0100     		.2byte	0x1
 14741 168c 50       		.byte	0x50
 14742 168d 76000000 		.4byte	.LVL261
 14743 1691 7A000000 		.4byte	.LVL262
 14744 1695 0100     		.2byte	0x1
 14745 1697 58       		.byte	0x58
 14746 1698 82000000 		.4byte	.LVL263
 14747 169c 84000000 		.4byte	.LVL264
 14748 16a0 0100     		.2byte	0x1
 14749 16a2 50       		.byte	0x50
 14750 16a3 84000000 		.4byte	.LVL264
 14751 16a7 88000000 		.4byte	.LVL265
 14752 16ab 0100     		.2byte	0x1
 14753 16ad 58       		.byte	0x58
 14754 16ae 88000000 		.4byte	.LVL265
 14755 16b2 94000000 		.4byte	.LVL266
 14756 16b6 0100     		.2byte	0x1
 14757 16b8 50       		.byte	0x50
 14758 16b9 94000000 		.4byte	.LVL266
 14759 16bd 26010000 		.4byte	.LFE12
 14760 16c1 0100     		.2byte	0x1
 14761 16c3 58       		.byte	0x58
 14762 16c4 00000000 		.4byte	0
 14763 16c8 00000000 		.4byte	0
 14764              	.LLST82:
 14765 16cc 0C010000 		.4byte	.LVL281
 14766 16d0 1A010000 		.4byte	.LVL282
 14767 16d4 0100     		.2byte	0x1
 14768 16d6 56       		.byte	0x56
 14769 16d7 00000000 		.4byte	0
 14770 16db 00000000 		.4byte	0
 14771              	.LLST83:
 14772 16df 0C010000 		.4byte	.LVL281
 14773 16e3 20010000 		.4byte	.LVL283
 14774 16e7 0100     		.2byte	0x1
 14775 16e9 50       		.byte	0x50
ARM GAS  /var/folders/dt/0wfd0knj7gs46m8vwfzktm600000gn/T//cczoWvr4.s 			page 261


 14776 16ea 00000000 		.4byte	0
 14777 16ee 00000000 		.4byte	0
 14778              	.LLST84:
 14779 16f2 D6000000 		.4byte	.LVL274
 14780 16f6 D8000000 		.4byte	.LVL275
 14781 16fa 0200     		.2byte	0x2
 14782 16fc 30       		.byte	0x30
 14783 16fd 9F       		.byte	0x9f
 14784 16fe D8000000 		.4byte	.LVL275
 14785 1702 E6000000 		.4byte	.LVL277
 14786 1706 0100     		.2byte	0x1
 14787 1708 59       		.byte	0x59
 14788 1709 E6000000 		.4byte	.LVL277
 14789 170d EE000000 		.4byte	.LVL278
 14790 1711 0300     		.2byte	0x3
 14791 1713 79       		.byte	0x79
 14792 1714 7F       		.sleb128 -1
 14793 1715 9F       		.byte	0x9f
 14794 1716 EE000000 		.4byte	.LVL278
 14795 171a 06010000 		.4byte	.LVL280
 14796 171e 0100     		.2byte	0x1
 14797 1720 59       		.byte	0x59
 14798 1721 00000000 		.4byte	0
 14799 1725 00000000 		.4byte	0
 14800              	.LLST85:
 14801 1729 A6000000 		.4byte	.LVL268
 14802 172d AA000000 		.4byte	.LVL269
 14803 1731 0400     		.2byte	0x4
 14804 1733 0A       		.byte	0xa
 14805 1734 FF01     		.2byte	0x1ff
 14806 1736 9F       		.byte	0x9f
 14807 1737 00000000 		.4byte	0
 14808 173b 00000000 		.4byte	0
 14809              	.LLST86:
 14810 173f A6000000 		.4byte	.LVL268
 14811 1743 06010000 		.4byte	.LVL280
 14812 1747 0200     		.2byte	0x2
 14813 1749 30       		.byte	0x30
 14814 174a 9F       		.byte	0x9f
 14815 174b 00000000 		.4byte	0
 14816 174f 00000000 		.4byte	0
 14817              	.LLST87:
 14818 1753 A6000000 		.4byte	.LVL268
 14819 1757 AA000000 		.4byte	.LVL269
 14820 175b 0100     		.2byte	0x1
 14821 175d 53       		.byte	0x53
 14822 175e AA000000 		.4byte	.LVL269
 14823 1762 D8000000 		.4byte	.LVL275
 14824 1766 0600     		.2byte	0x6
 14825 1768 74       		.byte	0x74
 14826 1769 00       		.sleb128 0
 14827 176a 06       		.byte	0x6
 14828 176b 23       		.byte	0x23
 14829 176c 30       		.uleb128 0x30
 14830 176d 9F       		.byte	0x9f
 14831 176e 00000000 		.4byte	0
 14832 1772 00000000 		.4byte	0
ARM GAS  /var/folders/dt/0wfd0knj7gs46m8vwfzktm600000gn/T//cczoWvr4.s 			page 262


 14833              	.LLST88:
 14834 1776 A6000000 		.4byte	.LVL268
 14835 177a BA000000 		.4byte	.LVL273
 14836 177e 0100     		.2byte	0x1
 14837 1780 53       		.byte	0x53
 14838 1781 00000000 		.4byte	0
 14839 1785 00000000 		.4byte	0
 14840              	.LLST89:
 14841 1789 B4000000 		.4byte	.LVL271
 14842 178d B8000000 		.4byte	.LVL272
 14843 1791 0100     		.2byte	0x1
 14844 1793 58       		.byte	0x58
 14845 1794 B8000000 		.4byte	.LVL272
 14846 1798 06010000 		.4byte	.LVL280
 14847 179c 0100     		.2byte	0x1
 14848 179e 56       		.byte	0x56
 14849 179f 00000000 		.4byte	0
 14850 17a3 00000000 		.4byte	0
 14851              	.LLST90:
 14852 17a7 B4000000 		.4byte	.LVL271
 14853 17ab D8000000 		.4byte	.LVL275
 14854 17af 0100     		.2byte	0x1
 14855 17b1 52       		.byte	0x52
 14856 17b2 00000000 		.4byte	0
 14857 17b6 00000000 		.4byte	0
 14858              	.LLST91:
 14859 17ba 00000000 		.4byte	.LFB19
 14860 17be 04000000 		.4byte	.LCFI14
 14861 17c2 0200     		.2byte	0x2
 14862 17c4 7D       		.byte	0x7d
 14863 17c5 00       		.sleb128 0
 14864 17c6 04000000 		.4byte	.LCFI14
 14865 17ca 4C020000 		.4byte	.LFE19
 14866 17ce 0200     		.2byte	0x2
 14867 17d0 7D       		.byte	0x7d
 14868 17d1 20       		.sleb128 32
 14869 17d2 00000000 		.4byte	0
 14870 17d6 00000000 		.4byte	0
 14871              	.LLST92:
 14872 17da 00000000 		.4byte	.LVL284
 14873 17de 2A000000 		.4byte	.LVL286
 14874 17e2 0100     		.2byte	0x1
 14875 17e4 50       		.byte	0x50
 14876 17e5 2A000000 		.4byte	.LVL286
 14877 17e9 2A020000 		.4byte	.LVL350
 14878 17ed 0100     		.2byte	0x1
 14879 17ef 56       		.byte	0x56
 14880 17f0 2A020000 		.4byte	.LVL350
 14881 17f4 2F020000 		.4byte	.LVL351-1
 14882 17f8 0100     		.2byte	0x1
 14883 17fa 50       		.byte	0x50
 14884 17fb 2F020000 		.4byte	.LVL351-1
 14885 17ff 4C020000 		.4byte	.LFE19
 14886 1803 0100     		.2byte	0x1
 14887 1805 56       		.byte	0x56
 14888 1806 00000000 		.4byte	0
 14889 180a 00000000 		.4byte	0
ARM GAS  /var/folders/dt/0wfd0knj7gs46m8vwfzktm600000gn/T//cczoWvr4.s 			page 263


 14890              	.LLST93:
 14891 180e 00000000 		.4byte	.LVL284
 14892 1812 12000000 		.4byte	.LVL285
 14893 1816 0100     		.2byte	0x1
 14894 1818 51       		.byte	0x51
 14895 1819 12000000 		.4byte	.LVL285
 14896 181d 34000000 		.4byte	.LVL287
 14897 1821 0100     		.2byte	0x1
 14898 1823 55       		.byte	0x55
 14899 1824 E2000000 		.4byte	.LVL308
 14900 1828 86010000 		.4byte	.LVL332
 14901 182c 0100     		.2byte	0x1
 14902 182e 55       		.byte	0x55
 14903 182f D8010000 		.4byte	.LVL342
 14904 1833 4C020000 		.4byte	.LFE19
 14905 1837 0100     		.2byte	0x1
 14906 1839 55       		.byte	0x55
 14907 183a 00000000 		.4byte	0
 14908 183e 00000000 		.4byte	0
 14909              	.LLST94:
 14910 1842 30020000 		.4byte	.LVL351
 14911 1846 36020000 		.4byte	.LVL352
 14912 184a 0100     		.2byte	0x1
 14913 184c 50       		.byte	0x50
 14914 184d 00000000 		.4byte	0
 14915 1851 00000000 		.4byte	0
 14916              	.LLST95:
 14917 1855 FE010000 		.4byte	.LVL348
 14918 1859 2A020000 		.4byte	.LVL350
 14919 185d 0100     		.2byte	0x1
 14920 185f 59       		.byte	0x59
 14921 1860 36020000 		.4byte	.LVL352
 14922 1864 3C020000 		.4byte	.LVL354
 14923 1868 0100     		.2byte	0x1
 14924 186a 59       		.byte	0x59
 14925 186b 00000000 		.4byte	0
 14926 186f 00000000 		.4byte	0
 14927              	.LLST96:
 14928 1873 80010000 		.4byte	.LVL331
 14929 1877 86010000 		.4byte	.LVL332
 14930 187b 0500     		.2byte	0x5
 14931 187d 76       		.byte	0x76
 14932 187e 18       		.sleb128 24
 14933 187f 06       		.byte	0x6
 14934 1880 23       		.byte	0x23
 14935 1881 0B       		.uleb128 0xb
 14936 1882 F2010000 		.4byte	.LVL346
 14937 1886 2A020000 		.4byte	.LVL350
 14938 188a 0200     		.2byte	0x2
 14939 188c 7C       		.byte	0x7c
 14940 188d 0B       		.sleb128 11
 14941 188e 36020000 		.4byte	.LVL352
 14942 1892 3C020000 		.4byte	.LVL354
 14943 1896 0200     		.2byte	0x2
 14944 1898 7C       		.byte	0x7c
 14945 1899 0B       		.sleb128 11
 14946 189a 44020000 		.4byte	.LVL355
ARM GAS  /var/folders/dt/0wfd0knj7gs46m8vwfzktm600000gn/T//cczoWvr4.s 			page 264


 14947 189e 4C020000 		.4byte	.LFE19
 14948 18a2 0200     		.2byte	0x2
 14949 18a4 7C       		.byte	0x7c
 14950 18a5 0B       		.sleb128 11
 14951 18a6 00000000 		.4byte	0
 14952 18aa 00000000 		.4byte	0
 14953              	.LLST97:
 14954 18ae 2A000000 		.4byte	.LVL286
 14955 18b2 2A020000 		.4byte	.LVL350
 14956 18b6 0600     		.2byte	0x6
 14957 18b8 F2       		.byte	0xf2
 14958 18b9 61110000 		.4byte	.Ldebug_info0+4449
 14959 18bd 00       		.sleb128 0
 14960 18be 36020000 		.4byte	.LVL352
 14961 18c2 4C020000 		.4byte	.LFE19
 14962 18c6 0600     		.2byte	0x6
 14963 18c8 F2       		.byte	0xf2
 14964 18c9 61110000 		.4byte	.Ldebug_info0+4449
 14965 18cd 00       		.sleb128 0
 14966 18ce 00000000 		.4byte	0
 14967 18d2 00000000 		.4byte	0
 14968              	.LLST98:
 14969 18d6 54000000 		.4byte	.LVL293
 14970 18da 62000000 		.4byte	.LVL296
 14971 18de 0100     		.2byte	0x1
 14972 18e0 59       		.byte	0x59
 14973 18e1 96000000 		.4byte	.LVL300
 14974 18e5 DE000000 		.4byte	.LVL307
 14975 18e9 0100     		.2byte	0x1
 14976 18eb 59       		.byte	0x59
 14977 18ec 00010000 		.4byte	.LVL310
 14978 18f0 0A010000 		.4byte	.LVL311
 14979 18f4 0100     		.2byte	0x1
 14980 18f6 59       		.byte	0x59
 14981 18f7 86010000 		.4byte	.LVL332
 14982 18fb AA010000 		.4byte	.LVL334
 14983 18ff 0100     		.2byte	0x1
 14984 1901 59       		.byte	0x59
 14985 1902 BA010000 		.4byte	.LVL336
 14986 1906 C6010000 		.4byte	.LVL339
 14987 190a 0100     		.2byte	0x1
 14988 190c 59       		.byte	0x59
 14989 190d CE010000 		.4byte	.LVL340
 14990 1911 D6010000 		.4byte	.LVL341
 14991 1915 0100     		.2byte	0x1
 14992 1917 59       		.byte	0x59
 14993 1918 00000000 		.4byte	0
 14994 191c 00000000 		.4byte	0
 14995              	.LLST99:
 14996 1920 56000000 		.4byte	.LVL294
 14997 1924 62000000 		.4byte	.LVL296
 14998 1928 0500     		.2byte	0x5
 14999 192a 75       		.byte	0x75
 15000 192b 00       		.sleb128 0
 15001 192c 72       		.byte	0x72
 15002 192d 00       		.sleb128 0
 15003 192e 22       		.byte	0x22
ARM GAS  /var/folders/dt/0wfd0knj7gs46m8vwfzktm600000gn/T//cczoWvr4.s 			page 265


 15004 192f D2000000 		.4byte	.LVL305
 15005 1933 DE000000 		.4byte	.LVL307
 15006 1937 0500     		.2byte	0x5
 15007 1939 75       		.byte	0x75
 15008 193a 00       		.sleb128 0
 15009 193b 72       		.byte	0x72
 15010 193c 00       		.sleb128 0
 15011 193d 22       		.byte	0x22
 15012 193e E6000000 		.4byte	.LVL309
 15013 1942 25010000 		.4byte	.LVL316-1
 15014 1946 0100     		.2byte	0x1
 15015 1948 53       		.byte	0x53
 15016 1949 BC010000 		.4byte	.LVL337
 15017 194d C6010000 		.4byte	.LVL339
 15018 1951 0100     		.2byte	0x1
 15019 1953 53       		.byte	0x53
 15020 1954 3C020000 		.4byte	.LVL354
 15021 1958 44020000 		.4byte	.LVL355
 15022 195c 0100     		.2byte	0x1
 15023 195e 53       		.byte	0x53
 15024 195f 00000000 		.4byte	0
 15025 1963 00000000 		.4byte	0
 15026              	.LLST100:
 15027 1967 A4000000 		.4byte	.LVL301
 15028 196b AE000000 		.4byte	.LVL303
 15029 196f 0500     		.2byte	0x5
 15030 1971 75       		.byte	0x75
 15031 1972 00       		.sleb128 0
 15032 1973 78       		.byte	0x78
 15033 1974 00       		.sleb128 0
 15034 1975 22       		.byte	0x22
 15035 1976 AE000000 		.4byte	.LVL303
 15036 197a DE000000 		.4byte	.LVL307
 15037 197e 0100     		.2byte	0x1
 15038 1980 51       		.byte	0x51
 15039 1981 00000000 		.4byte	0
 15040 1985 00000000 		.4byte	0
 15041              	.LLST101:
 15042 1989 42000000 		.4byte	.LVL290
 15043 198d 25010000 		.4byte	.LVL316-1
 15044 1991 0100     		.2byte	0x1
 15045 1993 5C       		.byte	0x5c
 15046 1994 86010000 		.4byte	.LVL332
 15047 1998 DC010000 		.4byte	.LVL343
 15048 199c 0100     		.2byte	0x1
 15049 199e 5C       		.byte	0x5c
 15050 199f 3C020000 		.4byte	.LVL354
 15051 19a3 44020000 		.4byte	.LVL355
 15052 19a7 0100     		.2byte	0x1
 15053 19a9 5C       		.byte	0x5c
 15054 19aa 00000000 		.4byte	0
 15055 19ae 00000000 		.4byte	0
 15056              	.LLST102:
 15057 19b2 54000000 		.4byte	.LVL293
 15058 19b6 28010000 		.4byte	.LVL317
 15059 19ba 0100     		.2byte	0x1
 15060 19bc 54       		.byte	0x54
ARM GAS  /var/folders/dt/0wfd0knj7gs46m8vwfzktm600000gn/T//cczoWvr4.s 			page 266


 15061 19bd 86010000 		.4byte	.LVL332
 15062 19c1 C6010000 		.4byte	.LVL339
 15063 19c5 0100     		.2byte	0x1
 15064 19c7 54       		.byte	0x54
 15065 19c8 C6010000 		.4byte	.LVL339
 15066 19cc D6010000 		.4byte	.LVL341
 15067 19d0 0200     		.2byte	0x2
 15068 19d2 3B       		.byte	0x3b
 15069 19d3 9F       		.byte	0x9f
 15070 19d4 D6010000 		.4byte	.LVL341
 15071 19d8 DC010000 		.4byte	.LVL343
 15072 19dc 0100     		.2byte	0x1
 15073 19de 54       		.byte	0x54
 15074 19df 3C020000 		.4byte	.LVL354
 15075 19e3 44020000 		.4byte	.LVL355
 15076 19e7 0100     		.2byte	0x1
 15077 19e9 54       		.byte	0x54
 15078 19ea 00000000 		.4byte	0
 15079 19ee 00000000 		.4byte	0
 15080              	.LLST103:
 15081 19f2 54000000 		.4byte	.LVL293
 15082 19f6 5A000000 		.4byte	.LVL295
 15083 19fa 0100     		.2byte	0x1
 15084 19fc 52       		.byte	0x52
 15085 19fd 5A000000 		.4byte	.LVL295
 15086 1a01 7A000000 		.4byte	.LVL297
 15087 1a05 0100     		.2byte	0x1
 15088 1a07 58       		.byte	0x58
 15089 1a08 80000000 		.4byte	.LVL299
 15090 1a0c A6000000 		.4byte	.LVL302
 15091 1a10 0100     		.2byte	0x1
 15092 1a12 58       		.byte	0x58
 15093 1a13 A6000000 		.4byte	.LVL302
 15094 1a17 DC000000 		.4byte	.LVL306
 15095 1a1b 0100     		.2byte	0x1
 15096 1a1d 52       		.byte	0x52
 15097 1a1e DC000000 		.4byte	.LVL306
 15098 1a22 28010000 		.4byte	.LVL317
 15099 1a26 0100     		.2byte	0x1
 15100 1a28 58       		.byte	0x58
 15101 1a29 86010000 		.4byte	.LVL332
 15102 1a2d DC010000 		.4byte	.LVL343
 15103 1a31 0100     		.2byte	0x1
 15104 1a33 58       		.byte	0x58
 15105 1a34 3C020000 		.4byte	.LVL354
 15106 1a38 44020000 		.4byte	.LVL355
 15107 1a3c 0100     		.2byte	0x1
 15108 1a3e 58       		.byte	0x58
 15109 1a3f 00000000 		.4byte	0
 15110 1a43 00000000 		.4byte	0
 15111              	.LLST104:
 15112 1a47 54000000 		.4byte	.LVL293
 15113 1a4b 7C000000 		.4byte	.LVL298
 15114 1a4f 0100     		.2byte	0x1
 15115 1a51 50       		.byte	0x50
 15116 1a52 80000000 		.4byte	.LVL299
 15117 1a56 CA000000 		.4byte	.LVL304
ARM GAS  /var/folders/dt/0wfd0knj7gs46m8vwfzktm600000gn/T//cczoWvr4.s 			page 267


 15118 1a5a 0100     		.2byte	0x1
 15119 1a5c 50       		.byte	0x50
 15120 1a5d CA000000 		.4byte	.LVL304
 15121 1a61 D2000000 		.4byte	.LVL305
 15122 1a65 0300     		.2byte	0x3
 15123 1a67 70       		.byte	0x70
 15124 1a68 01       		.sleb128 1
 15125 1a69 9F       		.byte	0x9f
 15126 1a6a D2000000 		.4byte	.LVL305
 15127 1a6e 20010000 		.4byte	.LVL315
 15128 1a72 0100     		.2byte	0x1
 15129 1a74 50       		.byte	0x50
 15130 1a75 86010000 		.4byte	.LVL332
 15131 1a79 C6010000 		.4byte	.LVL339
 15132 1a7d 0100     		.2byte	0x1
 15133 1a7f 50       		.byte	0x50
 15134 1a80 C6010000 		.4byte	.LVL339
 15135 1a84 D6010000 		.4byte	.LVL341
 15136 1a88 0200     		.2byte	0x2
 15137 1a8a 38       		.byte	0x38
 15138 1a8b 9F       		.byte	0x9f
 15139 1a8c D6010000 		.4byte	.LVL341
 15140 1a90 DC010000 		.4byte	.LVL343
 15141 1a94 0100     		.2byte	0x1
 15142 1a96 50       		.byte	0x50
 15143 1a97 3C020000 		.4byte	.LVL354
 15144 1a9b 44020000 		.4byte	.LVL355
 15145 1a9f 0100     		.2byte	0x1
 15146 1aa1 50       		.byte	0x50
 15147 1aa2 00000000 		.4byte	0
 15148 1aa6 00000000 		.4byte	0
 15149              	.LLST105:
 15150 1aaa 2A000000 		.4byte	.LVL286
 15151 1aae 36000000 		.4byte	.LVL288
 15152 1ab2 0100     		.2byte	0x1
 15153 1ab4 55       		.byte	0x55
 15154 1ab5 36000000 		.4byte	.LVL288
 15155 1ab9 3A000000 		.4byte	.LVL289
 15156 1abd 0100     		.2byte	0x1
 15157 1abf 53       		.byte	0x53
 15158 1ac0 3A000000 		.4byte	.LVL289
 15159 1ac4 7A000000 		.4byte	.LVL297
 15160 1ac8 0100     		.2byte	0x1
 15161 1aca 55       		.byte	0x55
 15162 1acb 80000000 		.4byte	.LVL299
 15163 1acf E2000000 		.4byte	.LVL308
 15164 1ad3 0100     		.2byte	0x1
 15165 1ad5 55       		.byte	0x55
 15166 1ad6 86010000 		.4byte	.LVL332
 15167 1ada D8010000 		.4byte	.LVL342
 15168 1ade 0100     		.2byte	0x1
 15169 1ae0 55       		.byte	0x55
 15170 1ae1 00000000 		.4byte	0
 15171 1ae5 00000000 		.4byte	0
 15172              	.LLST106:
 15173 1ae9 42000000 		.4byte	.LVL290
 15174 1aed 44000000 		.4byte	.LVL291
ARM GAS  /var/folders/dt/0wfd0knj7gs46m8vwfzktm600000gn/T//cczoWvr4.s 			page 268


 15175 1af1 0200     		.2byte	0x2
 15176 1af3 3A       		.byte	0x3a
 15177 1af4 9F       		.byte	0x9f
 15178 1af5 00000000 		.4byte	0
 15179 1af9 00000000 		.4byte	0
 15180              	.LLST108:
 15181 1afd 42000000 		.4byte	.LVL290
 15182 1b01 2A020000 		.4byte	.LVL350
 15183 1b05 0300     		.2byte	0x3
 15184 1b07 08       		.byte	0x8
 15185 1b08 20       		.byte	0x20
 15186 1b09 9F       		.byte	0x9f
 15187 1b0a 36020000 		.4byte	.LVL352
 15188 1b0e 4C020000 		.4byte	.LFE19
 15189 1b12 0300     		.2byte	0x3
 15190 1b14 08       		.byte	0x8
 15191 1b15 20       		.byte	0x20
 15192 1b16 9F       		.byte	0x9f
 15193 1b17 00000000 		.4byte	0
 15194 1b1b 00000000 		.4byte	0
 15195              	.LLST109:
 15196 1b1f 42000000 		.4byte	.LVL290
 15197 1b23 44000000 		.4byte	.LVL291
 15198 1b27 0100     		.2byte	0x1
 15199 1b29 5C       		.byte	0x5c
 15200 1b2a 44000000 		.4byte	.LVL291
 15201 1b2e 54000000 		.4byte	.LVL293
 15202 1b32 0100     		.2byte	0x1
 15203 1b34 53       		.byte	0x53
 15204 1b35 00000000 		.4byte	0
 15205 1b39 00000000 		.4byte	0
 15206              	.LLST110:
 15207 1b3d 86010000 		.4byte	.LVL332
 15208 1b41 B6010000 		.4byte	.LVL335
 15209 1b45 0100     		.2byte	0x1
 15210 1b47 53       		.byte	0x53
 15211 1b48 B6010000 		.4byte	.LVL335
 15212 1b4c BC010000 		.4byte	.LVL337
 15213 1b50 0300     		.2byte	0x3
 15214 1b52 73       		.byte	0x73
 15215 1b53 20       		.sleb128 32
 15216 1b54 9F       		.byte	0x9f
 15217 1b55 00000000 		.4byte	0
 15218 1b59 00000000 		.4byte	0
 15219              	.LLST111:
 15220 1b5d 86010000 		.4byte	.LVL332
 15221 1b61 90010000 		.4byte	.LVL333
 15222 1b65 0600     		.2byte	0x6
 15223 1b67 03       		.byte	0x3
 15224 1b68 00000000 		.4byte	.LC0
 15225 1b6c 9F       		.byte	0x9f
 15226 1b6d 00000000 		.4byte	0
 15227 1b71 00000000 		.4byte	0
 15228              	.LLST112:
 15229 1b75 1E010000 		.4byte	.LVL314
 15230 1b79 86010000 		.4byte	.LVL332
 15231 1b7d 0100     		.2byte	0x1
ARM GAS  /var/folders/dt/0wfd0knj7gs46m8vwfzktm600000gn/T//cczoWvr4.s 			page 269


 15232 1b7f 56       		.byte	0x56
 15233 1b80 DC010000 		.4byte	.LVL343
 15234 1b84 2A020000 		.4byte	.LVL350
 15235 1b88 0100     		.2byte	0x1
 15236 1b8a 56       		.byte	0x56
 15237 1b8b 36020000 		.4byte	.LVL352
 15238 1b8f 3C020000 		.4byte	.LVL354
 15239 1b93 0100     		.2byte	0x1
 15240 1b95 56       		.byte	0x56
 15241 1b96 44020000 		.4byte	.LVL355
 15242 1b9a 4C020000 		.4byte	.LFE19
 15243 1b9e 0100     		.2byte	0x1
 15244 1ba0 56       		.byte	0x56
 15245 1ba1 00000000 		.4byte	0
 15246 1ba5 00000000 		.4byte	0
 15247              	.LLST113:
 15248 1ba9 26010000 		.4byte	.LVL316
 15249 1bad 2A010000 		.4byte	.LVL318
 15250 1bb1 0100     		.2byte	0x1
 15251 1bb3 50       		.byte	0x50
 15252 1bb4 30010000 		.4byte	.LVL319
 15253 1bb8 70010000 		.4byte	.LVL328
 15254 1bbc 0100     		.2byte	0x1
 15255 1bbe 50       		.byte	0x50
 15256 1bbf 76010000 		.4byte	.LVL329
 15257 1bc3 86010000 		.4byte	.LVL332
 15258 1bc7 0100     		.2byte	0x1
 15259 1bc9 50       		.byte	0x50
 15260 1bca DC010000 		.4byte	.LVL343
 15261 1bce E6010000 		.4byte	.LVL345
 15262 1bd2 0100     		.2byte	0x1
 15263 1bd4 50       		.byte	0x50
 15264 1bd5 F2010000 		.4byte	.LVL346
 15265 1bd9 0C020000 		.4byte	.LVL349
 15266 1bdd 0100     		.2byte	0x1
 15267 1bdf 50       		.byte	0x50
 15268 1be0 36020000 		.4byte	.LVL352
 15269 1be4 38020000 		.4byte	.LVL353
 15270 1be8 0100     		.2byte	0x1
 15271 1bea 50       		.byte	0x50
 15272 1beb 44020000 		.4byte	.LVL355
 15273 1bef 4C020000 		.4byte	.LFE19
 15274 1bf3 0100     		.2byte	0x1
 15275 1bf5 50       		.byte	0x50
 15276 1bf6 00000000 		.4byte	0
 15277 1bfa 00000000 		.4byte	0
 15278              	.LLST114:
 15279 1bfe 3A010000 		.4byte	.LVL321
 15280 1c02 75010000 		.4byte	.LVL329-1
 15281 1c06 0200     		.2byte	0x2
 15282 1c08 79       		.byte	0x79
 15283 1c09 00       		.sleb128 0
 15284 1c0a DC010000 		.4byte	.LVL343
 15285 1c0e E0010000 		.4byte	.LVL344
 15286 1c12 0200     		.2byte	0x2
 15287 1c14 79       		.byte	0x79
 15288 1c15 00       		.sleb128 0
ARM GAS  /var/folders/dt/0wfd0knj7gs46m8vwfzktm600000gn/T//cczoWvr4.s 			page 270


 15289 1c16 F2010000 		.4byte	.LVL346
 15290 1c1a 2A020000 		.4byte	.LVL350
 15291 1c1e 0200     		.2byte	0x2
 15292 1c20 79       		.byte	0x79
 15293 1c21 00       		.sleb128 0
 15294 1c22 36020000 		.4byte	.LVL352
 15295 1c26 3C020000 		.4byte	.LVL354
 15296 1c2a 0200     		.2byte	0x2
 15297 1c2c 79       		.byte	0x79
 15298 1c2d 00       		.sleb128 0
 15299 1c2e 44020000 		.4byte	.LVL355
 15300 1c32 4C020000 		.4byte	.LFE19
 15301 1c36 0200     		.2byte	0x2
 15302 1c38 79       		.byte	0x79
 15303 1c39 00       		.sleb128 0
 15304 1c3a 00000000 		.4byte	0
 15305 1c3e 00000000 		.4byte	0
 15306              	.LLST115:
 15307 1c42 36010000 		.4byte	.LVL320
 15308 1c46 7A010000 		.4byte	.LVL330
 15309 1c4a 0100     		.2byte	0x1
 15310 1c4c 59       		.byte	0x59
 15311 1c4d DC010000 		.4byte	.LVL343
 15312 1c51 E0010000 		.4byte	.LVL344
 15313 1c55 0100     		.2byte	0x1
 15314 1c57 59       		.byte	0x59
 15315 1c58 F2010000 		.4byte	.LVL346
 15316 1c5c 2A020000 		.4byte	.LVL350
 15317 1c60 0100     		.2byte	0x1
 15318 1c62 59       		.byte	0x59
 15319 1c63 36020000 		.4byte	.LVL352
 15320 1c67 3C020000 		.4byte	.LVL354
 15321 1c6b 0100     		.2byte	0x1
 15322 1c6d 59       		.byte	0x59
 15323 1c6e 44020000 		.4byte	.LVL355
 15324 1c72 4C020000 		.4byte	.LFE19
 15325 1c76 0100     		.2byte	0x1
 15326 1c78 59       		.byte	0x59
 15327 1c79 00000000 		.4byte	0
 15328 1c7d 00000000 		.4byte	0
 15329              	.LLST116:
 15330 1c81 4E010000 		.4byte	.LVL322
 15331 1c85 56010000 		.4byte	.LVL323
 15332 1c89 0200     		.2byte	0x2
 15333 1c8b 3A       		.byte	0x3a
 15334 1c8c 9F       		.byte	0x9f
 15335 1c8d 00000000 		.4byte	0
 15336 1c91 00000000 		.4byte	0
 15337              	.LLST117:
 15338 1c95 4E010000 		.4byte	.LVL322
 15339 1c99 6E010000 		.4byte	.LVL327
 15340 1c9d 0100     		.2byte	0x1
 15341 1c9f 5C       		.byte	0x5c
 15342 1ca0 F2010000 		.4byte	.LVL346
 15343 1ca4 2A020000 		.4byte	.LVL350
 15344 1ca8 0100     		.2byte	0x1
 15345 1caa 5C       		.byte	0x5c
ARM GAS  /var/folders/dt/0wfd0knj7gs46m8vwfzktm600000gn/T//cczoWvr4.s 			page 271


 15346 1cab 36020000 		.4byte	.LVL352
 15347 1caf 3C020000 		.4byte	.LVL354
 15348 1cb3 0100     		.2byte	0x1
 15349 1cb5 5C       		.byte	0x5c
 15350 1cb6 44020000 		.4byte	.LVL355
 15351 1cba 4C020000 		.4byte	.LFE19
 15352 1cbe 0100     		.2byte	0x1
 15353 1cc0 5C       		.byte	0x5c
 15354 1cc1 00000000 		.4byte	0
 15355 1cc5 00000000 		.4byte	0
 15356              	.LLST118:
 15357 1cc9 4E010000 		.4byte	.LVL322
 15358 1ccd 6E010000 		.4byte	.LVL327
 15359 1cd1 0100     		.2byte	0x1
 15360 1cd3 59       		.byte	0x59
 15361 1cd4 F2010000 		.4byte	.LVL346
 15362 1cd8 2A020000 		.4byte	.LVL350
 15363 1cdc 0100     		.2byte	0x1
 15364 1cde 59       		.byte	0x59
 15365 1cdf 36020000 		.4byte	.LVL352
 15366 1ce3 3C020000 		.4byte	.LVL354
 15367 1ce7 0100     		.2byte	0x1
 15368 1ce9 59       		.byte	0x59
 15369 1cea 44020000 		.4byte	.LVL355
 15370 1cee 4C020000 		.4byte	.LFE19
 15371 1cf2 0100     		.2byte	0x1
 15372 1cf4 59       		.byte	0x59
 15373 1cf5 00000000 		.4byte	0
 15374 1cf9 00000000 		.4byte	0
 15375              	.LLST119:
 15376 1cfd 4E010000 		.4byte	.LVL322
 15377 1d01 56010000 		.4byte	.LVL323
 15378 1d05 0100     		.2byte	0x1
 15379 1d07 59       		.byte	0x59
 15380 1d08 00000000 		.4byte	0
 15381 1d0c 00000000 		.4byte	0
 15382              	.LLST120:
 15383 1d10 4E010000 		.4byte	.LVL322
 15384 1d14 56010000 		.4byte	.LVL323
 15385 1d18 0100     		.2byte	0x1
 15386 1d1a 5C       		.byte	0x5c
 15387 1d1b 56010000 		.4byte	.LVL323
 15388 1d1f 6E010000 		.4byte	.LVL327
 15389 1d23 0100     		.2byte	0x1
 15390 1d25 53       		.byte	0x53
 15391 1d26 F2010000 		.4byte	.LVL346
 15392 1d2a F6010000 		.4byte	.LVL347
 15393 1d2e 0100     		.2byte	0x1
 15394 1d30 53       		.byte	0x53
 15395 1d31 00000000 		.4byte	0
 15396 1d35 00000000 		.4byte	0
 15397              	.LLST121:
 15398 1d39 4E010000 		.4byte	.LVL322
 15399 1d3d 56010000 		.4byte	.LVL323
 15400 1d41 0200     		.2byte	0x2
 15401 1d43 30       		.byte	0x30
 15402 1d44 9F       		.byte	0x9f
ARM GAS  /var/folders/dt/0wfd0knj7gs46m8vwfzktm600000gn/T//cczoWvr4.s 			page 272


 15403 1d45 56010000 		.4byte	.LVL323
 15404 1d49 5E010000 		.4byte	.LVL324
 15405 1d4d 0C00     		.2byte	0xc
 15406 1d4f 72       		.byte	0x72
 15407 1d50 00       		.sleb128 0
 15408 1d51 08       		.byte	0x8
 15409 1d52 FF       		.byte	0xff
 15410 1d53 1A       		.byte	0x1a
 15411 1d54 71       		.byte	0x71
 15412 1d55 00       		.sleb128 0
 15413 1d56 08       		.byte	0x8
 15414 1d57 FF       		.byte	0xff
 15415 1d58 1A       		.byte	0x1a
 15416 1d59 1C       		.byte	0x1c
 15417 1d5a 9F       		.byte	0x9f
 15418 1d5b 66010000 		.4byte	.LVL325
 15419 1d5f 6A010000 		.4byte	.LVL326
 15420 1d63 0200     		.2byte	0x2
 15421 1d65 30       		.byte	0x30
 15422 1d66 9F       		.byte	0x9f
 15423 1d67 6A010000 		.4byte	.LVL326
 15424 1d6b 6E010000 		.4byte	.LVL327
 15425 1d6f 0C00     		.2byte	0xc
 15426 1d71 72       		.byte	0x72
 15427 1d72 00       		.sleb128 0
 15428 1d73 08       		.byte	0x8
 15429 1d74 FF       		.byte	0xff
 15430 1d75 1A       		.byte	0x1a
 15431 1d76 71       		.byte	0x71
 15432 1d77 00       		.sleb128 0
 15433 1d78 08       		.byte	0x8
 15434 1d79 FF       		.byte	0xff
 15435 1d7a 1A       		.byte	0x1a
 15436 1d7b 1C       		.byte	0x1c
 15437 1d7c 9F       		.byte	0x9f
 15438 1d7d F2010000 		.4byte	.LVL346
 15439 1d81 2A020000 		.4byte	.LVL350
 15440 1d85 0200     		.2byte	0x2
 15441 1d87 30       		.byte	0x30
 15442 1d88 9F       		.byte	0x9f
 15443 1d89 36020000 		.4byte	.LVL352
 15444 1d8d 3C020000 		.4byte	.LVL354
 15445 1d91 0200     		.2byte	0x2
 15446 1d93 30       		.byte	0x30
 15447 1d94 9F       		.byte	0x9f
 15448 1d95 44020000 		.4byte	.LVL355
 15449 1d99 4C020000 		.4byte	.LFE19
 15450 1d9d 0200     		.2byte	0x2
 15451 1d9f 30       		.byte	0x30
 15452 1da0 9F       		.byte	0x9f
 15453 1da1 00000000 		.4byte	0
 15454 1da5 00000000 		.4byte	0
 15455              	.LLST122:
 15456 1da9 00000000 		.4byte	.LFB15
 15457 1dad 02000000 		.4byte	.LCFI15
 15458 1db1 0200     		.2byte	0x2
 15459 1db3 7D       		.byte	0x7d
ARM GAS  /var/folders/dt/0wfd0knj7gs46m8vwfzktm600000gn/T//cczoWvr4.s 			page 273


 15460 1db4 00       		.sleb128 0
 15461 1db5 02000000 		.4byte	.LCFI15
 15462 1db9 78000000 		.4byte	.LFE15
 15463 1dbd 0200     		.2byte	0x2
 15464 1dbf 7D       		.byte	0x7d
 15465 1dc0 10       		.sleb128 16
 15466 1dc1 00000000 		.4byte	0
 15467 1dc5 00000000 		.4byte	0
 15468              	.LLST123:
 15469 1dc9 00000000 		.4byte	.LVL356
 15470 1dcd 09000000 		.4byte	.LVL357-1
 15471 1dd1 0100     		.2byte	0x1
 15472 1dd3 50       		.byte	0x50
 15473 1dd4 09000000 		.4byte	.LVL357-1
 15474 1dd8 12000000 		.4byte	.LVL359
 15475 1ddc 0100     		.2byte	0x1
 15476 1dde 54       		.byte	0x54
 15477 1ddf 12000000 		.4byte	.LVL359
 15478 1de3 15000000 		.4byte	.LVL360-1
 15479 1de7 0100     		.2byte	0x1
 15480 1de9 50       		.byte	0x50
 15481 1dea 15000000 		.4byte	.LVL360-1
 15482 1dee 2E000000 		.4byte	.LVL364
 15483 1df2 0100     		.2byte	0x1
 15484 1df4 54       		.byte	0x54
 15485 1df5 2E000000 		.4byte	.LVL364
 15486 1df9 3C000000 		.4byte	.LVL367
 15487 1dfd 0100     		.2byte	0x1
 15488 1dff 50       		.byte	0x50
 15489 1e00 3C000000 		.4byte	.LVL367
 15490 1e04 78000000 		.4byte	.LFE15
 15491 1e08 0100     		.2byte	0x1
 15492 1e0a 54       		.byte	0x54
 15493 1e0b 00000000 		.4byte	0
 15494 1e0f 00000000 		.4byte	0
 15495              	.LLST124:
 15496 1e13 0A000000 		.4byte	.LVL357
 15497 1e17 0E000000 		.4byte	.LVL358
 15498 1e1b 0100     		.2byte	0x1
 15499 1e1d 50       		.byte	0x50
 15500 1e1e 16000000 		.4byte	.LVL360
 15501 1e22 20000000 		.4byte	.LVL361
 15502 1e26 0100     		.2byte	0x1
 15503 1e28 50       		.byte	0x50
 15504 1e29 24000000 		.4byte	.LVL362
 15505 1e2d 2A000000 		.4byte	.LVL363
 15506 1e31 0100     		.2byte	0x1
 15507 1e33 50       		.byte	0x50
 15508 1e34 3A000000 		.4byte	.LVL366
 15509 1e38 78000000 		.4byte	.LFE15
 15510 1e3c 0200     		.2byte	0x2
 15511 1e3e 30       		.byte	0x30
 15512 1e3f 9F       		.byte	0x9f
 15513 1e40 00000000 		.4byte	0
 15514 1e44 00000000 		.4byte	0
 15515              	.LLST125:
 15516 1e48 12000000 		.4byte	.LVL359
ARM GAS  /var/folders/dt/0wfd0knj7gs46m8vwfzktm600000gn/T//cczoWvr4.s 			page 274


 15517 1e4c 15000000 		.4byte	.LVL360-1
 15518 1e50 0300     		.2byte	0x3
 15519 1e52 70       		.byte	0x70
 15520 1e53 14       		.sleb128 20
 15521 1e54 06       		.byte	0x6
 15522 1e55 32000000 		.4byte	.LVL365
 15523 1e59 3C000000 		.4byte	.LVL367
 15524 1e5d 0300     		.2byte	0x3
 15525 1e5f 70       		.byte	0x70
 15526 1e60 14       		.sleb128 20
 15527 1e61 06       		.byte	0x6
 15528 1e62 3C000000 		.4byte	.LVL367
 15529 1e66 41000000 		.4byte	.LVL368-1
 15530 1e6a 0300     		.2byte	0x3
 15531 1e6c 74       		.byte	0x74
 15532 1e6d 14       		.sleb128 20
 15533 1e6e 06       		.byte	0x6
 15534 1e6f 00000000 		.4byte	0
 15535 1e73 00000000 		.4byte	0
 15536              	.LLST126:
 15537 1e77 3A000000 		.4byte	.LVL366
 15538 1e7b 3C000000 		.4byte	.LVL367
 15539 1e7f 0100     		.2byte	0x1
 15540 1e81 50       		.byte	0x50
 15541 1e82 3C000000 		.4byte	.LVL367
 15542 1e86 78000000 		.4byte	.LFE15
 15543 1e8a 0100     		.2byte	0x1
 15544 1e8c 54       		.byte	0x54
 15545 1e8d 00000000 		.4byte	0
 15546 1e91 00000000 		.4byte	0
 15547              	.LLST127:
 15548 1e95 42000000 		.4byte	.LVL368
 15549 1e99 50000000 		.4byte	.LVL370
 15550 1e9d 0100     		.2byte	0x1
 15551 1e9f 50       		.byte	0x50
 15552 1ea0 00000000 		.4byte	0
 15553 1ea4 00000000 		.4byte	0
 15554              	.LLST128:
 15555 1ea8 4A000000 		.4byte	.LVL369
 15556 1eac 62000000 		.4byte	.LVL375
 15557 1eb0 0100     		.2byte	0x1
 15558 1eb2 51       		.byte	0x51
 15559 1eb3 62000000 		.4byte	.LVL375
 15560 1eb7 78000000 		.4byte	.LFE15
 15561 1ebb 0200     		.2byte	0x2
 15562 1ebd 74       		.byte	0x74
 15563 1ebe 14       		.sleb128 20
 15564 1ebf 00000000 		.4byte	0
 15565 1ec3 00000000 		.4byte	0
 15566              	.LLST129:
 15567 1ec7 4A000000 		.4byte	.LVL369
 15568 1ecb 52000000 		.4byte	.LVL371
 15569 1ecf 0200     		.2byte	0x2
 15570 1ed1 4F       		.byte	0x4f
 15571 1ed2 9F       		.byte	0x9f
 15572 1ed3 00000000 		.4byte	0
 15573 1ed7 00000000 		.4byte	0
ARM GAS  /var/folders/dt/0wfd0knj7gs46m8vwfzktm600000gn/T//cczoWvr4.s 			page 275


 15574              	.LLST131:
 15575 1edb 4A000000 		.4byte	.LVL369
 15576 1edf 52000000 		.4byte	.LVL371
 15577 1ee3 0100     		.2byte	0x1
 15578 1ee5 51       		.byte	0x51
 15579 1ee6 52000000 		.4byte	.LVL371
 15580 1eea 5C000000 		.4byte	.LVL374
 15581 1eee 0100     		.2byte	0x1
 15582 1ef0 53       		.byte	0x53
 15583 1ef1 00000000 		.4byte	0
 15584 1ef5 00000000 		.4byte	0
 15585              	.LLST132:
 15586 1ef9 5A000000 		.4byte	.LVL373
 15587 1efd 62000000 		.4byte	.LVL375
 15588 1f01 0200     		.2byte	0x2
 15589 1f03 3A       		.byte	0x3a
 15590 1f04 9F       		.byte	0x9f
 15591 1f05 00000000 		.4byte	0
 15592 1f09 00000000 		.4byte	0
 15593              	.LLST133:
 15594 1f0d 5A000000 		.4byte	.LVL373
 15595 1f11 62000000 		.4byte	.LVL375
 15596 1f15 0100     		.2byte	0x1
 15597 1f17 51       		.byte	0x51
 15598 1f18 62000000 		.4byte	.LVL375
 15599 1f1c 78000000 		.4byte	.LFE15
 15600 1f20 0200     		.2byte	0x2
 15601 1f22 74       		.byte	0x74
 15602 1f23 14       		.sleb128 20
 15603 1f24 00000000 		.4byte	0
 15604 1f28 00000000 		.4byte	0
 15605              	.LLST134:
 15606 1f2c 5A000000 		.4byte	.LVL373
 15607 1f30 62000000 		.4byte	.LVL375
 15608 1f34 0200     		.2byte	0x2
 15609 1f36 74       		.byte	0x74
 15610 1f37 18       		.sleb128 24
 15611 1f38 00000000 		.4byte	0
 15612 1f3c 00000000 		.4byte	0
 15613              	.LLST135:
 15614 1f40 5A000000 		.4byte	.LVL373
 15615 1f44 72000000 		.4byte	.LVL377
 15616 1f48 0100     		.2byte	0x1
 15617 1f4a 51       		.byte	0x51
 15618 1f4b 00000000 		.4byte	0
 15619 1f4f 00000000 		.4byte	0
 15620              	.LLST136:
 15621 1f53 00000000 		.4byte	.LFB14
 15622 1f57 02000000 		.4byte	.LCFI16
 15623 1f5b 0200     		.2byte	0x2
 15624 1f5d 7D       		.byte	0x7d
 15625 1f5e 00       		.sleb128 0
 15626 1f5f 02000000 		.4byte	.LCFI16
 15627 1f63 56000000 		.4byte	.LFE14
 15628 1f67 0200     		.2byte	0x2
 15629 1f69 7D       		.byte	0x7d
 15630 1f6a 10       		.sleb128 16
ARM GAS  /var/folders/dt/0wfd0knj7gs46m8vwfzktm600000gn/T//cczoWvr4.s 			page 276


 15631 1f6b 00000000 		.4byte	0
 15632 1f6f 00000000 		.4byte	0
 15633              	.LLST137:
 15634 1f73 00000000 		.4byte	.LVL378
 15635 1f77 08000000 		.4byte	.LVL379
 15636 1f7b 0100     		.2byte	0x1
 15637 1f7d 50       		.byte	0x50
 15638 1f7e 08000000 		.4byte	.LVL379
 15639 1f82 16000000 		.4byte	.LVL382
 15640 1f86 0100     		.2byte	0x1
 15641 1f88 54       		.byte	0x54
 15642 1f89 16000000 		.4byte	.LVL382
 15643 1f8d 31000000 		.4byte	.LVL385-1
 15644 1f91 0100     		.2byte	0x1
 15645 1f93 50       		.byte	0x50
 15646 1f94 31000000 		.4byte	.LVL385-1
 15647 1f98 44000000 		.4byte	.LVL390
 15648 1f9c 0100     		.2byte	0x1
 15649 1f9e 54       		.byte	0x54
 15650 1f9f 44000000 		.4byte	.LVL390
 15651 1fa3 46000000 		.4byte	.LVL391
 15652 1fa7 0100     		.2byte	0x1
 15653 1fa9 50       		.byte	0x50
 15654 1faa 46000000 		.4byte	.LVL391
 15655 1fae 56000000 		.4byte	.LFE14
 15656 1fb2 0100     		.2byte	0x1
 15657 1fb4 54       		.byte	0x54
 15658 1fb5 00000000 		.4byte	0
 15659 1fb9 00000000 		.4byte	0
 15660              	.LLST138:
 15661 1fbd 00000000 		.4byte	.LVL378
 15662 1fc1 08000000 		.4byte	.LVL379
 15663 1fc5 0200     		.2byte	0x2
 15664 1fc7 34       		.byte	0x34
 15665 1fc8 9F       		.byte	0x9f
 15666 1fc9 0E000000 		.4byte	.LVL380
 15667 1fcd 14000000 		.4byte	.LVL381
 15668 1fd1 0100     		.2byte	0x1
 15669 1fd3 50       		.byte	0x50
 15670 1fd4 34000000 		.4byte	.LVL386
 15671 1fd8 36000000 		.4byte	.LVL387
 15672 1fdc 0100     		.2byte	0x1
 15673 1fde 50       		.byte	0x50
 15674 1fdf 3E000000 		.4byte	.LVL388
 15675 1fe3 40000000 		.4byte	.LVL389
 15676 1fe7 0100     		.2byte	0x1
 15677 1fe9 55       		.byte	0x55
 15678 1fea 4E000000 		.4byte	.LVL392
 15679 1fee 52000000 		.4byte	.LVL393
 15680 1ff2 0100     		.2byte	0x1
 15681 1ff4 50       		.byte	0x50
 15682 1ff5 52000000 		.4byte	.LVL393
 15683 1ff9 56000000 		.4byte	.LFE14
 15684 1ffd 0100     		.2byte	0x1
 15685 1fff 55       		.byte	0x55
 15686 2000 00000000 		.4byte	0
 15687 2004 00000000 		.4byte	0
ARM GAS  /var/folders/dt/0wfd0knj7gs46m8vwfzktm600000gn/T//cczoWvr4.s 			page 277


 15688              	.LLST139:
 15689 2008 1A000000 		.4byte	.LVL384
 15690 200c 31000000 		.4byte	.LVL385-1
 15691 2010 0200     		.2byte	0x2
 15692 2012 72       		.byte	0x72
 15693 2013 00       		.sleb128 0
 15694 2014 44000000 		.4byte	.LVL390
 15695 2018 46000000 		.4byte	.LVL391
 15696 201c 0200     		.2byte	0x2
 15697 201e 72       		.byte	0x72
 15698 201f 00       		.sleb128 0
 15699 2020 00000000 		.4byte	0
 15700 2024 00000000 		.4byte	0
 15701              	.LLST140:
 15702 2028 18000000 		.4byte	.LVL383
 15703 202c 31000000 		.4byte	.LVL385-1
 15704 2030 0100     		.2byte	0x1
 15705 2032 52       		.byte	0x52
 15706 2033 44000000 		.4byte	.LVL390
 15707 2037 46000000 		.4byte	.LVL391
 15708 203b 0100     		.2byte	0x1
 15709 203d 52       		.byte	0x52
 15710 203e 00000000 		.4byte	0
 15711 2042 00000000 		.4byte	0
 15712              	.LLST141:
 15713 2046 00000000 		.4byte	.LFB9
 15714 204a 04000000 		.4byte	.LCFI17
 15715 204e 0200     		.2byte	0x2
 15716 2050 7D       		.byte	0x7d
 15717 2051 00       		.sleb128 0
 15718 2052 04000000 		.4byte	.LCFI17
 15719 2056 54000000 		.4byte	.LFE9
 15720 205a 0200     		.2byte	0x2
 15721 205c 7D       		.byte	0x7d
 15722 205d 10       		.sleb128 16
 15723 205e 00000000 		.4byte	0
 15724 2062 00000000 		.4byte	0
 15725              	.LLST142:
 15726 2066 00000000 		.4byte	.LVL394
 15727 206a 12000000 		.4byte	.LVL396
 15728 206e 0100     		.2byte	0x1
 15729 2070 50       		.byte	0x50
 15730 2071 12000000 		.4byte	.LVL396
 15731 2075 14000000 		.4byte	.LVL397
 15732 2079 0100     		.2byte	0x1
 15733 207b 54       		.byte	0x54
 15734 207c 14000000 		.4byte	.LVL397
 15735 2080 16000000 		.4byte	.LVL398
 15736 2084 0100     		.2byte	0x1
 15737 2086 50       		.byte	0x50
 15738 2087 16000000 		.4byte	.LVL398
 15739 208b 2A000000 		.4byte	.LVL401
 15740 208f 0100     		.2byte	0x1
 15741 2091 54       		.byte	0x54
 15742 2092 2A000000 		.4byte	.LVL401
 15743 2096 35000000 		.4byte	.LVL403-1
 15744 209a 0100     		.2byte	0x1
ARM GAS  /var/folders/dt/0wfd0knj7gs46m8vwfzktm600000gn/T//cczoWvr4.s 			page 278


 15745 209c 50       		.byte	0x50
 15746 209d 35000000 		.4byte	.LVL403-1
 15747 20a1 50000000 		.4byte	.LVL405
 15748 20a5 0100     		.2byte	0x1
 15749 20a7 54       		.byte	0x54
 15750 20a8 50000000 		.4byte	.LVL405
 15751 20ac 52000000 		.4byte	.LVL406
 15752 20b0 0100     		.2byte	0x1
 15753 20b2 50       		.byte	0x50
 15754 20b3 52000000 		.4byte	.LVL406
 15755 20b7 54000000 		.4byte	.LFE9
 15756 20bb 0100     		.2byte	0x1
 15757 20bd 54       		.byte	0x54
 15758 20be 00000000 		.4byte	0
 15759 20c2 00000000 		.4byte	0
 15760              	.LLST143:
 15761 20c6 00000000 		.4byte	.LVL394
 15762 20ca 10000000 		.4byte	.LVL395
 15763 20ce 0100     		.2byte	0x1
 15764 20d0 51       		.byte	0x51
 15765 20d1 10000000 		.4byte	.LVL395
 15766 20d5 14000000 		.4byte	.LVL397
 15767 20d9 0400     		.2byte	0x4
 15768 20db F3       		.byte	0xf3
 15769 20dc 01       		.uleb128 0x1
 15770 20dd 51       		.byte	0x51
 15771 20de 9F       		.byte	0x9f
 15772 20df 14000000 		.4byte	.LVL397
 15773 20e3 16000000 		.4byte	.LVL398
 15774 20e7 0100     		.2byte	0x1
 15775 20e9 51       		.byte	0x51
 15776 20ea 16000000 		.4byte	.LVL398
 15777 20ee 54000000 		.4byte	.LFE9
 15778 20f2 0400     		.2byte	0x4
 15779 20f4 F3       		.byte	0xf3
 15780 20f5 01       		.uleb128 0x1
 15781 20f6 51       		.byte	0x51
 15782 20f7 9F       		.byte	0x9f
 15783 20f8 00000000 		.4byte	0
 15784 20fc 00000000 		.4byte	0
 15785              	.LLST144:
 15786 2100 12000000 		.4byte	.LVL396
 15787 2104 14000000 		.4byte	.LVL397
 15788 2108 0100     		.2byte	0x1
 15789 210a 50       		.byte	0x50
 15790 210b 00000000 		.4byte	0
 15791 210f 00000000 		.4byte	0
 15792              	.LLST145:
 15793 2113 36000000 		.4byte	.LVL403
 15794 2117 4C000000 		.4byte	.LVL404
 15795 211b 0200     		.2byte	0x2
 15796 211d 30       		.byte	0x30
 15797 211e 9F       		.byte	0x9f
 15798 211f 52000000 		.4byte	.LVL406
 15799 2123 54000000 		.4byte	.LFE9
 15800 2127 0200     		.2byte	0x2
 15801 2129 31       		.byte	0x31
ARM GAS  /var/folders/dt/0wfd0knj7gs46m8vwfzktm600000gn/T//cczoWvr4.s 			page 279


 15802 212a 9F       		.byte	0x9f
 15803 212b 00000000 		.4byte	0
 15804 212f 00000000 		.4byte	0
 15805              	.LLST146:
 15806 2133 1E000000 		.4byte	.LVL399
 15807 2137 28000000 		.4byte	.LVL400
 15808 213b 0100     		.2byte	0x1
 15809 213d 50       		.byte	0x50
 15810 213e 28000000 		.4byte	.LVL400
 15811 2142 30000000 		.4byte	.LVL402
 15812 2146 0100     		.2byte	0x1
 15813 2148 53       		.byte	0x53
 15814 2149 30000000 		.4byte	.LVL402
 15815 214d 54000000 		.4byte	.LFE9
 15816 2151 0100     		.2byte	0x1
 15817 2153 55       		.byte	0x55
 15818 2154 00000000 		.4byte	0
 15819 2158 00000000 		.4byte	0
 15820              	.LLST147:
 15821 215c 00000000 		.4byte	.LVL407
 15822 2160 04000000 		.4byte	.LVL408
 15823 2164 0100     		.2byte	0x1
 15824 2166 50       		.byte	0x50
 15825 2167 04000000 		.4byte	.LVL408
 15826 216b 06000000 		.4byte	.LVL409
 15827 216f 0400     		.2byte	0x4
 15828 2171 F3       		.byte	0xf3
 15829 2172 01       		.uleb128 0x1
 15830 2173 50       		.byte	0x50
 15831 2174 9F       		.byte	0x9f
 15832 2175 06000000 		.4byte	.LVL409
 15833 2179 18000000 		.4byte	.LVL412
 15834 217d 0100     		.2byte	0x1
 15835 217f 50       		.byte	0x50
 15836 2180 18000000 		.4byte	.LVL412
 15837 2184 20000000 		.4byte	.LFE23
 15838 2188 0400     		.2byte	0x4
 15839 218a F3       		.byte	0xf3
 15840 218b 01       		.uleb128 0x1
 15841 218c 50       		.byte	0x50
 15842 218d 9F       		.byte	0x9f
 15843 218e 00000000 		.4byte	0
 15844 2192 00000000 		.4byte	0
 15845              	.LLST148:
 15846 2196 0A000000 		.4byte	.LVL410
 15847 219a 12000000 		.4byte	.LVL411
 15848 219e 0100     		.2byte	0x1
 15849 21a0 52       		.byte	0x52
 15850 21a1 12000000 		.4byte	.LVL411
 15851 21a5 20000000 		.4byte	.LFE23
 15852 21a9 0500     		.2byte	0x5
 15853 21ab 03       		.byte	0x3
 15854 21ac 00000000 		.4byte	FatFs
 15855 21b0 00000000 		.4byte	0
 15856 21b4 00000000 		.4byte	0
 15857              	.LLST149:
 15858 21b8 00000000 		.4byte	.LFB24
ARM GAS  /var/folders/dt/0wfd0knj7gs46m8vwfzktm600000gn/T//cczoWvr4.s 			page 280


 15859 21bc 04000000 		.4byte	.LCFI18
 15860 21c0 0200     		.2byte	0x2
 15861 21c2 7D       		.byte	0x7d
 15862 21c3 00       		.sleb128 0
 15863 21c4 04000000 		.4byte	.LCFI18
 15864 21c8 06000000 		.4byte	.LCFI19
 15865 21cc 0200     		.2byte	0x2
 15866 21ce 7D       		.byte	0x7d
 15867 21cf 24       		.sleb128 36
 15868 21d0 06000000 		.4byte	.LCFI19
 15869 21d4 76010000 		.4byte	.LFE24
 15870 21d8 0300     		.2byte	0x3
 15871 21da 7D       		.byte	0x7d
 15872 21db D800     		.sleb128 88
 15873 21dd 00000000 		.4byte	0
 15874 21e1 00000000 		.4byte	0
 15875              	.LLST150:
 15876 21e5 00000000 		.4byte	.LVL413
 15877 21e9 18000000 		.4byte	.LVL416
 15878 21ed 0100     		.2byte	0x1
 15879 21ef 50       		.byte	0x50
 15880 21f0 18000000 		.4byte	.LVL416
 15881 21f4 76010000 		.4byte	.LFE24
 15882 21f8 0100     		.2byte	0x1
 15883 21fa 55       		.byte	0x55
 15884 21fb 00000000 		.4byte	0
 15885 21ff 00000000 		.4byte	0
 15886              	.LLST151:
 15887 2203 00000000 		.4byte	.LVL413
 15888 2207 16000000 		.4byte	.LVL415
 15889 220b 0100     		.2byte	0x1
 15890 220d 51       		.byte	0x51
 15891 220e 16000000 		.4byte	.LVL415
 15892 2212 76010000 		.4byte	.LFE24
 15893 2216 0200     		.2byte	0x2
 15894 2218 73       		.byte	0x73
 15895 2219 54       		.sleb128 -44
 15896 221a 00000000 		.4byte	0
 15897 221e 00000000 		.4byte	0
 15898              	.LLST152:
 15899 2222 00000000 		.4byte	.LVL413
 15900 2226 10000000 		.4byte	.LVL414
 15901 222a 0100     		.2byte	0x1
 15902 222c 52       		.byte	0x52
 15903 222d 10000000 		.4byte	.LVL414
 15904 2231 26000000 		.4byte	.LVL418
 15905 2235 0400     		.2byte	0x4
 15906 2237 F3       		.byte	0xf3
 15907 2238 01       		.uleb128 0x1
 15908 2239 52       		.byte	0x52
 15909 223a 9F       		.byte	0x9f
 15910 223b 26000000 		.4byte	.LVL418
 15911 223f 36000000 		.4byte	.LVL420
 15912 2243 0100     		.2byte	0x1
 15913 2245 57       		.byte	0x57
 15914 2246 3C000000 		.4byte	.LVL421
 15915 224a 68000000 		.4byte	.LVL426
ARM GAS  /var/folders/dt/0wfd0knj7gs46m8vwfzktm600000gn/T//cczoWvr4.s 			page 281


 15916 224e 0100     		.2byte	0x1
 15917 2250 57       		.byte	0x57
 15918 2251 74000000 		.4byte	.LVL427
 15919 2255 D8000000 		.4byte	.LVL430
 15920 2259 0100     		.2byte	0x1
 15921 225b 57       		.byte	0x57
 15922 225c DC000000 		.4byte	.LVL431
 15923 2260 E4000000 		.4byte	.LVL433
 15924 2264 0100     		.2byte	0x1
 15925 2266 57       		.byte	0x57
 15926 2267 E6000000 		.4byte	.LVL434
 15927 226b EA000000 		.4byte	.LVL436
 15928 226f 0100     		.2byte	0x1
 15929 2271 57       		.byte	0x57
 15930 2272 5A010000 		.4byte	.LVL445
 15931 2276 76010000 		.4byte	.LFE24
 15932 227a 0100     		.2byte	0x1
 15933 227c 57       		.byte	0x57
 15934 227d 00000000 		.4byte	0
 15935 2281 00000000 		.4byte	0
 15936              	.LLST153:
 15937 2285 26000000 		.4byte	.LVL418
 15938 2289 36000000 		.4byte	.LVL420
 15939 228d 0100     		.2byte	0x1
 15940 228f 50       		.byte	0x50
 15941 2290 3C000000 		.4byte	.LVL421
 15942 2294 3E000000 		.4byte	.LVL422
 15943 2298 0100     		.2byte	0x1
 15944 229a 50       		.byte	0x50
 15945 229b 44000000 		.4byte	.LVL423
 15946 229f 4E000000 		.4byte	.LVL425
 15947 22a3 0100     		.2byte	0x1
 15948 22a5 50       		.byte	0x50
 15949 22a6 4E000000 		.4byte	.LVL425
 15950 22aa 68000000 		.4byte	.LVL426
 15951 22ae 0200     		.2byte	0x2
 15952 22b0 30       		.byte	0x30
 15953 22b1 9F       		.byte	0x9f
 15954 22b2 B6000000 		.4byte	.LVL429
 15955 22b6 D8000000 		.4byte	.LVL430
 15956 22ba 0200     		.2byte	0x2
 15957 22bc 30       		.byte	0x30
 15958 22bd 9F       		.byte	0x9f
 15959 22be DE000000 		.4byte	.LVL432
 15960 22c2 E4000000 		.4byte	.LVL433
 15961 22c6 0200     		.2byte	0x2
 15962 22c8 30       		.byte	0x30
 15963 22c9 9F       		.byte	0x9f
 15964 22ca E4000000 		.4byte	.LVL433
 15965 22ce E6000000 		.4byte	.LVL434
 15966 22d2 0200     		.2byte	0x2
 15967 22d4 37       		.byte	0x37
 15968 22d5 9F       		.byte	0x9f
 15969 22d6 E6000000 		.4byte	.LVL434
 15970 22da E8000000 		.4byte	.LVL435
 15971 22de 0100     		.2byte	0x1
 15972 22e0 50       		.byte	0x50
ARM GAS  /var/folders/dt/0wfd0knj7gs46m8vwfzktm600000gn/T//cczoWvr4.s 			page 282


 15973 22e1 48010000 		.4byte	.LVL442
 15974 22e5 50010000 		.4byte	.LVL443
 15975 22e9 0100     		.2byte	0x1
 15976 22eb 50       		.byte	0x50
 15977 22ec 5A010000 		.4byte	.LVL445
 15978 22f0 64010000 		.4byte	.LVL447
 15979 22f4 0100     		.2byte	0x1
 15980 22f6 50       		.byte	0x50
 15981 22f7 68010000 		.4byte	.LVL448
 15982 22fb 76010000 		.4byte	.LFE24
 15983 22ff 0100     		.2byte	0x1
 15984 2301 50       		.byte	0x50
 15985 2302 00000000 		.4byte	0
 15986 2306 00000000 		.4byte	0
 15987              	.LLST154:
 15988 230a 46000000 		.4byte	.LVL424
 15989 230e 9C000000 		.4byte	.LVL428
 15990 2312 0100     		.2byte	0x1
 15991 2314 54       		.byte	0x54
 15992 2315 9C000000 		.4byte	.LVL428
 15993 2319 B6000000 		.4byte	.LVL429
 15994 231d 0200     		.2byte	0x2
 15995 231f 75       		.byte	0x75
 15996 2320 20       		.sleb128 32
 15997 2321 B6000000 		.4byte	.LVL429
 15998 2325 E4000000 		.4byte	.LVL433
 15999 2329 0100     		.2byte	0x1
 16000 232b 54       		.byte	0x54
 16001 232c E6000000 		.4byte	.LVL434
 16002 2330 62010000 		.4byte	.LVL446
 16003 2334 0100     		.2byte	0x1
 16004 2336 54       		.byte	0x54
 16005 2337 6E010000 		.4byte	.LVL450
 16006 233b 76010000 		.4byte	.LFE24
 16007 233f 0100     		.2byte	0x1
 16008 2341 54       		.byte	0x54
 16009 2342 00000000 		.4byte	0
 16010 2346 00000000 		.4byte	0
 16011              	.LLST155:
 16012 234a EE000000 		.4byte	.LVL437
 16013 234e 3E010000 		.4byte	.LVL440
 16014 2352 0100     		.2byte	0x1
 16015 2354 50       		.byte	0x50
 16016 2355 44010000 		.4byte	.LVL441
 16017 2359 62010000 		.4byte	.LVL446
 16018 235d 0100     		.2byte	0x1
 16019 235f 58       		.byte	0x58
 16020 2360 00000000 		.4byte	0
 16021 2364 00000000 		.4byte	0
 16022              	.LLST156:
 16023 2368 06010000 		.4byte	.LVL438
 16024 236c 2A010000 		.4byte	.LVL439
 16025 2370 0800     		.2byte	0x8
 16026 2372 76       		.byte	0x76
 16027 2373 00       		.sleb128 0
 16028 2374 40       		.byte	0x40
 16029 2375 24       		.byte	0x24
ARM GAS  /var/folders/dt/0wfd0knj7gs46m8vwfzktm600000gn/T//cczoWvr4.s 			page 283


 16030 2376 71       		.byte	0x71
 16031 2377 00       		.sleb128 0
 16032 2378 21       		.byte	0x21
 16033 2379 9F       		.byte	0x9f
 16034 237a 2A010000 		.4byte	.LVL439
 16035 237e 52010000 		.4byte	.LVL444
 16036 2382 0100     		.2byte	0x1
 16037 2384 56       		.byte	0x56
 16038 2385 52010000 		.4byte	.LVL444
 16039 2389 62010000 		.4byte	.LVL446
 16040 238d 0300     		.2byte	0x3
 16041 238f 76       		.byte	0x76
 16042 2390 01       		.sleb128 1
 16043 2391 9F       		.byte	0x9f
 16044 2392 00000000 		.4byte	0
 16045 2396 00000000 		.4byte	0
 16046              	.LLST157:
 16047 239a 00000000 		.4byte	.LFB25
 16048 239e 04000000 		.4byte	.LCFI20
 16049 23a2 0200     		.2byte	0x2
 16050 23a4 7D       		.byte	0x7d
 16051 23a5 00       		.sleb128 0
 16052 23a6 04000000 		.4byte	.LCFI20
 16053 23aa 0C000000 		.4byte	.LCFI21
 16054 23ae 0200     		.2byte	0x2
 16055 23b0 7D       		.byte	0x7d
 16056 23b1 24       		.sleb128 36
 16057 23b2 0C000000 		.4byte	.LCFI21
 16058 23b6 9A010000 		.4byte	.LFE25
 16059 23ba 0200     		.2byte	0x2
 16060 23bc 7D       		.byte	0x7d
 16061 23bd 30       		.sleb128 48
 16062 23be 00000000 		.4byte	0
 16063 23c2 00000000 		.4byte	0
 16064              	.LLST158:
 16065 23c6 00000000 		.4byte	.LVL451
 16066 23ca 14000000 		.4byte	.LVL454
 16067 23ce 0100     		.2byte	0x1
 16068 23d0 50       		.byte	0x50
 16069 23d1 14000000 		.4byte	.LVL454
 16070 23d5 9A010000 		.4byte	.LFE25
 16071 23d9 0100     		.2byte	0x1
 16072 23db 57       		.byte	0x57
 16073 23dc 00000000 		.4byte	0
 16074 23e0 00000000 		.4byte	0
 16075              	.LLST159:
 16076 23e4 00000000 		.4byte	.LVL451
 16077 23e8 16000000 		.4byte	.LVL455
 16078 23ec 0100     		.2byte	0x1
 16079 23ee 51       		.byte	0x51
 16080 23ef 16000000 		.4byte	.LVL455
 16081 23f3 36000000 		.4byte	.LVL458
 16082 23f7 0100     		.2byte	0x1
 16083 23f9 54       		.byte	0x54
 16084 23fa 36000000 		.4byte	.LVL458
 16085 23fe 3E000000 		.4byte	.LVL459
 16086 2402 0400     		.2byte	0x4
ARM GAS  /var/folders/dt/0wfd0knj7gs46m8vwfzktm600000gn/T//cczoWvr4.s 			page 284


 16087 2404 F3       		.byte	0xf3
 16088 2405 01       		.uleb128 0x1
 16089 2406 51       		.byte	0x51
 16090 2407 9F       		.byte	0x9f
 16091 2408 3E000000 		.4byte	.LVL459
 16092 240c 56000000 		.4byte	.LVL463
 16093 2410 0100     		.2byte	0x1
 16094 2412 54       		.byte	0x54
 16095 2413 56000000 		.4byte	.LVL463
 16096 2417 9A010000 		.4byte	.LFE25
 16097 241b 0400     		.2byte	0x4
 16098 241d F3       		.byte	0xf3
 16099 241e 01       		.uleb128 0x1
 16100 241f 51       		.byte	0x51
 16101 2420 9F       		.byte	0x9f
 16102 2421 00000000 		.4byte	0
 16103 2425 00000000 		.4byte	0
 16104              	.LLST160:
 16105 2429 00000000 		.4byte	.LVL451
 16106 242d 1B000000 		.4byte	.LVL456-1
 16107 2431 0100     		.2byte	0x1
 16108 2433 52       		.byte	0x52
 16109 2434 1B000000 		.4byte	.LVL456-1
 16110 2438 36000000 		.4byte	.LVL458
 16111 243c 0100     		.2byte	0x1
 16112 243e 55       		.byte	0x55
 16113 243f 3E000000 		.4byte	.LVL459
 16114 2443 4C000000 		.4byte	.LVL462
 16115 2447 0100     		.2byte	0x1
 16116 2449 55       		.byte	0x55
 16117 244a 4C000000 		.4byte	.LVL462
 16118 244e 56000000 		.4byte	.LVL463
 16119 2452 0100     		.2byte	0x1
 16120 2454 58       		.byte	0x58
 16121 2455 00000000 		.4byte	0
 16122 2459 00000000 		.4byte	0
 16123              	.LLST161:
 16124 245d 00000000 		.4byte	.LVL451
 16125 2461 0A000000 		.4byte	.LVL452
 16126 2465 0100     		.2byte	0x1
 16127 2467 53       		.byte	0x53
 16128 2468 0A000000 		.4byte	.LVL452
 16129 246c 9A010000 		.4byte	.LFE25
 16130 2470 0100     		.2byte	0x1
 16131 2472 5B       		.byte	0x5b
 16132 2473 00000000 		.4byte	0
 16133 2477 00000000 		.4byte	0
 16134              	.LLST162:
 16135 247b 1C000000 		.4byte	.LVL456
 16136 247f 2E000000 		.4byte	.LVL457
 16137 2483 0100     		.2byte	0x1
 16138 2485 50       		.byte	0x50
 16139 2486 00000000 		.4byte	0
 16140 248a 00000000 		.4byte	0
 16141              	.LLST163:
 16142 248e 0A010000 		.4byte	.LVL486
 16143 2492 1A010000 		.4byte	.LVL488
ARM GAS  /var/folders/dt/0wfd0knj7gs46m8vwfzktm600000gn/T//cczoWvr4.s 			page 285


 16144 2496 0100     		.2byte	0x1
 16145 2498 50       		.byte	0x50
 16146 2499 1A010000 		.4byte	.LVL488
 16147 249d 20010000 		.4byte	.LVL489
 16148 24a1 0200     		.2byte	0x2
 16149 24a3 77       		.byte	0x77
 16150 24a4 14       		.sleb128 20
 16151 24a5 96010000 		.4byte	.LVL504
 16152 24a9 9A010000 		.4byte	.LFE25
 16153 24ad 0100     		.2byte	0x1
 16154 24af 50       		.byte	0x50
 16155 24b0 00000000 		.4byte	0
 16156 24b4 00000000 		.4byte	0
 16157              	.LLST164:
 16158 24b8 88000000 		.4byte	.LVL469
 16159 24bc C6000000 		.4byte	.LVL475
 16160 24c0 0100     		.2byte	0x1
 16161 24c2 55       		.byte	0x55
 16162 24c3 C6000000 		.4byte	.LVL475
 16163 24c7 C8000000 		.4byte	.LVL476
 16164 24cb 0200     		.2byte	0x2
 16165 24cd 77       		.byte	0x77
 16166 24ce 18       		.sleb128 24
 16167 24cf 32010000 		.4byte	.LVL490
 16168 24d3 5A010000 		.4byte	.LVL495
 16169 24d7 0100     		.2byte	0x1
 16170 24d9 55       		.byte	0x55
 16171 24da 00000000 		.4byte	0
 16172 24de 00000000 		.4byte	0
 16173              	.LLST165:
 16174 24e2 40000000 		.4byte	.LVL460
 16175 24e6 44000000 		.4byte	.LVL461
 16176 24ea 0700     		.2byte	0x7
 16177 24ec 77       		.byte	0x77
 16178 24ed 0C       		.sleb128 12
 16179 24ee 06       		.byte	0x6
 16180 24ef 76       		.byte	0x76
 16181 24f0 00       		.sleb128 0
 16182 24f1 1C       		.byte	0x1c
 16183 24f2 9F       		.byte	0x9f
 16184 24f3 44000000 		.4byte	.LVL461
 16185 24f7 56000000 		.4byte	.LVL463
 16186 24fb 0100     		.2byte	0x1
 16187 24fd 53       		.byte	0x53
 16188 24fe 00000000 		.4byte	0
 16189 2502 00000000 		.4byte	0
 16190              	.LLST166:
 16191 2506 CC000000 		.4byte	.LVL477
 16192 250a 04010000 		.4byte	.LVL485
 16193 250e 0100     		.2byte	0x1
 16194 2510 52       		.byte	0x52
 16195 2511 78010000 		.4byte	.LVL500
 16196 2515 7E010000 		.4byte	.LVL502
 16197 2519 0100     		.2byte	0x1
 16198 251b 52       		.byte	0x52
 16199 251c 00000000 		.4byte	0
 16200 2520 00000000 		.4byte	0
ARM GAS  /var/folders/dt/0wfd0knj7gs46m8vwfzktm600000gn/T//cczoWvr4.s 			page 286


 16201              	.LLST167:
 16202 2524 88000000 		.4byte	.LVL469
 16203 2528 C2000000 		.4byte	.LVL474
 16204 252c 0100     		.2byte	0x1
 16205 252e 56       		.byte	0x56
 16206 252f C2000000 		.4byte	.LVL474
 16207 2533 C8000000 		.4byte	.LVL476
 16208 2537 0500     		.2byte	0x5
 16209 2539 78       		.byte	0x78
 16210 253a 00       		.sleb128 0
 16211 253b 39       		.byte	0x39
 16212 253c 25       		.byte	0x25
 16213 253d 9F       		.byte	0x9f
 16214 253e 32010000 		.4byte	.LVL490
 16215 2542 7C010000 		.4byte	.LVL501
 16216 2546 0100     		.2byte	0x1
 16217 2548 56       		.byte	0x56
 16218 2549 00000000 		.4byte	0
 16219 254d 00000000 		.4byte	0
 16220              	.LLST168:
 16221 2551 68000000 		.4byte	.LVL464
 16222 2555 6C000000 		.4byte	.LVL465
 16223 2559 0100     		.2byte	0x1
 16224 255b 52       		.byte	0x52
 16225 255c 6C000000 		.4byte	.LVL465
 16226 2560 7A000000 		.4byte	.LVL468
 16227 2564 0F00     		.2byte	0xf
 16228 2566 73       		.byte	0x73
 16229 2567 02       		.sleb128 2
 16230 2568 94       		.byte	0x94
 16231 2569 01       		.byte	0x1
 16232 256a 08       		.byte	0x8
 16233 256b FF       		.byte	0xff
 16234 256c 1A       		.byte	0x1a
 16235 256d 31       		.byte	0x31
 16236 256e 1C       		.byte	0x1c
 16237 256f 76       		.byte	0x76
 16238 2570 00       		.sleb128 0
 16239 2571 39       		.byte	0x39
 16240 2572 25       		.byte	0x25
 16241 2573 1A       		.byte	0x1a
 16242 2574 9F       		.byte	0x9f
 16243 2575 04010000 		.4byte	.LVL485
 16244 2579 0A010000 		.4byte	.LVL486
 16245 257d 0F00     		.2byte	0xf
 16246 257f 73       		.byte	0x73
 16247 2580 02       		.sleb128 2
 16248 2581 94       		.byte	0x94
 16249 2582 01       		.byte	0x1
 16250 2583 08       		.byte	0x8
 16251 2584 FF       		.byte	0xff
 16252 2585 1A       		.byte	0x1a
 16253 2586 31       		.byte	0x31
 16254 2587 1C       		.byte	0x1c
 16255 2588 76       		.byte	0x76
 16256 2589 00       		.sleb128 0
 16257 258a 39       		.byte	0x39
ARM GAS  /var/folders/dt/0wfd0knj7gs46m8vwfzktm600000gn/T//cczoWvr4.s 			page 287


 16258 258b 25       		.byte	0x25
 16259 258c 1A       		.byte	0x1a
 16260 258d 9F       		.byte	0x9f
 16261 258e 8C010000 		.4byte	.LVL503
 16262 2592 95010000 		.4byte	.LVL504-1
 16263 2596 0F00     		.2byte	0xf
 16264 2598 73       		.byte	0x73
 16265 2599 02       		.sleb128 2
 16266 259a 94       		.byte	0x94
 16267 259b 01       		.byte	0x1
 16268 259c 08       		.byte	0x8
 16269 259d FF       		.byte	0xff
 16270 259e 1A       		.byte	0x1a
 16271 259f 31       		.byte	0x31
 16272 25a0 1C       		.byte	0x1c
 16273 25a1 76       		.byte	0x76
 16274 25a2 00       		.sleb128 0
 16275 25a3 39       		.byte	0x39
 16276 25a4 25       		.byte	0x25
 16277 25a5 1A       		.byte	0x1a
 16278 25a6 9F       		.byte	0x9f
 16279 25a7 00000000 		.4byte	0
 16280 25ab 00000000 		.4byte	0
 16281              	.LLST169:
 16282 25af 0E000000 		.4byte	.LVL453
 16283 25b3 16000000 		.4byte	.LVL455
 16284 25b7 0100     		.2byte	0x1
 16285 25b9 51       		.byte	0x51
 16286 25ba 16000000 		.4byte	.LVL455
 16287 25be DA000000 		.4byte	.LVL480
 16288 25c2 0100     		.2byte	0x1
 16289 25c4 54       		.byte	0x54
 16290 25c5 DA000000 		.4byte	.LVL480
 16291 25c9 DE000000 		.4byte	.LVL481
 16292 25cd 0100     		.2byte	0x1
 16293 25cf 53       		.byte	0x53
 16294 25d0 FC000000 		.4byte	.LVL484
 16295 25d4 04010000 		.4byte	.LVL485
 16296 25d8 0100     		.2byte	0x1
 16297 25da 53       		.byte	0x53
 16298 25db 04010000 		.4byte	.LVL485
 16299 25df 9A010000 		.4byte	.LFE25
 16300 25e3 0100     		.2byte	0x1
 16301 25e5 54       		.byte	0x54
 16302 25e6 00000000 		.4byte	0
 16303 25ea 00000000 		.4byte	0
 16304              	.LLST170:
 16305 25ee 70000000 		.4byte	.LVL466
 16306 25f2 7A000000 		.4byte	.LVL468
 16307 25f6 0100     		.2byte	0x1
 16308 25f8 50       		.byte	0x50
 16309 25f9 88000000 		.4byte	.LVL469
 16310 25fd 9A000000 		.4byte	.LVL470
 16311 2601 0100     		.2byte	0x1
 16312 2603 50       		.byte	0x50
 16313 2604 16010000 		.4byte	.LVL487
 16314 2608 36010000 		.4byte	.LVL491
ARM GAS  /var/folders/dt/0wfd0knj7gs46m8vwfzktm600000gn/T//cczoWvr4.s 			page 288


 16315 260c 0100     		.2byte	0x1
 16316 260e 50       		.byte	0x50
 16317 260f 00000000 		.4byte	0
 16318 2613 00000000 		.4byte	0
 16319              	.LLST171:
 16320 2617 70000000 		.4byte	.LVL466
 16321 261b 7A000000 		.4byte	.LVL468
 16322 261f 0100     		.2byte	0x1
 16323 2621 53       		.byte	0x53
 16324 2622 88000000 		.4byte	.LVL469
 16325 2626 9E000000 		.4byte	.LVL471
 16326 262a 0100     		.2byte	0x1
 16327 262c 53       		.byte	0x53
 16328 262d 16010000 		.4byte	.LVL487
 16329 2631 44010000 		.4byte	.LVL493
 16330 2635 0100     		.2byte	0x1
 16331 2637 53       		.byte	0x53
 16332 2638 00000000 		.4byte	0
 16333 263c 00000000 		.4byte	0
 16334              	.LLST172:
 16335 2640 D6000000 		.4byte	.LVL479
 16336 2644 DE000000 		.4byte	.LVL481
 16337 2648 0300     		.2byte	0x3
 16338 264a 72       		.byte	0x72
 16339 264b 7F       		.sleb128 -1
 16340 264c 9F       		.byte	0x9f
 16341 264d 00000000 		.4byte	0
 16342 2651 00000000 		.4byte	0
 16343              	.LLST173:
 16344 2655 D6000000 		.4byte	.LVL479
 16345 2659 DA000000 		.4byte	.LVL480
 16346 265d 0100     		.2byte	0x1
 16347 265f 54       		.byte	0x54
 16348 2660 DA000000 		.4byte	.LVL480
 16349 2664 DE000000 		.4byte	.LVL481
 16350 2668 0100     		.2byte	0x1
 16351 266a 53       		.byte	0x53
 16352 266b 00000000 		.4byte	0
 16353 266f 00000000 		.4byte	0
 16354              	.LLST174:
 16355 2673 D6000000 		.4byte	.LVL479
 16356 2677 DA000000 		.4byte	.LVL480
 16357 267b 0100     		.2byte	0x1
 16358 267d 54       		.byte	0x54
 16359 267e DA000000 		.4byte	.LVL480
 16360 2682 DE000000 		.4byte	.LVL481
 16361 2686 0100     		.2byte	0x1
 16362 2688 53       		.byte	0x53
 16363 2689 DE000000 		.4byte	.LVL481
 16364 268d EC000000 		.4byte	.LVL483
 16365 2691 0100     		.2byte	0x1
 16366 2693 54       		.byte	0x54
 16367 2694 00000000 		.4byte	0
 16368 2698 00000000 		.4byte	0
 16369              	.LLST175:
 16370 269c 62010000 		.4byte	.LVL496
 16371 26a0 6A010000 		.4byte	.LVL497
ARM GAS  /var/folders/dt/0wfd0knj7gs46m8vwfzktm600000gn/T//cczoWvr4.s 			page 289


 16372 26a4 0400     		.2byte	0x4
 16373 26a6 0A       		.byte	0xa
 16374 26a7 FF01     		.2byte	0x1ff
 16375 26a9 9F       		.byte	0x9f
 16376 26aa 00000000 		.4byte	0
 16377 26ae 00000000 		.4byte	0
 16378              	.LLST176:
 16379 26b2 62010000 		.4byte	.LVL496
 16380 26b6 76010000 		.4byte	.LVL499
 16381 26ba 0300     		.2byte	0x3
 16382 26bc 77       		.byte	0x77
 16383 26bd 24       		.sleb128 36
 16384 26be 9F       		.byte	0x9f
 16385 26bf 00000000 		.4byte	0
 16386 26c3 00000000 		.4byte	0
 16387              	.LLST177:
 16388 26c7 62010000 		.4byte	.LVL496
 16389 26cb 6A010000 		.4byte	.LVL497
 16390 26cf 0100     		.2byte	0x1
 16391 26d1 55       		.byte	0x55
 16392 26d2 6A010000 		.4byte	.LVL497
 16393 26d6 76010000 		.4byte	.LVL499
 16394 26da 0400     		.2byte	0x4
 16395 26dc 71       		.byte	0x71
 16396 26dd 807C     		.sleb128 -512
 16397 26df 9F       		.byte	0x9f
 16398 26e0 00000000 		.4byte	0
 16399 26e4 00000000 		.4byte	0
 16400              	.LLST178:
 16401 26e8 62010000 		.4byte	.LVL496
 16402 26ec 76010000 		.4byte	.LVL499
 16403 26f0 0100     		.2byte	0x1
 16404 26f2 55       		.byte	0x55
 16405 26f3 00000000 		.4byte	0
 16406 26f7 00000000 		.4byte	0
 16407              	.LLST179:
 16408 26fb 62010000 		.4byte	.LVL496
 16409 26ff 6A010000 		.4byte	.LVL497
 16410 2703 0300     		.2byte	0x3
 16411 2705 77       		.byte	0x77
 16412 2706 24       		.sleb128 36
 16413 2707 9F       		.byte	0x9f
 16414 2708 00000000 		.4byte	0
 16415 270c 00000000 		.4byte	0
 16416              	.LLST180:
 16417 2710 00000000 		.4byte	.LFB26
 16418 2714 04000000 		.4byte	.LCFI22
 16419 2718 0200     		.2byte	0x2
 16420 271a 7D       		.byte	0x7d
 16421 271b 00       		.sleb128 0
 16422 271c 04000000 		.4byte	.LCFI22
 16423 2720 0C000000 		.4byte	.LCFI23
 16424 2724 0200     		.2byte	0x2
 16425 2726 7D       		.byte	0x7d
 16426 2727 24       		.sleb128 36
 16427 2728 0C000000 		.4byte	.LCFI23
 16428 272c EE010000 		.4byte	.LFE26
ARM GAS  /var/folders/dt/0wfd0knj7gs46m8vwfzktm600000gn/T//cczoWvr4.s 			page 290


 16429 2730 0200     		.2byte	0x2
 16430 2732 7D       		.byte	0x7d
 16431 2733 30       		.sleb128 48
 16432 2734 00000000 		.4byte	0
 16433 2738 00000000 		.4byte	0
 16434              	.LLST181:
 16435 273c 00000000 		.4byte	.LVL505
 16436 2740 14000000 		.4byte	.LVL508
 16437 2744 0100     		.2byte	0x1
 16438 2746 50       		.byte	0x50
 16439 2747 14000000 		.4byte	.LVL508
 16440 274b EE010000 		.4byte	.LFE26
 16441 274f 0100     		.2byte	0x1
 16442 2751 54       		.byte	0x54
 16443 2752 00000000 		.4byte	0
 16444 2756 00000000 		.4byte	0
 16445              	.LLST182:
 16446 275a 00000000 		.4byte	.LVL505
 16447 275e 16000000 		.4byte	.LVL509
 16448 2762 0100     		.2byte	0x1
 16449 2764 51       		.byte	0x51
 16450 2765 16000000 		.4byte	.LVL509
 16451 2769 30000000 		.4byte	.LVL512
 16452 276d 0100     		.2byte	0x1
 16453 276f 59       		.byte	0x59
 16454 2770 30000000 		.4byte	.LVL512
 16455 2774 38000000 		.4byte	.LVL513
 16456 2778 0400     		.2byte	0x4
 16457 277a F3       		.byte	0xf3
 16458 277b 01       		.uleb128 0x1
 16459 277c 51       		.byte	0x51
 16460 277d 9F       		.byte	0x9f
 16461 277e 38000000 		.4byte	.LVL513
 16462 2782 44000000 		.4byte	.LVL514
 16463 2786 0100     		.2byte	0x1
 16464 2788 59       		.byte	0x59
 16465 2789 44000000 		.4byte	.LVL514
 16466 278d 52000000 		.4byte	.LVL515
 16467 2791 0400     		.2byte	0x4
 16468 2793 F3       		.byte	0xf3
 16469 2794 01       		.uleb128 0x1
 16470 2795 51       		.byte	0x51
 16471 2796 9F       		.byte	0x9f
 16472 2797 52000000 		.4byte	.LVL515
 16473 279b 60000000 		.4byte	.LVL516
 16474 279f 0100     		.2byte	0x1
 16475 27a1 59       		.byte	0x59
 16476 27a2 60000000 		.4byte	.LVL516
 16477 27a6 EE010000 		.4byte	.LFE26
 16478 27aa 0400     		.2byte	0x4
 16479 27ac F3       		.byte	0xf3
 16480 27ad 01       		.uleb128 0x1
 16481 27ae 51       		.byte	0x51
 16482 27af 9F       		.byte	0x9f
 16483 27b0 00000000 		.4byte	0
 16484 27b4 00000000 		.4byte	0
 16485              	.LLST183:
ARM GAS  /var/folders/dt/0wfd0knj7gs46m8vwfzktm600000gn/T//cczoWvr4.s 			page 291


 16486 27b8 00000000 		.4byte	.LVL505
 16487 27bc 1B000000 		.4byte	.LVL510-1
 16488 27c0 0100     		.2byte	0x1
 16489 27c2 52       		.byte	0x52
 16490 27c3 1B000000 		.4byte	.LVL510-1
 16491 27c7 30000000 		.4byte	.LVL512
 16492 27cb 0100     		.2byte	0x1
 16493 27cd 56       		.byte	0x56
 16494 27ce 38000000 		.4byte	.LVL513
 16495 27d2 44000000 		.4byte	.LVL514
 16496 27d6 0100     		.2byte	0x1
 16497 27d8 56       		.byte	0x56
 16498 27d9 52000000 		.4byte	.LVL515
 16499 27dd 60000000 		.4byte	.LVL516
 16500 27e1 0100     		.2byte	0x1
 16501 27e3 56       		.byte	0x56
 16502 27e4 00000000 		.4byte	0
 16503 27e8 00000000 		.4byte	0
 16504              	.LLST184:
 16505 27ec 00000000 		.4byte	.LVL505
 16506 27f0 0A000000 		.4byte	.LVL506
 16507 27f4 0100     		.2byte	0x1
 16508 27f6 53       		.byte	0x53
 16509 27f7 0A000000 		.4byte	.LVL506
 16510 27fb EE010000 		.4byte	.LFE26
 16511 27ff 0100     		.2byte	0x1
 16512 2801 58       		.byte	0x58
 16513 2802 00000000 		.4byte	0
 16514 2806 00000000 		.4byte	0
 16515              	.LLST185:
 16516 280a 1C000000 		.4byte	.LVL510
 16517 280e 24000000 		.4byte	.LVL511
 16518 2812 0100     		.2byte	0x1
 16519 2814 50       		.byte	0x50
 16520 2815 00000000 		.4byte	0
 16521 2819 00000000 		.4byte	0
 16522              	.LLST186:
 16523 281d 84000000 		.4byte	.LVL519
 16524 2821 98000000 		.4byte	.LVL521
 16525 2825 0100     		.2byte	0x1
 16526 2827 50       		.byte	0x50
 16527 2828 BA010000 		.4byte	.LVL551
 16528 282c CA010000 		.4byte	.LVL553
 16529 2830 0100     		.2byte	0x1
 16530 2832 50       		.byte	0x50
 16531 2833 CA010000 		.4byte	.LVL553
 16532 2837 CF010000 		.4byte	.LVL554-1
 16533 283b 0200     		.2byte	0x2
 16534 283d 74       		.byte	0x74
 16535 283e 10       		.sleb128 16
 16536 283f D0010000 		.4byte	.LVL554
 16537 2843 DA010000 		.4byte	.LVL555
 16538 2847 0100     		.2byte	0x1
 16539 2849 50       		.byte	0x50
 16540 284a 00000000 		.4byte	0
 16541 284e 00000000 		.4byte	0
 16542              	.LLST187:
ARM GAS  /var/folders/dt/0wfd0knj7gs46m8vwfzktm600000gn/T//cczoWvr4.s 			page 292


 16543 2852 BE000000 		.4byte	.LVL525
 16544 2856 D6000000 		.4byte	.LVL527
 16545 285a 0100     		.2byte	0x1
 16546 285c 5B       		.byte	0x5b
 16547 285d 38010000 		.4byte	.LVL537
 16548 2861 64010000 		.4byte	.LVL541
 16549 2865 0100     		.2byte	0x1
 16550 2867 5B       		.byte	0x5b
 16551 2868 DA010000 		.4byte	.LVL555
 16552 286c EE010000 		.4byte	.LFE26
 16553 2870 0100     		.2byte	0x1
 16554 2872 5B       		.byte	0x5b
 16555 2873 00000000 		.4byte	0
 16556 2877 00000000 		.4byte	0
 16557              	.LLST188:
 16558 287b DA000000 		.4byte	.LVL528
 16559 287f 24010000 		.4byte	.LVL536
 16560 2883 0100     		.2byte	0x1
 16561 2885 5C       		.byte	0x5c
 16562 2886 88010000 		.4byte	.LVL547
 16563 288a 8C010000 		.4byte	.LVL548
 16564 288e 0100     		.2byte	0x1
 16565 2890 5C       		.byte	0x5c
 16566 2891 00000000 		.4byte	0
 16567 2895 00000000 		.4byte	0
 16568              	.LLST189:
 16569 2899 BE000000 		.4byte	.LVL525
 16570 289d CE000000 		.4byte	.LVL526
 16571 28a1 0100     		.2byte	0x1
 16572 28a3 5C       		.byte	0x5c
 16573 28a4 CE000000 		.4byte	.LVL526
 16574 28a8 D6000000 		.4byte	.LVL527
 16575 28ac 0500     		.2byte	0x5
 16576 28ae 76       		.byte	0x76
 16577 28af 00       		.sleb128 0
 16578 28b0 39       		.byte	0x39
 16579 28b1 25       		.byte	0x25
 16580 28b2 9F       		.byte	0x9f
 16581 28b3 38010000 		.4byte	.LVL537
 16582 28b7 57010000 		.4byte	.LVL540-1
 16583 28bb 0100     		.2byte	0x1
 16584 28bd 5C       		.byte	0x5c
 16585 28be DA010000 		.4byte	.LVL555
 16586 28c2 E5010000 		.4byte	.LVL557-1
 16587 28c6 0100     		.2byte	0x1
 16588 28c8 5C       		.byte	0x5c
 16589 28c9 E5010000 		.4byte	.LVL557-1
 16590 28cd EE010000 		.4byte	.LFE26
 16591 28d1 0500     		.2byte	0x5
 16592 28d3 76       		.byte	0x76
 16593 28d4 00       		.sleb128 0
 16594 28d5 39       		.byte	0x39
 16595 28d6 25       		.byte	0x25
 16596 28d7 9F       		.byte	0x9f
 16597 28d8 00000000 		.4byte	0
 16598 28dc 00000000 		.4byte	0
 16599              	.LLST190:
ARM GAS  /var/folders/dt/0wfd0knj7gs46m8vwfzktm600000gn/T//cczoWvr4.s 			page 293


 16600 28e0 0E000000 		.4byte	.LVL507
 16601 28e4 16000000 		.4byte	.LVL509
 16602 28e8 0100     		.2byte	0x1
 16603 28ea 51       		.byte	0x51
 16604 28eb 16000000 		.4byte	.LVL509
 16605 28ef EE010000 		.4byte	.LFE26
 16606 28f3 0100     		.2byte	0x1
 16607 28f5 59       		.byte	0x59
 16608 28f6 00000000 		.4byte	0
 16609 28fa 00000000 		.4byte	0
 16610              	.LLST191:
 16611 28fe 76000000 		.4byte	.LVL517
 16612 2902 7A000000 		.4byte	.LVL518
 16613 2906 0100     		.2byte	0x1
 16614 2908 5A       		.byte	0x5a
 16615 2909 7A000000 		.4byte	.LVL518
 16616 290d 8A000000 		.4byte	.LVL520
 16617 2911 0F00     		.2byte	0xf
 16618 2913 73       		.byte	0x73
 16619 2914 02       		.sleb128 2
 16620 2915 94       		.byte	0x94
 16621 2916 01       		.byte	0x1
 16622 2917 08       		.byte	0x8
 16623 2918 FF       		.byte	0xff
 16624 2919 1A       		.byte	0x1a
 16625 291a 31       		.byte	0x31
 16626 291b 1C       		.byte	0x1c
 16627 291c 72       		.byte	0x72
 16628 291d 00       		.sleb128 0
 16629 291e 39       		.byte	0x39
 16630 291f 25       		.byte	0x25
 16631 2920 1A       		.byte	0x1a
 16632 2921 9F       		.byte	0x9f
 16633 2922 B2010000 		.4byte	.LVL550
 16634 2926 B9010000 		.4byte	.LVL551-1
 16635 292a 0F00     		.2byte	0xf
 16636 292c 73       		.byte	0x73
 16637 292d 02       		.sleb128 2
 16638 292e 94       		.byte	0x94
 16639 292f 01       		.byte	0x1
 16640 2930 08       		.byte	0x8
 16641 2931 FF       		.byte	0xff
 16642 2932 1A       		.byte	0x1a
 16643 2933 31       		.byte	0x31
 16644 2934 1C       		.byte	0x1c
 16645 2935 72       		.byte	0x72
 16646 2936 00       		.sleb128 0
 16647 2937 39       		.byte	0x39
 16648 2938 25       		.byte	0x25
 16649 2939 1A       		.byte	0x1a
 16650 293a 9F       		.byte	0x9f
 16651 293b C8010000 		.4byte	.LVL552
 16652 293f CF010000 		.4byte	.LVL554-1
 16653 2943 0F00     		.2byte	0xf
 16654 2945 73       		.byte	0x73
 16655 2946 02       		.sleb128 2
 16656 2947 94       		.byte	0x94
ARM GAS  /var/folders/dt/0wfd0knj7gs46m8vwfzktm600000gn/T//cczoWvr4.s 			page 294


 16657 2948 01       		.byte	0x1
 16658 2949 08       		.byte	0x8
 16659 294a FF       		.byte	0xff
 16660 294b 1A       		.byte	0x1a
 16661 294c 31       		.byte	0x31
 16662 294d 1C       		.byte	0x1c
 16663 294e 72       		.byte	0x72
 16664 294f 00       		.sleb128 0
 16665 2950 39       		.byte	0x39
 16666 2951 25       		.byte	0x25
 16667 2952 1A       		.byte	0x1a
 16668 2953 9F       		.byte	0x9f
 16669 2954 00000000 		.4byte	0
 16670 2958 00000000 		.4byte	0
 16671              	.LLST192:
 16672 295c A4000000 		.4byte	.LVL522
 16673 2960 AC000000 		.4byte	.LVL523
 16674 2964 0200     		.2byte	0x2
 16675 2966 74       		.byte	0x74
 16676 2967 14       		.sleb128 20
 16677 2968 AC000000 		.4byte	.LVL523
 16678 296c B2000000 		.4byte	.LVL524
 16679 2970 0100     		.2byte	0x1
 16680 2972 5B       		.byte	0x5b
 16681 2973 BE000000 		.4byte	.LVL525
 16682 2977 CE000000 		.4byte	.LVL526
 16683 297b 0600     		.2byte	0x6
 16684 297d 74       		.byte	0x74
 16685 297e 14       		.sleb128 20
 16686 297f 06       		.byte	0x6
 16687 2980 32       		.byte	0x32
 16688 2981 1C       		.byte	0x1c
 16689 2982 9F       		.byte	0x9f
 16690 2983 24010000 		.4byte	.LVL536
 16691 2987 38010000 		.4byte	.LVL537
 16692 298b 0100     		.2byte	0x1
 16693 298d 5B       		.byte	0x5b
 16694 298e 38010000 		.4byte	.LVL537
 16695 2992 57010000 		.4byte	.LVL540-1
 16696 2996 0600     		.2byte	0x6
 16697 2998 74       		.byte	0x74
 16698 2999 14       		.sleb128 20
 16699 299a 06       		.byte	0x6
 16700 299b 32       		.byte	0x32
 16701 299c 1C       		.byte	0x1c
 16702 299d 9F       		.byte	0x9f
 16703 299e DA010000 		.4byte	.LVL555
 16704 29a2 E5010000 		.4byte	.LVL557-1
 16705 29a6 0600     		.2byte	0x6
 16706 29a8 74       		.byte	0x74
 16707 29a9 14       		.sleb128 20
 16708 29aa 06       		.byte	0x6
 16709 29ab 32       		.byte	0x32
 16710 29ac 1C       		.byte	0x1c
 16711 29ad 9F       		.byte	0x9f
 16712 29ae 00000000 		.4byte	0
 16713 29b2 00000000 		.4byte	0
ARM GAS  /var/folders/dt/0wfd0knj7gs46m8vwfzktm600000gn/T//cczoWvr4.s 			page 295


 16714              	.LLST193:
 16715 29b6 A4000000 		.4byte	.LVL522
 16716 29ba B2000000 		.4byte	.LVL524
 16717 29be 0100     		.2byte	0x1
 16718 29c0 53       		.byte	0x53
 16719 29c1 BE000000 		.4byte	.LVL525
 16720 29c5 CE000000 		.4byte	.LVL526
 16721 29c9 0100     		.2byte	0x1
 16722 29cb 53       		.byte	0x53
 16723 29cc 24010000 		.4byte	.LVL536
 16724 29d0 4E010000 		.4byte	.LVL539
 16725 29d4 0100     		.2byte	0x1
 16726 29d6 53       		.byte	0x53
 16727 29d7 DA010000 		.4byte	.LVL555
 16728 29db E2010000 		.4byte	.LVL556
 16729 29df 0100     		.2byte	0x1
 16730 29e1 53       		.byte	0x53
 16731 29e2 00000000 		.4byte	0
 16732 29e6 00000000 		.4byte	0
 16733              	.LLST194:
 16734 29ea E4000000 		.4byte	.LVL530
 16735 29ee F2000000 		.4byte	.LVL531
 16736 29f2 0300     		.2byte	0x3
 16737 29f4 7C       		.byte	0x7c
 16738 29f5 7F       		.sleb128 -1
 16739 29f6 9F       		.byte	0x9f
 16740 29f7 00000000 		.4byte	0
 16741 29fb 00000000 		.4byte	0
 16742              	.LLST195:
 16743 29ff E4000000 		.4byte	.LVL530
 16744 2a03 08010000 		.4byte	.LVL534
 16745 2a07 0100     		.2byte	0x1
 16746 2a09 59       		.byte	0x59
 16747 2a0a 00000000 		.4byte	0
 16748 2a0e 00000000 		.4byte	0
 16749              	.LLST196:
 16750 2a12 E4000000 		.4byte	.LVL530
 16751 2a16 F2000000 		.4byte	.LVL531
 16752 2a1a 0100     		.2byte	0x1
 16753 2a1c 53       		.byte	0x53
 16754 2a1d 00000000 		.4byte	0
 16755 2a21 00000000 		.4byte	0
 16756              	.LLST197:
 16757 2a25 E4000000 		.4byte	.LVL530
 16758 2a29 02010000 		.4byte	.LVL533
 16759 2a2d 0100     		.2byte	0x1
 16760 2a2f 53       		.byte	0x53
 16761 2a30 00000000 		.4byte	0
 16762 2a34 00000000 		.4byte	0
 16763              	.LLST198:
 16764 2a38 E4000000 		.4byte	.LVL530
 16765 2a3c F2000000 		.4byte	.LVL531
 16766 2a40 0100     		.2byte	0x1
 16767 2a42 59       		.byte	0x59
 16768 2a43 00000000 		.4byte	0
 16769 2a47 00000000 		.4byte	0
 16770              	.LLST199:
ARM GAS  /var/folders/dt/0wfd0knj7gs46m8vwfzktm600000gn/T//cczoWvr4.s 			page 296


 16771 2a4b 6E010000 		.4byte	.LVL542
 16772 2a4f 70010000 		.4byte	.LVL543
 16773 2a53 0400     		.2byte	0x4
 16774 2a55 0A       		.byte	0xa
 16775 2a56 FF01     		.2byte	0x1ff
 16776 2a58 9F       		.byte	0x9f
 16777 2a59 00000000 		.4byte	0
 16778 2a5d 00000000 		.4byte	0
 16779              	.LLST200:
 16780 2a61 6E010000 		.4byte	.LVL542
 16781 2a65 84010000 		.4byte	.LVL546
 16782 2a69 0800     		.2byte	0x8
 16783 2a6b 7B       		.byte	0x7b
 16784 2a6c 00       		.sleb128 0
 16785 2a6d 39       		.byte	0x39
 16786 2a6e 24       		.byte	0x24
 16787 2a6f 79       		.byte	0x79
 16788 2a70 00       		.sleb128 0
 16789 2a71 22       		.byte	0x22
 16790 2a72 9F       		.byte	0x9f
 16791 2a73 00000000 		.4byte	0
 16792 2a77 00000000 		.4byte	0
 16793              	.LLST201:
 16794 2a7b 6E010000 		.4byte	.LVL542
 16795 2a7f 70010000 		.4byte	.LVL543
 16796 2a83 0100     		.2byte	0x1
 16797 2a85 53       		.byte	0x53
 16798 2a86 70010000 		.4byte	.LVL543
 16799 2a8a 84010000 		.4byte	.LVL546
 16800 2a8e 0200     		.2byte	0x2
 16801 2a90 91       		.byte	0x91
 16802 2a91 54       		.sleb128 -44
 16803 2a92 00000000 		.4byte	0
 16804 2a96 00000000 		.4byte	0
 16805              	.LLST202:
 16806 2a9a 6E010000 		.4byte	.LVL542
 16807 2a9e 7E010000 		.4byte	.LVL545
 16808 2aa2 0100     		.2byte	0x1
 16809 2aa4 53       		.byte	0x53
 16810 2aa5 00000000 		.4byte	0
 16811 2aa9 00000000 		.4byte	0
 16812              	.LLST203:
 16813 2aad 6E010000 		.4byte	.LVL542
 16814 2ab1 70010000 		.4byte	.LVL543
 16815 2ab5 0800     		.2byte	0x8
 16816 2ab7 7B       		.byte	0x7b
 16817 2ab8 00       		.sleb128 0
 16818 2ab9 39       		.byte	0x39
 16819 2aba 24       		.byte	0x24
 16820 2abb 79       		.byte	0x79
 16821 2abc 00       		.sleb128 0
 16822 2abd 22       		.byte	0x22
 16823 2abe 9F       		.byte	0x9f
 16824 2abf 00000000 		.4byte	0
 16825 2ac3 00000000 		.4byte	0
 16826              	.LLST204:
 16827 2ac7 00000000 		.4byte	.LFB27
ARM GAS  /var/folders/dt/0wfd0knj7gs46m8vwfzktm600000gn/T//cczoWvr4.s 			page 297


 16828 2acb 02000000 		.4byte	.LCFI24
 16829 2acf 0200     		.2byte	0x2
 16830 2ad1 7D       		.byte	0x7d
 16831 2ad2 00       		.sleb128 0
 16832 2ad3 02000000 		.4byte	.LCFI24
 16833 2ad7 A8000000 		.4byte	.LFE27
 16834 2adb 0200     		.2byte	0x2
 16835 2add 7D       		.byte	0x7d
 16836 2ade 10       		.sleb128 16
 16837 2adf 00000000 		.4byte	0
 16838 2ae3 00000000 		.4byte	0
 16839              	.LLST205:
 16840 2ae7 00000000 		.4byte	.LVL558
 16841 2aeb 08000000 		.4byte	.LVL559
 16842 2aef 0100     		.2byte	0x1
 16843 2af1 50       		.byte	0x50
 16844 2af2 08000000 		.4byte	.LVL559
 16845 2af6 A8000000 		.4byte	.LFE27
 16846 2afa 0100     		.2byte	0x1
 16847 2afc 54       		.byte	0x54
 16848 2afd 00000000 		.4byte	0
 16849 2b01 00000000 		.4byte	0
 16850              	.LLST206:
 16851 2b05 0C000000 		.4byte	.LVL560
 16852 2b09 2A000000 		.4byte	.LVL561
 16853 2b0d 0100     		.2byte	0x1
 16854 2b0f 50       		.byte	0x50
 16855 2b10 44000000 		.4byte	.LVL563
 16856 2b14 46000000 		.4byte	.LVL564
 16857 2b18 0100     		.2byte	0x1
 16858 2b1a 50       		.byte	0x50
 16859 2b1b 48000000 		.4byte	.LVL565
 16860 2b1f 7B000000 		.4byte	.LVL567-1
 16861 2b23 0100     		.2byte	0x1
 16862 2b25 50       		.byte	0x50
 16863 2b26 00000000 		.4byte	0
 16864 2b2a 00000000 		.4byte	0
 16865              	.LLST207:
 16866 2b2e 7C000000 		.4byte	.LVL567
 16867 2b32 9C000000 		.4byte	.LVL568
 16868 2b36 0100     		.2byte	0x1
 16869 2b38 50       		.byte	0x50
 16870 2b39 00000000 		.4byte	0
 16871 2b3d 00000000 		.4byte	0
 16872              	.LLST208:
 16873 2b41 4A000000 		.4byte	.LVL566
 16874 2b45 A4000000 		.4byte	.LVL569
 16875 2b49 0100     		.2byte	0x1
 16876 2b4b 55       		.byte	0x55
 16877 2b4c 00000000 		.4byte	0
 16878 2b50 00000000 		.4byte	0
 16879              	.LLST209:
 16880 2b54 00000000 		.4byte	.LFB28
 16881 2b58 02000000 		.4byte	.LCFI25
 16882 2b5c 0200     		.2byte	0x2
 16883 2b5e 7D       		.byte	0x7d
 16884 2b5f 00       		.sleb128 0
ARM GAS  /var/folders/dt/0wfd0knj7gs46m8vwfzktm600000gn/T//cczoWvr4.s 			page 298


 16885 2b60 02000000 		.4byte	.LCFI25
 16886 2b64 0E000000 		.4byte	.LFE28
 16887 2b68 0200     		.2byte	0x2
 16888 2b6a 7D       		.byte	0x7d
 16889 2b6b 08       		.sleb128 8
 16890 2b6c 00000000 		.4byte	0
 16891 2b70 00000000 		.4byte	0
 16892              	.LLST210:
 16893 2b74 00000000 		.4byte	.LVL570
 16894 2b78 07000000 		.4byte	.LVL571-1
 16895 2b7c 0100     		.2byte	0x1
 16896 2b7e 50       		.byte	0x50
 16897 2b7f 07000000 		.4byte	.LVL571-1
 16898 2b83 0E000000 		.4byte	.LFE28
 16899 2b87 0100     		.2byte	0x1
 16900 2b89 54       		.byte	0x54
 16901 2b8a 00000000 		.4byte	0
 16902 2b8e 00000000 		.4byte	0
 16903              	.LLST211:
 16904 2b92 00000000 		.4byte	.LFB29
 16905 2b96 02000000 		.4byte	.LCFI26
 16906 2b9a 0200     		.2byte	0x2
 16907 2b9c 7D       		.byte	0x7d
 16908 2b9d 00       		.sleb128 0
 16909 2b9e 02000000 		.4byte	.LCFI26
 16910 2ba2 82010000 		.4byte	.LFE29
 16911 2ba6 0200     		.2byte	0x2
 16912 2ba8 7D       		.byte	0x7d
 16913 2ba9 18       		.sleb128 24
 16914 2baa 00000000 		.4byte	0
 16915 2bae 00000000 		.4byte	0
 16916              	.LLST212:
 16917 2bb2 00000000 		.4byte	.LVL572
 16918 2bb6 08000000 		.4byte	.LVL573
 16919 2bba 0100     		.2byte	0x1
 16920 2bbc 50       		.byte	0x50
 16921 2bbd 08000000 		.4byte	.LVL573
 16922 2bc1 82010000 		.4byte	.LFE29
 16923 2bc5 0100     		.2byte	0x1
 16924 2bc7 54       		.byte	0x54
 16925 2bc8 00000000 		.4byte	0
 16926 2bcc 00000000 		.4byte	0
 16927              	.LLST213:
 16928 2bd0 00000000 		.4byte	.LVL572
 16929 2bd4 0A000000 		.4byte	.LVL574
 16930 2bd8 0100     		.2byte	0x1
 16931 2bda 51       		.byte	0x51
 16932 2bdb 0A000000 		.4byte	.LVL574
 16933 2bdf 5E000000 		.4byte	.LVL583
 16934 2be3 0100     		.2byte	0x1
 16935 2be5 55       		.byte	0x55
 16936 2be6 BC000000 		.4byte	.LVL588
 16937 2bea D6000000 		.4byte	.LVL592
 16938 2bee 0100     		.2byte	0x1
 16939 2bf0 55       		.byte	0x55
 16940 2bf1 E2000000 		.4byte	.LVL593
 16941 2bf5 EE000000 		.4byte	.LVL594
ARM GAS  /var/folders/dt/0wfd0knj7gs46m8vwfzktm600000gn/T//cczoWvr4.s 			page 299


 16942 2bf9 0100     		.2byte	0x1
 16943 2bfb 55       		.byte	0x55
 16944 2bfc F6000000 		.4byte	.LVL596
 16945 2c00 18010000 		.4byte	.LVL598
 16946 2c04 0100     		.2byte	0x1
 16947 2c06 55       		.byte	0x55
 16948 2c07 36010000 		.4byte	.LVL602
 16949 2c0b 4E010000 		.4byte	.LVL606
 16950 2c0f 0100     		.2byte	0x1
 16951 2c11 55       		.byte	0x55
 16952 2c12 56010000 		.4byte	.LVL608
 16953 2c16 7C010000 		.4byte	.LVL613
 16954 2c1a 0100     		.2byte	0x1
 16955 2c1c 55       		.byte	0x55
 16956 2c1d 7E010000 		.4byte	.LVL614
 16957 2c21 80010000 		.4byte	.LVL615
 16958 2c25 0100     		.2byte	0x1
 16959 2c27 55       		.byte	0x55
 16960 2c28 00000000 		.4byte	0
 16961 2c2c 00000000 		.4byte	0
 16962              	.LLST214:
 16963 2c30 0E000000 		.4byte	.LVL575
 16964 2c34 18000000 		.4byte	.LVL576
 16965 2c38 0100     		.2byte	0x1
 16966 2c3a 50       		.byte	0x50
 16967 2c3b 00000000 		.4byte	0
 16968 2c3f 00000000 		.4byte	0
 16969              	.LLST215:
 16970 2c43 50000000 		.4byte	.LVL581
 16971 2c47 5E000000 		.4byte	.LVL583
 16972 2c4b 0100     		.2byte	0x1
 16973 2c4d 52       		.byte	0x52
 16974 2c4e C2000000 		.4byte	.LVL589
 16975 2c52 C7000000 		.4byte	.LVL590-1
 16976 2c56 0100     		.2byte	0x1
 16977 2c58 52       		.byte	0x52
 16978 2c59 CC000000 		.4byte	.LVL591
 16979 2c5d D6000000 		.4byte	.LVL592
 16980 2c61 0100     		.2byte	0x1
 16981 2c63 50       		.byte	0x50
 16982 2c64 E2000000 		.4byte	.LVL593
 16983 2c68 EE000000 		.4byte	.LVL594
 16984 2c6c 0100     		.2byte	0x1
 16985 2c6e 52       		.byte	0x52
 16986 2c6f EE000000 		.4byte	.LVL594
 16987 2c73 F1000000 		.4byte	.LVL595-1
 16988 2c77 0100     		.2byte	0x1
 16989 2c79 51       		.byte	0x51
 16990 2c7a F2000000 		.4byte	.LVL595
 16991 2c7e 12010000 		.4byte	.LVL597
 16992 2c82 0100     		.2byte	0x1
 16993 2c84 50       		.byte	0x50
 16994 2c85 12010000 		.4byte	.LVL597
 16995 2c89 2A010000 		.4byte	.LVL599
 16996 2c8d 0100     		.2byte	0x1
 16997 2c8f 52       		.byte	0x52
 16998 2c90 2A010000 		.4byte	.LVL599
ARM GAS  /var/folders/dt/0wfd0knj7gs46m8vwfzktm600000gn/T//cczoWvr4.s 			page 300


 16999 2c94 31010000 		.4byte	.LVL600-1
 17000 2c98 0100     		.2byte	0x1
 17001 2c9a 51       		.byte	0x51
 17002 2c9b 34010000 		.4byte	.LVL601
 17003 2c9f 36010000 		.4byte	.LVL602
 17004 2ca3 0100     		.2byte	0x1
 17005 2ca5 50       		.byte	0x50
 17006 2ca6 4C010000 		.4byte	.LVL605
 17007 2caa 4E010000 		.4byte	.LVL606
 17008 2cae 0100     		.2byte	0x1
 17009 2cb0 52       		.byte	0x52
 17010 2cb1 52010000 		.4byte	.LVL607
 17011 2cb5 56010000 		.4byte	.LVL608
 17012 2cb9 0100     		.2byte	0x1
 17013 2cbb 50       		.byte	0x50
 17014 2cbc 56010000 		.4byte	.LVL608
 17015 2cc0 64010000 		.4byte	.LVL610
 17016 2cc4 0100     		.2byte	0x1
 17017 2cc6 52       		.byte	0x52
 17018 2cc7 64010000 		.4byte	.LVL610
 17019 2ccb 74010000 		.4byte	.LVL612
 17020 2ccf 0300     		.2byte	0x3
 17021 2cd1 72       		.byte	0x72
 17022 2cd2 02       		.sleb128 2
 17023 2cd3 9F       		.byte	0x9f
 17024 2cd4 7E010000 		.4byte	.LVL614
 17025 2cd8 82010000 		.4byte	.LFE29
 17026 2cdc 0100     		.2byte	0x1
 17027 2cde 52       		.byte	0x52
 17028 2cdf 00000000 		.4byte	0
 17029 2ce3 00000000 		.4byte	0
 17030              	.LLST216:
 17031 2ce7 3C000000 		.4byte	.LVL579
 17032 2ceb 72000000 		.4byte	.LVL584
 17033 2cef 0100     		.2byte	0x1
 17034 2cf1 57       		.byte	0x57
 17035 2cf2 C2000000 		.4byte	.LVL589
 17036 2cf6 D6000000 		.4byte	.LVL592
 17037 2cfa 0100     		.2byte	0x1
 17038 2cfc 57       		.byte	0x57
 17039 2cfd E2000000 		.4byte	.LVL593
 17040 2d01 82010000 		.4byte	.LFE29
 17041 2d05 0100     		.2byte	0x1
 17042 2d07 57       		.byte	0x57
 17043 2d08 00000000 		.4byte	0
 17044 2d0c 00000000 		.4byte	0
 17045              	.LLST217:
 17046 2d10 30000000 		.4byte	.LVL578
 17047 2d14 5E000000 		.4byte	.LVL583
 17048 2d18 0200     		.2byte	0x2
 17049 2d1a 30       		.byte	0x30
 17050 2d1b 9F       		.byte	0x9f
 17051 2d1c 5E000000 		.4byte	.LVL583
 17052 2d20 B8000000 		.4byte	.LVL587
 17053 2d24 0100     		.2byte	0x1
 17054 2d26 55       		.byte	0x55
 17055 2d27 C2000000 		.4byte	.LVL589
ARM GAS  /var/folders/dt/0wfd0knj7gs46m8vwfzktm600000gn/T//cczoWvr4.s 			page 301


 17056 2d2b D6000000 		.4byte	.LVL592
 17057 2d2f 0200     		.2byte	0x2
 17058 2d31 30       		.byte	0x30
 17059 2d32 9F       		.byte	0x9f
 17060 2d33 E2000000 		.4byte	.LVL593
 17061 2d37 36010000 		.4byte	.LVL602
 17062 2d3b 0200     		.2byte	0x2
 17063 2d3d 30       		.byte	0x30
 17064 2d3e 9F       		.byte	0x9f
 17065 2d3f 42010000 		.4byte	.LVL603
 17066 2d43 4E010000 		.4byte	.LVL606
 17067 2d47 0200     		.2byte	0x2
 17068 2d49 30       		.byte	0x30
 17069 2d4a 9F       		.byte	0x9f
 17070 2d4b 4E010000 		.4byte	.LVL606
 17071 2d4f 52010000 		.4byte	.LVL607
 17072 2d53 0100     		.2byte	0x1
 17073 2d55 55       		.byte	0x55
 17074 2d56 52010000 		.4byte	.LVL607
 17075 2d5a 74010000 		.4byte	.LVL612
 17076 2d5e 0200     		.2byte	0x2
 17077 2d60 30       		.byte	0x30
 17078 2d61 9F       		.byte	0x9f
 17079 2d62 7C010000 		.4byte	.LVL613
 17080 2d66 7E010000 		.4byte	.LVL614
 17081 2d6a 0100     		.2byte	0x1
 17082 2d6c 55       		.byte	0x55
 17083 2d6d 7E010000 		.4byte	.LVL614
 17084 2d71 82010000 		.4byte	.LFE29
 17085 2d75 0200     		.2byte	0x2
 17086 2d77 30       		.byte	0x30
 17087 2d78 9F       		.byte	0x9f
 17088 2d79 00000000 		.4byte	0
 17089 2d7d 00000000 		.4byte	0
 17090              	.LLST218:
 17091 2d81 30000000 		.4byte	.LVL578
 17092 2d85 40000000 		.4byte	.LVL580
 17093 2d89 0100     		.2byte	0x1
 17094 2d8b 52       		.byte	0x52
 17095 2d8c 40000000 		.4byte	.LVL580
 17096 2d90 54000000 		.4byte	.LVL582
 17097 2d94 0200     		.2byte	0x2
 17098 2d96 74       		.byte	0x74
 17099 2d97 08       		.sleb128 8
 17100 2d98 C2000000 		.4byte	.LVL589
 17101 2d9c C7000000 		.4byte	.LVL590-1
 17102 2da0 0200     		.2byte	0x2
 17103 2da2 74       		.byte	0x74
 17104 2da3 08       		.sleb128 8
 17105 2da4 42010000 		.4byte	.LVL603
 17106 2da8 4E010000 		.4byte	.LVL606
 17107 2dac 0200     		.2byte	0x2
 17108 2dae 74       		.byte	0x74
 17109 2daf 08       		.sleb128 8
 17110 2db0 00000000 		.4byte	0
 17111 2db4 00000000 		.4byte	0
 17112              	.LLST219:
ARM GAS  /var/folders/dt/0wfd0knj7gs46m8vwfzktm600000gn/T//cczoWvr4.s 			page 302


 17113 2db8 62010000 		.4byte	.LVL609
 17114 2dbc 74010000 		.4byte	.LVL612
 17115 2dc0 0100     		.2byte	0x1
 17116 2dc2 52       		.byte	0x52
 17117 2dc3 00000000 		.4byte	0
 17118 2dc7 00000000 		.4byte	0
 17119              	.LLST220:
 17120 2dcb 62010000 		.4byte	.LVL609
 17121 2dcf 70010000 		.4byte	.LVL611
 17122 2dd3 0100     		.2byte	0x1
 17123 2dd5 53       		.byte	0x53
 17124 2dd6 70010000 		.4byte	.LVL611
 17125 2dda 7E010000 		.4byte	.LVL614
 17126 2dde 0200     		.2byte	0x2
 17127 2de0 74       		.byte	0x74
 17128 2de1 00       		.sleb128 0
 17129 2de2 00000000 		.4byte	0
 17130 2de6 00000000 		.4byte	0
 17131              	.LLST221:
 17132 2dea 00000000 		.4byte	.LFB30
 17133 2dee 02000000 		.4byte	.LCFI27
 17134 2df2 0200     		.2byte	0x2
 17135 2df4 7D       		.byte	0x7d
 17136 2df5 00       		.sleb128 0
 17137 2df6 02000000 		.4byte	.LCFI27
 17138 2dfa 04000000 		.4byte	.LCFI28
 17139 2dfe 0200     		.2byte	0x2
 17140 2e00 7D       		.byte	0x7d
 17141 2e01 0C       		.sleb128 12
 17142 2e02 04000000 		.4byte	.LCFI28
 17143 2e06 68000000 		.4byte	.LFE30
 17144 2e0a 0200     		.2byte	0x2
 17145 2e0c 7D       		.byte	0x7d
 17146 2e0d 28       		.sleb128 40
 17147 2e0e 00000000 		.4byte	0
 17148 2e12 00000000 		.4byte	0
 17149              	.LLST222:
 17150 2e16 00000000 		.4byte	.LVL616
 17151 2e1a 12000000 		.4byte	.LVL618
 17152 2e1e 0100     		.2byte	0x1
 17153 2e20 50       		.byte	0x50
 17154 2e21 12000000 		.4byte	.LVL618
 17155 2e25 15000000 		.4byte	.LVL619-1
 17156 2e29 0100     		.2byte	0x1
 17157 2e2b 51       		.byte	0x51
 17158 2e2c 15000000 		.4byte	.LVL619-1
 17159 2e30 68000000 		.4byte	.LFE30
 17160 2e34 0100     		.2byte	0x1
 17161 2e36 54       		.byte	0x54
 17162 2e37 00000000 		.4byte	0
 17163 2e3b 00000000 		.4byte	0
 17164              	.LLST223:
 17165 2e3f 00000000 		.4byte	.LVL616
 17166 2e43 0E000000 		.4byte	.LVL617
 17167 2e47 0100     		.2byte	0x1
 17168 2e49 51       		.byte	0x51
 17169 2e4a 0E000000 		.4byte	.LVL617
ARM GAS  /var/folders/dt/0wfd0knj7gs46m8vwfzktm600000gn/T//cczoWvr4.s 			page 303


 17170 2e4e 18000000 		.4byte	.LVL620
 17171 2e52 0200     		.2byte	0x2
 17172 2e54 73       		.byte	0x73
 17173 2e55 6C       		.sleb128 -20
 17174 2e56 18000000 		.4byte	.LVL620
 17175 2e5a 1C000000 		.4byte	.LVL621
 17176 2e5e 0200     		.2byte	0x2
 17177 2e60 91       		.byte	0x91
 17178 2e61 5C       		.sleb128 -36
 17179 2e62 1C000000 		.4byte	.LVL621
 17180 2e66 68000000 		.4byte	.LFE30
 17181 2e6a 0200     		.2byte	0x2
 17182 2e6c 73       		.byte	0x73
 17183 2e6d 6C       		.sleb128 -20
 17184 2e6e 00000000 		.4byte	0
 17185 2e72 00000000 		.4byte	0
 17186              	.LLST224:
 17187 2e76 16000000 		.4byte	.LVL619
 17188 2e7a 18000000 		.4byte	.LVL620
 17189 2e7e 0100     		.2byte	0x1
 17190 2e80 50       		.byte	0x50
 17191 2e81 1C000000 		.4byte	.LVL621
 17192 2e85 22000000 		.4byte	.LVL622
 17193 2e89 0100     		.2byte	0x1
 17194 2e8b 50       		.byte	0x50
 17195 2e8c 28000000 		.4byte	.LVL623
 17196 2e90 32000000 		.4byte	.LVL624
 17197 2e94 0100     		.2byte	0x1
 17198 2e96 50       		.byte	0x50
 17199 2e97 52000000 		.4byte	.LVL625
 17200 2e9b 60000000 		.4byte	.LVL626
 17201 2e9f 0200     		.2byte	0x2
 17202 2ea1 30       		.byte	0x30
 17203 2ea2 9F       		.byte	0x9f
 17204 2ea3 60000000 		.4byte	.LVL626
 17205 2ea7 66000000 		.4byte	.LVL627
 17206 2eab 0100     		.2byte	0x1
 17207 2ead 50       		.byte	0x50
 17208 2eae 00000000 		.4byte	0
 17209 2eb2 00000000 		.4byte	0
 17210              	.LLST225:
 17211 2eb6 00000000 		.4byte	.LFB31
 17212 2eba 02000000 		.4byte	.LCFI29
 17213 2ebe 0200     		.2byte	0x2
 17214 2ec0 7D       		.byte	0x7d
 17215 2ec1 00       		.sleb128 0
 17216 2ec2 02000000 		.4byte	.LCFI29
 17217 2ec6 06000000 		.4byte	.LCFI30
 17218 2eca 0200     		.2byte	0x2
 17219 2ecc 7D       		.byte	0x7d
 17220 2ecd 10       		.sleb128 16
 17221 2ece 06000000 		.4byte	.LCFI30
 17222 2ed2 58000000 		.4byte	.LFE31
 17223 2ed6 0200     		.2byte	0x2
 17224 2ed8 7D       		.byte	0x7d
 17225 2ed9 20       		.sleb128 32
 17226 2eda 00000000 		.4byte	0
ARM GAS  /var/folders/dt/0wfd0knj7gs46m8vwfzktm600000gn/T//cczoWvr4.s 			page 304


 17227 2ede 00000000 		.4byte	0
 17228              	.LLST226:
 17229 2ee2 00000000 		.4byte	.LVL628
 17230 2ee6 0A000000 		.4byte	.LVL629
 17231 2eea 0100     		.2byte	0x1
 17232 2eec 50       		.byte	0x50
 17233 2eed 0A000000 		.4byte	.LVL629
 17234 2ef1 58000000 		.4byte	.LFE31
 17235 2ef5 0100     		.2byte	0x1
 17236 2ef7 54       		.byte	0x54
 17237 2ef8 00000000 		.4byte	0
 17238 2efc 00000000 		.4byte	0
 17239              	.LLST227:
 17240 2f00 00000000 		.4byte	.LVL628
 17241 2f04 0C000000 		.4byte	.LVL630
 17242 2f08 0100     		.2byte	0x1
 17243 2f0a 51       		.byte	0x51
 17244 2f0b 0C000000 		.4byte	.LVL630
 17245 2f0f 58000000 		.4byte	.LFE31
 17246 2f13 0100     		.2byte	0x1
 17247 2f15 56       		.byte	0x56
 17248 2f16 00000000 		.4byte	0
 17249 2f1a 00000000 		.4byte	0
 17250              	.LLST228:
 17251 2f1e 10000000 		.4byte	.LVL631
 17252 2f22 1C000000 		.4byte	.LVL632
 17253 2f26 0100     		.2byte	0x1
 17254 2f28 50       		.byte	0x50
 17255 2f29 20000000 		.4byte	.LVL633
 17256 2f2d 2A000000 		.4byte	.LVL634
 17257 2f31 0100     		.2byte	0x1
 17258 2f33 50       		.byte	0x50
 17259 2f34 2C000000 		.4byte	.LVL635
 17260 2f38 32000000 		.4byte	.LVL636
 17261 2f3c 0100     		.2byte	0x1
 17262 2f3e 55       		.byte	0x55
 17263 2f3f 32000000 		.4byte	.LVL636
 17264 2f43 36000000 		.4byte	.LVL637
 17265 2f47 0100     		.2byte	0x1
 17266 2f49 50       		.byte	0x50
 17267 2f4a 42000000 		.4byte	.LVL639
 17268 2f4e 4A000000 		.4byte	.LVL640
 17269 2f52 0100     		.2byte	0x1
 17270 2f54 50       		.byte	0x50
 17271 2f55 4A000000 		.4byte	.LVL640
 17272 2f59 4C000000 		.4byte	.LVL641
 17273 2f5d 0200     		.2byte	0x2
 17274 2f5f 30       		.byte	0x30
 17275 2f60 9F       		.byte	0x9f
 17276 2f61 4C000000 		.4byte	.LVL641
 17277 2f65 50000000 		.4byte	.LVL642
 17278 2f69 0100     		.2byte	0x1
 17279 2f6b 50       		.byte	0x50
 17280 2f6c 56000000 		.4byte	.LVL644
 17281 2f70 58000000 		.4byte	.LFE31
 17282 2f74 0100     		.2byte	0x1
 17283 2f76 50       		.byte	0x50
ARM GAS  /var/folders/dt/0wfd0knj7gs46m8vwfzktm600000gn/T//cczoWvr4.s 			page 305


 17284 2f77 00000000 		.4byte	0
 17285 2f7b 00000000 		.4byte	0
 17286              	.LLST229:
 17287 2f7f 00000000 		.4byte	.LFB32
 17288 2f83 02000000 		.4byte	.LCFI31
 17289 2f87 0200     		.2byte	0x2
 17290 2f89 7D       		.byte	0x7d
 17291 2f8a 00       		.sleb128 0
 17292 2f8b 02000000 		.4byte	.LCFI31
 17293 2f8f 04000000 		.4byte	.LCFI32
 17294 2f93 0200     		.2byte	0x2
 17295 2f95 7D       		.byte	0x7d
 17296 2f96 0C       		.sleb128 12
 17297 2f97 04000000 		.4byte	.LCFI32
 17298 2f9b 44000000 		.4byte	.LFE32
 17299 2f9f 0300     		.2byte	0x3
 17300 2fa1 7D       		.byte	0x7d
 17301 2fa2 C000     		.sleb128 64
 17302 2fa4 00000000 		.4byte	0
 17303 2fa8 00000000 		.4byte	0
 17304              	.LLST230:
 17305 2fac 00000000 		.4byte	.LVL645
 17306 2fb0 0E000000 		.4byte	.LVL646
 17307 2fb4 0100     		.2byte	0x1
 17308 2fb6 50       		.byte	0x50
 17309 2fb7 0E000000 		.4byte	.LVL646
 17310 2fbb 1A000000 		.4byte	.LVL649
 17311 2fbf 0200     		.2byte	0x2
 17312 2fc1 73       		.byte	0x73
 17313 2fc2 54       		.sleb128 -44
 17314 2fc3 1A000000 		.4byte	.LVL649
 17315 2fc7 20000000 		.4byte	.LVL650
 17316 2fcb 0200     		.2byte	0x2
 17317 2fcd 91       		.byte	0x91
 17318 2fce 44       		.sleb128 -60
 17319 2fcf 20000000 		.4byte	.LVL650
 17320 2fd3 44000000 		.4byte	.LFE32
 17321 2fd7 0200     		.2byte	0x2
 17322 2fd9 73       		.byte	0x73
 17323 2fda 54       		.sleb128 -44
 17324 2fdb 00000000 		.4byte	0
 17325 2fdf 00000000 		.4byte	0
 17326              	.LLST231:
 17327 2fe3 00000000 		.4byte	.LVL645
 17328 2fe7 10000000 		.4byte	.LVL647
 17329 2feb 0100     		.2byte	0x1
 17330 2fed 51       		.byte	0x51
 17331 2fee 10000000 		.4byte	.LVL647
 17332 2ff2 44000000 		.4byte	.LFE32
 17333 2ff6 0100     		.2byte	0x1
 17334 2ff8 55       		.byte	0x55
 17335 2ff9 00000000 		.4byte	0
 17336 2ffd 00000000 		.4byte	0
 17337              	.LLST232:
 17338 3001 16000000 		.4byte	.LVL648
 17339 3005 1A000000 		.4byte	.LVL649
 17340 3009 0100     		.2byte	0x1
ARM GAS  /var/folders/dt/0wfd0knj7gs46m8vwfzktm600000gn/T//cczoWvr4.s 			page 306


 17341 300b 50       		.byte	0x50
 17342 300c 1A000000 		.4byte	.LVL649
 17343 3010 20000000 		.4byte	.LVL650
 17344 3014 0100     		.2byte	0x1
 17345 3016 54       		.byte	0x54
 17346 3017 20000000 		.4byte	.LVL650
 17347 301b 24000000 		.4byte	.LVL651
 17348 301f 0100     		.2byte	0x1
 17349 3021 50       		.byte	0x50
 17350 3022 2C000000 		.4byte	.LVL652
 17351 3026 38000000 		.4byte	.LVL653
 17352 302a 0100     		.2byte	0x1
 17353 302c 50       		.byte	0x50
 17354 302d 40000000 		.4byte	.LVL655
 17355 3031 44000000 		.4byte	.LFE32
 17356 3035 0100     		.2byte	0x1
 17357 3037 50       		.byte	0x50
 17358 3038 00000000 		.4byte	0
 17359 303c 00000000 		.4byte	0
 17360              	.LLST233:
 17361 3040 00000000 		.4byte	.LFB33
 17362 3044 04000000 		.4byte	.LCFI33
 17363 3048 0200     		.2byte	0x2
 17364 304a 7D       		.byte	0x7d
 17365 304b 00       		.sleb128 0
 17366 304c 04000000 		.4byte	.LCFI33
 17367 3050 06000000 		.4byte	.LCFI34
 17368 3054 0200     		.2byte	0x2
 17369 3056 7D       		.byte	0x7d
 17370 3057 24       		.sleb128 36
 17371 3058 06000000 		.4byte	.LCFI34
 17372 305c 0E010000 		.4byte	.LFE33
 17373 3060 0200     		.2byte	0x2
 17374 3062 7D       		.byte	0x7d
 17375 3063 30       		.sleb128 48
 17376 3064 00000000 		.4byte	0
 17377 3068 00000000 		.4byte	0
 17378              	.LLST234:
 17379 306c 00000000 		.4byte	.LVL656
 17380 3070 12000000 		.4byte	.LVL657
 17381 3074 0100     		.2byte	0x1
 17382 3076 50       		.byte	0x50
 17383 3077 12000000 		.4byte	.LVL657
 17384 307b 0E010000 		.4byte	.LFE33
 17385 307f 0200     		.2byte	0x2
 17386 3081 73       		.byte	0x73
 17387 3082 7C       		.sleb128 -4
 17388 3083 00000000 		.4byte	0
 17389 3087 00000000 		.4byte	0
 17390              	.LLST235:
 17391 308b 00000000 		.4byte	.LVL656
 17392 308f 14000000 		.4byte	.LVL658
 17393 3093 0100     		.2byte	0x1
 17394 3095 51       		.byte	0x51
 17395 3096 14000000 		.4byte	.LVL658
 17396 309a 0E010000 		.4byte	.LFE33
 17397 309e 0100     		.2byte	0x1
ARM GAS  /var/folders/dt/0wfd0knj7gs46m8vwfzktm600000gn/T//cczoWvr4.s 			page 307


 17398 30a0 59       		.byte	0x59
 17399 30a1 00000000 		.4byte	0
 17400 30a5 00000000 		.4byte	0
 17401              	.LLST236:
 17402 30a9 00000000 		.4byte	.LVL656
 17403 30ad 16000000 		.4byte	.LVL659
 17404 30b1 0100     		.2byte	0x1
 17405 30b3 52       		.byte	0x52
 17406 30b4 16000000 		.4byte	.LVL659
 17407 30b8 19000000 		.4byte	.LVL660-1
 17408 30bc 0100     		.2byte	0x1
 17409 30be 51       		.byte	0x51
 17410 30bf 19000000 		.4byte	.LVL660-1
 17411 30c3 0E010000 		.4byte	.LFE33
 17412 30c7 0100     		.2byte	0x1
 17413 30c9 58       		.byte	0x58
 17414 30ca 00000000 		.4byte	0
 17415 30ce 00000000 		.4byte	0
 17416              	.LLST237:
 17417 30d2 1A000000 		.4byte	.LVL660
 17418 30d6 46000000 		.4byte	.LVL664
 17419 30da 0100     		.2byte	0x1
 17420 30dc 50       		.byte	0x50
 17421 30dd 46000000 		.4byte	.LVL664
 17422 30e1 74000000 		.4byte	.LVL669
 17423 30e5 0200     		.2byte	0x2
 17424 30e7 30       		.byte	0x30
 17425 30e8 9F       		.byte	0x9f
 17426 30e9 74000000 		.4byte	.LVL669
 17427 30ed 82000000 		.4byte	.LVL670
 17428 30f1 0100     		.2byte	0x1
 17429 30f3 57       		.byte	0x57
 17430 30f4 8A000000 		.4byte	.LVL671
 17431 30f8 96000000 		.4byte	.LVL673
 17432 30fc 0200     		.2byte	0x2
 17433 30fe 30       		.byte	0x30
 17434 30ff 9F       		.byte	0x9f
 17435 3100 96000000 		.4byte	.LVL673
 17436 3104 AA000000 		.4byte	.LVL675
 17437 3108 0100     		.2byte	0x1
 17438 310a 50       		.byte	0x50
 17439 310b AA000000 		.4byte	.LVL675
 17440 310f C0000000 		.4byte	.LVL679
 17441 3113 0200     		.2byte	0x2
 17442 3115 30       		.byte	0x30
 17443 3116 9F       		.byte	0x9f
 17444 3117 C0000000 		.4byte	.LVL679
 17445 311b CA000000 		.4byte	.LVL680
 17446 311f 0100     		.2byte	0x1
 17447 3121 57       		.byte	0x57
 17448 3122 CA000000 		.4byte	.LVL680
 17449 3126 CE000000 		.4byte	.LVL681
 17450 312a 0100     		.2byte	0x1
 17451 312c 50       		.byte	0x50
 17452 312d F0000000 		.4byte	.LVL685
 17453 3131 FA000000 		.4byte	.LVL686
 17454 3135 0100     		.2byte	0x1
ARM GAS  /var/folders/dt/0wfd0knj7gs46m8vwfzktm600000gn/T//cczoWvr4.s 			page 308


 17455 3137 57       		.byte	0x57
 17456 3138 FA000000 		.4byte	.LVL686
 17457 313c FE000000 		.4byte	.LVL687
 17458 3140 0100     		.2byte	0x1
 17459 3142 50       		.byte	0x50
 17460 3143 00000000 		.4byte	0
 17461 3147 00000000 		.4byte	0
 17462              	.LLST238:
 17463 314b 36000000 		.4byte	.LVL661
 17464 314f 46000000 		.4byte	.LVL664
 17465 3153 0200     		.2byte	0x2
 17466 3155 30       		.byte	0x30
 17467 3156 9F       		.byte	0x9f
 17468 3157 46000000 		.4byte	.LVL664
 17469 315b 82000000 		.4byte	.LVL670
 17470 315f 0100     		.2byte	0x1
 17471 3161 5A       		.byte	0x5a
 17472 3162 8A000000 		.4byte	.LVL671
 17473 3166 CA000000 		.4byte	.LVL680
 17474 316a 0100     		.2byte	0x1
 17475 316c 5A       		.byte	0x5a
 17476 316d CA000000 		.4byte	.LVL680
 17477 3171 CE000000 		.4byte	.LVL681
 17478 3175 0200     		.2byte	0x2
 17479 3177 30       		.byte	0x30
 17480 3178 9F       		.byte	0x9f
 17481 3179 CE000000 		.4byte	.LVL681
 17482 317d 0E010000 		.4byte	.LFE33
 17483 3181 0100     		.2byte	0x1
 17484 3183 5A       		.byte	0x5a
 17485 3184 00000000 		.4byte	0
 17486 3188 00000000 		.4byte	0
 17487              	.LLST239:
 17488 318c 3C000000 		.4byte	.LVL662
 17489 3190 70000000 		.4byte	.LVL667
 17490 3194 0100     		.2byte	0x1
 17491 3196 54       		.byte	0x54
 17492 3197 70000000 		.4byte	.LVL667
 17493 319b 72000000 		.4byte	.LVL668
 17494 319f 0300     		.2byte	0x3
 17495 31a1 74       		.byte	0x74
 17496 31a2 7F       		.sleb128 -1
 17497 31a3 9F       		.byte	0x9f
 17498 31a4 72000000 		.4byte	.LVL668
 17499 31a8 82000000 		.4byte	.LVL670
 17500 31ac 0100     		.2byte	0x1
 17501 31ae 54       		.byte	0x54
 17502 31af 8A000000 		.4byte	.LVL671
 17503 31b3 CA000000 		.4byte	.LVL680
 17504 31b7 0100     		.2byte	0x1
 17505 31b9 54       		.byte	0x54
 17506 31ba CE000000 		.4byte	.LVL681
 17507 31be D8000000 		.4byte	.LVL683
 17508 31c2 0100     		.2byte	0x1
 17509 31c4 54       		.byte	0x54
 17510 31c5 D8000000 		.4byte	.LVL683
 17511 31c9 E6000000 		.4byte	.LVL684
ARM GAS  /var/folders/dt/0wfd0knj7gs46m8vwfzktm600000gn/T//cczoWvr4.s 			page 309


 17512 31cd 0300     		.2byte	0x3
 17513 31cf 74       		.byte	0x74
 17514 31d0 7F       		.sleb128 -1
 17515 31d1 9F       		.byte	0x9f
 17516 31d2 E6000000 		.4byte	.LVL684
 17517 31d6 F0000000 		.4byte	.LVL685
 17518 31da 0100     		.2byte	0x1
 17519 31dc 54       		.byte	0x54
 17520 31dd FA000000 		.4byte	.LVL686
 17521 31e1 FE000000 		.4byte	.LVL687
 17522 31e5 0100     		.2byte	0x1
 17523 31e7 54       		.byte	0x54
 17524 31e8 FE000000 		.4byte	.LVL687
 17525 31ec 0E010000 		.4byte	.LFE33
 17526 31f0 0300     		.2byte	0x3
 17527 31f2 74       		.byte	0x74
 17528 31f3 7F       		.sleb128 -1
 17529 31f4 9F       		.byte	0x9f
 17530 31f5 00000000 		.4byte	0
 17531 31f9 00000000 		.4byte	0
 17532              	.LLST240:
 17533 31fd 40000000 		.4byte	.LVL663
 17534 3201 74000000 		.4byte	.LVL669
 17535 3205 0100     		.2byte	0x1
 17536 3207 5C       		.byte	0x5c
 17537 3208 8A000000 		.4byte	.LVL671
 17538 320c 92000000 		.4byte	.LVL672
 17539 3210 0100     		.2byte	0x1
 17540 3212 5C       		.byte	0x5c
 17541 3213 92000000 		.4byte	.LVL672
 17542 3217 AA000000 		.4byte	.LVL675
 17543 321b 0100     		.2byte	0x1
 17544 321d 56       		.byte	0x56
 17545 321e AA000000 		.4byte	.LVL675
 17546 3222 C0000000 		.4byte	.LVL679
 17547 3226 0100     		.2byte	0x1
 17548 3228 5C       		.byte	0x5c
 17549 3229 FA000000 		.4byte	.LVL686
 17550 322d FE000000 		.4byte	.LVL687
 17551 3231 0100     		.2byte	0x1
 17552 3233 56       		.byte	0x56
 17553 3234 00000000 		.4byte	0
 17554 3238 00000000 		.4byte	0
 17555              	.LLST241:
 17556 323c D6000000 		.4byte	.LVL682
 17557 3240 FA000000 		.4byte	.LVL686
 17558 3244 0100     		.2byte	0x1
 17559 3246 50       		.byte	0x50
 17560 3247 FE000000 		.4byte	.LVL687
 17561 324b 0E010000 		.4byte	.LFE33
 17562 324f 0100     		.2byte	0x1
 17563 3251 50       		.byte	0x50
 17564 3252 00000000 		.4byte	0
 17565 3256 00000000 		.4byte	0
 17566              	.LLST242:
 17567 325a 40000000 		.4byte	.LVL663
 17568 325e 46000000 		.4byte	.LVL664
ARM GAS  /var/folders/dt/0wfd0knj7gs46m8vwfzktm600000gn/T//cczoWvr4.s 			page 310


 17569 3262 0200     		.2byte	0x2
 17570 3264 30       		.byte	0x30
 17571 3265 9F       		.byte	0x9f
 17572 3266 46000000 		.4byte	.LVL664
 17573 326a 74000000 		.4byte	.LVL669
 17574 326e 0100     		.2byte	0x1
 17575 3270 56       		.byte	0x56
 17576 3271 8A000000 		.4byte	.LVL671
 17577 3275 92000000 		.4byte	.LVL672
 17578 3279 0100     		.2byte	0x1
 17579 327b 56       		.byte	0x56
 17580 327c A6000000 		.4byte	.LVL674
 17581 3280 AA000000 		.4byte	.LVL675
 17582 3284 0400     		.2byte	0x4
 17583 3286 0A       		.byte	0xa
 17584 3287 0002     		.2byte	0x200
 17585 3289 9F       		.byte	0x9f
 17586 328a AA000000 		.4byte	.LVL675
 17587 328e C0000000 		.4byte	.LVL679
 17588 3292 0100     		.2byte	0x1
 17589 3294 56       		.byte	0x56
 17590 3295 00000000 		.4byte	0
 17591 3299 00000000 		.4byte	0
 17592              	.LLST243:
 17593 329d 36000000 		.4byte	.LVL661
 17594 32a1 46000000 		.4byte	.LVL664
 17595 32a5 0200     		.2byte	0x2
 17596 32a7 75       		.byte	0x75
 17597 32a8 00       		.sleb128 0
 17598 32a9 46000000 		.4byte	.LVL664
 17599 32ad 82000000 		.4byte	.LVL670
 17600 32b1 0100     		.2byte	0x1
 17601 32b3 5B       		.byte	0x5b
 17602 32b4 8A000000 		.4byte	.LVL671
 17603 32b8 CA000000 		.4byte	.LVL680
 17604 32bc 0100     		.2byte	0x1
 17605 32be 5B       		.byte	0x5b
 17606 32bf CA000000 		.4byte	.LVL680
 17607 32c3 CE000000 		.4byte	.LVL681
 17608 32c7 0200     		.2byte	0x2
 17609 32c9 75       		.byte	0x75
 17610 32ca 00       		.sleb128 0
 17611 32cb CE000000 		.4byte	.LVL681
 17612 32cf 0E010000 		.4byte	.LFE33
 17613 32d3 0100     		.2byte	0x1
 17614 32d5 5B       		.byte	0x5b
 17615 32d6 00000000 		.4byte	0
 17616 32da 00000000 		.4byte	0
 17617              	.LLST244:
 17618 32de 40000000 		.4byte	.LVL663
 17619 32e2 46000000 		.4byte	.LVL664
 17620 32e6 0200     		.2byte	0x2
 17621 32e8 30       		.byte	0x30
 17622 32e9 9F       		.byte	0x9f
 17623 32ea 46000000 		.4byte	.LVL664
 17624 32ee 74000000 		.4byte	.LVL669
 17625 32f2 0100     		.2byte	0x1
ARM GAS  /var/folders/dt/0wfd0knj7gs46m8vwfzktm600000gn/T//cczoWvr4.s 			page 311


 17626 32f4 53       		.byte	0x53
 17627 32f5 8A000000 		.4byte	.LVL671
 17628 32f9 95000000 		.4byte	.LVL673-1
 17629 32fd 0100     		.2byte	0x1
 17630 32ff 53       		.byte	0x53
 17631 3300 A6000000 		.4byte	.LVL674
 17632 3304 C0000000 		.4byte	.LVL679
 17633 3308 0100     		.2byte	0x1
 17634 330a 53       		.byte	0x53
 17635 330b 00000000 		.4byte	0
 17636 330f 00000000 		.4byte	0
 17637              	.LLST245:
 17638 3313 00000000 		.4byte	.LFB34
 17639 3317 02000000 		.4byte	.LCFI35
 17640 331b 0200     		.2byte	0x2
 17641 331d 7D       		.byte	0x7d
 17642 331e 00       		.sleb128 0
 17643 331f 02000000 		.4byte	.LCFI35
 17644 3323 92000000 		.4byte	.LFE34
 17645 3327 0200     		.2byte	0x2
 17646 3329 7D       		.byte	0x7d
 17647 332a 10       		.sleb128 16
 17648 332b 00000000 		.4byte	0
 17649 332f 00000000 		.4byte	0
 17650              	.LLST246:
 17651 3333 00000000 		.4byte	.LVL688
 17652 3337 08000000 		.4byte	.LVL689
 17653 333b 0100     		.2byte	0x1
 17654 333d 50       		.byte	0x50
 17655 333e 08000000 		.4byte	.LVL689
 17656 3342 92000000 		.4byte	.LFE34
 17657 3346 0100     		.2byte	0x1
 17658 3348 54       		.byte	0x54
 17659 3349 00000000 		.4byte	0
 17660 334d 00000000 		.4byte	0
 17661              	.LLST247:
 17662 3351 0C000000 		.4byte	.LVL690
 17663 3355 1E000000 		.4byte	.LVL691
 17664 3359 0100     		.2byte	0x1
 17665 335b 50       		.byte	0x50
 17666 335c 1E000000 		.4byte	.LVL691
 17667 3360 3C000000 		.4byte	.LVL693
 17668 3364 0200     		.2byte	0x2
 17669 3366 30       		.byte	0x30
 17670 3367 9F       		.byte	0x9f
 17671 3368 3C000000 		.4byte	.LVL693
 17672 336c 3E000000 		.4byte	.LVL694
 17673 3370 0100     		.2byte	0x1
 17674 3372 55       		.byte	0x55
 17675 3373 4A000000 		.4byte	.LVL695
 17676 3377 4C000000 		.4byte	.LVL696
 17677 337b 0100     		.2byte	0x1
 17678 337d 50       		.byte	0x50
 17679 337e 4C000000 		.4byte	.LVL696
 17680 3382 50000000 		.4byte	.LVL697
 17681 3386 0200     		.2byte	0x2
 17682 3388 37       		.byte	0x37
ARM GAS  /var/folders/dt/0wfd0knj7gs46m8vwfzktm600000gn/T//cczoWvr4.s 			page 312


 17683 3389 9F       		.byte	0x9f
 17684 338a 50000000 		.4byte	.LVL697
 17685 338e 54000000 		.4byte	.LVL698
 17686 3392 0100     		.2byte	0x1
 17687 3394 50       		.byte	0x50
 17688 3395 56000000 		.4byte	.LVL699
 17689 3399 78000000 		.4byte	.LVL703
 17690 339d 0200     		.2byte	0x2
 17691 339f 30       		.byte	0x30
 17692 33a0 9F       		.byte	0x9f
 17693 33a1 78000000 		.4byte	.LVL703
 17694 33a5 80000000 		.4byte	.LVL704
 17695 33a9 0100     		.2byte	0x1
 17696 33ab 50       		.byte	0x50
 17697 33ac 88000000 		.4byte	.LVL706
 17698 33b0 8A000000 		.4byte	.LVL707
 17699 33b4 0100     		.2byte	0x1
 17700 33b6 50       		.byte	0x50
 17701 33b7 8A000000 		.4byte	.LVL707
 17702 33bb 92000000 		.4byte	.LFE34
 17703 33bf 0200     		.2byte	0x2
 17704 33c1 30       		.byte	0x30
 17705 33c2 9F       		.byte	0x9f
 17706 33c3 00000000 		.4byte	0
 17707 33c7 00000000 		.4byte	0
 17708              	.LLST248:
 17709 33cb 60000000 		.4byte	.LVL701
 17710 33cf 68000000 		.4byte	.LVL702
 17711 33d3 0100     		.2byte	0x1
 17712 33d5 50       		.byte	0x50
 17713 33d6 68000000 		.4byte	.LVL702
 17714 33da 8A000000 		.4byte	.LVL707
 17715 33de 0100     		.2byte	0x1
 17716 33e0 56       		.byte	0x56
 17717 33e1 8A000000 		.4byte	.LVL707
 17718 33e5 92000000 		.4byte	.LFE34
 17719 33e9 0100     		.2byte	0x1
 17720 33eb 50       		.byte	0x50
 17721 33ec 00000000 		.4byte	0
 17722 33f0 00000000 		.4byte	0
 17723              	.LLST249:
 17724 33f4 00000000 		.4byte	.LFB35
 17725 33f8 02000000 		.4byte	.LCFI36
 17726 33fc 0200     		.2byte	0x2
 17727 33fe 7D       		.byte	0x7d
 17728 33ff 00       		.sleb128 0
 17729 3400 02000000 		.4byte	.LCFI36
 17730 3404 04000000 		.4byte	.LCFI37
 17731 3408 0200     		.2byte	0x2
 17732 340a 7D       		.byte	0x7d
 17733 340b 0C       		.sleb128 12
 17734 340c 04000000 		.4byte	.LCFI37
 17735 3410 AA000000 		.4byte	.LFE35
 17736 3414 0300     		.2byte	0x3
 17737 3416 7D       		.byte	0x7d
 17738 3417 E000     		.sleb128 96
 17739 3419 00000000 		.4byte	0
ARM GAS  /var/folders/dt/0wfd0knj7gs46m8vwfzktm600000gn/T//cczoWvr4.s 			page 313


 17740 341d 00000000 		.4byte	0
 17741              	.LLST250:
 17742 3421 00000000 		.4byte	.LVL708
 17743 3425 0C000000 		.4byte	.LVL709
 17744 3429 0100     		.2byte	0x1
 17745 342b 50       		.byte	0x50
 17746 342c 0C000000 		.4byte	.LVL709
 17747 3430 16000000 		.4byte	.LVL711
 17748 3434 0300     		.2byte	0x3
 17749 3436 73       		.byte	0x73
 17750 3437 B47F     		.sleb128 -76
 17751 3439 16000000 		.4byte	.LVL711
 17752 343d 1A000000 		.4byte	.LVL712
 17753 3441 0300     		.2byte	0x3
 17754 3443 91       		.byte	0x91
 17755 3444 A47F     		.sleb128 -92
 17756 3446 1A000000 		.4byte	.LVL712
 17757 344a AA000000 		.4byte	.LFE35
 17758 344e 0300     		.2byte	0x3
 17759 3450 73       		.byte	0x73
 17760 3451 B47F     		.sleb128 -76
 17761 3453 00000000 		.4byte	0
 17762 3457 00000000 		.4byte	0
 17763              	.LLST251:
 17764 345b 14000000 		.4byte	.LVL710
 17765 345f 16000000 		.4byte	.LVL711
 17766 3463 0100     		.2byte	0x1
 17767 3465 50       		.byte	0x50
 17768 3466 1A000000 		.4byte	.LVL712
 17769 346a 1E000000 		.4byte	.LVL713
 17770 346e 0100     		.2byte	0x1
 17771 3470 50       		.byte	0x50
 17772 3471 26000000 		.4byte	.LVL714
 17773 3475 2E000000 		.4byte	.LVL716
 17774 3479 0100     		.2byte	0x1
 17775 347b 50       		.byte	0x50
 17776 347c 3A000000 		.4byte	.LVL717
 17777 3480 74000000 		.4byte	.LVL724
 17778 3484 0200     		.2byte	0x2
 17779 3486 30       		.byte	0x30
 17780 3487 9F       		.byte	0x9f
 17781 3488 74000000 		.4byte	.LVL724
 17782 348c 7A000000 		.4byte	.LVL725
 17783 3490 0100     		.2byte	0x1
 17784 3492 50       		.byte	0x50
 17785 3493 7E000000 		.4byte	.LVL726
 17786 3497 84000000 		.4byte	.LVL727
 17787 349b 0100     		.2byte	0x1
 17788 349d 50       		.byte	0x50
 17789 349e 84000000 		.4byte	.LVL727
 17790 34a2 8A000000 		.4byte	.LVL728
 17791 34a6 0200     		.2byte	0x2
 17792 34a8 30       		.byte	0x30
 17793 34a9 9F       		.byte	0x9f
 17794 34aa 8A000000 		.4byte	.LVL728
 17795 34ae 92000000 		.4byte	.LVL729
 17796 34b2 0100     		.2byte	0x1
ARM GAS  /var/folders/dt/0wfd0knj7gs46m8vwfzktm600000gn/T//cczoWvr4.s 			page 314


 17797 34b4 50       		.byte	0x50
 17798 34b5 96000000 		.4byte	.LVL730
 17799 34b9 98000000 		.4byte	.LVL731
 17800 34bd 0100     		.2byte	0x1
 17801 34bf 50       		.byte	0x50
 17802 34c0 9A000000 		.4byte	.LVL732
 17803 34c4 9E000000 		.4byte	.LVL733
 17804 34c8 0100     		.2byte	0x1
 17805 34ca 50       		.byte	0x50
 17806 34cb A4000000 		.4byte	.LVL734
 17807 34cf AA000000 		.4byte	.LFE35
 17808 34d3 0100     		.2byte	0x1
 17809 34d5 50       		.byte	0x50
 17810 34d6 00000000 		.4byte	0
 17811 34da 00000000 		.4byte	0
 17812              	.LLST252:
 17813 34de 2C000000 		.4byte	.LVL715
 17814 34e2 42000000 		.4byte	.LVL720
 17815 34e6 0100     		.2byte	0x1
 17816 34e8 52       		.byte	0x52
 17817 34e9 42000000 		.4byte	.LVL720
 17818 34ed 73000000 		.4byte	.LVL724-1
 17819 34f1 0200     		.2byte	0x2
 17820 34f3 91       		.byte	0x91
 17821 34f4 4C       		.sleb128 -52
 17822 34f5 00000000 		.4byte	0
 17823 34f9 00000000 		.4byte	0
 17824              	.LLST253:
 17825 34fd 3A000000 		.4byte	.LVL717
 17826 3501 3C000000 		.4byte	.LVL718
 17827 3505 2E00     		.2byte	0x2e
 17828 3507 72       		.byte	0x72
 17829 3508 15       		.sleb128 21
 17830 3509 94       		.byte	0x94
 17831 350a 01       		.byte	0x1
 17832 350b 08       		.byte	0x8
 17833 350c FF       		.byte	0xff
 17834 350d 1A       		.byte	0x1a
 17835 350e 38       		.byte	0x38
 17836 350f 24       		.byte	0x24
 17837 3510 72       		.byte	0x72
 17838 3511 14       		.sleb128 20
 17839 3512 94       		.byte	0x94
 17840 3513 01       		.byte	0x1
 17841 3514 08       		.byte	0x8
 17842 3515 FF       		.byte	0xff
 17843 3516 1A       		.byte	0x1a
 17844 3517 21       		.byte	0x21
 17845 3518 0A       		.byte	0xa
 17846 3519 FFFF     		.2byte	0xffff
 17847 351b 1A       		.byte	0x1a
 17848 351c 40       		.byte	0x40
 17849 351d 24       		.byte	0x24
 17850 351e 72       		.byte	0x72
 17851 351f 1B       		.sleb128 27
 17852 3520 94       		.byte	0x94
 17853 3521 01       		.byte	0x1
ARM GAS  /var/folders/dt/0wfd0knj7gs46m8vwfzktm600000gn/T//cczoWvr4.s 			page 315


 17854 3522 08       		.byte	0x8
 17855 3523 FF       		.byte	0xff
 17856 3524 1A       		.byte	0x1a
 17857 3525 38       		.byte	0x38
 17858 3526 24       		.byte	0x24
 17859 3527 72       		.byte	0x72
 17860 3528 1A       		.sleb128 26
 17861 3529 94       		.byte	0x94
 17862 352a 01       		.byte	0x1
 17863 352b 08       		.byte	0x8
 17864 352c FF       		.byte	0xff
 17865 352d 1A       		.byte	0x1a
 17866 352e 21       		.byte	0x21
 17867 352f 0A       		.byte	0xa
 17868 3530 FFFF     		.2byte	0xffff
 17869 3532 1A       		.byte	0x1a
 17870 3533 21       		.byte	0x21
 17871 3534 9F       		.byte	0x9f
 17872 3535 3C000000 		.4byte	.LVL718
 17873 3539 40000000 		.4byte	.LVL719
 17874 353d 2900     		.2byte	0x29
 17875 353f 75       		.byte	0x75
 17876 3540 00       		.sleb128 0
 17877 3541 38       		.byte	0x38
 17878 3542 24       		.byte	0x24
 17879 3543 72       		.byte	0x72
 17880 3544 14       		.sleb128 20
 17881 3545 94       		.byte	0x94
 17882 3546 01       		.byte	0x1
 17883 3547 08       		.byte	0x8
 17884 3548 FF       		.byte	0xff
 17885 3549 1A       		.byte	0x1a
 17886 354a 21       		.byte	0x21
 17887 354b 0A       		.byte	0xa
 17888 354c FFFF     		.2byte	0xffff
 17889 354e 1A       		.byte	0x1a
 17890 354f 40       		.byte	0x40
 17891 3550 24       		.byte	0x24
 17892 3551 72       		.byte	0x72
 17893 3552 1B       		.sleb128 27
 17894 3553 94       		.byte	0x94
 17895 3554 01       		.byte	0x1
 17896 3555 08       		.byte	0x8
 17897 3556 FF       		.byte	0xff
 17898 3557 1A       		.byte	0x1a
 17899 3558 38       		.byte	0x38
 17900 3559 24       		.byte	0x24
 17901 355a 72       		.byte	0x72
 17902 355b 1A       		.sleb128 26
 17903 355c 94       		.byte	0x94
 17904 355d 01       		.byte	0x1
 17905 355e 08       		.byte	0x8
 17906 355f FF       		.byte	0xff
 17907 3560 1A       		.byte	0x1a
 17908 3561 21       		.byte	0x21
 17909 3562 0A       		.byte	0xa
 17910 3563 FFFF     		.2byte	0xffff
ARM GAS  /var/folders/dt/0wfd0knj7gs46m8vwfzktm600000gn/T//cczoWvr4.s 			page 316


 17911 3565 1A       		.byte	0x1a
 17912 3566 21       		.byte	0x21
 17913 3567 9F       		.byte	0x9f
 17914 3568 40000000 		.4byte	.LVL719
 17915 356c 42000000 		.4byte	.LVL720
 17916 3570 2400     		.2byte	0x24
 17917 3572 75       		.byte	0x75
 17918 3573 00       		.sleb128 0
 17919 3574 38       		.byte	0x38
 17920 3575 24       		.byte	0x24
 17921 3576 72       		.byte	0x72
 17922 3577 14       		.sleb128 20
 17923 3578 94       		.byte	0x94
 17924 3579 01       		.byte	0x1
 17925 357a 08       		.byte	0x8
 17926 357b FF       		.byte	0xff
 17927 357c 1A       		.byte	0x1a
 17928 357d 21       		.byte	0x21
 17929 357e 0A       		.byte	0xa
 17930 357f FFFF     		.2byte	0xffff
 17931 3581 1A       		.byte	0x1a
 17932 3582 40       		.byte	0x40
 17933 3583 24       		.byte	0x24
 17934 3584 70       		.byte	0x70
 17935 3585 00       		.sleb128 0
 17936 3586 38       		.byte	0x38
 17937 3587 24       		.byte	0x24
 17938 3588 72       		.byte	0x72
 17939 3589 1A       		.sleb128 26
 17940 358a 94       		.byte	0x94
 17941 358b 01       		.byte	0x1
 17942 358c 08       		.byte	0x8
 17943 358d FF       		.byte	0xff
 17944 358e 1A       		.byte	0x1a
 17945 358f 21       		.byte	0x21
 17946 3590 0A       		.byte	0xa
 17947 3591 FFFF     		.2byte	0xffff
 17948 3593 1A       		.byte	0x1a
 17949 3594 21       		.byte	0x21
 17950 3595 9F       		.byte	0x9f
 17951 3596 42000000 		.4byte	.LVL720
 17952 359a 4A000000 		.4byte	.LVL721
 17953 359e 2A00     		.2byte	0x2a
 17954 35a0 75       		.byte	0x75
 17955 35a1 00       		.sleb128 0
 17956 35a2 38       		.byte	0x38
 17957 35a3 24       		.byte	0x24
 17958 35a4 91       		.byte	0x91
 17959 35a5 4C       		.sleb128 -52
 17960 35a6 06       		.byte	0x6
 17961 35a7 23       		.byte	0x23
 17962 35a8 14       		.uleb128 0x14
 17963 35a9 94       		.byte	0x94
 17964 35aa 01       		.byte	0x1
 17965 35ab 08       		.byte	0x8
 17966 35ac FF       		.byte	0xff
 17967 35ad 1A       		.byte	0x1a
ARM GAS  /var/folders/dt/0wfd0knj7gs46m8vwfzktm600000gn/T//cczoWvr4.s 			page 317


 17968 35ae 21       		.byte	0x21
 17969 35af 0A       		.byte	0xa
 17970 35b0 FFFF     		.2byte	0xffff
 17971 35b2 1A       		.byte	0x1a
 17972 35b3 40       		.byte	0x40
 17973 35b4 24       		.byte	0x24
 17974 35b5 70       		.byte	0x70
 17975 35b6 00       		.sleb128 0
 17976 35b7 38       		.byte	0x38
 17977 35b8 24       		.byte	0x24
 17978 35b9 91       		.byte	0x91
 17979 35ba 4C       		.sleb128 -52
 17980 35bb 06       		.byte	0x6
 17981 35bc 23       		.byte	0x23
 17982 35bd 1A       		.uleb128 0x1a
 17983 35be 94       		.byte	0x94
 17984 35bf 01       		.byte	0x1
 17985 35c0 08       		.byte	0x8
 17986 35c1 FF       		.byte	0xff
 17987 35c2 1A       		.byte	0x1a
 17988 35c3 21       		.byte	0x21
 17989 35c4 0A       		.byte	0xa
 17990 35c5 FFFF     		.2byte	0xffff
 17991 35c7 1A       		.byte	0x1a
 17992 35c8 21       		.byte	0x21
 17993 35c9 9F       		.byte	0x9f
 17994 35ca 4A000000 		.4byte	.LVL721
 17995 35ce 58000000 		.4byte	.LVL722
 17996 35d2 3200     		.2byte	0x32
 17997 35d4 91       		.byte	0x91
 17998 35d5 4C       		.sleb128 -52
 17999 35d6 06       		.byte	0x6
 18000 35d7 23       		.byte	0x23
 18001 35d8 15       		.uleb128 0x15
 18002 35d9 94       		.byte	0x94
 18003 35da 01       		.byte	0x1
 18004 35db 08       		.byte	0x8
 18005 35dc FF       		.byte	0xff
 18006 35dd 1A       		.byte	0x1a
 18007 35de 38       		.byte	0x38
 18008 35df 24       		.byte	0x24
 18009 35e0 91       		.byte	0x91
 18010 35e1 4C       		.sleb128 -52
 18011 35e2 06       		.byte	0x6
 18012 35e3 23       		.byte	0x23
 18013 35e4 14       		.uleb128 0x14
 18014 35e5 94       		.byte	0x94
 18015 35e6 01       		.byte	0x1
 18016 35e7 08       		.byte	0x8
 18017 35e8 FF       		.byte	0xff
 18018 35e9 1A       		.byte	0x1a
 18019 35ea 21       		.byte	0x21
 18020 35eb 0A       		.byte	0xa
 18021 35ec FFFF     		.2byte	0xffff
 18022 35ee 1A       		.byte	0x1a
 18023 35ef 40       		.byte	0x40
 18024 35f0 24       		.byte	0x24
ARM GAS  /var/folders/dt/0wfd0knj7gs46m8vwfzktm600000gn/T//cczoWvr4.s 			page 318


 18025 35f1 70       		.byte	0x70
 18026 35f2 00       		.sleb128 0
 18027 35f3 38       		.byte	0x38
 18028 35f4 24       		.byte	0x24
 18029 35f5 91       		.byte	0x91
 18030 35f6 4C       		.sleb128 -52
 18031 35f7 06       		.byte	0x6
 18032 35f8 23       		.byte	0x23
 18033 35f9 1A       		.uleb128 0x1a
 18034 35fa 94       		.byte	0x94
 18035 35fb 01       		.byte	0x1
 18036 35fc 08       		.byte	0x8
 18037 35fd FF       		.byte	0xff
 18038 35fe 1A       		.byte	0x1a
 18039 35ff 21       		.byte	0x21
 18040 3600 0A       		.byte	0xa
 18041 3601 FFFF     		.2byte	0xffff
 18042 3603 1A       		.byte	0x1a
 18043 3604 21       		.byte	0x21
 18044 3605 9F       		.byte	0x9f
 18045 3606 58000000 		.4byte	.LVL722
 18046 360a 73000000 		.4byte	.LVL724-1
 18047 360e 3A00     		.2byte	0x3a
 18048 3610 91       		.byte	0x91
 18049 3611 4C       		.sleb128 -52
 18050 3612 06       		.byte	0x6
 18051 3613 23       		.byte	0x23
 18052 3614 15       		.uleb128 0x15
 18053 3615 94       		.byte	0x94
 18054 3616 01       		.byte	0x1
 18055 3617 08       		.byte	0x8
 18056 3618 FF       		.byte	0xff
 18057 3619 1A       		.byte	0x1a
 18058 361a 38       		.byte	0x38
 18059 361b 24       		.byte	0x24
 18060 361c 91       		.byte	0x91
 18061 361d 4C       		.sleb128 -52
 18062 361e 06       		.byte	0x6
 18063 361f 23       		.byte	0x23
 18064 3620 14       		.uleb128 0x14
 18065 3621 94       		.byte	0x94
 18066 3622 01       		.byte	0x1
 18067 3623 08       		.byte	0x8
 18068 3624 FF       		.byte	0xff
 18069 3625 1A       		.byte	0x1a
 18070 3626 21       		.byte	0x21
 18071 3627 0A       		.byte	0xa
 18072 3628 FFFF     		.2byte	0xffff
 18073 362a 1A       		.byte	0x1a
 18074 362b 40       		.byte	0x40
 18075 362c 24       		.byte	0x24
 18076 362d 91       		.byte	0x91
 18077 362e 4C       		.sleb128 -52
 18078 362f 06       		.byte	0x6
 18079 3630 23       		.byte	0x23
 18080 3631 1B       		.uleb128 0x1b
 18081 3632 94       		.byte	0x94
ARM GAS  /var/folders/dt/0wfd0knj7gs46m8vwfzktm600000gn/T//cczoWvr4.s 			page 319


 18082 3633 01       		.byte	0x1
 18083 3634 08       		.byte	0x8
 18084 3635 FF       		.byte	0xff
 18085 3636 1A       		.byte	0x1a
 18086 3637 38       		.byte	0x38
 18087 3638 24       		.byte	0x24
 18088 3639 91       		.byte	0x91
 18089 363a 4C       		.sleb128 -52
 18090 363b 06       		.byte	0x6
 18091 363c 23       		.byte	0x23
 18092 363d 1A       		.uleb128 0x1a
 18093 363e 94       		.byte	0x94
 18094 363f 01       		.byte	0x1
 18095 3640 08       		.byte	0x8
 18096 3641 FF       		.byte	0xff
 18097 3642 1A       		.byte	0x1a
 18098 3643 21       		.byte	0x21
 18099 3644 0A       		.byte	0xa
 18100 3645 FFFF     		.2byte	0xffff
 18101 3647 1A       		.byte	0x1a
 18102 3648 21       		.byte	0x21
 18103 3649 9F       		.byte	0x9f
 18104 364a 00000000 		.4byte	0
 18105 364e 00000000 		.4byte	0
 18106              	.LLST254:
 18107 3652 00000000 		.4byte	.LFB36
 18108 3656 04000000 		.4byte	.LCFI38
 18109 365a 0200     		.2byte	0x2
 18110 365c 7D       		.byte	0x7d
 18111 365d 00       		.sleb128 0
 18112 365e 04000000 		.4byte	.LCFI38
 18113 3662 06000000 		.4byte	.LCFI39
 18114 3666 0200     		.2byte	0x2
 18115 3668 7D       		.byte	0x7d
 18116 3669 24       		.sleb128 36
 18117 366a 06000000 		.4byte	.LCFI39
 18118 366e 08020000 		.4byte	.LFE36
 18119 3672 0300     		.2byte	0x3
 18120 3674 7D       		.byte	0x7d
 18121 3675 F000     		.sleb128 112
 18122 3677 00000000 		.4byte	0
 18123 367b 00000000 		.4byte	0
 18124              	.LLST255:
 18125 367f 00000000 		.4byte	.LVL735
 18126 3683 0F000000 		.4byte	.LVL736-1
 18127 3687 0100     		.2byte	0x1
 18128 3689 50       		.byte	0x50
 18129 368a 0F000000 		.4byte	.LVL736-1
 18130 368e 22000000 		.4byte	.LVL741
 18131 3692 0200     		.2byte	0x2
 18132 3694 74       		.byte	0x74
 18133 3695 54       		.sleb128 -44
 18134 3696 22000000 		.4byte	.LVL741
 18135 369a 2A000000 		.4byte	.LVL742
 18136 369e 0300     		.2byte	0x3
 18137 36a0 91       		.byte	0x91
 18138 36a1 AC7F     		.sleb128 -84
ARM GAS  /var/folders/dt/0wfd0knj7gs46m8vwfzktm600000gn/T//cczoWvr4.s 			page 320


 18139 36a3 2A000000 		.4byte	.LVL742
 18140 36a7 08020000 		.4byte	.LFE36
 18141 36ab 0200     		.2byte	0x2
 18142 36ad 74       		.byte	0x74
 18143 36ae 54       		.sleb128 -44
 18144 36af 00000000 		.4byte	0
 18145 36b3 00000000 		.4byte	0
 18146              	.LLST256:
 18147 36b7 20000000 		.4byte	.LVL740
 18148 36bb 22000000 		.4byte	.LVL741
 18149 36bf 0100     		.2byte	0x1
 18150 36c1 50       		.byte	0x50
 18151 36c2 2A000000 		.4byte	.LVL742
 18152 36c6 2E000000 		.4byte	.LVL743
 18153 36ca 0100     		.2byte	0x1
 18154 36cc 50       		.byte	0x50
 18155 36cd 2E000000 		.4byte	.LVL743
 18156 36d1 35000000 		.4byte	.LVL744-1
 18157 36d5 0100     		.2byte	0x1
 18158 36d7 52       		.byte	0x52
 18159 36d8 35000000 		.4byte	.LVL744-1
 18160 36dc 36000000 		.4byte	.LVL744
 18161 36e0 0100     		.2byte	0x1
 18162 36e2 54       		.byte	0x54
 18163 36e3 36000000 		.4byte	.LVL744
 18164 36e7 44000000 		.4byte	.LVL745
 18165 36eb 0100     		.2byte	0x1
 18166 36ed 50       		.byte	0x50
 18167 36ee 44000000 		.4byte	.LVL745
 18168 36f2 49000000 		.4byte	.LVL746-1
 18169 36f6 0100     		.2byte	0x1
 18170 36f8 52       		.byte	0x52
 18171 36f9 4A000000 		.4byte	.LVL746
 18172 36fd 6C000000 		.4byte	.LVL748
 18173 3701 0200     		.2byte	0x2
 18174 3703 30       		.byte	0x30
 18175 3704 9F       		.byte	0x9f
 18176 3705 6C000000 		.4byte	.LVL748
 18177 3709 7C000000 		.4byte	.LVL751
 18178 370d 0100     		.2byte	0x1
 18179 370f 50       		.byte	0x50
 18180 3710 64010000 		.4byte	.LVL766
 18181 3714 84010000 		.4byte	.LVL769
 18182 3718 0200     		.2byte	0x2
 18183 371a 30       		.byte	0x30
 18184 371b 9F       		.byte	0x9f
 18185 371c 84010000 		.4byte	.LVL769
 18186 3720 90010000 		.4byte	.LVL771
 18187 3724 0100     		.2byte	0x1
 18188 3726 50       		.byte	0x50
 18189 3727 90010000 		.4byte	.LVL771
 18190 372b 98010000 		.4byte	.LVL772
 18191 372f 0200     		.2byte	0x2
 18192 3731 30       		.byte	0x30
 18193 3732 9F       		.byte	0x9f
 18194 3733 98010000 		.4byte	.LVL772
 18195 3737 9A010000 		.4byte	.LVL773
ARM GAS  /var/folders/dt/0wfd0knj7gs46m8vwfzktm600000gn/T//cczoWvr4.s 			page 321


 18196 373b 0100     		.2byte	0x1
 18197 373d 50       		.byte	0x50
 18198 373e 9A010000 		.4byte	.LVL773
 18199 3742 9C010000 		.4byte	.LVL774
 18200 3746 0100     		.2byte	0x1
 18201 3748 52       		.byte	0x52
 18202 3749 9C010000 		.4byte	.LVL774
 18203 374d 9E010000 		.4byte	.LVL775
 18204 3751 0200     		.2byte	0x2
 18205 3753 30       		.byte	0x30
 18206 3754 9F       		.byte	0x9f
 18207 3755 AC010000 		.4byte	.LVL777
 18208 3759 B0010000 		.4byte	.LVL778
 18209 375d 0100     		.2byte	0x1
 18210 375f 50       		.byte	0x50
 18211 3760 B0010000 		.4byte	.LVL778
 18212 3764 B6010000 		.4byte	.LVL779
 18213 3768 0200     		.2byte	0x2
 18214 376a 30       		.byte	0x30
 18215 376b 9F       		.byte	0x9f
 18216 376c B6010000 		.4byte	.LVL779
 18217 3770 EE010000 		.4byte	.LVL782
 18218 3774 0100     		.2byte	0x1
 18219 3776 50       		.byte	0x50
 18220 3777 F6010000 		.4byte	.LVL784
 18221 377b F8010000 		.4byte	.LVL785
 18222 377f 0100     		.2byte	0x1
 18223 3781 50       		.byte	0x50
 18224 3782 00000000 		.4byte	0
 18225 3786 00000000 		.4byte	0
 18226              	.LLST257:
 18227 378a 8E000000 		.4byte	.LVL752
 18228 378e 98010000 		.4byte	.LVL772
 18229 3792 0100     		.2byte	0x1
 18230 3794 55       		.byte	0x55
 18231 3795 AC010000 		.4byte	.LVL777
 18232 3799 BE010000 		.4byte	.LVL780
 18233 379d 0100     		.2byte	0x1
 18234 379f 55       		.byte	0x55
 18235 37a0 BE010000 		.4byte	.LVL780
 18236 37a4 EC010000 		.4byte	.LVL781
 18237 37a8 0100     		.2byte	0x1
 18238 37aa 53       		.byte	0x53
 18239 37ab EC010000 		.4byte	.LVL781
 18240 37af F3010000 		.4byte	.LVL783-1
 18241 37b3 0200     		.2byte	0x2
 18242 37b5 91       		.byte	0x91
 18243 37b6 50       		.sleb128 -48
 18244 37b7 F8010000 		.4byte	.LVL785
 18245 37bb 08020000 		.4byte	.LFE36
 18246 37bf 0100     		.2byte	0x1
 18247 37c1 55       		.byte	0x55
 18248 37c2 00000000 		.4byte	0
 18249 37c6 00000000 		.4byte	0
 18250              	.LLST258:
 18251 37ca 64010000 		.4byte	.LVL766
 18252 37ce 74010000 		.4byte	.LVL767
ARM GAS  /var/folders/dt/0wfd0knj7gs46m8vwfzktm600000gn/T//cczoWvr4.s 			page 322


 18253 37d2 0200     		.2byte	0x2
 18254 37d4 70       		.byte	0x70
 18255 37d5 02       		.sleb128 2
 18256 37d6 00000000 		.4byte	0
 18257 37da 00000000 		.4byte	0
 18258              	.LLST259:
 18259 37de 64010000 		.4byte	.LVL766
 18260 37e2 98010000 		.4byte	.LVL772
 18261 37e6 0100     		.2byte	0x1
 18262 37e8 5A       		.byte	0x5a
 18263 37e9 AC010000 		.4byte	.LVL777
 18264 37ed F8010000 		.4byte	.LVL785
 18265 37f1 0100     		.2byte	0x1
 18266 37f3 5A       		.byte	0x5a
 18267 37f4 00000000 		.4byte	0
 18268 37f8 00000000 		.4byte	0
 18269              	.LLST260:
 18270 37fc 4A000000 		.4byte	.LVL746
 18271 3800 66000000 		.4byte	.LVL747
 18272 3804 0100     		.2byte	0x1
 18273 3806 50       		.byte	0x50
 18274 3807 66000000 		.4byte	.LVL747
 18275 380b 98010000 		.4byte	.LVL772
 18276 380f 0100     		.2byte	0x1
 18277 3811 58       		.byte	0x58
 18278 3812 9C010000 		.4byte	.LVL774
 18279 3816 9E010000 		.4byte	.LVL775
 18280 381a 0100     		.2byte	0x1
 18281 381c 50       		.byte	0x50
 18282 381d 9E010000 		.4byte	.LVL775
 18283 3821 08020000 		.4byte	.LFE36
 18284 3825 0100     		.2byte	0x1
 18285 3827 58       		.byte	0x58
 18286 3828 00000000 		.4byte	0
 18287 382c 00000000 		.4byte	0
 18288              	.LLST261:
 18289 3830 42010000 		.4byte	.LVL763
 18290 3834 50010000 		.4byte	.LVL764
 18291 3838 0100     		.2byte	0x1
 18292 383a 52       		.byte	0x52
 18293 383b 50010000 		.4byte	.LVL764
 18294 383f 52010000 		.4byte	.LVL765
 18295 3843 0200     		.2byte	0x2
 18296 3845 91       		.byte	0x91
 18297 3846 44       		.sleb128 -60
 18298 3847 F8010000 		.4byte	.LVL785
 18299 384b 04020000 		.4byte	.LVL786
 18300 384f 0100     		.2byte	0x1
 18301 3851 52       		.byte	0x52
 18302 3852 04020000 		.4byte	.LVL786
 18303 3856 08020000 		.4byte	.LFE36
 18304 385a 0200     		.2byte	0x2
 18305 385c 91       		.byte	0x91
 18306 385d 44       		.sleb128 -60
 18307 385e 00000000 		.4byte	0
 18308 3862 00000000 		.4byte	0
 18309              	.LLST262:
ARM GAS  /var/folders/dt/0wfd0knj7gs46m8vwfzktm600000gn/T//cczoWvr4.s 			page 323


 18310 3866 14000000 		.4byte	.LVL737
 18311 386a 18000000 		.4byte	.LVL738
 18312 386e 0100     		.2byte	0x1
 18313 3870 50       		.byte	0x50
 18314 3871 18000000 		.4byte	.LVL738
 18315 3875 22000000 		.4byte	.LVL741
 18316 3879 0100     		.2byte	0x1
 18317 387b 59       		.byte	0x59
 18318 387c 2A000000 		.4byte	.LVL742
 18319 3880 F0000000 		.4byte	.LVL758
 18320 3884 0100     		.2byte	0x1
 18321 3886 59       		.byte	0x59
 18322 3887 98010000 		.4byte	.LVL772
 18323 388b 9E010000 		.4byte	.LVL775
 18324 388f 0100     		.2byte	0x1
 18325 3891 59       		.byte	0x59
 18326 3892 00000000 		.4byte	0
 18327 3896 00000000 		.4byte	0
 18328              	.LLST263:
 18329 389a 76000000 		.4byte	.LVL749
 18330 389e 7A000000 		.4byte	.LVL750
 18331 38a2 0100     		.2byte	0x1
 18332 38a4 58       		.byte	0x58
 18333 38a5 7A000000 		.4byte	.LVL750
 18334 38a9 98000000 		.4byte	.LVL753
 18335 38ad 0100     		.2byte	0x1
 18336 38af 53       		.byte	0x53
 18337 38b0 98000000 		.4byte	.LVL753
 18338 38b4 98010000 		.4byte	.LVL772
 18339 38b8 0300     		.2byte	0x3
 18340 38ba 78       		.byte	0x78
 18341 38bb 7E       		.sleb128 -2
 18342 38bc 9F       		.byte	0x9f
 18343 38bd AC010000 		.4byte	.LVL777
 18344 38c1 08020000 		.4byte	.LFE36
 18345 38c5 0300     		.2byte	0x3
 18346 38c7 78       		.byte	0x78
 18347 38c8 7E       		.sleb128 -2
 18348 38c9 9F       		.byte	0x9f
 18349 38ca 00000000 		.4byte	0
 18350 38ce 00000000 		.4byte	0
 18351              	.LLST264:
 18352 38d2 76000000 		.4byte	.LVL749
 18353 38d6 74010000 		.4byte	.LVL767
 18354 38da 0100     		.2byte	0x1
 18355 38dc 51       		.byte	0x51
 18356 38dd 74010000 		.4byte	.LVL767
 18357 38e1 98010000 		.4byte	.LVL772
 18358 38e5 0400     		.2byte	0x4
 18359 38e7 74       		.byte	0x74
 18360 38e8 D07B     		.sleb128 -560
 18361 38ea 9F       		.byte	0x9f
 18362 38eb AC010000 		.4byte	.LVL777
 18363 38ef F8010000 		.4byte	.LVL785
 18364 38f3 0400     		.2byte	0x4
 18365 38f5 74       		.byte	0x74
 18366 38f6 D07B     		.sleb128 -560
ARM GAS  /var/folders/dt/0wfd0knj7gs46m8vwfzktm600000gn/T//cczoWvr4.s 			page 324


 18367 38f8 9F       		.byte	0x9f
 18368 38f9 F8010000 		.4byte	.LVL785
 18369 38fd 08020000 		.4byte	.LFE36
 18370 3901 0100     		.2byte	0x1
 18371 3903 51       		.byte	0x51
 18372 3904 00000000 		.4byte	0
 18373 3908 00000000 		.4byte	0
 18374              	.LLST265:
 18375 390c 8E000000 		.4byte	.LVL752
 18376 3910 9A000000 		.4byte	.LVL754
 18377 3914 0400     		.2byte	0x4
 18378 3916 0A       		.byte	0xa
 18379 3917 FF01     		.2byte	0x1ff
 18380 3919 9F       		.byte	0x9f
 18381 391a 00000000 		.4byte	0
 18382 391e 00000000 		.4byte	0
 18383              	.LLST266:
 18384 3922 8E000000 		.4byte	.LVL752
 18385 3926 98010000 		.4byte	.LVL772
 18386 392a 0200     		.2byte	0x2
 18387 392c 30       		.byte	0x30
 18388 392d 9F       		.byte	0x9f
 18389 392e AC010000 		.4byte	.LVL777
 18390 3932 08020000 		.4byte	.LFE36
 18391 3936 0200     		.2byte	0x2
 18392 3938 30       		.byte	0x30
 18393 3939 9F       		.byte	0x9f
 18394 393a 00000000 		.4byte	0
 18395 393e 00000000 		.4byte	0
 18396              	.LLST267:
 18397 3942 8E000000 		.4byte	.LVL752
 18398 3946 98010000 		.4byte	.LVL772
 18399 394a 0100     		.2byte	0x1
 18400 394c 55       		.byte	0x55
 18401 394d AC010000 		.4byte	.LVL777
 18402 3951 08020000 		.4byte	.LFE36
 18403 3955 0100     		.2byte	0x1
 18404 3957 55       		.byte	0x55
 18405 3958 00000000 		.4byte	0
 18406 395c 00000000 		.4byte	0
 18407              	.LLST268:
 18408 3960 8E000000 		.4byte	.LVL752
 18409 3964 9A000000 		.4byte	.LVL754
 18410 3968 0100     		.2byte	0x1
 18411 396a 55       		.byte	0x55
 18412 396b 9A000000 		.4byte	.LVL754
 18413 396f A8000000 		.4byte	.LVL756
 18414 3973 0100     		.2byte	0x1
 18415 3975 53       		.byte	0x53
 18416 3976 00000000 		.4byte	0
 18417 397a 00000000 		.4byte	0
 18418              	.LLST269:
 18419 397e AE000000 		.4byte	.LVL757
 18420 3982 F2000000 		.4byte	.LVL759
 18421 3986 0100     		.2byte	0x1
 18422 3988 53       		.byte	0x53
 18423 3989 00000000 		.4byte	0
ARM GAS  /var/folders/dt/0wfd0knj7gs46m8vwfzktm600000gn/T//cczoWvr4.s 			page 325


 18424 398d 00000000 		.4byte	0
 18425              	.LLST270:
 18426 3991 22010000 		.4byte	.LVL760
 18427 3995 2A010000 		.4byte	.LVL761
 18428 3999 0200     		.2byte	0x2
 18429 399b 4F       		.byte	0x4f
 18430 399c 9F       		.byte	0x9f
 18431 399d 00000000 		.4byte	0
 18432 39a1 00000000 		.4byte	0
 18433              	.LLST271:
 18434 39a5 22010000 		.4byte	.LVL760
 18435 39a9 98010000 		.4byte	.LVL772
 18436 39ad 0100     		.2byte	0x1
 18437 39af 55       		.byte	0x55
 18438 39b0 AC010000 		.4byte	.LVL777
 18439 39b4 08020000 		.4byte	.LFE36
 18440 39b8 0100     		.2byte	0x1
 18441 39ba 55       		.byte	0x55
 18442 39bb 00000000 		.4byte	0
 18443 39bf 00000000 		.4byte	0
 18444              	.LLST272:
 18445 39c3 22010000 		.4byte	.LVL760
 18446 39c7 2A010000 		.4byte	.LVL761
 18447 39cb 0100     		.2byte	0x1
 18448 39cd 52       		.byte	0x52
 18449 39ce 2A010000 		.4byte	.LVL761
 18450 39d2 74010000 		.4byte	.LVL767
 18451 39d6 0400     		.2byte	0x4
 18452 39d8 71       		.byte	0x71
 18453 39d9 D000     		.sleb128 80
 18454 39db 9F       		.byte	0x9f
 18455 39dc 74010000 		.4byte	.LVL767
 18456 39e0 98010000 		.4byte	.LVL772
 18457 39e4 0400     		.2byte	0x4
 18458 39e6 74       		.byte	0x74
 18459 39e7 A07C     		.sleb128 -480
 18460 39e9 9F       		.byte	0x9f
 18461 39ea AC010000 		.4byte	.LVL777
 18462 39ee F8010000 		.4byte	.LVL785
 18463 39f2 0400     		.2byte	0x4
 18464 39f4 74       		.byte	0x74
 18465 39f5 A07C     		.sleb128 -480
 18466 39f7 9F       		.byte	0x9f
 18467 39f8 F8010000 		.4byte	.LVL785
 18468 39fc 08020000 		.4byte	.LFE36
 18469 3a00 0400     		.2byte	0x4
 18470 3a02 71       		.byte	0x71
 18471 3a03 D000     		.sleb128 80
 18472 3a05 9F       		.byte	0x9f
 18473 3a06 00000000 		.4byte	0
 18474 3a0a 00000000 		.4byte	0
 18475              	.LLST273:
 18476 3a0e 22010000 		.4byte	.LVL760
 18477 3a12 42010000 		.4byte	.LVL763
 18478 3a16 0100     		.2byte	0x1
 18479 3a18 52       		.byte	0x52
 18480 3a19 00000000 		.4byte	0
ARM GAS  /var/folders/dt/0wfd0knj7gs46m8vwfzktm600000gn/T//cczoWvr4.s 			page 326


 18481 3a1d 00000000 		.4byte	0
 18482              	.LLST274:
 18483 3a21 22010000 		.4byte	.LVL760
 18484 3a25 2A010000 		.4byte	.LVL761
 18485 3a29 0100     		.2byte	0x1
 18486 3a2b 55       		.byte	0x55
 18487 3a2c 00000000 		.4byte	0
 18488 3a30 00000000 		.4byte	0
 18489              	.LLST275:
 18490 3a34 8C010000 		.4byte	.LVL770
 18491 3a38 98010000 		.4byte	.LVL772
 18492 3a3c 0100     		.2byte	0x1
 18493 3a3e 53       		.byte	0x53
 18494 3a3f 00000000 		.4byte	0
 18495 3a43 00000000 		.4byte	0
 18496              	.LLST276:
 18497 3a47 00000000 		.4byte	.LFB37
 18498 3a4b 02000000 		.4byte	.LCFI40
 18499 3a4f 0200     		.2byte	0x2
 18500 3a51 7D       		.byte	0x7d
 18501 3a52 00       		.sleb128 0
 18502 3a53 02000000 		.4byte	.LCFI40
 18503 3a57 04000000 		.4byte	.LCFI41
 18504 3a5b 0200     		.2byte	0x2
 18505 3a5d 7D       		.byte	0x7d
 18506 3a5e 0C       		.sleb128 12
 18507 3a5f 04000000 		.4byte	.LCFI41
 18508 3a63 54000000 		.4byte	.LFE37
 18509 3a67 0300     		.2byte	0x3
 18510 3a69 7D       		.byte	0x7d
 18511 3a6a C000     		.sleb128 64
 18512 3a6c 00000000 		.4byte	0
 18513 3a70 00000000 		.4byte	0
 18514              	.LLST277:
 18515 3a74 00000000 		.4byte	.LVL787
 18516 3a78 10000000 		.4byte	.LVL788
 18517 3a7c 0100     		.2byte	0x1
 18518 3a7e 50       		.byte	0x50
 18519 3a7f 10000000 		.4byte	.LVL788
 18520 3a83 1A000000 		.4byte	.LVL792
 18521 3a87 0200     		.2byte	0x2
 18522 3a89 73       		.byte	0x73
 18523 3a8a 54       		.sleb128 -44
 18524 3a8b 1A000000 		.4byte	.LVL792
 18525 3a8f 1E000000 		.4byte	.LVL793
 18526 3a93 0200     		.2byte	0x2
 18527 3a95 91       		.byte	0x91
 18528 3a96 44       		.sleb128 -60
 18529 3a97 1E000000 		.4byte	.LVL793
 18530 3a9b 54000000 		.4byte	.LFE37
 18531 3a9f 0200     		.2byte	0x2
 18532 3aa1 73       		.byte	0x73
 18533 3aa2 54       		.sleb128 -44
 18534 3aa3 00000000 		.4byte	0
 18535 3aa7 00000000 		.4byte	0
 18536              	.LLST278:
 18537 3aab 00000000 		.4byte	.LVL787
ARM GAS  /var/folders/dt/0wfd0knj7gs46m8vwfzktm600000gn/T//cczoWvr4.s 			page 327


 18538 3aaf 12000000 		.4byte	.LVL789
 18539 3ab3 0100     		.2byte	0x1
 18540 3ab5 51       		.byte	0x51
 18541 3ab6 12000000 		.4byte	.LVL789
 18542 3aba 54000000 		.4byte	.LFE37
 18543 3abe 0400     		.2byte	0x4
 18544 3ac0 F3       		.byte	0xf3
 18545 3ac1 01       		.uleb128 0x1
 18546 3ac2 51       		.byte	0x51
 18547 3ac3 9F       		.byte	0x9f
 18548 3ac4 00000000 		.4byte	0
 18549 3ac8 00000000 		.4byte	0
 18550              	.LLST279:
 18551 3acc 00000000 		.4byte	.LVL787
 18552 3ad0 14000000 		.4byte	.LVL790
 18553 3ad4 0100     		.2byte	0x1
 18554 3ad6 52       		.byte	0x52
 18555 3ad7 14000000 		.4byte	.LVL790
 18556 3adb 1A000000 		.4byte	.LVL792
 18557 3adf 0400     		.2byte	0x4
 18558 3ae1 F3       		.byte	0xf3
 18559 3ae2 01       		.uleb128 0x1
 18560 3ae3 52       		.byte	0x52
 18561 3ae4 9F       		.byte	0x9f
 18562 3ae5 1E000000 		.4byte	.LVL793
 18563 3ae9 3C000000 		.4byte	.LVL798
 18564 3aed 0400     		.2byte	0x4
 18565 3aef F3       		.byte	0xf3
 18566 3af0 01       		.uleb128 0x1
 18567 3af1 52       		.byte	0x52
 18568 3af2 9F       		.byte	0x9f
 18569 3af3 3C000000 		.4byte	.LVL798
 18570 3af7 42000000 		.4byte	.LVL799
 18571 3afb 0100     		.2byte	0x1
 18572 3afd 55       		.byte	0x55
 18573 3afe 00000000 		.4byte	0
 18574 3b02 00000000 		.4byte	0
 18575              	.LLST280:
 18576 3b06 18000000 		.4byte	.LVL791
 18577 3b0a 22000000 		.4byte	.LVL794
 18578 3b0e 0100     		.2byte	0x1
 18579 3b10 50       		.byte	0x50
 18580 3b11 2A000000 		.4byte	.LVL795
 18581 3b15 32000000 		.4byte	.LVL797
 18582 3b19 0100     		.2byte	0x1
 18583 3b1b 50       		.byte	0x50
 18584 3b1c 52000000 		.4byte	.LVL801
 18585 3b20 54000000 		.4byte	.LFE37
 18586 3b24 0100     		.2byte	0x1
 18587 3b26 50       		.byte	0x50
 18588 3b27 00000000 		.4byte	0
 18589 3b2b 00000000 		.4byte	0
 18590              	.LLST281:
 18591 3b2f 30000000 		.4byte	.LVL796
 18592 3b33 4A000000 		.4byte	.LVL800
 18593 3b37 0100     		.2byte	0x1
 18594 3b39 53       		.byte	0x53
ARM GAS  /var/folders/dt/0wfd0knj7gs46m8vwfzktm600000gn/T//cczoWvr4.s 			page 328


 18595 3b3a 4A000000 		.4byte	.LVL800
 18596 3b3e 51000000 		.4byte	.LVL801-1
 18597 3b42 0200     		.2byte	0x2
 18598 3b44 91       		.byte	0x91
 18599 3b45 68       		.sleb128 -24
 18600 3b46 00000000 		.4byte	0
 18601 3b4a 00000000 		.4byte	0
 18602              	.LLST282:
 18603 3b4e 00000000 		.4byte	.LFB38
 18604 3b52 02000000 		.4byte	.LCFI42
 18605 3b56 0200     		.2byte	0x2
 18606 3b58 7D       		.byte	0x7d
 18607 3b59 00       		.sleb128 0
 18608 3b5a 02000000 		.4byte	.LCFI42
 18609 3b5e 04000000 		.4byte	.LCFI43
 18610 3b62 0200     		.2byte	0x2
 18611 3b64 7D       		.byte	0x7d
 18612 3b65 08       		.sleb128 8
 18613 3b66 04000000 		.4byte	.LCFI43
 18614 3b6a 56000000 		.4byte	.LFE38
 18615 3b6e 0200     		.2byte	0x2
 18616 3b70 7D       		.byte	0x7d
 18617 3b71 38       		.sleb128 56
 18618 3b72 00000000 		.4byte	0
 18619 3b76 00000000 		.4byte	0
 18620              	.LLST283:
 18621 3b7a 00000000 		.4byte	.LVL802
 18622 3b7e 0E000000 		.4byte	.LVL803
 18623 3b82 0100     		.2byte	0x1
 18624 3b84 50       		.byte	0x50
 18625 3b85 0E000000 		.4byte	.LVL803
 18626 3b89 18000000 		.4byte	.LVL806
 18627 3b8d 0200     		.2byte	0x2
 18628 3b8f 73       		.byte	0x73
 18629 3b90 54       		.sleb128 -44
 18630 3b91 18000000 		.4byte	.LVL806
 18631 3b95 1C000000 		.4byte	.LVL807
 18632 3b99 0200     		.2byte	0x2
 18633 3b9b 91       		.byte	0x91
 18634 3b9c 4C       		.sleb128 -52
 18635 3b9d 1C000000 		.4byte	.LVL807
 18636 3ba1 56000000 		.4byte	.LFE38
 18637 3ba5 0200     		.2byte	0x2
 18638 3ba7 73       		.byte	0x73
 18639 3ba8 54       		.sleb128 -44
 18640 3ba9 00000000 		.4byte	0
 18641 3bad 00000000 		.4byte	0
 18642              	.LLST284:
 18643 3bb1 00000000 		.4byte	.LVL802
 18644 3bb5 10000000 		.4byte	.LVL804
 18645 3bb9 0100     		.2byte	0x1
 18646 3bbb 51       		.byte	0x51
 18647 3bbc 10000000 		.4byte	.LVL804
 18648 3bc0 56000000 		.4byte	.LFE38
 18649 3bc4 0100     		.2byte	0x1
 18650 3bc6 54       		.byte	0x54
 18651 3bc7 00000000 		.4byte	0
ARM GAS  /var/folders/dt/0wfd0knj7gs46m8vwfzktm600000gn/T//cczoWvr4.s 			page 329


 18652 3bcb 00000000 		.4byte	0
 18653              	.LLST285:
 18654 3bcf 16000000 		.4byte	.LVL805
 18655 3bd3 20000000 		.4byte	.LVL808
 18656 3bd7 0100     		.2byte	0x1
 18657 3bd9 50       		.byte	0x50
 18658 3bda 28000000 		.4byte	.LVL809
 18659 3bde 30000000 		.4byte	.LVL811
 18660 3be2 0100     		.2byte	0x1
 18661 3be4 50       		.byte	0x50
 18662 3be5 54000000 		.4byte	.LVL813
 18663 3be9 56000000 		.4byte	.LFE38
 18664 3bed 0100     		.2byte	0x1
 18665 3bef 50       		.byte	0x50
 18666 3bf0 00000000 		.4byte	0
 18667 3bf4 00000000 		.4byte	0
 18668              	.LLST286:
 18669 3bf8 2E000000 		.4byte	.LVL810
 18670 3bfc 4E000000 		.4byte	.LVL812
 18671 3c00 0100     		.2byte	0x1
 18672 3c02 53       		.byte	0x53
 18673 3c03 4E000000 		.4byte	.LVL812
 18674 3c07 53000000 		.4byte	.LVL813-1
 18675 3c0b 0200     		.2byte	0x2
 18676 3c0d 91       		.byte	0x91
 18677 3c0e 70       		.sleb128 -16
 18678 3c0f 00000000 		.4byte	0
 18679 3c13 00000000 		.4byte	0
 18680              	.LLST287:
 18681 3c17 00000000 		.4byte	.LFB39
 18682 3c1b 02000000 		.4byte	.LCFI44
 18683 3c1f 0200     		.2byte	0x2
 18684 3c21 7D       		.byte	0x7d
 18685 3c22 00       		.sleb128 0
 18686 3c23 02000000 		.4byte	.LCFI44
 18687 3c27 04000000 		.4byte	.LCFI45
 18688 3c2b 0200     		.2byte	0x2
 18689 3c2d 7D       		.byte	0x7d
 18690 3c2e 10       		.sleb128 16
 18691 3c2f 04000000 		.4byte	.LCFI45
 18692 3c33 38010000 		.4byte	.LFE39
 18693 3c37 0300     		.2byte	0x3
 18694 3c39 7D       		.byte	0x7d
 18695 3c3a F800     		.sleb128 120
 18696 3c3c 00000000 		.4byte	0
 18697 3c40 00000000 		.4byte	0
 18698              	.LLST288:
 18699 3c44 00000000 		.4byte	.LVL814
 18700 3c48 10000000 		.4byte	.LVL815
 18701 3c4c 0100     		.2byte	0x1
 18702 3c4e 50       		.byte	0x50
 18703 3c4f 10000000 		.4byte	.LVL815
 18704 3c53 1A000000 		.4byte	.LVL818
 18705 3c57 0300     		.2byte	0x3
 18706 3c59 73       		.byte	0x73
 18707 3c5a 9C7F     		.sleb128 -100
 18708 3c5c 1A000000 		.4byte	.LVL818
ARM GAS  /var/folders/dt/0wfd0knj7gs46m8vwfzktm600000gn/T//cczoWvr4.s 			page 330


 18709 3c60 1E000000 		.4byte	.LVL819
 18710 3c64 0300     		.2byte	0x3
 18711 3c66 91       		.byte	0x91
 18712 3c67 8C7F     		.sleb128 -116
 18713 3c69 1E000000 		.4byte	.LVL819
 18714 3c6d 38010000 		.4byte	.LFE39
 18715 3c71 0300     		.2byte	0x3
 18716 3c73 73       		.byte	0x73
 18717 3c74 9C7F     		.sleb128 -100
 18718 3c76 00000000 		.4byte	0
 18719 3c7a 00000000 		.4byte	0
 18720              	.LLST289:
 18721 3c7e 00000000 		.4byte	.LVL814
 18722 3c82 12000000 		.4byte	.LVL816
 18723 3c86 0100     		.2byte	0x1
 18724 3c88 51       		.byte	0x51
 18725 3c89 12000000 		.4byte	.LVL816
 18726 3c8d 1A000000 		.4byte	.LVL818
 18727 3c91 0100     		.2byte	0x1
 18728 3c93 56       		.byte	0x56
 18729 3c94 1A000000 		.4byte	.LVL818
 18730 3c98 1E000000 		.4byte	.LVL819
 18731 3c9c 0400     		.2byte	0x4
 18732 3c9e F3       		.byte	0xf3
 18733 3c9f 01       		.uleb128 0x1
 18734 3ca0 51       		.byte	0x51
 18735 3ca1 9F       		.byte	0x9f
 18736 3ca2 1E000000 		.4byte	.LVL819
 18737 3ca6 B8000000 		.4byte	.LVL839
 18738 3caa 0100     		.2byte	0x1
 18739 3cac 56       		.byte	0x56
 18740 3cad B8000000 		.4byte	.LVL839
 18741 3cb1 00010000 		.4byte	.LVL847
 18742 3cb5 0400     		.2byte	0x4
 18743 3cb7 F3       		.byte	0xf3
 18744 3cb8 01       		.uleb128 0x1
 18745 3cb9 51       		.byte	0x51
 18746 3cba 9F       		.byte	0x9f
 18747 3cbb 00010000 		.4byte	.LVL847
 18748 3cbf 04010000 		.4byte	.LVL849
 18749 3cc3 0100     		.2byte	0x1
 18750 3cc5 56       		.byte	0x56
 18751 3cc6 04010000 		.4byte	.LVL849
 18752 3cca 38010000 		.4byte	.LFE39
 18753 3cce 0400     		.2byte	0x4
 18754 3cd0 F3       		.byte	0xf3
 18755 3cd1 01       		.uleb128 0x1
 18756 3cd2 51       		.byte	0x51
 18757 3cd3 9F       		.byte	0x9f
 18758 3cd4 00000000 		.4byte	0
 18759 3cd8 00000000 		.4byte	0
 18760              	.LLST290:
 18761 3cdc 18000000 		.4byte	.LVL817
 18762 3ce0 1A000000 		.4byte	.LVL818
 18763 3ce4 0100     		.2byte	0x1
 18764 3ce6 50       		.byte	0x50
 18765 3ce7 1E000000 		.4byte	.LVL819
ARM GAS  /var/folders/dt/0wfd0knj7gs46m8vwfzktm600000gn/T//cczoWvr4.s 			page 331


 18766 3ceb 22000000 		.4byte	.LVL820
 18767 3cef 0100     		.2byte	0x1
 18768 3cf1 50       		.byte	0x50
 18769 3cf2 2E000000 		.4byte	.LVL821
 18770 3cf6 36000000 		.4byte	.LVL822
 18771 3cfa 0100     		.2byte	0x1
 18772 3cfc 50       		.byte	0x50
 18773 3cfd 64000000 		.4byte	.LVL830
 18774 3d01 6E000000 		.4byte	.LVL831
 18775 3d05 0100     		.2byte	0x1
 18776 3d07 50       		.byte	0x50
 18777 3d08 72000000 		.4byte	.LVL832
 18778 3d0c 84000000 		.4byte	.LVL835
 18779 3d10 0100     		.2byte	0x1
 18780 3d12 50       		.byte	0x50
 18781 3d13 E0000000 		.4byte	.LVL841
 18782 3d17 EE000000 		.4byte	.LVL843
 18783 3d1b 0100     		.2byte	0x1
 18784 3d1d 50       		.byte	0x50
 18785 3d1e EE000000 		.4byte	.LVL843
 18786 3d22 F4000000 		.4byte	.LVL844
 18787 3d26 0200     		.2byte	0x2
 18788 3d28 30       		.byte	0x30
 18789 3d29 9F       		.byte	0x9f
 18790 3d2a F4000000 		.4byte	.LVL844
 18791 3d2e FA000000 		.4byte	.LVL845
 18792 3d32 0100     		.2byte	0x1
 18793 3d34 50       		.byte	0x50
 18794 3d35 FE000000 		.4byte	.LVL846
 18795 3d39 02010000 		.4byte	.LVL848
 18796 3d3d 0100     		.2byte	0x1
 18797 3d3f 50       		.byte	0x50
 18798 3d40 06010000 		.4byte	.LVL850
 18799 3d44 12010000 		.4byte	.LVL852
 18800 3d48 0100     		.2byte	0x1
 18801 3d4a 50       		.byte	0x50
 18802 3d4b 30010000 		.4byte	.LVL854
 18803 3d4f 38010000 		.4byte	.LFE39
 18804 3d53 0100     		.2byte	0x1
 18805 3d55 50       		.byte	0x50
 18806 3d56 00000000 		.4byte	0
 18807 3d5a 00000000 		.4byte	0
 18808              	.LLST291:
 18809 3d5e 78000000 		.4byte	.LVL833
 18810 3d62 E2000000 		.4byte	.LVL842
 18811 3d66 0100     		.2byte	0x1
 18812 3d68 54       		.byte	0x54
 18813 3d69 E2000000 		.4byte	.LVL842
 18814 3d6d EE000000 		.4byte	.LVL843
 18815 3d71 0400     		.2byte	0x4
 18816 3d73 73       		.byte	0x73
 18817 3d74 D000     		.sleb128 80
 18818 3d76 9F       		.byte	0x9f
 18819 3d77 04010000 		.4byte	.LVL849
 18820 3d7b 08010000 		.4byte	.LVL851
 18821 3d7f 0100     		.2byte	0x1
 18822 3d81 54       		.byte	0x54
ARM GAS  /var/folders/dt/0wfd0knj7gs46m8vwfzktm600000gn/T//cczoWvr4.s 			page 332


 18823 3d82 08010000 		.4byte	.LVL851
 18824 3d86 38010000 		.4byte	.LFE39
 18825 3d8a 0400     		.2byte	0x4
 18826 3d8c 73       		.byte	0x73
 18827 3d8d D000     		.sleb128 80
 18828 3d8f 9F       		.byte	0x9f
 18829 3d90 00000000 		.4byte	0
 18830 3d94 00000000 		.4byte	0
 18831              	.LLST292:
 18832 3d98 12010000 		.4byte	.LVL852
 18833 3d9c 30010000 		.4byte	.LVL854
 18834 3da0 0100     		.2byte	0x1
 18835 3da2 50       		.byte	0x50
 18836 3da3 00000000 		.4byte	0
 18837 3da7 00000000 		.4byte	0
 18838              	.LLST293:
 18839 3dab 3A000000 		.4byte	.LVL823
 18840 3daf 42000000 		.4byte	.LVL826
 18841 3db3 0200     		.2byte	0x2
 18842 3db5 44       		.byte	0x44
 18843 3db6 9F       		.byte	0x9f
 18844 3db7 00000000 		.4byte	0
 18845 3dbb 00000000 		.4byte	0
 18846              	.LLST294:
 18847 3dbf 3A000000 		.4byte	.LVL823
 18848 3dc3 3C000000 		.4byte	.LVL824
 18849 3dc7 0300     		.2byte	0x3
 18850 3dc9 72       		.byte	0x72
 18851 3dca 0B       		.sleb128 11
 18852 3dcb 9F       		.byte	0x9f
 18853 3dcc 3C000000 		.4byte	.LVL824
 18854 3dd0 63000000 		.4byte	.LVL830-1
 18855 3dd4 0600     		.2byte	0x6
 18856 3dd6 91       		.byte	0x91
 18857 3dd7 4C       		.sleb128 -52
 18858 3dd8 06       		.byte	0x6
 18859 3dd9 23       		.byte	0x23
 18860 3dda 0B       		.uleb128 0xb
 18861 3ddb 9F       		.byte	0x9f
 18862 3ddc 00000000 		.4byte	0
 18863 3de0 00000000 		.4byte	0
 18864              	.LLST295:
 18865 3de4 3A000000 		.4byte	.LVL823
 18866 3de8 3E000000 		.4byte	.LVL825
 18867 3dec 0400     		.2byte	0x4
 18868 3dee 91       		.byte	0x91
 18869 3def A07F     		.sleb128 -96
 18870 3df1 9F       		.byte	0x9f
 18871 3df2 3E000000 		.4byte	.LVL825
 18872 3df6 42000000 		.4byte	.LVL826
 18873 3dfa 0100     		.2byte	0x1
 18874 3dfc 53       		.byte	0x53
 18875 3dfd 42000000 		.4byte	.LVL826
 18876 3e01 38010000 		.4byte	.LFE39
 18877 3e05 0400     		.2byte	0x4
 18878 3e07 91       		.byte	0x91
 18879 3e08 A07F     		.sleb128 -96
ARM GAS  /var/folders/dt/0wfd0knj7gs46m8vwfzktm600000gn/T//cczoWvr4.s 			page 333


 18880 3e0a 9F       		.byte	0x9f
 18881 3e0b 00000000 		.4byte	0
 18882 3e0f 00000000 		.4byte	0
 18883              	.LLST296:
 18884 3e13 3A000000 		.4byte	.LVL823
 18885 3e17 3E000000 		.4byte	.LVL825
 18886 3e1b 0400     		.2byte	0x4
 18887 3e1d 91       		.byte	0x91
 18888 3e1e A07F     		.sleb128 -96
 18889 3e20 9F       		.byte	0x9f
 18890 3e21 3E000000 		.4byte	.LVL825
 18891 3e25 50000000 		.4byte	.LVL828
 18892 3e29 0100     		.2byte	0x1
 18893 3e2b 53       		.byte	0x53
 18894 3e2c 00000000 		.4byte	0
 18895 3e30 00000000 		.4byte	0
 18896              	.LLST297:
 18897 3e34 3A000000 		.4byte	.LVL823
 18898 3e38 3C000000 		.4byte	.LVL824
 18899 3e3c 0300     		.2byte	0x3
 18900 3e3e 72       		.byte	0x72
 18901 3e3f 0B       		.sleb128 11
 18902 3e40 9F       		.byte	0x9f
 18903 3e41 3C000000 		.4byte	.LVL824
 18904 3e45 42000000 		.4byte	.LVL826
 18905 3e49 0600     		.2byte	0x6
 18906 3e4b 91       		.byte	0x91
 18907 3e4c 4C       		.sleb128 -52
 18908 3e4d 06       		.byte	0x6
 18909 3e4e 23       		.byte	0x23
 18910 3e4f 0B       		.uleb128 0xb
 18911 3e50 9F       		.byte	0x9f
 18912 3e51 00000000 		.4byte	0
 18913 3e55 00000000 		.4byte	0
 18914              	.LLST298:
 18915 3e59 80000000 		.4byte	.LVL834
 18916 3e5d 84000000 		.4byte	.LVL835
 18917 3e61 0200     		.2byte	0x2
 18918 3e63 42       		.byte	0x42
 18919 3e64 9F       		.byte	0x9f
 18920 3e65 00000000 		.4byte	0
 18921 3e69 00000000 		.4byte	0
 18922              	.LLST299:
 18923 3e6d 80000000 		.4byte	.LVL834
 18924 3e71 00010000 		.4byte	.LVL847
 18925 3e75 0400     		.2byte	0x4
 18926 3e77 91       		.byte	0x91
 18927 3e78 A27F     		.sleb128 -94
 18928 3e7a 9F       		.byte	0x9f
 18929 3e7b 04010000 		.4byte	.LVL849
 18930 3e7f 38010000 		.4byte	.LFE39
 18931 3e83 0400     		.2byte	0x4
 18932 3e85 91       		.byte	0x91
 18933 3e86 A27F     		.sleb128 -94
 18934 3e88 9F       		.byte	0x9f
 18935 3e89 00000000 		.4byte	0
 18936 3e8d 00000000 		.4byte	0
ARM GAS  /var/folders/dt/0wfd0knj7gs46m8vwfzktm600000gn/T//cczoWvr4.s 			page 334


 18937              	.LLST300:
 18938 3e91 80000000 		.4byte	.LVL834
 18939 3e95 84000000 		.4byte	.LVL835
 18940 3e99 0100     		.2byte	0x1
 18941 3e9b 53       		.byte	0x53
 18942 3e9c 84000000 		.4byte	.LVL835
 18943 3ea0 EE000000 		.4byte	.LVL843
 18944 3ea4 0300     		.2byte	0x3
 18945 3ea6 74       		.byte	0x74
 18946 3ea7 0D       		.sleb128 13
 18947 3ea8 9F       		.byte	0x9f
 18948 3ea9 04010000 		.4byte	.LVL849
 18949 3ead 1A010000 		.4byte	.LVL853
 18950 3eb1 0300     		.2byte	0x3
 18951 3eb3 74       		.byte	0x74
 18952 3eb4 0D       		.sleb128 13
 18953 3eb5 9F       		.byte	0x9f
 18954 3eb6 30010000 		.4byte	.LVL854
 18955 3eba 38010000 		.4byte	.LFE39
 18956 3ebe 0300     		.2byte	0x3
 18957 3ec0 74       		.byte	0x74
 18958 3ec1 0D       		.sleb128 13
 18959 3ec2 9F       		.byte	0x9f
 18960 3ec3 00000000 		.4byte	0
 18961 3ec7 00000000 		.4byte	0
 18962              	.LLST301:
 18963 3ecb 80000000 		.4byte	.LVL834
 18964 3ecf 94000000 		.4byte	.LVL837
 18965 3ed3 0100     		.2byte	0x1
 18966 3ed5 53       		.byte	0x53
 18967 3ed6 00000000 		.4byte	0
 18968 3eda 00000000 		.4byte	0
 18969              	.LLST302:
 18970 3ede 80000000 		.4byte	.LVL834
 18971 3ee2 84000000 		.4byte	.LVL835
 18972 3ee6 0400     		.2byte	0x4
 18973 3ee8 91       		.byte	0x91
 18974 3ee9 A27F     		.sleb128 -94
 18975 3eeb 9F       		.byte	0x9f
 18976 3eec 00000000 		.4byte	0
 18977 3ef0 00000000 		.4byte	0
 18978              	.LLST303:
 18979 3ef4 B6000000 		.4byte	.LVL838
 18980 3ef8 CC000000 		.4byte	.LVL840
 18981 3efc 2E00     		.2byte	0x2e
 18982 3efe 74       		.byte	0x74
 18983 3eff 15       		.sleb128 21
 18984 3f00 94       		.byte	0x94
 18985 3f01 01       		.byte	0x1
 18986 3f02 08       		.byte	0x8
 18987 3f03 FF       		.byte	0xff
 18988 3f04 1A       		.byte	0x1a
 18989 3f05 38       		.byte	0x38
 18990 3f06 24       		.byte	0x24
 18991 3f07 74       		.byte	0x74
 18992 3f08 14       		.sleb128 20
 18993 3f09 94       		.byte	0x94
ARM GAS  /var/folders/dt/0wfd0knj7gs46m8vwfzktm600000gn/T//cczoWvr4.s 			page 335


 18994 3f0a 01       		.byte	0x1
 18995 3f0b 08       		.byte	0x8
 18996 3f0c FF       		.byte	0xff
 18997 3f0d 1A       		.byte	0x1a
 18998 3f0e 21       		.byte	0x21
 18999 3f0f 0A       		.byte	0xa
 19000 3f10 FFFF     		.2byte	0xffff
 19001 3f12 1A       		.byte	0x1a
 19002 3f13 40       		.byte	0x40
 19003 3f14 24       		.byte	0x24
 19004 3f15 74       		.byte	0x74
 19005 3f16 1B       		.sleb128 27
 19006 3f17 94       		.byte	0x94
 19007 3f18 01       		.byte	0x1
 19008 3f19 08       		.byte	0x8
 19009 3f1a FF       		.byte	0xff
 19010 3f1b 1A       		.byte	0x1a
 19011 3f1c 38       		.byte	0x38
 19012 3f1d 24       		.byte	0x24
 19013 3f1e 74       		.byte	0x74
 19014 3f1f 1A       		.sleb128 26
 19015 3f20 94       		.byte	0x94
 19016 3f21 01       		.byte	0x1
 19017 3f22 08       		.byte	0x8
 19018 3f23 FF       		.byte	0xff
 19019 3f24 1A       		.byte	0x1a
 19020 3f25 21       		.byte	0x21
 19021 3f26 0A       		.byte	0xa
 19022 3f27 FFFF     		.2byte	0xffff
 19023 3f29 1A       		.byte	0x1a
 19024 3f2a 21       		.byte	0x21
 19025 3f2b 9F       		.byte	0x9f
 19026 3f2c CC000000 		.4byte	.LVL840
 19027 3f30 DF000000 		.4byte	.LVL841-1
 19028 3f34 0100     		.2byte	0x1
 19029 3f36 53       		.byte	0x53
 19030 3f37 04010000 		.4byte	.LVL849
 19031 3f3b 08010000 		.4byte	.LVL851
 19032 3f3f 0100     		.2byte	0x1
 19033 3f41 53       		.byte	0x53
 19034 3f42 00000000 		.4byte	0
 19035 3f46 00000000 		.4byte	0
 19036              	.LLST304:
 19037 3f4a B6000000 		.4byte	.LVL838
 19038 3f4e DF000000 		.4byte	.LVL841-1
 19039 3f52 0100     		.2byte	0x1
 19040 3f54 50       		.byte	0x50
 19041 3f55 04010000 		.4byte	.LVL849
 19042 3f59 06010000 		.4byte	.LVL850
 19043 3f5d 0100     		.2byte	0x1
 19044 3f5f 50       		.byte	0x50
 19045 3f60 06010000 		.4byte	.LVL850
 19046 3f64 08010000 		.4byte	.LVL851
 19047 3f68 0200     		.2byte	0x2
 19048 3f6a 91       		.byte	0x91
 19049 3f6b 54       		.sleb128 -44
 19050 3f6c 00000000 		.4byte	0
ARM GAS  /var/folders/dt/0wfd0knj7gs46m8vwfzktm600000gn/T//cczoWvr4.s 			page 336


 19051 3f70 00000000 		.4byte	0
 19052              		.section	.debug_aranges,"",%progbits
 19053 0000 24010000 		.4byte	0x124
 19054 0004 0200     		.2byte	0x2
 19055 0006 00000000 		.4byte	.Ldebug_info0
 19056 000a 04       		.byte	0x4
 19057 000b 00       		.byte	0
 19058 000c 0000     		.2byte	0
 19059 000e 0000     		.2byte	0
 19060 0010 00000000 		.4byte	.LFB18
 19061 0014 88000000 		.4byte	.LFE18-.LFB18
 19062 0018 00000000 		.4byte	.LFB4
 19063 001c 7A000000 		.4byte	.LFE4-.LFB4
 19064 0020 00000000 		.4byte	.LFB5
 19065 0024 D4000000 		.4byte	.LFE5-.LFB5
 19066 0028 00000000 		.4byte	.LFB22
 19067 002c 24000000 		.4byte	.LFE22-.LFB22
 19068 0030 00000000 		.4byte	.LFB20
 19069 0034 8A000000 		.4byte	.LFE20-.LFB20
 19070 0038 00000000 		.4byte	.LFB21
 19071 003c 04030000 		.4byte	.LFE21-.LFB21
 19072 0040 00000000 		.4byte	.LFB6
 19073 0044 16000000 		.4byte	.LFE6-.LFB6
 19074 0048 00000000 		.4byte	.LFB7
 19075 004c CC000000 		.4byte	.LFE7-.LFB7
 19076 0050 00000000 		.4byte	.LFB11
 19077 0054 96000000 		.4byte	.LFE11-.LFB11
 19078 0058 00000000 		.4byte	.LFB16
 19079 005c 28000000 		.4byte	.LFE16-.LFB16
 19080 0060 00000000 		.4byte	.LFB8
 19081 0064 0C010000 		.4byte	.LFE8-.LFB8
 19082 0068 00000000 		.4byte	.LFB10
 19083 006c AE000000 		.4byte	.LFE10-.LFB10
 19084 0070 00000000 		.4byte	.LFB12
 19085 0074 26010000 		.4byte	.LFE12-.LFB12
 19086 0078 00000000 		.4byte	.LFB19
 19087 007c 4C020000 		.4byte	.LFE19-.LFB19
 19088 0080 00000000 		.4byte	.LFB15
 19089 0084 78000000 		.4byte	.LFE15-.LFB15
 19090 0088 00000000 		.4byte	.LFB14
 19091 008c 56000000 		.4byte	.LFE14-.LFB14
 19092 0090 00000000 		.4byte	.LFB9
 19093 0094 54000000 		.4byte	.LFE9-.LFB9
 19094 0098 00000000 		.4byte	.LFB23
 19095 009c 20000000 		.4byte	.LFE23-.LFB23
 19096 00a0 00000000 		.4byte	.LFB24
 19097 00a4 76010000 		.4byte	.LFE24-.LFB24
 19098 00a8 00000000 		.4byte	.LFB25
 19099 00ac 9A010000 		.4byte	.LFE25-.LFB25
 19100 00b0 00000000 		.4byte	.LFB26
 19101 00b4 EE010000 		.4byte	.LFE26-.LFB26
 19102 00b8 00000000 		.4byte	.LFB27
 19103 00bc A8000000 		.4byte	.LFE27-.LFB27
 19104 00c0 00000000 		.4byte	.LFB28
 19105 00c4 0E000000 		.4byte	.LFE28-.LFB28
 19106 00c8 00000000 		.4byte	.LFB29
 19107 00cc 82010000 		.4byte	.LFE29-.LFB29
ARM GAS  /var/folders/dt/0wfd0knj7gs46m8vwfzktm600000gn/T//cczoWvr4.s 			page 337


 19108 00d0 00000000 		.4byte	.LFB30
 19109 00d4 68000000 		.4byte	.LFE30-.LFB30
 19110 00d8 00000000 		.4byte	.LFB31
 19111 00dc 58000000 		.4byte	.LFE31-.LFB31
 19112 00e0 00000000 		.4byte	.LFB32
 19113 00e4 44000000 		.4byte	.LFE32-.LFB32
 19114 00e8 00000000 		.4byte	.LFB33
 19115 00ec 0E010000 		.4byte	.LFE33-.LFB33
 19116 00f0 00000000 		.4byte	.LFB34
 19117 00f4 92000000 		.4byte	.LFE34-.LFB34
 19118 00f8 00000000 		.4byte	.LFB35
 19119 00fc AA000000 		.4byte	.LFE35-.LFB35
 19120 0100 00000000 		.4byte	.LFB36
 19121 0104 08020000 		.4byte	.LFE36-.LFB36
 19122 0108 00000000 		.4byte	.LFB37
 19123 010c 54000000 		.4byte	.LFE37-.LFB37
 19124 0110 00000000 		.4byte	.LFB38
 19125 0114 56000000 		.4byte	.LFE38-.LFB38
 19126 0118 00000000 		.4byte	.LFB39
 19127 011c 38010000 		.4byte	.LFE39-.LFB39
 19128 0120 00000000 		.4byte	0
 19129 0124 00000000 		.4byte	0
 19130              		.section	.debug_ranges,"",%progbits
 19131              	.Ldebug_ranges0:
 19132 0000 10000000 		.4byte	.LBB75
 19133 0004 24000000 		.4byte	.LBE75
 19134 0008 28000000 		.4byte	.LBB78
 19135 000c CC000000 		.4byte	.LBE78
 19136 0010 00000000 		.4byte	0
 19137 0014 00000000 		.4byte	0
 19138 0018 10000000 		.4byte	.LBB76
 19139 001c 24000000 		.4byte	.LBE76
 19140 0020 28000000 		.4byte	.LBB77
 19141 0024 CC000000 		.4byte	.LBE77
 19142 0028 00000000 		.4byte	0
 19143 002c 00000000 		.4byte	0
 19144 0030 78000000 		.4byte	.LBB79
 19145 0034 80000000 		.4byte	.LBE79
 19146 0038 82000000 		.4byte	.LBB82
 19147 003c 8E000000 		.4byte	.LBE82
 19148 0040 00000000 		.4byte	0
 19149 0044 00000000 		.4byte	0
 19150 0048 18000000 		.4byte	.LBB90
 19151 004c B4000000 		.4byte	.LBE90
 19152 0050 BE000000 		.4byte	.LBB91
 19153 0054 00010000 		.4byte	.LBE91
 19154 0058 04010000 		.4byte	.LBB92
 19155 005c 0C010000 		.4byte	.LBE92
 19156 0060 00000000 		.4byte	0
 19157 0064 00000000 		.4byte	0
 19158 0068 10000000 		.4byte	.LBB93
 19159 006c 16000000 		.4byte	.LBE93
 19160 0070 06010000 		.4byte	.LBB109
 19161 0074 08010000 		.4byte	.LBE109
 19162 0078 0C010000 		.4byte	.LBB110
 19163 007c 1C010000 		.4byte	.LBE110
 19164 0080 00000000 		.4byte	0
ARM GAS  /var/folders/dt/0wfd0knj7gs46m8vwfzktm600000gn/T//cczoWvr4.s 			page 338


 19165 0084 00000000 		.4byte	0
 19166 0088 66000000 		.4byte	.LBB97
 19167 008c 76000000 		.4byte	.LBE97
 19168 0090 88000000 		.4byte	.LBB108
 19169 0094 06010000 		.4byte	.LBE108
 19170 0098 00000000 		.4byte	0
 19171 009c 00000000 		.4byte	0
 19172 00a0 A0000000 		.4byte	.LBB98
 19173 00a4 A2000000 		.4byte	.LBE98
 19174 00a8 AA000000 		.4byte	.LBB101
 19175 00ac B2000000 		.4byte	.LBE101
 19176 00b0 00000000 		.4byte	0
 19177 00b4 00000000 		.4byte	0
 19178 00b8 A0000000 		.4byte	.LBB99
 19179 00bc A2000000 		.4byte	.LBE99
 19180 00c0 AA000000 		.4byte	.LBB100
 19181 00c4 B2000000 		.4byte	.LBE100
 19182 00c8 00000000 		.4byte	0
 19183 00cc 00000000 		.4byte	0
 19184 00d0 B4000000 		.4byte	.LBB102
 19185 00d4 BA000000 		.4byte	.LBE102
 19186 00d8 BE000000 		.4byte	.LBB106
 19187 00dc C8000000 		.4byte	.LBE106
 19188 00e0 CC000000 		.4byte	.LBB107
 19189 00e4 D4000000 		.4byte	.LBE107
 19190 00e8 00000000 		.4byte	0
 19191 00ec 00000000 		.4byte	0
 19192 00f0 24000000 		.4byte	.LBB121
 19193 00f4 42000000 		.4byte	.LBE121
 19194 00f8 44000000 		.4byte	.LBB133
 19195 00fc 1E010000 		.4byte	.LBE133
 19196 0100 50010000 		.4byte	.LBB141
 19197 0104 52010000 		.4byte	.LBE141
 19198 0108 86010000 		.4byte	.LBB143
 19199 010c DC010000 		.4byte	.LBE143
 19200 0110 3C020000 		.4byte	.LBB144
 19201 0114 4C020000 		.4byte	.LBE144
 19202 0118 00000000 		.4byte	0
 19203 011c 00000000 		.4byte	0
 19204 0120 24000000 		.4byte	.LBB122
 19205 0124 42000000 		.4byte	.LBE122
 19206 0128 44000000 		.4byte	.LBB129
 19207 012c 1E010000 		.4byte	.LBE129
 19208 0130 50010000 		.4byte	.LBB130
 19209 0134 52010000 		.4byte	.LBE130
 19210 0138 86010000 		.4byte	.LBB131
 19211 013c DC010000 		.4byte	.LBE131
 19212 0140 3C020000 		.4byte	.LBB132
 19213 0144 4C020000 		.4byte	.LBE132
 19214 0148 00000000 		.4byte	0
 19215 014c 00000000 		.4byte	0
 19216 0150 24000000 		.4byte	.LBB123
 19217 0154 2A000000 		.4byte	.LBE123
 19218 0158 44000000 		.4byte	.LBB126
 19219 015c 54000000 		.4byte	.LBE126
 19220 0160 00000000 		.4byte	0
 19221 0164 00000000 		.4byte	0
ARM GAS  /var/folders/dt/0wfd0knj7gs46m8vwfzktm600000gn/T//cczoWvr4.s 			page 339


 19222 0168 24000000 		.4byte	.LBB124
 19223 016c 2A000000 		.4byte	.LBE124
 19224 0170 44000000 		.4byte	.LBB125
 19225 0174 54000000 		.4byte	.LBE125
 19226 0178 00000000 		.4byte	0
 19227 017c 00000000 		.4byte	0
 19228 0180 1E010000 		.4byte	.LBB134
 19229 0184 50010000 		.4byte	.LBE134
 19230 0188 52010000 		.4byte	.LBB142
 19231 018c 7A010000 		.4byte	.LBE142
 19232 0190 00000000 		.4byte	0
 19233 0194 00000000 		.4byte	0
 19234 0198 1E010000 		.4byte	.LBB135
 19235 019c 50010000 		.4byte	.LBE135
 19236 01a0 52010000 		.4byte	.LBB140
 19237 01a4 7A010000 		.4byte	.LBE140
 19238 01a8 00000000 		.4byte	0
 19239 01ac 00000000 		.4byte	0
 19240 01b0 52010000 		.4byte	.LBB136
 19241 01b4 56010000 		.4byte	.LBE136
 19242 01b8 5A010000 		.4byte	.LBB139
 19243 01bc 6E010000 		.4byte	.LBE139
 19244 01c0 00000000 		.4byte	0
 19245 01c4 00000000 		.4byte	0
 19246 01c8 52010000 		.4byte	.LBB137
 19247 01cc 56010000 		.4byte	.LBE137
 19248 01d0 5A010000 		.4byte	.LBB138
 19249 01d4 6E010000 		.4byte	.LBE138
 19250 01d8 00000000 		.4byte	0
 19251 01dc 00000000 		.4byte	0
 19252 01e0 3A000000 		.4byte	.LBB151
 19253 01e4 50000000 		.4byte	.LBE151
 19254 01e8 52000000 		.4byte	.LBB160
 19255 01ec 74000000 		.4byte	.LBE160
 19256 01f0 00000000 		.4byte	0
 19257 01f4 00000000 		.4byte	0
 19258 01f8 3A000000 		.4byte	.LBB152
 19259 01fc 50000000 		.4byte	.LBE152
 19260 0200 52000000 		.4byte	.LBB159
 19261 0204 74000000 		.4byte	.LBE159
 19262 0208 00000000 		.4byte	0
 19263 020c 00000000 		.4byte	0
 19264 0210 4A000000 		.4byte	.LBB153
 19265 0214 4C000000 		.4byte	.LBE153
 19266 0218 52000000 		.4byte	.LBB156
 19267 021c 62000000 		.4byte	.LBE156
 19268 0220 00000000 		.4byte	0
 19269 0224 00000000 		.4byte	0
 19270 0228 4A000000 		.4byte	.LBB154
 19271 022c 4C000000 		.4byte	.LBE154
 19272 0230 52000000 		.4byte	.LBB155
 19273 0234 62000000 		.4byte	.LBE155
 19274 0238 00000000 		.4byte	0
 19275 023c 00000000 		.4byte	0
 19276 0240 14000000 		.4byte	.LBB163
 19277 0244 4C000000 		.4byte	.LBE163
 19278 0248 50000000 		.4byte	.LBB166
ARM GAS  /var/folders/dt/0wfd0knj7gs46m8vwfzktm600000gn/T//cczoWvr4.s 			page 340


 19279 024c 54000000 		.4byte	.LBE166
 19280 0250 00000000 		.4byte	0
 19281 0254 00000000 		.4byte	0
 19282 0258 14000000 		.4byte	.LBB164
 19283 025c 4C000000 		.4byte	.LBE164
 19284 0260 50000000 		.4byte	.LBB165
 19285 0264 54000000 		.4byte	.LBE165
 19286 0268 00000000 		.4byte	0
 19287 026c 00000000 		.4byte	0
 19288 0270 30000000 		.4byte	.LBB167
 19289 0274 36000000 		.4byte	.LBE167
 19290 0278 54000000 		.4byte	.LBB168
 19291 027c 74000000 		.4byte	.LBE168
 19292 0280 EA000000 		.4byte	.LBB169
 19293 0284 5C010000 		.4byte	.LBE169
 19294 0288 62010000 		.4byte	.LBB170
 19295 028c 76010000 		.4byte	.LBE170
 19296 0290 00000000 		.4byte	0
 19297 0294 00000000 		.4byte	0
 19298 0298 70000000 		.4byte	.LBB171
 19299 029c 7A000000 		.4byte	.LBE171
 19300 02a0 16010000 		.4byte	.LBB176
 19301 02a4 28010000 		.4byte	.LBE176
 19302 02a8 00000000 		.4byte	0
 19303 02ac 00000000 		.4byte	0
 19304 02b0 A4000000 		.4byte	.LBB179
 19305 02b4 B2000000 		.4byte	.LBE179
 19306 02b8 24010000 		.4byte	.LBB184
 19307 02bc 2C010000 		.4byte	.LBE184
 19308 02c0 00000000 		.4byte	0
 19309 02c4 00000000 		.4byte	0
 19310 02c8 1A000000 		.4byte	.LBB187
 19311 02cc B8000000 		.4byte	.LBE187
 19312 02d0 C2000000 		.4byte	.LBB190
 19313 02d4 82010000 		.4byte	.LBE190
 19314 02d8 00000000 		.4byte	0
 19315 02dc 00000000 		.4byte	0
 19316 02e0 76000000 		.4byte	.LBB193
 19317 02e4 7C000000 		.4byte	.LBE193
 19318 02e8 80000000 		.4byte	.LBB198
 19319 02ec 92000000 		.4byte	.LBE198
 19320 02f0 96000000 		.4byte	.LBB199
 19321 02f4 98000000 		.4byte	.LBE199
 19322 02f8 A6000000 		.4byte	.LBB202
 19323 02fc A8000000 		.4byte	.LBE202
 19324 0300 00000000 		.4byte	0
 19325 0304 00000000 		.4byte	0
 19326 0308 C4000000 		.4byte	.LBB215
 19327 030c C6000000 		.4byte	.LBE215
 19328 0310 CA000000 		.4byte	.LBB218
 19329 0314 DA000000 		.4byte	.LBE218
 19330 0318 00000000 		.4byte	0
 19331 031c 00000000 		.4byte	0
 19332 0320 00000000 		.4byte	.LFB18
 19333 0324 88000000 		.4byte	.LFE18
 19334 0328 00000000 		.4byte	.LFB4
 19335 032c 7A000000 		.4byte	.LFE4
ARM GAS  /var/folders/dt/0wfd0knj7gs46m8vwfzktm600000gn/T//cczoWvr4.s 			page 341


 19336 0330 00000000 		.4byte	.LFB5
 19337 0334 D4000000 		.4byte	.LFE5
 19338 0338 00000000 		.4byte	.LFB22
 19339 033c 24000000 		.4byte	.LFE22
 19340 0340 00000000 		.4byte	.LFB20
 19341 0344 8A000000 		.4byte	.LFE20
 19342 0348 00000000 		.4byte	.LFB21
 19343 034c 04030000 		.4byte	.LFE21
 19344 0350 00000000 		.4byte	.LFB6
 19345 0354 16000000 		.4byte	.LFE6
 19346 0358 00000000 		.4byte	.LFB7
 19347 035c CC000000 		.4byte	.LFE7
 19348 0360 00000000 		.4byte	.LFB11
 19349 0364 96000000 		.4byte	.LFE11
 19350 0368 00000000 		.4byte	.LFB16
 19351 036c 28000000 		.4byte	.LFE16
 19352 0370 00000000 		.4byte	.LFB8
 19353 0374 0C010000 		.4byte	.LFE8
 19354 0378 00000000 		.4byte	.LFB10
 19355 037c AE000000 		.4byte	.LFE10
 19356 0380 00000000 		.4byte	.LFB12
 19357 0384 26010000 		.4byte	.LFE12
 19358 0388 00000000 		.4byte	.LFB19
 19359 038c 4C020000 		.4byte	.LFE19
 19360 0390 00000000 		.4byte	.LFB15
 19361 0394 78000000 		.4byte	.LFE15
 19362 0398 00000000 		.4byte	.LFB14
 19363 039c 56000000 		.4byte	.LFE14
 19364 03a0 00000000 		.4byte	.LFB9
 19365 03a4 54000000 		.4byte	.LFE9
 19366 03a8 00000000 		.4byte	.LFB23
 19367 03ac 20000000 		.4byte	.LFE23
 19368 03b0 00000000 		.4byte	.LFB24
 19369 03b4 76010000 		.4byte	.LFE24
 19370 03b8 00000000 		.4byte	.LFB25
 19371 03bc 9A010000 		.4byte	.LFE25
 19372 03c0 00000000 		.4byte	.LFB26
 19373 03c4 EE010000 		.4byte	.LFE26
 19374 03c8 00000000 		.4byte	.LFB27
 19375 03cc A8000000 		.4byte	.LFE27
 19376 03d0 00000000 		.4byte	.LFB28
 19377 03d4 0E000000 		.4byte	.LFE28
 19378 03d8 00000000 		.4byte	.LFB29
 19379 03dc 82010000 		.4byte	.LFE29
 19380 03e0 00000000 		.4byte	.LFB30
 19381 03e4 68000000 		.4byte	.LFE30
 19382 03e8 00000000 		.4byte	.LFB31
 19383 03ec 58000000 		.4byte	.LFE31
 19384 03f0 00000000 		.4byte	.LFB32
 19385 03f4 44000000 		.4byte	.LFE32
 19386 03f8 00000000 		.4byte	.LFB33
 19387 03fc 0E010000 		.4byte	.LFE33
 19388 0400 00000000 		.4byte	.LFB34
 19389 0404 92000000 		.4byte	.LFE34
 19390 0408 00000000 		.4byte	.LFB35
 19391 040c AA000000 		.4byte	.LFE35
 19392 0410 00000000 		.4byte	.LFB36
ARM GAS  /var/folders/dt/0wfd0knj7gs46m8vwfzktm600000gn/T//cczoWvr4.s 			page 342


 19393 0414 08020000 		.4byte	.LFE36
 19394 0418 00000000 		.4byte	.LFB37
 19395 041c 54000000 		.4byte	.LFE37
 19396 0420 00000000 		.4byte	.LFB38
 19397 0424 56000000 		.4byte	.LFE38
 19398 0428 00000000 		.4byte	.LFB39
 19399 042c 38010000 		.4byte	.LFE39
 19400 0430 00000000 		.4byte	0
 19401 0434 00000000 		.4byte	0
 19402              		.section	.debug_line,"",%progbits
 19403              	.Ldebug_line0:
 19404 0000 DE0B0000 		.section	.debug_str,"MS",%progbits,1
 19404      02005000 
 19404      00000201 
 19404      FB0E0D00 
 19404      01010101 
 19405              	.LASF47:
 19406 0000 46525F4E 		.ascii	"FR_NOT_READY\000"
 19406      4F545F52 
 19406      45414459 
 19406      00
 19407              	.LASF67:
 19408 000d 5245535F 		.ascii	"RES_WRPRT\000"
 19408      57525052 
 19408      5400
 19409              	.LASF134:
 19410 0017 76616C75 		.ascii	"value\000"
 19410      6500
 19411              	.LASF62:
 19412 001d 46525F54 		.ascii	"FR_TOO_MANY_OPEN_FILES\000"
 19412      4F4F5F4D 
 19412      414E595F 
 19412      4F50454E 
 19412      5F46494C 
 19413              	.LASF78:
 19414 0034 7075745F 		.ascii	"put_fat\000"
 19414      66617400 
 19415              	.LASF12:
 19416 003c 66735F74 		.ascii	"fs_type\000"
 19416      79706500 
 19417              	.LASF114:
 19418 0044 63736563 		.ascii	"csect\000"
 19418      7400
 19419              	.LASF71:
 19420 004a 63686B5F 		.ascii	"chk_chr\000"
 19420      63687200 
 19421              	.LASF110:
 19422 0052 665F7265 		.ascii	"f_read\000"
 19422      616400
 19423              	.LASF68:
 19424 0059 5245535F 		.ascii	"RES_NOTRDY\000"
 19424      4E4F5452 
 19424      445900
 19425              	.LASF17:
 19426 0064 6E5F726F 		.ascii	"n_rootdir\000"
 19426      6F746469 
 19426      7200
ARM GAS  /var/folders/dt/0wfd0knj7gs46m8vwfzktm600000gn/T//cczoWvr4.s 			page 343


 19427              	.LASF89:
 19428 006e 70617468 		.ascii	"path\000"
 19428      00
 19429              	.LASF115:
 19430 0073 72627566 		.ascii	"rbuff\000"
 19430      6600
 19431              	.LASF136:
 19432 0079 665F7574 		.ascii	"f_utime\000"
 19432      696D6500 
 19433              	.LASF38:
 19434 0081 73656374 		.ascii	"sect\000"
 19434      00
 19435              	.LASF53:
 19436 0086 46525F49 		.ascii	"FR_INVALID_OBJECT\000"
 19436      4E56414C 
 19436      49445F4F 
 19436      424A4543 
 19436      5400
 19437              	.LASF93:
 19438 0098 66617369 		.ascii	"fasize\000"
 19438      7A6500
 19439              	.LASF18:
 19440 009f 6C617374 		.ascii	"last_clust\000"
 19440      5F636C75 
 19440      737400
 19441              	.LASF35:
 19442 00aa 6469725F 		.ascii	"dir_sect\000"
 19442      73656374 
 19442      00
 19443              	.LASF138:
 19444 00b3 70617468 		.ascii	"path_old\000"
 19444      5F6F6C64 
 19444      00
 19445              	.LASF24:
 19446 00bc 64697262 		.ascii	"dirbase\000"
 19446      61736500 
 19447              	.LASF111:
 19448 00c4 62756666 		.ascii	"buff\000"
 19448      00
 19449              	.LASF22:
 19450 00c9 6673697A 		.ascii	"fsize\000"
 19450      6500
 19451              	.LASF21:
 19452 00cf 6E5F6661 		.ascii	"n_fatent\000"
 19452      74656E74 
 19452      00
 19453              	.LASF148:
 19454 00d8 2E2E2F2E 		.ascii	"../../ext/fatfs/src/ff.c\000"
 19454      2E2F6578 
 19454      742F6661 
 19454      7466732F 
 19454      7372632F 
 19455              	.LASF8:
 19456 00f1 6C6F6E67 		.ascii	"long int\000"
 19456      20696E74 
 19456      00
 19457              	.LASF77:
ARM GAS  /var/folders/dt/0wfd0knj7gs46m8vwfzktm600000gn/T//cczoWvr4.s 			page 344


 19458 00fa 6469725F 		.ascii	"dir_remove\000"
 19458      72656D6F 
 19458      766500
 19459              	.LASF69:
 19460 0105 5245535F 		.ascii	"RES_PARERR\000"
 19460      50415245 
 19460      525200
 19461              	.LASF14:
 19462 0110 6E5F6661 		.ascii	"n_fats\000"
 19462      747300
 19463              	.LASF140:
 19464 0117 46617446 		.ascii	"FatFs\000"
 19464      7300
 19465              	.LASF57:
 19466 011d 46525F4E 		.ascii	"FR_NO_FILESYSTEM\000"
 19466      4F5F4649 
 19466      4C455359 
 19466      5354454D 
 19466      00
 19467              	.LASF149:
 19468 012e 2F557365 		.ascii	"/Users/toxygen/Projects/UAV/Control_sytem/sw/autopi"
 19468      72732F74 
 19468      6F787967 
 19468      656E2F50 
 19468      726F6A65 
 19469 0161 6C6F742F 		.ascii	"lot/2.4.3/demos/test2\000"
 19469      322E342E 
 19469      332F6465 
 19469      6D6F732F 
 19469      74657374 
 19470              	.LASF61:
 19471 0177 46525F4E 		.ascii	"FR_NOT_ENOUGH_CORE\000"
 19471      4F545F45 
 19471      4E4F5547 
 19471      485F434F 
 19471      524500
 19472              	.LASF52:
 19473 018a 46525F45 		.ascii	"FR_EXIST\000"
 19473      58495354 
 19473      00
 19474              	.LASF23:
 19475 0193 66617462 		.ascii	"fatbase\000"
 19475      61736500 
 19476              	.LASF10:
 19477 019b 44574F52 		.ascii	"DWORD\000"
 19477      4400
 19478              	.LASF116:
 19479 01a1 665F7772 		.ascii	"f_write\000"
 19479      69746500 
 19480              	.LASF104:
 19481 01a9 6469725F 		.ascii	"dir_find\000"
 19481      66696E64 
 19481      00
 19482              	.LASF126:
 19483 01b2 665F7374 		.ascii	"f_stat\000"
 19483      617400
 19484              	.LASF13:
ARM GAS  /var/folders/dt/0wfd0knj7gs46m8vwfzktm600000gn/T//cczoWvr4.s 			page 345


 19485 01b9 6373697A 		.ascii	"csize\000"
 19485      6500
 19486              	.LASF146:
 19487 01bf 6469736B 		.ascii	"disk_initialize\000"
 19487      5F696E69 
 19487      7469616C 
 19487      697A6500 
 19488              	.LASF4:
 19489 01cf 42595445 		.ascii	"BYTE\000"
 19489      00
 19490              	.LASF36:
 19491 01d4 6469725F 		.ascii	"dir_ptr\000"
 19491      70747200 
 19492              	.LASF102:
 19493 01dc 73747265 		.ascii	"stretch\000"
 19493      74636800 
 19494              	.LASF109:
 19495 01e4 6D6F6465 		.ascii	"mode\000"
 19495      00
 19496              	.LASF0:
 19497 01e9 756E7369 		.ascii	"unsigned int\000"
 19497      676E6564 
 19497      20696E74 
 19497      00
 19498              	.LASF3:
 19499 01f6 55494E54 		.ascii	"UINT\000"
 19499      00
 19500              	.LASF40:
 19501 01fb 6674696D 		.ascii	"ftime\000"
 19501      6500
 19502              	.LASF9:
 19503 0201 6C6F6E67 		.ascii	"long unsigned int\000"
 19503      20756E73 
 19503      69676E65 
 19503      6420696E 
 19503      7400
 19504              	.LASF145:
 19505 0213 6469736B 		.ascii	"disk_status\000"
 19505      5F737461 
 19505      74757300 
 19506              	.LASF120:
 19507 021f 665F636C 		.ascii	"f_close\000"
 19507      6F736500 
 19508              	.LASF92:
 19509 0227 62736563 		.ascii	"bsect\000"
 19509      7400
 19510              	.LASF95:
 19511 022d 73797365 		.ascii	"sysect\000"
 19511      637400
 19512              	.LASF6:
 19513 0234 73686F72 		.ascii	"short unsigned int\000"
 19513      7420756E 
 19513      7369676E 
 19513      65642069 
 19513      6E7400
 19514              	.LASF25:
 19515 0247 64617461 		.ascii	"database\000"
ARM GAS  /var/folders/dt/0wfd0knj7gs46m8vwfzktm600000gn/T//cczoWvr4.s 			page 346


 19515      62617365 
 19515      00
 19516              	.LASF137:
 19517 0250 665F7265 		.ascii	"f_rename\000"
 19517      6E616D65 
 19517      00
 19518              	.LASF74:
 19519 0259 636C7374 		.ascii	"clst\000"
 19519      00
 19520              	.LASF46:
 19521 025e 46525F49 		.ascii	"FR_INT_ERR\000"
 19521      4E545F45 
 19521      525200
 19522              	.LASF121:
 19523 0269 665F6C73 		.ascii	"f_lseek\000"
 19523      65656B00 
 19524              	.LASF45:
 19525 0271 46525F44 		.ascii	"FR_DISK_ERR\000"
 19525      49534B5F 
 19525      45525200 
 19526              	.LASF26:
 19527 027d 77696E73 		.ascii	"winsect\000"
 19527      65637400 
 19528              	.LASF79:
 19529 0285 6D656D5F 		.ascii	"mem_cmp\000"
 19529      636D7000 
 19530              	.LASF84:
 19531 028d 73656374 		.ascii	"sector\000"
 19531      6F7200
 19532              	.LASF97:
 19533 0294 737A6266 		.ascii	"szbfat\000"
 19533      617400
 19534              	.LASF101:
 19535 029b 6469725F 		.ascii	"dir_next\000"
 19535      6E657874 
 19535      00
 19536              	.LASF42:
 19537 02a4 666E616D 		.ascii	"fname\000"
 19537      6500
 19538              	.LASF123:
 19539 02aa 69667074 		.ascii	"ifptr\000"
 19539      7200
 19540              	.LASF54:
 19541 02b0 46525F57 		.ascii	"FR_WRITE_PROTECTED\000"
 19541      52495445 
 19541      5F50524F 
 19541      54454354 
 19541      454400
 19542              	.LASF144:
 19543 02c3 6469736B 		.ascii	"disk_ioctl\000"
 19543      5F696F63 
 19543      746C00
 19544              	.LASF28:
 19545 02ce 46415446 		.ascii	"FATFS\000"
 19545      5300
 19546              	.LASF132:
 19547 02d4 665F6D6B 		.ascii	"f_mkdir\000"
ARM GAS  /var/folders/dt/0wfd0knj7gs46m8vwfzktm600000gn/T//cczoWvr4.s 			page 347


 19547      64697200 
 19548              	.LASF39:
 19549 02dc 66646174 		.ascii	"fdate\000"
 19549      6500
 19550              	.LASF119:
 19551 02e2 665F7379 		.ascii	"f_sync\000"
 19551      6E6300
 19552              	.LASF117:
 19553 02e9 77636E74 		.ascii	"wcnt\000"
 19553      00
 19554              	.LASF31:
 19555 02ee 66707472 		.ascii	"fptr\000"
 19555      00
 19556              	.LASF76:
 19557 02f3 636C7573 		.ascii	"clust2sect\000"
 19557      74327365 
 19557      637400
 19558              	.LASF139:
 19559 02fe 70617468 		.ascii	"path_new\000"
 19559      5F6E6577 
 19559      00
 19560              	.LASF80:
 19561 0307 6D656D5F 		.ascii	"mem_set\000"
 19561      73657400 
 19562              	.LASF27:
 19563 030f 73697A65 		.ascii	"sizetype\000"
 19563      74797065 
 19563      00
 19564              	.LASF150:
 19565 0318 6765745F 		.ascii	"get_fileinfo\000"
 19565      66696C65 
 19565      696E666F 
 19565      00
 19566              	.LASF88:
 19567 0325 63686B5F 		.ascii	"chk_mounted\000"
 19567      6D6F756E 
 19567      74656400 
 19568              	.LASF96:
 19569 0331 6E636C73 		.ascii	"nclst\000"
 19569      7400
 19570              	.LASF59:
 19571 0337 46525F54 		.ascii	"FR_TIMEOUT\000"
 19571      494D454F 
 19571      555400
 19572              	.LASF7:
 19573 0342 574F5244 		.ascii	"WORD\000"
 19573      00
 19574              	.LASF32:
 19575 0347 73636C75 		.ascii	"sclust\000"
 19575      737400
 19576              	.LASF65:
 19577 034e 5245535F 		.ascii	"RES_OK\000"
 19577      4F4B00
 19578              	.LASF19:
 19579 0355 66726565 		.ascii	"free_clust\000"
 19579      5F636C75 
 19579      737400
ARM GAS  /var/folders/dt/0wfd0knj7gs46m8vwfzktm600000gn/T//cczoWvr4.s 			page 348


 19580              	.LASF48:
 19581 0360 46525F4E 		.ascii	"FR_NO_FILE\000"
 19581      4F5F4649 
 19581      4C4500
 19582              	.LASF128:
 19583 036b 66617466 		.ascii	"fatfs\000"
 19583      7300
 19584              	.LASF11:
 19585 0371 54434841 		.ascii	"TCHAR\000"
 19585      5200
 19586              	.LASF147:
 19587 0377 474E5520 		.ascii	"GNU C 4.7.2\000"
 19587      4320342E 
 19587      372E3200 
 19588              	.LASF56:
 19589 0383 46525F4E 		.ascii	"FR_NOT_ENABLED\000"
 19589      4F545F45 
 19589      4E41424C 
 19589      454400
 19590              	.LASF151:
 19591 0392 6765745F 		.ascii	"get_fattime\000"
 19591      66617474 
 19591      696D6500 
 19592              	.LASF127:
 19593 039e 665F6765 		.ascii	"f_getfree\000"
 19593      74667265 
 19593      6500
 19594              	.LASF107:
 19595 03a8 665F6D6F 		.ascii	"f_mount\000"
 19595      756E7400 
 19596              	.LASF131:
 19597 03b0 64636C73 		.ascii	"dclst\000"
 19597      7400
 19598              	.LASF75:
 19599 03b6 6765745F 		.ascii	"get_fat\000"
 19599      66617400 
 19600              	.LASF100:
 19601 03be 63726561 		.ascii	"create_chain\000"
 19601      74655F63 
 19601      6861696E 
 19601      00
 19602              	.LASF34:
 19603 03cb 64736563 		.ascii	"dsect\000"
 19603      7400
 19604              	.LASF2:
 19605 03d1 756E7369 		.ascii	"unsigned char\000"
 19605      676E6564 
 19605      20636861 
 19605      7200
 19606              	.LASF130:
 19607 03df 665F756E 		.ascii	"f_unlink\000"
 19607      6C696E6B 
 19607      00
 19608              	.LASF133:
 19609 03e8 665F6368 		.ascii	"f_chmod\000"
 19609      6D6F6400 
 19610              	.LASF118:
ARM GAS  /var/folders/dt/0wfd0knj7gs46m8vwfzktm600000gn/T//cczoWvr4.s 			page 349


 19611 03f0 77627566 		.ascii	"wbuff\000"
 19611      6600
 19612              	.LASF5:
 19613 03f6 73686F72 		.ascii	"short int\000"
 19613      7420696E 
 19613      7400
 19614              	.LASF29:
 19615 0400 666C6167 		.ascii	"flag\000"
 19615      00
 19616              	.LASF105:
 19617 0405 666F6C6C 		.ascii	"follow_path\000"
 19617      6F775F70 
 19617      61746800 
 19618              	.LASF73:
 19619 0411 63686563 		.ascii	"check_fs\000"
 19619      6B5F6673 
 19619      00
 19620              	.LASF55:
 19621 041a 46525F49 		.ascii	"FR_INVALID_DRIVE\000"
 19621      4E56414C 
 19621      49445F44 
 19621      52495645 
 19621      00
 19622              	.LASF51:
 19623 042b 46525F44 		.ascii	"FR_DENIED\000"
 19623      454E4945 
 19623      4400
 19624              	.LASF72:
 19625 0435 76616C69 		.ascii	"validate\000"
 19625      64617465 
 19625      00
 19626              	.LASF82:
 19627 043e 6469725F 		.ascii	"dir_register\000"
 19627      72656769 
 19627      73746572 
 19627      00
 19628              	.LASF58:
 19629 044b 46525F4D 		.ascii	"FR_MKFS_ABORTED\000"
 19629      4B46535F 
 19629      41424F52 
 19629      54454400 
 19630              	.LASF125:
 19631 045b 665F7265 		.ascii	"f_readdir\000"
 19631      61646469 
 19631      7200
 19632              	.LASF60:
 19633 0465 46525F4C 		.ascii	"FR_LOCKED\000"
 19633      4F434B45 
 19633      4400
 19634              	.LASF15:
 19635 046f 77666C61 		.ascii	"wflag\000"
 19635      6700
 19636              	.LASF122:
 19637 0475 6E736563 		.ascii	"nsect\000"
 19637      7400
 19638              	.LASF1:
 19639 047b 63686172 		.ascii	"char\000"
ARM GAS  /var/folders/dt/0wfd0knj7gs46m8vwfzktm600000gn/T//cczoWvr4.s 			page 350


 19639      00
 19640              	.LASF103:
 19641 0480 63726561 		.ascii	"create_name\000"
 19641      74655F6E 
 19641      616D6500 
 19642              	.LASF44:
 19643 048c 46525F4F 		.ascii	"FR_OK\000"
 19643      4B00
 19644              	.LASF37:
 19645 0492 696E6465 		.ascii	"index\000"
 19645      7800
 19646              	.LASF83:
 19647 0498 72656D6F 		.ascii	"remove_chain\000"
 19647      76655F63 
 19647      6861696E 
 19647      00
 19648              	.LASF64:
 19649 04a5 44535441 		.ascii	"DSTATUS\000"
 19649      54555300 
 19650              	.LASF90:
 19651 04ad 63686B5F 		.ascii	"chk_wp\000"
 19651      777000
 19652              	.LASF124:
 19653 04b4 665F6F70 		.ascii	"f_opendir\000"
 19653      656E6469 
 19653      7200
 19654              	.LASF98:
 19655 04be 6E727376 		.ascii	"nrsv\000"
 19655      00
 19656              	.LASF50:
 19657 04c3 46525F49 		.ascii	"FR_INVALID_NAME\000"
 19657      4E56414C 
 19657      49445F4E 
 19657      414D4500 
 19658              	.LASF142:
 19659 04d3 6469736B 		.ascii	"disk_write\000"
 19659      5F777269 
 19659      746500
 19660              	.LASF86:
 19661 04de 6D6F7665 		.ascii	"move_window\000"
 19661      5F77696E 
 19661      646F7700 
 19662              	.LASF16:
 19663 04ea 6673695F 		.ascii	"fsi_flag\000"
 19663      666C6167 
 19663      00
 19664              	.LASF81:
 19665 04f3 6D656D5F 		.ascii	"mem_cpy\000"
 19665      63707900 
 19666              	.LASF112:
 19667 04fb 72656D61 		.ascii	"remain\000"
 19667      696E00
 19668              	.LASF30:
 19669 0502 70616431 		.ascii	"pad1\000"
 19669      00
 19670              	.LASF41:
 19671 0507 66617474 		.ascii	"fattrib\000"
ARM GAS  /var/folders/dt/0wfd0knj7gs46m8vwfzktm600000gn/T//cczoWvr4.s 			page 351


 19671      72696200 
 19672              	.LASF135:
 19673 050f 6D61736B 		.ascii	"mask\000"
 19673      00
 19674              	.LASF85:
 19675 0514 77736563 		.ascii	"wsect\000"
 19675      7400
 19676              	.LASF129:
 19677 051a 665F7472 		.ascii	"f_truncate\000"
 19677      756E6361 
 19677      746500
 19678              	.LASF43:
 19679 0525 46494C49 		.ascii	"FILINFO\000"
 19679      4E464F00 
 19680              	.LASF70:
 19681 052d 44524553 		.ascii	"DRESULT\000"
 19681      554C5400 
 19682              	.LASF113:
 19683 0535 72636E74 		.ascii	"rcnt\000"
 19683      00
 19684              	.LASF87:
 19685 053a 73796E63 		.ascii	"sync\000"
 19685      00
 19686              	.LASF20:
 19687 053f 6673695F 		.ascii	"fsi_sector\000"
 19687      73656374 
 19687      6F7200
 19688              	.LASF91:
 19689 054a 73746174 		.ascii	"stat\000"
 19689      00
 19690              	.LASF63:
 19691 054f 46524553 		.ascii	"FRESULT\000"
 19691      554C5400 
 19692              	.LASF66:
 19693 0557 5245535F 		.ascii	"RES_ERROR\000"
 19693      4552524F 
 19693      5200
 19694              	.LASF106:
 19695 0561 6469725F 		.ascii	"dir_read\000"
 19695      72656164 
 19695      00
 19696              	.LASF108:
 19697 056a 665F6F70 		.ascii	"f_open\000"
 19697      656E00
 19698              	.LASF49:
 19699 0571 46525F4E 		.ascii	"FR_NO_PATH\000"
 19699      4F5F5041 
 19699      544800
 19700              	.LASF143:
 19701 057c 6469736B 		.ascii	"disk_read\000"
 19701      5F726561 
 19701      6400
 19702              	.LASF99:
 19703 0586 6469725F 		.ascii	"dir_sdi\000"
 19703      73646900 
 19704              	.LASF141:
 19705 058e 46736964 		.ascii	"Fsid\000"
ARM GAS  /var/folders/dt/0wfd0knj7gs46m8vwfzktm600000gn/T//cczoWvr4.s 			page 352


 19705      00
 19706              	.LASF33:
 19707 0593 636C7573 		.ascii	"clust\000"
 19707      7400
 19708              	.LASF94:
 19709 0599 74736563 		.ascii	"tsect\000"
 19709      7400
 19710              		.ident	"GCC: (GNU) 4.7.2"
ARM GAS  /var/folders/dt/0wfd0knj7gs46m8vwfzktm600000gn/T//cczoWvr4.s 			page 353


DEFINED SYMBOLS
                            *ABS*:0000000000000000 ff.c
/var/folders/dt/0wfd0knj7gs46m8vwfzktm600000gn/T//cczoWvr4.s:19     .text.get_fileinfo:0000000000000000 $t
/var/folders/dt/0wfd0knj7gs46m8vwfzktm600000gn/T//cczoWvr4.s:24     .text.get_fileinfo:0000000000000000 get_fileinfo
/var/folders/dt/0wfd0knj7gs46m8vwfzktm600000gn/T//cczoWvr4.s:151    .text.move_window:0000000000000000 $t
/var/folders/dt/0wfd0knj7gs46m8vwfzktm600000gn/T//cczoWvr4.s:156    .text.move_window:0000000000000000 move_window
/var/folders/dt/0wfd0knj7gs46m8vwfzktm600000gn/T//cczoWvr4.s:273    .text.sync:0000000000000000 $t
/var/folders/dt/0wfd0knj7gs46m8vwfzktm600000gn/T//cczoWvr4.s:278    .text.sync:0000000000000000 sync
/var/folders/dt/0wfd0knj7gs46m8vwfzktm600000gn/T//cczoWvr4.s:429    .text.validate:0000000000000000 $t
/var/folders/dt/0wfd0knj7gs46m8vwfzktm600000gn/T//cczoWvr4.s:434    .text.validate:0000000000000000 validate
/var/folders/dt/0wfd0knj7gs46m8vwfzktm600000gn/T//cczoWvr4.s:483    .text.check_fs:0000000000000000 $t
/var/folders/dt/0wfd0knj7gs46m8vwfzktm600000gn/T//cczoWvr4.s:488    .text.check_fs:0000000000000000 check_fs
/var/folders/dt/0wfd0knj7gs46m8vwfzktm600000gn/T//cczoWvr4.s:569    .text.chk_mounted:0000000000000000 $t
/var/folders/dt/0wfd0knj7gs46m8vwfzktm600000gn/T//cczoWvr4.s:574    .text.chk_mounted:0000000000000000 chk_mounted
/var/folders/dt/0wfd0knj7gs46m8vwfzktm600000gn/T//cczoWvr4.s:1099   .text.chk_mounted:00000000000002fc $d
/var/folders/dt/0wfd0knj7gs46m8vwfzktm600000gn/T//cczoWvr4.s:1105   .text.clust2sect:0000000000000000 $t
/var/folders/dt/0wfd0knj7gs46m8vwfzktm600000gn/T//cczoWvr4.s:1111   .text.clust2sect:0000000000000000 clust2sect
/var/folders/dt/0wfd0knj7gs46m8vwfzktm600000gn/T//cczoWvr4.s:1141   .text.get_fat:0000000000000000 $t
/var/folders/dt/0wfd0knj7gs46m8vwfzktm600000gn/T//cczoWvr4.s:1147   .text.get_fat:0000000000000000 get_fat
/var/folders/dt/0wfd0knj7gs46m8vwfzktm600000gn/T//cczoWvr4.s:1319   .text.dir_sdi:0000000000000000 $t
/var/folders/dt/0wfd0knj7gs46m8vwfzktm600000gn/T//cczoWvr4.s:1324   .text.dir_sdi:0000000000000000 dir_sdi
/var/folders/dt/0wfd0knj7gs46m8vwfzktm600000gn/T//cczoWvr4.s:1486   .text.dir_remove:0000000000000000 $t
/var/folders/dt/0wfd0knj7gs46m8vwfzktm600000gn/T//cczoWvr4.s:1491   .text.dir_remove:0000000000000000 dir_remove
/var/folders/dt/0wfd0knj7gs46m8vwfzktm600000gn/T//cczoWvr4.s:1546   .text.put_fat:0000000000000000 $t
/var/folders/dt/0wfd0knj7gs46m8vwfzktm600000gn/T//cczoWvr4.s:1552   .text.put_fat:0000000000000000 put_fat
/var/folders/dt/0wfd0knj7gs46m8vwfzktm600000gn/T//cczoWvr4.s:1762   .text.create_chain:0000000000000000 $t
/var/folders/dt/0wfd0knj7gs46m8vwfzktm600000gn/T//cczoWvr4.s:1767   .text.create_chain:0000000000000000 create_chain
/var/folders/dt/0wfd0knj7gs46m8vwfzktm600000gn/T//cczoWvr4.s:1934   .text.dir_next:0000000000000000 $t
/var/folders/dt/0wfd0knj7gs46m8vwfzktm600000gn/T//cczoWvr4.s:1939   .text.dir_next:0000000000000000 dir_next
/var/folders/dt/0wfd0knj7gs46m8vwfzktm600000gn/T//cczoWvr4.s:2228   .text.follow_path:0000000000000000 $t
/var/folders/dt/0wfd0knj7gs46m8vwfzktm600000gn/T//cczoWvr4.s:2233   .text.follow_path:0000000000000000 follow_path
/var/folders/dt/0wfd0knj7gs46m8vwfzktm600000gn/T//cczoWvr4.s:2702   .text.follow_path:0000000000000248 $d
/var/folders/dt/0wfd0knj7gs46m8vwfzktm600000gn/T//cczoWvr4.s:2709   .text.dir_register:0000000000000000 $t
/var/folders/dt/0wfd0knj7gs46m8vwfzktm600000gn/T//cczoWvr4.s:2714   .text.dir_register:0000000000000000 dir_register
/var/folders/dt/0wfd0knj7gs46m8vwfzktm600000gn/T//cczoWvr4.s:2854   .text.dir_read:0000000000000000 $t
/var/folders/dt/0wfd0knj7gs46m8vwfzktm600000gn/T//cczoWvr4.s:2859   .text.dir_read:0000000000000000 dir_read
/var/folders/dt/0wfd0knj7gs46m8vwfzktm600000gn/T//cczoWvr4.s:2964   .text.remove_chain:0000000000000000 $t
/var/folders/dt/0wfd0knj7gs46m8vwfzktm600000gn/T//cczoWvr4.s:2969   .text.remove_chain:0000000000000000 remove_chain
/var/folders/dt/0wfd0knj7gs46m8vwfzktm600000gn/T//cczoWvr4.s:3075   .text.f_mount:0000000000000000 $t
/var/folders/dt/0wfd0knj7gs46m8vwfzktm600000gn/T//cczoWvr4.s:3081   .text.f_mount:0000000000000000 f_mount
/var/folders/dt/0wfd0knj7gs46m8vwfzktm600000gn/T//cczoWvr4.s:3123   .text.f_mount:000000000000001c $d
/var/folders/dt/0wfd0knj7gs46m8vwfzktm600000gn/T//cczoWvr4.s:3128   .text.f_open:0000000000000000 $t
/var/folders/dt/0wfd0knj7gs46m8vwfzktm600000gn/T//cczoWvr4.s:3134   .text.f_open:0000000000000000 f_open
/var/folders/dt/0wfd0knj7gs46m8vwfzktm600000gn/T//cczoWvr4.s:3430   .text.f_read:0000000000000000 $t
/var/folders/dt/0wfd0knj7gs46m8vwfzktm600000gn/T//cczoWvr4.s:3436   .text.f_read:0000000000000000 f_read
/var/folders/dt/0wfd0knj7gs46m8vwfzktm600000gn/T//cczoWvr4.s:3786   .text.f_write:0000000000000000 $t
/var/folders/dt/0wfd0knj7gs46m8vwfzktm600000gn/T//cczoWvr4.s:3792   .text.f_write:0000000000000000 f_write
/var/folders/dt/0wfd0knj7gs46m8vwfzktm600000gn/T//cczoWvr4.s:4181   .text.f_sync:0000000000000000 $t
/var/folders/dt/0wfd0knj7gs46m8vwfzktm600000gn/T//cczoWvr4.s:4187   .text.f_sync:0000000000000000 f_sync
/var/folders/dt/0wfd0knj7gs46m8vwfzktm600000gn/T//cczoWvr4.s:4314   .text.f_close:0000000000000000 $t
/var/folders/dt/0wfd0knj7gs46m8vwfzktm600000gn/T//cczoWvr4.s:4320   .text.f_close:0000000000000000 f_close
/var/folders/dt/0wfd0knj7gs46m8vwfzktm600000gn/T//cczoWvr4.s:4348   .text.f_lseek:0000000000000000 $t
/var/folders/dt/0wfd0knj7gs46m8vwfzktm600000gn/T//cczoWvr4.s:4354   .text.f_lseek:0000000000000000 f_lseek
/var/folders/dt/0wfd0knj7gs46m8vwfzktm600000gn/T//cczoWvr4.s:4695   .text.f_opendir:0000000000000000 $t
/var/folders/dt/0wfd0knj7gs46m8vwfzktm600000gn/T//cczoWvr4.s:4701   .text.f_opendir:0000000000000000 f_opendir
/var/folders/dt/0wfd0knj7gs46m8vwfzktm600000gn/T//cczoWvr4.s:4797   .text.f_readdir:0000000000000000 $t
/var/folders/dt/0wfd0knj7gs46m8vwfzktm600000gn/T//cczoWvr4.s:4803   .text.f_readdir:0000000000000000 f_readdir
ARM GAS  /var/folders/dt/0wfd0knj7gs46m8vwfzktm600000gn/T//cczoWvr4.s 			page 354


/var/folders/dt/0wfd0knj7gs46m8vwfzktm600000gn/T//cczoWvr4.s:4898   .text.f_stat:0000000000000000 $t
/var/folders/dt/0wfd0knj7gs46m8vwfzktm600000gn/T//cczoWvr4.s:4904   .text.f_stat:0000000000000000 f_stat
/var/folders/dt/0wfd0knj7gs46m8vwfzktm600000gn/T//cczoWvr4.s:4977   .text.f_getfree:0000000000000000 $t
/var/folders/dt/0wfd0knj7gs46m8vwfzktm600000gn/T//cczoWvr4.s:4983   .text.f_getfree:0000000000000000 f_getfree
/var/folders/dt/0wfd0knj7gs46m8vwfzktm600000gn/T//cczoWvr4.s:5202   .text.f_truncate:0000000000000000 $t
/var/folders/dt/0wfd0knj7gs46m8vwfzktm600000gn/T//cczoWvr4.s:5208   .text.f_truncate:0000000000000000 f_truncate
/var/folders/dt/0wfd0knj7gs46m8vwfzktm600000gn/T//cczoWvr4.s:5348   .text.f_unlink:0000000000000000 $t
/var/folders/dt/0wfd0knj7gs46m8vwfzktm600000gn/T//cczoWvr4.s:5354   .text.f_unlink:0000000000000000 f_unlink
/var/folders/dt/0wfd0knj7gs46m8vwfzktm600000gn/T//cczoWvr4.s:5518   .text.f_mkdir:0000000000000000 $t
/var/folders/dt/0wfd0knj7gs46m8vwfzktm600000gn/T//cczoWvr4.s:5524   .text.f_mkdir:0000000000000000 f_mkdir
/var/folders/dt/0wfd0knj7gs46m8vwfzktm600000gn/T//cczoWvr4.s:5932   .text.f_chmod:0000000000000000 $t
/var/folders/dt/0wfd0knj7gs46m8vwfzktm600000gn/T//cczoWvr4.s:5938   .text.f_chmod:0000000000000000 f_chmod
/var/folders/dt/0wfd0knj7gs46m8vwfzktm600000gn/T//cczoWvr4.s:6029   .text.f_utime:0000000000000000 $t
/var/folders/dt/0wfd0knj7gs46m8vwfzktm600000gn/T//cczoWvr4.s:6035   .text.f_utime:0000000000000000 f_utime
/var/folders/dt/0wfd0knj7gs46m8vwfzktm600000gn/T//cczoWvr4.s:6124   .text.f_rename:0000000000000000 $t
/var/folders/dt/0wfd0knj7gs46m8vwfzktm600000gn/T//cczoWvr4.s:6130   .text.f_rename:0000000000000000 f_rename
/var/folders/dt/0wfd0knj7gs46m8vwfzktm600000gn/T//cczoWvr4.s:6410   .bss.Fsid:0000000000000000 $d
/var/folders/dt/0wfd0knj7gs46m8vwfzktm600000gn/T//cczoWvr4.s:6414   .bss.Fsid:0000000000000000 Fsid
/var/folders/dt/0wfd0knj7gs46m8vwfzktm600000gn/T//cczoWvr4.s:6417   .rodata.str1.4:0000000000000000 $d
/var/folders/dt/0wfd0knj7gs46m8vwfzktm600000gn/T//cczoWvr4.s:6421   .bss.FatFs:0000000000000000 $d
/var/folders/dt/0wfd0knj7gs46m8vwfzktm600000gn/T//cczoWvr4.s:6425   .bss.FatFs:0000000000000000 FatFs
                     .debug_frame:0000000000000010 $d
/var/folders/dt/0wfd0knj7gs46m8vwfzktm600000gn/T//cczoWvr4.s:1104   .text.chk_mounted:0000000000000304 $t
/var/folders/dt/0wfd0knj7gs46m8vwfzktm600000gn/T//cczoWvr4.s:2708   .text.follow_path:000000000000024c $t

UNDEFINED SYMBOLS
disk_read
disk_write
disk_ioctl
disk_status
disk_initialize
get_fattime
