ARM GAS  /var/folders/dt/0wfd0knj7gs46m8vwfzktm600000gn/T//ccNExKrF.s 			page 1


   1              		.syntax unified
   2              		.cpu cortex-m3
   3              		.fpu softvfp
   4              		.eabi_attribute 20, 1
   5              		.eabi_attribute 21, 1
   6              		.eabi_attribute 23, 3
   7              		.eabi_attribute 24, 1
   8              		.eabi_attribute 25, 1
   9              		.eabi_attribute 26, 1
  10              		.eabi_attribute 30, 2
  11              		.eabi_attribute 34, 1
  12              		.eabi_attribute 18, 4
  13              		.thumb
  14              		.file	"hal.c"
  15              		.text
  16              	.Ltext0:
  17              		.cfi_sections	.debug_frame
  18              		.section	.text.halInit,"ax",%progbits
  19              		.align	2
  20              		.p2align 4,,15
  21              		.global	halInit
  22              		.thumb
  23              		.thumb_func
  24              		.type	halInit, %function
  25              	halInit:
  26              	.LFB62:
  27              		.file 1 "../../os/hal/src/hal.c"
  28              		.loc 1 68 0
  29              		.cfi_startproc
  30              		@ args = 0, pretend = 0, frame = 0
  31              		@ frame_needed = 0, uses_anonymous_args = 0
  32 0000 08B5     		push	{r3, lr}
  33              	.LCFI0:
  34              		.cfi_def_cfa_offset 8
  35              		.cfi_offset 3, -8
  36              		.cfi_offset 14, -4
  37              		.loc 1 70 0
  38 0002 FFF7FEFF 		bl	hal_lld_init
  39              	.LVL0:
  40              		.loc 1 73 0
  41 0006 FFF7FEFF 		bl	tmInit
  42              	.LVL1:
  43              		.loc 1 76 0
  44 000a 40F20000 		movw	r0, #:lower16:pal_default_config
  45 000e C0F20000 		movt	r0, #:upper16:pal_default_config
  46 0012 FFF7FEFF 		bl	_pal_lld_init
  47              	.LVL2:
  48              		.loc 1 103 0
  49 0016 FFF7FEFF 		bl	sdInit
  50              	.LVL3:
  51              		.loc 1 106 0
  52 001a FFF7FEFF 		bl	sdcInit
  53              	.LVL4:
  54              		.loc 1 128 0
  55 001e BDE80840 		pop	{r3, lr}
  56              		.loc 1 127 0
  57 0022 FFF7FEBF 		b	boardInit
ARM GAS  /var/folders/dt/0wfd0knj7gs46m8vwfzktm600000gn/T//ccNExKrF.s 			page 2


  58              	.LVL5:
  59              		.cfi_endproc
  60              	.LFE62:
  61              		.size	halInit, .-halInit
  62 0026 00BFAFF3 		.section	.text.halIsCounterWithin,"ax",%progbits
  62      0080AFF3 
  62      0080
  63              		.align	2
  64              		.p2align 4,,15
  65              		.global	halIsCounterWithin
  66              		.thumb
  67              		.thumb_func
  68              		.type	halIsCounterWithin, %function
  69              	halIsCounterWithin:
  70              	.LFB63:
  71              		.loc 1 174 0
  72              		.cfi_startproc
  73              		@ args = 0, pretend = 0, frame = 0
  74              		@ frame_needed = 0, uses_anonymous_args = 0
  75              		@ link register save eliminated.
  76              	.LVL6:
  77              		.loc 1 175 0
  78 0000 4FF48053 		mov	r3, #4096
  79 0004 CEF20003 		movt	r3, 57344
  80              		.loc 1 177 0
  81 0008 8142     		cmp	r1, r0
  82              		.loc 1 174 0
  83 000a 0246     		mov	r2, r0
  84              		.loc 1 175 0
  85 000c 5B68     		ldr	r3, [r3, #4]
  86              	.LVL7:
  87              		.loc 1 177 0
  88 000e 09D8     		bhi	.L6
  89              		.loc 1 178 0 discriminator 2
  90 0010 8342     		cmp	r3, r0
  91 0012 34BF     		ite	cc
  92 0014 0022     		movcc	r2, #0
  93 0016 0122     		movcs	r2, #1
  94              		.loc 1 177 0 discriminator 2
  95 0018 8B42     		cmp	r3, r1
  96 001a 2CBF     		ite	cs
  97 001c 1046     		movcs	r0, r2
  98 001e 42F00100 		orrcc	r0, r2, #1
  99              	.LVL8:
 100              		.loc 1 179 0 discriminator 2
 101 0022 7047     		bx	lr
 102              	.LVL9:
 103              	.L6:
 104              		.loc 1 177 0 discriminator 1
 105 0024 8B42     		cmp	r3, r1
 106 0026 2CBF     		ite	cs
 107 0028 0020     		movcs	r0, #0
 108              	.LVL10:
 109 002a 0120     		movcc	r0, #1
 110 002c 9342     		cmp	r3, r2
 111 002e 38BF     		it	cc
 112 0030 0020     		movcc	r0, #0
ARM GAS  /var/folders/dt/0wfd0knj7gs46m8vwfzktm600000gn/T//ccNExKrF.s 			page 3


 113 0032 7047     		bx	lr
 114              		.cfi_endproc
 115              	.LFE63:
 116              		.size	halIsCounterWithin, .-halIsCounterWithin
 117 0034 AFF30080 		.section	.text.halPolledDelay,"ax",%progbits
 117      AFF30080 
 117      AFF30080 
 118              		.align	2
 119              		.p2align 4,,15
 120              		.global	halPolledDelay
 121              		.thumb
 122              		.thumb_func
 123              		.type	halPolledDelay, %function
 124              	halPolledDelay:
 125              	.LFB64:
 126              		.loc 1 193 0
 127              		.cfi_startproc
 128              		@ args = 0, pretend = 0, frame = 0
 129              		@ frame_needed = 0, uses_anonymous_args = 0
 130              		@ link register save eliminated.
 131              	.LVL11:
 132 0000 10B4     		push	{r4}
 133              	.LCFI1:
 134              		.cfi_def_cfa_offset 4
 135              		.cfi_offset 4, -4
 136              		.loc 1 194 0
 137 0002 4FF48054 		mov	r4, #4096
 138 0006 CEF20004 		movt	r4, 57344
 139 000a 6268     		ldr	r2, [r4, #4]
 140              	.LVL12:
 141              		.loc 1 195 0
 142 000c 8018     		adds	r0, r0, r2
 143              	.LVL13:
 144              	.L10:
 145              	.LBB4:
 146              	.LBB5:
 147              		.loc 1 177 0 discriminator 1
 148 000e 8242     		cmp	r2, r0
 149              		.loc 1 175 0 discriminator 1
 150 0010 6368     		ldr	r3, [r4, #4]
 151              	.LVL14:
 152              		.loc 1 177 0 discriminator 1
 153 0012 0AD2     		bcs	.L8
 154              		.loc 1 177 0 is_stmt 0
 155 0014 9842     		cmp	r0, r3
 156 0016 94BF     		ite	ls
 157 0018 0021     		movls	r1, #0
 158 001a 0121     		movhi	r1, #1
 159 001c 9A42     		cmp	r2, r3
 160 001e 88BF     		it	hi
 161 0020 0021     		movhi	r1, #0
 162              	.LBE5:
 163              	.LBE4:
 164              		.loc 1 196 0 is_stmt 1
 165 0022 0029     		cmp	r1, #0
 166 0024 F3D1     		bne	.L10
 167              	.L12:
ARM GAS  /var/folders/dt/0wfd0knj7gs46m8vwfzktm600000gn/T//ccNExKrF.s 			page 4


 168              		.loc 1 198 0
 169 0026 10BC     		pop	{r4}
 170 0028 7047     		bx	lr
 171              	.L8:
 172              	.LBB7:
 173              	.LBB6:
 174              		.loc 1 178 0
 175 002a 9A42     		cmp	r2, r3
 176 002c 8CBF     		ite	hi
 177 002e 0021     		movhi	r1, #0
 178 0030 0121     		movls	r1, #1
 179              		.loc 1 177 0
 180 0032 9842     		cmp	r0, r3
 181 0034 88BF     		it	hi
 182 0036 41F00101 		orrhi	r1, r1, #1
 183              	.LBE6:
 184              	.LBE7:
 185              		.loc 1 196 0
 186 003a 0029     		cmp	r1, #0
 187 003c E7D1     		bne	.L10
 188 003e F2E7     		b	.L12
 189              		.cfi_endproc
 190              	.LFE64:
 191              		.size	halPolledDelay, .-halPolledDelay
 192              		.text
 193              	.Letext0:
 194              		.file 2 "/Users/toxygen/Applications/yagarto-4.7.2/bin/../lib/gcc/arm-none-eabi/4.7.2/../../../../
 195              		.file 3 "../../os/ports/GCC/ARMCMx/chtypes.h"
 196              		.file 4 "../../os/ports/common/ARMCMx/nvic.h"
 197              		.file 5 "../../os/hal/platforms/STM32F1xx/hal_lld.h"
 198              		.file 6 "../../os/hal/platforms/STM32/GPIOv1/pal_lld.h"
 199              		.file 7 "../../os/ports/common/ARMCMx/CMSIS/include/core_cm3.h"
 200              		.file 8 "../../os/hal/include/tm.h"
 201              		.file 9 "../../os/hal/include/serial.h"
 202              		.file 10 "../../os/hal/include/sdc.h"
 203              		.file 11 "../../boards/MLAB_STM32F10xRxT01A/board.h"