ARM GAS  /var/folders/dt/0wfd0knj7gs46m8vwfzktm600000gn/T//ccN66aZY.s 			page 1


   1              		.syntax unified
   2              		.cpu cortex-m3
   3              		.fpu softvfp
   4              		.eabi_attribute 20, 1
   5              		.eabi_attribute 21, 1
   6              		.eabi_attribute 23, 3
   7              		.eabi_attribute 24, 1
   8              		.eabi_attribute 25, 1
   9              		.eabi_attribute 26, 1
  10              		.eabi_attribute 30, 2
  11              		.eabi_attribute 34, 1
  12              		.eabi_attribute 18, 4
  13              		.thumb
  14              		.file	"main.c"
  15              		.text
  16              	.Ltext0:
  17              		.cfi_sections	.debug_frame
  18              		.section	.text.cmd_card,"ax",%progbits
  19              		.align	2
  20              		.p2align 4,,15
  21              		.thumb
  22              		.thumb_func
  23              		.type	cmd_card, %function
  24              	cmd_card:
  25              	.LFB72:
  26              		.file 1 "main.c"
  27              		.loc 1 227 0
  28              		.cfi_startproc
  29              		@ args = 0, pretend = 0, frame = 0
  30              		@ frame_needed = 0, uses_anonymous_args = 0
  31              	.LVL0:
  32 0000 70B5     		push	{r4, r5, r6, lr}
  33              	.LCFI0:
  34              		.cfi_def_cfa_offset 16
  35              		.cfi_offset 4, -16
  36              		.cfi_offset 5, -12
  37              		.cfi_offset 6, -8
  38              		.cfi_offset 14, -4
  39              		.loc 1 229 0
  40 0002 4FF44064 		mov	r4, #3072
  41 0006 C4F20104 		movt	r4, 16385
  42 000a A268     		ldr	r2, [r4, #8]
  43              	.LVL1:
  44              		.loc 1 230 0
  45 000c A368     		ldr	r3, [r4, #8]
  46              		.loc 1 228 0
  47 000e 40F20001 		movw	r1, #:lower16:.LC0
  48              	.LVL2:
  49 0012 C3F30013 		ubfx	r3, r3, #4, #1
  50 0016 C0F20001 		movt	r1, #:upper16:.LC0
  51 001a C2F34012 		ubfx	r2, r2, #5, #1
  52              		.loc 1 227 0
  53 001e 0546     		mov	r5, r0
  54              		.loc 1 228 0
  55 0020 FFF7FEFF 		bl	chprintf
  56              	.LVL3:
  57              	.LBB10:
ARM GAS  /var/folders/dt/0wfd0knj7gs46m8vwfzktm600000gn/T//ccN66aZY.s 			page 2


  58              	.LBB11:
  59              		.loc 1 31 0
  60 0024 A268     		ldr	r2, [r4, #8]
  61              	.LBE11:
  62              	.LBE10:
  63              		.loc 1 232 0
  64 0026 40F20001 		movw	r1, #:lower16:.LC1
  65              	.LBB13:
  66              	.LBB12:
  67              		.loc 1 31 0
  68 002a C2F34012 		ubfx	r2, r2, #5, #1
  69              	.LBE12:
  70              	.LBE13:
  71              		.loc 1 232 0
  72 002e 2846     		mov	r0, r5
  73 0030 C0F20001 		movt	r1, #:upper16:.LC1
  74 0034 82F00102 		eor	r2, r2, #1
  75 0038 FFF7FEFF 		bl	chprintf
  76              	.LVL4:
  77              		.loc 1 233 0
  78 003c 40F20002 		movw	r2, #:lower16:.LANCHOR0
  79 0040 40F20003 		movw	r3, #:lower16:.LANCHOR1
  80 0044 C0F20002 		movt	r2, #:upper16:.LANCHOR0
  81 0048 C0F20003 		movt	r3, #:upper16:.LANCHOR1
  82 004c 40F20001 		movw	r1, #:lower16:.LC2
  83 0050 1268     		ldr	r2, [r2, #0]
  84 0052 1B68     		ldr	r3, [r3, #0]
  85 0054 2846     		mov	r0, r5
  86 0056 C0F20001 		movt	r1, #:upper16:.LC2
  87              		.loc 1 235 0
  88 005a BDE87040 		pop	{r4, r5, r6, lr}
  89              		.loc 1 233 0
  90 005e FFF7FEBF 		b	chprintf
  91              	.LVL5:
  92              		.cfi_endproc
  93              	.LFE72:
  94              		.size	cmd_card, .-cmd_card
  95 0062 00BFAFF3 		.section	.text.cmd_count,"ax",%progbits
  95      0080AFF3 
  95      0080AFF3 
  95      0080
  96              		.align	2
  97              		.p2align 4,,15
  98              		.thumb
  99              		.thumb_func
 100              		.type	cmd_count, %function
 101              	cmd_count:
 102              	.LFB70:
 103              		.loc 1 189 0
 104              		.cfi_startproc
 105              		@ args = 0, pretend = 0, frame = 0
 106              		@ frame_needed = 0, uses_anonymous_args = 0
 107              	.LVL6:
 108 0000 38B5     		push	{r3, r4, r5, lr}
 109              	.LCFI1:
 110              		.cfi_def_cfa_offset 16
 111              		.cfi_offset 3, -16
ARM GAS  /var/folders/dt/0wfd0knj7gs46m8vwfzktm600000gn/T//ccN66aZY.s 			page 3


 112              		.cfi_offset 4, -12
 113              		.cfi_offset 5, -8
 114              		.cfi_offset 14, -4
 115              		.loc 1 194 0
 116 0002 4FF44064 		mov	r4, #3072
 117              		.loc 1 189 0
 118 0006 0546     		mov	r5, r0
 119              		.loc 1 194 0
 120 0008 C4F20104 		movt	r4, 16385
 121              	.LVL7:
 122              	.L3:
 123              		.loc 1 194 0 is_stmt 0 discriminator 1
 124 000c A268     		ldr	r2, [r4, #8]
 125 000e 2846     		mov	r0, r5
 126 0010 C2F34012 		ubfx	r2, r2, #5, #1
 127 0014 0749     		ldr	r1, .L5
 128 0016 FFF7FEFF 		bl	chprintf
 129              	.LVL8:
 130              		.loc 1 195 0 is_stmt 1 discriminator 1
 131 001a A268     		ldr	r2, [r4, #8]
 132 001c 2846     		mov	r0, r5
 133 001e 0649     		ldr	r1, .L5+4
 134 0020 C2F30012 		ubfx	r2, r2, #4, #1
 135 0024 FFF7FEFF 		bl	chprintf
 136              	.LVL9:
 137              		.loc 1 196 0 discriminator 1
 138 0028 4FF4FA70 		mov	r0, #500
 139 002c FFF7FEFF 		bl	chThdSleep
 140              	.LVL10:
 141 0030 ECE7     		b	.L3
 142              	.L6:
 143 0032 00BF     		.align	2
 144              	.L5:
 145 0034 4C000000 		.word	.LC3
 146 0038 58000000 		.word	.LC4
 147              		.cfi_endproc
 148              	.LFE70:
 149              		.size	cmd_count, .-cmd_count
 150 003c AFF30080 		.section	.text.staticThread,"ax",%progbits
 151              		.align	2
 152              		.p2align 4,,15
 153              		.thumb
 154              		.thumb_func
 155              		.type	staticThread, %function
 156              	staticThread:
 157              	.LFB75:
 158              		.loc 1 294 0
 159              		.cfi_startproc
 160              		@ args = 0, pretend = 0, frame = 0
 161              		@ frame_needed = 0, uses_anonymous_args = 0
 162              	.LVL11:
 163 0000 10B5     		push	{r4, lr}
 164              	.LCFI2:
 165              		.cfi_def_cfa_offset 8
 166              		.cfi_offset 4, -8
 167              		.cfi_offset 14, -4
 168              		.loc 1 298 0
ARM GAS  /var/folders/dt/0wfd0knj7gs46m8vwfzktm600000gn/T//ccN66aZY.s 			page 4


 169 0002 4FF44064 		mov	r4, #3072
 170 0006 C4F20104 		movt	r4, 16385
 171              	.LVL12:
 172              	.L8:
 173              		.loc 1 298 0 is_stmt 0 discriminator 1
 174 000a E368     		ldr	r3, [r4, #12]
 175              		.loc 1 299 0 is_stmt 1 discriminator 1
 176 000c C820     		movs	r0, #200
 177              		.loc 1 298 0 discriminator 1
 178 000e 83F08003 		eor	r3, r3, #128
 179 0012 E360     		str	r3, [r4, #12]
 180              		.loc 1 299 0 discriminator 1
 181 0014 FFF7FEFF 		bl	chThdSleep
 182              	.LVL13:
 183 0018 F7E7     		b	.L8
 184              		.cfi_endproc
 185              	.LFE75:
 186              		.size	staticThread, .-staticThread
 187 001a 00BFAFF3 		.section	.text.RemoveHandler,"ax",%progbits
 187      0080
 188              		.align	2
 189              		.p2align 4,,15
 190              		.thumb
 191              		.thumb_func
 192              		.type	RemoveHandler, %function
 193              	RemoveHandler:
 194              	.LFB74:
 195              		.loc 1 281 0
 196              		.cfi_startproc
 197              		@ args = 0, pretend = 0, frame = 0
 198              		@ frame_needed = 0, uses_anonymous_args = 0
 199              	.LVL14:
 200              		.loc 1 284 0
 201 0000 0548     		ldr	r0, .L12
 202              	.LVL15:
 203              		.loc 1 281 0
 204 0002 08B5     		push	{r3, lr}
 205              	.LCFI3:
 206              		.cfi_def_cfa_offset 8
 207              		.cfi_offset 3, -8
 208              		.cfi_offset 14, -4
 209              		.loc 1 284 0
 210 0004 0378     		ldrb	r3, [r0, #0]	@ zero_extendqisi2
 211 0006 052B     		cmp	r3, #5
 212 0008 03D0     		beq	.L11
 213              	.L10:
 214              		.loc 1 286 0
 215 000a 044B     		ldr	r3, .L12+4
 216 000c 0022     		movs	r2, #0
 217 000e 1A60     		str	r2, [r3, #0]
 218 0010 08BD     		pop	{r3, pc}
 219              	.L11:
 220              		.loc 1 285 0
 221 0012 FFF7FEFF 		bl	sdcDisconnect
 222              	.LVL16:
 223 0016 F8E7     		b	.L10
 224              	.L13:
ARM GAS  /var/folders/dt/0wfd0knj7gs46m8vwfzktm600000gn/T//ccN66aZY.s 			page 5


 225              		.align	2
 226              	.L12:
 227 0018 00000000 		.word	SDCD1
 228 001c 00000000 		.word	.LANCHOR2
 229              		.cfi_endproc
 230              	.LFE74:
 231              		.size	RemoveHandler, .-RemoveHandler
 232              		.section	.text.tmrfunc,"ax",%progbits
 233              		.align	2
 234              		.p2align 4,,15
 235              		.thumb
 236              		.thumb_func
 237              		.type	tmrfunc, %function
 238              	tmrfunc:
 239              	.LFB64:
 240              		.loc 1 42 0
 241              		.cfi_startproc
 242              		@ args = 0, pretend = 0, frame = 0
 243              		@ frame_needed = 0, uses_anonymous_args = 0
 244              	.LVL17:
 245              		.loc 1 45 0
 246 0000 124A     		ldr	r2, .L24
 247              	.LBB14:
 248              	.LBB15:
 249              		.loc 1 31 0
 250 0002 4FF44063 		mov	r3, #3072
 251              	.LBE15:
 252              	.LBE14:
 253              		.loc 1 45 0
 254 0006 1168     		ldr	r1, [r2, #0]
 255              	.LBB18:
 256              	.LBB16:
 257              		.loc 1 31 0
 258 0008 C4F20103 		movt	r3, 16385
 259              	.LBE16:
 260              	.LBE18:
 261              		.loc 1 42 0
 262 000c 10B5     		push	{r4, lr}
 263              	.LCFI4:
 264              		.cfi_def_cfa_offset 8
 265              		.cfi_offset 4, -8
 266              		.cfi_offset 14, -4
 267              	.LBB19:
 268              	.LBB17:
 269              		.loc 1 31 0
 270 000e 9B68     		ldr	r3, [r3, #8]
 271              	.LBE17:
 272              	.LBE19:
 273              		.loc 1 42 0
 274 0010 0446     		mov	r4, r0
 275              	.LVL18:
 276              		.loc 1 45 0
 277 0012 61B1     		cbz	r1, .L15
 278              	.LVL19:
 279              		.loc 1 46 0
 280 0014 9806     		lsls	r0, r3, #26
 281              	.LVL20:
ARM GAS  /var/folders/dt/0wfd0knj7gs46m8vwfzktm600000gn/T//ccN66aZY.s 			page 6


 282 0016 12D4     		bmi	.L16
 283              		.loc 1 47 0
 284 0018 0139     		subs	r1, r1, #1
 285 001a 1160     		str	r1, [r2, #0]
 286 001c 91B1     		cbz	r1, .L23
 287              	.LVL21:
 288              	.L18:
 289              		.loc 1 60 0
 290 001e 0C48     		ldr	r0, .L24+4
 291 0020 0C4A     		ldr	r2, .L24+8
 292 0022 0A21     		movs	r1, #10
 293 0024 2346     		mov	r3, r4
 294              		.loc 1 61 0
 295 0026 BDE81040 		pop	{r4, lr}
 296              		.loc 1 60 0
 297 002a FFF7FEBF 		b	chVTSetI
 298              	.LVL22:
 299              	.L15:
 300              		.loc 1 55 0
 301 002e 9B06     		lsls	r3, r3, #26
 302 0030 F5D5     		bpl	.L18
 303              		.loc 1 56 0
 304 0032 0A23     		movs	r3, #10
 305              		.loc 1 57 0
 306 0034 0848     		ldr	r0, .L24+12
 307              	.LVL23:
 308              		.loc 1 56 0
 309 0036 1360     		str	r3, [r2, #0]
 310              		.loc 1 57 0
 311 0038 FFF7FEFF 		bl	chEvtBroadcastFlagsI
 312              	.LVL24:
 313 003c EFE7     		b	.L18
 314              	.LVL25:
 315              	.L16:
 316              		.loc 1 52 0
 317 003e 0A23     		movs	r3, #10
 318 0040 1360     		str	r3, [r2, #0]
 319 0042 ECE7     		b	.L18
 320              	.L23:
 321              		.loc 1 48 0
 322 0044 0548     		ldr	r0, .L24+16
 323 0046 FFF7FEFF 		bl	chEvtBroadcastFlagsI
 324              	.LVL26:
 325 004a E8E7     		b	.L18
 326              	.L25:
 327              		.align	2
 328              	.L24:
 329 004c 00000000 		.word	.LANCHOR3
 330 0050 00000000 		.word	.LANCHOR6
 331 0054 00000000 		.word	tmrfunc
 332 0058 00000000 		.word	.LANCHOR5
 333 005c 00000000 		.word	.LANCHOR4
 334              		.cfi_endproc
 335              	.LFE64:
 336              		.size	tmrfunc, .-tmrfunc
 337              		.section	.text.cmd_test,"ax",%progbits
 338              		.align	2
ARM GAS  /var/folders/dt/0wfd0knj7gs46m8vwfzktm600000gn/T//ccN66aZY.s 			page 7


 339              		.p2align 4,,15
 340              		.thumb
 341              		.thumb_func
 342              		.type	cmd_test, %function
 343              	cmd_test:
 344              	.LFB69:
 345              		.loc 1 170 0
 346              		.cfi_startproc
 347              		@ args = 0, pretend = 0, frame = 0
 348              		@ frame_needed = 0, uses_anonymous_args = 0
 349              	.LVL27:
 350 0000 30B5     		push	{r4, r5, lr}
 351              	.LCFI5:
 352              		.cfi_def_cfa_offset 12
 353              		.cfi_offset 4, -12
 354              		.cfi_offset 5, -8
 355              		.cfi_offset 14, -4
 356              		.loc 1 174 0
 357 0002 0029     		cmp	r1, #0
 358              		.loc 1 170 0
 359 0004 83B0     		sub	sp, sp, #12
 360              	.LCFI6:
 361              		.cfi_def_cfa_offset 24
 362              		.loc 1 170 0
 363 0006 0446     		mov	r4, r0
 364              		.loc 1 174 0
 365 0008 05DD     		ble	.L27
 366              		.loc 1 175 0
 367 000a 1149     		ldr	r1, .L30
 368              	.LVL28:
 369              		.loc 1 186 0
 370 000c 03B0     		add	sp, sp, #12
 371 000e BDE83040 		pop	{r4, r5, lr}
 372              		.loc 1 175 0
 373 0012 FFF7FEBF 		b	chprintf
 374              	.LVL29:
 375              	.L27:
 376              	.LBB22:
 377              	.LBB23:
 378              		.loc 1 178 0
 379 0016 0F4B     		ldr	r3, .L30+4
 380 0018 4FF4D871 		mov	r1, #432
 381              	.LVL30:
 382 001c DB69     		ldr	r3, [r3, #28]
 383 001e 0020     		movs	r0, #0
 384              	.LVL31:
 385 0020 9A68     		ldr	r2, [r3, #8]
 386              	.LVL32:
 387 0022 0D4B     		ldr	r3, .L30+8
 388 0024 0094     		str	r4, [sp, #0]
 389 0026 FFF7FEFF 		bl	chThdCreateFromHeap
 390              	.LVL33:
 391              		.loc 1 180 0
 392 002a 0C49     		ldr	r1, .L30+12
 393              		.loc 1 178 0
 394 002c 0546     		mov	r5, r0
 395              	.LVL34:
ARM GAS  /var/folders/dt/0wfd0knj7gs46m8vwfzktm600000gn/T//ccN66aZY.s 			page 8


 396              		.loc 1 180 0
 397 002e 2046     		mov	r0, r4
 398              	.LVL35:
 399 0030 FFF7FEFF 		bl	chprintf
 400              	.LVL36:
 401              		.loc 1 181 0
 402 0034 2DB1     		cbz	r5, .L29
 403              		.loc 1 185 0
 404 0036 2846     		mov	r0, r5
 405              	.LBE23:
 406              	.LBE22:
 407              		.loc 1 186 0
 408 0038 03B0     		add	sp, sp, #12
 409 003a BDE83040 		pop	{r4, r5, lr}
 410              	.LBB26:
 411              	.LBB24:
 412              		.loc 1 185 0
 413 003e FFF7FEBF 		b	chThdWait
 414              	.LVL37:
 415              	.L29:
 416              		.loc 1 182 0
 417 0042 0749     		ldr	r1, .L30+16
 418 0044 2046     		mov	r0, r4
 419              	.LBE24:
 420              	.LBE26:
 421              		.loc 1 186 0
 422 0046 03B0     		add	sp, sp, #12
 423 0048 BDE83040 		pop	{r4, r5, lr}
 424              	.LBB27:
 425              	.LBB25:
 426              		.loc 1 182 0
 427 004c FFF7FEBF 		b	chprintf
 428              	.LVL38:
 429              	.L31:
 430              		.align	2
 431              	.L30:
 432 0050 68000000 		.word	.LC5
 433 0054 00000000 		.word	rlist
 434 0058 00000000 		.word	TestThread
 435 005c 78000000 		.word	.LC6
 436 0060 8C000000 		.word	.LC7
 437              	.LBE25:
 438              	.LBE27:
 439              		.cfi_endproc
 440              	.LFE69:
 441              		.size	cmd_test, .-cmd_test
 442 0064 AFF30080 		.section	.text.cmd_threads,"ax",%progbits
 442      AFF30080 
 442      AFF30080 
 443              		.align	2
 444              		.p2align 4,,15
 445              		.thumb
 446              		.thumb_func
 447              		.type	cmd_threads, %function
 448              	cmd_threads:
 449              	.LFB68:
 450              		.loc 1 149 0
ARM GAS  /var/folders/dt/0wfd0knj7gs46m8vwfzktm600000gn/T//ccN66aZY.s 			page 9


 451              		.cfi_startproc
 452              		@ args = 0, pretend = 0, frame = 0
 453              		@ frame_needed = 0, uses_anonymous_args = 0
 454              	.LVL39:
 455 0000 2DE9F041 		push	{r4, r5, r6, r7, r8, lr}
 456              	.LCFI7:
 457              		.cfi_def_cfa_offset 24
 458              		.cfi_offset 4, -24
 459              		.cfi_offset 5, -20
 460              		.cfi_offset 6, -16
 461              		.cfi_offset 7, -12
 462              		.cfi_offset 8, -8
 463              		.cfi_offset 14, -4
 464              		.loc 1 154 0
 465 0004 0029     		cmp	r1, #0
 466              		.loc 1 149 0
 467 0006 84B0     		sub	sp, sp, #16
 468              	.LCFI8:
 469              		.cfi_def_cfa_offset 40
 470              		.loc 1 149 0
 471 0008 0746     		mov	r7, r0
 472              		.loc 1 154 0
 473 000a 05DD     		ble	.L33
 474              		.loc 1 155 0
 475 000c 1349     		ldr	r1, .L36
 476              	.LVL40:
 477              		.loc 1 167 0
 478 000e 04B0     		add	sp, sp, #16
 479 0010 BDE8F041 		pop	{r4, r5, r6, r7, r8, lr}
 480              		.loc 1 155 0
 481 0014 FFF7FEBF 		b	chprintf
 482              	.LVL41:
 483              	.L33:
 484              	.LBB30:
 485              	.LBB31:
 486              		.loc 1 158 0
 487 0018 1149     		ldr	r1, .L36+4
 488              	.LVL42:
 489 001a FFF7FEFF 		bl	chprintf
 490              	.LVL43:
 491              		.loc 1 159 0
 492 001e FFF7FEFF 		bl	chRegFirstThread
 493              	.LVL44:
 494 0022 DFF84480 		ldr	r8, .L36+12
 495 0026 0446     		mov	r4, r0
 496              	.LVL45:
 497              	.L34:
 498              		.loc 1 161 0
 499 0028 A268     		ldr	r2, [r4, #8]
 500 002a E368     		ldr	r3, [r4, #12]
 501 002c 266A     		ldr	r6, [r4, #32]
 502 002e 0092     		str	r2, [sp, #0]
 503              		.loc 1 163 0
 504 0030 A27F     		ldrb	r2, [r4, #30]	@ zero_extendqisi2
 505              		.loc 1 161 0
 506 0032 0C49     		ldr	r1, .L36+8
 507              		.loc 1 163 0
ARM GAS  /var/folders/dt/0wfd0knj7gs46m8vwfzktm600000gn/T//ccN66aZY.s 			page 10


 508 0034 013A     		subs	r2, r2, #1
 509              		.loc 1 161 0
 510 0036 0192     		str	r2, [sp, #4]
 511 0038 257F     		ldrb	r5, [r4, #28]	@ zero_extendqisi2
 512 003a 2246     		mov	r2, r4
 513 003c 58F82550 		ldr	r5, [r8, r5, lsl #2]
 514 0040 3846     		mov	r0, r7
 515              	.LVL46:
 516 0042 0295     		str	r5, [sp, #8]
 517 0044 0396     		str	r6, [sp, #12]
 518 0046 FFF7FEFF 		bl	chprintf
 519              	.LVL47:
 520              		.loc 1 165 0
 521 004a 2046     		mov	r0, r4
 522 004c FFF7FEFF 		bl	chRegNextThread
 523              	.LVL48:
 524              		.loc 1 166 0
 525 0050 0446     		mov	r4, r0
 526 0052 0028     		cmp	r0, #0
 527 0054 E8D1     		bne	.L34
 528              	.LBE31:
 529              	.LBE30:
 530              		.loc 1 167 0
 531 0056 04B0     		add	sp, sp, #16
 532 0058 BDE8F081 		pop	{r4, r5, r6, r7, r8, pc}
 533              	.L37:
 534              		.align	2
 535              	.L36:
 536 005c 9C000000 		.word	.LC8
 537 0060 B0000000 		.word	.LC9
 538 0064 E0000000 		.word	.LC10
 539 0068 00000000 		.word	.LANCHOR7
 540              		.cfi_endproc
 541              	.LFE68:
 542              		.size	cmd_threads, .-cmd_threads
 543 006c AFF30080 		.section	.text.cmd_mem,"ax",%progbits
 544              		.align	2
 545              		.p2align 4,,15
 546              		.thumb
 547              		.thumb_func
 548              		.type	cmd_mem, %function
 549              	cmd_mem:
 550              	.LFB67:
 551              		.loc 1 133 0
 552              		.cfi_startproc
 553              		@ args = 0, pretend = 0, frame = 8
 554              		@ frame_needed = 0, uses_anonymous_args = 0
 555              	.LVL49:
 556 0000 30B5     		push	{r4, r5, lr}
 557              	.LCFI9:
 558              		.cfi_def_cfa_offset 12
 559              		.cfi_offset 4, -12
 560              		.cfi_offset 5, -8
 561              		.cfi_offset 14, -4
 562              		.loc 1 138 0
 563 0002 0029     		cmp	r1, #0
 564              		.loc 1 133 0
ARM GAS  /var/folders/dt/0wfd0knj7gs46m8vwfzktm600000gn/T//ccN66aZY.s 			page 11


 565 0004 83B0     		sub	sp, sp, #12
 566              	.LCFI10:
 567              		.cfi_def_cfa_offset 24
 568              		.loc 1 133 0
 569 0006 0446     		mov	r4, r0
 570              		.loc 1 138 0
 571 0008 04DD     		ble	.L39
 572              		.loc 1 139 0
 573 000a 0E49     		ldr	r1, .L41
 574              	.LVL50:
 575 000c FFF7FEFF 		bl	chprintf
 576              	.LVL51:
 577              	.L38:
 578              		.loc 1 146 0
 579 0010 03B0     		add	sp, sp, #12
 580 0012 30BD     		pop	{r4, r5, pc}
 581              	.LVL52:
 582              	.L39:
 583              	.LBB34:
 584              	.LBB35:
 585              		.loc 1 142 0
 586 0014 01A9     		add	r1, sp, #4
 587              	.LVL53:
 588 0016 0020     		movs	r0, #0
 589              	.LVL54:
 590 0018 FFF7FEFF 		bl	chHeapStatus
 591              	.LVL55:
 592 001c 0546     		mov	r5, r0
 593              	.LVL56:
 594              		.loc 1 143 0
 595 001e FFF7FEFF 		bl	chCoreStatus
 596              	.LVL57:
 597 0022 0949     		ldr	r1, .L41+4
 598 0024 0246     		mov	r2, r0
 599 0026 2046     		mov	r0, r4
 600 0028 FFF7FEFF 		bl	chprintf
 601              	.LVL58:
 602              		.loc 1 144 0
 603 002c 2046     		mov	r0, r4
 604 002e 2A46     		mov	r2, r5
 605 0030 0649     		ldr	r1, .L41+8
 606 0032 FFF7FEFF 		bl	chprintf
 607              	.LVL59:
 608              		.loc 1 145 0
 609 0036 2046     		mov	r0, r4
 610 0038 0549     		ldr	r1, .L41+12
 611              	.LVL60:
 612 003a 019A     		ldr	r2, [sp, #4]
 613 003c FFF7FEFF 		bl	chprintf
 614              	.LVL61:
 615 0040 E6E7     		b	.L38
 616              	.L42:
 617 0042 00BF     		.align	2
 618              	.L41:
 619 0044 00010000 		.word	.LC11
 620 0048 10010000 		.word	.LC12
 621 004c 30010000 		.word	.LC13
ARM GAS  /var/folders/dt/0wfd0knj7gs46m8vwfzktm600000gn/T//ccN66aZY.s 			page 12


 622 0050 48010000 		.word	.LC14
 623              	.LBE35:
 624              	.LBE34:
 625              		.cfi_endproc
 626              	.LFE67:
 627              		.size	cmd_mem, .-cmd_mem
 628 0054 AFF30080 		.section	.text.InsertHandler,"ax",%progbits
 628      AFF30080 
 628      AFF30080 
 629              		.align	2
 630              		.p2align 4,,15
 631              		.thumb
 632              		.thumb_func
 633              		.type	InsertHandler, %function
 634              	InsertHandler:
 635              	.LFB73:
 636              		.loc 1 258 0
 637              		.cfi_startproc
 638              		@ args = 0, pretend = 0, frame = 0
 639              		@ frame_needed = 0, uses_anonymous_args = 0
 640              	.LVL62:
 641              		.loc 1 261 0
 642 0000 0A4B     		ldr	r3, .L48
 643              		.loc 1 258 0
 644 0002 10B5     		push	{r4, lr}
 645              	.LCFI11:
 646              		.cfi_def_cfa_offset 8
 647              		.cfi_offset 4, -8
 648              		.cfi_offset 14, -4
 649              		.loc 1 267 0
 650 0004 0A48     		ldr	r0, .L48+4
 651              	.LVL63:
 652              		.loc 1 261 0
 653 0006 0124     		movs	r4, #1
 654 0008 1C60     		str	r4, [r3, #0]
 655              		.loc 1 267 0
 656 000a FFF7FEFF 		bl	sdcConnect
 657              	.LVL64:
 658 000e 00B1     		cbz	r0, .L46
 659 0010 10BD     		pop	{r4, pc}
 660              	.L46:
 661              	.LBB38:
 662              	.LBB39:
 663              		.loc 1 272 0
 664 0012 0849     		ldr	r1, .L48+8
 665 0014 FFF7FEFF 		bl	f_mount
 666              	.LVL65:
 667              		.loc 1 273 0
 668 0018 10B9     		cbnz	r0, .L47
 669              		.loc 1 277 0
 670 001a 074B     		ldr	r3, .L48+12
 671 001c 1C60     		str	r4, [r3, #0]
 672 001e 10BD     		pop	{r4, pc}
 673              	.L47:
 674              		.loc 1 274 0
 675 0020 0348     		ldr	r0, .L48+4
 676              	.LVL66:
ARM GAS  /var/folders/dt/0wfd0knj7gs46m8vwfzktm600000gn/T//ccN66aZY.s 			page 13


 677              	.LBE39:
 678              	.LBE38:
 679              		.loc 1 278 0
 680 0022 BDE81040 		pop	{r4, lr}
 681              	.LBB41:
 682              	.LBB40:
 683              		.loc 1 274 0
 684 0026 FFF7FEBF 		b	sdcDisconnect
 685              	.LVL67:
 686              	.L49:
 687 002a 00BF     		.align	2
 688              	.L48:
 689 002c 00000000 		.word	.LANCHOR0
 690 0030 00000000 		.word	SDCD1
 691 0034 00000000 		.word	.LANCHOR8
 692 0038 00000000 		.word	.LANCHOR2
 693              	.LBE40:
 694              	.LBE41:
 695              		.cfi_endproc
 696              	.LFE73:
 697              		.size	InsertHandler, .-InsertHandler
 698 003c AFF30080 		.section	.text.scan_files.constprop.4,"ax",%progbits
 699              		.align	2
 700              		.p2align 4,,15
 701              		.thumb
 702              		.thumb_func
 703              		.type	scan_files.constprop.4, %function
 704              	scan_files.constprop.4:
 705              	.LFB82:
 706              		.loc 1 88 0
 707              		.cfi_startproc
 708              		@ args = 0, pretend = 0, frame = 56
 709              		@ frame_needed = 0, uses_anonymous_args = 0
 710              	.LVL68:
 711 0000 F0B5     		push	{r4, r5, r6, r7, lr}
 712              	.LCFI12:
 713              		.cfi_def_cfa_offset 20
 714              		.cfi_offset 4, -20
 715              		.cfi_offset 5, -16
 716              		.cfi_offset 6, -12
 717              		.cfi_offset 7, -8
 718              		.cfi_offset 14, -4
 719              		.loc 1 224 0
 720 0002 1D4C     		ldr	r4, .L66
 721              		.loc 1 88 0
 722 0004 8FB0     		sub	sp, sp, #60
 723              	.LCFI13:
 724              		.cfi_def_cfa_offset 80
 725              		.loc 1 88 0
 726 0006 0546     		mov	r5, r0
 727              		.loc 1 99 0
 728 0008 2146     		mov	r1, r4
 729 000a 07A8     		add	r0, sp, #28
 730              	.LVL69:
 731 000c FFF7FEFF 		bl	f_opendir
 732              	.LVL70:
 733              		.loc 1 100 0
ARM GAS  /var/folders/dt/0wfd0knj7gs46m8vwfzktm600000gn/T//ccN66aZY.s 			page 14


 734 0010 50BB     		cbnz	r0, .L51
 735              		.loc 1 101 0
 736 0012 2046     		mov	r0, r4
 737              	.LVL71:
 738 0014 FFF7FEFF 		bl	strlen
 739              	.LVL72:
 740              		.loc 1 110 0
 741 0018 461C     		adds	r6, r0, #1
 742 001a 2718     		adds	r7, r4, r0
 743              		.loc 1 111 0
 744 001c A619     		adds	r6, r4, r6
 745              	.LVL73:
 746              	.L64:
 747              		.loc 1 103 0
 748 001e 01A9     		add	r1, sp, #4
 749 0020 07A8     		add	r0, sp, #28
 750 0022 FFF7FEFF 		bl	f_readdir
 751              	.LVL74:
 752              		.loc 1 104 0
 753 0026 F8B9     		cbnz	r0, .L51
 754              	.L65:
 755 0028 9DF80D30 		ldrb	r3, [sp, #13]	@ zero_extendqisi2
 756 002c E3B1     		cbz	r3, .L51
 757              		.loc 1 106 0
 758 002e 2E2B     		cmp	r3, #46
 759 0030 F5D0     		beq	.L64
 760              		.loc 1 109 0
 761 0032 9DF80C40 		ldrb	r4, [sp, #12]	@ zero_extendqisi2
 762              		.loc 1 111 0
 763 0036 0DF10D01 		add	r1, sp, #13
 764              	.LVL75:
 765              		.loc 1 109 0
 766 003a 04F01004 		and	r4, r4, #16
 767 003e E4B2     		uxtb	r4, r4
 768              		.loc 1 111 0
 769 0040 3046     		mov	r0, r6
 770              	.LVL76:
 771              		.loc 1 118 0
 772 0042 0D4A     		ldr	r2, .L66
 773 0044 0B46     		mov	r3, r1
 774              		.loc 1 109 0
 775 0046 8CB1     		cbz	r4, .L54
 776              		.loc 1 110 0
 777 0048 2F23     		movs	r3, #47
 778 004a 3B70     		strb	r3, [r7, #0]
 779              		.loc 1 111 0
 780 004c FFF7FEFF 		bl	strcpy
 781              	.LVL77:
 782              		.loc 1 112 0
 783 0050 2846     		mov	r0, r5
 784 0052 FFF7D5FF 		bl	scan_files.constprop.4
 785              	.LVL78:
 786 0056 0346     		mov	r3, r0
 787              	.LVL79:
 788              		.loc 1 113 0
 789 0058 33B9     		cbnz	r3, .L51
 790              		.loc 1 115 0
ARM GAS  /var/folders/dt/0wfd0knj7gs46m8vwfzktm600000gn/T//ccN66aZY.s 			page 15


 791 005a 3B70     		strb	r3, [r7, #0]
 792              		.loc 1 103 0
 793 005c 01A9     		add	r1, sp, #4
 794 005e 07A8     		add	r0, sp, #28
 795              	.LVL80:
 796 0060 FFF7FEFF 		bl	f_readdir
 797              	.LVL81:
 798              		.loc 1 104 0
 799 0064 0028     		cmp	r0, #0
 800 0066 DFD0     		beq	.L65
 801              	.LVL82:
 802              	.L51:
 803              		.loc 1 123 0
 804 0068 0FB0     		add	sp, sp, #60
 805 006a F0BD     		pop	{r4, r5, r6, r7, pc}
 806              	.LVL83:
 807              	.L54:
 808              		.loc 1 118 0
 809 006c 2846     		mov	r0, r5
 810 006e 0349     		ldr	r1, .L66+4
 811              	.LVL84:
 812 0070 FFF7FEFF 		bl	chprintf
 813              	.LVL85:
 814 0074 D3E7     		b	.L64
 815              	.L67:
 816 0076 00BF     		.align	2
 817              	.L66:
 818 0078 00000000 		.word	.LANCHOR9
 819 007c 68010000 		.word	.LC15
 820              		.cfi_endproc
 821              	.LFE82:
 822              		.size	scan_files.constprop.4, .-scan_files.constprop.4
 823              		.section	.text.cmd_tree,"ax",%progbits
 824              		.align	2
 825              		.p2align 4,,15
 826              		.thumb
 827              		.thumb_func
 828              		.type	cmd_tree, %function
 829              	cmd_tree:
 830              	.LFB71:
 831              		.loc 1 200 0
 832              		.cfi_startproc
 833              		@ args = 0, pretend = 0, frame = 8
 834              		@ frame_needed = 0, uses_anonymous_args = 0
 835              	.LVL86:
 836 0000 30B5     		push	{r4, r5, lr}
 837              	.LCFI14:
 838              		.cfi_def_cfa_offset 12
 839              		.cfi_offset 4, -12
 840              		.cfi_offset 5, -8
 841              		.cfi_offset 14, -4
 842              		.loc 1 206 0
 843 0002 0029     		cmp	r1, #0
 844              		.loc 1 200 0
 845 0004 85B0     		sub	sp, sp, #20
 846              	.LCFI15:
 847              		.cfi_def_cfa_offset 32
ARM GAS  /var/folders/dt/0wfd0knj7gs46m8vwfzktm600000gn/T//ccN66aZY.s 			page 16


 848              		.loc 1 200 0
 849 0006 0446     		mov	r4, r0
 850              		.loc 1 206 0
 851 0008 04DD     		ble	.L69
 852              		.loc 1 207 0
 853 000a 1449     		ldr	r1, .L74
 854              	.LVL87:
 855 000c FFF7FEFF 		bl	chprintf
 856              	.LVL88:
 857              	.L68:
 858              		.loc 1 225 0
 859 0010 05B0     		add	sp, sp, #20
 860 0012 30BD     		pop	{r4, r5, pc}
 861              	.LVL89:
 862              	.L69:
 863              		.loc 1 210 0
 864 0014 124B     		ldr	r3, .L74+4
 865 0016 1B68     		ldr	r3, [r3, #0]
 866 0018 1BB9     		cbnz	r3, .L71
 867              		.loc 1 211 0
 868 001a 1249     		ldr	r1, .L74+8
 869              	.LVL90:
 870 001c FFF7FEFF 		bl	chprintf
 871              	.LVL91:
 872 0020 F6E7     		b	.L68
 873              	.LVL92:
 874              	.L71:
 875              		.loc 1 214 0
 876 0022 1148     		ldr	r0, .L74+12
 877              	.LVL93:
 878 0024 02A9     		add	r1, sp, #8
 879              	.LVL94:
 880 0026 03AA     		add	r2, sp, #12
 881              	.LVL95:
 882 0028 FFF7FEFF 		bl	f_getfree
 883              	.LVL96:
 884              		.loc 1 215 0
 885 002c 0546     		mov	r5, r0
 886 002e 20B1     		cbz	r0, .L72
 887              		.loc 1 216 0
 888 0030 2046     		mov	r0, r4
 889              	.LVL97:
 890 0032 0E49     		ldr	r1, .L74+16
 891 0034 FFF7FEFF 		bl	chprintf
 892              	.LVL98:
 893 0038 EAE7     		b	.L68
 894              	.LVL99:
 895              	.L72:
 896              		.loc 1 222 0
 897 003a 0D4B     		ldr	r3, .L74+20
 898              	.LVL100:
 899 003c 029A     		ldr	r2, [sp, #8]
 900 003e 9B78     		ldrb	r3, [r3, #2]	@ zero_extendqisi2
 901 0040 5102     		lsls	r1, r2, #9
 902              		.loc 1 219 0
 903 0042 03FB01F1 		mul	r1, r3, r1
 904 0046 2046     		mov	r0, r4
ARM GAS  /var/folders/dt/0wfd0knj7gs46m8vwfzktm600000gn/T//ccN66aZY.s 			page 17


 905              	.LVL101:
 906 0048 0091     		str	r1, [sp, #0]
 907 004a 0A49     		ldr	r1, .L74+24
 908 004c FFF7FEFF 		bl	chprintf
 909              	.LVL102:
 910              		.loc 1 223 0
 911 0050 094B     		ldr	r3, .L74+28
 912              		.loc 1 224 0
 913 0052 2046     		mov	r0, r4
 914              		.loc 1 223 0
 915 0054 1D70     		strb	r5, [r3, #0]
 916              		.loc 1 224 0
 917 0056 FFF7FEFF 		bl	scan_files.constprop.4
 918              	.LVL103:
 919 005a D9E7     		b	.L68
 920              	.L75:
 921              		.align	2
 922              	.L74:
 923 005c 70010000 		.word	.LC16
 924 0060 00000000 		.word	.LANCHOR2
 925 0064 80010000 		.word	.LC17
 926 0068 9C010000 		.word	.LC18
 927 006c A0010000 		.word	.LC19
 928 0070 00000000 		.word	.LANCHOR8
 929 0074 BC010000 		.word	.LC20
 930 0078 00000000 		.word	.LANCHOR9
 931              		.cfi_endproc
 932              	.LFE71:
 933              		.size	cmd_tree, .-cmd_tree
 934 007c AFF30080 		.section	.text.sdc_lld_is_card_inserted,"ax",%progbits
 935              		.align	2
 936              		.p2align 4,,15
 937              		.global	sdc_lld_is_card_inserted
 938              		.thumb
 939              		.thumb_func
 940              		.type	sdc_lld_is_card_inserted, %function
 941              	sdc_lld_is_card_inserted:
 942              	.LFB62:
 943              		.loc 1 29 0
 944              		.cfi_startproc
 945              		@ args = 0, pretend = 0, frame = 0
 946              		@ frame_needed = 0, uses_anonymous_args = 0
 947              		@ link register save eliminated.
 948              	.LVL104:
 949              		.loc 1 31 0
 950 0000 4FF44063 		mov	r3, #3072
 951 0004 C4F20103 		movt	r3, 16385
 952 0008 9868     		ldr	r0, [r3, #8]
 953              	.LVL105:
 954 000a C0F34010 		ubfx	r0, r0, #5, #1
 955              		.loc 1 32 0
 956 000e 80F00100 		eor	r0, r0, #1
 957 0012 7047     		bx	lr
 958              		.cfi_endproc
 959              	.LFE62:
 960              		.size	sdc_lld_is_card_inserted, .-sdc_lld_is_card_inserted
 961 0014 AFF30080 		.section	.text.sdc_lld_is_write_protected,"ax",%progbits
ARM GAS  /var/folders/dt/0wfd0knj7gs46m8vwfzktm600000gn/T//ccN66aZY.s 			page 18


 961      AFF30080 
 961      AFF30080 
 962              		.align	2
 963              		.p2align 4,,15
 964              		.global	sdc_lld_is_write_protected
 965              		.thumb
 966              		.thumb_func
 967              		.type	sdc_lld_is_write_protected, %function
 968              	sdc_lld_is_write_protected:
 969              	.LFB63:
 970              		.loc 1 35 0
 971              		.cfi_startproc
 972              		@ args = 0, pretend = 0, frame = 0
 973              		@ frame_needed = 0, uses_anonymous_args = 0
 974              		@ link register save eliminated.
 975              	.LVL106:
 976              		.loc 1 38 0
 977 0000 4FF44063 		mov	r3, #3072
 978 0004 C4F20103 		movt	r3, 16385
 979 0008 9868     		ldr	r0, [r3, #8]
 980              	.LVL107:
 981 000a C0F30010 		ubfx	r0, r0, #4, #1
 982              		.loc 1 39 0
 983 000e 80F00100 		eor	r0, r0, #1
 984 0012 7047     		bx	lr
 985              		.cfi_endproc
 986              	.LFE63:
 987              		.size	sdc_lld_is_write_protected, .-sdc_lld_is_write_protected
 988 0014 AFF30080 		.section	.text.startup.main,"ax",%progbits
 988      AFF30080 
 988      AFF30080 
 989              		.align	2
 990              		.p2align 4,,15
 991              		.global	main
 992              		.thumb
 993              		.thumb_func
 994              		.type	main, %function
 995              	main:
 996              	.LFB76:
 997              		.loc 1 309 0
 998              		.cfi_startproc
 999              		@ args = 0, pretend = 0, frame = 24
 1000              		@ frame_needed = 0, uses_anonymous_args = 0
 1001              	.LVL108:
 1002 0000 F0B5     		push	{r4, r5, r6, r7, lr}
 1003              	.LCFI16:
 1004              		.cfi_def_cfa_offset 20
 1005              		.cfi_offset 4, -20
 1006              		.cfi_offset 5, -16
 1007              		.cfi_offset 6, -12
 1008              		.cfi_offset 7, -8
 1009              		.cfi_offset 14, -4
 1010 0002 89B0     		sub	sp, sp, #36
 1011              	.LCFI17:
 1012              		.cfi_def_cfa_offset 56
 1013              		.loc 1 324 0
 1014 0004 FFF7FEFF 		bl	halInit
ARM GAS  /var/folders/dt/0wfd0knj7gs46m8vwfzktm600000gn/T//ccN66aZY.s 			page 19


 1015              	.LVL109:
 1016              		.loc 1 325 0
 1017 0008 FFF7FEFF 		bl	chSysInit
 1018              	.LVL110:
 1019              		.loc 1 327 0
 1020 000c 4FF44060 		mov	r0, #3072
 1021 0010 8021     		movs	r1, #128
 1022 0012 0622     		movs	r2, #6
 1023 0014 C4F20100 		movt	r0, 16385
 1024 0018 FFF7FEFF 		bl	_pal_lld_setgroupmode
 1025              	.LVL111:
 1026              		.loc 1 328 0
 1027 001c 4FF44060 		mov	r0, #3072
 1028 0020 2021     		movs	r1, #32
 1029 0022 0422     		movs	r2, #4
 1030 0024 C4F20100 		movt	r0, 16385
 1031 0028 FFF7FEFF 		bl	_pal_lld_setgroupmode
 1032              	.LVL112:
 1033              		.loc 1 329 0
 1034 002c 4FF44060 		mov	r0, #3072
 1035 0030 0422     		movs	r2, #4
 1036 0032 1021     		movs	r1, #16
 1037 0034 C4F20100 		movt	r0, 16385
 1038 0038 FFF7FEFF 		bl	_pal_lld_setgroupmode
 1039              	.LVL113:
 1040              	.LBB46:
 1041              	.LBB47:
 1042              		.loc 1 66 0
 1043 003c 254E     		ldr	r6, .L84
 1044              	.LBE47:
 1045              	.LBE46:
 1046              		.loc 1 331 0
 1047 003e 0021     		movs	r1, #0
 1048 0040 2548     		ldr	r0, .L84+4
 1049              	.LBB52:
 1050              	.LBB50:
 1051              		.loc 1 67 0
 1052 0042 264D     		ldr	r5, .L84+8
 1053              	.LBE50:
 1054              	.LBE52:
 1055              		.loc 1 331 0
 1056 0044 FFF7FEFF 		bl	sdStart
 1057              	.LVL114:
 1058              		.loc 1 332 0
 1059 0048 2548     		ldr	r0, .L84+12
 1060 004a 0021     		movs	r1, #0
 1061 004c FFF7FEFF 		bl	sdcStart
 1062              	.LVL115:
 1063              		.loc 1 335 0
 1064 0050 FFF7FEFF 		bl	shellInit
 1065              	.LVL116:
 1066              	.LBB53:
 1067              	.LBB51:
 1068              		.loc 1 66 0
 1069 0054 3660     		str	r6, [r6, #0]
 1070              		.loc 1 67 0
 1071 0056 2D60     		str	r5, [r5, #0]
ARM GAS  /var/folders/dt/0wfd0knj7gs46m8vwfzktm600000gn/T//ccN66aZY.s 			page 20


 1072              	.LBB48:
 1073              		.loc 1 68 0
 1074 0058 2023     		movs	r3, #32
 1075              	.LVL117:
 1076              	@ 68 "main.c" 1
 1077 005a 83F31188 		msr     BASEPRI, r3
 1078              	@ 0 "" 2
 1079              	.LVL118:
 1080              		.thumb
 1081              	.LBE48:
 1082              		.loc 1 69 0
 1083 005e 0A24     		movs	r4, #10
 1084 0060 204F     		ldr	r7, .L84+16
 1085              		.loc 1 70 0
 1086 0062 2148     		ldr	r0, .L84+20
 1087 0064 2146     		mov	r1, r4
 1088 0066 214A     		ldr	r2, .L84+24
 1089 0068 1D4B     		ldr	r3, .L84+12
 1090              	.LVL119:
 1091              		.loc 1 69 0
 1092 006a 3C60     		str	r4, [r7, #0]
 1093              		.loc 1 70 0
 1094 006c FFF7FEFF 		bl	chVTSetI
 1095              	.LVL120:
 1096              	.LBB49:
 1097              		.loc 1 71 0
 1098 0070 0023     		movs	r3, #0
 1099              	.LVL121:
 1100              	@ 71 "main.c" 1
 1101 0072 83F31188 		msr     BASEPRI, r3
 1102              	@ 0 "" 2
 1103              	.LVL122:
 1104              		.thumb
 1105              	.LBE49:
 1106              	.LBE51:
 1107              	.LBE53:
 1108              		.loc 1 341 0
 1109 0076 1C46     		mov	r4, r3
 1110 0078 4FF4B661 		mov	r1, #1456
 1111 007c 1C4B     		ldr	r3, .L84+28
 1112              	.LVL123:
 1113 007e 7F22     		movs	r2, #127
 1114 0080 0094     		str	r4, [sp, #0]
 1115 0082 1C48     		ldr	r0, .L84+32
 1116 0084 FFF7FEFF 		bl	chThdCreateStatic
 1117              	.LVL124:
 1118              		.loc 1 343 0
 1119 0088 3046     		mov	r0, r6
 1120 008a 02A9     		add	r1, sp, #8
 1121 008c 0122     		movs	r2, #1
 1122 008e FFF7FEFF 		bl	chEvtRegisterMask
 1123              	.LVL125:
 1124              		.loc 1 344 0
 1125 0092 2846     		mov	r0, r5
 1126 0094 05A9     		add	r1, sp, #20
 1127 0096 0222     		movs	r2, #2
 1128 0098 FFF7FEFF 		bl	chEvtRegisterMask
ARM GAS  /var/folders/dt/0wfd0knj7gs46m8vwfzktm600000gn/T//ccN66aZY.s 			page 21


 1129              	.LVL126:
 1130              		.loc 1 347 0
 1131 009c 64B1     		cbz	r4, .L82
 1132              	.L79:
 1133              		.loc 1 351 0
 1134 009e 237F     		ldrb	r3, [r4, #28]	@ zero_extendqisi2
 1135 00a0 0E2B     		cmp	r3, #14
 1136 00a2 11D0     		beq	.L83
 1137              	.LVL127:
 1138              	.L80:
 1139              		.loc 1 356 0
 1140 00a4 4FF0FF30 		mov	r0, #-1
 1141 00a8 FFF7FEFF 		bl	chEvtWaitOne
 1142              	.LVL128:
 1143 00ac 0146     		mov	r1, r0
 1144 00ae 1248     		ldr	r0, .L84+36
 1145 00b0 FFF7FEFF 		bl	chEvtDispatch
 1146              	.LVL129:
 1147              		.loc 1 347 0
 1148 00b4 002C     		cmp	r4, #0
 1149 00b6 F2D1     		bne	.L79
 1150              	.L82:
 1151              		.loc 1 349 0
 1152 00b8 1048     		ldr	r0, .L84+40
 1153 00ba 4FF40B61 		mov	r1, #2224
 1154 00be 4022     		movs	r2, #64
 1155 00c0 FFF7FEFF 		bl	shellCreate
 1156              	.LVL130:
 1157 00c4 0446     		mov	r4, r0
 1158              	.LVL131:
 1159 00c6 EDE7     		b	.L80
 1160              	.LVL132:
 1161              	.L83:
 1162              		.loc 1 353 0
 1163 00c8 2046     		mov	r0, r4
 1164 00ca FFF7FEFF 		bl	chThdRelease
 1165              	.LVL133:
 1166              		.loc 1 354 0
 1167 00ce 0024     		movs	r4, #0
 1168 00d0 E8E7     		b	.L80
 1169              	.L85:
 1170 00d2 00BF     		.align	2
 1171              	.L84:
 1172 00d4 00000000 		.word	.LANCHOR4
 1173 00d8 00000000 		.word	SD2
 1174 00dc 00000000 		.word	.LANCHOR5
 1175 00e0 00000000 		.word	SDCD1
 1176 00e4 00000000 		.word	.LANCHOR3
 1177 00e8 00000000 		.word	.LANCHOR6
 1178 00ec 00000000 		.word	tmrfunc
 1179 00f0 00000000 		.word	staticThread
 1180 00f4 00000000 		.word	.LANCHOR10
 1181 00f8 00000000 		.word	.LANCHOR12
 1182 00fc 00000000 		.word	.LANCHOR11
 1183              		.cfi_endproc
 1184              	.LFE76:
 1185              		.size	main, .-main
ARM GAS  /var/folders/dt/0wfd0knj7gs46m8vwfzktm600000gn/T//ccN66aZY.s 			page 22


 1186              		.global	fbuff
 1187              		.global	SDC_FS
 1188              		.global	tried
 1189              		.global	connected
 1190              		.section	.bss.inserted_event,"aw",%nobits
 1191              		.align	2
 1192              		.set	.LANCHOR4,. + 0
 1193              		.type	inserted_event, %object
 1194              		.size	inserted_event, 4
 1195              	inserted_event:
 1196 0000 00000000 		.space	4
 1197              		.section	.bss.removed_event,"aw",%nobits
 1198              		.align	2
 1199              		.set	.LANCHOR5,. + 0
 1200              		.type	removed_event, %object
 1201              		.size	removed_event, 4
 1202              	removed_event:
 1203 0000 00000000 		.space	4
 1204              		.section	.bss.SDC_FS,"aw",%nobits
 1205              		.align	2
 1206              		.set	.LANCHOR8,. + 0
 1207              		.type	SDC_FS, %object
 1208              		.size	SDC_FS, 560
 1209              	SDC_FS:
 1210 0000 00000000 		.space	560
 1210      00000000 
 1210      00000000 
 1210      00000000 
 1210      00000000 
 1211              		.section	.bss.tried,"aw",%nobits
 1212              		.align	2
 1213              		.set	.LANCHOR0,. + 0
 1214              		.type	tried, %object
 1215              		.size	tried, 4
 1216              	tried:
 1217 0000 00000000 		.space	4
 1218              		.section	.bss.tmr,"aw",%nobits
 1219              		.align	2
 1220              		.set	.LANCHOR6,. + 0
 1221              		.type	tmr, %object
 1222              		.size	tmr, 20
 1223              	tmr:
 1224 0000 00000000 		.space	20
 1224      00000000 
 1224      00000000 
 1224      00000000 
 1224      00000000 
 1225              		.section	.rodata.commands,"a",%progbits
 1226              		.align	2
 1227              		.type	commands, %object
 1228              		.size	commands, 56
 1229              	commands:
 1230 0000 84020000 		.word	.LC36
 1231 0004 00000000 		.word	cmd_mem
 1232 0008 88020000 		.word	.LC37
 1233 000c 00000000 		.word	cmd_threads
 1234 0010 90020000 		.word	.LC38
ARM GAS  /var/folders/dt/0wfd0knj7gs46m8vwfzktm600000gn/T//ccN66aZY.s 			page 23


 1235 0014 00000000 		.word	cmd_test
 1236 0018 98020000 		.word	.LC39
 1237 001c 00000000 		.word	cmd_count
 1238 0020 A0020000 		.word	.LC40
 1239 0024 00000000 		.word	cmd_tree
 1240 0028 A8020000 		.word	.LC41
 1241 002c 00000000 		.word	cmd_card
 1242 0030 00000000 		.word	0
 1243 0034 00000000 		.word	0
 1244              		.section	.bss.staticWA,"aw",%nobits
 1245              		.align	3
 1246              		.set	.LANCHOR10,. + 0
 1247              		.type	staticWA, %object
 1248              		.size	staticWA, 1456
 1249              	staticWA:
 1250 0000 00000000 		.space	1456
 1250      00000000 
 1250      00000000 
 1250      00000000 
 1250      00000000 
 1251              		.section	.rodata.str1.4,"aMS",%progbits,1
 1252              		.align	2
 1253              	.LC0:
 1254 0000 44455445 		.ascii	"DETECT %d, PROTECT %d\015\012\000"
 1254      43542025 
 1254      642C2050 
 1254      524F5445 
 1254      43542025 
 1255              	.LC1:
 1256 0018 73646349 		.ascii	"sdcIsCardInserted %d\015\012\000"
 1256      73436172 
 1256      64496E73 
 1256      65727465 
 1256      64202564 
 1257 002f 00       		.space	1
 1258              	.LC2:
 1259 0030 74726965 		.ascii	"tried %d, connected %d\015\012\000"
 1259      64202564 
 1259      2C20636F 
 1259      6E6E6563 
 1259      74656420 
 1260 0049 000000   		.space	3
 1261              	.LC3:
 1262 004c 64657465 		.ascii	"detect %d\015\012\000"
 1262      63742025 
 1262      640D0A00 
 1263              	.LC4:
 1264 0058 70726F74 		.ascii	"protect %d\015\012\000"
 1264      65637420 
 1264      25640D0A 
 1264      00
 1265 0065 000000   		.space	3
 1266              	.LC5:
 1267 0068 55736167 		.ascii	"Usage: test\015\012\000"
 1267      653A2074 
 1267      6573740D 
 1267      0A00
ARM GAS  /var/folders/dt/0wfd0knj7gs46m8vwfzktm600000gn/T//ccN66aZY.s 			page 24


 1268 0076 0000     		.space	2
 1269              	.LC6:
 1270 0078 74687265 		.ascii	"thread created\015\012\000"
 1270      61642063 
 1270      72656174 
 1270      65640D0A 
 1270      00
 1271 0089 000000   		.space	3
 1272              	.LC7:
 1273 008c 6F757420 		.ascii	"out of memory\015\012\000"
 1273      6F66206D 
 1273      656D6F72 
 1273      790D0A00 
 1274              	.LC8:
 1275 009c 55736167 		.ascii	"Usage: threads\015\012\000"
 1275      653A2074 
 1275      68726561 
 1275      64730D0A 
 1275      00
 1276 00ad 000000   		.space	3
 1277              	.LC9:
 1278 00b0 20202020 		.ascii	"    addr    stack prio refs     state time\015\012\000"
 1278      61646472 
 1278      20202020 
 1278      73746163 
 1278      6B207072 
 1279 00dd 000000   		.space	3
 1280              	.LC10:
 1281 00e0 252E386C 		.ascii	"%.8lx %.8lx %4lu %4lu %9s %lu\015\012\000"
 1281      7820252E 
 1281      386C7820 
 1281      25346C75 
 1281      2025346C 
 1282              	.LC11:
 1283 0100 55736167 		.ascii	"Usage: mem\015\012\000"
 1283      653A206D 
 1283      656D0D0A 
 1283      00
 1284 010d 000000   		.space	3
 1285              	.LC12:
 1286 0110 636F7265 		.ascii	"core free memory : %u bytes\015\012\000"
 1286      20667265 
 1286      65206D65 
 1286      6D6F7279 
 1286      203A2025 
 1287 012e 0000     		.space	2
 1288              	.LC13:
 1289 0130 68656170 		.ascii	"heap fragments   : %u\015\012\000"
 1289      20667261 
 1289      676D656E 
 1289      74732020 
 1289      203A2025 
 1290              	.LC14:
 1291 0148 68656170 		.ascii	"heap free total  : %u bytes\015\012\000"
 1291      20667265 
 1291      6520746F 
 1291      74616C20 
ARM GAS  /var/folders/dt/0wfd0knj7gs46m8vwfzktm600000gn/T//ccN66aZY.s 			page 25


 1291      203A2025 
 1292 0166 0000     		.space	2
 1293              	.LC15:
 1294 0168 25732F25 		.ascii	"%s/%s\015\012\000"
 1294      730D0A00 
 1295              	.LC16:
 1296 0170 55736167 		.ascii	"Usage: tree\015\012\000"
 1296      653A2074 
 1296      7265650D 
 1296      0A00
 1297 017e 0000     		.space	2
 1298              	.LC17:
 1299 0180 46696C65 		.ascii	"File System not mounted\015\012\000"
 1299      20537973 
 1299      74656D20 
 1299      6E6F7420 
 1299      6D6F756E 
 1300 019a 0000     		.space	2
 1301              	.LC18:
 1302 019c 2F00     		.ascii	"/\000"
 1303 019e 0000     		.space	2
 1304              	.LC19:
 1305 01a0 46533A20 		.ascii	"FS: f_getfree() failed\015\012\000"
 1305      665F6765 
 1305      74667265 
 1305      65282920 
 1305      6661696C 
 1306 01b9 000000   		.space	3
 1307              	.LC20:
 1308 01bc 46533A20 		.ascii	"FS: %lu free clusters, %lu sectors per cluster, %lu"
 1308      256C7520 
 1308      66726565 
 1308      20636C75 
 1308      73746572 
 1309 01ef 20627974 		.ascii	" bytes free\015\012\000"
 1309      65732066 
 1309      7265650D 
 1309      0A00
 1310 01fd 000000   		.space	3
 1311              	.LC21:
 1312 0200 52454144 		.ascii	"READY\000"
 1312      5900
 1313 0206 0000     		.space	2
 1314              	.LC22:
 1315 0208 43555252 		.ascii	"CURRENT\000"
 1315      454E5400 
 1316              	.LC23:
 1317 0210 53555350 		.ascii	"SUSPENDED\000"
 1317      454E4445 
 1317      4400
 1318 021a 0000     		.space	2
 1319              	.LC24:
 1320 021c 57545345 		.ascii	"WTSEM\000"
 1320      4D00
 1321 0222 0000     		.space	2
 1322              	.LC25:
 1323 0224 57544D54 		.ascii	"WTMTX\000"
ARM GAS  /var/folders/dt/0wfd0knj7gs46m8vwfzktm600000gn/T//ccN66aZY.s 			page 26


 1323      5800
 1324 022a 0000     		.space	2
 1325              	.LC26:
 1326 022c 5754434F 		.ascii	"WTCOND\000"
 1326      4E4400
 1327 0233 00       		.space	1
 1328              	.LC27:
 1329 0234 534C4545 		.ascii	"SLEEPING\000"
 1329      50494E47 
 1329      00
 1330 023d 000000   		.space	3
 1331              	.LC28:
 1332 0240 57544558 		.ascii	"WTEXIT\000"
 1332      495400
 1333 0247 00       		.space	1
 1334              	.LC29:
 1335 0248 57544F52 		.ascii	"WTOREVT\000"
 1335      45565400 
 1336              	.LC30:
 1337 0250 5754414E 		.ascii	"WTANDEVT\000"
 1337      44455654 
 1337      00
 1338 0259 000000   		.space	3
 1339              	.LC31:
 1340 025c 534E444D 		.ascii	"SNDMSGQ\000"
 1340      53475100 
 1341              	.LC32:
 1342 0264 534E444D 		.ascii	"SNDMSG\000"
 1342      534700
 1343 026b 00       		.space	1
 1344              	.LC33:
 1345 026c 57544D53 		.ascii	"WTMSG\000"
 1345      4700
 1346 0272 0000     		.space	2
 1347              	.LC34:
 1348 0274 57545155 		.ascii	"WTQUEUE\000"
 1348      45554500 
 1349              	.LC35:
 1350 027c 46494E41 		.ascii	"FINAL\000"
 1350      4C00
 1351 0282 0000     		.space	2
 1352              	.LC36:
 1353 0284 6D656D00 		.ascii	"mem\000"
 1354              	.LC37:
 1355 0288 74687265 		.ascii	"threads\000"
 1355      61647300 
 1356              	.LC38:
 1357 0290 74657374 		.ascii	"test\000"
 1357      00
 1358 0295 000000   		.space	3
 1359              	.LC39:
 1360 0298 636F756E 		.ascii	"count\000"
 1360      7400
 1361 029e 0000     		.space	2
 1362              	.LC40:
 1363 02a0 74726565 		.ascii	"tree\000"
 1363      00
ARM GAS  /var/folders/dt/0wfd0knj7gs46m8vwfzktm600000gn/T//ccN66aZY.s 			page 27


 1364 02a5 000000   		.space	3
 1365              	.LC41:
 1366 02a8 63617264 		.ascii	"card\000"
 1366      00
 1367 02ad 000000   		.section	.bss.fs_ready,"aw",%nobits
 1368              		.align	2
 1369              		.set	.LANCHOR2,. + 0
 1370              		.type	fs_ready, %object
 1371              		.size	fs_ready, 4
 1372              	fs_ready:
 1373 0000 00000000 		.space	4
 1374              		.section	.bss.fbuff,"aw",%nobits
 1375              		.align	2
 1376              		.set	.LANCHOR9,. + 0
 1377              		.type	fbuff, %object
 1378              		.size	fbuff, 1024
 1379              	fbuff:
 1380 0000 00000000 		.space	1024
 1380      00000000 
 1380      00000000 
 1380      00000000 
 1380      00000000 
 1381              		.section	.rodata.shell_cfg1,"a",%progbits
 1382              		.align	2
 1383              		.set	.LANCHOR11,. + 0
 1384              		.type	shell_cfg1, %object
 1385              		.size	shell_cfg1, 8
 1386              	shell_cfg1:
 1387 0000 00000000 		.word	SD2
 1388 0004 00000000 		.word	commands
 1389              		.section	.bss.cnt,"aw",%nobits
 1390              		.align	2
 1391              		.set	.LANCHOR3,. + 0
 1392              		.type	cnt, %object
 1393              		.size	cnt, 4
 1394              	cnt:
 1395 0000 00000000 		.space	4
 1396              		.section	.rodata.evhndl.7464,"a",%progbits
 1397              		.align	2
 1398              		.set	.LANCHOR12,. + 0
 1399              		.type	evhndl.7464, %object
 1400              		.size	evhndl.7464, 8
 1401              	evhndl.7464:
 1402 0000 00000000 		.word	InsertHandler
 1403 0004 00000000 		.word	RemoveHandler
 1404              		.section	.rodata.states.7418,"a",%progbits
 1405              		.align	2
 1406              		.set	.LANCHOR7,. + 0
 1407              		.type	states.7418, %object
 1408              		.size	states.7418, 60
 1409              	states.7418:
 1410 0000 00020000 		.word	.LC21
 1411 0004 08020000 		.word	.LC22
 1412 0008 10020000 		.word	.LC23
 1413 000c 1C020000 		.word	.LC24
 1414 0010 24020000 		.word	.LC25
 1415 0014 2C020000 		.word	.LC26
ARM GAS  /var/folders/dt/0wfd0knj7gs46m8vwfzktm600000gn/T//ccN66aZY.s 			page 28


 1416 0018 34020000 		.word	.LC27
 1417 001c 40020000 		.word	.LC28
 1418 0020 48020000 		.word	.LC29
 1419 0024 50020000 		.word	.LC30
 1420 0028 5C020000 		.word	.LC31
 1421 002c 64020000 		.word	.LC32
 1422 0030 6C020000 		.word	.LC33
 1423 0034 74020000 		.word	.LC34
 1424 0038 7C020000 		.word	.LC35
 1425              		.section	.bss.connected,"aw",%nobits
 1426              		.align	2
 1427              		.set	.LANCHOR1,. + 0
 1428              		.type	connected, %object
 1429              		.size	connected, 4
 1430              	connected:
 1431 0000 00000000 		.space	4
 1432              		.text
 1433              	.Letext0:
 1434              		.file 2 "/Users/toxygen/Applications/yagarto-4.7.2/bin/../lib/gcc/arm-none-eabi/4.7.2/include/stdd
 1435              		.file 3 "/Users/toxygen/Applications/yagarto-4.7.2/bin/../lib/gcc/arm-none-eabi/4.7.2/../../../../
 1436              		.file 4 "../../os/ports/GCC/ARMCMx/chtypes.h"
 1437              		.file 5 "../../os/kernel/include/chlists.h"
 1438              		.file 6 "../../os/kernel/include/chthreads.h"
 1439              		.file 7 "../../os/ports/GCC/ARMCMx/chcore_v7m.h"
 1440              		.file 8 "../../os/kernel/include/chvt.h"
 1441              		.file 9 "../../os/kernel/include/chschd.h"
 1442              		.file 10 "../../os/kernel/include/chmtx.h"
 1443              		.file 11 "../../os/kernel/include/chevents.h"
 1444              		.file 12 "../../os/kernel/include/chmemcore.h"
 1445              		.file 13 "../../os/kernel/include/chheap.h"
 1446              		.file 14 "../../os/kernel/include/chqueues.h"
 1447              		.file 15 "../../os/kernel/include/chioch.h"
 1448              		.file 16 "../../os/hal/platforms/STM32F1xx/stm32f10x.h"
 1449              		.file 17 "../../os/hal/platforms/STM32/GPIOv1/pal_lld.h"
 1450              		.file 18 "../../os/hal/include/serial.h"
 1451              		.file 19 "../../os/hal/platforms/STM32/serial_lld.h"
 1452              		.file 20 "../../os/hal/include/sdc.h"
 1453              		.file 21 "../../os/hal/platforms/STM32/sdc_lld.h"
 1454              		.file 22 "../../os/various/shell.h"
 1455              		.file 23 "../../ext/fatfs/src/integer.h"
 1456              		.file 24 "../../ext/fatfs/src/ff.h"
 1457              		.file 25 "../../os/ports/common/ARMCMx/CMSIS/include/core_cm3.h"
 1458              		.file 26 "../../os/various/chprintf.h"
 1459              		.file 27 "../../os/kernel/include/chdynamic.h"
 1460              		.file 28 "../../os/kernel/include/chregistry.h"
 1461              		.file 29 "/Users/toxygen/Applications/yagarto-4.7.2/bin/../lib/gcc/arm-none-eabi/4.7.2/../../../..
 1462              		.file 30 "../../os/hal/include/hal.h"
 1463              		.file 31 "../../os/kernel/include/chsys.h"