ARM GAS  /var/folders/dt/0wfd0knj7gs46m8vwfzktm600000gn/T//cc242WfM.s 			page 1


   1              		.syntax unified
   2              		.cpu cortex-m3
   3              		.fpu softvfp
   4              		.eabi_attribute 20, 1
   5              		.eabi_attribute 21, 1
   6              		.eabi_attribute 23, 3
   7              		.eabi_attribute 24, 1
   8              		.eabi_attribute 25, 1
   9              		.eabi_attribute 26, 1
  10              		.eabi_attribute 30, 2
  11              		.eabi_attribute 34, 1
  12              		.eabi_attribute 18, 4
  13              		.thumb
  14              		.file	"sdc.c"
  15              		.text
  16              	.Ltext0:
  17              		.cfi_sections	.debug_frame
  18              		.section	.text._sdc_wait_for_transfer_state,"ax",%progbits
  19              		.align	2
  20              		.p2align 4,,15
  21              		.global	_sdc_wait_for_transfer_state
  22              		.thumb
  23              		.thumb_func
  24              		.type	_sdc_wait_for_transfer_state, %function
  25              	_sdc_wait_for_transfer_state:
  26              	.LFB62:
  27              		.file 1 "../../os/hal/src/sdc.c"
  28              		.loc 1 68 0
  29              		.cfi_startproc
  30              		@ args = 0, pretend = 0, frame = 8
  31              		@ frame_needed = 0, uses_anonymous_args = 0
  32              	.LVL0:
  33 0000 10B5     		push	{r4, lr}
  34              	.LCFI0:
  35              		.cfi_def_cfa_offset 8
  36              		.cfi_offset 4, -8
  37              		.cfi_offset 14, -4
  38 0002 0446     		mov	r4, r0
  39 0004 82B0     		sub	sp, sp, #8
  40              	.LCFI1:
  41              		.cfi_def_cfa_offset 16
  42              	.LVL1:
  43              	.L5:
  44              		.loc 1 72 0
  45 0006 01AB     		add	r3, sp, #4
  46 0008 2046     		mov	r0, r4
  47 000a 0D21     		movs	r1, #13
  48 000c E26A     		ldr	r2, [r4, #44]
  49 000e FFF7FEFF 		bl	sdc_lld_send_cmd_short_crc
  50              	.LVL2:
  51              		.loc 1 74 0
  52 0012 4EF20803 		movw	r3, #57352
  53 0016 CFF6FF53 		movt	r3, 65023
  54              		.loc 1 72 0
  55 001a 38B9     		cbnz	r0, .L8
  56              		.loc 1 74 0
  57 001c 019A     		ldr	r2, [sp, #4]
ARM GAS  /var/folders/dt/0wfd0knj7gs46m8vwfzktm600000gn/T//cc242WfM.s 			page 2


  58 001e 1340     		ands	r3, r3, r2
  59              		.loc 1 76 0
  60 0020 C2F34321 		ubfx	r1, r2, #9, #4
  61              		.loc 1 73 0
  62 0024 13B9     		cbnz	r3, .L8
  63              		.loc 1 76 0
  64 0026 0429     		cmp	r1, #4
  65 0028 09D0     		beq	.L3
  66 002a 02D2     		bcs	.L11
  67              	.L8:
  68              		.loc 1 89 0
  69 002c 0120     		movs	r0, #1
  70              	.L2:
  71              		.loc 1 92 0
  72 002e 02B0     		add	sp, sp, #8
  73 0030 10BD     		pop	{r4, pc}
  74              	.L11:
  75              		.loc 1 76 0
  76 0032 0729     		cmp	r1, #7
  77 0034 FAD8     		bhi	.L8
  78              		.loc 1 83 0
  79 0036 0120     		movs	r0, #1
  80 0038 FFF7FEFF 		bl	chThdSleep
  81              	.LVL3:
  82              		.loc 1 91 0
  83 003c E3E7     		b	.L5
  84              	.L3:
  85              		.loc 1 78 0
  86 003e 1846     		mov	r0, r3
  87 0040 F5E7     		b	.L2
  88              		.cfi_endproc
  89              	.LFE62:
  90              		.size	_sdc_wait_for_transfer_state, .-_sdc_wait_for_transfer_state
  91 0042 00BFAFF3 		.section	.text.sdcInit,"ax",%progbits
  91      0080AFF3 
  91      0080AFF3 
  91      0080
  92              		.align	2
  93              		.p2align 4,,15
  94              		.global	sdcInit
  95              		.thumb
  96              		.thumb_func
  97              		.type	sdcInit, %function
  98              	sdcInit:
  99              	.LFB63:
 100              		.loc 1 105 0
 101              		.cfi_startproc
 102              		@ args = 0, pretend = 0, frame = 0
 103              		@ frame_needed = 0, uses_anonymous_args = 0
 104              		@ link register save eliminated.
 105              		.loc 1 108 0
 106              		.loc 1 107 0
 107 0000 FFF7FEBF 		b	sdc_lld_init
 108              	.LVL4:
 109              		.cfi_endproc
 110              	.LFE63:
 111              		.size	sdcInit, .-sdcInit
ARM GAS  /var/folders/dt/0wfd0knj7gs46m8vwfzktm600000gn/T//cc242WfM.s 			page 3


 112 0004 AFF30080 		.section	.text.sdcObjectInit,"ax",%progbits
 112      AFF30080 
 112      AFF30080 
 113              		.align	2
 114              		.p2align 4,,15
 115              		.global	sdcObjectInit
 116              		.thumb
 117              		.thumb_func
 118              		.type	sdcObjectInit, %function
 119              	sdcObjectInit:
 120              	.LFB64:
 121              		.loc 1 117 0
 122              		.cfi_startproc
 123              		@ args = 0, pretend = 0, frame = 0
 124              		@ frame_needed = 0, uses_anonymous_args = 0
 125              		@ link register save eliminated.
 126              	.LVL5:
 127              		.loc 1 119 0
 128 0000 0123     		movs	r3, #1
 129 0002 0370     		strb	r3, [r0, #0]
 130              		.loc 1 120 0
 131 0004 0023     		movs	r3, #0
 132 0006 4360     		str	r3, [r0, #4]
 133 0008 7047     		bx	lr
 134              		.cfi_endproc
 135              	.LFE64:
 136              		.size	sdcObjectInit, .-sdcObjectInit
 137 000a 00BFAFF3 		.section	.text.sdcStart,"ax",%progbits
 137      0080
 138              		.align	2
 139              		.p2align 4,,15
 140              		.global	sdcStart
 141              		.thumb
 142              		.thumb_func
 143              		.type	sdcStart, %function
 144              	sdcStart:
 145              	.LFB65:
 146              		.loc 1 133 0
 147              		.cfi_startproc
 148              		@ args = 0, pretend = 0, frame = 0
 149              		@ frame_needed = 0, uses_anonymous_args = 0
 150              	.LVL6:
 151 0000 10B5     		push	{r4, lr}
 152              	.LCFI2:
 153              		.cfi_def_cfa_offset 8
 154              		.cfi_offset 4, -8
 155              		.cfi_offset 14, -4
 156              	.LBB2:
 157              		.loc 1 137 0
 158 0002 2023     		movs	r3, #32
 159              	.LVL7:
 160              	.LBE2:
 161              		.loc 1 133 0
 162 0004 0446     		mov	r4, r0
 163              	.LBB3:
 164              		.loc 1 137 0
 165              	@ 137 "../../os/hal/src/sdc.c" 1
ARM GAS  /var/folders/dt/0wfd0knj7gs46m8vwfzktm600000gn/T//cc242WfM.s 			page 4


 166 0006 83F31188 		msr     BASEPRI, r3
 167              	@ 0 "" 2
 168              	.LVL8:
 169              		.thumb
 170              	.LBE3:
 171              		.loc 1 140 0
 172 000a 4160     		str	r1, [r0, #4]
 173              		.loc 1 141 0
 174 000c FFF7FEFF 		bl	sdc_lld_start
 175              	.LVL9:
 176              		.loc 1 142 0
 177 0010 0223     		movs	r3, #2
 178 0012 2370     		strb	r3, [r4, #0]
 179              	.LBB4:
 180              		.loc 1 143 0
 181 0014 0023     		movs	r3, #0
 182              	.LVL10:
 183              	@ 143 "../../os/hal/src/sdc.c" 1
 184 0016 83F31188 		msr     BASEPRI, r3
 185              	@ 0 "" 2
 186              	.LVL11:
 187              		.thumb
 188 001a 10BD     		pop	{r4, pc}
 189              	.LBE4:
 190              		.cfi_endproc
 191              	.LFE65:
 192              		.size	sdcStart, .-sdcStart
 193 001c AFF30080 		.section	.text.sdcStop,"ax",%progbits
 194              		.align	2
 195              		.p2align 4,,15
 196              		.global	sdcStop
 197              		.thumb
 198              		.thumb_func
 199              		.type	sdcStop, %function
 200              	sdcStop:
 201              	.LFB66:
 202              		.loc 1 153 0
 203              		.cfi_startproc
 204              		@ args = 0, pretend = 0, frame = 0
 205              		@ frame_needed = 0, uses_anonymous_args = 0
 206              	.LVL12:
 207 0000 10B5     		push	{r4, lr}
 208              	.LCFI3:
 209              		.cfi_def_cfa_offset 8
 210              		.cfi_offset 4, -8
 211              		.cfi_offset 14, -4
 212              	.LBB5:
 213              		.loc 1 157 0
 214 0002 2023     		movs	r3, #32
 215              	.LVL13:
 216              	.LBE5:
 217              		.loc 1 153 0
 218 0004 0446     		mov	r4, r0
 219              	.LBB6:
 220              		.loc 1 157 0
 221              	@ 157 "../../os/hal/src/sdc.c" 1
 222 0006 83F31188 		msr     BASEPRI, r3
ARM GAS  /var/folders/dt/0wfd0knj7gs46m8vwfzktm600000gn/T//cc242WfM.s 			page 5


 223              	@ 0 "" 2
 224              	.LVL14:
 225              		.thumb
 226              	.LBE6:
 227              		.loc 1 160 0
 228 000a FFF7FEFF 		bl	sdc_lld_stop
 229              	.LVL15:
 230              		.loc 1 161 0
 231 000e 0123     		movs	r3, #1
 232 0010 2370     		strb	r3, [r4, #0]
 233              	.LBB7:
 234              		.loc 1 162 0
 235 0012 0023     		movs	r3, #0
 236              	.LVL16:
 237              	@ 162 "../../os/hal/src/sdc.c" 1
 238 0014 83F31188 		msr     BASEPRI, r3
 239              	@ 0 "" 2
 240              	.LVL17:
 241              		.thumb
 242 0018 10BD     		pop	{r4, pc}
 243              	.LBE7:
 244              		.cfi_endproc
 245              	.LFE66:
 246              		.size	sdcStop, .-sdcStop
 247 001a 00BFAFF3 		.section	.text.sdcConnect,"ax",%progbits
 247      0080
 248              		.align	2
 249              		.p2align 4,,15
 250              		.global	sdcConnect
 251              		.thumb
 252              		.thumb_func
 253              		.type	sdcConnect, %function
 254              	sdcConnect:
 255              	.LFB67:
 256              		.loc 1 179 0
 257              		.cfi_startproc
 258              		@ args = 0, pretend = 0, frame = 8
 259              		@ frame_needed = 0, uses_anonymous_args = 0
 260              	.LVL18:
 261 0000 2DE9F041 		push	{r4, r5, r6, r7, r8, lr}
 262              	.LCFI4:
 263              		.cfi_def_cfa_offset 24
 264              		.cfi_offset 4, -24
 265              		.cfi_offset 5, -20
 266              		.cfi_offset 6, -16
 267              		.cfi_offset 7, -12
 268              		.cfi_offset 8, -8
 269              		.cfi_offset 14, -4
 270              	.LBB8:
 271              		.loc 1 184 0
 272 0004 2023     		movs	r3, #32
 273              	.LVL19:
 274              	.LBE8:
 275              		.loc 1 179 0
 276 0006 82B0     		sub	sp, sp, #8
 277              	.LCFI5:
 278              		.cfi_def_cfa_offset 32
ARM GAS  /var/folders/dt/0wfd0knj7gs46m8vwfzktm600000gn/T//cc242WfM.s 			page 6


 279              		.loc 1 179 0
 280 0008 0546     		mov	r5, r0
 281              	.LBB9:
 282              		.loc 1 184 0
 283              	@ 184 "../../os/hal/src/sdc.c" 1
 284 000a 83F31188 		msr     BASEPRI, r3
 285              	@ 0 "" 2
 286              	.LVL20:
 287              		.thumb
 288              	.LBE9:
 289              		.loc 1 187 0
 290 000e 0323     		movs	r3, #3
 291              	.LVL21:
 292 0010 0370     		strb	r3, [r0, #0]
 293              	.LBB10:
 294              		.loc 1 188 0
 295 0012 0023     		movs	r3, #0
 296              	.LVL22:
 297              	@ 188 "../../os/hal/src/sdc.c" 1
 298 0014 83F31188 		msr     BASEPRI, r3
 299              	@ 0 "" 2
 300              	.LVL23:
 301              		.thumb
 302              	.LBE10:
 303              		.loc 1 191 0
 304 0018 FFF7FEFF 		bl	sdc_lld_start_clk
 305              	.LVL24:
 306              		.loc 1 194 0
 307 001c 0021     		movs	r1, #0
 308 001e 0A46     		mov	r2, r1
 309 0020 2846     		mov	r0, r5
 310 0022 FFF7FEFF 		bl	sdc_lld_send_cmd_none
 311              	.LVL25:
 312              		.loc 1 197 0
 313 0026 4FF4D572 		mov	r2, #426
 314 002a 2846     		mov	r0, r5
 315 002c 0821     		movs	r1, #8
 316 002e 01AB     		add	r3, sp, #4
 317 0030 FFF7FEFF 		bl	sdc_lld_send_cmd_short_crc
 318              	.LVL26:
 319 0034 0246     		mov	r2, r0
 320 0036 78B9     		cbnz	r0, .L17
 321              		.loc 1 201 0
 322 0038 019B     		ldr	r3, [sp, #4]
 323              		.loc 1 199 0
 324 003a 0121     		movs	r1, #1
 325              		.loc 1 201 0
 326 003c C3F30323 		ubfx	r3, r3, #8, #4
 327 0040 8B42     		cmp	r3, r1
 328              		.loc 1 199 0
 329 0042 A960     		str	r1, [r5, #8]
 330              		.loc 1 201 0
 331 0044 31D0     		beq	.L36
 332              	.L18:
 333              	.LDL1:
 334              		.loc 1 297 0
 335 0046 2846     		mov	r0, r5
ARM GAS  /var/folders/dt/0wfd0knj7gs46m8vwfzktm600000gn/T//cc242WfM.s 			page 7


 336 0048 FFF7FEFF 		bl	sdc_lld_stop_clk
 337              	.LVL27:
 338              		.loc 1 298 0
 339 004c 0223     		movs	r3, #2
 340 004e 2B70     		strb	r3, [r5, #0]
 341              		.loc 1 299 0
 342 0050 0120     		movs	r0, #1
 343              	.L27:
 344              		.loc 1 300 0
 345 0052 02B0     		add	sp, sp, #8
 346 0054 BDE8F081 		pop	{r4, r5, r6, r7, r8, pc}
 347              	.L17:
 348              		.loc 1 215 0
 349 0058 0023     		movs	r3, #0
 350 005a AB60     		str	r3, [r5, #8]
 351              	.L20:
 352              	.LVL28:
 353              	.LBB11:
 354              		.loc 1 233 0
 355 005c 4FF00008 		mov	r8, #0
 356 0060 C8F21008 		movt	r8, 32784
 357              	.LVL29:
 358              	.L21:
 359 0064 6426     		movs	r6, #100
 360 0066 10E0     		b	.L24
 361              	.LVL30:
 362              	.L38:
 363              		.loc 1 239 0 discriminator 1
 364 0068 019F     		ldr	r7, [sp, #4]
 365              		.loc 1 241 0 discriminator 1
 366 006a 2846     		mov	r0, r5
 367              		.loc 1 239 0 discriminator 1
 368 006c 3C40     		ands	r4, r4, r7
 369              		.loc 1 238 0 discriminator 1
 370 006e 002C     		cmp	r4, #0
 371 0070 E9D1     		bne	.L18
 372              	.LVL31:
 373              		.loc 1 241 0
 374 0072 FFF7FEFF 		bl	sdc_lld_send_cmd_short
 375              	.LVL32:
 376 0076 0028     		cmp	r0, #0
 377 0078 E5D1     		bne	.L18
 378              		.loc 1 243 0
 379 007a 019B     		ldr	r3, [sp, #4]
 380              		.loc 1 250 0
 381 007c 0A20     		movs	r0, #10
 382              		.loc 1 243 0
 383 007e 002B     		cmp	r3, #0
 384 0080 2DDB     		blt	.L37
 385              		.loc 1 248 0
 386 0082 013E     		subs	r6, r6, #1
 387 0084 DFD0     		beq	.L18
 388              		.loc 1 250 0
 389 0086 FFF7FEFF 		bl	chThdSleep
 390              	.LVL33:
 391              	.L24:
 392              		.loc 1 238 0
ARM GAS  /var/folders/dt/0wfd0knj7gs46m8vwfzktm600000gn/T//cc242WfM.s 			page 8


 393 008a 01AB     		add	r3, sp, #4
 394 008c 3721     		movs	r1, #55
 395 008e 0022     		movs	r2, #0
 396 0090 2846     		mov	r0, r5
 397 0092 FFF7FEFF 		bl	sdc_lld_send_cmd_short_crc
 398              	.LVL34:
 399              		.loc 1 239 0
 400 0096 4EF20804 		movw	r4, #57352
 401              		.loc 1 241 0
 402 009a 2921     		movs	r1, #41
 403 009c 4246     		mov	r2, r8
 404 009e 01AB     		add	r3, sp, #4
 405              		.loc 1 239 0
 406 00a0 CFF6FF54 		movt	r4, 65023
 407              		.loc 1 238 0
 408 00a4 0028     		cmp	r0, #0
 409 00a6 DFD0     		beq	.L38
 410              	.LVL35:
 411 00a8 CDE7     		b	.L18
 412              	.LVL36:
 413              	.L36:
 414              	.LBE11:
 415              		.loc 1 203 0
 416 00aa 2846     		mov	r0, r5
 417 00ac 3721     		movs	r1, #55
 418 00ae 01AB     		add	r3, sp, #4
 419 00b0 FFF7FEFF 		bl	sdc_lld_send_cmd_short_crc
 420              	.LVL37:
 421 00b4 0028     		cmp	r0, #0
 422 00b6 C6D1     		bne	.L18
 423              		.loc 1 204 0 discriminator 1
 424 00b8 4EF20803 		movw	r3, #57352
 425 00bc 019A     		ldr	r2, [sp, #4]
 426 00be CFF6FF53 		movt	r3, 65023
 427 00c2 1340     		ands	r3, r3, r2
 428              		.loc 1 203 0 discriminator 1
 429 00c4 002B     		cmp	r3, #0
 430 00c6 BED1     		bne	.L18
 431              	.LBB12:
 432              		.loc 1 230 0
 433 00c8 AB68     		ldr	r3, [r5, #8]
 434 00ca 03F00F03 		and	r3, r3, #15
 435 00ce 012B     		cmp	r3, #1
 436              		.loc 1 231 0
 437 00d0 04BF     		itt	eq
 438 00d2 4FF00008 		moveq	r8, #0
 439 00d6 CCF21008 		movteq	r8, 49168
 440              		.loc 1 230 0
 441 00da C3D0     		beq	.L21
 442 00dc BEE7     		b	.L20
 443              	.LVL38:
 444              	.L37:
 445              		.loc 1 244 0
 446 00de 5B00     		lsls	r3, r3, #1
 447 00e0 03D5     		bpl	.L23
 448              		.loc 1 245 0
 449 00e2 AB68     		ldr	r3, [r5, #8]
ARM GAS  /var/folders/dt/0wfd0knj7gs46m8vwfzktm600000gn/T//cc242WfM.s 			page 9


 450 00e4 43F01003 		orr	r3, r3, #16
 451 00e8 AB60     		str	r3, [r5, #8]
 452              	.L23:
 453              	.LBE12:
 454              		.loc 1 255 0
 455 00ea 0022     		movs	r2, #0
 456 00ec 2846     		mov	r0, r5
 457 00ee 0221     		movs	r1, #2
 458 00f0 05F10C03 		add	r3, r5, #12
 459 00f4 FFF7FEFF 		bl	sdc_lld_send_cmd_long_crc
 460              	.LVL39:
 461 00f8 0246     		mov	r2, r0
 462 00fa 0028     		cmp	r0, #0
 463 00fc A3D1     		bne	.L18
 464              		.loc 1 259 0
 465 00fe 2846     		mov	r0, r5
 466 0100 0321     		movs	r1, #3
 467 0102 05F12C03 		add	r3, r5, #44
 468 0106 FFF7FEFF 		bl	sdc_lld_send_cmd_short_crc
 469              	.LVL40:
 470 010a 0028     		cmp	r0, #0
 471 010c 9BD1     		bne	.L18
 472              		.loc 1 264 0
 473 010e 2846     		mov	r0, r5
 474 0110 0921     		movs	r1, #9
 475 0112 EA6A     		ldr	r2, [r5, #44]
 476 0114 05F11C03 		add	r3, r5, #28
 477 0118 FFF7FEFF 		bl	sdc_lld_send_cmd_long_crc
 478              	.LVL41:
 479 011c 0028     		cmp	r0, #0
 480 011e 92D1     		bne	.L18
 481              		.loc 1 268 0
 482 0120 2846     		mov	r0, r5
 483 0122 FFF7FEFF 		bl	sdc_lld_set_data_clk
 484              	.LVL42:
 485              		.loc 1 271 0
 486 0126 2846     		mov	r0, r5
 487 0128 0721     		movs	r1, #7
 488 012a EA6A     		ldr	r2, [r5, #44]
 489 012c 01AB     		add	r3, sp, #4
 490 012e FFF7FEFF 		bl	sdc_lld_send_cmd_short_crc
 491              	.LVL43:
 492 0132 0028     		cmp	r0, #0
 493 0134 87D1     		bne	.L18
 494              		.loc 1 276 0
 495 0136 2846     		mov	r0, r5
 496 0138 1021     		movs	r1, #16
 497 013a 4FF40072 		mov	r2, #512
 498 013e 01AB     		add	r3, sp, #4
 499 0140 FFF7FEFF 		bl	sdc_lld_send_cmd_short_crc
 500              	.LVL44:
 501 0144 0028     		cmp	r0, #0
 502 0146 7FF47EAF 		bne	.L18
 503              		.loc 1 278 0
 504 014a 4EF20803 		movw	r3, #57352
 505 014e 019A     		ldr	r2, [sp, #4]
 506 0150 CFF6FF53 		movt	r3, 65023
ARM GAS  /var/folders/dt/0wfd0knj7gs46m8vwfzktm600000gn/T//cc242WfM.s 			page 10


 507 0154 1340     		ands	r3, r3, r2
 508              		.loc 1 277 0
 509 0156 002B     		cmp	r3, #0
 510 0158 7FF475AF 		bne	.L18
 511              		.loc 1 282 0
 512 015c AB68     		ldr	r3, [r5, #8]
 513 015e 03F00F03 		and	r3, r3, #15
 514 0162 012B     		cmp	r3, #1
 515 0164 27D8     		bhi	.L25
 516              		.loc 1 285 0
 517 0166 0121     		movs	r1, #1
 518 0168 2846     		mov	r0, r5
 519 016a FFF7FEFF 		bl	sdc_lld_set_bus_mode
 520              	.LVL45:
 521              		.loc 1 286 0
 522 016e 2846     		mov	r0, r5
 523 0170 3721     		movs	r1, #55
 524 0172 EA6A     		ldr	r2, [r5, #44]
 525 0174 01AB     		add	r3, sp, #4
 526 0176 FFF7FEFF 		bl	sdc_lld_send_cmd_short_crc
 527              	.LVL46:
 528 017a 0028     		cmp	r0, #0
 529 017c 7FF463AF 		bne	.L18
 530              		.loc 1 287 0 discriminator 1
 531 0180 4EF20803 		movw	r3, #57352
 532 0184 019A     		ldr	r2, [sp, #4]
 533 0186 CFF6FF53 		movt	r3, 65023
 534 018a 1340     		ands	r3, r3, r2
 535              		.loc 1 286 0 discriminator 1
 536 018c 002B     		cmp	r3, #0
 537 018e 7FF45AAF 		bne	.L18
 538              		.loc 1 289 0
 539 0192 2846     		mov	r0, r5
 540 0194 0621     		movs	r1, #6
 541 0196 0222     		movs	r2, #2
 542 0198 01AB     		add	r3, sp, #4
 543 019a FFF7FEFF 		bl	sdc_lld_send_cmd_short_crc
 544              	.LVL47:
 545 019e 0028     		cmp	r0, #0
 546 01a0 7FF451AF 		bne	.L18
 547              		.loc 1 290 0 discriminator 1
 548 01a4 4EF20803 		movw	r3, #57352
 549 01a8 019A     		ldr	r2, [sp, #4]
 550 01aa CFF6FF53 		movt	r3, 65023
 551 01ae 1340     		ands	r3, r3, r2
 552              		.loc 1 289 0 discriminator 1
 553 01b0 002B     		cmp	r3, #0
 554 01b2 7FF448AF 		bne	.L18
 555              	.L25:
 556              		.loc 1 294 0
 557 01b6 0523     		movs	r3, #5
 558 01b8 2B70     		strb	r3, [r5, #0]
 559              		.loc 1 295 0
 560 01ba 0020     		movs	r0, #0
 561 01bc 49E7     		b	.L27
 562              		.cfi_endproc
 563              	.LFE67:
ARM GAS  /var/folders/dt/0wfd0knj7gs46m8vwfzktm600000gn/T//cc242WfM.s 			page 11


 564              		.size	sdcConnect, .-sdcConnect
 565 01be 00BF     		.section	.text.sdcDisconnect,"ax",%progbits
 566              		.align	2
 567              		.p2align 4,,15
 568              		.global	sdcDisconnect
 569              		.thumb
 570              		.thumb_func
 571              		.type	sdcDisconnect, %function
 572              	sdcDisconnect:
 573              	.LFB68:
 574              		.loc 1 313 0
 575              		.cfi_startproc
 576              		@ args = 0, pretend = 0, frame = 0
 577              		@ frame_needed = 0, uses_anonymous_args = 0
 578              	.LVL48:
 579 0000 38B5     		push	{r3, r4, r5, lr}
 580              	.LCFI6:
 581              		.cfi_def_cfa_offset 16
 582              		.cfi_offset 3, -16
 583              		.cfi_offset 4, -12
 584              		.cfi_offset 5, -8
 585              		.cfi_offset 14, -4
 586              		.loc 1 313 0
 587 0002 0446     		mov	r4, r0
 588              	.LBB13:
 589              		.loc 1 317 0
 590 0004 2023     		movs	r3, #32
 591              	.LVL49:
 592              	@ 317 "../../os/hal/src/sdc.c" 1
 593 0006 83F31188 		msr     BASEPRI, r3
 594              	@ 0 "" 2
 595              	.LVL50:
 596              		.thumb
 597              	.LBE13:
 598              		.loc 1 320 0
 599 000a 0378     		ldrb	r3, [r0, #0]	@ zero_extendqisi2
 600              	.LVL51:
 601 000c 022B     		cmp	r3, #2
 602 000e 11D0     		beq	.L43
 603              		.loc 1 324 0
 604 0010 0423     		movs	r3, #4
 605 0012 0370     		strb	r3, [r0, #0]
 606              	.LBB14:
 607              		.loc 1 325 0
 608 0014 0023     		movs	r3, #0
 609              	.LVL52:
 610              	@ 325 "../../os/hal/src/sdc.c" 1
 611 0016 83F31188 		msr     BASEPRI, r3
 612              	@ 0 "" 2
 613              	.LVL53:
 614              		.thumb
 615              	.LBE14:
 616              		.loc 1 328 0
 617 001a FFF7FEFF 		bl	_sdc_wait_for_transfer_state
 618              	.LVL54:
 619 001e 0546     		mov	r5, r0
 620 0020 08B1     		cbz	r0, .L44
ARM GAS  /var/folders/dt/0wfd0knj7gs46m8vwfzktm600000gn/T//cc242WfM.s 			page 12


 621              		.loc 1 329 0
 622 0022 0120     		movs	r0, #1
 623              		.loc 1 336 0
 624 0024 38BD     		pop	{r3, r4, r5, pc}
 625              	.L44:
 626              		.loc 1 332 0
 627 0026 2046     		mov	r0, r4
 628 0028 FFF7FEFF 		bl	sdc_lld_stop_clk
 629              	.LVL55:
 630              		.loc 1 334 0
 631 002c 0223     		movs	r3, #2
 632 002e 2370     		strb	r3, [r4, #0]
 633              		.loc 1 335 0
 634 0030 2846     		mov	r0, r5
 635 0032 38BD     		pop	{r3, r4, r5, pc}
 636              	.LVL56:
 637              	.L43:
 638              	.LBB15:
 639              		.loc 1 321 0
 640 0034 0023     		movs	r3, #0
 641              	.LVL57:
 642              	@ 321 "../../os/hal/src/sdc.c" 1
 643 0036 83F31188 		msr     BASEPRI, r3
 644              	@ 0 "" 2
 645              	.LVL58:
 646              		.thumb
 647              	.LBE15:
 648              		.loc 1 322 0
 649 003a 1846     		mov	r0, r3
 650              	.LVL59:
 651 003c 38BD     		pop	{r3, r4, r5, pc}
 652              		.cfi_endproc
 653              	.LFE68:
 654              		.size	sdcDisconnect, .-sdcDisconnect
 655 003e 00BF     		.section	.text.sdcRead,"ax",%progbits
 656              		.align	2
 657              		.p2align 4,,15
 658              		.global	sdcRead
 659              		.thumb
 660              		.thumb_func
 661              		.type	sdcRead, %function
 662              	sdcRead:
 663              	.LFB69:
 664              		.loc 1 355 0
 665              		.cfi_startproc
 666              		@ args = 0, pretend = 0, frame = 0
 667              		@ frame_needed = 0, uses_anonymous_args = 0
 668              	.LVL60:
 669 0000 38B5     		push	{r3, r4, r5, lr}
 670              	.LCFI7:
 671              		.cfi_def_cfa_offset 16
 672              		.cfi_offset 3, -16
 673              		.cfi_offset 4, -12
 674              		.cfi_offset 5, -8
 675              		.cfi_offset 14, -4
 676              		.loc 1 355 0
 677 0002 1D46     		mov	r5, r3
ARM GAS  /var/folders/dt/0wfd0knj7gs46m8vwfzktm600000gn/T//cc242WfM.s 			page 13


 678 0004 0446     		mov	r4, r0
 679              	.LBB16:
 680              		.loc 1 360 0
 681 0006 2023     		movs	r3, #32
 682              	.LVL61:
 683              	@ 360 "../../os/hal/src/sdc.c" 1
 684 0008 83F31188 		msr     BASEPRI, r3
 685              	@ 0 "" 2
 686              	.LVL62:
 687              		.thumb
 688              	.LBE16:
 689              		.loc 1 362 0
 690 000c 0623     		movs	r3, #6
 691              	.LVL63:
 692 000e 0370     		strb	r3, [r0, #0]
 693              	.LBB17:
 694              		.loc 1 363 0
 695 0010 0023     		movs	r3, #0
 696              	.LVL64:
 697              	@ 363 "../../os/hal/src/sdc.c" 1
 698 0012 83F31188 		msr     BASEPRI, r3
 699              	@ 0 "" 2
 700              	.LVL65:
 701              		.thumb
 702              	.LBE17:
 703              		.loc 1 365 0
 704 0016 2B46     		mov	r3, r5
 705              	.LVL66:
 706 0018 FFF7FEFF 		bl	sdc_lld_read
 707              	.LVL67:
 708              		.loc 1 366 0
 709 001c 0523     		movs	r3, #5
 710 001e 2370     		strb	r3, [r4, #0]
 711              		.loc 1 368 0
 712 0020 38BD     		pop	{r3, r4, r5, pc}
 713              		.cfi_endproc
 714              	.LFE69:
 715              		.size	sdcRead, .-sdcRead
 716 0022 00BFAFF3 		.section	.text.sdcWrite,"ax",%progbits
 716      0080AFF3 
 716      0080AFF3 
 716      0080
 717              		.align	2
 718              		.p2align 4,,15
 719              		.global	sdcWrite
 720              		.thumb
 721              		.thumb_func
 722              		.type	sdcWrite, %function
 723              	sdcWrite:
 724              	.LFB70:
 725              		.loc 1 387 0
 726              		.cfi_startproc
 727              		@ args = 0, pretend = 0, frame = 0
 728              		@ frame_needed = 0, uses_anonymous_args = 0
 729              	.LVL68:
 730 0000 38B5     		push	{r3, r4, r5, lr}
 731              	.LCFI8:
ARM GAS  /var/folders/dt/0wfd0knj7gs46m8vwfzktm600000gn/T//cc242WfM.s 			page 14


 732              		.cfi_def_cfa_offset 16
 733              		.cfi_offset 3, -16
 734              		.cfi_offset 4, -12
 735              		.cfi_offset 5, -8
 736              		.cfi_offset 14, -4
 737              		.loc 1 387 0
 738 0002 1D46     		mov	r5, r3
 739 0004 0446     		mov	r4, r0
 740              	.LBB18:
 741              		.loc 1 392 0
 742 0006 2023     		movs	r3, #32
 743              	.LVL69:
 744              	@ 392 "../../os/hal/src/sdc.c" 1
 745 0008 83F31188 		msr     BASEPRI, r3
 746              	@ 0 "" 2
 747              	.LVL70:
 748              		.thumb
 749              	.LBE18:
 750              		.loc 1 394 0
 751 000c 0723     		movs	r3, #7
 752              	.LVL71:
 753 000e 0370     		strb	r3, [r0, #0]
 754              	.LBB19:
 755              		.loc 1 395 0
 756 0010 0023     		movs	r3, #0
 757              	.LVL72:
 758              	@ 395 "../../os/hal/src/sdc.c" 1
 759 0012 83F31188 		msr     BASEPRI, r3
 760              	@ 0 "" 2
 761              	.LVL73:
 762              		.thumb
 763              	.LBE19:
 764              		.loc 1 397 0
 765 0016 2B46     		mov	r3, r5
 766              	.LVL74:
 767 0018 FFF7FEFF 		bl	sdc_lld_write
 768              	.LVL75:
 769              		.loc 1 398 0
 770 001c 0523     		movs	r3, #5
 771 001e 2370     		strb	r3, [r4, #0]
 772              		.loc 1 400 0
 773 0020 38BD     		pop	{r3, r4, r5, pc}
 774              		.cfi_endproc
 775              	.LFE70:
 776              		.size	sdcWrite, .-sdcWrite
 777 0022 00BFAFF3 		.text
 777      0080AFF3 
 777      0080AFF3 
 777      0080
 778              	.Letext0:
 779              		.file 2 "/Users/toxygen/Applications/yagarto-4.7.2/bin/../lib/gcc/arm-none-eabi/4.7.2/../../../../
 780              		.file 3 "../../os/ports/GCC/ARMCMx/chtypes.h"
 781              		.file 4 "../../os/kernel/include/chlists.h"
 782              		.file 5 "../../os/kernel/include/chthreads.h"
 783              		.file 6 "../../os/ports/GCC/ARMCMx/chcore_v7m.h"
 784              		.file 7 "../../os/kernel/include/chmtx.h"
 785              		.file 8 "../../os/hal/include/sdc.h"
ARM GAS  /var/folders/dt/0wfd0knj7gs46m8vwfzktm600000gn/T//cc242WfM.s 			page 15


 786              		.file 9 "../../os/hal/platforms/STM32/sdc_lld.h"
 787              		.file 10 "../../os/ports/common/ARMCMx/CMSIS/include/core_cm3.h"