ARM GAS  /var/folders/dt/0wfd0knj7gs46m8vwfzktm600000gn/T//ccivqkrK.s 			page 1


   1              		.syntax unified
   2              		.cpu cortex-m3
   3              		.fpu softvfp
   4              		.eabi_attribute 20, 1
   5              		.eabi_attribute 21, 1
   6              		.eabi_attribute 23, 3
   7              		.eabi_attribute 24, 1
   8              		.eabi_attribute 25, 1
   9              		.eabi_attribute 26, 1
  10              		.eabi_attribute 30, 2
  11              		.eabi_attribute 34, 1
  12              		.eabi_attribute 18, 4
  13              		.thumb
  14              		.file	"serial_lld.c"
  15              		.text
  16              	.Ltext0:
  17              		.cfi_sections	.debug_frame
  18              		.section	.text.notify2,"ax",%progbits
  19              		.align	2
  20              		.p2align 4,,15
  21              		.thumb
  22              		.thumb_func
  23              		.type	notify2, %function
  24              	notify2:
  25              	.LFB66:
  26              		.file 1 "../../os/hal/platforms/STM32/serial_lld.c"
  27              		.loc 1 225 0
  28              		.cfi_startproc
  29              		@ args = 0, pretend = 0, frame = 0
  30              		@ frame_needed = 0, uses_anonymous_args = 0
  31              		@ link register save eliminated.
  32              	.LVL0:
  33              		.loc 1 228 0
  34 0000 4FF48843 		mov	r3, #17408
  35 0004 C4F20003 		movt	r3, 16384
  36 0008 9A89     		ldrh	r2, [r3, #12]
  37 000a 92B2     		uxth	r2, r2
  38 000c 42F08002 		orr	r2, r2, #128
  39 0010 9A81     		strh	r2, [r3, #12]	@ movhi
  40 0012 7047     		bx	lr
  41              		.cfi_endproc
  42              	.LFE66:
  43              		.size	notify2, .-notify2
  44              		.section	.text.VectorD8,"ax",%progbits
  45              		.align	2
  46              		.p2align 4,,15
  47              		.global	VectorD8
  48              		.thumb
  49              		.thumb_func
  50              		.type	VectorD8, %function
  51              	VectorD8:
  52              	.LFB67:
  53              		.loc 1 290 0
  54              		.cfi_startproc
  55              		@ args = 0, pretend = 0, frame = 0
  56              		@ frame_needed = 0, uses_anonymous_args = 0
  57              	.LVL1:
ARM GAS  /var/folders/dt/0wfd0knj7gs46m8vwfzktm600000gn/T//ccivqkrK.s 			page 2


  58 0000 2DE9F041 		push	{r4, r5, r6, r7, r8, lr}
  59              	.LCFI0:
  60              		.cfi_def_cfa_offset 24
  61              		.cfi_offset 4, -24
  62              		.cfi_offset 5, -20
  63              		.cfi_offset 6, -16
  64              		.cfi_offset 7, -12
  65              		.cfi_offset 8, -8
  66              		.cfi_offset 14, -4
  67              	.LBB30:
  68              	.LBB31:
  69              		.loc 1 171 0
  70 0004 534E     		ldr	r6, .L48
  71 0006 356F     		ldr	r5, [r6, #112]
  72              	.LVL2:
  73              		.loc 1 172 0
  74 0008 AF89     		ldrh	r7, [r5, #12]
  75              		.loc 1 173 0
  76 000a 2C88     		ldrh	r4, [r5, #0]
  77              		.loc 1 174 0
  78 000c A988     		ldrh	r1, [r5, #4]
  79              		.loc 1 173 0
  80 000e A4B2     		uxth	r4, r4
  81              		.loc 1 177 0
  82 0010 2207     		lsls	r2, r4, #28
  83              		.loc 1 172 0
  84 0012 BFB2     		uxth	r7, r7
  85              	.LVL3:
  86              		.loc 1 174 0
  87 0014 1FFA81F8 		uxth	r8, r1
  88              	.LVL4:
  89              		.loc 1 177 0
  90 0018 53D1     		bne	.L43
  91              	.LVL5:
  92              	.L3:
  93              		.loc 1 180 0
  94 001a 04F48073 		and	r3, r4, #256
  95              	.LVL6:
  96 001e 9BB2     		uxth	r3, r3
  97 0020 002B     		cmp	r3, #0
  98 0022 39D1     		bne	.L44
  99              	.L8:
 100              		.loc 1 187 0
 101 0024 04F02003 		and	r3, r4, #32
 102 0028 9BB2     		uxth	r3, r3
 103 002a 002B     		cmp	r3, #0
 104 002c 28D1     		bne	.L45
 105              	.LVL7:
 106              	.L9:
 107              		.loc 1 193 0
 108 002e 07F08003 		and	r3, r7, #128
 109              	.LVL8:
 110 0032 9BB2     		uxth	r3, r3
 111 0034 23B1     		cbz	r3, .L10
 112 0036 04F08003 		and	r3, r4, #128
 113 003a 9BB2     		uxth	r3, r3
 114 003c 002B     		cmp	r3, #0
ARM GAS  /var/folders/dt/0wfd0knj7gs46m8vwfzktm600000gn/T//ccivqkrK.s 			page 3


 115 003e 65D1     		bne	.L46
 116              	.LVL9:
 117              	.L10:
 118              		.loc 1 206 0
 119 0040 04F04004 		and	r4, r4, #64
 120              	.LVL10:
 121 0044 A4B2     		uxth	r4, r4
 122 0046 BCB1     		cbz	r4, .L13
 123              	.LBB32:
 124              		.loc 1 207 0
 125 0048 2023     		movs	r3, #32
 126              	.LVL11:
 127              	@ 207 "../../os/hal/platforms/STM32/serial_lld.c" 1
 128 004a 83F31188 		msr     BASEPRI, r3
 129              	@ 0 "" 2
 130              	.LVL12:
 131              		.thumb
 132              	.LBE32:
 133              		.loc 1 208 0
 134 004e B368     		ldr	r3, [r6, #8]
 135              	.LVL13:
 136 0050 4148     		ldr	r0, .L48+4
 137 0052 43F01003 		orr	r3, r3, #16
 138 0056 0021     		movs	r1, #0
 139 0058 B360     		str	r3, [r6, #8]
 140 005a FFF7FEFF 		bl	chEvtBroadcastFlagsI
 141              	.LVL14:
 142              	.LBB33:
 143              		.loc 1 209 0
 144 005e 0023     		movs	r3, #0
 145              	.LVL15:
 146              	@ 209 "../../os/hal/platforms/STM32/serial_lld.c" 1
 147 0060 83F31188 		msr     BASEPRI, r3
 148              	@ 0 "" 2
 149              	.LVL16:
 150              		.thumb
 151              	.LBE33:
 152              		.loc 1 210 0
 153 0064 4FF6BF73 		movw	r3, #65471
 154              	.LVL17:
 155 0068 3B40     		ands	r3, r3, r7
 156 006a AB81     		strh	r3, [r5, #12]	@ movhi
 157              		.loc 1 211 0
 158 006c 2B88     		ldrh	r3, [r5, #0]
 159 006e 23F04003 		bic	r3, r3, #64
 160 0072 1B04     		lsls	r3, r3, #16
 161 0074 1B0C     		lsrs	r3, r3, #16
 162 0076 2B80     		strh	r3, [r5, #0]	@ movhi
 163              	.LVL18:
 164              	.L13:
 165              	.LBE31:
 166              	.LBE30:
 167              		.loc 1 297 0
 168 0078 BDE8F041 		pop	{r4, r5, r6, r7, r8, lr}
 169              		.loc 1 296 0
 170 007c FFF7FEBF 		b	_port_irq_epilogue
 171              	.LVL19:
ARM GAS  /var/folders/dt/0wfd0knj7gs46m8vwfzktm600000gn/T//ccivqkrK.s 			page 4


 172              	.L45:
 173              	.LBB46:
 174              	.LBB45:
 175              	.LBB34:
 176              		.loc 1 188 0
 177 0080 2023     		movs	r3, #32
 178              	.LVL20:
 179              	@ 188 "../../os/hal/platforms/STM32/serial_lld.c" 1
 180 0082 83F31188 		msr     BASEPRI, r3
 181              	@ 0 "" 2
 182              	.LVL21:
 183              		.thumb
 184              	.LBE34:
 185              		.loc 1 189 0
 186 0086 3348     		ldr	r0, .L48
 187 0088 5FFA88F1 		uxtb	r1, r8
 188 008c FFF7FEFF 		bl	sdIncomingDataI
 189              	.LVL22:
 190              	.LBB35:
 191              		.loc 1 190 0
 192 0090 0023     		movs	r3, #0
 193              	@ 190 "../../os/hal/platforms/STM32/serial_lld.c" 1
 194 0092 83F31188 		msr     BASEPRI, r3
 195              	@ 0 "" 2
 196              	.LVL23:
 197              		.thumb
 198 0096 CAE7     		b	.L9
 199              	.LVL24:
 200              	.L44:
 201              	.LBE35:
 202              	.LBB36:
 203              		.loc 1 181 0
 204 0098 2023     		movs	r3, #32
 205              	.LVL25:
 206              	@ 181 "../../os/hal/platforms/STM32/serial_lld.c" 1
 207 009a 83F31188 		msr     BASEPRI, r3
 208              	@ 0 "" 2
 209              	.LVL26:
 210              		.thumb
 211              	.LBE36:
 212              		.loc 1 182 0
 213 009e B368     		ldr	r3, [r6, #8]
 214              	.LVL27:
 215 00a0 2D48     		ldr	r0, .L48+4
 216 00a2 43F40073 		orr	r3, r3, #512
 217 00a6 0021     		movs	r1, #0
 218 00a8 B360     		str	r3, [r6, #8]
 219 00aa FFF7FEFF 		bl	chEvtBroadcastFlagsI
 220              	.LVL28:
 221              	.LBB37:
 222              		.loc 1 183 0
 223 00ae 0023     		movs	r3, #0
 224              	.LVL29:
 225              	@ 183 "../../os/hal/platforms/STM32/serial_lld.c" 1
 226 00b0 83F31188 		msr     BASEPRI, r3
 227              	@ 0 "" 2
 228              	.LVL30:
ARM GAS  /var/folders/dt/0wfd0knj7gs46m8vwfzktm600000gn/T//ccivqkrK.s 			page 5


 229              		.thumb
 230              	.LBE37:
 231              		.loc 1 184 0
 232 00b4 2B88     		ldrh	r3, [r5, #0]
 233              	.LVL31:
 234 00b6 23F48073 		bic	r3, r3, #256
 235 00ba 1B04     		lsls	r3, r3, #16
 236 00bc 1B0C     		lsrs	r3, r3, #16
 237 00be 2B80     		strh	r3, [r5, #0]	@ movhi
 238 00c0 B0E7     		b	.L8
 239              	.LVL32:
 240              	.L43:
 241              	.LBB38:
 242              	.LBB39:
 243              		.loc 1 152 0
 244 00c2 04F00802 		and	r2, r4, #8
 245 00c6 92B2     		uxth	r2, r2
 246              		.loc 1 153 0
 247 00c8 002A     		cmp	r2, #0
 248 00ca 14BF     		ite	ne
 249 00cc 8022     		movne	r2, #128
 250 00ce 0022     		moveq	r2, #0
 251              	.LVL33:
 252              		.loc 1 154 0
 253 00d0 E307     		lsls	r3, r4, #31
 254              		.loc 1 156 0
 255 00d2 04F00203 		and	r3, r4, #2
 256 00d6 9BB2     		uxth	r3, r3
 257              		.loc 1 155 0
 258 00d8 48BF     		it	mi
 259 00da 42F02002 		orrmi	r2, r2, #32
 260              	.LVL34:
 261              		.loc 1 156 0
 262 00de 0BB1     		cbz	r3, .L6
 263              		.loc 1 157 0
 264 00e0 42F04002 		orr	r2, r2, #64
 265              	.LVL35:
 266              	.L6:
 267              		.loc 1 158 0
 268 00e4 04F00403 		and	r3, r4, #4
 269 00e8 9BB2     		uxth	r3, r3
 270 00ea 0BB1     		cbz	r3, .L7
 271              		.loc 1 159 0
 272 00ec 42F48072 		orr	r2, r2, #256
 273              	.LVL36:
 274              	.L7:
 275              	.LBB40:
 276              		.loc 1 160 0
 277 00f0 2023     		movs	r3, #32
 278              	.LVL37:
 279              	@ 160 "../../os/hal/platforms/STM32/serial_lld.c" 1
 280 00f2 83F31188 		msr     BASEPRI, r3
 281              	@ 0 "" 2
 282              	.LVL38:
 283              		.thumb
 284              	.LBE40:
 285              		.loc 1 161 0
ARM GAS  /var/folders/dt/0wfd0knj7gs46m8vwfzktm600000gn/T//ccivqkrK.s 			page 6


 286 00f6 B368     		ldr	r3, [r6, #8]
 287              	.LVL39:
 288 00f8 1748     		ldr	r0, .L48+4
 289 00fa 1A43     		orrs	r2, r2, r3
 290              	.LVL40:
 291 00fc 0021     		movs	r1, #0
 292              	.LVL41:
 293 00fe B260     		str	r2, [r6, #8]
 294 0100 FFF7FEFF 		bl	chEvtBroadcastFlagsI
 295              	.LVL42:
 296              	.LBB41:
 297              		.loc 1 162 0
 298 0104 0023     		movs	r3, #0
 299              	@ 162 "../../os/hal/platforms/STM32/serial_lld.c" 1
 300 0106 83F31188 		msr     BASEPRI, r3
 301              	@ 0 "" 2
 302              	.LVL43:
 303              		.thumb
 304 010a 86E7     		b	.L3
 305              	.LVL44:
 306              	.L46:
 307              	.LBE41:
 308              	.LBE39:
 309              	.LBE38:
 310              	.LBB42:
 311              	.LBB43:
 312              		.loc 1 195 0
 313 010c 2023     		movs	r3, #32
 314              	.LVL45:
 315              	@ 195 "../../os/hal/platforms/STM32/serial_lld.c" 1
 316 010e 83F31188 		msr     BASEPRI, r3
 317              	@ 0 "" 2
 318              	.LVL46:
 319              		.thumb
 320              	.LBE43:
 321              		.loc 1 196 0
 322 0112 DFF84080 		ldr	r8, .L48
 323              	.LVL47:
 324 0116 08F13000 		add	r0, r8, #48
 325 011a FFF7FEFF 		bl	chOQGetI
 326              	.LVL48:
 327              		.loc 1 197 0
 328 011e 0028     		cmp	r0, #0
 329              		.loc 1 202 0
 330 0120 A4BF     		itt	ge
 331 0122 80B2     		uxthge	r0, r0
 332              	.LVL49:
 333 0124 A880     		strhge	r0, [r5, #4]	@ movhi
 334              		.loc 1 197 0
 335 0126 03DB     		blt	.L47
 336              	.L12:
 337              	.LBB44:
 338              		.loc 1 203 0
 339 0128 0023     		movs	r3, #0
 340              	@ 203 "../../os/hal/platforms/STM32/serial_lld.c" 1
 341 012a 83F31188 		msr     BASEPRI, r3
 342              	@ 0 "" 2
ARM GAS  /var/folders/dt/0wfd0knj7gs46m8vwfzktm600000gn/T//ccivqkrK.s 			page 7


 343              	.LVL50:
 344              		.thumb
 345 012e 87E7     		b	.L10
 346              	.LVL51:
 347              	.L47:
 348              	.LBE44:
 349              		.loc 1 198 0
 350 0130 D8F80830 		ldr	r3, [r8, #8]
 351 0134 08F10400 		add	r0, r8, #4
 352 0138 43F00803 		orr	r3, r3, #8
 353 013c 0021     		movs	r1, #0
 354 013e C8F80830 		str	r3, [r8, #8]
 355 0142 FFF7FEFF 		bl	chEvtBroadcastFlagsI
 356              	.LVL52:
 357              		.loc 1 199 0
 358 0146 27F0C003 		bic	r3, r7, #192
 359 014a 43F04003 		orr	r3, r3, #64
 360 014e AB81     		strh	r3, [r5, #12]	@ movhi
 361 0150 EAE7     		b	.L12
 362              	.L49:
 363 0152 00BF     		.align	2
 364              	.L48:
 365 0154 00000000 		.word	.LANCHOR0
 366 0158 04000000 		.word	.LANCHOR0+4
 367              	.LBE42:
 368              	.LBE45:
 369              	.LBE46:
 370              		.cfi_endproc
 371              	.LFE67:
 372              		.size	VectorD8, .-VectorD8
 373 015c AFF30080 		.section	.text.sd_lld_init,"ax",%progbits
 374              		.align	2
 375              		.p2align 4,,15
 376              		.global	sd_lld_init
 377              		.thumb
 378              		.thumb_func
 379              		.type	sd_lld_init, %function
 380              	sd_lld_init:
 381              	.LFB68:
 382              		.loc 1 373 0
 383              		.cfi_startproc
 384              		@ args = 0, pretend = 0, frame = 0
 385              		@ frame_needed = 0, uses_anonymous_args = 0
 386 0000 10B5     		push	{r4, lr}
 387              	.LCFI1:
 388              		.cfi_def_cfa_offset 8
 389              		.cfi_offset 4, -8
 390              		.cfi_offset 14, -4
 391              		.loc 1 381 0
 392 0002 40F20004 		movw	r4, #:lower16:.LANCHOR0
 393 0006 C0F20004 		movt	r4, #:upper16:.LANCHOR0
 394 000a 40F20002 		movw	r2, #:lower16:notify2
 395 000e 2046     		mov	r0, r4
 396 0010 0021     		movs	r1, #0
 397 0012 C0F20002 		movt	r2, #:upper16:notify2
 398 0016 FFF7FEFF 		bl	sdObjectInit
 399              	.LVL53:
ARM GAS  /var/folders/dt/0wfd0knj7gs46m8vwfzktm600000gn/T//ccivqkrK.s 			page 8


 400              		.loc 1 382 0
 401 001a 4FF48843 		mov	r3, #17408
 402 001e C4F20003 		movt	r3, 16384
 403 0022 2367     		str	r3, [r4, #112]
 404 0024 10BD     		pop	{r4, pc}
 405              		.cfi_endproc
 406              	.LFE68:
 407              		.size	sd_lld_init, .-sd_lld_init
 408 0026 00BFAFF3 		.section	.text.sd_lld_start,"ax",%progbits
 408      0080AFF3 
 408      0080
 409              		.align	2
 410              		.p2align 4,,15
 411              		.global	sd_lld_start
 412              		.thumb
 413              		.thumb_func
 414              		.type	sd_lld_start, %function
 415              	sd_lld_start:
 416              	.LFB69:
 417              		.loc 1 416 0
 418              		.cfi_startproc
 419              		@ args = 0, pretend = 0, frame = 0
 420              		@ frame_needed = 0, uses_anonymous_args = 0
 421              	.LVL54:
 422 0000 38B5     		push	{r3, r4, r5, lr}
 423              	.LCFI2:
 424              		.cfi_def_cfa_offset 16
 425              		.cfi_offset 3, -16
 426              		.cfi_offset 4, -12
 427              		.cfi_offset 5, -8
 428              		.cfi_offset 14, -4
 429              		.loc 1 421 0
 430 0002 037B     		ldrb	r3, [r0, #12]	@ zero_extendqisi2
 431              		.loc 1 419 0
 432 0004 1B4C     		ldr	r4, .L58
 433              		.loc 1 416 0
 434 0006 0546     		mov	r5, r0
 435              		.loc 1 419 0
 436 0008 0029     		cmp	r1, #0
 437 000a 18BF     		it	ne
 438 000c 0C46     		movne	r4, r1
 439              	.LVL55:
 440              		.loc 1 421 0
 441 000e 012B     		cmp	r3, #1
 442 0010 1FD0     		beq	.L57
 443              	.LVL56:
 444              	.L53:
 445              	.LBB49:
 446              	.LBB50:
 447              		.loc 1 110 0
 448 0012 2168     		ldr	r1, [r4, #0]
 449 0014 4FF4A242 		mov	r2, #20736
 450 0018 C0F22522 		movt	r2, 549
 451              		.loc 1 100 0
 452 001c 2B6F     		ldr	r3, [r5, #112]
 453              	.LVL57:
 454              		.loc 1 110 0
ARM GAS  /var/folders/dt/0wfd0knj7gs46m8vwfzktm600000gn/T//ccivqkrK.s 			page 9


 455 001e B2FBF1F2 		udiv	r2, r2, r1
 456 0022 92B2     		uxth	r2, r2
 457 0024 1A81     		strh	r2, [r3, #8]	@ movhi
 458              		.loc 1 119 0
 459 0026 A288     		ldrh	r2, [r4, #4]
 460              		.loc 1 117 0
 461 0028 E088     		ldrh	r0, [r4, #6]
 462              		.loc 1 118 0
 463 002a 2189     		ldrh	r1, [r4, #8]
 464              		.loc 1 119 0
 465 002c 42F40452 		orr	r2, r2, #8448
 466              		.loc 1 117 0
 467 0030 40F04000 		orr	r0, r0, #64
 468              		.loc 1 118 0
 469 0034 41F00101 		orr	r1, r1, #1
 470              		.loc 1 119 0
 471 0038 42F02C02 		orr	r2, r2, #44
 472 003c 92B2     		uxth	r2, r2
 473              		.loc 1 117 0
 474 003e 80B2     		uxth	r0, r0
 475              		.loc 1 118 0
 476 0040 89B2     		uxth	r1, r1
 477              		.loc 1 117 0
 478 0042 1882     		strh	r0, [r3, #16]	@ movhi
 479              		.loc 1 118 0
 480 0044 9982     		strh	r1, [r3, #20]	@ movhi
 481              		.loc 1 119 0
 482 0046 9A81     		strh	r2, [r3, #12]	@ movhi
 483              		.loc 1 122 0
 484 0048 0022     		movs	r2, #0
 485 004a 1A80     		strh	r2, [r3, #0]	@ movhi
 486              		.loc 1 123 0
 487 004c 1A88     		ldrh	r2, [r3, #0]
 488              		.loc 1 124 0
 489 004e 9B88     		ldrh	r3, [r3, #4]
 490              	.LVL58:
 491 0050 38BD     		pop	{r3, r4, r5, pc}
 492              	.LVL59:
 493              	.L57:
 494              	.LBE50:
 495              	.LBE49:
 496              		.loc 1 430 0
 497 0052 094B     		ldr	r3, .L58+4
 498 0054 9842     		cmp	r0, r3
 499 0056 DCD1     		bne	.L53
 500              		.loc 1 431 0
 501 0058 4FF48053 		mov	r3, #4096
 502 005c C4F20203 		movt	r3, 16386
 503 0060 DA69     		ldr	r2, [r3, #28]
 504              		.loc 1 432 0
 505 0062 2620     		movs	r0, #38
 506              	.LVL60:
 507              		.loc 1 431 0
 508 0064 42F40032 		orr	r2, r2, #131072
 509 0068 DA61     		str	r2, [r3, #28]
 510              		.loc 1 432 0
 511 006a C021     		movs	r1, #192
ARM GAS  /var/folders/dt/0wfd0knj7gs46m8vwfzktm600000gn/T//ccivqkrK.s 			page 10


 512 006c FFF7FEFF 		bl	nvicEnableVector
 513              	.LVL61:
 514 0070 CFE7     		b	.L53
 515              	.L59:
 516 0072 00BF     		.align	2
 517              	.L58:
 518 0074 00000000 		.word	.LANCHOR1
 519 0078 00000000 		.word	.LANCHOR0
 520              		.cfi_endproc
 521              	.LFE69:
 522              		.size	sd_lld_start, .-sd_lld_start
 523 007c AFF30080 		.section	.text.sd_lld_stop,"ax",%progbits
 524              		.align	2
 525              		.p2align 4,,15
 526              		.global	sd_lld_stop
 527              		.thumb
 528              		.thumb_func
 529              		.type	sd_lld_stop, %function
 530              	sd_lld_stop:
 531              	.LFB70:
 532              		.loc 1 477 0
 533              		.cfi_startproc
 534              		@ args = 0, pretend = 0, frame = 0
 535              		@ frame_needed = 0, uses_anonymous_args = 0
 536              		@ link register save eliminated.
 537              	.LVL62:
 538              		.loc 1 479 0
 539 0000 037B     		ldrb	r3, [r0, #12]	@ zero_extendqisi2
 540 0002 022B     		cmp	r3, #2
 541 0004 00D0     		beq	.L64
 542              	.L60:
 543 0006 7047     		bx	lr
 544              	.L64:
 545              		.loc 1 480 0
 546 0008 036F     		ldr	r3, [r0, #112]
 547              	.LVL63:
 548              	.LBB51:
 549              	.LBB52:
 550              		.loc 1 135 0
 551 000a 0022     		movs	r2, #0
 552 000c 9A81     		strh	r2, [r3, #12]	@ movhi
 553              		.loc 1 136 0
 554 000e 1A82     		strh	r2, [r3, #16]	@ movhi
 555              		.loc 1 137 0
 556 0010 9A82     		strh	r2, [r3, #20]	@ movhi
 557              	.LBE52:
 558              	.LBE51:
 559              		.loc 1 489 0
 560 0012 074B     		ldr	r3, .L65
 561              	.LVL64:
 562 0014 9842     		cmp	r0, r3
 563 0016 F6D1     		bne	.L60
 564              		.loc 1 490 0
 565 0018 4FF48053 		mov	r3, #4096
 566 001c C4F20203 		movt	r3, 16386
 567 0020 DA69     		ldr	r2, [r3, #28]
 568              		.loc 1 491 0
ARM GAS  /var/folders/dt/0wfd0knj7gs46m8vwfzktm600000gn/T//ccivqkrK.s 			page 11


 569 0022 2620     		movs	r0, #38
 570              	.LVL65:
 571              		.loc 1 490 0
 572 0024 22F40032 		bic	r2, r2, #131072
 573 0028 DA61     		str	r2, [r3, #28]
 574              		.loc 1 524 0
 575              		.loc 1 491 0
 576 002a FFF7FEBF 		b	nvicDisableVector
 577              	.LVL66:
 578              	.L66:
 579 002e 00BF     		.align	2
 580              	.L65:
 581 0030 00000000 		.word	.LANCHOR0
 582              		.cfi_endproc
 583              	.LFE70:
 584              		.size	sd_lld_stop, .-sd_lld_stop
 585              		.global	SD2
 586 0034 AFF30080 		.section	.rodata.default_config,"a",%progbits
 586      AFF30080 
 586      AFF30080 
 587              		.align	2
 588              		.set	.LANCHOR1,. + 0
 589              		.type	default_config, %object
 590              		.size	default_config, 12
 591              	default_config:
 592 0000 00960000 		.word	38400
 593 0004 0000     		.short	0
 594 0006 0040     		.short	16384
 595 0008 0000     		.short	0
 596 000a 0000     		.space	2
 597              		.section	.bss.SD2,"aw",%nobits
 598              		.align	2
 599              		.set	.LANCHOR0,. + 0
 600              		.type	SD2, %object
 601              		.size	SD2, 116
 602              	SD2:
 603 0000 00000000 		.space	116
 603      00000000 
 603      00000000 
 603      00000000 
 603      00000000 
 604              		.text
 605              	.Letext0:
 606              		.file 2 "/Users/toxygen/Applications/yagarto-4.7.2/bin/../lib/gcc/arm-none-eabi/4.7.2/include/stdd
 607              		.file 3 "/Users/toxygen/Applications/yagarto-4.7.2/bin/../lib/gcc/arm-none-eabi/4.7.2/../../../../
 608              		.file 4 "../../os/ports/GCC/ARMCMx/chtypes.h"
 609              		.file 5 "../../os/kernel/include/chlists.h"
 610              		.file 6 "../../os/kernel/include/chthreads.h"
 611              		.file 7 "../../os/ports/GCC/ARMCMx/chcore_v7m.h"
 612              		.file 8 "../../os/kernel/include/chmtx.h"
 613              		.file 9 "../../os/kernel/include/chevents.h"
 614              		.file 10 "../../os/kernel/include/chqueues.h"
 615              		.file 11 "../../os/kernel/include/chioch.h"
 616              		.file 12 "../../os/hal/platforms/STM32F1xx/stm32f10x.h"
 617              		.file 13 "../../os/hal/include/serial.h"
 618              		.file 14 "../../os/hal/platforms/STM32/serial_lld.h"
 619              		.file 15 "../../os/ports/common/ARMCMx/nvic.h"
ARM GAS  /var/folders/dt/0wfd0knj7gs46m8vwfzktm600000gn/T//ccivqkrK.s 			page 12


 620              		.file 16 "../../os/ports/common/ARMCMx/CMSIS/include/core_cm3.h"