ARM GAS  /var/folders/dt/0wfd0knj7gs46m8vwfzktm600000gn/T//ccLj5n8M.s 			page 1


   1              		.syntax unified
   2              		.cpu cortex-m3
   3              		.fpu softvfp
   4              		.eabi_attribute 20, 1
   5              		.eabi_attribute 21, 1
   6              		.eabi_attribute 23, 3
   7              		.eabi_attribute 24, 1
   8              		.eabi_attribute 25, 1
   9              		.eabi_attribute 26, 1
  10              		.eabi_attribute 30, 2
  11              		.eabi_attribute 34, 1
  12              		.eabi_attribute 18, 4
  13              		.thumb
  14              		.file	"shell.c"
  15              		.text
  16              	.Ltext0:
  17              		.cfi_sections	.debug_frame
  18              		.section	.text.cmd_systime,"ax",%progbits
  19              		.align	2
  20              		.p2align 4,,15
  21              		.thumb
  22              		.thumb_func
  23              		.type	cmd_systime, %function
  24              	cmd_systime:
  25              	.LFB66:
  26              		.file 1 "../../os/various/shell.c"
  27              		.loc 1 110 0
  28              		.cfi_startproc
  29              		@ args = 0, pretend = 0, frame = 0
  30              		@ frame_needed = 0, uses_anonymous_args = 0
  31              		@ link register save eliminated.
  32              	.LVL0:
  33              		.loc 1 113 0
  34 0000 0029     		cmp	r1, #0
  35 0002 03DD     		ble	.L2
  36              	.LVL1:
  37              	.LBB6:
  38              	.LBB7:
  39              		.loc 1 67 0
  40 0004 0449     		ldr	r1, .L4
  41              	.LVL2:
  42 0006 054A     		ldr	r2, .L4+4
  43              	.LVL3:
  44              	.LBE7:
  45              	.LBE6:
  46              		.loc 1 118 0
  47              	.LBB9:
  48              	.LBB8:
  49              		.loc 1 67 0
  50 0008 FFF7FEBF 		b	chprintf
  51              	.LVL4:
  52              	.L2:
  53              	.LBE8:
  54              	.LBE9:
  55              	.LBB10:
  56              	.LBB11:
  57              		.loc 1 117 0
ARM GAS  /var/folders/dt/0wfd0knj7gs46m8vwfzktm600000gn/T//ccLj5n8M.s 			page 2


  58 000c 044B     		ldr	r3, .L4+8
  59 000e 0549     		ldr	r1, .L4+12
  60              	.LVL5:
  61 0010 DA68     		ldr	r2, [r3, #12]
  62              	.LVL6:
  63              	.LBE11:
  64              	.LBE10:
  65              		.loc 1 118 0
  66              	.LBB13:
  67              	.LBB12:
  68              		.loc 1 117 0
  69 0012 FFF7FEBF 		b	chprintf
  70              	.LVL7:
  71              	.L5:
  72 0016 00BF     		.align	2
  73              	.L4:
  74 0018 00000000 		.word	.LC0
  75 001c 0C000000 		.word	.LC1
  76 0020 00000000 		.word	vtlist
  77 0024 14000000 		.word	.LC2
  78              	.LBE12:
  79              	.LBE13:
  80              		.cfi_endproc
  81              	.LFE66:
  82              		.size	cmd_systime, .-cmd_systime
  83 0028 AFF30080 		.section	.text.cmd_info,"ax",%progbits
  83      AFF30080 
  84              		.align	2
  85              		.p2align 4,,15
  86              		.thumb
  87              		.thumb_func
  88              		.type	cmd_info, %function
  89              	cmd_info:
  90              	.LFB65:
  91              		.loc 1 78 0
  92              		.cfi_startproc
  93              		@ args = 0, pretend = 0, frame = 0
  94              		@ frame_needed = 0, uses_anonymous_args = 0
  95              	.LVL8:
  96 0000 10B5     		push	{r4, lr}
  97              	.LCFI0:
  98              		.cfi_def_cfa_offset 8
  99              		.cfi_offset 4, -8
 100              		.cfi_offset 14, -4
 101              		.loc 1 81 0
 102 0002 0029     		cmp	r1, #0
 103              		.loc 1 78 0
 104 0004 82B0     		sub	sp, sp, #8
 105              	.LCFI1:
 106              		.cfi_def_cfa_offset 16
 107              		.loc 1 78 0
 108 0006 0446     		mov	r4, r0
 109              		.loc 1 81 0
 110 0008 06DD     		ble	.L7
 111              	.LVL9:
 112              	.LBB18:
 113              	.LBB19:
ARM GAS  /var/folders/dt/0wfd0knj7gs46m8vwfzktm600000gn/T//ccLj5n8M.s 			page 3


 114              		.loc 1 67 0
 115 000a 1949     		ldr	r1, .L8
 116              	.LVL10:
 117 000c 194A     		ldr	r2, .L8+4
 118              	.LVL11:
 119              	.LBE19:
 120              	.LBE18:
 121              		.loc 1 108 0
 122 000e 02B0     		add	sp, sp, #8
 123 0010 BDE81040 		pop	{r4, lr}
 124              	.LBB21:
 125              	.LBB20:
 126              		.loc 1 67 0
 127 0014 FFF7FEBF 		b	chprintf
 128              	.LVL12:
 129              	.L7:
 130              	.LBE20:
 131              	.LBE21:
 132              	.LBB22:
 133              	.LBB23:
 134              		.loc 1 86 0
 135 0018 1749     		ldr	r1, .L8+8
 136              	.LVL13:
 137 001a 184A     		ldr	r2, .L8+12
 138              	.LVL14:
 139 001c FFF7FEFF 		bl	chprintf
 140              	.LVL15:
 141              		.loc 1 88 0
 142 0020 2046     		mov	r0, r4
 143 0022 1749     		ldr	r1, .L8+16
 144 0024 174A     		ldr	r2, .L8+20
 145 0026 FFF7FEFF 		bl	chprintf
 146              	.LVL16:
 147              		.loc 1 90 0
 148 002a 2046     		mov	r0, r4
 149 002c 1649     		ldr	r1, .L8+24
 150 002e 174A     		ldr	r2, .L8+28
 151 0030 FFF7FEFF 		bl	chprintf
 152              	.LVL17:
 153              		.loc 1 92 0
 154 0034 2046     		mov	r0, r4
 155 0036 1649     		ldr	r1, .L8+32
 156 0038 164A     		ldr	r2, .L8+36
 157 003a FFF7FEFF 		bl	chprintf
 158              	.LVL18:
 159              		.loc 1 95 0
 160 003e 2046     		mov	r0, r4
 161 0040 1549     		ldr	r1, .L8+40
 162 0042 164A     		ldr	r2, .L8+44
 163 0044 FFF7FEFF 		bl	chprintf
 164              	.LVL19:
 165              		.loc 1 98 0
 166 0048 2046     		mov	r0, r4
 167 004a 1549     		ldr	r1, .L8+48
 168 004c 154A     		ldr	r2, .L8+52
 169 004e FFF7FEFF 		bl	chprintf
 170              	.LVL20:
ARM GAS  /var/folders/dt/0wfd0knj7gs46m8vwfzktm600000gn/T//ccLj5n8M.s 			page 4


 171              		.loc 1 101 0
 172 0052 2046     		mov	r0, r4
 173 0054 1449     		ldr	r1, .L8+56
 174 0056 154A     		ldr	r2, .L8+60
 175 0058 FFF7FEFF 		bl	chprintf
 176              	.LVL21:
 177              		.loc 1 105 0
 178 005c 144B     		ldr	r3, .L8+64
 179 005e 2046     		mov	r0, r4
 180 0060 0093     		str	r3, [sp, #0]
 181 0062 1449     		ldr	r1, .L8+68
 182 0064 144A     		ldr	r2, .L8+72
 183 0066 154B     		ldr	r3, .L8+76
 184 0068 FFF7FEFF 		bl	chprintf
 185              	.LVL22:
 186              	.LBE23:
 187              	.LBE22:
 188              		.loc 1 108 0
 189 006c 02B0     		add	sp, sp, #8
 190 006e 10BD     		pop	{r4, pc}
 191              	.L9:
 192              		.align	2
 193              	.L8:
 194 0070 00000000 		.word	.LC0
 195 0074 1C000000 		.word	.LC3
 196 0078 24000000 		.word	.LC4
 197 007c 38000000 		.word	.LC5
 198 0080 40000000 		.word	.LC6
 199 0084 54000000 		.word	.LC7
 200 0088 60000000 		.word	.LC8
 201 008c 74000000 		.word	.LC9
 202 0090 7C000000 		.word	.LC10
 203 0094 90000000 		.word	.LC11
 204 0098 9C000000 		.word	.LC12
 205 009c B0000000 		.word	.LC13
 206 00a0 C8000000 		.word	.LC14
 207 00a4 DC000000 		.word	.LC15
 208 00a8 04010000 		.word	.LC16
 209 00ac 18010000 		.word	.LC17
 210 00b0 58010000 		.word	.LC21
 211 00b4 30010000 		.word	.LC18
 212 00b8 48010000 		.word	.LC19
 213 00bc 54010000 		.word	.LC20
 214              		.cfi_endproc
 215              	.LFE65:
 216              		.size	cmd_info, .-cmd_info
 217              		.section	.text._strtok.constprop.2,"ax",%progbits
 218              		.align	2
 219              		.p2align 4,,15
 220              		.thumb
 221              		.thumb_func
 222              		.type	_strtok.constprop.2, %function
 223              	_strtok.constprop.2:
 224              	.LFB75:
 225              		.loc 1 48 0
 226              		.cfi_startproc
 227              		@ args = 0, pretend = 0, frame = 0
ARM GAS  /var/folders/dt/0wfd0knj7gs46m8vwfzktm600000gn/T//ccLj5n8M.s 			page 5


 228              		@ frame_needed = 0, uses_anonymous_args = 0
 229              	.LVL23:
 230 0000 38B5     		push	{r3, r4, r5, lr}
 231              	.LCFI2:
 232              		.cfi_def_cfa_offset 16
 233              		.cfi_offset 3, -16
 234              		.cfi_offset 4, -12
 235              		.cfi_offset 5, -8
 236              		.cfi_offset 14, -4
 237              		.loc 1 50 0
 238 0002 0446     		mov	r4, r0
 239              		.loc 1 48 0
 240 0004 0D46     		mov	r5, r1
 241              		.loc 1 50 0
 242 0006 98B1     		cbz	r0, .L11
 243              		.loc 1 51 0
 244 0008 2860     		str	r0, [r5, #0]
 245              	.LVL24:
 246              	.L12:
 247              		.loc 1 57 0
 248 000a 0C49     		ldr	r1, .L22
 249              	.LVL25:
 250 000c 2046     		mov	r0, r4
 251              	.LVL26:
 252 000e FFF7FEFF 		bl	strspn
 253              	.LVL27:
 254 0012 2418     		adds	r4, r4, r0
 255              	.LVL28:
 256              		.loc 1 58 0
 257 0014 2046     		mov	r0, r4
 258 0016 2021     		movs	r1, #32
 259 0018 FFF7FEFF 		bl	strchr
 260              	.LVL29:
 261 001c 2860     		str	r0, [r5, #0]
 262              		.loc 1 59 0
 263 001e 18B1     		cbz	r0, .L14
 264              		.loc 1 60 0
 265 0020 0023     		movs	r3, #0
 266 0022 00F8013B 		strb	r3, [r0], #1
 267 0026 2860     		str	r0, [r5, #0]
 268              	.L14:
 269              		.loc 1 62 0
 270 0028 2378     		ldrb	r3, [r4, #0]	@ zero_extendqisi2
 271 002a 23B1     		cbz	r3, .L15
 272              		.loc 1 63 0
 273 002c 2046     		mov	r0, r4
 274 002e 38BD     		pop	{r3, r4, r5, pc}
 275              	.LVL30:
 276              	.L11:
 277              		.loc 1 52 0
 278 0030 0C68     		ldr	r4, [r1, #0]
 279              	.LVL31:
 280              		.loc 1 54 0
 281 0032 002C     		cmp	r4, #0
 282 0034 E9D1     		bne	.L12
 283              	.LVL32:
 284              	.L15:
ARM GAS  /var/folders/dt/0wfd0knj7gs46m8vwfzktm600000gn/T//ccLj5n8M.s 			page 6


 285              		.loc 1 55 0
 286 0036 0024     		movs	r4, #0
 287              	.LVL33:
 288              		.loc 1 63 0
 289 0038 2046     		mov	r0, r4
 290 003a 38BD     		pop	{r3, r4, r5, pc}
 291              	.L23:
 292              		.align	2
 293              	.L22:
 294 003c 00000000 		.word	.LANCHOR0
 295              		.cfi_endproc
 296              	.LFE75:
 297              		.size	_strtok.constprop.2, .-_strtok.constprop.2
 298              		.section	.text.shellInit,"ax",%progbits
 299              		.align	2
 300              		.p2align 4,,15
 301              		.global	shellInit
 302              		.thumb
 303              		.thumb_func
 304              		.type	shellInit, %function
 305              	shellInit:
 306              	.LFB69:
 307              		.loc 1 215 0
 308              		.cfi_startproc
 309              		@ args = 0, pretend = 0, frame = 0
 310              		@ frame_needed = 0, uses_anonymous_args = 0
 311              		@ link register save eliminated.
 312              		.loc 1 217 0
 313 0000 40F20003 		movw	r3, #:lower16:.LANCHOR1
 314 0004 C0F20003 		movt	r3, #:upper16:.LANCHOR1
 315 0008 1B60     		str	r3, [r3, #0]
 316 000a 7047     		bx	lr
 317              		.cfi_endproc
 318              	.LFE69:
 319              		.size	shellInit, .-shellInit
 320 000c AFF30080 		.section	.text.shellCreate,"ax",%progbits
 321              		.align	2
 322              		.p2align 4,,15
 323              		.global	shellCreate
 324              		.thumb
 325              		.thumb_func
 326              		.type	shellCreate, %function
 327              	shellCreate:
 328              	.LFB70:
 329              		.loc 1 231 0
 330              		.cfi_startproc
 331              		@ args = 0, pretend = 0, frame = 0
 332              		@ frame_needed = 0, uses_anonymous_args = 0
 333              	.LVL34:
 334 0000 00B5     		push	{lr}
 335              	.LCFI3:
 336              		.cfi_def_cfa_offset 4
 337              		.cfi_offset 14, -4
 338              		.loc 1 233 0
 339 0002 40F20003 		movw	r3, #:lower16:shell_thread
 340              		.loc 1 231 0
 341 0006 83B0     		sub	sp, sp, #12
ARM GAS  /var/folders/dt/0wfd0knj7gs46m8vwfzktm600000gn/T//ccLj5n8M.s 			page 7


 342              	.LCFI4:
 343              		.cfi_def_cfa_offset 16
 344              		.loc 1 233 0
 345 0008 0090     		str	r0, [sp, #0]
 346 000a C0F20003 		movt	r3, #:upper16:shell_thread
 347 000e 0020     		movs	r0, #0
 348              	.LVL35:
 349 0010 FFF7FEFF 		bl	chThdCreateFromHeap
 350              	.LVL36:
 351              		.loc 1 234 0
 352 0014 03B0     		add	sp, sp, #12
 353 0016 00BD     		pop	{pc}
 354              		.cfi_endproc
 355              	.LFE70:
 356              		.size	shellCreate, .-shellCreate
 357 0018 AFF30080 		.section	.text.shellCreateStatic,"ax",%progbits
 357      AFF30080 
 358              		.align	2
 359              		.p2align 4,,15
 360              		.global	shellCreateStatic
 361              		.thumb
 362              		.thumb_func
 363              		.type	shellCreateStatic, %function
 364              	shellCreateStatic:
 365              	.LFB71:
 366              		.loc 1 247 0
 367              		.cfi_startproc
 368              		@ args = 0, pretend = 0, frame = 0
 369              		@ frame_needed = 0, uses_anonymous_args = 0
 370              	.LVL37:
 371 0000 00B5     		push	{lr}
 372              	.LCFI5:
 373              		.cfi_def_cfa_offset 4
 374              		.cfi_offset 14, -4
 375 0002 83B0     		sub	sp, sp, #12
 376              	.LCFI6:
 377              		.cfi_def_cfa_offset 16
 378              		.loc 1 249 0
 379 0004 0090     		str	r0, [sp, #0]
 380 0006 0846     		mov	r0, r1
 381              	.LVL38:
 382 0008 1146     		mov	r1, r2
 383              	.LVL39:
 384 000a 1A46     		mov	r2, r3
 385              	.LVL40:
 386 000c 40F20003 		movw	r3, #:lower16:shell_thread
 387              	.LVL41:
 388 0010 C0F20003 		movt	r3, #:upper16:shell_thread
 389 0014 FFF7FEFF 		bl	chThdCreateStatic
 390              	.LVL42:
 391              		.loc 1 250 0
 392 0018 03B0     		add	sp, sp, #12
 393 001a 00BD     		pop	{pc}
 394              		.cfi_endproc
 395              	.LFE71:
 396              		.size	shellCreateStatic, .-shellCreateStatic
 397              		.section	.text.shellGetLine,"ax",%progbits
ARM GAS  /var/folders/dt/0wfd0knj7gs46m8vwfzktm600000gn/T//ccLj5n8M.s 			page 8


 398              		.align	2
 399              		.p2align 4,,15
 400              		.global	shellGetLine
 401              		.thumb
 402              		.thumb_func
 403              		.type	shellGetLine, %function
 404              	shellGetLine:
 405              	.LFB72:
 406              		.loc 1 262 0
 407              		.cfi_startproc
 408              		@ args = 0, pretend = 0, frame = 0
 409              		@ frame_needed = 0, uses_anonymous_args = 0
 410              	.LVL43:
 411              	.LBB24:
 412              		.loc 1 289 0
 413 0000 013A     		subs	r2, r2, #1
 414              	.LVL44:
 415              	.LBE24:
 416              		.loc 1 262 0
 417 0002 2DE9F041 		push	{r4, r5, r6, r7, r8, lr}
 418              	.LCFI7:
 419              		.cfi_def_cfa_offset 24
 420              		.cfi_offset 4, -24
 421              		.cfi_offset 5, -20
 422              		.cfi_offset 6, -16
 423              		.cfi_offset 7, -12
 424              		.cfi_offset 8, -8
 425              		.cfi_offset 14, -4
 426              		.loc 1 262 0
 427 0006 0E46     		mov	r6, r1
 428              	.LVL45:
 429 0008 0446     		mov	r4, r0
 430              		.loc 1 263 0
 431 000a 0D46     		mov	r5, r1
 432              	.LBB25:
 433              		.loc 1 289 0
 434 000c 8F18     		adds	r7, r1, r2
 435              	.LVL46:
 436              	.L37:
 437              		.loc 1 266 0
 438 000e 2368     		ldr	r3, [r4, #0]
 439 0010 2046     		mov	r0, r4
 440 0012 5B69     		ldr	r3, [r3, #20]
 441 0014 4FF0FF31 		mov	r1, #-1
 442 0018 9847     		blx	r3
 443              	.LVL47:
 444              		.loc 1 267 0
 445 001a 03B2     		sxth	r3, r0
 446 001c 002B     		cmp	r3, #0
 447 001e 30DB     		blt	.L34
 448              		.loc 1 269 0
 449 0020 042B     		cmp	r3, #4
 450 0022 31D0     		beq	.L38
 451              		.loc 1 273 0
 452 0024 082B     		cmp	r3, #8
 453 0026 11D0     		beq	.L39
 454              		.loc 1 282 0
ARM GAS  /var/folders/dt/0wfd0knj7gs46m8vwfzktm600000gn/T//ccLj5n8M.s 			page 9


 455 0028 0D2B     		cmp	r3, #13
 456 002a 34D0     		beq	.L40
 457              		.loc 1 287 0
 458 002c 1F2B     		cmp	r3, #31
 459 002e EEDD     		ble	.L37
 460              		.loc 1 289 0
 461 0030 BD42     		cmp	r5, r7
 462 0032 ECD2     		bcs	.L37
 463              		.loc 1 290 0
 464 0034 2368     		ldr	r3, [r4, #0]
 465 0036 5FFA80F8 		uxtb	r8, r0
 466 003a 1B69     		ldr	r3, [r3, #16]
 467 003c 2046     		mov	r0, r4
 468              	.LVL48:
 469 003e 4146     		mov	r1, r8
 470 0040 4FF0FF32 		mov	r2, #-1
 471 0044 9847     		blx	r3
 472              	.LVL49:
 473              		.loc 1 291 0
 474 0046 05F8018B 		strb	r8, [r5], #1
 475              	.LVL50:
 476 004a E0E7     		b	.L37
 477              	.LVL51:
 478              	.L39:
 479              		.loc 1 274 0
 480 004c B542     		cmp	r5, r6
 481 004e DED0     		beq	.L37
 482              		.loc 1 275 0
 483 0050 2368     		ldr	r3, [r4, #0]
 484 0052 5FFA80F8 		uxtb	r8, r0
 485 0056 4146     		mov	r1, r8
 486 0058 4FF0FF32 		mov	r2, #-1
 487 005c 1B69     		ldr	r3, [r3, #16]
 488 005e 2046     		mov	r0, r4
 489              	.LVL52:
 490 0060 9847     		blx	r3
 491              	.LVL53:
 492              		.loc 1 276 0
 493 0062 2368     		ldr	r3, [r4, #0]
 494 0064 2021     		movs	r1, #32
 495 0066 4FF0FF32 		mov	r2, #-1
 496 006a 1B69     		ldr	r3, [r3, #16]
 497 006c 2046     		mov	r0, r4
 498 006e 9847     		blx	r3
 499              	.LVL54:
 500              		.loc 1 277 0
 501 0070 2368     		ldr	r3, [r4, #0]
 502 0072 2046     		mov	r0, r4
 503 0074 1B69     		ldr	r3, [r3, #16]
 504 0076 4146     		mov	r1, r8
 505 0078 4FF0FF32 		mov	r2, #-1
 506 007c 9847     		blx	r3
 507              	.LVL55:
 508              		.loc 1 278 0
 509 007e 013D     		subs	r5, r5, #1
 510              	.LVL56:
 511 0080 C5E7     		b	.L37
ARM GAS  /var/folders/dt/0wfd0knj7gs46m8vwfzktm600000gn/T//ccLj5n8M.s 			page 10


 512              	.LVL57:
 513              	.L34:
 514              		.loc 1 268 0
 515 0082 0120     		movs	r0, #1
 516              	.LVL58:
 517              	.LBE25:
 518              		.loc 1 294 0
 519 0084 BDE8F081 		pop	{r4, r5, r6, r7, r8, pc}
 520              	.LVL59:
 521              	.L38:
 522              	.LBB26:
 523              		.loc 1 270 0
 524 0088 2046     		mov	r0, r4
 525              	.LVL60:
 526 008a 0749     		ldr	r1, .L41
 527 008c FFF7FEFF 		bl	chprintf
 528              	.LVL61:
 529              		.loc 1 271 0
 530 0090 0120     		movs	r0, #1
 531 0092 BDE8F081 		pop	{r4, r5, r6, r7, r8, pc}
 532              	.LVL62:
 533              	.L40:
 534              		.loc 1 283 0
 535 0096 2046     		mov	r0, r4
 536              	.LVL63:
 537 0098 0449     		ldr	r1, .L41+4
 538 009a FFF7FEFF 		bl	chprintf
 539              	.LVL64:
 540              		.loc 1 284 0
 541 009e 0020     		movs	r0, #0
 542 00a0 2870     		strb	r0, [r5, #0]
 543              		.loc 1 285 0
 544 00a2 BDE8F081 		pop	{r4, r5, r6, r7, r8, pc}
 545              	.L42:
 546 00a6 00BF     		.align	2
 547              	.L41:
 548 00a8 64010000 		.word	.LC23
 549 00ac 68010000 		.word	.LC24
 550              	.LBE26:
 551              		.cfi_endproc
 552              	.LFE72:
 553              		.size	shellGetLine, .-shellGetLine
 554              		.section	.text.shell_thread,"ax",%progbits
 555              		.align	2
 556              		.p2align 4,,15
 557              		.thumb
 558              		.thumb_func
 559              		.type	shell_thread, %function
 560              	shell_thread:
 561              	.LFB68:
 562              		.loc 1 150 0
 563              		.cfi_startproc
 564              		@ args = 0, pretend = 0, frame = 88
 565              		@ frame_needed = 0, uses_anonymous_args = 0
 566              	.LVL65:
 567 0000 2DE9F043 		push	{r4, r5, r6, r7, r8, r9, lr}
 568              	.LCFI8:
ARM GAS  /var/folders/dt/0wfd0knj7gs46m8vwfzktm600000gn/T//ccLj5n8M.s 			page 11


 569              		.cfi_def_cfa_offset 28
 570              		.cfi_offset 4, -28
 571              		.cfi_offset 5, -24
 572              		.cfi_offset 6, -20
 573              		.cfi_offset 7, -16
 574              		.cfi_offset 8, -12
 575              		.cfi_offset 9, -8
 576              		.cfi_offset 14, -4
 577              		.loc 1 158 0
 578 0004 5D4B     		ldr	r3, .L96
 579              		.loc 1 153 0
 580 0006 0668     		ldr	r6, [r0, #0]
 581              	.LVL66:
 582              		.loc 1 158 0
 583 0008 DB69     		ldr	r3, [r3, #28]
 584 000a 5D4A     		ldr	r2, .L96+4
 585              		.loc 1 154 0
 586 000c D0F80480 		ldr	r8, [r0, #4]
 587              	.LVL67:
 588              		.loc 1 150 0
 589 0010 97B0     		sub	sp, sp, #92
 590              	.LCFI9:
 591              		.cfi_def_cfa_offset 120
 592              		.loc 1 159 0
 593 0012 3046     		mov	r0, r6
 594              	.LVL68:
 595              		.loc 1 158 0
 596 0014 9A61     		str	r2, [r3, #24]
 597              		.loc 1 159 0
 598 0016 5B49     		ldr	r1, .L96+8
 599 0018 FFF7FEFF 		bl	chprintf
 600              	.LVL69:
 601              	.LBB40:
 602              	.LBB41:
 603              		.loc 1 72 0
 604 001c DFF88491 		ldr	r9, .L96+40
 605              	.L89:
 606              	.LBE41:
 607              	.LBE40:
 608              		.loc 1 161 0
 609 0020 3046     		mov	r0, r6
 610 0022 5949     		ldr	r1, .L96+12
 611 0024 FFF7FEFF 		bl	chprintf
 612              	.LVL70:
 613              		.loc 1 162 0
 614 0028 3046     		mov	r0, r6
 615 002a 06A9     		add	r1, sp, #24
 616 002c 4022     		movs	r2, #64
 617 002e FFF7FEFF 		bl	shellGetLine
 618              	.LVL71:
 619 0032 0446     		mov	r4, r0
 620 0034 0028     		cmp	r0, #0
 621 0036 2FD1     		bne	.L92
 622              		.loc 1 166 0
 623 0038 6946     		mov	r1, sp
 624 003a 06A8     		add	r0, sp, #24
 625 003c FFF7FEFF 		bl	_strtok.constprop.2
ARM GAS  /var/folders/dt/0wfd0knj7gs46m8vwfzktm600000gn/T//ccLj5n8M.s 			page 12


 626              	.LVL72:
 627              		.loc 1 169 0
 628 0040 6946     		mov	r1, sp
 629              		.loc 1 166 0
 630 0042 0746     		mov	r7, r0
 631              	.LVL73:
 632              		.loc 1 169 0
 633 0044 0020     		movs	r0, #0
 634              	.LVL74:
 635              		.loc 1 150 0
 636 0046 6D46     		mov	r5, sp
 637              		.loc 1 169 0
 638 0048 FFF7FEFF 		bl	_strtok.constprop.2
 639              	.LVL75:
 640 004c 50B1     		cbz	r0, .L93
 641              	.L50:
 642              		.loc 1 170 0
 643 004e 042C     		cmp	r4, #4
 644 0050 1BD0     		beq	.L94
 645              		.loc 1 175 0
 646 0052 45F8040F 		str	r0, [r5, #4]!
 647              		.loc 1 169 0
 648 0056 6946     		mov	r1, sp
 649 0058 0020     		movs	r0, #0
 650              	.LVL76:
 651              		.loc 1 175 0
 652 005a 0134     		adds	r4, r4, #1
 653              	.LVL77:
 654              		.loc 1 169 0
 655 005c FFF7FEFF 		bl	_strtok.constprop.2
 656              	.LVL78:
 657 0060 0028     		cmp	r0, #0
 658 0062 F4D1     		bne	.L50
 659              	.L93:
 660              		.loc 1 177 0
 661 0064 16AA     		add	r2, sp, #88
 662 0066 02EB8403 		add	r3, r2, r4, lsl #2
 663 006a 43F8540C 		str	r0, [r3, #-84]
 664              		.loc 1 178 0
 665 006e 002F     		cmp	r7, #0
 666 0070 D6D0     		beq	.L89
 667              		.loc 1 179 0
 668 0072 3846     		mov	r0, r7
 669              	.LVL79:
 670 0074 4549     		ldr	r1, .L96+16
 671 0076 FFF7FEFF 		bl	strcasecmp
 672              	.LVL80:
 673 007a F8B9     		cbnz	r0, .L51
 674              		.loc 1 180 0
 675 007c 84B1     		cbz	r4, .L46
 676              	.LVL81:
 677              	.LBB43:
 678              	.LBB44:
 679              		.loc 1 67 0
 680 007e 3046     		mov	r0, r6
 681 0080 4349     		ldr	r1, .L96+20
 682 0082 424A     		ldr	r2, .L96+16
ARM GAS  /var/folders/dt/0wfd0knj7gs46m8vwfzktm600000gn/T//ccLj5n8M.s 			page 13


 683 0084 FFF7FEFF 		bl	chprintf
 684              	.LVL82:
 685              	.LBE44:
 686              	.LBE43:
 687              		.loc 1 182 0
 688 0088 CAE7     		b	.L89
 689              	.LVL83:
 690              	.L94:
 691              		.loc 1 171 0
 692 008a 3046     		mov	r0, r6
 693              	.LVL84:
 694 008c 4149     		ldr	r1, .L96+24
 695 008e FFF7FEFF 		bl	chprintf
 696              	.LVL85:
 697              		.loc 1 177 0
 698 0092 0023     		movs	r3, #0
 699 0094 0593     		str	r3, [sp, #20]
 700 0096 C3E7     		b	.L89
 701              	.LVL86:
 702              	.L92:
 703              		.loc 1 163 0
 704 0098 3046     		mov	r0, r6
 705 009a 3F49     		ldr	r1, .L96+28
 706 009c FFF7FEFF 		bl	chprintf
 707              	.LVL87:
 708              	.L46:
 709              	.LBB45:
 710              		.loc 1 206 0
 711 00a0 2023     		movs	r3, #32
 712              	.LVL88:
 713              	@ 206 "../../os/various/shell.c" 1
 714 00a2 83F31188 		msr     BASEPRI, r3
 715              	@ 0 "" 2
 716              	.LVL89:
 717              		.thumb
 718              	.LBE45:
 719              		.loc 1 207 0
 720 00a6 0021     		movs	r1, #0
 721 00a8 3C48     		ldr	r0, .L96+32
 722 00aa FFF7FEFF 		bl	chEvtBroadcastFlagsI
 723              	.LVL90:
 724              		.loc 1 208 0
 725 00ae 0020     		movs	r0, #0
 726 00b0 FFF7FEFF 		bl	chThdExitS
 727              	.LVL91:
 728              		.loc 1 210 0
 729 00b4 0020     		movs	r0, #0
 730 00b6 17B0     		add	sp, sp, #92
 731 00b8 BDE8F083 		pop	{r4, r5, r6, r7, r8, r9, pc}
 732              	.LVL92:
 733              	.L51:
 734              		.loc 1 186 0
 735 00bc 3846     		mov	r0, r7
 736 00be 3849     		ldr	r1, .L96+36
 737 00c0 FFF7FEFF 		bl	strcasecmp
 738              	.LVL93:
 739 00c4 30B9     		cbnz	r0, .L95
ARM GAS  /var/folders/dt/0wfd0knj7gs46m8vwfzktm600000gn/T//ccLj5n8M.s 			page 14


 740              	.LBB46:
 741              	.LBB47:
 742              		.loc 1 67 0
 743 00c6 3046     		mov	r0, r6
 744              	.LBE47:
 745              	.LBE46:
 746              		.loc 1 187 0
 747 00c8 CCB1     		cbz	r4, .L56
 748              	.LVL94:
 749              	.LBB49:
 750              	.LBB48:
 751              		.loc 1 67 0
 752 00ca 3149     		ldr	r1, .L96+20
 753 00cc 344A     		ldr	r2, .L96+36
 754 00ce FFF7FEFF 		bl	chprintf
 755              	.LVL95:
 756              	.LBE48:
 757              	.LBE49:
 758              		.loc 1 189 0
 759 00d2 A5E7     		b	.L89
 760              	.LVL96:
 761              	.L95:
 762              	.LBB50:
 763              	.LBB51:
 764              		.loc 1 132 0
 765 00d4 D9F80000 		ldr	r0, [r9, #0]
 766 00d8 0028     		cmp	r0, #0
 767 00da 33D0     		beq	.L55
 768 00dc 314D     		ldr	r5, .L96+40
 769 00de 03E0     		b	.L64
 770              	.LVL97:
 771              	.L63:
 772 00e0 55F8080F 		ldr	r0, [r5, #8]!
 773              	.LVL98:
 774 00e4 0028     		cmp	r0, #0
 775 00e6 2DD0     		beq	.L55
 776              	.LVL99:
 777              	.L64:
 778              		.loc 1 133 0
 779 00e8 3946     		mov	r1, r7
 780 00ea FFF7FEFF 		bl	strcasecmp
 781              	.LVL100:
 782 00ee 0028     		cmp	r0, #0
 783 00f0 F6D1     		bne	.L63
 784              	.LVL101:
 785              	.L91:
 786              	.LBE51:
 787              	.LBE50:
 788              	.LBB52:
 789              	.LBB53:
 790              		.loc 1 134 0
 791 00f2 6B68     		ldr	r3, [r5, #4]
 792 00f4 3046     		mov	r0, r6
 793 00f6 2146     		mov	r1, r4
 794 00f8 01AA     		add	r2, sp, #4
 795 00fa 9847     		blx	r3
 796              	.LVL102:
ARM GAS  /var/folders/dt/0wfd0knj7gs46m8vwfzktm600000gn/T//ccLj5n8M.s 			page 15


 797 00fc 90E7     		b	.L89
 798              	.LVL103:
 799              	.L56:
 800              	.LBE53:
 801              	.LBE52:
 802              		.loc 1 191 0
 803 00fe 2A49     		ldr	r1, .L96+44
 804 0100 FFF7FEFF 		bl	chprintf
 805              	.LVL104:
 806              	.LBB55:
 807              	.LBB42:
 808              		.loc 1 72 0
 809 0104 D9F80020 		ldr	r2, [r9, #0]
 810 0108 264C     		ldr	r4, .L96+40
 811              	.LVL105:
 812 010a 3AB1     		cbz	r2, .L61
 813              	.LVL106:
 814              	.L60:
 815              		.loc 1 73 0
 816 010c 3046     		mov	r0, r6
 817 010e 2749     		ldr	r1, .L96+48
 818 0110 FFF7FEFF 		bl	chprintf
 819              	.LVL107:
 820              		.loc 1 72 0
 821 0114 54F8082F 		ldr	r2, [r4, #8]!
 822 0118 002A     		cmp	r2, #0
 823 011a F7D1     		bne	.L60
 824              	.L61:
 825              	.LBE42:
 826              	.LBE55:
 827              		.loc 1 193 0
 828 011c B8F1000F 		cmp	r8, #0
 829 0120 0BD0     		beq	.L59
 830              	.LVL108:
 831              	.LBB56:
 832              	.LBB57:
 833              		.loc 1 72 0
 834 0122 D8F80020 		ldr	r2, [r8, #0]
 835 0126 42B1     		cbz	r2, .L59
 836 0128 4446     		mov	r4, r8
 837              	.LVL109:
 838              	.L62:
 839              		.loc 1 73 0
 840 012a 3046     		mov	r0, r6
 841 012c 1F49     		ldr	r1, .L96+48
 842 012e FFF7FEFF 		bl	chprintf
 843              	.LVL110:
 844              		.loc 1 72 0
 845 0132 54F8082F 		ldr	r2, [r4, #8]!
 846 0136 002A     		cmp	r2, #0
 847 0138 F7D1     		bne	.L62
 848              	.L59:
 849              	.LBE57:
 850              	.LBE56:
 851              		.loc 1 195 0
 852 013a 3046     		mov	r0, r6
 853 013c 1C49     		ldr	r1, .L96+52
ARM GAS  /var/folders/dt/0wfd0knj7gs46m8vwfzktm600000gn/T//ccLj5n8M.s 			page 16


 854 013e FFF7FEFF 		bl	chprintf
 855              	.LVL111:
 856 0142 6DE7     		b	.L89
 857              	.LVL112:
 858              	.L55:
 859              		.loc 1 197 0
 860 0144 B8F1000F 		cmp	r8, #0
 861 0148 0DD0     		beq	.L67
 862              	.LVL113:
 863              	.LBB58:
 864              	.LBB54:
 865              		.loc 1 132 0
 866 014a D8F80000 		ldr	r0, [r8, #0]
 867 014e 50B1     		cbz	r0, .L67
 868 0150 4546     		mov	r5, r8
 869 0152 02E0     		b	.L66
 870              	.LVL114:
 871              	.L65:
 872 0154 55F8080F 		ldr	r0, [r5, #8]!
 873              	.LVL115:
 874 0158 28B1     		cbz	r0, .L67
 875              	.LVL116:
 876              	.L66:
 877              		.loc 1 133 0
 878 015a 3946     		mov	r1, r7
 879 015c FFF7FEFF 		bl	strcasecmp
 880              	.LVL117:
 881 0160 0028     		cmp	r0, #0
 882 0162 F7D1     		bne	.L65
 883 0164 C5E7     		b	.L91
 884              	.LVL118:
 885              	.L67:
 886              	.LBE54:
 887              	.LBE58:
 888              		.loc 1 199 0
 889 0166 3046     		mov	r0, r6
 890 0168 1249     		ldr	r1, .L96+56
 891 016a 3A46     		mov	r2, r7
 892 016c FFF7FEFF 		bl	chprintf
 893              	.LVL119:
 894              		.loc 1 200 0
 895 0170 3046     		mov	r0, r6
 896 0172 1149     		ldr	r1, .L96+60
 897 0174 FFF7FEFF 		bl	chprintf
 898              	.LVL120:
 899 0178 52E7     		b	.L89
 900              	.L97:
 901 017a 00BF     		.align	2
 902              	.L96:
 903 017c 00000000 		.word	rlist
 904 0180 6C010000 		.word	.LC25
 905 0184 74010000 		.word	.LC26
 906 0188 8C010000 		.word	.LC27
 907 018c B8010000 		.word	.LC30
 908 0190 00000000 		.word	.LC0
 909 0194 A0010000 		.word	.LC29
 910 0198 94010000 		.word	.LC28
ARM GAS  /var/folders/dt/0wfd0knj7gs46m8vwfzktm600000gn/T//ccLj5n8M.s 			page 17


 911 019c 00000000 		.word	.LANCHOR1
 912 01a0 C0010000 		.word	.LC31
 913 01a4 00000000 		.word	.LANCHOR2
 914 01a8 C8010000 		.word	.LC32
 915 01ac E0010000 		.word	.LC33
 916 01b0 68010000 		.word	.LC24
 917 01b4 E4010000 		.word	.LC34
 918 01b8 E8010000 		.word	.LC35
 919              		.cfi_endproc
 920              	.LFE68:
 921              		.size	shell_thread, .-shell_thread
 922              		.global	shell_terminated
 923 01bc AFF30080 		.section	.rodata
 924              		.align	2
 925              		.set	.LANCHOR0,. + 0
 926              	.LC22:
 927 0000 20003900 		.ascii	" \0009\000"
 928              		.section	.data.local_commands,"aw",%progbits
 929              		.align	2
 930              		.set	.LANCHOR2,. + 0
 931              		.type	local_commands, %object
 932              		.size	local_commands, 24
 933              	local_commands:
 934 0000 1C000000 		.word	.LC3
 935 0004 00000000 		.word	cmd_info
 936 0008 0C000000 		.word	.LC1
 937 000c 00000000 		.word	cmd_systime
 938 0010 00000000 		.word	0
 939 0014 00000000 		.word	0
 940              		.section	.rodata.str1.4,"aMS",%progbits,1
 941              		.align	2
 942              	.LC0:
 943 0000 55736167 		.ascii	"Usage: %s\015\012\000"
 943      653A2025 
 943      730D0A00 
 944              	.LC1:
 945 000c 73797374 		.ascii	"systime\000"
 945      696D6500 
 946              	.LC2:
 947 0014 256C750D 		.ascii	"%lu\015\012\000"
 947      0A00
 948 001a 0000     		.space	2
 949              	.LC3:
 950 001c 696E666F 		.ascii	"info\000"
 950      00
 951 0021 000000   		.space	3
 952              	.LC4:
 953 0024 4B65726E 		.ascii	"Kernel:       %s\015\012\000"
 953      656C3A20 
 953      20202020 
 953      20202573 
 953      0D0A00
 954 0037 00       		.space	1
 955              	.LC5:
 956 0038 322E342E 		.ascii	"2.4.3\000"
 956      3300
 957 003e 0000     		.space	2
ARM GAS  /var/folders/dt/0wfd0knj7gs46m8vwfzktm600000gn/T//ccLj5n8M.s 			page 18


 958              	.LC6:
 959 0040 436F6D70 		.ascii	"Compiler:     %s\015\012\000"
 959      696C6572 
 959      3A202020 
 959      20202573 
 959      0D0A00
 960 0053 00       		.space	1
 961              	.LC7:
 962 0054 47434320 		.ascii	"GCC 4.7.2\000"
 962      342E372E 
 962      3200
 963 005e 0000     		.space	2
 964              	.LC8:
 965 0060 41726368 		.ascii	"Architecture: %s\015\012\000"
 965      69746563 
 965      74757265 
 965      3A202573 
 965      0D0A00
 966 0073 00       		.space	1
 967              	.LC9:
 968 0074 41524D76 		.ascii	"ARMv7-M\000"
 968      372D4D00 
 969              	.LC10:
 970 007c 436F7265 		.ascii	"Core Variant: %s\015\012\000"
 970      20566172 
 970      69616E74 
 970      3A202573 
 970      0D0A00
 971 008f 00       		.space	1
 972              	.LC11:
 973 0090 436F7274 		.ascii	"Cortex-M3\000"
 973      65782D4D 
 973      3300
 974 009a 0000     		.space	2
 975              	.LC12:
 976 009c 506F7274 		.ascii	"Port Info:    %s\015\012\000"
 976      20496E66 
 976      6F3A2020 
 976      20202573 
 976      0D0A00
 977 00af 00       		.space	1
 978              	.LC13:
 979 00b0 41647661 		.ascii	"Advanced kernel mode\000"
 979      6E636564 
 979      206B6572 
 979      6E656C20 
 979      6D6F6465 
 980 00c5 000000   		.space	3
 981              	.LC14:
 982 00c8 506C6174 		.ascii	"Platform:     %s\015\012\000"
 982      666F726D 
 982      3A202020 
 982      20202573 
 982      0D0A00
 983 00db 00       		.space	1
 984              	.LC15:
 985 00dc 53544D33 		.ascii	"STM32F1 Performance Line High Density\000"
ARM GAS  /var/folders/dt/0wfd0knj7gs46m8vwfzktm600000gn/T//ccLj5n8M.s 			page 19


 985      32463120 
 985      50657266 
 985      6F726D61 
 985      6E636520 
 986 0102 0000     		.space	2
 987              	.LC16:
 988 0104 426F6172 		.ascii	"Board:        %s\015\012\000"
 988      643A2020 
 988      20202020 
 988      20202573 
 988      0D0A00
 989 0117 00       		.space	1
 990              	.LC17:
 991 0118 4D4C4142 		.ascii	"MLAB STM32F10xRxT01A\000"
 991      2053544D 
 991      33324631 
 991      30785278 
 991      54303141 
 992 012d 000000   		.space	3
 993              	.LC18:
 994 0130 4275696C 		.ascii	"Build time:   %s%s%s\015\012\000"
 994      64207469 
 994      6D653A20 
 994      20202573 
 994      25732573 
 995 0147 00       		.space	1
 996              	.LC19:
 997 0148 41707220 		.ascii	"Apr 24 2013\000"
 997      32342032 
 997      30313300 
 998              	.LC20:
 999 0154 202D2000 		.ascii	" - \000"
 1000              	.LC21:
 1001 0158 31343A32 		.ascii	"14:23:47\000"
 1001      333A3437 
 1001      00
 1002 0161 000000   		.space	3
 1003              	.LC23:
 1004 0164 5E4400   		.ascii	"^D\000"
 1005 0167 00       		.space	1
 1006              	.LC24:
 1007 0168 0D0A00   		.ascii	"\015\012\000"
 1008 016b 00       		.space	1
 1009              	.LC25:
 1010 016c 7368656C 		.ascii	"shell\000"
 1010      6C00
 1011 0172 0000     		.space	2
 1012              	.LC26:
 1013 0174 0D0A4368 		.ascii	"\015\012ChibiOS/RT Shell\015\012\000"
 1013      6962694F 
 1013      532F5254 
 1013      20536865 
 1013      6C6C0D0A 
 1014 0189 000000   		.space	3
 1015              	.LC27:
 1016 018c 63683E20 		.ascii	"ch> \000"
 1016      00
ARM GAS  /var/folders/dt/0wfd0knj7gs46m8vwfzktm600000gn/T//ccLj5n8M.s 			page 20


 1017 0191 000000   		.space	3
 1018              	.LC28:
 1019 0194 0D0A6C6F 		.ascii	"\015\012logout\000"
 1019      676F7574 
 1019      00
 1020 019d 000000   		.space	3
 1021              	.LC29:
 1022 01a0 746F6F20 		.ascii	"too many arguments\015\012\000"
 1022      6D616E79 
 1022      20617267 
 1022      756D656E 
 1022      74730D0A 
 1023 01b5 000000   		.space	3
 1024              	.LC30:
 1025 01b8 65786974 		.ascii	"exit\000"
 1025      00
 1026 01bd 000000   		.space	3
 1027              	.LC31:
 1028 01c0 68656C70 		.ascii	"help\000"
 1028      00
 1029 01c5 000000   		.space	3
 1030              	.LC32:
 1031 01c8 436F6D6D 		.ascii	"Commands: help exit \000"
 1031      616E6473 
 1031      3A206865 
 1031      6C702065 
 1031      78697420 
 1032 01dd 000000   		.space	3
 1033              	.LC33:
 1034 01e0 25732000 		.ascii	"%s \000"
 1035              	.LC34:
 1036 01e4 257300   		.ascii	"%s\000"
 1037 01e7 00       		.space	1
 1038              	.LC35:
 1039 01e8 203F0D0A 		.ascii	" ?\015\012\000"
 1039      00
 1040 01ed 000000   		.section	.bss.shell_terminated,"aw",%nobits
 1041              		.align	2
 1042              		.set	.LANCHOR1,. + 0
 1043              		.type	shell_terminated, %object
 1044              		.size	shell_terminated, 4
 1045              	shell_terminated:
 1046 0000 00000000 		.space	4
 1047              		.text
 1048              	.Letext0:
 1049              		.file 2 "/Users/toxygen/Applications/yagarto-4.7.2/bin/../lib/gcc/arm-none-eabi/4.7.2/include/stdd
 1050              		.file 3 "/Users/toxygen/Applications/yagarto-4.7.2/bin/../lib/gcc/arm-none-eabi/4.7.2/../../../../
 1051              		.file 4 "../../os/ports/GCC/ARMCMx/chtypes.h"
 1052              		.file 5 "../../os/kernel/include/chlists.h"
 1053              		.file 6 "../../os/kernel/include/chthreads.h"
 1054              		.file 7 "../../os/ports/GCC/ARMCMx/chcore_v7m.h"
 1055              		.file 8 "../../os/kernel/include/chvt.h"
 1056              		.file 9 "../../os/kernel/include/chschd.h"
 1057              		.file 10 "../../os/kernel/include/chmtx.h"
 1058              		.file 11 "../../os/kernel/include/chevents.h"
 1059              		.file 12 "../../os/kernel/include/chmemcore.h"
 1060              		.file 13 "../../os/kernel/include/chheap.h"
ARM GAS  /var/folders/dt/0wfd0knj7gs46m8vwfzktm600000gn/T//ccLj5n8M.s 			page 21


 1061              		.file 14 "../../os/kernel/include/chioch.h"
 1062              		.file 15 "../../os/various/shell.h"
 1063              		.file 16 "../../os/ports/common/ARMCMx/CMSIS/include/core_cm3.h"
 1064              		.file 17 "/Users/toxygen/Applications/yagarto-4.7.2/bin/../lib/gcc/arm-none-eabi/4.7.2/../../../..
 1065              		.file 18 "../../os/kernel/include/chdynamic.h"
 1066              		.file 19 "../../os/various/chprintf.h"
 1067              		.file 20 "<built-in>"