ARM GAS  /var/folders/dt/0wfd0knj7gs46m8vwfzktm600000gn/T//ccGwj6lP.s 			page 1


   1              		.syntax unified
   2              		.cpu cortex-m3
   3              		.fpu softvfp
   4              		.eabi_attribute 20, 1
   5              		.eabi_attribute 21, 1
   6              		.eabi_attribute 23, 3
   7              		.eabi_attribute 24, 1
   8              		.eabi_attribute 25, 1
   9              		.eabi_attribute 26, 1
  10              		.eabi_attribute 30, 2
  11              		.eabi_attribute 34, 1
  12              		.eabi_attribute 18, 4
  13              		.thumb
  14              		.file	"syscalls.c"
  15              		.text
  16              	.Ltext0:
  17              		.cfi_sections	.debug_frame
  18              		.section	.text._read_r,"ax",%progbits
  19              		.align	2
  20              		.p2align 4,,15
  21              		.global	_read_r
  22              		.thumb
  23              		.thumb_func
  24              		.type	_read_r, %function
  25              	_read_r:
  26              	.LFB7:
  27              		.file 1 "../../os/various/syscalls.c"
  28              		.loc 1 82 0
  29              		.cfi_startproc
  30              		@ args = 0, pretend = 0, frame = 0
  31              		@ frame_needed = 0, uses_anonymous_args = 0
  32              		@ link register save eliminated.
  33              	.LVL0:
  34              		.loc 1 95 0
  35 0000 1623     		movs	r3, #22
  36              	.LVL1:
  37 0002 0360     		str	r3, [r0, #0]
  38              		.loc 1 98 0
  39 0004 4FF0FF30 		mov	r0, #-1
  40              	.LVL2:
  41 0008 7047     		bx	lr
  42              		.cfi_endproc
  43              	.LFE7:
  44              		.size	_read_r, .-_read_r
  45 000a 00BFAFF3 		.section	.text._lseek_r,"ax",%progbits
  45      0080
  46              		.align	2
  47              		.p2align 4,,15
  48              		.global	_lseek_r
  49              		.thumb
  50              		.thumb_func
  51              		.type	_lseek_r, %function
  52              	_lseek_r:
  53              	.LFB8:
  54              		.loc 1 103 0
  55              		.cfi_startproc
  56              		@ args = 0, pretend = 0, frame = 0
ARM GAS  /var/folders/dt/0wfd0knj7gs46m8vwfzktm600000gn/T//ccGwj6lP.s 			page 2


  57              		@ frame_needed = 0, uses_anonymous_args = 0
  58              		@ link register save eliminated.
  59              	.LVL3:
  60              		.loc 1 110 0
  61 0000 0020     		movs	r0, #0
  62              	.LVL4:
  63 0002 7047     		bx	lr
  64              		.cfi_endproc
  65              	.LFE8:
  66              		.size	_lseek_r, .-_lseek_r
  67 0004 AFF30080 		.section	.text._write_r,"ax",%progbits
  67      AFF30080 
  67      AFF30080 
  68              		.align	2
  69              		.p2align 4,,15
  70              		.global	_write_r
  71              		.thumb
  72              		.thumb_func
  73              		.type	_write_r, %function
  74              	_write_r:
  75              	.LFB9:
  76              		.loc 1 115 0
  77              		.cfi_startproc
  78              		@ args = 0, pretend = 0, frame = 0
  79              		@ frame_needed = 0, uses_anonymous_args = 0
  80              		@ link register save eliminated.
  81              	.LVL5:
  82              		.loc 1 127 0
  83 0000 1846     		mov	r0, r3
  84              	.LVL6:
  85 0002 7047     		bx	lr
  86              		.cfi_endproc
  87              	.LFE9:
  88              		.size	_write_r, .-_write_r
  89 0004 AFF30080 		.section	.text._close_r,"ax",%progbits
  89      AFF30080 
  89      AFF30080 
  90              		.align	2
  91              		.p2align 4,,15
  92              		.global	_close_r
  93              		.thumb
  94              		.thumb_func
  95              		.type	_close_r, %function
  96              	_close_r:
  97              	.LFB10:
  98              		.loc 1 132 0
  99              		.cfi_startproc
 100              		@ args = 0, pretend = 0, frame = 0
 101              		@ frame_needed = 0, uses_anonymous_args = 0
 102              		@ link register save eliminated.
 103              	.LVL7:
 104              		.loc 1 137 0
 105 0000 0020     		movs	r0, #0
 106              	.LVL8:
 107 0002 7047     		bx	lr
 108              		.cfi_endproc
 109              	.LFE10:
ARM GAS  /var/folders/dt/0wfd0knj7gs46m8vwfzktm600000gn/T//ccGwj6lP.s 			page 3


 110              		.size	_close_r, .-_close_r
 111 0004 AFF30080 		.section	.text._sbrk_r,"ax",%progbits
 111      AFF30080 
 111      AFF30080 
 112              		.align	2
 113              		.p2align 4,,15
 114              		.global	_sbrk_r
 115              		.thumb
 116              		.thumb_func
 117              		.type	_sbrk_r, %function
 118              	_sbrk_r:
 119              	.LFB11:
 120              		.loc 1 142 0
 121              		.cfi_startproc
 122              		@ args = 0, pretend = 0, frame = 0
 123              		@ frame_needed = 0, uses_anonymous_args = 0
 124              	.LVL9:
 125 0000 10B5     		push	{r4, lr}
 126              	.LCFI0:
 127              		.cfi_def_cfa_offset 8
 128              		.cfi_offset 4, -8
 129              		.cfi_offset 14, -4
 130              		.loc 1 142 0
 131 0002 0446     		mov	r4, r0
 132              		.loc 1 149 0
 133 0004 0846     		mov	r0, r1
 134              	.LVL10:
 135 0006 FFF7FEFF 		bl	chCoreAlloc
 136              	.LVL11:
 137              		.loc 1 150 0
 138 000a 00B1     		cbz	r0, .L8
 139              		.loc 1 159 0
 140 000c 10BD     		pop	{r4, pc}
 141              	.L8:
 142              		.loc 1 151 0
 143 000e 0C23     		movs	r3, #12
 144 0010 2360     		str	r3, [r4, #0]
 145              		.loc 1 152 0
 146 0012 4FF0FF30 		mov	r0, #-1
 147              	.LVL12:
 148              		.loc 1 159 0
 149 0016 10BD     		pop	{r4, pc}
 150              		.cfi_endproc
 151              	.LFE11:
 152              		.size	_sbrk_r, .-_sbrk_r
 153 0018 AFF30080 		.section	.text._fstat_r,"ax",%progbits
 153      AFF30080 
 154              		.align	2
 155              		.p2align 4,,15
 156              		.global	_fstat_r
 157              		.thumb
 158              		.thumb_func
 159              		.type	_fstat_r, %function
 160              	_fstat_r:
 161              	.LFB12:
 162              		.loc 1 164 0
 163              		.cfi_startproc
ARM GAS  /var/folders/dt/0wfd0knj7gs46m8vwfzktm600000gn/T//ccGwj6lP.s 			page 4


 164              		@ args = 0, pretend = 0, frame = 0
 165              		@ frame_needed = 0, uses_anonymous_args = 0
 166              	.LVL13:
 167 0000 10B5     		push	{r4, lr}
 168              	.LCFI1:
 169              		.cfi_def_cfa_offset 8
 170              		.cfi_offset 4, -8
 171              		.cfi_offset 14, -4
 172              		.loc 1 168 0
 173 0002 1046     		mov	r0, r2
 174              	.LVL14:
 175              		.loc 1 164 0
 176 0004 1446     		mov	r4, r2
 177              		.loc 1 168 0
 178 0006 0021     		movs	r1, #0
 179              	.LVL15:
 180 0008 3C22     		movs	r2, #60
 181              	.LVL16:
 182 000a FFF7FEFF 		bl	memset
 183              	.LVL17:
 184              		.loc 1 169 0
 185 000e 4FF40053 		mov	r3, #8192
 186 0012 6360     		str	r3, [r4, #4]
 187              		.loc 1 171 0
 188 0014 0020     		movs	r0, #0
 189 0016 10BD     		pop	{r4, pc}
 190              		.cfi_endproc
 191              	.LFE12:
 192              		.size	_fstat_r, .-_fstat_r
 193 0018 AFF30080 		.section	.text._isatty_r,"ax",%progbits
 193      AFF30080 
 194              		.align	2
 195              		.p2align 4,,15
 196              		.global	_isatty_r
 197              		.thumb
 198              		.thumb_func
 199              		.type	_isatty_r, %function
 200              	_isatty_r:
 201              	.LFB13:
 202              		.loc 1 176 0
 203              		.cfi_startproc
 204              		@ args = 0, pretend = 0, frame = 0
 205              		@ frame_needed = 0, uses_anonymous_args = 0
 206              		@ link register save eliminated.
 207              	.LVL18:
 208              		.loc 1 181 0
 209 0000 0120     		movs	r0, #1
 210              	.LVL19:
 211 0002 7047     		bx	lr
 212              		.cfi_endproc
 213              	.LFE13:
 214              		.size	_isatty_r, .-_isatty_r
 215 0004 AFF30080 		.text
 215      AFF30080 
 215      AFF30080 
 216              	.Letext0:
 217              		.file 2 "/Users/toxygen/Applications/yagarto-4.7.2/bin/../lib/gcc/arm-none-eabi/4.7.2/include/stdd
ARM GAS  /var/folders/dt/0wfd0knj7gs46m8vwfzktm600000gn/T//ccGwj6lP.s 			page 5


 218              		.file 3 "/Users/toxygen/Applications/yagarto-4.7.2/bin/../lib/gcc/arm-none-eabi/4.7.2/../../../../
 219              		.file 4 "/Users/toxygen/Applications/yagarto-4.7.2/bin/../lib/gcc/arm-none-eabi/4.7.2/../../../../
 220              		.file 5 "/Users/toxygen/Applications/yagarto-4.7.2/bin/../lib/gcc/arm-none-eabi/4.7.2/../../../../
 221              		.file 6 "/Users/toxygen/Applications/yagarto-4.7.2/bin/../lib/gcc/arm-none-eabi/4.7.2/../../../../
 222              		.file 7 "/Users/toxygen/Applications/yagarto-4.7.2/bin/../lib/gcc/arm-none-eabi/4.7.2/../../../../
 223              		.file 8 "../../os/kernel/include/chmemcore.h"
 224              		.section	.debug_info,"",%progbits
 225              	.Ldebug_info0:
 226 0000 350D0000 		.4byte	0xd35
 227 0004 0200     		.2byte	0x2
 228 0006 00000000 		.4byte	.Ldebug_abbrev0
 229 000a 04       		.byte	0x4
 230 000b 01       		.uleb128 0x1
 231 000c E4000000 		.4byte	.LASF157
 232 0010 01       		.byte	0x1
 233 0011 08010000 		.4byte	.LASF158
 234 0015 E5040000 		.4byte	.LASF159
 235 0019 00000000 		.4byte	.Ldebug_ranges0+0
 236 001d 00000000 		.4byte	0
 237 0021 00000000 		.4byte	0
 238 0025 00000000 		.4byte	.Ldebug_line0
 239 0029 02       		.uleb128 0x2
 240 002a A8010000 		.4byte	.LASF7
 241 002e 02       		.byte	0x2
 242 002f D5       		.byte	0xd5
 243 0030 34000000 		.4byte	0x34
 244 0034 03       		.uleb128 0x3
 245 0035 04       		.byte	0x4
 246 0036 07       		.byte	0x7
 247 0037 40000000 		.4byte	.LASF0
 248 003b 03       		.uleb128 0x3
 249 003c 01       		.byte	0x1
 250 003d 06       		.byte	0x6
 251 003e 67050000 		.4byte	.LASF1
 252 0042 03       		.uleb128 0x3
 253 0043 01       		.byte	0x1
 254 0044 08       		.byte	0x8
 255 0045 B6040000 		.4byte	.LASF2
 256 0049 03       		.uleb128 0x3
 257 004a 02       		.byte	0x2
 258 004b 05       		.byte	0x5
 259 004c BF030000 		.4byte	.LASF3
 260 0050 03       		.uleb128 0x3
 261 0051 02       		.byte	0x2
 262 0052 07       		.byte	0x7
 263 0053 87050000 		.4byte	.LASF4
 264 0057 04       		.uleb128 0x4
 265 0058 04       		.byte	0x4
 266 0059 05       		.byte	0x5
 267 005a 696E7400 		.ascii	"int\000"
 268 005e 03       		.uleb128 0x3
 269 005f 08       		.byte	0x8
 270 0060 05       		.byte	0x5
 271 0061 C5020000 		.4byte	.LASF5
 272 0065 03       		.uleb128 0x3
 273 0066 08       		.byte	0x8
 274 0067 07       		.byte	0x7
ARM GAS  /var/folders/dt/0wfd0knj7gs46m8vwfzktm600000gn/T//ccGwj6lP.s 			page 6


 275 0068 36010000 		.4byte	.LASF6
 276 006c 02       		.uleb128 0x2
 277 006d 6F000000 		.4byte	.LASF8
 278 0071 03       		.byte	0x3
 279 0072 07       		.byte	0x7
 280 0073 57000000 		.4byte	0x57
 281 0077 02       		.uleb128 0x2
 282 0078 A9050000 		.4byte	.LASF9
 283 007c 04       		.byte	0x4
 284 007d 10       		.byte	0x10
 285 007e 82000000 		.4byte	0x82
 286 0082 03       		.uleb128 0x3
 287 0083 04       		.byte	0x4
 288 0084 05       		.byte	0x5
 289 0085 C9030000 		.4byte	.LASF10
 290 0089 02       		.uleb128 0x2
 291 008a EF020000 		.4byte	.LASF11
 292 008e 04       		.byte	0x4
 293 008f 18       		.byte	0x18
 294 0090 49000000 		.4byte	0x49
 295 0094 02       		.uleb128 0x2
 296 0095 13040000 		.4byte	.LASF12
 297 0099 04       		.byte	0x4
 298 009a 1D       		.byte	0x1d
 299 009b 50000000 		.4byte	0x50
 300 009f 02       		.uleb128 0x2
 301 00a0 99030000 		.4byte	.LASF13
 302 00a4 04       		.byte	0x4
 303 00a5 20       		.byte	0x20
 304 00a6 50000000 		.4byte	0x50
 305 00aa 02       		.uleb128 0x2
 306 00ab 9D000000 		.4byte	.LASF14
 307 00af 04       		.byte	0x4
 308 00b0 2C       		.byte	0x2c
 309 00b1 82000000 		.4byte	0x82
 310 00b5 05       		.uleb128 0x5
 311 00b6 93040000 		.4byte	.LASF15
 312 00ba 02       		.byte	0x2
 313 00bb 6201     		.2byte	0x162
 314 00bd 34000000 		.4byte	0x34
 315 00c1 06       		.uleb128 0x6
 316 00c2 04       		.byte	0x4
 317 00c3 04       		.byte	0x4
 318 00c4 46       		.byte	0x46
 319 00c5 E0000000 		.4byte	0xe0
 320 00c9 07       		.uleb128 0x7
 321 00ca 83020000 		.4byte	.LASF16
 322 00ce 04       		.byte	0x4
 323 00cf 48       		.byte	0x48
 324 00d0 B5000000 		.4byte	0xb5
 325 00d4 07       		.uleb128 0x7
 326 00d5 F3030000 		.4byte	.LASF17
 327 00d9 04       		.byte	0x4
 328 00da 49       		.byte	0x49
 329 00db E0000000 		.4byte	0xe0
 330 00df 00       		.byte	0
 331 00e0 08       		.uleb128 0x8
ARM GAS  /var/folders/dt/0wfd0knj7gs46m8vwfzktm600000gn/T//ccGwj6lP.s 			page 7


 332 00e1 42000000 		.4byte	0x42
 333 00e5 F0000000 		.4byte	0xf0
 334 00e9 09       		.uleb128 0x9
 335 00ea F0000000 		.4byte	0xf0
 336 00ee 03       		.byte	0x3
 337 00ef 00       		.byte	0
 338 00f0 03       		.uleb128 0x3
 339 00f1 04       		.byte	0x4
 340 00f2 07       		.byte	0x7
 341 00f3 71040000 		.4byte	.LASF18
 342 00f7 0A       		.uleb128 0xa
 343 00f8 08       		.byte	0x8
 344 00f9 04       		.byte	0x4
 345 00fa 43       		.byte	0x43
 346 00fb 1C010000 		.4byte	0x11c
 347 00ff 0B       		.uleb128 0xb
 348 0100 F0000000 		.4byte	.LASF19
 349 0104 04       		.byte	0x4
 350 0105 45       		.byte	0x45
 351 0106 57000000 		.4byte	0x57
 352 010a 02       		.byte	0x2
 353 010b 23       		.byte	0x23
 354 010c 00       		.uleb128 0
 355 010d 0B       		.uleb128 0xb
 356 010e 09020000 		.4byte	.LASF20
 357 0112 04       		.byte	0x4
 358 0113 4A       		.byte	0x4a
 359 0114 C1000000 		.4byte	0xc1
 360 0118 02       		.byte	0x2
 361 0119 23       		.byte	0x23
 362 011a 04       		.uleb128 0x4
 363 011b 00       		.byte	0
 364 011c 02       		.uleb128 0x2
 365 011d 37030000 		.4byte	.LASF21
 366 0121 04       		.byte	0x4
 367 0122 4B       		.byte	0x4b
 368 0123 F7000000 		.4byte	0xf7
 369 0127 02       		.uleb128 0x2
 370 0128 6C020000 		.4byte	.LASF22
 371 012c 04       		.byte	0x4
 372 012d 4F       		.byte	0x4f
 373 012e 6C000000 		.4byte	0x6c
 374 0132 0C       		.uleb128 0xc
 375 0133 04       		.byte	0x4
 376 0134 02       		.uleb128 0x2
 377 0135 FD020000 		.4byte	.LASF23
 378 0139 05       		.byte	0x5
 379 013a 15       		.byte	0x15
 380 013b 3F010000 		.4byte	0x13f
 381 013f 03       		.uleb128 0x3
 382 0140 04       		.byte	0x4
 383 0141 07       		.byte	0x7
 384 0142 7A040000 		.4byte	.LASF24
 385 0146 0D       		.uleb128 0xd
 386 0147 B2000000 		.4byte	.LASF29
 387 014b 18       		.byte	0x18
 388 014c 05       		.byte	0x5
ARM GAS  /var/folders/dt/0wfd0knj7gs46m8vwfzktm600000gn/T//ccGwj6lP.s 			page 8


 389 014d 2C       		.byte	0x2c
 390 014e A5010000 		.4byte	0x1a5
 391 0152 0B       		.uleb128 0xb
 392 0153 D3010000 		.4byte	.LASF25
 393 0157 05       		.byte	0x5
 394 0158 2E       		.byte	0x2e
 395 0159 A5010000 		.4byte	0x1a5
 396 015d 02       		.byte	0x2
 397 015e 23       		.byte	0x23
 398 015f 00       		.uleb128 0
 399 0160 0E       		.uleb128 0xe
 400 0161 5F6B00   		.ascii	"_k\000"
 401 0164 05       		.byte	0x5
 402 0165 2F       		.byte	0x2f
 403 0166 57000000 		.4byte	0x57
 404 016a 02       		.byte	0x2
 405 016b 23       		.byte	0x23
 406 016c 04       		.uleb128 0x4
 407 016d 0B       		.uleb128 0xb
 408 016e 31040000 		.4byte	.LASF26
 409 0172 05       		.byte	0x5
 410 0173 2F       		.byte	0x2f
 411 0174 57000000 		.4byte	0x57
 412 0178 02       		.byte	0x2
 413 0179 23       		.byte	0x23
 414 017a 08       		.uleb128 0x8
 415 017b 0B       		.uleb128 0xb
 416 017c D7030000 		.4byte	.LASF27
 417 0180 05       		.byte	0x5
 418 0181 2F       		.byte	0x2f
 419 0182 57000000 		.4byte	0x57
 420 0186 02       		.byte	0x2
 421 0187 23       		.byte	0x23
 422 0188 0C       		.uleb128 0xc
 423 0189 0B       		.uleb128 0xb
 424 018a 6C010000 		.4byte	.LASF28
 425 018e 05       		.byte	0x5
 426 018f 2F       		.byte	0x2f
 427 0190 57000000 		.4byte	0x57
 428 0194 02       		.byte	0x2
 429 0195 23       		.byte	0x23
 430 0196 10       		.uleb128 0x10
 431 0197 0E       		.uleb128 0xe
 432 0198 5F7800   		.ascii	"_x\000"
 433 019b 05       		.byte	0x5
 434 019c 30       		.byte	0x30
 435 019d AB010000 		.4byte	0x1ab
 436 01a1 02       		.byte	0x2
 437 01a2 23       		.byte	0x23
 438 01a3 14       		.uleb128 0x14
 439 01a4 00       		.byte	0
 440 01a5 0F       		.uleb128 0xf
 441 01a6 04       		.byte	0x4
 442 01a7 46010000 		.4byte	0x146
 443 01ab 08       		.uleb128 0x8
 444 01ac 34010000 		.4byte	0x134
 445 01b0 BB010000 		.4byte	0x1bb
ARM GAS  /var/folders/dt/0wfd0knj7gs46m8vwfzktm600000gn/T//ccGwj6lP.s 			page 9


 446 01b4 09       		.uleb128 0x9
 447 01b5 F0000000 		.4byte	0xf0
 448 01b9 00       		.byte	0
 449 01ba 00       		.byte	0
 450 01bb 0D       		.uleb128 0xd
 451 01bc 66040000 		.4byte	.LASF30
 452 01c0 24       		.byte	0x24
 453 01c1 05       		.byte	0x5
 454 01c2 34       		.byte	0x34
 455 01c3 46020000 		.4byte	0x246
 456 01c7 0B       		.uleb128 0xb
 457 01c8 AF010000 		.4byte	.LASF31
 458 01cc 05       		.byte	0x5
 459 01cd 36       		.byte	0x36
 460 01ce 57000000 		.4byte	0x57
 461 01d2 02       		.byte	0x2
 462 01d3 23       		.byte	0x23
 463 01d4 00       		.uleb128 0
 464 01d5 0B       		.uleb128 0xb
 465 01d6 F8000000 		.4byte	.LASF32
 466 01da 05       		.byte	0x5
 467 01db 37       		.byte	0x37
 468 01dc 57000000 		.4byte	0x57
 469 01e0 02       		.byte	0x2
 470 01e1 23       		.byte	0x23
 471 01e2 04       		.uleb128 0x4
 472 01e3 0B       		.uleb128 0xb
 473 01e4 D2000000 		.4byte	.LASF33
 474 01e8 05       		.byte	0x5
 475 01e9 38       		.byte	0x38
 476 01ea 57000000 		.4byte	0x57
 477 01ee 02       		.byte	0x2
 478 01ef 23       		.byte	0x23
 479 01f0 08       		.uleb128 0x8
 480 01f1 0B       		.uleb128 0xb
 481 01f2 39020000 		.4byte	.LASF34
 482 01f6 05       		.byte	0x5
 483 01f7 39       		.byte	0x39
 484 01f8 57000000 		.4byte	0x57
 485 01fc 02       		.byte	0x2
 486 01fd 23       		.byte	0x23
 487 01fe 0C       		.uleb128 0xc
 488 01ff 0B       		.uleb128 0xb
 489 0200 87030000 		.4byte	.LASF35
 490 0204 05       		.byte	0x5
 491 0205 3A       		.byte	0x3a
 492 0206 57000000 		.4byte	0x57
 493 020a 02       		.byte	0x2
 494 020b 23       		.byte	0x23
 495 020c 10       		.uleb128 0x10
 496 020d 0B       		.uleb128 0xb
 497 020e FA030000 		.4byte	.LASF36
 498 0212 05       		.byte	0x5
 499 0213 3B       		.byte	0x3b
 500 0214 57000000 		.4byte	0x57
 501 0218 02       		.byte	0x2
 502 0219 23       		.byte	0x23
ARM GAS  /var/folders/dt/0wfd0knj7gs46m8vwfzktm600000gn/T//ccGwj6lP.s 			page 10


 503 021a 14       		.uleb128 0x14
 504 021b 0B       		.uleb128 0xb
 505 021c BA000000 		.4byte	.LASF37
 506 0220 05       		.byte	0x5
 507 0221 3C       		.byte	0x3c
 508 0222 57000000 		.4byte	0x57
 509 0226 02       		.byte	0x2
 510 0227 23       		.byte	0x23
 511 0228 18       		.uleb128 0x18
 512 0229 0B       		.uleb128 0xb
 513 022a B8010000 		.4byte	.LASF38
 514 022e 05       		.byte	0x5
 515 022f 3D       		.byte	0x3d
 516 0230 57000000 		.4byte	0x57
 517 0234 02       		.byte	0x2
 518 0235 23       		.byte	0x23
 519 0236 1C       		.uleb128 0x1c
 520 0237 0B       		.uleb128 0xb
 521 0238 42030000 		.4byte	.LASF39
 522 023c 05       		.byte	0x5
 523 023d 3E       		.byte	0x3e
 524 023e 57000000 		.4byte	0x57
 525 0242 02       		.byte	0x2
 526 0243 23       		.byte	0x23
 527 0244 20       		.uleb128 0x20
 528 0245 00       		.byte	0
 529 0246 10       		.uleb128 0x10
 530 0247 00000000 		.4byte	.LASF40
 531 024b 0801     		.2byte	0x108
 532 024d 05       		.byte	0x5
 533 024e 47       		.byte	0x47
 534 024f 8F020000 		.4byte	0x28f
 535 0253 0B       		.uleb128 0xb
 536 0254 5F050000 		.4byte	.LASF41
 537 0258 05       		.byte	0x5
 538 0259 48       		.byte	0x48
 539 025a 8F020000 		.4byte	0x28f
 540 025e 02       		.byte	0x2
 541 025f 23       		.byte	0x23
 542 0260 00       		.uleb128 0
 543 0261 0B       		.uleb128 0xb
 544 0262 9A040000 		.4byte	.LASF42
 545 0266 05       		.byte	0x5
 546 0267 49       		.byte	0x49
 547 0268 8F020000 		.4byte	0x28f
 548 026c 03       		.byte	0x3
 549 026d 23       		.byte	0x23
 550 026e 8001     		.uleb128 0x80
 551 0270 0B       		.uleb128 0xb
 552 0271 9A050000 		.4byte	.LASF43
 553 0275 05       		.byte	0x5
 554 0276 4B       		.byte	0x4b
 555 0277 34010000 		.4byte	0x134
 556 027b 03       		.byte	0x3
 557 027c 23       		.byte	0x23
 558 027d 8002     		.uleb128 0x100
 559 027f 0B       		.uleb128 0xb
ARM GAS  /var/folders/dt/0wfd0knj7gs46m8vwfzktm600000gn/T//ccGwj6lP.s 			page 11


 560 0280 D3050000 		.4byte	.LASF44
 561 0284 05       		.byte	0x5
 562 0285 4E       		.byte	0x4e
 563 0286 34010000 		.4byte	0x134
 564 028a 03       		.byte	0x3
 565 028b 23       		.byte	0x23
 566 028c 8402     		.uleb128 0x104
 567 028e 00       		.byte	0
 568 028f 08       		.uleb128 0x8
 569 0290 32010000 		.4byte	0x132
 570 0294 9F020000 		.4byte	0x29f
 571 0298 09       		.uleb128 0x9
 572 0299 F0000000 		.4byte	0xf0
 573 029d 1F       		.byte	0x1f
 574 029e 00       		.byte	0
 575 029f 10       		.uleb128 0x10
 576 02a0 AE030000 		.4byte	.LASF45
 577 02a4 9001     		.2byte	0x190
 578 02a6 05       		.byte	0x5
 579 02a7 59       		.byte	0x59
 580 02a8 E6020000 		.4byte	0x2e6
 581 02ac 0B       		.uleb128 0xb
 582 02ad D3010000 		.4byte	.LASF25
 583 02b1 05       		.byte	0x5
 584 02b2 5A       		.byte	0x5a
 585 02b3 E6020000 		.4byte	0x2e6
 586 02b7 02       		.byte	0x2
 587 02b8 23       		.byte	0x23
 588 02b9 00       		.uleb128 0
 589 02ba 0B       		.uleb128 0xb
 590 02bb C7010000 		.4byte	.LASF46
 591 02bf 05       		.byte	0x5
 592 02c0 5B       		.byte	0x5b
 593 02c1 57000000 		.4byte	0x57
 594 02c5 02       		.byte	0x2
 595 02c6 23       		.byte	0x23
 596 02c7 04       		.uleb128 0x4
 597 02c8 0B       		.uleb128 0xb
 598 02c9 A5000000 		.4byte	.LASF47
 599 02cd 05       		.byte	0x5
 600 02ce 5D       		.byte	0x5d
 601 02cf EC020000 		.4byte	0x2ec
 602 02d3 02       		.byte	0x2
 603 02d4 23       		.byte	0x23
 604 02d5 08       		.uleb128 0x8
 605 02d6 0B       		.uleb128 0xb
 606 02d7 00000000 		.4byte	.LASF40
 607 02db 05       		.byte	0x5
 608 02dc 5E       		.byte	0x5e
 609 02dd 46020000 		.4byte	0x246
 610 02e1 03       		.byte	0x3
 611 02e2 23       		.byte	0x23
 612 02e3 8801     		.uleb128 0x88
 613 02e5 00       		.byte	0
 614 02e6 0F       		.uleb128 0xf
 615 02e7 04       		.byte	0x4
 616 02e8 9F020000 		.4byte	0x29f
ARM GAS  /var/folders/dt/0wfd0knj7gs46m8vwfzktm600000gn/T//ccGwj6lP.s 			page 12


 617 02ec 08       		.uleb128 0x8
 618 02ed FE020000 		.4byte	0x2fe
 619 02f1 FC020000 		.4byte	0x2fc
 620 02f5 09       		.uleb128 0x9
 621 02f6 F0000000 		.4byte	0xf0
 622 02fa 1F       		.byte	0x1f
 623 02fb 00       		.byte	0
 624 02fc 11       		.uleb128 0x11
 625 02fd 01       		.byte	0x1
 626 02fe 0F       		.uleb128 0xf
 627 02ff 04       		.byte	0x4
 628 0300 FC020000 		.4byte	0x2fc
 629 0304 0D       		.uleb128 0xd
 630 0305 DE040000 		.4byte	.LASF48
 631 0309 08       		.byte	0x8
 632 030a 05       		.byte	0x5
 633 030b 69       		.byte	0x69
 634 030c 2D030000 		.4byte	0x32d
 635 0310 0B       		.uleb128 0xb
 636 0311 DF020000 		.4byte	.LASF49
 637 0315 05       		.byte	0x5
 638 0316 6A       		.byte	0x6a
 639 0317 2D030000 		.4byte	0x32d
 640 031b 02       		.byte	0x2
 641 031c 23       		.byte	0x23
 642 031d 00       		.uleb128 0
 643 031e 0B       		.uleb128 0xb
 644 031f A3050000 		.4byte	.LASF50
 645 0323 05       		.byte	0x5
 646 0324 6B       		.byte	0x6b
 647 0325 57000000 		.4byte	0x57
 648 0329 02       		.byte	0x2
 649 032a 23       		.byte	0x23
 650 032b 04       		.uleb128 0x4
 651 032c 00       		.byte	0
 652 032d 0F       		.uleb128 0xf
 653 032e 04       		.byte	0x4
 654 032f 42000000 		.4byte	0x42
 655 0333 0D       		.uleb128 0xd
 656 0334 64010000 		.4byte	.LASF51
 657 0338 68       		.byte	0x68
 658 0339 05       		.byte	0x5
 659 033a A9       		.byte	0xa9
 660 033b 8D040000 		.4byte	0x48d
 661 033f 0E       		.uleb128 0xe
 662 0340 5F7000   		.ascii	"_p\000"
 663 0343 05       		.byte	0x5
 664 0344 AA       		.byte	0xaa
 665 0345 2D030000 		.4byte	0x32d
 666 0349 02       		.byte	0x2
 667 034a 23       		.byte	0x23
 668 034b 00       		.uleb128 0
 669 034c 0E       		.uleb128 0xe
 670 034d 5F7200   		.ascii	"_r\000"
 671 0350 05       		.byte	0x5
 672 0351 AB       		.byte	0xab
 673 0352 57000000 		.4byte	0x57
ARM GAS  /var/folders/dt/0wfd0knj7gs46m8vwfzktm600000gn/T//ccGwj6lP.s 			page 13


 674 0356 02       		.byte	0x2
 675 0357 23       		.byte	0x23
 676 0358 04       		.uleb128 0x4
 677 0359 0E       		.uleb128 0xe
 678 035a 5F7700   		.ascii	"_w\000"
 679 035d 05       		.byte	0x5
 680 035e AC       		.byte	0xac
 681 035f 57000000 		.4byte	0x57
 682 0363 02       		.byte	0x2
 683 0364 23       		.byte	0x23
 684 0365 08       		.uleb128 0x8
 685 0366 0B       		.uleb128 0xb
 686 0367 61000000 		.4byte	.LASF52
 687 036b 05       		.byte	0x5
 688 036c AD       		.byte	0xad
 689 036d 49000000 		.4byte	0x49
 690 0371 02       		.byte	0x2
 691 0372 23       		.byte	0x23
 692 0373 0C       		.uleb128 0xc
 693 0374 0B       		.uleb128 0xb
 694 0375 20030000 		.4byte	.LASF53
 695 0379 05       		.byte	0x5
 696 037a AE       		.byte	0xae
 697 037b 49000000 		.4byte	0x49
 698 037f 02       		.byte	0x2
 699 0380 23       		.byte	0x23
 700 0381 0E       		.uleb128 0xe
 701 0382 0E       		.uleb128 0xe
 702 0383 5F626600 		.ascii	"_bf\000"
 703 0387 05       		.byte	0x5
 704 0388 AF       		.byte	0xaf
 705 0389 04030000 		.4byte	0x304
 706 038d 02       		.byte	0x2
 707 038e 23       		.byte	0x23
 708 038f 10       		.uleb128 0x10
 709 0390 0B       		.uleb128 0xb
 710 0391 58000000 		.4byte	.LASF54
 711 0395 05       		.byte	0x5
 712 0396 B0       		.byte	0xb0
 713 0397 57000000 		.4byte	0x57
 714 039b 02       		.byte	0x2
 715 039c 23       		.byte	0x23
 716 039d 18       		.uleb128 0x18
 717 039e 0B       		.uleb128 0xb
 718 039f AA000000 		.4byte	.LASF55
 719 03a3 05       		.byte	0x5
 720 03a4 B7       		.byte	0xb7
 721 03a5 32010000 		.4byte	0x132
 722 03a9 02       		.byte	0x2
 723 03aa 23       		.byte	0x23
 724 03ab 1C       		.uleb128 0x1c
 725 03ac 0B       		.uleb128 0xb
 726 03ad 81000000 		.4byte	.LASF56
 727 03b1 05       		.byte	0x5
 728 03b2 B9       		.byte	0xb9
 729 03b3 1D060000 		.4byte	0x61d
 730 03b7 02       		.byte	0x2
ARM GAS  /var/folders/dt/0wfd0knj7gs46m8vwfzktm600000gn/T//ccGwj6lP.s 			page 14


 731 03b8 23       		.byte	0x23
 732 03b9 20       		.uleb128 0x20
 733 03ba 0B       		.uleb128 0xb
 734 03bb A1030000 		.4byte	.LASF57
 735 03bf 05       		.byte	0x5
 736 03c0 BB       		.byte	0xbb
 737 03c1 4D060000 		.4byte	0x64d
 738 03c5 02       		.byte	0x2
 739 03c6 23       		.byte	0x23
 740 03c7 24       		.uleb128 0x24
 741 03c8 0B       		.uleb128 0xb
 742 03c9 EC050000 		.4byte	.LASF58
 743 03cd 05       		.byte	0x5
 744 03ce BD       		.byte	0xbd
 745 03cf 72060000 		.4byte	0x672
 746 03d3 02       		.byte	0x2
 747 03d4 23       		.byte	0x23
 748 03d5 28       		.uleb128 0x28
 749 03d6 0B       		.uleb128 0xb
 750 03d7 96020000 		.4byte	.LASF59
 751 03db 05       		.byte	0x5
 752 03dc BE       		.byte	0xbe
 753 03dd 8D060000 		.4byte	0x68d
 754 03e1 02       		.byte	0x2
 755 03e2 23       		.byte	0x23
 756 03e3 2C       		.uleb128 0x2c
 757 03e4 0E       		.uleb128 0xe
 758 03e5 5F756200 		.ascii	"_ub\000"
 759 03e9 05       		.byte	0x5
 760 03ea C1       		.byte	0xc1
 761 03eb 04030000 		.4byte	0x304
 762 03ef 02       		.byte	0x2
 763 03f0 23       		.byte	0x23
 764 03f1 30       		.uleb128 0x30
 765 03f2 0E       		.uleb128 0xe
 766 03f3 5F757000 		.ascii	"_up\000"
 767 03f7 05       		.byte	0x5
 768 03f8 C2       		.byte	0xc2
 769 03f9 2D030000 		.4byte	0x32d
 770 03fd 02       		.byte	0x2
 771 03fe 23       		.byte	0x23
 772 03ff 38       		.uleb128 0x38
 773 0400 0E       		.uleb128 0xe
 774 0401 5F757200 		.ascii	"_ur\000"
 775 0405 05       		.byte	0x5
 776 0406 C3       		.byte	0xc3
 777 0407 57000000 		.4byte	0x57
 778 040b 02       		.byte	0x2
 779 040c 23       		.byte	0x23
 780 040d 3C       		.uleb128 0x3c
 781 040e 0B       		.uleb128 0xb
 782 040f 03060000 		.4byte	.LASF60
 783 0413 05       		.byte	0x5
 784 0414 C6       		.byte	0xc6
 785 0415 93060000 		.4byte	0x693
 786 0419 02       		.byte	0x2
 787 041a 23       		.byte	0x23
ARM GAS  /var/folders/dt/0wfd0knj7gs46m8vwfzktm600000gn/T//ccGwj6lP.s 			page 15


 788 041b 40       		.uleb128 0x40
 789 041c 0B       		.uleb128 0xb
 790 041d B0050000 		.4byte	.LASF61
 791 0421 05       		.byte	0x5
 792 0422 C7       		.byte	0xc7
 793 0423 A3060000 		.4byte	0x6a3
 794 0427 02       		.byte	0x2
 795 0428 23       		.byte	0x23
 796 0429 43       		.uleb128 0x43
 797 042a 0E       		.uleb128 0xe
 798 042b 5F6C6200 		.ascii	"_lb\000"
 799 042f 05       		.byte	0x5
 800 0430 CA       		.byte	0xca
 801 0431 04030000 		.4byte	0x304
 802 0435 02       		.byte	0x2
 803 0436 23       		.byte	0x23
 804 0437 44       		.uleb128 0x44
 805 0438 0B       		.uleb128 0xb
 806 0439 5D040000 		.4byte	.LASF62
 807 043d 05       		.byte	0x5
 808 043e CD       		.byte	0xcd
 809 043f 57000000 		.4byte	0x57
 810 0443 02       		.byte	0x2
 811 0444 23       		.byte	0x23
 812 0445 4C       		.uleb128 0x4c
 813 0446 0B       		.uleb128 0xb
 814 0447 89010000 		.4byte	.LASF63
 815 044b 05       		.byte	0x5
 816 044c CE       		.byte	0xce
 817 044d 57000000 		.4byte	0x57
 818 0451 02       		.byte	0x2
 819 0452 23       		.byte	0x23
 820 0453 50       		.uleb128 0x50
 821 0454 0B       		.uleb128 0xb
 822 0455 ED030000 		.4byte	.LASF64
 823 0459 05       		.byte	0x5
 824 045a D1       		.byte	0xd1
 825 045b AC040000 		.4byte	0x4ac
 826 045f 02       		.byte	0x2
 827 0460 23       		.byte	0x23
 828 0461 54       		.uleb128 0x54
 829 0462 0B       		.uleb128 0xb
 830 0463 6B040000 		.4byte	.LASF65
 831 0467 05       		.byte	0x5
 832 0468 D5       		.byte	0xd5
 833 0469 27010000 		.4byte	0x127
 834 046d 02       		.byte	0x2
 835 046e 23       		.byte	0x23
 836 046f 58       		.uleb128 0x58
 837 0470 0B       		.uleb128 0xb
 838 0471 B6030000 		.4byte	.LASF66
 839 0475 05       		.byte	0x5
 840 0476 D7       		.byte	0xd7
 841 0477 1C010000 		.4byte	0x11c
 842 047b 02       		.byte	0x2
 843 047c 23       		.byte	0x23
 844 047d 5C       		.uleb128 0x5c
ARM GAS  /var/folders/dt/0wfd0knj7gs46m8vwfzktm600000gn/T//ccGwj6lP.s 			page 16


 845 047e 0B       		.uleb128 0xb
 846 047f CB050000 		.4byte	.LASF67
 847 0483 05       		.byte	0x5
 848 0484 D8       		.byte	0xd8
 849 0485 57000000 		.4byte	0x57
 850 0489 02       		.byte	0x2
 851 048a 23       		.byte	0x23
 852 048b 64       		.uleb128 0x64
 853 048c 00       		.byte	0
 854 048d 12       		.uleb128 0x12
 855 048e 01       		.byte	0x1
 856 048f 57000000 		.4byte	0x57
 857 0493 AC040000 		.4byte	0x4ac
 858 0497 13       		.uleb128 0x13
 859 0498 AC040000 		.4byte	0x4ac
 860 049c 13       		.uleb128 0x13
 861 049d 32010000 		.4byte	0x132
 862 04a1 13       		.uleb128 0x13
 863 04a2 10060000 		.4byte	0x610
 864 04a6 13       		.uleb128 0x13
 865 04a7 57000000 		.4byte	0x57
 866 04ab 00       		.byte	0
 867 04ac 0F       		.uleb128 0xf
 868 04ad 04       		.byte	0x4
 869 04ae B2040000 		.4byte	0x4b2
 870 04b2 14       		.uleb128 0x14
 871 04b3 7A050000 		.4byte	.LASF68
 872 04b7 2804     		.2byte	0x428
 873 04b9 05       		.byte	0x5
 874 04ba 4402     		.2byte	0x244
 875 04bc 10060000 		.4byte	0x610
 876 04c0 15       		.uleb128 0x15
 877 04c1 68000000 		.4byte	.LASF69
 878 04c5 05       		.byte	0x5
 879 04c6 4602     		.2byte	0x246
 880 04c8 57000000 		.4byte	0x57
 881 04cc 02       		.byte	0x2
 882 04cd 23       		.byte	0x23
 883 04ce 00       		.uleb128 0
 884 04cf 15       		.uleb128 0x15
 885 04d0 AF020000 		.4byte	.LASF70
 886 04d4 05       		.byte	0x5
 887 04d5 4B02     		.2byte	0x24b
 888 04d7 00070000 		.4byte	0x700
 889 04db 02       		.byte	0x2
 890 04dc 23       		.byte	0x23
 891 04dd 04       		.uleb128 0x4
 892 04de 15       		.uleb128 0x15
 893 04df 95000000 		.4byte	.LASF71
 894 04e3 05       		.byte	0x5
 895 04e4 4B02     		.2byte	0x24b
 896 04e6 00070000 		.4byte	0x700
 897 04ea 02       		.byte	0x2
 898 04eb 23       		.byte	0x23
 899 04ec 08       		.uleb128 0x8
 900 04ed 15       		.uleb128 0x15
 901 04ee F2050000 		.4byte	.LASF72
ARM GAS  /var/folders/dt/0wfd0knj7gs46m8vwfzktm600000gn/T//ccGwj6lP.s 			page 17


 902 04f2 05       		.byte	0x5
 903 04f3 4B02     		.2byte	0x24b
 904 04f5 00070000 		.4byte	0x700
 905 04f9 02       		.byte	0x2
 906 04fa 23       		.byte	0x23
 907 04fb 0C       		.uleb128 0xc
 908 04fc 15       		.uleb128 0x15
 909 04fd C2010000 		.4byte	.LASF73
 910 0501 05       		.byte	0x5
 911 0502 4D02     		.2byte	0x24d
 912 0504 57000000 		.4byte	0x57
 913 0508 02       		.byte	0x2
 914 0509 23       		.byte	0x23
 915 050a 10       		.uleb128 0x10
 916 050b 15       		.uleb128 0x15
 917 050c 96010000 		.4byte	.LASF74
 918 0510 05       		.byte	0x5
 919 0511 4E02     		.2byte	0x24e
 920 0513 1B090000 		.4byte	0x91b
 921 0517 02       		.byte	0x2
 922 0518 23       		.byte	0x23
 923 0519 14       		.uleb128 0x14
 924 051a 15       		.uleb128 0x15
 925 051b 43040000 		.4byte	.LASF75
 926 051f 05       		.byte	0x5
 927 0520 5002     		.2byte	0x250
 928 0522 57000000 		.4byte	0x57
 929 0526 02       		.byte	0x2
 930 0527 23       		.byte	0x23
 931 0528 30       		.uleb128 0x30
 932 0529 15       		.uleb128 0x15
 933 052a DD030000 		.4byte	.LASF76
 934 052e 05       		.byte	0x5
 935 052f 5102     		.2byte	0x251
 936 0531 42060000 		.4byte	0x642
 937 0535 02       		.byte	0x2
 938 0536 23       		.byte	0x23
 939 0537 34       		.uleb128 0x34
 940 0538 15       		.uleb128 0x15
 941 0539 9D020000 		.4byte	.LASF77
 942 053d 05       		.byte	0x5
 943 053e 5302     		.2byte	0x253
 944 0540 57000000 		.4byte	0x57
 945 0544 02       		.byte	0x2
 946 0545 23       		.byte	0x23
 947 0546 38       		.uleb128 0x38
 948 0547 15       		.uleb128 0x15
 949 0548 2D030000 		.4byte	.LASF78
 950 054c 05       		.byte	0x5
 951 054d 5502     		.2byte	0x255
 952 054f 37090000 		.4byte	0x937
 953 0553 02       		.byte	0x2
 954 0554 23       		.byte	0x23
 955 0555 3C       		.uleb128 0x3c
 956 0556 15       		.uleb128 0x15
 957 0557 C4000000 		.4byte	.LASF79
 958 055b 05       		.byte	0x5
ARM GAS  /var/folders/dt/0wfd0knj7gs46m8vwfzktm600000gn/T//ccGwj6lP.s 			page 18


 959 055c 5802     		.2byte	0x258
 960 055e A5010000 		.4byte	0x1a5
 961 0562 02       		.byte	0x2
 962 0563 23       		.byte	0x23
 963 0564 40       		.uleb128 0x40
 964 0565 15       		.uleb128 0x15
 965 0566 2C010000 		.4byte	.LASF80
 966 056a 05       		.byte	0x5
 967 056b 5902     		.2byte	0x259
 968 056d 57000000 		.4byte	0x57
 969 0571 02       		.byte	0x2
 970 0572 23       		.byte	0x23
 971 0573 44       		.uleb128 0x44
 972 0574 15       		.uleb128 0x15
 973 0575 11020000 		.4byte	.LASF81
 974 0579 05       		.byte	0x5
 975 057a 5A02     		.2byte	0x25a
 976 057c A5010000 		.4byte	0x1a5
 977 0580 02       		.byte	0x2
 978 0581 23       		.byte	0x23
 979 0582 48       		.uleb128 0x48
 980 0583 15       		.uleb128 0x15
 981 0584 E5020000 		.4byte	.LASF82
 982 0588 05       		.byte	0x5
 983 0589 5B02     		.2byte	0x25b
 984 058b 3D090000 		.4byte	0x93d
 985 058f 02       		.byte	0x2
 986 0590 23       		.byte	0x23
 987 0591 4C       		.uleb128 0x4c
 988 0592 15       		.uleb128 0x15
 989 0593 29040000 		.4byte	.LASF83
 990 0597 05       		.byte	0x5
 991 0598 5E02     		.2byte	0x25e
 992 059a 57000000 		.4byte	0x57
 993 059e 02       		.byte	0x2
 994 059f 23       		.byte	0x23
 995 05a0 50       		.uleb128 0x50
 996 05a1 15       		.uleb128 0x15
 997 05a2 AE040000 		.4byte	.LASF84
 998 05a6 05       		.byte	0x5
 999 05a7 5F02     		.2byte	0x25f
 1000 05a9 10060000 		.4byte	0x610
 1001 05ad 02       		.byte	0x2
 1002 05ae 23       		.byte	0x23
 1003 05af 54       		.uleb128 0x54
 1004 05b0 15       		.uleb128 0x15
 1005 05b1 24040000 		.4byte	.LASF85
 1006 05b5 05       		.byte	0x5
 1007 05b6 8202     		.2byte	0x282
 1008 05b8 F9080000 		.4byte	0x8f9
 1009 05bc 02       		.byte	0x2
 1010 05bd 23       		.byte	0x23
 1011 05be 58       		.uleb128 0x58
 1012 05bf 15       		.uleb128 0x15
 1013 05c0 AE030000 		.4byte	.LASF45
 1014 05c4 05       		.byte	0x5
 1015 05c5 8502     		.2byte	0x285
ARM GAS  /var/folders/dt/0wfd0knj7gs46m8vwfzktm600000gn/T//ccGwj6lP.s 			page 19


 1016 05c7 E6020000 		.4byte	0x2e6
 1017 05cb 03       		.byte	0x3
 1018 05cc 23       		.byte	0x23
 1019 05cd C802     		.uleb128 0x148
 1020 05cf 15       		.uleb128 0x15
 1021 05d0 5C020000 		.4byte	.LASF86
 1022 05d4 05       		.byte	0x5
 1023 05d5 8602     		.2byte	0x286
 1024 05d7 9F020000 		.4byte	0x29f
 1025 05db 03       		.byte	0x3
 1026 05dc 23       		.byte	0x23
 1027 05dd CC02     		.uleb128 0x14c
 1028 05df 15       		.uleb128 0x15
 1029 05e0 43020000 		.4byte	.LASF87
 1030 05e4 05       		.byte	0x5
 1031 05e5 8902     		.2byte	0x289
 1032 05e7 4F090000 		.4byte	0x94f
 1033 05eb 03       		.byte	0x3
 1034 05ec 23       		.byte	0x23
 1035 05ed DC05     		.uleb128 0x2dc
 1036 05ef 15       		.uleb128 0x15
 1037 05f0 3C050000 		.4byte	.LASF88
 1038 05f4 05       		.byte	0x5
 1039 05f5 8E02     		.2byte	0x28e
 1040 05f7 BF060000 		.4byte	0x6bf
 1041 05fb 03       		.byte	0x3
 1042 05fc 23       		.byte	0x23
 1043 05fd E005     		.uleb128 0x2e0
 1044 05ff 15       		.uleb128 0x15
 1045 0600 D2030000 		.4byte	.LASF89
 1046 0604 05       		.byte	0x5
 1047 0605 8F02     		.2byte	0x28f
 1048 0607 5B090000 		.4byte	0x95b
 1049 060b 03       		.byte	0x3
 1050 060c 23       		.byte	0x23
 1051 060d EC05     		.uleb128 0x2ec
 1052 060f 00       		.byte	0
 1053 0610 0F       		.uleb128 0xf
 1054 0611 04       		.byte	0x4
 1055 0612 16060000 		.4byte	0x616
 1056 0616 03       		.uleb128 0x3
 1057 0617 01       		.byte	0x1
 1058 0618 08       		.byte	0x8
 1059 0619 34020000 		.4byte	.LASF90
 1060 061d 0F       		.uleb128 0xf
 1061 061e 04       		.byte	0x4
 1062 061f 8D040000 		.4byte	0x48d
 1063 0623 12       		.uleb128 0x12
 1064 0624 01       		.byte	0x1
 1065 0625 57000000 		.4byte	0x57
 1066 0629 42060000 		.4byte	0x642
 1067 062d 13       		.uleb128 0x13
 1068 062e AC040000 		.4byte	0x4ac
 1069 0632 13       		.uleb128 0x13
 1070 0633 32010000 		.4byte	0x132
 1071 0637 13       		.uleb128 0x13
 1072 0638 42060000 		.4byte	0x642
ARM GAS  /var/folders/dt/0wfd0knj7gs46m8vwfzktm600000gn/T//ccGwj6lP.s 			page 20


 1073 063c 13       		.uleb128 0x13
 1074 063d 57000000 		.4byte	0x57
 1075 0641 00       		.byte	0
 1076 0642 0F       		.uleb128 0xf
 1077 0643 04       		.byte	0x4
 1078 0644 48060000 		.4byte	0x648
 1079 0648 16       		.uleb128 0x16
 1080 0649 16060000 		.4byte	0x616
 1081 064d 0F       		.uleb128 0xf
 1082 064e 04       		.byte	0x4
 1083 064f 23060000 		.4byte	0x623
 1084 0653 12       		.uleb128 0x12
 1085 0654 01       		.byte	0x1
 1086 0655 AA000000 		.4byte	0xaa
 1087 0659 72060000 		.4byte	0x672
 1088 065d 13       		.uleb128 0x13
 1089 065e AC040000 		.4byte	0x4ac
 1090 0662 13       		.uleb128 0x13
 1091 0663 32010000 		.4byte	0x132
 1092 0667 13       		.uleb128 0x13
 1093 0668 AA000000 		.4byte	0xaa
 1094 066c 13       		.uleb128 0x13
 1095 066d 57000000 		.4byte	0x57
 1096 0671 00       		.byte	0
 1097 0672 0F       		.uleb128 0xf
 1098 0673 04       		.byte	0x4
 1099 0674 53060000 		.4byte	0x653
 1100 0678 12       		.uleb128 0x12
 1101 0679 01       		.byte	0x1
 1102 067a 57000000 		.4byte	0x57
 1103 067e 8D060000 		.4byte	0x68d
 1104 0682 13       		.uleb128 0x13
 1105 0683 AC040000 		.4byte	0x4ac
 1106 0687 13       		.uleb128 0x13
 1107 0688 32010000 		.4byte	0x132
 1108 068c 00       		.byte	0
 1109 068d 0F       		.uleb128 0xf
 1110 068e 04       		.byte	0x4
 1111 068f 78060000 		.4byte	0x678
 1112 0693 08       		.uleb128 0x8
 1113 0694 42000000 		.4byte	0x42
 1114 0698 A3060000 		.4byte	0x6a3
 1115 069c 09       		.uleb128 0x9
 1116 069d F0000000 		.4byte	0xf0
 1117 06a1 02       		.byte	0x2
 1118 06a2 00       		.byte	0
 1119 06a3 08       		.uleb128 0x8
 1120 06a4 42000000 		.4byte	0x42
 1121 06a8 B3060000 		.4byte	0x6b3
 1122 06ac 09       		.uleb128 0x9
 1123 06ad F0000000 		.4byte	0xf0
 1124 06b1 00       		.byte	0
 1125 06b2 00       		.byte	0
 1126 06b3 05       		.uleb128 0x5
 1127 06b4 82010000 		.4byte	.LASF91
 1128 06b8 05       		.byte	0x5
 1129 06b9 1101     		.2byte	0x111
ARM GAS  /var/folders/dt/0wfd0knj7gs46m8vwfzktm600000gn/T//ccGwj6lP.s 			page 21


 1130 06bb 33030000 		.4byte	0x333
 1131 06bf 17       		.uleb128 0x17
 1132 06c0 36050000 		.4byte	.LASF92
 1133 06c4 0C       		.byte	0xc
 1134 06c5 05       		.byte	0x5
 1135 06c6 1501     		.2byte	0x115
 1136 06c8 FA060000 		.4byte	0x6fa
 1137 06cc 15       		.uleb128 0x15
 1138 06cd D3010000 		.4byte	.LASF25
 1139 06d1 05       		.byte	0x5
 1140 06d2 1701     		.2byte	0x117
 1141 06d4 FA060000 		.4byte	0x6fa
 1142 06d8 02       		.byte	0x2
 1143 06d9 23       		.byte	0x23
 1144 06da 00       		.uleb128 0
 1145 06db 15       		.uleb128 0x15
 1146 06dc 8C040000 		.4byte	.LASF93
 1147 06e0 05       		.byte	0x5
 1148 06e1 1801     		.2byte	0x118
 1149 06e3 57000000 		.4byte	0x57
 1150 06e7 02       		.byte	0x2
 1151 06e8 23       		.byte	0x23
 1152 06e9 04       		.uleb128 0x4
 1153 06ea 15       		.uleb128 0x15
 1154 06eb 89020000 		.4byte	.LASF94
 1155 06ef 05       		.byte	0x5
 1156 06f0 1901     		.2byte	0x119
 1157 06f2 00070000 		.4byte	0x700
 1158 06f6 02       		.byte	0x2
 1159 06f7 23       		.byte	0x23
 1160 06f8 08       		.uleb128 0x8
 1161 06f9 00       		.byte	0
 1162 06fa 0F       		.uleb128 0xf
 1163 06fb 04       		.byte	0x4
 1164 06fc BF060000 		.4byte	0x6bf
 1165 0700 0F       		.uleb128 0xf
 1166 0701 04       		.byte	0x4
 1167 0702 B3060000 		.4byte	0x6b3
 1168 0706 17       		.uleb128 0x17
 1169 0707 24010000 		.4byte	.LASF95
 1170 070b 0E       		.byte	0xe
 1171 070c 05       		.byte	0x5
 1172 070d 3101     		.2byte	0x131
 1173 070f 41070000 		.4byte	0x741
 1174 0713 15       		.uleb128 0x15
 1175 0714 DB050000 		.4byte	.LASF96
 1176 0718 05       		.byte	0x5
 1177 0719 3201     		.2byte	0x132
 1178 071b 41070000 		.4byte	0x741
 1179 071f 02       		.byte	0x2
 1180 0720 23       		.byte	0x23
 1181 0721 00       		.uleb128 0
 1182 0722 15       		.uleb128 0x15
 1183 0723 F7020000 		.4byte	.LASF97
 1184 0727 05       		.byte	0x5
 1185 0728 3301     		.2byte	0x133
 1186 072a 41070000 		.4byte	0x741
ARM GAS  /var/folders/dt/0wfd0knj7gs46m8vwfzktm600000gn/T//ccGwj6lP.s 			page 22


 1187 072e 02       		.byte	0x2
 1188 072f 23       		.byte	0x23
 1189 0730 06       		.uleb128 0x6
 1190 0731 15       		.uleb128 0x15
 1191 0732 D1040000 		.4byte	.LASF98
 1192 0736 05       		.byte	0x5
 1193 0737 3401     		.2byte	0x134
 1194 0739 50000000 		.4byte	0x50
 1195 073d 02       		.byte	0x2
 1196 073e 23       		.byte	0x23
 1197 073f 0C       		.uleb128 0xc
 1198 0740 00       		.byte	0
 1199 0741 08       		.uleb128 0x8
 1200 0742 50000000 		.4byte	0x50
 1201 0746 51070000 		.4byte	0x751
 1202 074a 09       		.uleb128 0x9
 1203 074b F0000000 		.4byte	0xf0
 1204 074f 02       		.byte	0x2
 1205 0750 00       		.byte	0
 1206 0751 18       		.uleb128 0x18
 1207 0752 D0       		.byte	0xd0
 1208 0753 05       		.byte	0x5
 1209 0754 6302     		.2byte	0x263
 1210 0756 81080000 		.4byte	0x881
 1211 075a 15       		.uleb128 0x15
 1212 075b B6050000 		.4byte	.LASF99
 1213 075f 05       		.byte	0x5
 1214 0760 6502     		.2byte	0x265
 1215 0762 34000000 		.4byte	0x34
 1216 0766 02       		.byte	0x2
 1217 0767 23       		.byte	0x23
 1218 0768 00       		.uleb128 0
 1219 0769 15       		.uleb128 0x15
 1220 076a 44050000 		.4byte	.LASF100
 1221 076e 05       		.byte	0x5
 1222 076f 6602     		.2byte	0x266
 1223 0771 10060000 		.4byte	0x610
 1224 0775 02       		.byte	0x2
 1225 0776 23       		.byte	0x23
 1226 0777 04       		.uleb128 0x4
 1227 0778 15       		.uleb128 0x15
 1228 0779 57010000 		.4byte	.LASF101
 1229 077d 05       		.byte	0x5
 1230 077e 6702     		.2byte	0x267
 1231 0780 81080000 		.4byte	0x881
 1232 0784 02       		.byte	0x2
 1233 0785 23       		.byte	0x23
 1234 0786 08       		.uleb128 0x8
 1235 0787 15       		.uleb128 0x15
 1236 0788 04040000 		.4byte	.LASF102
 1237 078c 05       		.byte	0x5
 1238 078d 6802     		.2byte	0x268
 1239 078f BB010000 		.4byte	0x1bb
 1240 0793 02       		.byte	0x2
 1241 0794 23       		.byte	0x23
 1242 0795 24       		.uleb128 0x24
 1243 0796 15       		.uleb128 0x15
ARM GAS  /var/folders/dt/0wfd0knj7gs46m8vwfzktm600000gn/T//ccGwj6lP.s 			page 23


 1244 0797 B6020000 		.4byte	.LASF103
 1245 079b 05       		.byte	0x5
 1246 079c 6902     		.2byte	0x269
 1247 079e 57000000 		.4byte	0x57
 1248 07a2 02       		.byte	0x2
 1249 07a3 23       		.byte	0x23
 1250 07a4 48       		.uleb128 0x48
 1251 07a5 15       		.uleb128 0x15
 1252 07a6 E1050000 		.4byte	.LASF104
 1253 07aa 05       		.byte	0x5
 1254 07ab 6A02     		.2byte	0x26a
 1255 07ad 65000000 		.4byte	0x65
 1256 07b1 02       		.byte	0x2
 1257 07b2 23       		.byte	0x23
 1258 07b3 50       		.uleb128 0x50
 1259 07b4 15       		.uleb128 0x15
 1260 07b5 26000000 		.4byte	.LASF105
 1261 07b9 05       		.byte	0x5
 1262 07ba 6B02     		.2byte	0x26b
 1263 07bc 06070000 		.4byte	0x706
 1264 07c0 02       		.byte	0x2
 1265 07c1 23       		.byte	0x23
 1266 07c2 58       		.uleb128 0x58
 1267 07c3 15       		.uleb128 0x15
 1268 07c4 27020000 		.4byte	.LASF106
 1269 07c8 05       		.byte	0x5
 1270 07c9 6C02     		.2byte	0x26c
 1271 07cb 1C010000 		.4byte	0x11c
 1272 07cf 02       		.byte	0x2
 1273 07d0 23       		.byte	0x23
 1274 07d1 68       		.uleb128 0x68
 1275 07d2 15       		.uleb128 0x15
 1276 07d3 51050000 		.4byte	.LASF107
 1277 07d7 05       		.byte	0x5
 1278 07d8 6D02     		.2byte	0x26d
 1279 07da 1C010000 		.4byte	0x11c
 1280 07de 02       		.byte	0x2
 1281 07df 23       		.byte	0x23
 1282 07e0 70       		.uleb128 0x70
 1283 07e1 15       		.uleb128 0x15
 1284 07e2 0E000000 		.4byte	.LASF108
 1285 07e6 05       		.byte	0x5
 1286 07e7 6E02     		.2byte	0x26e
 1287 07e9 1C010000 		.4byte	0x11c
 1288 07ed 02       		.byte	0x2
 1289 07ee 23       		.byte	0x23
 1290 07ef 78       		.uleb128 0x78
 1291 07f0 15       		.uleb128 0x15
 1292 07f1 39040000 		.4byte	.LASF109
 1293 07f5 05       		.byte	0x5
 1294 07f6 6F02     		.2byte	0x26f
 1295 07f8 91080000 		.4byte	0x891
 1296 07fc 03       		.byte	0x3
 1297 07fd 23       		.byte	0x23
 1298 07fe 8001     		.uleb128 0x80
 1299 0800 15       		.uleb128 0x15
 1300 0801 34000000 		.4byte	.LASF110
ARM GAS  /var/folders/dt/0wfd0knj7gs46m8vwfzktm600000gn/T//ccGwj6lP.s 			page 24


 1301 0805 05       		.byte	0x5
 1302 0806 7002     		.2byte	0x270
 1303 0808 A1080000 		.4byte	0x8a1
 1304 080c 03       		.byte	0x3
 1305 080d 23       		.byte	0x23
 1306 080e 8801     		.uleb128 0x88
 1307 0810 15       		.uleb128 0x15
 1308 0811 C4040000 		.4byte	.LASF111
 1309 0815 05       		.byte	0x5
 1310 0816 7102     		.2byte	0x271
 1311 0818 57000000 		.4byte	0x57
 1312 081c 03       		.byte	0x3
 1313 081d 23       		.byte	0x23
 1314 081e A001     		.uleb128 0xa0
 1315 0820 15       		.uleb128 0x15
 1316 0821 87000000 		.4byte	.LASF112
 1317 0825 05       		.byte	0x5
 1318 0826 7202     		.2byte	0x272
 1319 0828 1C010000 		.4byte	0x11c
 1320 082c 03       		.byte	0x3
 1321 082d 23       		.byte	0x23
 1322 082e A401     		.uleb128 0xa4
 1323 0830 15       		.uleb128 0x15
 1324 0831 4D020000 		.4byte	.LASF113
 1325 0835 05       		.byte	0x5
 1326 0836 7302     		.2byte	0x273
 1327 0838 1C010000 		.4byte	0x11c
 1328 083c 03       		.byte	0x3
 1329 083d 23       		.byte	0x23
 1330 083e AC01     		.uleb128 0xac
 1331 0840 15       		.uleb128 0x15
 1332 0841 E1010000 		.4byte	.LASF114
 1333 0845 05       		.byte	0x5
 1334 0846 7402     		.2byte	0x274
 1335 0848 1C010000 		.4byte	0x11c
 1336 084c 03       		.byte	0x3
 1337 084d 23       		.byte	0x23
 1338 084e B401     		.uleb128 0xb4
 1339 0850 15       		.uleb128 0x15
 1340 0851 05030000 		.4byte	.LASF115
 1341 0855 05       		.byte	0x5
 1342 0856 7502     		.2byte	0x275
 1343 0858 1C010000 		.4byte	0x11c
 1344 085c 03       		.byte	0x3
 1345 085d 23       		.byte	0x23
 1346 085e BC01     		.uleb128 0xbc
 1347 0860 15       		.uleb128 0x15
 1348 0861 16020000 		.4byte	.LASF116
 1349 0865 05       		.byte	0x5
 1350 0866 7602     		.2byte	0x276
 1351 0868 1C010000 		.4byte	0x11c
 1352 086c 03       		.byte	0x3
 1353 086d 23       		.byte	0x23
 1354 086e C401     		.uleb128 0xc4
 1355 0870 15       		.uleb128 0x15
 1356 0871 4D030000 		.4byte	.LASF117
 1357 0875 05       		.byte	0x5
ARM GAS  /var/folders/dt/0wfd0knj7gs46m8vwfzktm600000gn/T//ccGwj6lP.s 			page 25


 1358 0876 7702     		.2byte	0x277
 1359 0878 57000000 		.4byte	0x57
 1360 087c 03       		.byte	0x3
 1361 087d 23       		.byte	0x23
 1362 087e CC01     		.uleb128 0xcc
 1363 0880 00       		.byte	0
 1364 0881 08       		.uleb128 0x8
 1365 0882 16060000 		.4byte	0x616
 1366 0886 91080000 		.4byte	0x891
 1367 088a 09       		.uleb128 0x9
 1368 088b F0000000 		.4byte	0xf0
 1369 088f 19       		.byte	0x19
 1370 0890 00       		.byte	0
 1371 0891 08       		.uleb128 0x8
 1372 0892 16060000 		.4byte	0x616
 1373 0896 A1080000 		.4byte	0x8a1
 1374 089a 09       		.uleb128 0x9
 1375 089b F0000000 		.4byte	0xf0
 1376 089f 07       		.byte	0x7
 1377 08a0 00       		.byte	0
 1378 08a1 08       		.uleb128 0x8
 1379 08a2 16060000 		.4byte	0x616
 1380 08a6 B1080000 		.4byte	0x8b1
 1381 08aa 09       		.uleb128 0x9
 1382 08ab F0000000 		.4byte	0xf0
 1383 08af 17       		.byte	0x17
 1384 08b0 00       		.byte	0
 1385 08b1 18       		.uleb128 0x18
 1386 08b2 F0       		.byte	0xf0
 1387 08b3 05       		.byte	0x5
 1388 08b4 7C02     		.2byte	0x27c
 1389 08b6 D9080000 		.4byte	0x8d9
 1390 08ba 15       		.uleb128 0x15
 1391 08bb 01010000 		.4byte	.LASF118
 1392 08bf 05       		.byte	0x5
 1393 08c0 7F02     		.2byte	0x27f
 1394 08c2 D9080000 		.4byte	0x8d9
 1395 08c6 02       		.byte	0x2
 1396 08c7 23       		.byte	0x23
 1397 08c8 00       		.uleb128 0
 1398 08c9 15       		.uleb128 0x15
 1399 08ca FA050000 		.4byte	.LASF119
 1400 08ce 05       		.byte	0x5
 1401 08cf 8002     		.2byte	0x280
 1402 08d1 E9080000 		.4byte	0x8e9
 1403 08d5 02       		.byte	0x2
 1404 08d6 23       		.byte	0x23
 1405 08d7 78       		.uleb128 0x78
 1406 08d8 00       		.byte	0
 1407 08d9 08       		.uleb128 0x8
 1408 08da 2D030000 		.4byte	0x32d
 1409 08de E9080000 		.4byte	0x8e9
 1410 08e2 09       		.uleb128 0x9
 1411 08e3 F0000000 		.4byte	0xf0
 1412 08e7 1D       		.byte	0x1d
 1413 08e8 00       		.byte	0
 1414 08e9 08       		.uleb128 0x8
ARM GAS  /var/folders/dt/0wfd0knj7gs46m8vwfzktm600000gn/T//ccGwj6lP.s 			page 26


 1415 08ea 34000000 		.4byte	0x34
 1416 08ee F9080000 		.4byte	0x8f9
 1417 08f2 09       		.uleb128 0x9
 1418 08f3 F0000000 		.4byte	0xf0
 1419 08f7 1D       		.byte	0x1d
 1420 08f8 00       		.byte	0
 1421 08f9 19       		.uleb128 0x19
 1422 08fa F0       		.byte	0xf0
 1423 08fb 05       		.byte	0x5
 1424 08fc 6102     		.2byte	0x261
 1425 08fe 1B090000 		.4byte	0x91b
 1426 0902 1A       		.uleb128 0x1a
 1427 0903 7A050000 		.4byte	.LASF68
 1428 0907 05       		.byte	0x5
 1429 0908 7802     		.2byte	0x278
 1430 090a 51070000 		.4byte	0x751
 1431 090e 1A       		.uleb128 0x1a
 1432 090f D6040000 		.4byte	.LASF120
 1433 0913 05       		.byte	0x5
 1434 0914 8102     		.2byte	0x281
 1435 0916 B1080000 		.4byte	0x8b1
 1436 091a 00       		.byte	0
 1437 091b 08       		.uleb128 0x8
 1438 091c 16060000 		.4byte	0x616
 1439 0920 2B090000 		.4byte	0x92b
 1440 0924 09       		.uleb128 0x9
 1441 0925 F0000000 		.4byte	0xf0
 1442 0929 18       		.byte	0x18
 1443 092a 00       		.byte	0
 1444 092b 1B       		.uleb128 0x1b
 1445 092c 01       		.byte	0x1
 1446 092d 37090000 		.4byte	0x937
 1447 0931 13       		.uleb128 0x13
 1448 0932 AC040000 		.4byte	0x4ac
 1449 0936 00       		.byte	0
 1450 0937 0F       		.uleb128 0xf
 1451 0938 04       		.byte	0x4
 1452 0939 2B090000 		.4byte	0x92b
 1453 093d 0F       		.uleb128 0xf
 1454 093e 04       		.byte	0x4
 1455 093f A5010000 		.4byte	0x1a5
 1456 0943 1B       		.uleb128 0x1b
 1457 0944 01       		.byte	0x1
 1458 0945 4F090000 		.4byte	0x94f
 1459 0949 13       		.uleb128 0x13
 1460 094a 57000000 		.4byte	0x57
 1461 094e 00       		.byte	0
 1462 094f 0F       		.uleb128 0xf
 1463 0950 04       		.byte	0x4
 1464 0951 55090000 		.4byte	0x955
 1465 0955 0F       		.uleb128 0xf
 1466 0956 04       		.byte	0x4
 1467 0957 43090000 		.4byte	0x943
 1468 095b 08       		.uleb128 0x8
 1469 095c B3060000 		.4byte	0x6b3
 1470 0960 6B090000 		.4byte	0x96b
 1471 0964 09       		.uleb128 0x9
ARM GAS  /var/folders/dt/0wfd0knj7gs46m8vwfzktm600000gn/T//ccGwj6lP.s 			page 27


 1472 0965 F0000000 		.4byte	0xf0
 1473 0969 02       		.byte	0x2
 1474 096a 00       		.byte	0
 1475 096b 02       		.uleb128 0x2
 1476 096c 8F020000 		.4byte	.LASF121
 1477 0970 06       		.byte	0x6
 1478 0971 6E       		.byte	0x6e
 1479 0972 82000000 		.4byte	0x82
 1480 0976 02       		.uleb128 0x2
 1481 0977 55040000 		.4byte	.LASF122
 1482 097b 06       		.byte	0x6
 1483 097c 7F       		.byte	0x7f
 1484 097d 10060000 		.4byte	0x610
 1485 0981 02       		.uleb128 0x2
 1486 0982 CC000000 		.4byte	.LASF123
 1487 0986 06       		.byte	0x6
 1488 0987 86       		.byte	0x86
 1489 0988 50000000 		.4byte	0x50
 1490 098c 02       		.uleb128 0x2
 1491 098d 81050000 		.4byte	.LASF124
 1492 0991 06       		.byte	0x6
 1493 0992 A3       		.byte	0xa3
 1494 0993 77000000 		.4byte	0x77
 1495 0997 02       		.uleb128 0x2
 1496 0998 1A030000 		.4byte	.LASF125
 1497 099c 06       		.byte	0x6
 1498 099d A4       		.byte	0xa4
 1499 099e 89000000 		.4byte	0x89
 1500 09a2 02       		.uleb128 0x2
 1501 09a3 14030000 		.4byte	.LASF126
 1502 09a7 06       		.byte	0x6
 1503 09a8 A5       		.byte	0xa5
 1504 09a9 94000000 		.4byte	0x94
 1505 09ad 02       		.uleb128 0x2
 1506 09ae A8030000 		.4byte	.LASF127
 1507 09b2 06       		.byte	0x6
 1508 09b3 A6       		.byte	0xa6
 1509 09b4 9F000000 		.4byte	0x9f
 1510 09b8 02       		.uleb128 0x2
 1511 09b9 73050000 		.4byte	.LASF128
 1512 09bd 06       		.byte	0x6
 1513 09be C4       		.byte	0xc4
 1514 09bf 34000000 		.4byte	0x34
 1515 09c3 02       		.uleb128 0x2
 1516 09c4 A6040000 		.4byte	.LASF129
 1517 09c8 06       		.byte	0x6
 1518 09c9 C9       		.byte	0xc9
 1519 09ca 50000000 		.4byte	0x50
 1520 09ce 0D       		.uleb128 0xd
 1521 09cf 91010000 		.4byte	.LASF130
 1522 09d3 3C       		.byte	0x3c
 1523 09d4 07       		.byte	0x7
 1524 09d5 19       		.byte	0x19
 1525 09d6 C90A0000 		.4byte	0xac9
 1526 09da 0B       		.uleb128 0xb
 1527 09db A1010000 		.4byte	.LASF131
 1528 09df 07       		.byte	0x7
ARM GAS  /var/folders/dt/0wfd0knj7gs46m8vwfzktm600000gn/T//ccGwj6lP.s 			page 28


 1529 09e0 1B       		.byte	0x1b
 1530 09e1 97090000 		.4byte	0x997
 1531 09e5 02       		.byte	0x2
 1532 09e6 23       		.byte	0x23
 1533 09e7 00       		.uleb128 0
 1534 09e8 0B       		.uleb128 0xb
 1535 09e9 A8020000 		.4byte	.LASF132
 1536 09ed 07       		.byte	0x7
 1537 09ee 1C       		.byte	0x1c
 1538 09ef 81090000 		.4byte	0x981
 1539 09f3 02       		.byte	0x2
 1540 09f4 23       		.byte	0x23
 1541 09f5 02       		.uleb128 0x2
 1542 09f6 0B       		.uleb128 0xb
 1543 09f7 D9010000 		.4byte	.LASF133
 1544 09fb 07       		.byte	0x7
 1545 09fc 1D       		.byte	0x1d
 1546 09fd B8090000 		.4byte	0x9b8
 1547 0a01 02       		.byte	0x2
 1548 0a02 23       		.byte	0x23
 1549 0a03 04       		.uleb128 0x4
 1550 0a04 0B       		.uleb128 0xb
 1551 0a05 F2010000 		.4byte	.LASF134
 1552 0a09 07       		.byte	0x7
 1553 0a0a 1E       		.byte	0x1e
 1554 0a0b C3090000 		.4byte	0x9c3
 1555 0a0f 02       		.byte	0x2
 1556 0a10 23       		.byte	0x23
 1557 0a11 08       		.uleb128 0x8
 1558 0a12 0B       		.uleb128 0xb
 1559 0a13 65020000 		.4byte	.LASF135
 1560 0a17 07       		.byte	0x7
 1561 0a18 1F       		.byte	0x1f
 1562 0a19 A2090000 		.4byte	0x9a2
 1563 0a1d 02       		.byte	0x2
 1564 0a1e 23       		.byte	0x23
 1565 0a1f 0A       		.uleb128 0xa
 1566 0a20 0B       		.uleb128 0xb
 1567 0a21 CC010000 		.4byte	.LASF136
 1568 0a25 07       		.byte	0x7
 1569 0a26 20       		.byte	0x20
 1570 0a27 AD090000 		.4byte	0x9ad
 1571 0a2b 02       		.byte	0x2
 1572 0a2c 23       		.byte	0x23
 1573 0a2d 0C       		.uleb128 0xc
 1574 0a2e 0B       		.uleb128 0xb
 1575 0a2f C3050000 		.4byte	.LASF137
 1576 0a33 07       		.byte	0x7
 1577 0a34 21       		.byte	0x21
 1578 0a35 97090000 		.4byte	0x997
 1579 0a39 02       		.byte	0x2
 1580 0a3a 23       		.byte	0x23
 1581 0a3b 0E       		.uleb128 0xe
 1582 0a3c 0B       		.uleb128 0xb
 1583 0a3d 2E050000 		.4byte	.LASF138
 1584 0a41 07       		.byte	0x7
 1585 0a42 22       		.byte	0x22
ARM GAS  /var/folders/dt/0wfd0knj7gs46m8vwfzktm600000gn/T//ccGwj6lP.s 			page 29


 1586 0a43 8C090000 		.4byte	0x98c
 1587 0a47 02       		.byte	0x2
 1588 0a48 23       		.byte	0x23
 1589 0a49 10       		.uleb128 0x10
 1590 0a4a 0B       		.uleb128 0xb
 1591 0a4b 75020000 		.4byte	.LASF139
 1592 0a4f 07       		.byte	0x7
 1593 0a50 30       		.byte	0x30
 1594 0a51 6B090000 		.4byte	0x96b
 1595 0a55 02       		.byte	0x2
 1596 0a56 23       		.byte	0x23
 1597 0a57 14       		.uleb128 0x14
 1598 0a58 0B       		.uleb128 0xb
 1599 0a59 56030000 		.4byte	.LASF140
 1600 0a5d 07       		.byte	0x7
 1601 0a5e 31       		.byte	0x31
 1602 0a5f 82000000 		.4byte	0x82
 1603 0a63 02       		.byte	0x2
 1604 0a64 23       		.byte	0x23
 1605 0a65 18       		.uleb128 0x18
 1606 0a66 0B       		.uleb128 0xb
 1607 0a67 79010000 		.4byte	.LASF141
 1608 0a6b 07       		.byte	0x7
 1609 0a6c 32       		.byte	0x32
 1610 0a6d 6B090000 		.4byte	0x96b
 1611 0a71 02       		.byte	0x2
 1612 0a72 23       		.byte	0x23
 1613 0a73 1C       		.uleb128 0x1c
 1614 0a74 0B       		.uleb128 0xb
 1615 0a75 60030000 		.4byte	.LASF142
 1616 0a79 07       		.byte	0x7
 1617 0a7a 33       		.byte	0x33
 1618 0a7b 82000000 		.4byte	0x82
 1619 0a7f 02       		.byte	0x2
 1620 0a80 23       		.byte	0x23
 1621 0a81 20       		.uleb128 0x20
 1622 0a82 0B       		.uleb128 0xb
 1623 0a83 1B040000 		.4byte	.LASF143
 1624 0a87 07       		.byte	0x7
 1625 0a88 34       		.byte	0x34
 1626 0a89 6B090000 		.4byte	0x96b
 1627 0a8d 02       		.byte	0x2
 1628 0a8e 23       		.byte	0x23
 1629 0a8f 24       		.uleb128 0x24
 1630 0a90 0B       		.uleb128 0xb
 1631 0a91 6A030000 		.4byte	.LASF144
 1632 0a95 07       		.byte	0x7
 1633 0a96 35       		.byte	0x35
 1634 0a97 82000000 		.4byte	0x82
 1635 0a9b 02       		.byte	0x2
 1636 0a9c 23       		.byte	0x23
 1637 0a9d 28       		.uleb128 0x28
 1638 0a9e 0B       		.uleb128 0xb
 1639 0a9f 4D000000 		.4byte	.LASF145
 1640 0aa3 07       		.byte	0x7
 1641 0aa4 36       		.byte	0x36
 1642 0aa5 82000000 		.4byte	0x82
ARM GAS  /var/folders/dt/0wfd0knj7gs46m8vwfzktm600000gn/T//ccGwj6lP.s 			page 30


 1643 0aa9 02       		.byte	0x2
 1644 0aaa 23       		.byte	0x23
 1645 0aab 2C       		.uleb128 0x2c
 1646 0aac 0B       		.uleb128 0xb
 1647 0aad 4D010000 		.4byte	.LASF146
 1648 0ab1 07       		.byte	0x7
 1649 0ab2 37       		.byte	0x37
 1650 0ab3 82000000 		.4byte	0x82
 1651 0ab7 02       		.byte	0x2
 1652 0ab8 23       		.byte	0x23
 1653 0ab9 30       		.uleb128 0x30
 1654 0aba 0B       		.uleb128 0xb
 1655 0abb 74030000 		.4byte	.LASF147
 1656 0abf 07       		.byte	0x7
 1657 0ac0 38       		.byte	0x38
 1658 0ac1 C90A0000 		.4byte	0xac9
 1659 0ac5 02       		.byte	0x2
 1660 0ac6 23       		.byte	0x23
 1661 0ac7 34       		.uleb128 0x34
 1662 0ac8 00       		.byte	0
 1663 0ac9 08       		.uleb128 0x8
 1664 0aca 82000000 		.4byte	0x82
 1665 0ace D90A0000 		.4byte	0xad9
 1666 0ad2 09       		.uleb128 0x9
 1667 0ad3 F0000000 		.4byte	0xf0
 1668 0ad7 01       		.byte	0x1
 1669 0ad8 00       		.byte	0
 1670 0ad9 1C       		.uleb128 0x1c
 1671 0ada 01       		.byte	0x1
 1672 0adb DC000000 		.4byte	.LASF149
 1673 0adf 01       		.byte	0x1
 1674 0ae0 51       		.byte	0x51
 1675 0ae1 01       		.byte	0x1
 1676 0ae2 57000000 		.4byte	0x57
 1677 0ae6 00000000 		.4byte	.LFB7
 1678 0aea 0A000000 		.4byte	.LFE7
 1679 0aee 02       		.byte	0x2
 1680 0aef 7D       		.byte	0x7d
 1681 0af0 00       		.sleb128 0
 1682 0af1 01       		.byte	0x1
 1683 0af2 2D0B0000 		.4byte	0xb2d
 1684 0af6 1D       		.uleb128 0x1d
 1685 0af7 7200     		.ascii	"r\000"
 1686 0af9 01       		.byte	0x1
 1687 0afa 51       		.byte	0x51
 1688 0afb AC040000 		.4byte	0x4ac
 1689 0aff 00000000 		.4byte	.LLST0
 1690 0b03 1E       		.uleb128 0x1e
 1691 0b04 7E020000 		.4byte	.LASF148
 1692 0b08 01       		.byte	0x1
 1693 0b09 51       		.byte	0x51
 1694 0b0a 57000000 		.4byte	0x57
 1695 0b0e 01       		.byte	0x1
 1696 0b0f 51       		.byte	0x51
 1697 0b10 1F       		.uleb128 0x1f
 1698 0b11 70747200 		.ascii	"ptr\000"
 1699 0b15 01       		.byte	0x1
ARM GAS  /var/folders/dt/0wfd0knj7gs46m8vwfzktm600000gn/T//ccGwj6lP.s 			page 31


 1700 0b16 51       		.byte	0x51
 1701 0b17 10060000 		.4byte	0x610
 1702 0b1b 01       		.byte	0x1
 1703 0b1c 52       		.byte	0x52
 1704 0b1d 1D       		.uleb128 0x1d
 1705 0b1e 6C656E00 		.ascii	"len\000"
 1706 0b22 01       		.byte	0x1
 1707 0b23 51       		.byte	0x51
 1708 0b24 57000000 		.4byte	0x57
 1709 0b28 21000000 		.4byte	.LLST1
 1710 0b2c 00       		.byte	0
 1711 0b2d 1C       		.uleb128 0x1c
 1712 0b2e 01       		.byte	0x1
 1713 0b2f 90030000 		.4byte	.LASF150
 1714 0b33 01       		.byte	0x1
 1715 0b34 66       		.byte	0x66
 1716 0b35 01       		.byte	0x1
 1717 0b36 57000000 		.4byte	0x57
 1718 0b3a 00000000 		.4byte	.LFB8
 1719 0b3e 04000000 		.4byte	.LFE8
 1720 0b42 02       		.byte	0x2
 1721 0b43 7D       		.byte	0x7d
 1722 0b44 00       		.sleb128 0
 1723 0b45 01       		.byte	0x1
 1724 0b46 7F0B0000 		.4byte	0xb7f
 1725 0b4a 1D       		.uleb128 0x1d
 1726 0b4b 7200     		.ascii	"r\000"
 1727 0b4d 01       		.byte	0x1
 1728 0b4e 66       		.byte	0x66
 1729 0b4f AC040000 		.4byte	0x4ac
 1730 0b53 42000000 		.4byte	.LLST2
 1731 0b57 1E       		.uleb128 0x1e
 1732 0b58 7E020000 		.4byte	.LASF148
 1733 0b5c 01       		.byte	0x1
 1734 0b5d 66       		.byte	0x66
 1735 0b5e 57000000 		.4byte	0x57
 1736 0b62 01       		.byte	0x1
 1737 0b63 51       		.byte	0x51
 1738 0b64 1F       		.uleb128 0x1f
 1739 0b65 70747200 		.ascii	"ptr\000"
 1740 0b69 01       		.byte	0x1
 1741 0b6a 66       		.byte	0x66
 1742 0b6b 57000000 		.4byte	0x57
 1743 0b6f 01       		.byte	0x1
 1744 0b70 52       		.byte	0x52
 1745 0b71 1F       		.uleb128 0x1f
 1746 0b72 64697200 		.ascii	"dir\000"
 1747 0b76 01       		.byte	0x1
 1748 0b77 66       		.byte	0x66
 1749 0b78 57000000 		.4byte	0x57
 1750 0b7c 01       		.byte	0x1
 1751 0b7d 53       		.byte	0x53
 1752 0b7e 00       		.byte	0
 1753 0b7f 1C       		.uleb128 0x1c
 1754 0b80 01       		.byte	0x1
 1755 0b81 2B000000 		.4byte	.LASF151
 1756 0b85 01       		.byte	0x1
ARM GAS  /var/folders/dt/0wfd0knj7gs46m8vwfzktm600000gn/T//ccGwj6lP.s 			page 32


 1757 0b86 72       		.byte	0x72
 1758 0b87 01       		.byte	0x1
 1759 0b88 57000000 		.4byte	0x57
 1760 0b8c 00000000 		.4byte	.LFB9
 1761 0b90 04000000 		.4byte	.LFE9
 1762 0b94 02       		.byte	0x2
 1763 0b95 7D       		.byte	0x7d
 1764 0b96 00       		.sleb128 0
 1765 0b97 01       		.byte	0x1
 1766 0b98 D10B0000 		.4byte	0xbd1
 1767 0b9c 1D       		.uleb128 0x1d
 1768 0b9d 7200     		.ascii	"r\000"
 1769 0b9f 01       		.byte	0x1
 1770 0ba0 72       		.byte	0x72
 1771 0ba1 AC040000 		.4byte	0x4ac
 1772 0ba5 63000000 		.4byte	.LLST3
 1773 0ba9 1E       		.uleb128 0x1e
 1774 0baa 7E020000 		.4byte	.LASF148
 1775 0bae 01       		.byte	0x1
 1776 0baf 72       		.byte	0x72
 1777 0bb0 57000000 		.4byte	0x57
 1778 0bb4 01       		.byte	0x1
 1779 0bb5 51       		.byte	0x51
 1780 0bb6 1F       		.uleb128 0x1f
 1781 0bb7 70747200 		.ascii	"ptr\000"
 1782 0bbb 01       		.byte	0x1
 1783 0bbc 72       		.byte	0x72
 1784 0bbd 10060000 		.4byte	0x610
 1785 0bc1 01       		.byte	0x1
 1786 0bc2 52       		.byte	0x52
 1787 0bc3 1F       		.uleb128 0x1f
 1788 0bc4 6C656E00 		.ascii	"len\000"
 1789 0bc8 01       		.byte	0x1
 1790 0bc9 72       		.byte	0x72
 1791 0bca 57000000 		.4byte	0x57
 1792 0bce 01       		.byte	0x1
 1793 0bcf 53       		.byte	0x53
 1794 0bd0 00       		.byte	0
 1795 0bd1 1C       		.uleb128 0x1c
 1796 0bd2 01       		.byte	0x1
 1797 0bd3 7E030000 		.4byte	.LASF152
 1798 0bd7 01       		.byte	0x1
 1799 0bd8 83       		.byte	0x83
 1800 0bd9 01       		.byte	0x1
 1801 0bda 57000000 		.4byte	0x57
 1802 0bde 00000000 		.4byte	.LFB10
 1803 0be2 04000000 		.4byte	.LFE10
 1804 0be6 02       		.byte	0x2
 1805 0be7 7D       		.byte	0x7d
 1806 0be8 00       		.sleb128 0
 1807 0be9 01       		.byte	0x1
 1808 0bea 090C0000 		.4byte	0xc09
 1809 0bee 1D       		.uleb128 0x1d
 1810 0bef 7200     		.ascii	"r\000"
 1811 0bf1 01       		.byte	0x1
 1812 0bf2 83       		.byte	0x83
 1813 0bf3 AC040000 		.4byte	0x4ac
ARM GAS  /var/folders/dt/0wfd0knj7gs46m8vwfzktm600000gn/T//ccGwj6lP.s 			page 33


 1814 0bf7 84000000 		.4byte	.LLST4
 1815 0bfb 1E       		.uleb128 0x1e
 1816 0bfc 7E020000 		.4byte	.LASF148
 1817 0c00 01       		.byte	0x1
 1818 0c01 83       		.byte	0x83
 1819 0c02 57000000 		.4byte	0x57
 1820 0c06 01       		.byte	0x1
 1821 0c07 51       		.byte	0x51
 1822 0c08 00       		.byte	0
 1823 0c09 20       		.uleb128 0x20
 1824 0c0a 01       		.byte	0x1
 1825 0c0b 71010000 		.4byte	.LASF153
 1826 0c0f 01       		.byte	0x1
 1827 0c10 8D       		.byte	0x8d
 1828 0c11 01       		.byte	0x1
 1829 0c12 76090000 		.4byte	0x976
 1830 0c16 00000000 		.4byte	.LFB11
 1831 0c1a 18000000 		.4byte	.LFE11
 1832 0c1e A5000000 		.4byte	.LLST5
 1833 0c22 01       		.byte	0x1
 1834 0c23 620C0000 		.4byte	0xc62
 1835 0c27 1D       		.uleb128 0x1d
 1836 0c28 7200     		.ascii	"r\000"
 1837 0c2a 01       		.byte	0x1
 1838 0c2b 8D       		.byte	0x8d
 1839 0c2c AC040000 		.4byte	0x4ac
 1840 0c30 C5000000 		.4byte	.LLST6
 1841 0c34 21       		.uleb128 0x21
 1842 0c35 04020000 		.4byte	.LASF154
 1843 0c39 01       		.byte	0x1
 1844 0c3a 8D       		.byte	0x8d
 1845 0c3b 57000000 		.4byte	0x57
 1846 0c3f E3000000 		.4byte	.LLST7
 1847 0c43 22       		.uleb128 0x22
 1848 0c44 7000     		.ascii	"p\000"
 1849 0c46 01       		.byte	0x1
 1850 0c47 90       		.byte	0x90
 1851 0c48 32010000 		.4byte	0x132
 1852 0c4c 04010000 		.4byte	.LLST8
 1853 0c50 23       		.uleb128 0x23
 1854 0c51 0A000000 		.4byte	.LVL11
 1855 0c55 030D0000 		.4byte	0xd03
 1856 0c59 24       		.uleb128 0x24
 1857 0c5a 01       		.byte	0x1
 1858 0c5b 50       		.byte	0x50
 1859 0c5c 03       		.byte	0x3
 1860 0c5d F3       		.byte	0xf3
 1861 0c5e 01       		.uleb128 0x1
 1862 0c5f 51       		.byte	0x51
 1863 0c60 00       		.byte	0
 1864 0c61 00       		.byte	0
 1865 0c62 20       		.uleb128 0x20
 1866 0c63 01       		.byte	0x1
 1867 0c64 FB010000 		.4byte	.LASF155
 1868 0c68 01       		.byte	0x1
 1869 0c69 A3       		.byte	0xa3
 1870 0c6a 01       		.byte	0x1
ARM GAS  /var/folders/dt/0wfd0knj7gs46m8vwfzktm600000gn/T//ccGwj6lP.s 			page 34


 1871 0c6b 57000000 		.4byte	0x57
 1872 0c6f 00000000 		.4byte	.LFB12
 1873 0c73 18000000 		.4byte	.LFE12
 1874 0c77 17010000 		.4byte	.LLST9
 1875 0c7b 01       		.byte	0x1
 1876 0c7c C60C0000 		.4byte	0xcc6
 1877 0c80 1D       		.uleb128 0x1d
 1878 0c81 7200     		.ascii	"r\000"
 1879 0c83 01       		.byte	0x1
 1880 0c84 A3       		.byte	0xa3
 1881 0c85 AC040000 		.4byte	0x4ac
 1882 0c89 37010000 		.4byte	.LLST10
 1883 0c8d 21       		.uleb128 0x21
 1884 0c8e 7E020000 		.4byte	.LASF148
 1885 0c92 01       		.byte	0x1
 1886 0c93 A3       		.byte	0xa3
 1887 0c94 57000000 		.4byte	0x57
 1888 0c98 58010000 		.4byte	.LLST11
 1889 0c9c 1D       		.uleb128 0x1d
 1890 0c9d 737400   		.ascii	"st\000"
 1891 0ca0 01       		.byte	0x1
 1892 0ca1 A3       		.byte	0xa3
 1893 0ca2 C60C0000 		.4byte	0xcc6
 1894 0ca6 79010000 		.4byte	.LLST12
 1895 0caa 23       		.uleb128 0x23
 1896 0cab 0E000000 		.4byte	.LVL17
 1897 0caf 1B0D0000 		.4byte	0xd1b
 1898 0cb3 24       		.uleb128 0x24
 1899 0cb4 01       		.byte	0x1
 1900 0cb5 52       		.byte	0x52
 1901 0cb6 02       		.byte	0x2
 1902 0cb7 08       		.byte	0x8
 1903 0cb8 3C       		.byte	0x3c
 1904 0cb9 24       		.uleb128 0x24
 1905 0cba 01       		.byte	0x1
 1906 0cbb 51       		.byte	0x51
 1907 0cbc 01       		.byte	0x1
 1908 0cbd 30       		.byte	0x30
 1909 0cbe 24       		.uleb128 0x24
 1910 0cbf 01       		.byte	0x1
 1911 0cc0 50       		.byte	0x50
 1912 0cc1 02       		.byte	0x2
 1913 0cc2 74       		.byte	0x74
 1914 0cc3 00       		.sleb128 0
 1915 0cc4 00       		.byte	0
 1916 0cc5 00       		.byte	0
 1917 0cc6 0F       		.uleb128 0xf
 1918 0cc7 04       		.byte	0x4
 1919 0cc8 CE090000 		.4byte	0x9ce
 1920 0ccc 1C       		.uleb128 0x1c
 1921 0ccd 01       		.byte	0x1
 1922 0cce 1C000000 		.4byte	.LASF156
 1923 0cd2 01       		.byte	0x1
 1924 0cd3 AF       		.byte	0xaf
 1925 0cd4 01       		.byte	0x1
 1926 0cd5 57000000 		.4byte	0x57
 1927 0cd9 00000000 		.4byte	.LFB13
ARM GAS  /var/folders/dt/0wfd0knj7gs46m8vwfzktm600000gn/T//ccGwj6lP.s 			page 35


 1928 0cdd 04000000 		.4byte	.LFE13
 1929 0ce1 02       		.byte	0x2
 1930 0ce2 7D       		.byte	0x7d
 1931 0ce3 00       		.sleb128 0
 1932 0ce4 01       		.byte	0x1
 1933 0ce5 030D0000 		.4byte	0xd03
 1934 0ce9 1D       		.uleb128 0x1d
 1935 0cea 7200     		.ascii	"r\000"
 1936 0cec 01       		.byte	0x1
 1937 0ced AF       		.byte	0xaf
 1938 0cee AC040000 		.4byte	0x4ac
 1939 0cf2 A2010000 		.4byte	.LLST13
 1940 0cf6 1F       		.uleb128 0x1f
 1941 0cf7 666400   		.ascii	"fd\000"
 1942 0cfa 01       		.byte	0x1
 1943 0cfb AF       		.byte	0xaf
 1944 0cfc 57000000 		.4byte	0x57
 1945 0d00 01       		.byte	0x1
 1946 0d01 51       		.byte	0x51
 1947 0d02 00       		.byte	0
 1948 0d03 25       		.uleb128 0x25
 1949 0d04 01       		.byte	0x1
 1950 0d05 D3020000 		.4byte	.LASF160
 1951 0d09 08       		.byte	0x8
 1952 0d0a 52       		.byte	0x52
 1953 0d0b 01       		.byte	0x1
 1954 0d0c 32010000 		.4byte	0x132
 1955 0d10 01       		.byte	0x1
 1956 0d11 1B0D0000 		.4byte	0xd1b
 1957 0d15 13       		.uleb128 0x13
 1958 0d16 29000000 		.4byte	0x29
 1959 0d1a 00       		.byte	0
 1960 0d1b 26       		.uleb128 0x26
 1961 0d1c 01       		.byte	0x1
 1962 0d1d 26030000 		.4byte	.LASF161
 1963 0d21 01       		.byte	0x1
 1964 0d22 32010000 		.4byte	0x132
 1965 0d26 01       		.byte	0x1
 1966 0d27 01       		.byte	0x1
 1967 0d28 13       		.uleb128 0x13
 1968 0d29 32010000 		.4byte	0x132
 1969 0d2d 13       		.uleb128 0x13
 1970 0d2e 57000000 		.4byte	0x57
 1971 0d32 13       		.uleb128 0x13
 1972 0d33 F0000000 		.4byte	0xf0
 1973 0d37 00       		.byte	0
 1974 0d38 00       		.byte	0
 1975              		.section	.debug_abbrev,"",%progbits
 1976              	.Ldebug_abbrev0:
 1977 0000 01       		.uleb128 0x1
 1978 0001 11       		.uleb128 0x11
 1979 0002 01       		.byte	0x1
 1980 0003 25       		.uleb128 0x25
 1981 0004 0E       		.uleb128 0xe
 1982 0005 13       		.uleb128 0x13
 1983 0006 0B       		.uleb128 0xb
 1984 0007 03       		.uleb128 0x3
ARM GAS  /var/folders/dt/0wfd0knj7gs46m8vwfzktm600000gn/T//ccGwj6lP.s 			page 36


 1985 0008 0E       		.uleb128 0xe
 1986 0009 1B       		.uleb128 0x1b
 1987 000a 0E       		.uleb128 0xe
 1988 000b 55       		.uleb128 0x55
 1989 000c 06       		.uleb128 0x6
 1990 000d 11       		.uleb128 0x11
 1991 000e 01       		.uleb128 0x1
 1992 000f 52       		.uleb128 0x52
 1993 0010 01       		.uleb128 0x1
 1994 0011 10       		.uleb128 0x10
 1995 0012 06       		.uleb128 0x6
 1996 0013 00       		.byte	0
 1997 0014 00       		.byte	0
 1998 0015 02       		.uleb128 0x2
 1999 0016 16       		.uleb128 0x16
 2000 0017 00       		.byte	0
 2001 0018 03       		.uleb128 0x3
 2002 0019 0E       		.uleb128 0xe
 2003 001a 3A       		.uleb128 0x3a
 2004 001b 0B       		.uleb128 0xb
 2005 001c 3B       		.uleb128 0x3b
 2006 001d 0B       		.uleb128 0xb
 2007 001e 49       		.uleb128 0x49
 2008 001f 13       		.uleb128 0x13
 2009 0020 00       		.byte	0
 2010 0021 00       		.byte	0
 2011 0022 03       		.uleb128 0x3
 2012 0023 24       		.uleb128 0x24
 2013 0024 00       		.byte	0
 2014 0025 0B       		.uleb128 0xb
 2015 0026 0B       		.uleb128 0xb
 2016 0027 3E       		.uleb128 0x3e
 2017 0028 0B       		.uleb128 0xb
 2018 0029 03       		.uleb128 0x3
 2019 002a 0E       		.uleb128 0xe
 2020 002b 00       		.byte	0
 2021 002c 00       		.byte	0
 2022 002d 04       		.uleb128 0x4
 2023 002e 24       		.uleb128 0x24
 2024 002f 00       		.byte	0
 2025 0030 0B       		.uleb128 0xb
 2026 0031 0B       		.uleb128 0xb
 2027 0032 3E       		.uleb128 0x3e
 2028 0033 0B       		.uleb128 0xb
 2029 0034 03       		.uleb128 0x3
 2030 0035 08       		.uleb128 0x8
 2031 0036 00       		.byte	0
 2032 0037 00       		.byte	0
 2033 0038 05       		.uleb128 0x5
 2034 0039 16       		.uleb128 0x16
 2035 003a 00       		.byte	0
 2036 003b 03       		.uleb128 0x3
 2037 003c 0E       		.uleb128 0xe
 2038 003d 3A       		.uleb128 0x3a
 2039 003e 0B       		.uleb128 0xb
 2040 003f 3B       		.uleb128 0x3b
 2041 0040 05       		.uleb128 0x5
ARM GAS  /var/folders/dt/0wfd0knj7gs46m8vwfzktm600000gn/T//ccGwj6lP.s 			page 37


 2042 0041 49       		.uleb128 0x49
 2043 0042 13       		.uleb128 0x13
 2044 0043 00       		.byte	0
 2045 0044 00       		.byte	0
 2046 0045 06       		.uleb128 0x6
 2047 0046 17       		.uleb128 0x17
 2048 0047 01       		.byte	0x1
 2049 0048 0B       		.uleb128 0xb
 2050 0049 0B       		.uleb128 0xb
 2051 004a 3A       		.uleb128 0x3a
 2052 004b 0B       		.uleb128 0xb
 2053 004c 3B       		.uleb128 0x3b
 2054 004d 0B       		.uleb128 0xb
 2055 004e 01       		.uleb128 0x1
 2056 004f 13       		.uleb128 0x13
 2057 0050 00       		.byte	0
 2058 0051 00       		.byte	0
 2059 0052 07       		.uleb128 0x7
 2060 0053 0D       		.uleb128 0xd
 2061 0054 00       		.byte	0
 2062 0055 03       		.uleb128 0x3
 2063 0056 0E       		.uleb128 0xe
 2064 0057 3A       		.uleb128 0x3a
 2065 0058 0B       		.uleb128 0xb
 2066 0059 3B       		.uleb128 0x3b
 2067 005a 0B       		.uleb128 0xb
 2068 005b 49       		.uleb128 0x49
 2069 005c 13       		.uleb128 0x13
 2070 005d 00       		.byte	0
 2071 005e 00       		.byte	0
 2072 005f 08       		.uleb128 0x8
 2073 0060 01       		.uleb128 0x1
 2074 0061 01       		.byte	0x1
 2075 0062 49       		.uleb128 0x49
 2076 0063 13       		.uleb128 0x13
 2077 0064 01       		.uleb128 0x1
 2078 0065 13       		.uleb128 0x13
 2079 0066 00       		.byte	0
 2080 0067 00       		.byte	0
 2081 0068 09       		.uleb128 0x9
 2082 0069 21       		.uleb128 0x21
 2083 006a 00       		.byte	0
 2084 006b 49       		.uleb128 0x49
 2085 006c 13       		.uleb128 0x13
 2086 006d 2F       		.uleb128 0x2f
 2087 006e 0B       		.uleb128 0xb
 2088 006f 00       		.byte	0
 2089 0070 00       		.byte	0
 2090 0071 0A       		.uleb128 0xa
 2091 0072 13       		.uleb128 0x13
 2092 0073 01       		.byte	0x1
 2093 0074 0B       		.uleb128 0xb
 2094 0075 0B       		.uleb128 0xb
 2095 0076 3A       		.uleb128 0x3a
 2096 0077 0B       		.uleb128 0xb
 2097 0078 3B       		.uleb128 0x3b
 2098 0079 0B       		.uleb128 0xb
ARM GAS  /var/folders/dt/0wfd0knj7gs46m8vwfzktm600000gn/T//ccGwj6lP.s 			page 38


 2099 007a 01       		.uleb128 0x1
 2100 007b 13       		.uleb128 0x13
 2101 007c 00       		.byte	0
 2102 007d 00       		.byte	0
 2103 007e 0B       		.uleb128 0xb
 2104 007f 0D       		.uleb128 0xd
 2105 0080 00       		.byte	0
 2106 0081 03       		.uleb128 0x3
 2107 0082 0E       		.uleb128 0xe
 2108 0083 3A       		.uleb128 0x3a
 2109 0084 0B       		.uleb128 0xb
 2110 0085 3B       		.uleb128 0x3b
 2111 0086 0B       		.uleb128 0xb
 2112 0087 49       		.uleb128 0x49
 2113 0088 13       		.uleb128 0x13
 2114 0089 38       		.uleb128 0x38
 2115 008a 0A       		.uleb128 0xa
 2116 008b 00       		.byte	0
 2117 008c 00       		.byte	0
 2118 008d 0C       		.uleb128 0xc
 2119 008e 0F       		.uleb128 0xf
 2120 008f 00       		.byte	0
 2121 0090 0B       		.uleb128 0xb
 2122 0091 0B       		.uleb128 0xb
 2123 0092 00       		.byte	0
 2124 0093 00       		.byte	0
 2125 0094 0D       		.uleb128 0xd
 2126 0095 13       		.uleb128 0x13
 2127 0096 01       		.byte	0x1
 2128 0097 03       		.uleb128 0x3
 2129 0098 0E       		.uleb128 0xe
 2130 0099 0B       		.uleb128 0xb
 2131 009a 0B       		.uleb128 0xb
 2132 009b 3A       		.uleb128 0x3a
 2133 009c 0B       		.uleb128 0xb
 2134 009d 3B       		.uleb128 0x3b
 2135 009e 0B       		.uleb128 0xb
 2136 009f 01       		.uleb128 0x1
 2137 00a0 13       		.uleb128 0x13
 2138 00a1 00       		.byte	0
 2139 00a2 00       		.byte	0
 2140 00a3 0E       		.uleb128 0xe
 2141 00a4 0D       		.uleb128 0xd
 2142 00a5 00       		.byte	0
 2143 00a6 03       		.uleb128 0x3
 2144 00a7 08       		.uleb128 0x8
 2145 00a8 3A       		.uleb128 0x3a
 2146 00a9 0B       		.uleb128 0xb
 2147 00aa 3B       		.uleb128 0x3b
 2148 00ab 0B       		.uleb128 0xb
 2149 00ac 49       		.uleb128 0x49
 2150 00ad 13       		.uleb128 0x13
 2151 00ae 38       		.uleb128 0x38
 2152 00af 0A       		.uleb128 0xa
 2153 00b0 00       		.byte	0
 2154 00b1 00       		.byte	0
 2155 00b2 0F       		.uleb128 0xf
ARM GAS  /var/folders/dt/0wfd0knj7gs46m8vwfzktm600000gn/T//ccGwj6lP.s 			page 39


 2156 00b3 0F       		.uleb128 0xf
 2157 00b4 00       		.byte	0
 2158 00b5 0B       		.uleb128 0xb
 2159 00b6 0B       		.uleb128 0xb
 2160 00b7 49       		.uleb128 0x49
 2161 00b8 13       		.uleb128 0x13
 2162 00b9 00       		.byte	0
 2163 00ba 00       		.byte	0
 2164 00bb 10       		.uleb128 0x10
 2165 00bc 13       		.uleb128 0x13
 2166 00bd 01       		.byte	0x1
 2167 00be 03       		.uleb128 0x3
 2168 00bf 0E       		.uleb128 0xe
 2169 00c0 0B       		.uleb128 0xb
 2170 00c1 05       		.uleb128 0x5
 2171 00c2 3A       		.uleb128 0x3a
 2172 00c3 0B       		.uleb128 0xb
 2173 00c4 3B       		.uleb128 0x3b
 2174 00c5 0B       		.uleb128 0xb
 2175 00c6 01       		.uleb128 0x1
 2176 00c7 13       		.uleb128 0x13
 2177 00c8 00       		.byte	0
 2178 00c9 00       		.byte	0
 2179 00ca 11       		.uleb128 0x11
 2180 00cb 15       		.uleb128 0x15
 2181 00cc 00       		.byte	0
 2182 00cd 27       		.uleb128 0x27
 2183 00ce 0C       		.uleb128 0xc
 2184 00cf 00       		.byte	0
 2185 00d0 00       		.byte	0
 2186 00d1 12       		.uleb128 0x12
 2187 00d2 15       		.uleb128 0x15
 2188 00d3 01       		.byte	0x1
 2189 00d4 27       		.uleb128 0x27
 2190 00d5 0C       		.uleb128 0xc
 2191 00d6 49       		.uleb128 0x49
 2192 00d7 13       		.uleb128 0x13
 2193 00d8 01       		.uleb128 0x1
 2194 00d9 13       		.uleb128 0x13
 2195 00da 00       		.byte	0
 2196 00db 00       		.byte	0
 2197 00dc 13       		.uleb128 0x13
 2198 00dd 05       		.uleb128 0x5
 2199 00de 00       		.byte	0
 2200 00df 49       		.uleb128 0x49
 2201 00e0 13       		.uleb128 0x13
 2202 00e1 00       		.byte	0
 2203 00e2 00       		.byte	0
 2204 00e3 14       		.uleb128 0x14
 2205 00e4 13       		.uleb128 0x13
 2206 00e5 01       		.byte	0x1
 2207 00e6 03       		.uleb128 0x3
 2208 00e7 0E       		.uleb128 0xe
 2209 00e8 0B       		.uleb128 0xb
 2210 00e9 05       		.uleb128 0x5
 2211 00ea 3A       		.uleb128 0x3a
 2212 00eb 0B       		.uleb128 0xb
ARM GAS  /var/folders/dt/0wfd0knj7gs46m8vwfzktm600000gn/T//ccGwj6lP.s 			page 40


 2213 00ec 3B       		.uleb128 0x3b
 2214 00ed 05       		.uleb128 0x5
 2215 00ee 01       		.uleb128 0x1
 2216 00ef 13       		.uleb128 0x13
 2217 00f0 00       		.byte	0
 2218 00f1 00       		.byte	0
 2219 00f2 15       		.uleb128 0x15
 2220 00f3 0D       		.uleb128 0xd
 2221 00f4 00       		.byte	0
 2222 00f5 03       		.uleb128 0x3
 2223 00f6 0E       		.uleb128 0xe
 2224 00f7 3A       		.uleb128 0x3a
 2225 00f8 0B       		.uleb128 0xb
 2226 00f9 3B       		.uleb128 0x3b
 2227 00fa 05       		.uleb128 0x5
 2228 00fb 49       		.uleb128 0x49
 2229 00fc 13       		.uleb128 0x13
 2230 00fd 38       		.uleb128 0x38
 2231 00fe 0A       		.uleb128 0xa
 2232 00ff 00       		.byte	0
 2233 0100 00       		.byte	0
 2234 0101 16       		.uleb128 0x16
 2235 0102 26       		.uleb128 0x26
 2236 0103 00       		.byte	0
 2237 0104 49       		.uleb128 0x49
 2238 0105 13       		.uleb128 0x13
 2239 0106 00       		.byte	0
 2240 0107 00       		.byte	0
 2241 0108 17       		.uleb128 0x17
 2242 0109 13       		.uleb128 0x13
 2243 010a 01       		.byte	0x1
 2244 010b 03       		.uleb128 0x3
 2245 010c 0E       		.uleb128 0xe
 2246 010d 0B       		.uleb128 0xb
 2247 010e 0B       		.uleb128 0xb
 2248 010f 3A       		.uleb128 0x3a
 2249 0110 0B       		.uleb128 0xb
 2250 0111 3B       		.uleb128 0x3b
 2251 0112 05       		.uleb128 0x5
 2252 0113 01       		.uleb128 0x1
 2253 0114 13       		.uleb128 0x13
 2254 0115 00       		.byte	0
 2255 0116 00       		.byte	0
 2256 0117 18       		.uleb128 0x18
 2257 0118 13       		.uleb128 0x13
 2258 0119 01       		.byte	0x1
 2259 011a 0B       		.uleb128 0xb
 2260 011b 0B       		.uleb128 0xb
 2261 011c 3A       		.uleb128 0x3a
 2262 011d 0B       		.uleb128 0xb
 2263 011e 3B       		.uleb128 0x3b
 2264 011f 05       		.uleb128 0x5
 2265 0120 01       		.uleb128 0x1
 2266 0121 13       		.uleb128 0x13
 2267 0122 00       		.byte	0
 2268 0123 00       		.byte	0
 2269 0124 19       		.uleb128 0x19
ARM GAS  /var/folders/dt/0wfd0knj7gs46m8vwfzktm600000gn/T//ccGwj6lP.s 			page 41


 2270 0125 17       		.uleb128 0x17
 2271 0126 01       		.byte	0x1
 2272 0127 0B       		.uleb128 0xb
 2273 0128 0B       		.uleb128 0xb
 2274 0129 3A       		.uleb128 0x3a
 2275 012a 0B       		.uleb128 0xb
 2276 012b 3B       		.uleb128 0x3b
 2277 012c 05       		.uleb128 0x5
 2278 012d 01       		.uleb128 0x1
 2279 012e 13       		.uleb128 0x13
 2280 012f 00       		.byte	0
 2281 0130 00       		.byte	0
 2282 0131 1A       		.uleb128 0x1a
 2283 0132 0D       		.uleb128 0xd
 2284 0133 00       		.byte	0
 2285 0134 03       		.uleb128 0x3
 2286 0135 0E       		.uleb128 0xe
 2287 0136 3A       		.uleb128 0x3a
 2288 0137 0B       		.uleb128 0xb
 2289 0138 3B       		.uleb128 0x3b
 2290 0139 05       		.uleb128 0x5
 2291 013a 49       		.uleb128 0x49
 2292 013b 13       		.uleb128 0x13
 2293 013c 00       		.byte	0
 2294 013d 00       		.byte	0
 2295 013e 1B       		.uleb128 0x1b
 2296 013f 15       		.uleb128 0x15
 2297 0140 01       		.byte	0x1
 2298 0141 27       		.uleb128 0x27
 2299 0142 0C       		.uleb128 0xc
 2300 0143 01       		.uleb128 0x1
 2301 0144 13       		.uleb128 0x13
 2302 0145 00       		.byte	0
 2303 0146 00       		.byte	0
 2304 0147 1C       		.uleb128 0x1c
 2305 0148 2E       		.uleb128 0x2e
 2306 0149 01       		.byte	0x1
 2307 014a 3F       		.uleb128 0x3f
 2308 014b 0C       		.uleb128 0xc
 2309 014c 03       		.uleb128 0x3
 2310 014d 0E       		.uleb128 0xe
 2311 014e 3A       		.uleb128 0x3a
 2312 014f 0B       		.uleb128 0xb
 2313 0150 3B       		.uleb128 0x3b
 2314 0151 0B       		.uleb128 0xb
 2315 0152 27       		.uleb128 0x27
 2316 0153 0C       		.uleb128 0xc
 2317 0154 49       		.uleb128 0x49
 2318 0155 13       		.uleb128 0x13
 2319 0156 11       		.uleb128 0x11
 2320 0157 01       		.uleb128 0x1
 2321 0158 12       		.uleb128 0x12
 2322 0159 01       		.uleb128 0x1
 2323 015a 40       		.uleb128 0x40
 2324 015b 0A       		.uleb128 0xa
 2325 015c 9742     		.uleb128 0x2117
 2326 015e 0C       		.uleb128 0xc
ARM GAS  /var/folders/dt/0wfd0knj7gs46m8vwfzktm600000gn/T//ccGwj6lP.s 			page 42


 2327 015f 01       		.uleb128 0x1
 2328 0160 13       		.uleb128 0x13
 2329 0161 00       		.byte	0
 2330 0162 00       		.byte	0
 2331 0163 1D       		.uleb128 0x1d
 2332 0164 05       		.uleb128 0x5
 2333 0165 00       		.byte	0
 2334 0166 03       		.uleb128 0x3
 2335 0167 08       		.uleb128 0x8
 2336 0168 3A       		.uleb128 0x3a
 2337 0169 0B       		.uleb128 0xb
 2338 016a 3B       		.uleb128 0x3b
 2339 016b 0B       		.uleb128 0xb
 2340 016c 49       		.uleb128 0x49
 2341 016d 13       		.uleb128 0x13
 2342 016e 02       		.uleb128 0x2
 2343 016f 06       		.uleb128 0x6
 2344 0170 00       		.byte	0
 2345 0171 00       		.byte	0
 2346 0172 1E       		.uleb128 0x1e
 2347 0173 05       		.uleb128 0x5
 2348 0174 00       		.byte	0
 2349 0175 03       		.uleb128 0x3
 2350 0176 0E       		.uleb128 0xe
 2351 0177 3A       		.uleb128 0x3a
 2352 0178 0B       		.uleb128 0xb
 2353 0179 3B       		.uleb128 0x3b
 2354 017a 0B       		.uleb128 0xb
 2355 017b 49       		.uleb128 0x49
 2356 017c 13       		.uleb128 0x13
 2357 017d 02       		.uleb128 0x2
 2358 017e 0A       		.uleb128 0xa
 2359 017f 00       		.byte	0
 2360 0180 00       		.byte	0
 2361 0181 1F       		.uleb128 0x1f
 2362 0182 05       		.uleb128 0x5
 2363 0183 00       		.byte	0
 2364 0184 03       		.uleb128 0x3
 2365 0185 08       		.uleb128 0x8
 2366 0186 3A       		.uleb128 0x3a
 2367 0187 0B       		.uleb128 0xb
 2368 0188 3B       		.uleb128 0x3b
 2369 0189 0B       		.uleb128 0xb
 2370 018a 49       		.uleb128 0x49
 2371 018b 13       		.uleb128 0x13
 2372 018c 02       		.uleb128 0x2
 2373 018d 0A       		.uleb128 0xa
 2374 018e 00       		.byte	0
 2375 018f 00       		.byte	0
 2376 0190 20       		.uleb128 0x20
 2377 0191 2E       		.uleb128 0x2e
 2378 0192 01       		.byte	0x1
 2379 0193 3F       		.uleb128 0x3f
 2380 0194 0C       		.uleb128 0xc
 2381 0195 03       		.uleb128 0x3
 2382 0196 0E       		.uleb128 0xe
 2383 0197 3A       		.uleb128 0x3a
ARM GAS  /var/folders/dt/0wfd0knj7gs46m8vwfzktm600000gn/T//ccGwj6lP.s 			page 43


 2384 0198 0B       		.uleb128 0xb
 2385 0199 3B       		.uleb128 0x3b
 2386 019a 0B       		.uleb128 0xb
 2387 019b 27       		.uleb128 0x27
 2388 019c 0C       		.uleb128 0xc
 2389 019d 49       		.uleb128 0x49
 2390 019e 13       		.uleb128 0x13
 2391 019f 11       		.uleb128 0x11
 2392 01a0 01       		.uleb128 0x1
 2393 01a1 12       		.uleb128 0x12
 2394 01a2 01       		.uleb128 0x1
 2395 01a3 40       		.uleb128 0x40
 2396 01a4 06       		.uleb128 0x6
 2397 01a5 9742     		.uleb128 0x2117
 2398 01a7 0C       		.uleb128 0xc
 2399 01a8 01       		.uleb128 0x1
 2400 01a9 13       		.uleb128 0x13
 2401 01aa 00       		.byte	0
 2402 01ab 00       		.byte	0
 2403 01ac 21       		.uleb128 0x21
 2404 01ad 05       		.uleb128 0x5
 2405 01ae 00       		.byte	0
 2406 01af 03       		.uleb128 0x3
 2407 01b0 0E       		.uleb128 0xe
 2408 01b1 3A       		.uleb128 0x3a
 2409 01b2 0B       		.uleb128 0xb
 2410 01b3 3B       		.uleb128 0x3b
 2411 01b4 0B       		.uleb128 0xb
 2412 01b5 49       		.uleb128 0x49
 2413 01b6 13       		.uleb128 0x13
 2414 01b7 02       		.uleb128 0x2
 2415 01b8 06       		.uleb128 0x6
 2416 01b9 00       		.byte	0
 2417 01ba 00       		.byte	0
 2418 01bb 22       		.uleb128 0x22
 2419 01bc 34       		.uleb128 0x34
 2420 01bd 00       		.byte	0
 2421 01be 03       		.uleb128 0x3
 2422 01bf 08       		.uleb128 0x8
 2423 01c0 3A       		.uleb128 0x3a
 2424 01c1 0B       		.uleb128 0xb
 2425 01c2 3B       		.uleb128 0x3b
 2426 01c3 0B       		.uleb128 0xb
 2427 01c4 49       		.uleb128 0x49
 2428 01c5 13       		.uleb128 0x13
 2429 01c6 02       		.uleb128 0x2
 2430 01c7 06       		.uleb128 0x6
 2431 01c8 00       		.byte	0
 2432 01c9 00       		.byte	0
 2433 01ca 23       		.uleb128 0x23
 2434 01cb 898201   		.uleb128 0x4109
 2435 01ce 01       		.byte	0x1
 2436 01cf 11       		.uleb128 0x11
 2437 01d0 01       		.uleb128 0x1
 2438 01d1 31       		.uleb128 0x31
 2439 01d2 13       		.uleb128 0x13
 2440 01d3 00       		.byte	0
ARM GAS  /var/folders/dt/0wfd0knj7gs46m8vwfzktm600000gn/T//ccGwj6lP.s 			page 44


 2441 01d4 00       		.byte	0
 2442 01d5 24       		.uleb128 0x24
 2443 01d6 8A8201   		.uleb128 0x410a
 2444 01d9 00       		.byte	0
 2445 01da 02       		.uleb128 0x2
 2446 01db 0A       		.uleb128 0xa
 2447 01dc 9142     		.uleb128 0x2111
 2448 01de 0A       		.uleb128 0xa
 2449 01df 00       		.byte	0
 2450 01e0 00       		.byte	0
 2451 01e1 25       		.uleb128 0x25
 2452 01e2 2E       		.uleb128 0x2e
 2453 01e3 01       		.byte	0x1
 2454 01e4 3F       		.uleb128 0x3f
 2455 01e5 0C       		.uleb128 0xc
 2456 01e6 03       		.uleb128 0x3
 2457 01e7 0E       		.uleb128 0xe
 2458 01e8 3A       		.uleb128 0x3a
 2459 01e9 0B       		.uleb128 0xb
 2460 01ea 3B       		.uleb128 0x3b
 2461 01eb 0B       		.uleb128 0xb
 2462 01ec 27       		.uleb128 0x27
 2463 01ed 0C       		.uleb128 0xc
 2464 01ee 49       		.uleb128 0x49
 2465 01ef 13       		.uleb128 0x13
 2466 01f0 3C       		.uleb128 0x3c
 2467 01f1 0C       		.uleb128 0xc
 2468 01f2 01       		.uleb128 0x1
 2469 01f3 13       		.uleb128 0x13
 2470 01f4 00       		.byte	0
 2471 01f5 00       		.byte	0
 2472 01f6 26       		.uleb128 0x26
 2473 01f7 2E       		.uleb128 0x2e
 2474 01f8 01       		.byte	0x1
 2475 01f9 3F       		.uleb128 0x3f
 2476 01fa 0C       		.uleb128 0xc
 2477 01fb 03       		.uleb128 0x3
 2478 01fc 0E       		.uleb128 0xe
 2479 01fd 27       		.uleb128 0x27
 2480 01fe 0C       		.uleb128 0xc
 2481 01ff 49       		.uleb128 0x49
 2482 0200 13       		.uleb128 0x13
 2483 0201 34       		.uleb128 0x34
 2484 0202 0C       		.uleb128 0xc
 2485 0203 3C       		.uleb128 0x3c
 2486 0204 0C       		.uleb128 0xc
 2487 0205 00       		.byte	0
 2488 0206 00       		.byte	0
 2489 0207 00       		.byte	0
 2490              		.section	.debug_loc,"",%progbits
 2491              	.Ldebug_loc0:
 2492              	.LLST0:
 2493 0000 00000000 		.4byte	.LVL0
 2494 0004 08000000 		.4byte	.LVL2
 2495 0008 0100     		.2byte	0x1
 2496 000a 50       		.byte	0x50
 2497 000b 08000000 		.4byte	.LVL2
ARM GAS  /var/folders/dt/0wfd0knj7gs46m8vwfzktm600000gn/T//ccGwj6lP.s 			page 45


 2498 000f 0A000000 		.4byte	.LFE7
 2499 0013 0400     		.2byte	0x4
 2500 0015 F3       		.byte	0xf3
 2501 0016 01       		.uleb128 0x1
 2502 0017 50       		.byte	0x50
 2503 0018 9F       		.byte	0x9f
 2504 0019 00000000 		.4byte	0
 2505 001d 00000000 		.4byte	0
 2506              	.LLST1:
 2507 0021 00000000 		.4byte	.LVL0
 2508 0025 02000000 		.4byte	.LVL1
 2509 0029 0100     		.2byte	0x1
 2510 002b 53       		.byte	0x53
 2511 002c 02000000 		.4byte	.LVL1
 2512 0030 0A000000 		.4byte	.LFE7
 2513 0034 0400     		.2byte	0x4
 2514 0036 F3       		.byte	0xf3
 2515 0037 01       		.uleb128 0x1
 2516 0038 53       		.byte	0x53
 2517 0039 9F       		.byte	0x9f
 2518 003a 00000000 		.4byte	0
 2519 003e 00000000 		.4byte	0
 2520              	.LLST2:
 2521 0042 00000000 		.4byte	.LVL3
 2522 0046 02000000 		.4byte	.LVL4
 2523 004a 0100     		.2byte	0x1
 2524 004c 50       		.byte	0x50
 2525 004d 02000000 		.4byte	.LVL4
 2526 0051 04000000 		.4byte	.LFE8
 2527 0055 0400     		.2byte	0x4
 2528 0057 F3       		.byte	0xf3
 2529 0058 01       		.uleb128 0x1
 2530 0059 50       		.byte	0x50
 2531 005a 9F       		.byte	0x9f
 2532 005b 00000000 		.4byte	0
 2533 005f 00000000 		.4byte	0
 2534              	.LLST3:
 2535 0063 00000000 		.4byte	.LVL5
 2536 0067 02000000 		.4byte	.LVL6
 2537 006b 0100     		.2byte	0x1
 2538 006d 50       		.byte	0x50
 2539 006e 02000000 		.4byte	.LVL6
 2540 0072 04000000 		.4byte	.LFE9
 2541 0076 0400     		.2byte	0x4
 2542 0078 F3       		.byte	0xf3
 2543 0079 01       		.uleb128 0x1
 2544 007a 50       		.byte	0x50
 2545 007b 9F       		.byte	0x9f
 2546 007c 00000000 		.4byte	0
 2547 0080 00000000 		.4byte	0
 2548              	.LLST4:
 2549 0084 00000000 		.4byte	.LVL7
 2550 0088 02000000 		.4byte	.LVL8
 2551 008c 0100     		.2byte	0x1
 2552 008e 50       		.byte	0x50
 2553 008f 02000000 		.4byte	.LVL8
 2554 0093 04000000 		.4byte	.LFE10
ARM GAS  /var/folders/dt/0wfd0knj7gs46m8vwfzktm600000gn/T//ccGwj6lP.s 			page 46


 2555 0097 0400     		.2byte	0x4
 2556 0099 F3       		.byte	0xf3
 2557 009a 01       		.uleb128 0x1
 2558 009b 50       		.byte	0x50
 2559 009c 9F       		.byte	0x9f
 2560 009d 00000000 		.4byte	0
 2561 00a1 00000000 		.4byte	0
 2562              	.LLST5:
 2563 00a5 00000000 		.4byte	.LFB11
 2564 00a9 02000000 		.4byte	.LCFI0
 2565 00ad 0200     		.2byte	0x2
 2566 00af 7D       		.byte	0x7d
 2567 00b0 00       		.sleb128 0
 2568 00b1 02000000 		.4byte	.LCFI0
 2569 00b5 18000000 		.4byte	.LFE11
 2570 00b9 0200     		.2byte	0x2
 2571 00bb 7D       		.byte	0x7d
 2572 00bc 08       		.sleb128 8
 2573 00bd 00000000 		.4byte	0
 2574 00c1 00000000 		.4byte	0
 2575              	.LLST6:
 2576 00c5 00000000 		.4byte	.LVL9
 2577 00c9 06000000 		.4byte	.LVL10
 2578 00cd 0100     		.2byte	0x1
 2579 00cf 50       		.byte	0x50
 2580 00d0 06000000 		.4byte	.LVL10
 2581 00d4 18000000 		.4byte	.LFE11
 2582 00d8 0100     		.2byte	0x1
 2583 00da 54       		.byte	0x54
 2584 00db 00000000 		.4byte	0
 2585 00df 00000000 		.4byte	0
 2586              	.LLST7:
 2587 00e3 00000000 		.4byte	.LVL9
 2588 00e7 09000000 		.4byte	.LVL11-1
 2589 00eb 0100     		.2byte	0x1
 2590 00ed 51       		.byte	0x51
 2591 00ee 09000000 		.4byte	.LVL11-1
 2592 00f2 18000000 		.4byte	.LFE11
 2593 00f6 0400     		.2byte	0x4
 2594 00f8 F3       		.byte	0xf3
 2595 00f9 01       		.uleb128 0x1
 2596 00fa 51       		.byte	0x51
 2597 00fb 9F       		.byte	0x9f
 2598 00fc 00000000 		.4byte	0
 2599 0100 00000000 		.4byte	0
 2600              	.LLST8:
 2601 0104 0A000000 		.4byte	.LVL11
 2602 0108 16000000 		.4byte	.LVL12
 2603 010c 0100     		.2byte	0x1
 2604 010e 50       		.byte	0x50
 2605 010f 00000000 		.4byte	0
 2606 0113 00000000 		.4byte	0
 2607              	.LLST9:
 2608 0117 00000000 		.4byte	.LFB12
 2609 011b 02000000 		.4byte	.LCFI1
 2610 011f 0200     		.2byte	0x2
 2611 0121 7D       		.byte	0x7d
ARM GAS  /var/folders/dt/0wfd0knj7gs46m8vwfzktm600000gn/T//ccGwj6lP.s 			page 47


 2612 0122 00       		.sleb128 0
 2613 0123 02000000 		.4byte	.LCFI1
 2614 0127 18000000 		.4byte	.LFE12
 2615 012b 0200     		.2byte	0x2
 2616 012d 7D       		.byte	0x7d
 2617 012e 08       		.sleb128 8
 2618 012f 00000000 		.4byte	0
 2619 0133 00000000 		.4byte	0
 2620              	.LLST10:
 2621 0137 00000000 		.4byte	.LVL13
 2622 013b 04000000 		.4byte	.LVL14
 2623 013f 0100     		.2byte	0x1
 2624 0141 50       		.byte	0x50
 2625 0142 04000000 		.4byte	.LVL14
 2626 0146 18000000 		.4byte	.LFE12
 2627 014a 0400     		.2byte	0x4
 2628 014c F3       		.byte	0xf3
 2629 014d 01       		.uleb128 0x1
 2630 014e 50       		.byte	0x50
 2631 014f 9F       		.byte	0x9f
 2632 0150 00000000 		.4byte	0
 2633 0154 00000000 		.4byte	0
 2634              	.LLST11:
 2635 0158 00000000 		.4byte	.LVL13
 2636 015c 08000000 		.4byte	.LVL15
 2637 0160 0100     		.2byte	0x1
 2638 0162 51       		.byte	0x51
 2639 0163 08000000 		.4byte	.LVL15
 2640 0167 18000000 		.4byte	.LFE12
 2641 016b 0400     		.2byte	0x4
 2642 016d F3       		.byte	0xf3
 2643 016e 01       		.uleb128 0x1
 2644 016f 51       		.byte	0x51
 2645 0170 9F       		.byte	0x9f
 2646 0171 00000000 		.4byte	0
 2647 0175 00000000 		.4byte	0
 2648              	.LLST12:
 2649 0179 00000000 		.4byte	.LVL13
 2650 017d 0A000000 		.4byte	.LVL16
 2651 0181 0100     		.2byte	0x1
 2652 0183 52       		.byte	0x52
 2653 0184 0A000000 		.4byte	.LVL16
 2654 0188 0D000000 		.4byte	.LVL17-1
 2655 018c 0100     		.2byte	0x1
 2656 018e 50       		.byte	0x50
 2657 018f 0D000000 		.4byte	.LVL17-1
 2658 0193 18000000 		.4byte	.LFE12
 2659 0197 0100     		.2byte	0x1
 2660 0199 54       		.byte	0x54
 2661 019a 00000000 		.4byte	0
 2662 019e 00000000 		.4byte	0
 2663              	.LLST13:
 2664 01a2 00000000 		.4byte	.LVL18
 2665 01a6 02000000 		.4byte	.LVL19
 2666 01aa 0100     		.2byte	0x1
 2667 01ac 50       		.byte	0x50
 2668 01ad 02000000 		.4byte	.LVL19
ARM GAS  /var/folders/dt/0wfd0knj7gs46m8vwfzktm600000gn/T//ccGwj6lP.s 			page 48


 2669 01b1 04000000 		.4byte	.LFE13
 2670 01b5 0400     		.2byte	0x4
 2671 01b7 F3       		.byte	0xf3
 2672 01b8 01       		.uleb128 0x1
 2673 01b9 50       		.byte	0x50
 2674 01ba 9F       		.byte	0x9f
 2675 01bb 00000000 		.4byte	0
 2676 01bf 00000000 		.4byte	0
 2677              		.section	.debug_aranges,"",%progbits
 2678 0000 4C000000 		.4byte	0x4c
 2679 0004 0200     		.2byte	0x2
 2680 0006 00000000 		.4byte	.Ldebug_info0
 2681 000a 04       		.byte	0x4
 2682 000b 00       		.byte	0
 2683 000c 0000     		.2byte	0
 2684 000e 0000     		.2byte	0
 2685 0010 00000000 		.4byte	.LFB7
 2686 0014 0A000000 		.4byte	.LFE7-.LFB7
 2687 0018 00000000 		.4byte	.LFB8
 2688 001c 04000000 		.4byte	.LFE8-.LFB8
 2689 0020 00000000 		.4byte	.LFB9
 2690 0024 04000000 		.4byte	.LFE9-.LFB9
 2691 0028 00000000 		.4byte	.LFB10
 2692 002c 04000000 		.4byte	.LFE10-.LFB10
 2693 0030 00000000 		.4byte	.LFB11
 2694 0034 18000000 		.4byte	.LFE11-.LFB11
 2695 0038 00000000 		.4byte	.LFB12
 2696 003c 18000000 		.4byte	.LFE12-.LFB12
 2697 0040 00000000 		.4byte	.LFB13
 2698 0044 04000000 		.4byte	.LFE13-.LFB13
 2699 0048 00000000 		.4byte	0
 2700 004c 00000000 		.4byte	0
 2701              		.section	.debug_ranges,"",%progbits
 2702              	.Ldebug_ranges0:
 2703 0000 00000000 		.4byte	.LFB7
 2704 0004 0A000000 		.4byte	.LFE7
 2705 0008 00000000 		.4byte	.LFB8
 2706 000c 04000000 		.4byte	.LFE8
 2707 0010 00000000 		.4byte	.LFB9
 2708 0014 04000000 		.4byte	.LFE9
 2709 0018 00000000 		.4byte	.LFB10
 2710 001c 04000000 		.4byte	.LFE10
 2711 0020 00000000 		.4byte	.LFB11
 2712 0024 18000000 		.4byte	.LFE11
 2713 0028 00000000 		.4byte	.LFB12
 2714 002c 18000000 		.4byte	.LFE12
 2715 0030 00000000 		.4byte	.LFB13
 2716 0034 04000000 		.4byte	.LFE13
 2717 0038 00000000 		.4byte	0
 2718 003c 00000000 		.4byte	0
 2719              		.section	.debug_line,"",%progbits
 2720              	.Ldebug_line0:
 2721 0000 F7010000 		.section	.debug_str,"MS",%progbits,1
 2721      02006701 
 2721      00000201 
 2721      FB0E0D00 
 2721      01010101 
ARM GAS  /var/folders/dt/0wfd0knj7gs46m8vwfzktm600000gn/T//ccGwj6lP.s 			page 49


 2722              	.LASF40:
 2723 0000 5F6F6E5F 		.ascii	"_on_exit_args\000"
 2723      65786974 
 2723      5F617267 
 2723      7300
 2724              	.LASF108:
 2725 000e 5F776374 		.ascii	"_wctomb_state\000"
 2725      6F6D625F 
 2725      73746174 
 2725      6500
 2726              	.LASF156:
 2727 001c 5F697361 		.ascii	"_isatty_r\000"
 2727      7474795F 
 2727      7200
 2728              	.LASF105:
 2729 0026 5F723438 		.ascii	"_r48\000"
 2729      00
 2730              	.LASF151:
 2731 002b 5F777269 		.ascii	"_write_r\000"
 2731      74655F72 
 2731      00
 2732              	.LASF110:
 2733 0034 5F736967 		.ascii	"_signal_buf\000"
 2733      6E616C5F 
 2733      62756600 
 2734              	.LASF0:
 2735 0040 756E7369 		.ascii	"unsigned int\000"
 2735      676E6564 
 2735      20696E74 
 2735      00
 2736              	.LASF145:
 2737 004d 73745F62 		.ascii	"st_blksize\000"
 2737      6C6B7369 
 2737      7A6500
 2738              	.LASF54:
 2739 0058 5F6C6266 		.ascii	"_lbfsize\000"
 2739      73697A65 
 2739      00
 2740              	.LASF52:
 2741 0061 5F666C61 		.ascii	"_flags\000"
 2741      677300
 2742              	.LASF69:
 2743 0068 5F657272 		.ascii	"_errno\000"
 2743      6E6F00
 2744              	.LASF8:
 2745 006f 5F4C4F43 		.ascii	"_LOCK_RECURSIVE_T\000"
 2745      4B5F5245 
 2745      43555253 
 2745      4956455F 
 2745      5400
 2746              	.LASF56:
 2747 0081 5F726561 		.ascii	"_read\000"
 2747      6400
 2748              	.LASF112:
 2749 0087 5F6D6272 		.ascii	"_mbrlen_state\000"
 2749      6C656E5F 
 2749      73746174 
ARM GAS  /var/folders/dt/0wfd0knj7gs46m8vwfzktm600000gn/T//ccGwj6lP.s 			page 50


 2749      6500
 2750              	.LASF71:
 2751 0095 5F737464 		.ascii	"_stdout\000"
 2751      6F757400 
 2752              	.LASF14:
 2753 009d 5F66706F 		.ascii	"_fpos_t\000"
 2753      735F7400 
 2754              	.LASF47:
 2755 00a5 5F666E73 		.ascii	"_fns\000"
 2755      00
 2756              	.LASF55:
 2757 00aa 5F636F6F 		.ascii	"_cookie\000"
 2757      6B696500 
 2758              	.LASF29:
 2759 00b2 5F426967 		.ascii	"_Bigint\000"
 2759      696E7400 
 2760              	.LASF37:
 2761 00ba 5F5F746D 		.ascii	"__tm_wday\000"
 2761      5F776461 
 2761      7900
 2762              	.LASF79:
 2763 00c4 5F726573 		.ascii	"_result\000"
 2763      756C7400 
 2764              	.LASF123:
 2765 00cc 696E6F5F 		.ascii	"ino_t\000"
 2765      7400
 2766              	.LASF33:
 2767 00d2 5F5F746D 		.ascii	"__tm_hour\000"
 2767      5F686F75 
 2767      7200
 2768              	.LASF149:
 2769 00dc 5F726561 		.ascii	"_read_r\000"
 2769      645F7200 
 2770              	.LASF157:
 2771 00e4 474E5520 		.ascii	"GNU C 4.7.2\000"
 2771      4320342E 
 2771      372E3200 
 2772              	.LASF19:
 2773 00f0 5F5F636F 		.ascii	"__count\000"
 2773      756E7400 
 2774              	.LASF32:
 2775 00f8 5F5F746D 		.ascii	"__tm_min\000"
 2775      5F6D696E 
 2775      00
 2776              	.LASF118:
 2777 0101 5F6E6578 		.ascii	"_nextf\000"
 2777      746600
 2778              	.LASF158:
 2779 0108 2E2E2F2E 		.ascii	"../../os/various/syscalls.c\000"
 2779      2E2F6F73 
 2779      2F766172 
 2779      696F7573 
 2779      2F737973 
 2780              	.LASF95:
 2781 0124 5F72616E 		.ascii	"_rand48\000"
 2781      64343800 
 2782              	.LASF80:
ARM GAS  /var/folders/dt/0wfd0knj7gs46m8vwfzktm600000gn/T//ccGwj6lP.s 			page 51


 2783 012c 5F726573 		.ascii	"_result_k\000"
 2783      756C745F 
 2783      6B00
 2784              	.LASF6:
 2785 0136 6C6F6E67 		.ascii	"long long unsigned int\000"
 2785      206C6F6E 
 2785      6720756E 
 2785      7369676E 
 2785      65642069 
 2786              	.LASF146:
 2787 014d 73745F62 		.ascii	"st_blocks\000"
 2787      6C6F636B 
 2787      7300
 2788              	.LASF101:
 2789 0157 5F617363 		.ascii	"_asctime_buf\000"
 2789      74696D65 
 2789      5F627566 
 2789      00
 2790              	.LASF51:
 2791 0164 5F5F7346 		.ascii	"__sFILE\000"
 2791      494C4500 
 2792              	.LASF28:
 2793 016c 5F776473 		.ascii	"_wds\000"
 2793      00
 2794              	.LASF153:
 2795 0171 5F736272 		.ascii	"_sbrk_r\000"
 2795      6B5F7200 
 2796              	.LASF141:
 2797 0179 73745F6D 		.ascii	"st_mtime\000"
 2797      74696D65 
 2797      00
 2798              	.LASF91:
 2799 0182 5F5F4649 		.ascii	"__FILE\000"
 2799      4C4500
 2800              	.LASF63:
 2801 0189 5F6F6666 		.ascii	"_offset\000"
 2801      73657400 
 2802              	.LASF130:
 2803 0191 73746174 		.ascii	"stat\000"
 2803      00
 2804              	.LASF74:
 2805 0196 5F656D65 		.ascii	"_emergency\000"
 2805      7267656E 
 2805      637900
 2806              	.LASF131:
 2807 01a1 73745F64 		.ascii	"st_dev\000"
 2807      657600
 2808              	.LASF7:
 2809 01a8 73697A65 		.ascii	"size_t\000"
 2809      5F7400
 2810              	.LASF31:
 2811 01af 5F5F746D 		.ascii	"__tm_sec\000"
 2811      5F736563 
 2811      00
 2812              	.LASF38:
 2813 01b8 5F5F746D 		.ascii	"__tm_yday\000"
 2813      5F796461 
ARM GAS  /var/folders/dt/0wfd0knj7gs46m8vwfzktm600000gn/T//ccGwj6lP.s 			page 52


 2813      7900
 2814              	.LASF73:
 2815 01c2 5F696E63 		.ascii	"_inc\000"
 2815      00
 2816              	.LASF46:
 2817 01c7 5F696E64 		.ascii	"_ind\000"
 2817      00
 2818              	.LASF136:
 2819 01cc 73745F67 		.ascii	"st_gid\000"
 2819      696400
 2820              	.LASF25:
 2821 01d3 5F6E6578 		.ascii	"_next\000"
 2821      7400
 2822              	.LASF133:
 2823 01d9 73745F6D 		.ascii	"st_mode\000"
 2823      6F646500 
 2824              	.LASF114:
 2825 01e1 5F6D6273 		.ascii	"_mbsrtowcs_state\000"
 2825      72746F77 
 2825      63735F73 
 2825      74617465 
 2825      00
 2826              	.LASF134:
 2827 01f2 73745F6E 		.ascii	"st_nlink\000"
 2827      6C696E6B 
 2827      00
 2828              	.LASF155:
 2829 01fb 5F667374 		.ascii	"_fstat_r\000"
 2829      61745F72 
 2829      00
 2830              	.LASF154:
 2831 0204 696E6372 		.ascii	"incr\000"
 2831      00
 2832              	.LASF20:
 2833 0209 5F5F7661 		.ascii	"__value\000"
 2833      6C756500 
 2834              	.LASF81:
 2835 0211 5F703573 		.ascii	"_p5s\000"
 2835      00
 2836              	.LASF116:
 2837 0216 5F776373 		.ascii	"_wcsrtombs_state\000"
 2837      72746F6D 
 2837      62735F73 
 2837      74617465 
 2837      00
 2838              	.LASF106:
 2839 0227 5F6D626C 		.ascii	"_mblen_state\000"
 2839      656E5F73 
 2839      74617465 
 2839      00
 2840              	.LASF90:
 2841 0234 63686172 		.ascii	"char\000"
 2841      00
 2842              	.LASF34:
 2843 0239 5F5F746D 		.ascii	"__tm_mday\000"
 2843      5F6D6461 
 2843      7900
ARM GAS  /var/folders/dt/0wfd0knj7gs46m8vwfzktm600000gn/T//ccGwj6lP.s 			page 53


 2844              	.LASF87:
 2845 0243 5F736967 		.ascii	"_sig_func\000"
 2845      5F66756E 
 2845      6300
 2846              	.LASF113:
 2847 024d 5F6D6272 		.ascii	"_mbrtowc_state\000"
 2847      746F7763 
 2847      5F737461 
 2847      746500
 2848              	.LASF86:
 2849 025c 5F617465 		.ascii	"_atexit0\000"
 2849      78697430 
 2849      00
 2850              	.LASF135:
 2851 0265 73745F75 		.ascii	"st_uid\000"
 2851      696400
 2852              	.LASF22:
 2853 026c 5F666C6F 		.ascii	"_flock_t\000"
 2853      636B5F74 
 2853      00
 2854              	.LASF139:
 2855 0275 73745F61 		.ascii	"st_atime\000"
 2855      74696D65 
 2855      00
 2856              	.LASF148:
 2857 027e 66696C65 		.ascii	"file\000"
 2857      00
 2858              	.LASF16:
 2859 0283 5F5F7763 		.ascii	"__wch\000"
 2859      6800
 2860              	.LASF94:
 2861 0289 5F696F62 		.ascii	"_iobs\000"
 2861      7300
 2862              	.LASF121:
 2863 028f 74696D65 		.ascii	"time_t\000"
 2863      5F7400
 2864              	.LASF59:
 2865 0296 5F636C6F 		.ascii	"_close\000"
 2865      736500
 2866              	.LASF77:
 2867 029d 5F5F7364 		.ascii	"__sdidinit\000"
 2867      6964696E 
 2867      697400
 2868              	.LASF132:
 2869 02a8 73745F69 		.ascii	"st_ino\000"
 2869      6E6F00
 2870              	.LASF70:
 2871 02af 5F737464 		.ascii	"_stdin\000"
 2871      696E00
 2872              	.LASF103:
 2873 02b6 5F67616D 		.ascii	"_gamma_signgam\000"
 2873      6D615F73 
 2873      69676E67 
 2873      616D00
 2874              	.LASF5:
 2875 02c5 6C6F6E67 		.ascii	"long long int\000"
 2875      206C6F6E 
ARM GAS  /var/folders/dt/0wfd0knj7gs46m8vwfzktm600000gn/T//ccGwj6lP.s 			page 54


 2875      6720696E 
 2875      7400
 2876              	.LASF160:
 2877 02d3 6368436F 		.ascii	"chCoreAlloc\000"
 2877      7265416C 
 2877      6C6F6300 
 2878              	.LASF49:
 2879 02df 5F626173 		.ascii	"_base\000"
 2879      6500
 2880              	.LASF82:
 2881 02e5 5F667265 		.ascii	"_freelist\000"
 2881      656C6973 
 2881      7400
 2882              	.LASF11:
 2883 02ef 5F5F6465 		.ascii	"__dev_t\000"
 2883      765F7400 
 2884              	.LASF97:
 2885 02f7 5F6D756C 		.ascii	"_mult\000"
 2885      7400
 2886              	.LASF23:
 2887 02fd 5F5F554C 		.ascii	"__ULong\000"
 2887      6F6E6700 
 2888              	.LASF115:
 2889 0305 5F776372 		.ascii	"_wcrtomb_state\000"
 2889      746F6D62 
 2889      5F737461 
 2889      746500
 2890              	.LASF126:
 2891 0314 7569645F 		.ascii	"uid_t\000"
 2891      7400
 2892              	.LASF125:
 2893 031a 6465765F 		.ascii	"dev_t\000"
 2893      7400
 2894              	.LASF53:
 2895 0320 5F66696C 		.ascii	"_file\000"
 2895      6500
 2896              	.LASF161:
 2897 0326 6D656D73 		.ascii	"memset\000"
 2897      657400
 2898              	.LASF78:
 2899 032d 5F5F636C 		.ascii	"__cleanup\000"
 2899      65616E75 
 2899      7000
 2900              	.LASF21:
 2901 0337 5F6D6273 		.ascii	"_mbstate_t\000"
 2901      74617465 
 2901      5F7400
 2902              	.LASF39:
 2903 0342 5F5F746D 		.ascii	"__tm_isdst\000"
 2903      5F697364 
 2903      737400
 2904              	.LASF117:
 2905 034d 5F685F65 		.ascii	"_h_errno\000"
 2905      72726E6F 
 2905      00
 2906              	.LASF140:
 2907 0356 73745F73 		.ascii	"st_spare1\000"
ARM GAS  /var/folders/dt/0wfd0knj7gs46m8vwfzktm600000gn/T//ccGwj6lP.s 			page 55


 2907      70617265 
 2907      3100
 2908              	.LASF142:
 2909 0360 73745F73 		.ascii	"st_spare2\000"
 2909      70617265 
 2909      3200
 2910              	.LASF144:
 2911 036a 73745F73 		.ascii	"st_spare3\000"
 2911      70617265 
 2911      3300
 2912              	.LASF147:
 2913 0374 73745F73 		.ascii	"st_spare4\000"
 2913      70617265 
 2913      3400
 2914              	.LASF152:
 2915 037e 5F636C6F 		.ascii	"_close_r\000"
 2915      73655F72 
 2915      00
 2916              	.LASF35:
 2917 0387 5F5F746D 		.ascii	"__tm_mon\000"
 2917      5F6D6F6E 
 2917      00
 2918              	.LASF150:
 2919 0390 5F6C7365 		.ascii	"_lseek_r\000"
 2919      656B5F72 
 2919      00
 2920              	.LASF13:
 2921 0399 5F5F6769 		.ascii	"__gid_t\000"
 2921      645F7400 
 2922              	.LASF57:
 2923 03a1 5F777269 		.ascii	"_write\000"
 2923      746500
 2924              	.LASF127:
 2925 03a8 6769645F 		.ascii	"gid_t\000"
 2925      7400
 2926              	.LASF45:
 2927 03ae 5F617465 		.ascii	"_atexit\000"
 2927      78697400 
 2928              	.LASF66:
 2929 03b6 5F6D6273 		.ascii	"_mbstate\000"
 2929      74617465 
 2929      00
 2930              	.LASF3:
 2931 03bf 73686F72 		.ascii	"short int\000"
 2931      7420696E 
 2931      7400
 2932              	.LASF10:
 2933 03c9 6C6F6E67 		.ascii	"long int\000"
 2933      20696E74 
 2933      00
 2934              	.LASF89:
 2935 03d2 5F5F7366 		.ascii	"__sf\000"
 2935      00
 2936              	.LASF27:
 2937 03d7 5F736967 		.ascii	"_sign\000"
 2937      6E00
 2938              	.LASF76:
ARM GAS  /var/folders/dt/0wfd0knj7gs46m8vwfzktm600000gn/T//ccGwj6lP.s 			page 56


 2939 03dd 5F637572 		.ascii	"_current_locale\000"
 2939      72656E74 
 2939      5F6C6F63 
 2939      616C6500 
 2940              	.LASF64:
 2941 03ed 5F646174 		.ascii	"_data\000"
 2941      6100
 2942              	.LASF17:
 2943 03f3 5F5F7763 		.ascii	"__wchb\000"
 2943      686200
 2944              	.LASF36:
 2945 03fa 5F5F746D 		.ascii	"__tm_year\000"
 2945      5F796561 
 2945      7200
 2946              	.LASF102:
 2947 0404 5F6C6F63 		.ascii	"_localtime_buf\000"
 2947      616C7469 
 2947      6D655F62 
 2947      756600
 2948              	.LASF12:
 2949 0413 5F5F7569 		.ascii	"__uid_t\000"
 2949      645F7400 
 2950              	.LASF143:
 2951 041b 73745F63 		.ascii	"st_ctime\000"
 2951      74696D65 
 2951      00
 2952              	.LASF85:
 2953 0424 5F6E6577 		.ascii	"_new\000"
 2953      00
 2954              	.LASF83:
 2955 0429 5F637674 		.ascii	"_cvtlen\000"
 2955      6C656E00 
 2956              	.LASF26:
 2957 0431 5F6D6178 		.ascii	"_maxwds\000"
 2957      77647300 
 2958              	.LASF109:
 2959 0439 5F6C3634 		.ascii	"_l64a_buf\000"
 2959      615F6275 
 2959      6600
 2960              	.LASF75:
 2961 0443 5F637572 		.ascii	"_current_category\000"
 2961      72656E74 
 2961      5F636174 
 2961      65676F72 
 2961      7900
 2962              	.LASF122:
 2963 0455 63616464 		.ascii	"caddr_t\000"
 2963      725F7400 
 2964              	.LASF62:
 2965 045d 5F626C6B 		.ascii	"_blksize\000"
 2965      73697A65 
 2965      00
 2966              	.LASF30:
 2967 0466 5F5F746D 		.ascii	"__tm\000"
 2967      00
 2968              	.LASF65:
 2969 046b 5F6C6F63 		.ascii	"_lock\000"
ARM GAS  /var/folders/dt/0wfd0knj7gs46m8vwfzktm600000gn/T//ccGwj6lP.s 			page 57


 2969      6B00
 2970              	.LASF18:
 2971 0471 73697A65 		.ascii	"sizetype\000"
 2971      74797065 
 2971      00
 2972              	.LASF24:
 2973 047a 6C6F6E67 		.ascii	"long unsigned int\000"
 2973      20756E73 
 2973      69676E65 
 2973      6420696E 
 2973      7400
 2974              	.LASF93:
 2975 048c 5F6E696F 		.ascii	"_niobs\000"
 2975      627300
 2976              	.LASF15:
 2977 0493 77696E74 		.ascii	"wint_t\000"
 2977      5F7400
 2978              	.LASF42:
 2979 049a 5F64736F 		.ascii	"_dso_handle\000"
 2979      5F68616E 
 2979      646C6500 
 2980              	.LASF129:
 2981 04a6 6E6C696E 		.ascii	"nlink_t\000"
 2981      6B5F7400 
 2982              	.LASF84:
 2983 04ae 5F637674 		.ascii	"_cvtbuf\000"
 2983      62756600 
 2984              	.LASF2:
 2985 04b6 756E7369 		.ascii	"unsigned char\000"
 2985      676E6564 
 2985      20636861 
 2985      7200
 2986              	.LASF111:
 2987 04c4 5F676574 		.ascii	"_getdate_err\000"
 2987      64617465 
 2987      5F657272 
 2987      00
 2988              	.LASF98:
 2989 04d1 5F616464 		.ascii	"_add\000"
 2989      00
 2990              	.LASF120:
 2991 04d6 5F756E75 		.ascii	"_unused\000"
 2991      73656400 
 2992              	.LASF48:
 2993 04de 5F5F7362 		.ascii	"__sbuf\000"
 2993      756600
 2994              	.LASF159:
 2995 04e5 2F557365 		.ascii	"/Users/toxygen/Projects/UAV/Control_sytem/sw/autopi"
 2995      72732F74 
 2995      6F787967 
 2995      656E2F50 
 2995      726F6A65 
 2996 0518 6C6F742F 		.ascii	"lot/2.4.3/demos/test2\000"
 2996      322E342E 
 2996      332F6465 
 2996      6D6F732F 
 2996      74657374 
ARM GAS  /var/folders/dt/0wfd0knj7gs46m8vwfzktm600000gn/T//ccGwj6lP.s 			page 58


 2997              	.LASF138:
 2998 052e 73745F73 		.ascii	"st_size\000"
 2998      697A6500 
 2999              	.LASF92:
 3000 0536 5F676C75 		.ascii	"_glue\000"
 3000      6500
 3001              	.LASF88:
 3002 053c 5F5F7367 		.ascii	"__sglue\000"
 3002      6C756500 
 3003              	.LASF100:
 3004 0544 5F737472 		.ascii	"_strtok_last\000"
 3004      746F6B5F 
 3004      6C617374 
 3004      00
 3005              	.LASF107:
 3006 0551 5F6D6274 		.ascii	"_mbtowc_state\000"
 3006      6F77635F 
 3006      73746174 
 3006      6500
 3007              	.LASF41:
 3008 055f 5F666E61 		.ascii	"_fnargs\000"
 3008      72677300 
 3009              	.LASF1:
 3010 0567 7369676E 		.ascii	"signed char\000"
 3010      65642063 
 3010      68617200 
 3011              	.LASF128:
 3012 0573 6D6F6465 		.ascii	"mode_t\000"
 3012      5F7400
 3013              	.LASF68:
 3014 057a 5F726565 		.ascii	"_reent\000"
 3014      6E7400
 3015              	.LASF124:
 3016 0581 6F66665F 		.ascii	"off_t\000"
 3016      7400
 3017              	.LASF4:
 3018 0587 73686F72 		.ascii	"short unsigned int\000"
 3018      7420756E 
 3018      7369676E 
 3018      65642069 
 3018      6E7400
 3019              	.LASF43:
 3020 059a 5F666E74 		.ascii	"_fntypes\000"
 3020      79706573 
 3020      00
 3021              	.LASF50:
 3022 05a3 5F73697A 		.ascii	"_size\000"
 3022      6500
 3023              	.LASF9:
 3024 05a9 5F6F6666 		.ascii	"_off_t\000"
 3024      5F7400
 3025              	.LASF61:
 3026 05b0 5F6E6275 		.ascii	"_nbuf\000"
 3026      6600
 3027              	.LASF99:
 3028 05b6 5F756E75 		.ascii	"_unused_rand\000"
 3028      7365645F 
ARM GAS  /var/folders/dt/0wfd0knj7gs46m8vwfzktm600000gn/T//ccGwj6lP.s 			page 59


 3028      72616E64 
 3028      00
 3029              	.LASF137:
 3030 05c3 73745F72 		.ascii	"st_rdev\000"
 3030      64657600 
 3031              	.LASF67:
 3032 05cb 5F666C61 		.ascii	"_flags2\000"
 3032      67733200 
 3033              	.LASF44:
 3034 05d3 5F69735F 		.ascii	"_is_cxa\000"
 3034      63786100 
 3035              	.LASF96:
 3036 05db 5F736565 		.ascii	"_seed\000"
 3036      6400
 3037              	.LASF104:
 3038 05e1 5F72616E 		.ascii	"_rand_next\000"
 3038      645F6E65 
 3038      787400
 3039              	.LASF58:
 3040 05ec 5F736565 		.ascii	"_seek\000"
 3040      6B00
 3041              	.LASF72:
 3042 05f2 5F737464 		.ascii	"_stderr\000"
 3042      65727200 
 3043              	.LASF119:
 3044 05fa 5F6E6D61 		.ascii	"_nmalloc\000"
 3044      6C6C6F63 
 3044      00
 3045              	.LASF60:
 3046 0603 5F756275 		.ascii	"_ubuf\000"
 3046      6600
 3047              		.ident	"GCC: (GNU) 4.7.2"
ARM GAS  /var/folders/dt/0wfd0knj7gs46m8vwfzktm600000gn/T//ccGwj6lP.s 			page 60


DEFINED SYMBOLS
                            *ABS*:0000000000000000 syscalls.c
/var/folders/dt/0wfd0knj7gs46m8vwfzktm600000gn/T//ccGwj6lP.s:19     .text._read_r:0000000000000000 $t
/var/folders/dt/0wfd0knj7gs46m8vwfzktm600000gn/T//ccGwj6lP.s:25     .text._read_r:0000000000000000 _read_r
/var/folders/dt/0wfd0knj7gs46m8vwfzktm600000gn/T//ccGwj6lP.s:46     .text._lseek_r:0000000000000000 $t
/var/folders/dt/0wfd0knj7gs46m8vwfzktm600000gn/T//ccGwj6lP.s:52     .text._lseek_r:0000000000000000 _lseek_r
/var/folders/dt/0wfd0knj7gs46m8vwfzktm600000gn/T//ccGwj6lP.s:68     .text._write_r:0000000000000000 $t
/var/folders/dt/0wfd0knj7gs46m8vwfzktm600000gn/T//ccGwj6lP.s:74     .text._write_r:0000000000000000 _write_r
/var/folders/dt/0wfd0knj7gs46m8vwfzktm600000gn/T//ccGwj6lP.s:90     .text._close_r:0000000000000000 $t
/var/folders/dt/0wfd0knj7gs46m8vwfzktm600000gn/T//ccGwj6lP.s:96     .text._close_r:0000000000000000 _close_r
/var/folders/dt/0wfd0knj7gs46m8vwfzktm600000gn/T//ccGwj6lP.s:112    .text._sbrk_r:0000000000000000 $t
/var/folders/dt/0wfd0knj7gs46m8vwfzktm600000gn/T//ccGwj6lP.s:118    .text._sbrk_r:0000000000000000 _sbrk_r
/var/folders/dt/0wfd0knj7gs46m8vwfzktm600000gn/T//ccGwj6lP.s:154    .text._fstat_r:0000000000000000 $t
/var/folders/dt/0wfd0knj7gs46m8vwfzktm600000gn/T//ccGwj6lP.s:160    .text._fstat_r:0000000000000000 _fstat_r
/var/folders/dt/0wfd0knj7gs46m8vwfzktm600000gn/T//ccGwj6lP.s:194    .text._isatty_r:0000000000000000 $t
/var/folders/dt/0wfd0knj7gs46m8vwfzktm600000gn/T//ccGwj6lP.s:200    .text._isatty_r:0000000000000000 _isatty_r
                     .debug_frame:0000000000000010 $d

UNDEFINED SYMBOLS
chCoreAlloc
memset
