ARM GAS  /var/folders/dt/0wfd0knj7gs46m8vwfzktm600000gn/T//ccCHWovw.s 			page 1


   1              		.syntax unified
   2              		.cpu cortex-m3
   3              		.fpu softvfp
   4              		.eabi_attribute 20, 1
   5              		.eabi_attribute 21, 1
   6              		.eabi_attribute 23, 3
   7              		.eabi_attribute 24, 1
   8              		.eabi_attribute 25, 1
   9              		.eabi_attribute 26, 1
  10              		.eabi_attribute 30, 2
  11              		.eabi_attribute 34, 1
  12              		.eabi_attribute 18, 4
  13              		.thumb
  14              		.file	"testqueues.c"
  15              		.text
  16              	.Ltext0:
  17              		.cfi_sections	.debug_frame
  18              		.section	.text.notify,"ax",%progbits
  19              		.align	2
  20              		.p2align 4,,15
  21              		.thumb
  22              		.thumb_func
  23              		.type	notify, %function
  24              	notify:
  25              	.LFB7:
  26              		.file 1 "../../test/testqueues.c"
  27              		.loc 1 68 0
  28              		.cfi_startproc
  29              		@ args = 0, pretend = 0, frame = 0
  30              		@ frame_needed = 0, uses_anonymous_args = 0
  31              		@ link register save eliminated.
  32              	.LVL0:
  33 0000 7047     		bx	lr
  34              		.cfi_endproc
  35              	.LFE7:
  36              		.size	notify, .-notify
  37 0002 00BFAFF3 		.section	.text.thread2,"ax",%progbits
  37      0080AFF3 
  37      0080AFF3 
  37      0080
  38              		.align	2
  39              		.p2align 4,,15
  40              		.thumb
  41              		.thumb_func
  42              		.type	thread2, %function
  43              	thread2:
  44              	.LFB12:
  45              		.loc 1 181 0
  46              		.cfi_startproc
  47              		@ args = 0, pretend = 0, frame = 0
  48              		@ frame_needed = 0, uses_anonymous_args = 0
  49              	.LVL1:
  50              		.loc 1 184 0
  51 0000 40F20000 		movw	r0, #:lower16:.LANCHOR0
  52              	.LVL2:
  53              		.loc 1 181 0
  54 0004 08B5     		push	{r3, lr}
ARM GAS  /var/folders/dt/0wfd0knj7gs46m8vwfzktm600000gn/T//ccCHWovw.s 			page 2


  55              	.LCFI0:
  56              		.cfi_def_cfa_offset 8
  57              		.cfi_offset 3, -8
  58              		.cfi_offset 14, -4
  59              		.loc 1 184 0
  60 0006 0021     		movs	r1, #0
  61 0008 C822     		movs	r2, #200
  62 000a C0F20000 		movt	r0, #:upper16:.LANCHOR0
  63 000e FFF7FEFF 		bl	chOQPutTimeout
  64              	.LVL3:
  65              		.loc 1 186 0
  66 0012 0020     		movs	r0, #0
  67 0014 08BD     		pop	{r3, pc}
  68              		.cfi_endproc
  69              	.LFE12:
  70              		.size	thread2, .-thread2
  71 0016 00BFAFF3 		.section	.text.queues2_setup,"ax",%progbits
  71      0080AFF3 
  71      0080
  72              		.align	2
  73              		.p2align 4,,15
  74              		.thumb
  75              		.thumb_func
  76              		.type	queues2_setup, %function
  77              	queues2_setup:
  78              	.LFB11:
  79              		.loc 1 176 0
  80              		.cfi_startproc
  81              		@ args = 0, pretend = 0, frame = 0
  82              		@ frame_needed = 0, uses_anonymous_args = 0
  83              		@ link register save eliminated.
  84              		.loc 1 178 0
  85 0000 40F20003 		movw	r3, #:lower16:wa
  86 0004 C0F20003 		movt	r3, #:upper16:wa
  87 0008 1968     		ldr	r1, [r3, #0]
  88 000a 40F20000 		movw	r0, #:lower16:.LANCHOR0
  89 000e 40F20003 		movw	r3, #:lower16:notify
  90 0012 C0F20000 		movt	r0, #:upper16:.LANCHOR0
  91 0016 0422     		movs	r2, #4
  92 0018 C0F20003 		movt	r3, #:upper16:notify
  93              		.loc 1 179 0
  94              		.loc 1 178 0
  95 001c FFF7FEBF 		b	chOQInit
  96              	.LVL4:
  97              		.cfi_endproc
  98              	.LFE11:
  99              		.size	queues2_setup, .-queues2_setup
 100              		.section	.text.thread1,"ax",%progbits
 101              		.align	2
 102              		.p2align 4,,15
 103              		.thumb
 104              		.thumb_func
 105              		.type	thread1, %function
 106              	thread1:
 107              	.LFB9:
 108              		.loc 1 94 0
 109              		.cfi_startproc
ARM GAS  /var/folders/dt/0wfd0knj7gs46m8vwfzktm600000gn/T//ccCHWovw.s 			page 3


 110              		@ args = 0, pretend = 0, frame = 0
 111              		@ frame_needed = 0, uses_anonymous_args = 0
 112              	.LVL5:
 113              		.loc 1 97 0
 114 0000 40F20000 		movw	r0, #:lower16:.LANCHOR1
 115              	.LVL6:
 116              		.loc 1 94 0
 117 0004 08B5     		push	{r3, lr}
 118              	.LCFI1:
 119              		.cfi_def_cfa_offset 8
 120              		.cfi_offset 3, -8
 121              		.cfi_offset 14, -4
 122              		.loc 1 97 0
 123 0006 C821     		movs	r1, #200
 124 0008 C0F20000 		movt	r0, #:upper16:.LANCHOR1
 125 000c FFF7FEFF 		bl	chIQGetTimeout
 126              	.LVL7:
 127              		.loc 1 99 0
 128 0010 0020     		movs	r0, #0
 129 0012 08BD     		pop	{r3, pc}
 130              		.cfi_endproc
 131              	.LFE9:
 132              		.size	thread1, .-thread1
 133 0014 AFF30080 		.section	.text.queues1_setup,"ax",%progbits
 133      AFF30080 
 133      AFF30080 
 134              		.align	2
 135              		.p2align 4,,15
 136              		.thumb
 137              		.thumb_func
 138              		.type	queues1_setup, %function
 139              	queues1_setup:
 140              	.LFB8:
 141              		.loc 1 89 0
 142              		.cfi_startproc
 143              		@ args = 0, pretend = 0, frame = 0
 144              		@ frame_needed = 0, uses_anonymous_args = 0
 145              		@ link register save eliminated.
 146              		.loc 1 91 0
 147 0000 40F20003 		movw	r3, #:lower16:wa
 148 0004 C0F20003 		movt	r3, #:upper16:wa
 149 0008 1968     		ldr	r1, [r3, #0]
 150 000a 40F20000 		movw	r0, #:lower16:.LANCHOR1
 151 000e 40F20003 		movw	r3, #:lower16:notify
 152 0012 C0F20000 		movt	r0, #:upper16:.LANCHOR1
 153 0016 0422     		movs	r2, #4
 154 0018 C0F20003 		movt	r3, #:upper16:notify
 155              		.loc 1 92 0
 156              		.loc 1 91 0
 157 001c FFF7FEBF 		b	chIQInit
 158              	.LVL8:
 159              		.cfi_endproc
 160              	.LFE8:
 161              		.size	queues1_setup, .-queues1_setup
 162              		.section	.text.queues2_execute,"ax",%progbits
 163              		.align	2
 164              		.p2align 4,,15
ARM GAS  /var/folders/dt/0wfd0knj7gs46m8vwfzktm600000gn/T//ccCHWovw.s 			page 4


 165              		.thumb
 166              		.thumb_func
 167              		.type	queues2_execute, %function
 168              	queues2_execute:
 169              	.LFB13:
 170              		.loc 1 188 0
 171              		.cfi_startproc
 172              		@ args = 0, pretend = 0, frame = 0
 173              		@ frame_needed = 0, uses_anonymous_args = 0
 174 0000 2DE9F041 		push	{r4, r5, r6, r7, r8, lr}
 175              	.LCFI2:
 176              		.cfi_def_cfa_offset 24
 177              		.cfi_offset 4, -24
 178              		.cfi_offset 5, -20
 179              		.cfi_offset 6, -16
 180              		.cfi_offset 7, -12
 181              		.cfi_offset 8, -8
 182              		.cfi_offset 14, -4
 183              	.LBB96:
 184              		.loc 1 193 0
 185 0004 2023     		movs	r3, #32
 186              	.LVL9:
 187              	.LBE96:
 188              		.loc 1 188 0
 189 0006 82B0     		sub	sp, sp, #8
 190              	.LCFI3:
 191              		.cfi_def_cfa_offset 32
 192              	.LBB97:
 193              		.loc 1 193 0
 194              	@ 193 "../../test/testqueues.c" 1
 195 0008 83F31188 		msr     BASEPRI, r3
 196              	@ 0 "" 2
 197              	.LVL10:
 198              		.thumb
 199              	.LBE97:
 200 000c 904B     		ldr	r3, .L31
 201              	.LVL11:
 202 000e 5969     		ldr	r1, [r3, #20]
 203 0010 9A69     		ldr	r2, [r3, #24]
 204 0012 9142     		cmp	r1, r2
 205 0014 63D0     		beq	.L29
 206 0016 0021     		movs	r1, #0
 207              	.L7:
 208              		.loc 1 193 0 is_stmt 0 discriminator 4
 209 0018 0120     		movs	r0, #1
 210 001a FFF7FEFF 		bl	_test_assert
 211              	.LVL12:
 212 001e 0028     		cmp	r0, #0
 213 0020 3AD1     		bne	.L27
 214              	.LBB98:
 215              	.LBB99:
 216              	.LBB100:
 217              		.loc 1 193 0
 218 0022 0346     		mov	r3, r0
 219              	.LVL13:
 220              	@ 193 "../../test/testqueues.c" 1
 221 0024 83F31188 		msr     BASEPRI, r3
ARM GAS  /var/folders/dt/0wfd0knj7gs46m8vwfzktm600000gn/T//ccCHWovw.s 			page 5


 222              	@ 0 "" 2
 223              	.LVL14:
 224              		.thumb
 225 0028 4124     		movs	r4, #65
 226              	.LVL15:
 227              	.L10:
 228              	.LBE100:
 229              		.loc 1 197 0 is_stmt 1
 230 002a 894D     		ldr	r5, .L31
 231 002c 2146     		mov	r1, r4
 232 002e 0134     		adds	r4, r4, #1
 233 0030 2846     		mov	r0, r5
 234 0032 4FF0FF32 		mov	r2, #-1
 235 0036 E4B2     		uxtb	r4, r4
 236 0038 FFF7FEFF 		bl	chOQPutTimeout
 237              	.LVL16:
 238              		.loc 1 196 0
 239 003c 452C     		cmp	r4, #69
 240 003e F4D1     		bne	.L10
 241              	.LBB101:
 242              		.loc 1 198 0
 243 0040 2023     		movs	r3, #32
 244              	.LVL17:
 245              	@ 198 "../../test/testqueues.c" 1
 246 0042 83F31188 		msr     BASEPRI, r3
 247              	@ 0 "" 2
 248              	.LVL18:
 249              		.thumb
 250              	.LBE101:
 251 0046 A968     		ldr	r1, [r5, #8]
 252 0048 0220     		movs	r0, #2
 253 004a D1F10101 		rsbs	r1, r1, #1
 254 004e 38BF     		it	cc
 255 0050 0021     		movcc	r1, #0
 256 0052 FFF7FEFF 		bl	_test_assert
 257              	.LVL19:
 258 0056 F8B9     		cbnz	r0, .L27
 259              	.LBB102:
 260 0058 0346     		mov	r3, r0
 261              	.LVL20:
 262              	@ 198 "../../test/testqueues.c" 1
 263 005a 83F31188 		msr     BASEPRI, r3
 264              	@ 0 "" 2
 265              	.LVL21:
 266              		.thumb
 267 005e 0424     		movs	r4, #4
 268              	.LVL22:
 269              	.L12:
 270              	.LBE102:
 271              	.LBB103:
 272              	.LBB104:
 273              		.loc 1 204 0
 274 0060 2023     		movs	r3, #32
 275              	.LVL23:
 276              	@ 204 "../../test/testqueues.c" 1
 277 0062 83F31188 		msr     BASEPRI, r3
 278              	@ 0 "" 2
ARM GAS  /var/folders/dt/0wfd0knj7gs46m8vwfzktm600000gn/T//ccCHWovw.s 			page 6


 279              	.LVL24:
 280              		.thumb
 281              	.LBE104:
 282              		.loc 1 205 0
 283 0066 7A4D     		ldr	r5, .L31
 284 0068 2846     		mov	r0, r5
 285 006a FFF7FEFF 		bl	chOQGetI
 286              	.LVL25:
 287              	.LBB105:
 288              		.loc 1 206 0
 289 006e 0023     		movs	r3, #0
 290              	.LVL26:
 291              	@ 206 "../../test/testqueues.c" 1
 292 0070 83F31188 		msr     BASEPRI, r3
 293              	@ 0 "" 2
 294              	.LVL27:
 295              		.thumb
 296              	.LBE105:
 297              		.loc 1 207 0
 298 0074 C0B2     		uxtb	r0, r0
 299              	.LVL28:
 300 0076 FFF7FEFF 		bl	test_emit_token
 301              	.LVL29:
 302              	.LBE103:
 303              		.loc 1 201 0
 304 007a 013C     		subs	r4, r4, #1
 305 007c F0D1     		bne	.L12
 306              	.LBB106:
 307              		.loc 1 209 0
 308 007e 2023     		movs	r3, #32
 309              	.LVL30:
 310              	@ 209 "../../test/testqueues.c" 1
 311 0080 83F31188 		msr     BASEPRI, r3
 312              	@ 0 "" 2
 313              	.LVL31:
 314              		.thumb
 315              	.LBE106:
 316 0084 6A69     		ldr	r2, [r5, #20]
 317 0086 AB69     		ldr	r3, [r5, #24]
 318              	.LVL32:
 319 0088 9A42     		cmp	r2, r3
 320 008a 18BF     		it	ne
 321 008c 2146     		movne	r1, r4
 322 008e 2BD0     		beq	.L30
 323              	.L13:
 324 0090 0320     		movs	r0, #3
 325 0092 FFF7FEFF 		bl	_test_assert
 326              	.LVL33:
 327 0096 28B1     		cbz	r0, .L14
 328              	.L27:
 329              	.LBB107:
 330 0098 0023     		movs	r3, #0
 331              	.LVL34:
 332              	@ 209 "../../test/testqueues.c" 1
 333 009a 83F31188 		msr     BASEPRI, r3
 334              	@ 0 "" 2
 335              	.LVL35:
ARM GAS  /var/folders/dt/0wfd0knj7gs46m8vwfzktm600000gn/T//ccCHWovw.s 			page 7


 336              		.thumb
 337              	.L6:
 338              	.LBE107:
 339              	.LBE99:
 340              	.LBE98:
 341              		.loc 1 236 0
 342 009e 02B0     		add	sp, sp, #8
 343 00a0 BDE8F081 		pop	{r4, r5, r6, r7, r8, pc}
 344              	.LVL36:
 345              	.L14:
 346              	.LBB129:
 347              	.LBB126:
 348              	.LBB108:
 349              		.loc 1 209 0
 350 00a4 0346     		mov	r3, r0
 351              	.LVL37:
 352              	@ 209 "../../test/testqueues.c" 1
 353 00a6 83F31188 		msr     BASEPRI, r3
 354              	@ 0 "" 2
 355              	.LVL38:
 356              		.thumb
 357              	.LBE108:
 358              		.loc 1 210 0
 359 00aa 0420     		movs	r0, #4
 360 00ac 6949     		ldr	r1, .L31+4
 361 00ae FFF7FEFF 		bl	_test_assert_sequence
 362              	.LVL39:
 363 00b2 0446     		mov	r4, r0
 364 00b4 0028     		cmp	r0, #0
 365 00b6 F2D1     		bne	.L6
 366              	.LBB109:
 367              		.loc 1 211 0
 368 00b8 2023     		movs	r3, #32
 369              	.LVL40:
 370              	@ 211 "../../test/testqueues.c" 1
 371 00ba 83F31188 		msr     BASEPRI, r3
 372              	@ 0 "" 2
 373              	.LVL41:
 374              		.thumb
 375              	.LBE109:
 376 00be 644D     		ldr	r5, .L31
 377 00c0 2846     		mov	r0, r5
 378 00c2 FFF7FEFF 		bl	chOQGetI
 379              	.LVL42:
 380 00c6 0330     		adds	r0, r0, #3
 381 00c8 14BF     		ite	ne
 382 00ca 0021     		movne	r1, #0
 383 00cc 0121     		moveq	r1, #1
 384 00ce 0520     		movs	r0, #5
 385 00d0 FFF7FEFF 		bl	_test_assert
 386              	.LVL43:
 387 00d4 68B1     		cbz	r0, .L16
 388              	.LBB110:
 389 00d6 2346     		mov	r3, r4
 390              	@ 211 "../../test/testqueues.c" 1
 391 00d8 83F31188 		msr     BASEPRI, r3
 392              	@ 0 "" 2
ARM GAS  /var/folders/dt/0wfd0knj7gs46m8vwfzktm600000gn/T//ccCHWovw.s 			page 8


 393              	.LVL44:
 394              		.thumb
 395 00dc DFE7     		b	.L6
 396              	.LVL45:
 397              	.L29:
 398              	.LBE110:
 399              	.LBE126:
 400              	.LBE129:
 401              		.loc 1 193 0 discriminator 1
 402 00de 9968     		ldr	r1, [r3, #8]
 403 00e0 0031     		adds	r1, r1, #0
 404 00e2 18BF     		it	ne
 405 00e4 0121     		movne	r1, #1
 406 00e6 97E7     		b	.L7
 407              	.L30:
 408              	.LBB130:
 409              	.LBB127:
 410              		.loc 1 209 0
 411 00e8 A968     		ldr	r1, [r5, #8]
 412 00ea 0031     		adds	r1, r1, #0
 413 00ec 18BF     		it	ne
 414 00ee 0121     		movne	r1, #1
 415 00f0 CEE7     		b	.L13
 416              	.L16:
 417              	.LBB111:
 418              		.loc 1 211 0
 419 00f2 0346     		mov	r3, r0
 420              	.LVL46:
 421              	@ 211 "../../test/testqueues.c" 1
 422 00f4 83F31188 		msr     BASEPRI, r3
 423              	@ 0 "" 2
 424              	.LVL47:
 425              		.thumb
 426              	.LBE111:
 427              		.loc 1 214 0
 428 00f8 574E     		ldr	r6, .L31+8
 429 00fa 0822     		movs	r2, #8
 430 00fc 7468     		ldr	r4, [r6, #4]
 431 00fe 2846     		mov	r0, r5
 432 0100 2146     		mov	r1, r4
 433 0102 FFF7FEFF 		bl	chOQWriteTimeout
 434              	.LVL48:
 435              		.loc 1 215 0
 436 0106 031F     		subs	r3, r0, #4
 437 0108 5942     		rsbs	r1, r3, #0
 438 010a 5941     		adcs	r1, r1, r3
 439 010c 0620     		movs	r0, #6
 440              	.LVL49:
 441 010e FFF7FEFF 		bl	_test_assert
 442              	.LVL50:
 443 0112 0746     		mov	r7, r0
 444 0114 0028     		cmp	r0, #0
 445 0116 C2D1     		bne	.L6
 446              	.LBB112:
 447              		.loc 1 216 0
 448 0118 2023     		movs	r3, #32
 449              	.LVL51:
ARM GAS  /var/folders/dt/0wfd0knj7gs46m8vwfzktm600000gn/T//ccCHWovw.s 			page 9


 450              	@ 216 "../../test/testqueues.c" 1
 451 011a 83F31188 		msr     BASEPRI, r3
 452              	@ 0 "" 2
 453              	.LVL52:
 454              		.thumb
 455              	.LBE112:
 456 011e A968     		ldr	r1, [r5, #8]
 457 0120 0720     		movs	r0, #7
 458 0122 D1F10101 		rsbs	r1, r1, #1
 459 0126 38BF     		it	cc
 460 0128 0021     		movcc	r1, #0
 461 012a FFF7FEFF 		bl	_test_assert
 462              	.LVL53:
 463 012e 8046     		mov	r8, r0
 464 0130 18B1     		cbz	r0, .L18
 465              	.LBB113:
 466 0132 3B46     		mov	r3, r7
 467              	@ 216 "../../test/testqueues.c" 1
 468 0134 83F31188 		msr     BASEPRI, r3
 469              	@ 0 "" 2
 470              	.LVL54:
 471              		.thumb
 472 0138 B1E7     		b	.L6
 473              	.LVL55:
 474              	.L18:
 475              	.LBE113:
 476              	.LBB114:
 477 013a 0346     		mov	r3, r0
 478              	.LVL56:
 479              	@ 216 "../../test/testqueues.c" 1
 480 013c 83F31188 		msr     BASEPRI, r3
 481              	@ 0 "" 2
 482              	.LVL57:
 483              		.thumb
 484              	.LBE114:
 485              		.loc 1 217 0
 486 0140 464B     		ldr	r3, .L31+12
 487              	.LVL58:
 488 0142 3068     		ldr	r0, [r6, #0]
 489 0144 DB69     		ldr	r3, [r3, #28]
 490 0146 4FF49871 		mov	r1, #304
 491 014a 9A68     		ldr	r2, [r3, #8]
 492 014c CDF80080 		str	r8, [sp, #0]
 493 0150 0132     		adds	r2, r2, #1
 494 0152 434B     		ldr	r3, .L31+16
 495 0154 FFF7FEFF 		bl	chThdCreateStatic
 496              	.LVL59:
 497 0158 424A     		ldr	r2, .L31+20
 498              	.LBB115:
 499              		.loc 1 218 0
 500 015a 2023     		movs	r3, #32
 501              	.LVL60:
 502              	.LBE115:
 503              		.loc 1 217 0
 504 015c 1060     		str	r0, [r2, #0]
 505              	.LBB116:
 506              		.loc 1 218 0
ARM GAS  /var/folders/dt/0wfd0knj7gs46m8vwfzktm600000gn/T//ccCHWovw.s 			page 10


 507              	@ 218 "../../test/testqueues.c" 1
 508 015e 83F31188 		msr     BASEPRI, r3
 509              	@ 0 "" 2
 510              	.LVL61:
 511              		.thumb
 512              	.LBE116:
 513 0162 2969     		ldr	r1, [r5, #16]
 514 0164 EA68     		ldr	r2, [r5, #12]
 515 0166 AB68     		ldr	r3, [r5, #8]
 516              	.LVL62:
 517 0168 8A1A     		subs	r2, r1, r2
 518 016a D11A     		subs	r1, r2, r3
 519 016c 0820     		movs	r0, #8
 520 016e B1F1040C 		subs	ip, r1, #4
 521 0172 DCF10001 		rsbs	r1, ip, #0
 522 0176 51EB0C01 		adcs	r1, r1, ip
 523 017a FFF7FEFF 		bl	_test_assert
 524              	.LVL63:
 525 017e 0646     		mov	r6, r0
 526 0180 18B1     		cbz	r0, .L19
 527              	.LBB117:
 528 0182 4346     		mov	r3, r8
 529              	@ 218 "../../test/testqueues.c" 1
 530 0184 83F31188 		msr     BASEPRI, r3
 531              	@ 0 "" 2
 532              	.LVL64:
 533              		.thumb
 534 0188 89E7     		b	.L6
 535              	.LVL65:
 536              	.L19:
 537              	.LBE117:
 538              	.LBB118:
 539 018a 0346     		mov	r3, r0
 540              	.LVL66:
 541              	@ 218 "../../test/testqueues.c" 1
 542 018c 83F31188 		msr     BASEPRI, r3
 543              	@ 0 "" 2
 544              	.LVL67:
 545              		.thumb
 546              	.LBE118:
 547              		.loc 1 219 0
 548 0190 FFF7FEFF 		bl	test_wait_threads
 549              	.LVL68:
 550              	.LBB119:
 551              		.loc 1 222 0
 552 0194 2023     		movs	r3, #32
 553              	.LVL69:
 554              	@ 222 "../../test/testqueues.c" 1
 555 0196 83F31188 		msr     BASEPRI, r3
 556              	@ 0 "" 2
 557              	.LVL70:
 558              		.thumb
 559              	.LBE119:
 560              		.loc 1 223 0
 561 019a 2846     		mov	r0, r5
 562 019c FFF7FEFF 		bl	chOQResetI
 563              	.LVL71:
ARM GAS  /var/folders/dt/0wfd0knj7gs46m8vwfzktm600000gn/T//ccCHWovw.s 			page 11


 564              	.LBB120:
 565              		.loc 1 224 0
 566 01a0 3346     		mov	r3, r6
 567              	.LVL72:
 568              	@ 224 "../../test/testqueues.c" 1
 569 01a2 83F31188 		msr     BASEPRI, r3
 570              	@ 0 "" 2
 571              	.LVL73:
 572              		.thumb
 573              	.LBE120:
 574              	.LBB121:
 575              		.loc 1 225 0
 576 01a6 2023     		movs	r3, #32
 577              	.LVL74:
 578              	@ 225 "../../test/testqueues.c" 1
 579 01a8 83F31188 		msr     BASEPRI, r3
 580              	@ 0 "" 2
 581              	.LVL75:
 582              		.thumb
 583              	.LBE121:
 584 01ac 2969     		ldr	r1, [r5, #16]
 585 01ae EA68     		ldr	r2, [r5, #12]
 586 01b0 AB68     		ldr	r3, [r5, #8]
 587              	.LVL76:
 588 01b2 891A     		subs	r1, r1, r2
 589 01b4 0920     		movs	r0, #9
 590 01b6 B1EB030E 		subs	lr, r1, r3
 591 01ba DEF10001 		rsbs	r1, lr, #0
 592 01be 51EB0E01 		adcs	r1, r1, lr
 593 01c2 FFF7FEFF 		bl	_test_assert
 594              	.LVL77:
 595 01c6 0346     		mov	r3, r0
 596 01c8 18B1     		cbz	r0, .L20
 597              	.LBB122:
 598 01ca 3346     		mov	r3, r6
 599              	@ 225 "../../test/testqueues.c" 1
 600 01cc 83F31188 		msr     BASEPRI, r3
 601              	@ 0 "" 2
 602              	.LVL78:
 603              		.thumb
 604 01d0 65E7     		b	.L6
 605              	.LVL79:
 606              	.L20:
 607              	.LBE122:
 608              	.LBB123:
 609              	@ 225 "../../test/testqueues.c" 1
 610 01d2 83F31188 		msr     BASEPRI, r3
 611              	@ 0 "" 2
 612              	.LVL80:
 613              		.thumb
 614              	.LBE123:
 615              		.loc 1 228 0
 616 01d6 0222     		movs	r2, #2
 617 01d8 2146     		mov	r1, r4
 618 01da 2846     		mov	r0, r5
 619 01dc FFF7FEFF 		bl	chOQWriteTimeout
 620              	.LVL81:
ARM GAS  /var/folders/dt/0wfd0knj7gs46m8vwfzktm600000gn/T//ccCHWovw.s 			page 12


 621              		.loc 1 229 0
 622 01e0 0238     		subs	r0, r0, #2
 623              	.LVL82:
 624 01e2 4142     		rsbs	r1, r0, #0
 625 01e4 4141     		adcs	r1, r1, r0
 626 01e6 0A20     		movs	r0, #10
 627              	.LVL83:
 628 01e8 FFF7FEFF 		bl	_test_assert
 629              	.LVL84:
 630 01ec 0346     		mov	r3, r0
 631 01ee 0028     		cmp	r0, #0
 632 01f0 7FF455AF 		bne	.L6
 633              		.loc 1 230 0
 634 01f4 2146     		mov	r1, r4
 635 01f6 0222     		movs	r2, #2
 636 01f8 2846     		mov	r0, r5
 637 01fa FFF7FEFF 		bl	chOQWriteTimeout
 638              	.LVL85:
 639              		.loc 1 231 0
 640 01fe 821E     		subs	r2, r0, #2
 641 0200 5142     		rsbs	r1, r2, #0
 642 0202 5141     		adcs	r1, r1, r2
 643 0204 0B20     		movs	r0, #11
 644              	.LVL86:
 645 0206 FFF7FEFF 		bl	_test_assert
 646              	.LVL87:
 647 020a 0028     		cmp	r0, #0
 648 020c 7FF447AF 		bne	.L6
 649              	.LBB124:
 650              		.loc 1 232 0
 651 0210 2023     		movs	r3, #32
 652              	.LVL88:
 653              	@ 232 "../../test/testqueues.c" 1
 654 0212 83F31188 		msr     BASEPRI, r3
 655              	@ 0 "" 2
 656              	.LVL89:
 657              		.thumb
 658              	.LBE124:
 659 0216 A968     		ldr	r1, [r5, #8]
 660 0218 0C20     		movs	r0, #12
 661 021a D1F10101 		rsbs	r1, r1, #1
 662 021e 38BF     		it	cc
 663 0220 0021     		movcc	r1, #0
 664 0222 FFF7FEFF 		bl	_test_assert
 665              	.LVL90:
 666              	.LBB125:
 667 0226 0023     		movs	r3, #0
 668              	@ 232 "../../test/testqueues.c" 1
 669 0228 83F31188 		msr     BASEPRI, r3
 670              	@ 0 "" 2
 671              	.LVL91:
 672              		.thumb
 673              	.LBE125:
 674 022c 0028     		cmp	r0, #0
 675 022e 7FF436AF 		bne	.L6
 676              		.loc 1 235 0
 677 0232 1946     		mov	r1, r3
ARM GAS  /var/folders/dt/0wfd0knj7gs46m8vwfzktm600000gn/T//ccCHWovw.s 			page 13


 678              	.LVL92:
 679 0234 0A22     		movs	r2, #10
 680 0236 0648     		ldr	r0, .L31
 681 0238 FFF7FEFF 		bl	chOQPutTimeout
 682              	.LVL93:
 683 023c B0F1FF33 		subs	r3, r0, #-1
 684 0240 5942     		rsbs	r1, r3, #0
 685 0242 5941     		adcs	r1, r1, r3
 686 0244 0D20     		movs	r0, #13
 687              	.LBE127:
 688              	.LBE130:
 689              		.loc 1 236 0
 690 0246 02B0     		add	sp, sp, #8
 691 0248 BDE8F041 		pop	{r4, r5, r6, r7, r8, lr}
 692              	.LBB131:
 693              	.LBB128:
 694              		.loc 1 235 0
 695 024c FFF7FEBF 		b	_test_assert
 696              	.LVL94:
 697              	.L32:
 698              		.align	2
 699              	.L31:
 700 0250 00000000 		.word	.LANCHOR0
 701 0254 00000000 		.word	.LC0
 702 0258 00000000 		.word	wa
 703 025c 00000000 		.word	rlist
 704 0260 00000000 		.word	thread2
 705 0264 00000000 		.word	threads
 706              	.LBE128:
 707              	.LBE131:
 708              		.cfi_endproc
 709              	.LFE13:
 710              		.size	queues2_execute, .-queues2_execute
 711 0268 AFF30080 		.section	.text.queues1_execute,"ax",%progbits
 711      AFF30080 
 712              		.align	2
 713              		.p2align 4,,15
 714              		.thumb
 715              		.thumb_func
 716              		.type	queues1_execute, %function
 717              	queues1_execute:
 718              	.LFB10:
 719              		.loc 1 101 0
 720              		.cfi_startproc
 721              		@ args = 0, pretend = 0, frame = 0
 722              		@ frame_needed = 0, uses_anonymous_args = 0
 723 0000 F0B5     		push	{r4, r5, r6, r7, lr}
 724              	.LCFI4:
 725              		.cfi_def_cfa_offset 20
 726              		.cfi_offset 4, -20
 727              		.cfi_offset 5, -16
 728              		.cfi_offset 6, -12
 729              		.cfi_offset 7, -8
 730              		.cfi_offset 14, -4
 731              	.LBB168:
 732              		.loc 1 106 0
 733 0002 2023     		movs	r3, #32
ARM GAS  /var/folders/dt/0wfd0knj7gs46m8vwfzktm600000gn/T//ccCHWovw.s 			page 14


 734              	.LVL95:
 735              	.LBE168:
 736              		.loc 1 101 0
 737 0004 83B0     		sub	sp, sp, #12
 738              	.LCFI5:
 739              		.cfi_def_cfa_offset 32
 740              	.LBB169:
 741              		.loc 1 106 0
 742              	@ 106 "../../test/testqueues.c" 1
 743 0006 83F31188 		msr     BASEPRI, r3
 744              	@ 0 "" 2
 745              	.LVL96:
 746              		.thumb
 747              	.LBE169:
 748 000a A24C     		ldr	r4, .L52
 749 000c 0120     		movs	r0, #1
 750 000e A168     		ldr	r1, [r4, #8]
 751 0010 D1F10101 		rsbs	r1, r1, #1
 752 0014 38BF     		it	cc
 753 0016 0021     		movcc	r1, #0
 754 0018 FFF7FEFF 		bl	_test_assert
 755              	.LVL97:
 756 001c 0546     		mov	r5, r0
 757 001e 38BB     		cbnz	r0, .L49
 758              	.LBB170:
 759              	.LBB171:
 760              	.LBB172:
 761 0020 0346     		mov	r3, r0
 762              	.LVL98:
 763              	@ 106 "../../test/testqueues.c" 1
 764 0022 83F31188 		msr     BASEPRI, r3
 765              	@ 0 "" 2
 766              	.LVL99:
 767              		.thumb
 768              	.LBE172:
 769              	.LBB173:
 770              		.loc 1 109 0
 771 0026 2023     		movs	r3, #32
 772              	.LVL100:
 773              	@ 109 "../../test/testqueues.c" 1
 774 0028 83F31188 		msr     BASEPRI, r3
 775              	@ 0 "" 2
 776              	.LVL101:
 777              		.thumb
 778              	.LBE173:
 779              		.loc 1 111 0
 780 002c 4121     		movs	r1, #65
 781 002e 2046     		mov	r0, r4
 782 0030 FFF7FEFF 		bl	chIQPutI
 783              	.LVL102:
 784 0034 4221     		movs	r1, #66
 785 0036 2046     		mov	r0, r4
 786 0038 FFF7FEFF 		bl	chIQPutI
 787              	.LVL103:
 788 003c 4321     		movs	r1, #67
 789 003e 2046     		mov	r0, r4
 790 0040 FFF7FEFF 		bl	chIQPutI
ARM GAS  /var/folders/dt/0wfd0knj7gs46m8vwfzktm600000gn/T//ccCHWovw.s 			page 15


 791              	.LVL104:
 792 0044 2046     		mov	r0, r4
 793 0046 4421     		movs	r1, #68
 794 0048 FFF7FEFF 		bl	chIQPutI
 795              	.LVL105:
 796              	.LBB174:
 797              		.loc 1 112 0
 798 004c 2B46     		mov	r3, r5
 799              	.LVL106:
 800              	@ 112 "../../test/testqueues.c" 1
 801 004e 83F31188 		msr     BASEPRI, r3
 802              	@ 0 "" 2
 803              	.LVL107:
 804              		.thumb
 805              	.LBE174:
 806              	.LBB175:
 807              		.loc 1 113 0
 808 0052 2023     		movs	r3, #32
 809              	.LVL108:
 810              	@ 113 "../../test/testqueues.c" 1
 811 0054 83F31188 		msr     BASEPRI, r3
 812              	@ 0 "" 2
 813              	.LVL109:
 814              		.thumb
 815              	.LBE175:
 816 0058 6269     		ldr	r2, [r4, #20]
 817 005a A369     		ldr	r3, [r4, #24]
 818              	.LVL110:
 819 005c 9A42     		cmp	r2, r3
 820 005e 18BF     		it	ne
 821 0060 2946     		movne	r1, r5
 822 0062 00F01281 		beq	.L50
 823              	.L36:
 824 0066 0220     		movs	r0, #2
 825 0068 FFF7FEFF 		bl	_test_assert
 826              	.LVL111:
 827 006c 0446     		mov	r4, r0
 828 006e 20B1     		cbz	r0, .L37
 829              	.LVL112:
 830              	.L49:
 831              	.LBB176:
 832 0070 0023     		movs	r3, #0
 833              	.LVL113:
 834              	@ 113 "../../test/testqueues.c" 1
 835 0072 83F31188 		msr     BASEPRI, r3
 836              	@ 0 "" 2
 837              	.LVL114:
 838              		.thumb
 839              	.L33:
 840              	.LBE176:
 841              	.LBE171:
 842              	.LBE170:
 843              		.loc 1 158 0
 844 0076 03B0     		add	sp, sp, #12
 845 0078 F0BD     		pop	{r4, r5, r6, r7, pc}
 846              	.LVL115:
 847              	.L37:
ARM GAS  /var/folders/dt/0wfd0knj7gs46m8vwfzktm600000gn/T//ccCHWovw.s 			page 16


 848              	.LBB200:
 849              	.LBB198:
 850              	.LBB177:
 851              		.loc 1 113 0
 852 007a 0346     		mov	r3, r0
 853              	.LVL116:
 854              	@ 113 "../../test/testqueues.c" 1
 855 007c 83F31188 		msr     BASEPRI, r3
 856              	@ 0 "" 2
 857              	.LVL117:
 858              		.thumb
 859              	.LBE177:
 860              	.LBB178:
 861              		.loc 1 114 0
 862 0080 2023     		movs	r3, #32
 863              	.LVL118:
 864              	@ 114 "../../test/testqueues.c" 1
 865 0082 83F31188 		msr     BASEPRI, r3
 866              	@ 0 "" 2
 867              	.LVL119:
 868              		.thumb
 869              	.LBE178:
 870 0086 8348     		ldr	r0, .L52
 871 0088 2146     		mov	r1, r4
 872 008a FFF7FEFF 		bl	chIQPutI
 873              	.LVL120:
 874 008e 0430     		adds	r0, r0, #4
 875 0090 14BF     		ite	ne
 876 0092 0021     		movne	r1, #0
 877 0094 0121     		moveq	r1, #1
 878 0096 0320     		movs	r0, #3
 879 0098 FFF7FEFF 		bl	_test_assert
 880              	.LVL121:
 881 009c 0028     		cmp	r0, #0
 882 009e 40F0F080 		bne	.L51
 883              	.LBB179:
 884 00a2 0346     		mov	r3, r0
 885              	.LVL122:
 886              	@ 114 "../../test/testqueues.c" 1
 887 00a4 83F31188 		msr     BASEPRI, r3
 888              	@ 0 "" 2
 889              	.LVL123:
 890              		.thumb
 891 00a8 0424     		movs	r4, #4
 892              	.LVL124:
 893              	.L39:
 894              	.LBE179:
 895              		.loc 1 118 0
 896 00aa 7A4D     		ldr	r5, .L52
 897 00ac 4FF0FF31 		mov	r1, #-1
 898 00b0 2846     		mov	r0, r5
 899 00b2 FFF7FEFF 		bl	chIQGetTimeout
 900              	.LVL125:
 901 00b6 C0B2     		uxtb	r0, r0
 902 00b8 FFF7FEFF 		bl	test_emit_token
 903              	.LVL126:
 904              		.loc 1 117 0
ARM GAS  /var/folders/dt/0wfd0knj7gs46m8vwfzktm600000gn/T//ccCHWovw.s 			page 17


 905 00bc 013C     		subs	r4, r4, #1
 906 00be F4D1     		bne	.L39
 907              	.LBB180:
 908              		.loc 1 119 0
 909 00c0 2023     		movs	r3, #32
 910              	.LVL127:
 911              	@ 119 "../../test/testqueues.c" 1
 912 00c2 83F31188 		msr     BASEPRI, r3
 913              	@ 0 "" 2
 914              	.LVL128:
 915              		.thumb
 916              	.LBE180:
 917 00c6 A968     		ldr	r1, [r5, #8]
 918 00c8 0420     		movs	r0, #4
 919 00ca D1F10101 		rsbs	r1, r1, #1
 920 00ce 38BF     		it	cc
 921 00d0 0021     		movcc	r1, #0
 922 00d2 FFF7FEFF 		bl	_test_assert
 923              	.LVL129:
 924              	.LBB181:
 925 00d6 2346     		mov	r3, r4
 926              	@ 119 "../../test/testqueues.c" 1
 927 00d8 83F31188 		msr     BASEPRI, r3
 928              	@ 0 "" 2
 929              	.LVL130:
 930              		.thumb
 931              	.LBE181:
 932 00dc 0028     		cmp	r0, #0
 933 00de CAD1     		bne	.L33
 934              		.loc 1 120 0
 935 00e0 0520     		movs	r0, #5
 936 00e2 6D49     		ldr	r1, .L52+4
 937 00e4 FFF7FEFF 		bl	_test_assert_sequence
 938              	.LVL131:
 939 00e8 0028     		cmp	r0, #0
 940 00ea C4D1     		bne	.L33
 941              	.LBB182:
 942              		.loc 1 123 0
 943 00ec 2023     		movs	r3, #32
 944              	.LVL132:
 945              	@ 123 "../../test/testqueues.c" 1
 946 00ee 83F31188 		msr     BASEPRI, r3
 947              	@ 0 "" 2
 948              	.LVL133:
 949              		.thumb
 950              	.LBE182:
 951              		.loc 1 125 0
 952 00f2 4121     		movs	r1, #65
 953 00f4 2846     		mov	r0, r5
 954 00f6 FFF7FEFF 		bl	chIQPutI
 955              	.LVL134:
 956 00fa 4221     		movs	r1, #66
 957 00fc 2846     		mov	r0, r5
 958 00fe FFF7FEFF 		bl	chIQPutI
 959              	.LVL135:
 960 0102 4321     		movs	r1, #67
 961 0104 2846     		mov	r0, r5
ARM GAS  /var/folders/dt/0wfd0knj7gs46m8vwfzktm600000gn/T//ccCHWovw.s 			page 18


 962 0106 FFF7FEFF 		bl	chIQPutI
 963              	.LVL136:
 964 010a 2846     		mov	r0, r5
 965 010c 4421     		movs	r1, #68
 966 010e FFF7FEFF 		bl	chIQPutI
 967              	.LVL137:
 968              	.LBB183:
 969              		.loc 1 126 0
 970 0112 2346     		mov	r3, r4
 971              	.LVL138:
 972              	@ 126 "../../test/testqueues.c" 1
 973 0114 83F31188 		msr     BASEPRI, r3
 974              	@ 0 "" 2
 975              	.LVL139:
 976              		.thumb
 977              	.LBE183:
 978              		.loc 1 129 0
 979 0118 604F     		ldr	r7, .L52+8
 980 011a 0822     		movs	r2, #8
 981 011c 7E68     		ldr	r6, [r7, #4]
 982 011e 2846     		mov	r0, r5
 983 0120 3146     		mov	r1, r6
 984 0122 FFF7FEFF 		bl	chIQReadTimeout
 985              	.LVL140:
 986              		.loc 1 130 0
 987 0126 B0F1040C 		subs	ip, r0, #4
 988 012a DCF10001 		rsbs	r1, ip, #0
 989 012e 51EB0C01 		adcs	r1, r1, ip
 990 0132 0620     		movs	r0, #6
 991              	.LVL141:
 992 0134 FFF7FEFF 		bl	_test_assert
 993              	.LVL142:
 994 0138 0028     		cmp	r0, #0
 995 013a 9CD1     		bne	.L33
 996              	.LBB184:
 997              		.loc 1 131 0
 998 013c 2023     		movs	r3, #32
 999              	.LVL143:
 1000              	@ 131 "../../test/testqueues.c" 1
 1001 013e 83F31188 		msr     BASEPRI, r3
 1002              	@ 0 "" 2
 1003              	.LVL144:
 1004              		.thumb
 1005              	.LBE184:
 1006 0142 A968     		ldr	r1, [r5, #8]
 1007 0144 0720     		movs	r0, #7
 1008 0146 D1F10101 		rsbs	r1, r1, #1
 1009 014a 38BF     		it	cc
 1010 014c 0021     		movcc	r1, #0
 1011 014e FFF7FEFF 		bl	_test_assert
 1012              	.LVL145:
 1013              	.LBB185:
 1014 0152 2346     		mov	r3, r4
 1015              	@ 131 "../../test/testqueues.c" 1
 1016 0154 83F31188 		msr     BASEPRI, r3
 1017              	@ 0 "" 2
 1018              	.LVL146:
ARM GAS  /var/folders/dt/0wfd0knj7gs46m8vwfzktm600000gn/T//ccCHWovw.s 			page 19


 1019              		.thumb
 1020              	.LBE185:
 1021 0158 0028     		cmp	r0, #0
 1022 015a 8CD1     		bne	.L33
 1023              	.LBB186:
 1024              		.loc 1 134 0
 1025 015c 2023     		movs	r3, #32
 1026              	.LVL147:
 1027              	@ 134 "../../test/testqueues.c" 1
 1028 015e 83F31188 		msr     BASEPRI, r3
 1029              	@ 0 "" 2
 1030              	.LVL148:
 1031              		.thumb
 1032              	.LBE186:
 1033              		.loc 1 136 0
 1034 0162 4121     		movs	r1, #65
 1035 0164 2846     		mov	r0, r5
 1036 0166 FFF7FEFF 		bl	chIQPutI
 1037              	.LVL149:
 1038 016a 4221     		movs	r1, #66
 1039 016c 2846     		mov	r0, r5
 1040 016e FFF7FEFF 		bl	chIQPutI
 1041              	.LVL150:
 1042 0172 4321     		movs	r1, #67
 1043 0174 2846     		mov	r0, r5
 1044 0176 FFF7FEFF 		bl	chIQPutI
 1045              	.LVL151:
 1046 017a 2846     		mov	r0, r5
 1047 017c 4421     		movs	r1, #68
 1048 017e FFF7FEFF 		bl	chIQPutI
 1049              	.LVL152:
 1050              	.LBB187:
 1051              		.loc 1 137 0
 1052 0182 2346     		mov	r3, r4
 1053              	.LVL153:
 1054              	@ 137 "../../test/testqueues.c" 1
 1055 0184 83F31188 		msr     BASEPRI, r3
 1056              	@ 0 "" 2
 1057              	.LVL154:
 1058              		.thumb
 1059              	.LBE187:
 1060              		.loc 1 140 0
 1061 0188 0222     		movs	r2, #2
 1062 018a 3146     		mov	r1, r6
 1063 018c 2846     		mov	r0, r5
 1064 018e FFF7FEFF 		bl	chIQReadTimeout
 1065              	.LVL155:
 1066              		.loc 1 141 0
 1067 0192 B0F1020E 		subs	lr, r0, #2
 1068 0196 DEF10001 		rsbs	r1, lr, #0
 1069 019a 51EB0E01 		adcs	r1, r1, lr
 1070 019e 0820     		movs	r0, #8
 1071              	.LVL156:
 1072 01a0 FFF7FEFF 		bl	_test_assert
 1073              	.LVL157:
 1074 01a4 0028     		cmp	r0, #0
 1075 01a6 7FF466AF 		bne	.L33
ARM GAS  /var/folders/dt/0wfd0knj7gs46m8vwfzktm600000gn/T//ccCHWovw.s 			page 20


 1076              		.loc 1 142 0
 1077 01aa 3146     		mov	r1, r6
 1078 01ac 0222     		movs	r2, #2
 1079 01ae 2846     		mov	r0, r5
 1080 01b0 2346     		mov	r3, r4
 1081 01b2 FFF7FEFF 		bl	chIQReadTimeout
 1082              	.LVL158:
 1083              		.loc 1 143 0
 1084 01b6 0238     		subs	r0, r0, #2
 1085              	.LVL159:
 1086 01b8 4142     		rsbs	r1, r0, #0
 1087 01ba 4141     		adcs	r1, r1, r0
 1088 01bc 0920     		movs	r0, #9
 1089              	.LVL160:
 1090 01be FFF7FEFF 		bl	_test_assert
 1091              	.LVL161:
 1092 01c2 0028     		cmp	r0, #0
 1093 01c4 7FF457AF 		bne	.L33
 1094              	.LBB188:
 1095              		.loc 1 144 0
 1096 01c8 2023     		movs	r3, #32
 1097              	.LVL162:
 1098              	@ 144 "../../test/testqueues.c" 1
 1099 01ca 83F31188 		msr     BASEPRI, r3
 1100              	@ 0 "" 2
 1101              	.LVL163:
 1102              		.thumb
 1103              	.LBE188:
 1104 01ce A968     		ldr	r1, [r5, #8]
 1105 01d0 0A20     		movs	r0, #10
 1106 01d2 D1F10101 		rsbs	r1, r1, #1
 1107 01d6 38BF     		it	cc
 1108 01d8 0021     		movcc	r1, #0
 1109 01da FFF7FEFF 		bl	_test_assert
 1110              	.LVL164:
 1111              	.LBB189:
 1112 01de 2346     		mov	r3, r4
 1113              	@ 144 "../../test/testqueues.c" 1
 1114 01e0 83F31188 		msr     BASEPRI, r3
 1115              	@ 0 "" 2
 1116              	.LVL165:
 1117              		.thumb
 1118              	.LBE189:
 1119 01e4 0028     		cmp	r0, #0
 1120 01e6 7FF446AF 		bne	.L33
 1121              	.LBB190:
 1122              		.loc 1 147 0
 1123 01ea 2023     		movs	r3, #32
 1124              	.LVL166:
 1125              	@ 147 "../../test/testqueues.c" 1
 1126 01ec 83F31188 		msr     BASEPRI, r3
 1127              	@ 0 "" 2
 1128              	.LVL167:
 1129              		.thumb
 1130              	.LBE190:
 1131              		.loc 1 148 0
 1132 01f0 2146     		mov	r1, r4
ARM GAS  /var/folders/dt/0wfd0knj7gs46m8vwfzktm600000gn/T//ccCHWovw.s 			page 21


 1133 01f2 2846     		mov	r0, r5
 1134 01f4 FFF7FEFF 		bl	chIQPutI
 1135              	.LVL168:
 1136              		.loc 1 149 0
 1137 01f8 2846     		mov	r0, r5
 1138 01fa FFF7FEFF 		bl	chIQResetI
 1139              	.LVL169:
 1140              	.LBB191:
 1141              		.loc 1 150 0
 1142 01fe 2346     		mov	r3, r4
 1143              	.LVL170:
 1144              	@ 150 "../../test/testqueues.c" 1
 1145 0200 83F31188 		msr     BASEPRI, r3
 1146              	@ 0 "" 2
 1147              	.LVL171:
 1148              		.thumb
 1149              	.LBE191:
 1150              	.LBB192:
 1151              		.loc 1 151 0
 1152 0204 2023     		movs	r3, #32
 1153              	.LVL172:
 1154              	@ 151 "../../test/testqueues.c" 1
 1155 0206 83F31188 		msr     BASEPRI, r3
 1156              	@ 0 "" 2
 1157              	.LVL173:
 1158              		.thumb
 1159              	.LBE192:
 1160 020a A968     		ldr	r1, [r5, #8]
 1161 020c 0B20     		movs	r0, #11
 1162 020e D1F10101 		rsbs	r1, r1, #1
 1163 0212 38BF     		it	cc
 1164 0214 0021     		movcc	r1, #0
 1165 0216 FFF7FEFF 		bl	_test_assert
 1166              	.LVL174:
 1167              	.LBB193:
 1168 021a 2346     		mov	r3, r4
 1169              	@ 151 "../../test/testqueues.c" 1
 1170 021c 83F31188 		msr     BASEPRI, r3
 1171              	@ 0 "" 2
 1172              	.LVL175:
 1173              		.thumb
 1174              	.LBE193:
 1175 0220 0028     		cmp	r0, #0
 1176 0222 7FF428AF 		bne	.L33
 1177              		.loc 1 152 0
 1178 0226 1E4A     		ldr	r2, .L52+12
 1179 0228 3868     		ldr	r0, [r7, #0]
 1180 022a D269     		ldr	r2, [r2, #28]
 1181 022c 4FF49871 		mov	r1, #304
 1182 0230 9268     		ldr	r2, [r2, #8]
 1183 0232 1C4B     		ldr	r3, .L52+16
 1184              	.LVL176:
 1185 0234 0132     		adds	r2, r2, #1
 1186 0236 0094     		str	r4, [sp, #0]
 1187              	.LVL177:
 1188 0238 FFF7FEFF 		bl	chThdCreateStatic
 1189              	.LVL178:
ARM GAS  /var/folders/dt/0wfd0knj7gs46m8vwfzktm600000gn/T//ccCHWovw.s 			page 22


 1190 023c 1A4A     		ldr	r2, .L52+20
 1191              	.LBB194:
 1192              		.loc 1 153 0
 1193 023e 2023     		movs	r3, #32
 1194              	.LVL179:
 1195              	.LBE194:
 1196              		.loc 1 152 0
 1197 0240 1060     		str	r0, [r2, #0]
 1198              	.LBB195:
 1199              		.loc 1 153 0
 1200              	@ 153 "../../test/testqueues.c" 1
 1201 0242 83F31188 		msr     BASEPRI, r3
 1202              	@ 0 "" 2
 1203              	.LVL180:
 1204              		.thumb
 1205              	.LBE195:
 1206 0246 A968     		ldr	r1, [r5, #8]
 1207 0248 0C20     		movs	r0, #12
 1208 024a D1F10101 		rsbs	r1, r1, #1
 1209 024e 38BF     		it	cc
 1210 0250 0021     		movcc	r1, #0
 1211 0252 FFF7FEFF 		bl	_test_assert
 1212              	.LVL181:
 1213              	.LBB196:
 1214 0256 0023     		movs	r3, #0
 1215              	@ 153 "../../test/testqueues.c" 1
 1216 0258 83F31188 		msr     BASEPRI, r3
 1217              	@ 0 "" 2
 1218              	.LVL182:
 1219              		.thumb
 1220              	.LBE196:
 1221 025c 0028     		cmp	r0, #0
 1222 025e 7FF40AAF 		bne	.L33
 1223              		.loc 1 154 0
 1224 0262 FFF7FEFF 		bl	test_wait_threads
 1225              	.LVL183:
 1226              		.loc 1 157 0
 1227 0266 0A21     		movs	r1, #10
 1228 0268 0A48     		ldr	r0, .L52
 1229 026a FFF7FEFF 		bl	chIQGetTimeout
 1230              	.LVL184:
 1231 026e B0F1FF32 		subs	r2, r0, #-1
 1232 0272 5142     		rsbs	r1, r2, #0
 1233 0274 5141     		adcs	r1, r1, r2
 1234 0276 0D20     		movs	r0, #13
 1235              	.LBE198:
 1236              	.LBE200:
 1237              		.loc 1 158 0
 1238 0278 03B0     		add	sp, sp, #12
 1239 027a BDE8F040 		pop	{r4, r5, r6, r7, lr}
 1240              	.LBB201:
 1241              	.LBB199:
 1242              		.loc 1 157 0
 1243 027e FFF7FEBF 		b	_test_assert
 1244              	.LVL185:
 1245              	.L51:
 1246              	.LBB197:
ARM GAS  /var/folders/dt/0wfd0knj7gs46m8vwfzktm600000gn/T//ccCHWovw.s 			page 23


 1247              		.loc 1 114 0
 1248 0282 2346     		mov	r3, r4
 1249              	@ 114 "../../test/testqueues.c" 1
 1250 0284 83F31188 		msr     BASEPRI, r3
 1251              	@ 0 "" 2
 1252              	.LVL186:
 1253              		.thumb
 1254 0288 F5E6     		b	.L33
 1255              	.LVL187:
 1256              	.L50:
 1257              	.LBE197:
 1258              		.loc 1 113 0
 1259 028a A168     		ldr	r1, [r4, #8]
 1260 028c 0031     		adds	r1, r1, #0
 1261 028e 18BF     		it	ne
 1262 0290 0121     		movne	r1, #1
 1263 0292 E8E6     		b	.L36
 1264              	.L53:
 1265              		.align	2
 1266              	.L52:
 1267 0294 00000000 		.word	.LANCHOR1
 1268 0298 00000000 		.word	.LC0
 1269 029c 00000000 		.word	wa
 1270 02a0 00000000 		.word	rlist
 1271 02a4 00000000 		.word	thread1
 1272 02a8 00000000 		.word	threads
 1273              	.LBE199:
 1274              	.LBE201:
 1275              		.cfi_endproc
 1276              	.LFE10:
 1277              		.size	queues1_execute, .-queues1_execute
 1278              		.global	patternqueues
 1279              		.global	testqueues2
 1280              		.global	testqueues1
 1281 02ac AFF30080 		.section	.rodata.testqueues1,"a",%progbits
 1282              		.align	2
 1283              		.type	testqueues1, %object
 1284              		.size	testqueues1, 16
 1285              	testqueues1:
 1286 0000 20000000 		.word	.LC2
 1287 0004 00000000 		.word	queues1_setup
 1288 0008 00000000 		.word	0
 1289 000c 00000000 		.word	queues1_execute
 1290              		.section	.rodata.testqueues2,"a",%progbits
 1291              		.align	2
 1292              		.type	testqueues2, %object
 1293              		.size	testqueues2, 16
 1294              	testqueues2:
 1295 0000 08000000 		.word	.LC1
 1296 0004 00000000 		.word	queues2_setup
 1297 0008 00000000 		.word	0
 1298 000c 00000000 		.word	queues2_execute
 1299              		.section	.rodata.str1.4,"aMS",%progbits,1
 1300              		.align	2
 1301              	.LC0:
 1302 0000 41424344 		.ascii	"ABCD\000"
 1302      00
ARM GAS  /var/folders/dt/0wfd0knj7gs46m8vwfzktm600000gn/T//ccCHWovw.s 			page 24


 1303 0005 000000   		.space	3
 1304              	.LC1:
 1305 0008 51756575 		.ascii	"Queues, output queues\000"
 1305      65732C20 
 1305      6F757470 
 1305      75742071 
 1305      75657565 
 1306 001e 0000     		.space	2
 1307              	.LC2:
 1308 0020 51756575 		.ascii	"Queues, input queues\000"
 1308      65732C20 
 1308      696E7075 
 1308      74207175 
 1308      65756573 
 1309 0035 000000   		.section	.rodata.patternqueues,"a",%progbits
 1310              		.align	2
 1311              		.type	patternqueues, %object
 1312              		.size	patternqueues, 12
 1313              	patternqueues:
 1314 0000 00000000 		.word	testqueues1
 1315 0004 00000000 		.word	testqueues2
 1316 0008 00000000 		.word	0
 1317              		.section	.data.oq,"aw",%progbits
 1318              		.align	2
 1319              		.set	.LANCHOR0,. + 0
 1320              		.type	oq, %object
 1321              		.size	oq, 32
 1322              	oq:
 1323 0000 00000000 		.word	oq
 1324 0004 00000000 		.word	oq
 1325 0008 04000000 		.word	4
 1326 000c 30010000 		.word	test+304
 1327 0010 34010000 		.word	test+308
 1328 0014 30010000 		.word	test+304
 1329 0018 30010000 		.word	test+304
 1330 001c 00000000 		.word	notify
 1331              		.section	.data.iq,"aw",%progbits
 1332              		.align	2
 1333              		.set	.LANCHOR1,. + 0
 1334              		.type	iq, %object
 1335              		.size	iq, 32
 1336              	iq:
 1337 0000 00000000 		.word	iq
 1338 0004 00000000 		.word	iq
 1339 0008 00000000 		.word	0
 1340 000c 00000000 		.word	test
 1341 0010 04000000 		.word	test+4
 1342 0014 00000000 		.word	test
 1343 0018 00000000 		.word	test
 1344 001c 00000000 		.word	notify
 1345              		.text
 1346              	.Letext0:
 1347              		.file 2 "/Users/toxygen/Applications/yagarto-4.7.2/bin/../lib/gcc/arm-none-eabi/4.7.2/include/stdd
 1348              		.file 3 "/Users/toxygen/Applications/yagarto-4.7.2/bin/../lib/gcc/arm-none-eabi/4.7.2/../../../../
 1349              		.file 4 "../../os/ports/GCC/ARMCMx/chtypes.h"
 1350              		.file 5 "../../os/kernel/include/chlists.h"
 1351              		.file 6 "../../os/kernel/include/chthreads.h"
ARM GAS  /var/folders/dt/0wfd0knj7gs46m8vwfzktm600000gn/T//ccCHWovw.s 			page 25


 1352              		.file 7 "../../os/ports/GCC/ARMCMx/chcore_v7m.h"
 1353              		.file 8 "../../os/kernel/include/chschd.h"
 1354              		.file 9 "../../os/kernel/include/chmtx.h"
 1355              		.file 10 "../../os/kernel/include/chqueues.h"
 1356              		.file 11 "../../test/test.h"