ARM GAS  /var/folders/dt/0wfd0knj7gs46m8vwfzktm600000gn/T//ccrsjBrt.s 			page 1


   1              		.syntax unified
   2              		.cpu cortex-m3
   3              		.fpu softvfp
   4              		.eabi_attribute 20, 1
   5              		.eabi_attribute 21, 1
   6              		.eabi_attribute 23, 3
   7              		.eabi_attribute 24, 1
   8              		.eabi_attribute 25, 1
   9              		.eabi_attribute 26, 1
  10              		.eabi_attribute 30, 2
  11              		.eabi_attribute 34, 1
  12              		.eabi_attribute 18, 4
  13              		.thumb
  14              		.file	"testsem.c"
  15              		.text
  16              	.Ltext0:
  17              		.cfi_sections	.debug_frame
  18              		.section	.text.sem3_setup,"ax",%progbits
  19              		.align	2
  20              		.p2align 4,,15
  21              		.thumb
  22              		.thumb_func
  23              		.type	sem3_setup, %function
  24              	sem3_setup:
  25              	.LFB13:
  26              		.file 1 "../../test/testsem.c"
  27              		.loc 1 215 0
  28              		.cfi_startproc
  29              		@ args = 0, pretend = 0, frame = 0
  30              		@ frame_needed = 0, uses_anonymous_args = 0
  31              		@ link register save eliminated.
  32              		.loc 1 217 0
  33 0000 40F20000 		movw	r0, #:lower16:.LANCHOR0
  34 0004 C0F20000 		movt	r0, #:upper16:.LANCHOR0
  35 0008 0021     		movs	r1, #0
  36              		.loc 1 218 0
  37              		.loc 1 217 0
  38 000a FFF7FEBF 		b	chSemInit
  39              	.LVL0:
  40              		.cfi_endproc
  41              	.LFE13:
  42              		.size	sem3_setup, .-sem3_setup
  43 000e 00BF     		.section	.text.sem2_setup,"ax",%progbits
  44              		.align	2
  45              		.p2align 4,,15
  46              		.thumb
  47              		.thumb_func
  48              		.type	sem2_setup, %function
  49              	sem2_setup:
  50              	.LFB10:
  51              		.loc 1 139 0
  52              		.cfi_startproc
  53              		@ args = 0, pretend = 0, frame = 0
  54              		@ frame_needed = 0, uses_anonymous_args = 0
  55              		@ link register save eliminated.
  56              		.loc 1 141 0
  57 0000 40F20000 		movw	r0, #:lower16:.LANCHOR0
ARM GAS  /var/folders/dt/0wfd0knj7gs46m8vwfzktm600000gn/T//ccrsjBrt.s 			page 2


  58 0004 C0F20000 		movt	r0, #:upper16:.LANCHOR0
  59 0008 0021     		movs	r1, #0
  60              		.loc 1 142 0
  61              		.loc 1 141 0
  62 000a FFF7FEBF 		b	chSemInit
  63              	.LVL1:
  64              		.cfi_endproc
  65              	.LFE10:
  66              		.size	sem2_setup, .-sem2_setup
  67              		.section	.text.sem1_setup,"ax",%progbits
  68              		.align	2
  69              		.p2align 4,,15
  70              		.thumb
  71              		.thumb_func
  72              		.type	sem1_setup, %function
  73              	sem1_setup:
  74              	.LFB7:
  75              		.loc 1 83 0
  76              		.cfi_startproc
  77              		@ args = 0, pretend = 0, frame = 0
  78              		@ frame_needed = 0, uses_anonymous_args = 0
  79              		@ link register save eliminated.
  80              		.loc 1 85 0
  81 0000 40F20000 		movw	r0, #:lower16:.LANCHOR0
  82 0004 C0F20000 		movt	r0, #:upper16:.LANCHOR0
  83 0008 0021     		movs	r1, #0
  84              		.loc 1 86 0
  85              		.loc 1 85 0
  86 000a FFF7FEBF 		b	chSemInit
  87              	.LVL2:
  88              		.cfi_endproc
  89              	.LFE7:
  90              		.size	sem1_setup, .-sem1_setup
  91              		.section	.text.sem4_execute,"ax",%progbits
  92              		.align	2
  93              		.p2align 4,,15
  94              		.thumb
  95              		.thumb_func
  96              		.type	sem4_execute, %function
  97              	sem4_execute:
  98              	.LFB17:
  99              		.loc 1 262 0
 100              		.cfi_startproc
 101              		@ args = 0, pretend = 0, frame = 16
 102              		@ frame_needed = 0, uses_anonymous_args = 0
 103 0000 00B5     		push	{lr}
 104              	.LCFI0:
 105              		.cfi_def_cfa_offset 4
 106              		.cfi_offset 14, -4
 107 0002 87B0     		sub	sp, sp, #28
 108              	.LCFI1:
 109              		.cfi_def_cfa_offset 32
 110              		.loc 1 266 0
 111 0004 0021     		movs	r1, #0
 112 0006 03A8     		add	r0, sp, #12
 113 0008 FFF7FEFF 		bl	chSemInit
 114              	.LVL3:
ARM GAS  /var/folders/dt/0wfd0knj7gs46m8vwfzktm600000gn/T//ccrsjBrt.s 			page 3


 115              		.loc 1 267 0
 116 000c 0021     		movs	r1, #0
 117 000e 03A8     		add	r0, sp, #12
 118 0010 FFF7FEFF 		bl	chSemReset
 119              	.LVL4:
 120              		.loc 1 268 0
 121 0014 0599     		ldr	r1, [sp, #20]
 122 0016 0120     		movs	r0, #1
 123 0018 0029     		cmp	r1, #0
 124 001a CCBF     		ite	gt
 125 001c 0021     		movgt	r1, #0
 126 001e 0121     		movle	r1, #1
 127 0020 FFF7FEFF 		bl	_test_assert
 128              	.LVL5:
 129 0024 08B1     		cbz	r0, .L10
 130              	.L4:
 131              		.loc 1 290 0
 132 0026 07B0     		add	sp, sp, #28
 133 0028 00BD     		pop	{pc}
 134              	.L10:
 135              		.loc 1 272 0
 136 002a 2F4B     		ldr	r3, .L13
 137              		.loc 1 271 0
 138 002c 03A8     		add	r0, sp, #12
 139              		.loc 1 272 0
 140 002e DB69     		ldr	r3, [r3, #28]
 141              		.loc 1 271 0
 142 0030 4FF49871 		mov	r1, #304
 143 0034 9A68     		ldr	r2, [r3, #8]
 144 0036 0090     		str	r0, [sp, #0]
 145 0038 2C48     		ldr	r0, .L13+4
 146 003a 013A     		subs	r2, r2, #1
 147 003c 2C4B     		ldr	r3, .L13+8
 148 003e 0068     		ldr	r0, [r0, #0]
 149 0040 FFF7FEFF 		bl	chThdCreateStatic
 150              	.LVL6:
 151 0044 2B4B     		ldr	r3, .L13+12
 152 0046 1860     		str	r0, [r3, #0]
 153              		.loc 1 275 0
 154 0048 03A8     		add	r0, sp, #12
 155 004a FFF7FEFF 		bl	chSemWait
 156              	.LVL7:
 157              		.loc 1 278 0
 158 004e 0599     		ldr	r1, [sp, #20]
 159 0050 0220     		movs	r0, #2
 160 0052 0029     		cmp	r1, #0
 161 0054 CCBF     		ite	gt
 162 0056 0021     		movgt	r1, #0
 163 0058 0121     		movle	r1, #1
 164 005a FFF7FEFF 		bl	_test_assert
 165              	.LVL8:
 166 005e 0028     		cmp	r0, #0
 167 0060 E1D1     		bne	.L4
 168              	.LBB2:
 169              		.loc 1 282 0
 170 0062 2023     		movs	r3, #32
 171              	.LVL9:
ARM GAS  /var/folders/dt/0wfd0knj7gs46m8vwfzktm600000gn/T//ccrsjBrt.s 			page 4


 172              	@ 282 "../../test/testsem.c" 1
 173 0064 83F31188 		msr     BASEPRI, r3
 174              	@ 0 "" 2
 175              	.LVL10:
 176              		.thumb
 177              	.LBE2:
 178 0068 059B     		ldr	r3, [sp, #20]
 179              	.LVL11:
 180 006a 002B     		cmp	r3, #0
 181 006c 34DD     		ble	.L11
 182              	.L6:
 183              		.loc 1 282 0 is_stmt 0 discriminator 2
 184 006e FFF7FEFF 		bl	chSchRescheduleS
 185              	.LVL12:
 186              	.LBB3:
 187 0072 0023     		movs	r3, #0
 188              	.LVL13:
 189              	@ 282 "../../test/testsem.c" 1
 190 0074 83F31188 		msr     BASEPRI, r3
 191              	@ 0 "" 2
 192              	.LVL14:
 193              		.thumb
 194              	.LBE3:
 195              		.loc 1 283 0 is_stmt 1 discriminator 2
 196 0078 0599     		ldr	r1, [sp, #20]
 197 007a 0320     		movs	r0, #3
 198 007c 9942     		cmp	r1, r3
 199              	.LVL15:
 200 007e D4BF     		ite	le
 201 0080 0021     		movle	r1, #0
 202 0082 0121     		movgt	r1, #1
 203 0084 FFF7FEFF 		bl	_test_assert
 204              	.LVL16:
 205 0088 0028     		cmp	r0, #0
 206 008a CCD1     		bne	.L4
 207              		.loc 1 284 0
 208 008c 0599     		ldr	r1, [sp, #20]
 209 008e 0420     		movs	r0, #4
 210 0090 4A1E     		subs	r2, r1, #1
 211 0092 5142     		rsbs	r1, r2, #0
 212 0094 5141     		adcs	r1, r1, r2
 213 0096 FFF7FEFF 		bl	_test_assert
 214              	.LVL17:
 215 009a 0028     		cmp	r0, #0
 216 009c C3D1     		bne	.L4
 217              	.LBB4:
 218              		.loc 1 287 0
 219 009e 2023     		movs	r3, #32
 220              	.LVL18:
 221              	@ 287 "../../test/testsem.c" 1
 222 00a0 83F31188 		msr     BASEPRI, r3
 223              	@ 0 "" 2
 224              	.LVL19:
 225              		.thumb
 226              	.LBE4:
 227 00a4 059B     		ldr	r3, [sp, #20]
 228              	.LVL20:
ARM GAS  /var/folders/dt/0wfd0knj7gs46m8vwfzktm600000gn/T//ccrsjBrt.s 			page 5


 229 00a6 002B     		cmp	r3, #0
 230 00a8 1ADD     		ble	.L12
 231              	.L7:
 232              		.loc 1 287 0 is_stmt 0 discriminator 2
 233 00aa FFF7FEFF 		bl	chSchRescheduleS
 234              	.LVL21:
 235              	.LBB5:
 236 00ae 0023     		movs	r3, #0
 237              	.LVL22:
 238              	@ 287 "../../test/testsem.c" 1
 239 00b0 83F31188 		msr     BASEPRI, r3
 240              	@ 0 "" 2
 241              	.LVL23:
 242              		.thumb
 243              	.LBE5:
 244              		.loc 1 288 0 is_stmt 1 discriminator 2
 245 00b4 0599     		ldr	r1, [sp, #20]
 246 00b6 0320     		movs	r0, #3
 247 00b8 9942     		cmp	r1, r3
 248              	.LVL24:
 249 00ba D4BF     		ite	le
 250 00bc 0021     		movle	r1, #0
 251 00be 0121     		movgt	r1, #1
 252 00c0 FFF7FEFF 		bl	_test_assert
 253              	.LVL25:
 254 00c4 0028     		cmp	r0, #0
 255 00c6 AED1     		bne	.L4
 256              		.loc 1 289 0
 257 00c8 0599     		ldr	r1, [sp, #20]
 258 00ca 0520     		movs	r0, #5
 259 00cc 4B1E     		subs	r3, r1, #1
 260 00ce 5942     		rsbs	r1, r3, #0
 261 00d0 5941     		adcs	r1, r1, r3
 262 00d2 FFF7FEFF 		bl	_test_assert
 263              	.LVL26:
 264 00d6 A6E7     		b	.L4
 265              	.L11:
 266              		.loc 1 282 0 discriminator 1
 267 00d8 03A8     		add	r0, sp, #12
 268 00da FFF7FEFF 		bl	chSemSignalI
 269              	.LVL27:
 270 00de C6E7     		b	.L6
 271              	.L12:
 272              		.loc 1 287 0 discriminator 1
 273 00e0 03A8     		add	r0, sp, #12
 274 00e2 FFF7FEFF 		bl	chSemSignalI
 275              	.LVL28:
 276 00e6 E0E7     		b	.L7
 277              	.L14:
 278              		.align	2
 279              	.L13:
 280 00e8 00000000 		.word	rlist
 281 00ec 00000000 		.word	wa
 282 00f0 00000000 		.word	thread4
 283 00f4 00000000 		.word	threads
 284              		.cfi_endproc
 285              	.LFE17:
ARM GAS  /var/folders/dt/0wfd0knj7gs46m8vwfzktm600000gn/T//ccrsjBrt.s 			page 6


 286              		.size	sem4_execute, .-sem4_execute
 287 00f8 AFF30080 		.section	.text.thread4,"ax",%progbits
 287      AFF30080 
 288              		.align	2
 289              		.p2align 4,,15
 290              		.thumb
 291              		.thumb_func
 292              		.type	thread4, %function
 293              	thread4:
 294              	.LFB16:
 295              		.loc 1 256 0
 296              		.cfi_startproc
 297              		@ args = 0, pretend = 0, frame = 0
 298              		@ frame_needed = 0, uses_anonymous_args = 0
 299              	.LVL29:
 300 0000 08B5     		push	{r3, lr}
 301              	.LCFI2:
 302              		.cfi_def_cfa_offset 8
 303              		.cfi_offset 3, -8
 304              		.cfi_offset 14, -4
 305              	.LBB6:
 306              		.loc 1 258 0
 307 0002 2023     		movs	r3, #32
 308              	.LVL30:
 309              	@ 258 "../../test/testsem.c" 1
 310 0004 83F31188 		msr     BASEPRI, r3
 311              	@ 0 "" 2
 312              	.LVL31:
 313              		.thumb
 314              	.LBE6:
 315 0008 8368     		ldr	r3, [r0, #8]
 316              	.LVL32:
 317 000a 002B     		cmp	r3, #0
 318 000c 06DD     		ble	.L17
 319              	.LVL33:
 320              	.L16:
 321              		.loc 1 258 0 is_stmt 0 discriminator 2
 322 000e FFF7FEFF 		bl	chSchRescheduleS
 323              	.LVL34:
 324              	.LBB7:
 325 0012 0023     		movs	r3, #0
 326              	.LVL35:
 327              	@ 258 "../../test/testsem.c" 1
 328 0014 83F31188 		msr     BASEPRI, r3
 329              	@ 0 "" 2
 330              	.LVL36:
 331              		.thumb
 332              	.LBE7:
 333              		.loc 1 260 0 is_stmt 1 discriminator 2
 334 0018 1846     		mov	r0, r3
 335 001a 08BD     		pop	{r3, pc}
 336              	.LVL37:
 337              	.L17:
 338              		.loc 1 258 0 discriminator 1
 339 001c FFF7FEFF 		bl	chSemSignalI
 340              	.LVL38:
 341 0020 F5E7     		b	.L16
ARM GAS  /var/folders/dt/0wfd0knj7gs46m8vwfzktm600000gn/T//ccrsjBrt.s 			page 7


 342              		.cfi_endproc
 343              	.LFE16:
 344              		.size	thread4, .-thread4
 345 0022 00BFAFF3 		.section	.text.thread3,"ax",%progbits
 345      0080AFF3 
 345      0080AFF3 
 345      0080
 346              		.align	2
 347              		.p2align 4,,15
 348              		.thumb
 349              		.thumb_func
 350              		.type	thread3, %function
 351              	thread3:
 352              	.LFB14:
 353              		.loc 1 220 0
 354              		.cfi_startproc
 355              		@ args = 0, pretend = 0, frame = 0
 356              		@ frame_needed = 0, uses_anonymous_args = 0
 357              	.LVL39:
 358 0000 10B5     		push	{r4, lr}
 359              	.LCFI3:
 360              		.cfi_def_cfa_offset 8
 361              		.cfi_offset 4, -8
 362              		.cfi_offset 14, -4
 363              		.loc 1 223 0
 364 0002 40F20004 		movw	r4, #:lower16:.LANCHOR0
 365 0006 C0F20004 		movt	r4, #:upper16:.LANCHOR0
 366 000a 2046     		mov	r0, r4
 367              	.LVL40:
 368 000c FFF7FEFF 		bl	chSemWait
 369              	.LVL41:
 370              		.loc 1 224 0
 371 0010 2046     		mov	r0, r4
 372 0012 FFF7FEFF 		bl	chSemSignal
 373              	.LVL42:
 374              		.loc 1 226 0
 375 0016 0020     		movs	r0, #0
 376 0018 10BD     		pop	{r4, pc}
 377              		.cfi_endproc
 378              	.LFE14:
 379              		.size	thread3, .-thread3
 380 001a 00BFAFF3 		.section	.text.thread1,"ax",%progbits
 380      0080
 381              		.align	2
 382              		.p2align 4,,15
 383              		.thumb
 384              		.thumb_func
 385              		.type	thread1, %function
 386              	thread1:
 387              	.LFB8:
 388              		.loc 1 88 0
 389              		.cfi_startproc
 390              		@ args = 0, pretend = 0, frame = 0
 391              		@ frame_needed = 0, uses_anonymous_args = 0
 392              	.LVL43:
 393 0000 10B5     		push	{r4, lr}
 394              	.LCFI4:
ARM GAS  /var/folders/dt/0wfd0knj7gs46m8vwfzktm600000gn/T//ccrsjBrt.s 			page 8


 395              		.cfi_def_cfa_offset 8
 396              		.cfi_offset 4, -8
 397              		.cfi_offset 14, -4
 398              		.loc 1 88 0
 399 0002 0446     		mov	r4, r0
 400              		.loc 1 90 0
 401 0004 40F20000 		movw	r0, #:lower16:.LANCHOR0
 402              	.LVL44:
 403 0008 C0F20000 		movt	r0, #:upper16:.LANCHOR0
 404 000c FFF7FEFF 		bl	chSemWait
 405              	.LVL45:
 406              		.loc 1 91 0
 407 0010 2078     		ldrb	r0, [r4, #0]	@ zero_extendqisi2
 408 0012 FFF7FEFF 		bl	test_emit_token
 409              	.LVL46:
 410              		.loc 1 93 0
 411 0016 0020     		movs	r0, #0
 412 0018 10BD     		pop	{r4, pc}
 413              		.cfi_endproc
 414              	.LFE8:
 415              		.size	thread1, .-thread1
 416 001a 00BFAFF3 		.section	.text.thread2,"ax",%progbits
 416      0080
 417              		.align	2
 418              		.p2align 4,,15
 419              		.thumb
 420              		.thumb_func
 421              		.type	thread2, %function
 422              	thread2:
 423              	.LFB11:
 424              		.loc 1 144 0
 425              		.cfi_startproc
 426              		@ args = 0, pretend = 0, frame = 0
 427              		@ frame_needed = 0, uses_anonymous_args = 0
 428              	.LVL47:
 429 0000 08B5     		push	{r3, lr}
 430              	.LCFI5:
 431              		.cfi_def_cfa_offset 8
 432              		.cfi_offset 3, -8
 433              		.cfi_offset 14, -4
 434              		.loc 1 147 0
 435 0002 3220     		movs	r0, #50
 436              	.LVL48:
 437 0004 FFF7FEFF 		bl	chThdSleep
 438              	.LVL49:
 439              	.LBB8:
 440              		.loc 1 148 0
 441 0008 2023     		movs	r3, #32
 442              	.LVL50:
 443              	@ 148 "../../test/testsem.c" 1
 444 000a 83F31188 		msr     BASEPRI, r3
 445              	@ 0 "" 2
 446              	.LVL51:
 447              		.thumb
 448              	.LBE8:
 449              		.loc 1 149 0
 450 000e 40F20000 		movw	r0, #:lower16:.LANCHOR0
ARM GAS  /var/folders/dt/0wfd0knj7gs46m8vwfzktm600000gn/T//ccrsjBrt.s 			page 9


 451 0012 C0F20000 		movt	r0, #:upper16:.LANCHOR0
 452 0016 FFF7FEFF 		bl	chSemSignalI
 453              	.LVL52:
 454              		.loc 1 150 0
 455 001a FFF7FEFF 		bl	chSchRescheduleS
 456              	.LVL53:
 457              	.LBB9:
 458              		.loc 1 151 0
 459 001e 0023     		movs	r3, #0
 460              	.LVL54:
 461              	@ 151 "../../test/testsem.c" 1
 462 0020 83F31188 		msr     BASEPRI, r3
 463              	@ 0 "" 2
 464              	.LVL55:
 465              		.thumb
 466              	.LBE9:
 467              		.loc 1 153 0
 468 0024 1846     		mov	r0, r3
 469 0026 08BD     		pop	{r3, pc}
 470              		.cfi_endproc
 471              	.LFE11:
 472              		.size	thread2, .-thread2
 473 0028 AFF30080 		.section	.text.sem1_execute,"ax",%progbits
 473      AFF30080 
 474              		.align	2
 475              		.p2align 4,,15
 476              		.thumb
 477              		.thumb_func
 478              		.type	sem1_execute, %function
 479              	sem1_execute:
 480              	.LFB9:
 481              		.loc 1 95 0
 482              		.cfi_startproc
 483              		@ args = 0, pretend = 0, frame = 8
 484              		@ frame_needed = 0, uses_anonymous_args = 0
 485 0000 2DE9F043 		push	{r4, r5, r6, r7, r8, r9, lr}
 486              	.LCFI6:
 487              		.cfi_def_cfa_offset 28
 488              		.cfi_offset 4, -28
 489              		.cfi_offset 5, -24
 490              		.cfi_offset 6, -20
 491              		.cfi_offset 7, -16
 492              		.cfi_offset 8, -12
 493              		.cfi_offset 9, -8
 494              		.cfi_offset 14, -4
 495              		.loc 1 97 0
 496 0004 DFF84081 		ldr	r8, .L24+40
 497 0008 454C     		ldr	r4, .L24
 498 000a D8F81C30 		ldr	r3, [r8, #28]
 499 000e 2768     		ldr	r7, [r4, #0]
 500 0010 9A68     		ldr	r2, [r3, #8]
 501 0012 444E     		ldr	r6, .L24+4
 502              		.loc 1 95 0
 503 0014 85B0     		sub	sp, sp, #20
 504              	.LCFI7:
 505              		.cfi_def_cfa_offset 48
 506              		.loc 1 97 0
ARM GAS  /var/folders/dt/0wfd0knj7gs46m8vwfzktm600000gn/T//ccrsjBrt.s 			page 10


 507 0016 4FF49871 		mov	r1, #304
 508 001a 0532     		adds	r2, r2, #5
 509 001c 424B     		ldr	r3, .L24+8
 510 001e 0096     		str	r6, [sp, #0]
 511 0020 3846     		mov	r0, r7
 512 0022 FFF7FEFF 		bl	chThdCreateStatic
 513              	.LVL56:
 514              		.loc 1 98 0
 515 0026 D8F81C30 		ldr	r3, [r8, #28]
 516              		.loc 1 97 0
 517 002a 404D     		ldr	r5, .L24+12
 518              		.loc 1 98 0
 519 002c 9A68     		ldr	r2, [r3, #8]
 520 002e 6368     		ldr	r3, [r4, #4]
 521              		.loc 1 97 0
 522 0030 2860     		str	r0, [r5, #0]
 523              		.loc 1 98 0
 524 0032 3F48     		ldr	r0, .L24+16
 525 0034 0393     		str	r3, [sp, #12]
 526 0036 4FF49871 		mov	r1, #304
 527 003a 0132     		adds	r2, r2, #1
 528 003c 3A4B     		ldr	r3, .L24+8
 529 003e 0090     		str	r0, [sp, #0]
 530 0040 0398     		ldr	r0, [sp, #12]
 531 0042 FFF7FEFF 		bl	chThdCreateStatic
 532              	.LVL57:
 533              		.loc 1 99 0
 534 0046 A268     		ldr	r2, [r4, #8]
 535 0048 D8F81C30 		ldr	r3, [r8, #28]
 536 004c 0392     		str	r2, [sp, #12]
 537 004e 9A68     		ldr	r2, [r3, #8]
 538              		.loc 1 98 0
 539 0050 6860     		str	r0, [r5, #4]
 540              		.loc 1 99 0
 541 0052 3848     		ldr	r0, .L24+20
 542 0054 4FF49871 		mov	r1, #304
 543 0058 0332     		adds	r2, r2, #3
 544 005a 334B     		ldr	r3, .L24+8
 545 005c 0090     		str	r0, [sp, #0]
 546 005e 0398     		ldr	r0, [sp, #12]
 547 0060 FFF7FEFF 		bl	chThdCreateStatic
 548              	.LVL58:
 549              		.loc 1 100 0
 550 0064 E268     		ldr	r2, [r4, #12]
 551 0066 D8F81C30 		ldr	r3, [r8, #28]
 552 006a 0392     		str	r2, [sp, #12]
 553 006c 9A68     		ldr	r2, [r3, #8]
 554              		.loc 1 99 0
 555 006e A860     		str	r0, [r5, #8]
 556              		.loc 1 100 0
 557 0070 3148     		ldr	r0, .L24+24
 558 0072 4FF49871 		mov	r1, #304
 559 0076 0432     		adds	r2, r2, #4
 560 0078 2B4B     		ldr	r3, .L24+8
 561 007a 0090     		str	r0, [sp, #0]
 562 007c 0398     		ldr	r0, [sp, #12]
 563 007e FFF7FEFF 		bl	chThdCreateStatic
ARM GAS  /var/folders/dt/0wfd0knj7gs46m8vwfzktm600000gn/T//ccrsjBrt.s 			page 11


 564              	.LVL59:
 565              		.loc 1 101 0
 566 0082 D8F81C30 		ldr	r3, [r8, #28]
 567 0086 2469     		ldr	r4, [r4, #16]
 568 0088 9A68     		ldr	r2, [r3, #8]
 569              		.loc 1 100 0
 570 008a E860     		str	r0, [r5, #12]
 571              		.loc 1 101 0
 572 008c 2B48     		ldr	r0, .L24+28
 573 008e 4FF49871 		mov	r1, #304
 574 0092 0232     		adds	r2, r2, #2
 575 0094 244B     		ldr	r3, .L24+8
 576 0096 0090     		str	r0, [sp, #0]
 577 0098 2046     		mov	r0, r4
 578 009a FFF7FEFF 		bl	chThdCreateStatic
 579              	.LVL60:
 580              		.loc 1 102 0
 581 009e 284C     		ldr	r4, .L24+32
 582              		.loc 1 101 0
 583 00a0 2861     		str	r0, [r5, #16]
 584              		.loc 1 102 0
 585 00a2 2046     		mov	r0, r4
 586 00a4 FFF7FEFF 		bl	chSemSignal
 587              	.LVL61:
 588              		.loc 1 103 0
 589 00a8 2046     		mov	r0, r4
 590 00aa FFF7FEFF 		bl	chSemSignal
 591              	.LVL62:
 592              		.loc 1 104 0
 593 00ae 2046     		mov	r0, r4
 594 00b0 FFF7FEFF 		bl	chSemSignal
 595              	.LVL63:
 596              		.loc 1 105 0
 597 00b4 2046     		mov	r0, r4
 598 00b6 FFF7FEFF 		bl	chSemSignal
 599              	.LVL64:
 600              		.loc 1 106 0
 601 00ba 2046     		mov	r0, r4
 602 00bc FFF7FEFF 		bl	chSemSignal
 603              	.LVL65:
 604              		.loc 1 107 0
 605 00c0 FFF7FEFF 		bl	test_wait_threads
 606              	.LVL66:
 607              		.loc 1 111 0
 608 00c4 0120     		movs	r0, #1
 609 00c6 1F49     		ldr	r1, .L24+36
 610 00c8 FFF7FEFF 		bl	_test_assert_sequence
 611              	.LVL67:
 612 00cc 8146     		mov	r9, r0
 613 00ce 10B1     		cbz	r0, .L23
 614              		.loc 1 119 0
 615 00d0 05B0     		add	sp, sp, #20
 616 00d2 BDE8F083 		pop	{r4, r5, r6, r7, r8, r9, pc}
 617              	.L23:
 618              		.loc 1 113 0
 619 00d6 D8F81C30 		ldr	r3, [r8, #28]
 620 00da 3846     		mov	r0, r7
ARM GAS  /var/folders/dt/0wfd0knj7gs46m8vwfzktm600000gn/T//ccrsjBrt.s 			page 12


 621 00dc 9A68     		ldr	r2, [r3, #8]
 622 00de 4FF49871 		mov	r1, #304
 623 00e2 0096     		str	r6, [sp, #0]
 624 00e4 0532     		adds	r2, r2, #5
 625 00e6 104B     		ldr	r3, .L24+8
 626 00e8 FFF7FEFF 		bl	chThdCreateStatic
 627              	.LVL68:
 628              	.LBB10:
 629              		.loc 1 114 0
 630 00ec 2023     		movs	r3, #32
 631              	.LVL69:
 632              	.LBE10:
 633              		.loc 1 113 0
 634 00ee 2860     		str	r0, [r5, #0]
 635              	.LBB11:
 636              		.loc 1 114 0
 637              	@ 114 "../../test/testsem.c" 1
 638 00f0 83F31188 		msr     BASEPRI, r3
 639              	@ 0 "" 2
 640              	.LVL70:
 641              		.thumb
 642              	.LBE11:
 643              		.loc 1 115 0
 644 00f4 0221     		movs	r1, #2
 645 00f6 2046     		mov	r0, r4
 646 00f8 FFF7FEFF 		bl	chSemAddCounterI
 647              	.LVL71:
 648              	.LBB12:
 649              		.loc 1 116 0
 650 00fc 4B46     		mov	r3, r9
 651              	.LVL72:
 652              	@ 116 "../../test/testsem.c" 1
 653 00fe 83F31188 		msr     BASEPRI, r3
 654              	@ 0 "" 2
 655              	.LVL73:
 656              		.thumb
 657              	.LBE12:
 658              		.loc 1 117 0
 659 0102 FFF7FEFF 		bl	test_wait_threads
 660              	.LVL74:
 661              		.loc 1 118 0
 662 0106 A168     		ldr	r1, [r4, #8]
 663 0108 0220     		movs	r0, #2
 664 010a B1F1010E 		subs	lr, r1, #1
 665 010e DEF10001 		rsbs	r1, lr, #0
 666 0112 51EB0E01 		adcs	r1, r1, lr
 667              		.loc 1 119 0
 668 0116 05B0     		add	sp, sp, #20
 669 0118 BDE8F043 		pop	{r4, r5, r6, r7, r8, r9, lr}
 670              		.loc 1 118 0
 671 011c FFF7FEBF 		b	_test_assert
 672              	.LVL75:
 673              	.L25:
 674              		.align	2
 675              	.L24:
 676 0120 00000000 		.word	wa
 677 0124 00000000 		.word	.LC0
ARM GAS  /var/folders/dt/0wfd0knj7gs46m8vwfzktm600000gn/T//ccrsjBrt.s 			page 13


 678 0128 00000000 		.word	thread1
 679 012c 00000000 		.word	threads
 680 0130 04000000 		.word	.LC1
 681 0134 08000000 		.word	.LC2
 682 0138 0C000000 		.word	.LC3
 683 013c 10000000 		.word	.LC4
 684 0140 00000000 		.word	.LANCHOR0
 685 0144 14000000 		.word	.LC5
 686 0148 00000000 		.word	rlist
 687              		.cfi_endproc
 688              	.LFE9:
 689              		.size	sem1_execute, .-sem1_execute
 690 014c AFF30080 		.section	.text.sem3_execute,"ax",%progbits
 691              		.align	2
 692              		.p2align 4,,15
 693              		.thumb
 694              		.thumb_func
 695              		.type	sem3_execute, %function
 696              	sem3_execute:
 697              	.LFB15:
 698              		.loc 1 228 0
 699              		.cfi_startproc
 700              		@ args = 0, pretend = 0, frame = 0
 701              		@ frame_needed = 0, uses_anonymous_args = 0
 702 0000 10B5     		push	{r4, lr}
 703              	.LCFI8:
 704              		.cfi_def_cfa_offset 8
 705              		.cfi_offset 4, -8
 706              		.cfi_offset 14, -4
 707              		.loc 1 230 0
 708 0002 224B     		ldr	r3, .L31
 709              		.loc 1 228 0
 710 0004 82B0     		sub	sp, sp, #8
 711              	.LCFI9:
 712              		.cfi_def_cfa_offset 16
 713              		.loc 1 230 0
 714 0006 DB69     		ldr	r3, [r3, #28]
 715 0008 0020     		movs	r0, #0
 716 000a 9A68     		ldr	r2, [r3, #8]
 717 000c 0090     		str	r0, [sp, #0]
 718 000e 2048     		ldr	r0, .L31+4
 719 0010 0132     		adds	r2, r2, #1
 720 0012 4FF49871 		mov	r1, #304
 721 0016 1F4B     		ldr	r3, .L31+8
 722 0018 0068     		ldr	r0, [r0, #0]
 723 001a FFF7FEFF 		bl	chThdCreateStatic
 724              	.LVL76:
 725              		.loc 1 231 0
 726 001e 1E4C     		ldr	r4, .L31+12
 727              		.loc 1 230 0
 728 0020 1E4B     		ldr	r3, .L31+16
 729              		.loc 1 231 0
 730 0022 2146     		mov	r1, r4
 731              		.loc 1 230 0
 732 0024 1860     		str	r0, [r3, #0]
 733              		.loc 1 231 0
 734 0026 2046     		mov	r0, r4
ARM GAS  /var/folders/dt/0wfd0knj7gs46m8vwfzktm600000gn/T//ccrsjBrt.s 			page 14


 735 0028 FFF7FEFF 		bl	chSemSignalWait
 736              	.LVL77:
 737              		.loc 1 232 0
 738 002c 2168     		ldr	r1, [r4, #0]
 739 002e 0120     		movs	r0, #1
 740 0030 0B1B     		subs	r3, r1, r4
 741 0032 5942     		rsbs	r1, r3, #0
 742 0034 5941     		adcs	r1, r1, r3
 743 0036 FFF7FEFF 		bl	_test_assert
 744              	.LVL78:
 745 003a 08B1     		cbz	r0, .L30
 746              	.L26:
 747              		.loc 1 238 0
 748 003c 02B0     		add	sp, sp, #8
 749 003e 10BD     		pop	{r4, pc}
 750              	.L30:
 751              		.loc 1 233 0
 752 0040 A168     		ldr	r1, [r4, #8]
 753 0042 0220     		movs	r0, #2
 754 0044 D1F10101 		rsbs	r1, r1, #1
 755 0048 38BF     		it	cc
 756 004a 0021     		movcc	r1, #0
 757 004c FFF7FEFF 		bl	_test_assert
 758              	.LVL79:
 759 0050 0028     		cmp	r0, #0
 760 0052 F3D1     		bne	.L26
 761              	.LBB15:
 762              	.LBB16:
 763              		.loc 1 235 0
 764 0054 2146     		mov	r1, r4
 765 0056 2046     		mov	r0, r4
 766 0058 FFF7FEFF 		bl	chSemSignalWait
 767              	.LVL80:
 768              		.loc 1 236 0
 769 005c 2168     		ldr	r1, [r4, #0]
 770 005e 0320     		movs	r0, #3
 771 0060 B1EB040C 		subs	ip, r1, r4
 772 0064 DCF10001 		rsbs	r1, ip, #0
 773 0068 51EB0C01 		adcs	r1, r1, ip
 774 006c FFF7FEFF 		bl	_test_assert
 775              	.LVL81:
 776 0070 0028     		cmp	r0, #0
 777 0072 E3D1     		bne	.L26
 778              		.loc 1 237 0
 779 0074 A168     		ldr	r1, [r4, #8]
 780 0076 0420     		movs	r0, #4
 781 0078 D1F10101 		rsbs	r1, r1, #1
 782 007c 38BF     		it	cc
 783 007e 0021     		movcc	r1, #0
 784              	.LBE16:
 785              	.LBE15:
 786              		.loc 1 238 0
 787 0080 02B0     		add	sp, sp, #8
 788 0082 BDE81040 		pop	{r4, lr}
 789              	.LBB18:
 790              	.LBB17:
 791              		.loc 1 237 0
ARM GAS  /var/folders/dt/0wfd0knj7gs46m8vwfzktm600000gn/T//ccrsjBrt.s 			page 15


 792 0086 FFF7FEBF 		b	_test_assert
 793              	.LVL82:
 794              	.L32:
 795 008a 00BF     		.align	2
 796              	.L31:
 797 008c 00000000 		.word	rlist
 798 0090 00000000 		.word	wa
 799 0094 00000000 		.word	thread3
 800 0098 00000000 		.word	.LANCHOR0
 801 009c 00000000 		.word	threads
 802              	.LBE17:
 803              	.LBE18:
 804              		.cfi_endproc
 805              	.LFE15:
 806              		.size	sem3_execute, .-sem3_execute
 807              		.section	.text.sem2_execute,"ax",%progbits
 808              		.align	2
 809              		.p2align 4,,15
 810              		.thumb
 811              		.thumb_func
 812              		.type	sem2_execute, %function
 813              	sem2_execute:
 814              	.LFB12:
 815              		.loc 1 155 0
 816              		.cfi_startproc
 817              		@ args = 0, pretend = 0, frame = 0
 818              		@ frame_needed = 0, uses_anonymous_args = 0
 819 0000 70B5     		push	{r4, r5, r6, lr}
 820              	.LCFI10:
 821              		.cfi_def_cfa_offset 16
 822              		.cfi_offset 4, -16
 823              		.cfi_offset 5, -12
 824              		.cfi_offset 6, -8
 825              		.cfi_offset 14, -4
 826              		.loc 1 163 0
 827 0002 4C4C     		ldr	r4, .L40
 828 0004 0021     		movs	r1, #0
 829              		.loc 1 155 0
 830 0006 82B0     		sub	sp, sp, #8
 831              	.LCFI11:
 832              		.cfi_def_cfa_offset 24
 833              		.loc 1 163 0
 834 0008 2046     		mov	r0, r4
 835 000a FFF7FEFF 		bl	chSemWaitTimeout
 836              	.LVL83:
 837              		.loc 1 164 0
 838 000e B0F1FF33 		subs	r3, r0, #-1
 839 0012 5942     		rsbs	r1, r3, #0
 840 0014 5941     		adcs	r1, r1, r3
 841 0016 0120     		movs	r0, #1
 842              	.LVL84:
 843 0018 FFF7FEFF 		bl	_test_assert
 844              	.LVL85:
 845 001c 08B1     		cbz	r0, .L39
 846              	.L33:
 847              		.loc 1 193 0
 848 001e 02B0     		add	sp, sp, #8
ARM GAS  /var/folders/dt/0wfd0knj7gs46m8vwfzktm600000gn/T//ccrsjBrt.s 			page 16


 849 0020 70BD     		pop	{r4, r5, r6, pc}
 850              	.L39:
 851              		.loc 1 165 0
 852 0022 2168     		ldr	r1, [r4, #0]
 853 0024 0220     		movs	r0, #2
 854 0026 B1EB040C 		subs	ip, r1, r4
 855 002a DCF10001 		rsbs	r1, ip, #0
 856 002e 51EB0C01 		adcs	r1, r1, ip
 857 0032 FFF7FEFF 		bl	_test_assert
 858              	.LVL86:
 859 0036 0028     		cmp	r0, #0
 860 0038 F1D1     		bne	.L33
 861              		.loc 1 166 0
 862 003a A168     		ldr	r1, [r4, #8]
 863 003c 0320     		movs	r0, #3
 864 003e D1F10101 		rsbs	r1, r1, #1
 865 0042 38BF     		it	cc
 866 0044 0021     		movcc	r1, #0
 867 0046 FFF7FEFF 		bl	_test_assert
 868              	.LVL87:
 869 004a 0028     		cmp	r0, #0
 870 004c E7D1     		bne	.L33
 871              	.LBB21:
 872              	.LBB22:
 873              		.loc 1 171 0
 874 004e 3A4B     		ldr	r3, .L40+4
 875 0050 4FF49871 		mov	r1, #304
 876 0054 DB69     		ldr	r3, [r3, #28]
 877 0056 9A68     		ldr	r2, [r3, #8]
 878 0058 0090     		str	r0, [sp, #0]
 879 005a 3848     		ldr	r0, .L40+8
 880 005c 013A     		subs	r2, r2, #1
 881 005e 384B     		ldr	r3, .L40+12
 882 0060 0068     		ldr	r0, [r0, #0]
 883 0062 FFF7FEFF 		bl	chThdCreateStatic
 884              	.LVL88:
 885 0066 374B     		ldr	r3, .L40+16
 886              		.loc 1 173 0
 887 0068 4FF4FA71 		mov	r1, #500
 888              		.loc 1 171 0
 889 006c 1860     		str	r0, [r3, #0]
 890              		.loc 1 173 0
 891 006e 2046     		mov	r0, r4
 892 0070 FFF7FEFF 		bl	chSemWaitTimeout
 893              	.LVL89:
 894 0074 0546     		mov	r5, r0
 895              	.LVL90:
 896              		.loc 1 174 0
 897 0076 FFF7FEFF 		bl	test_wait_threads
 898              	.LVL91:
 899              		.loc 1 175 0
 900 007a 0420     		movs	r0, #4
 901 007c D5F10101 		rsbs	r1, r5, #1
 902 0080 38BF     		it	cc
 903 0082 0021     		movcc	r1, #0
 904 0084 FFF7FEFF 		bl	_test_assert
 905              	.LVL92:
ARM GAS  /var/folders/dt/0wfd0knj7gs46m8vwfzktm600000gn/T//ccrsjBrt.s 			page 17


 906 0088 0028     		cmp	r0, #0
 907 008a C8D1     		bne	.L33
 908              		.loc 1 176 0
 909 008c 2168     		ldr	r1, [r4, #0]
 910 008e 0520     		movs	r0, #5
 911 0090 B1EB040E 		subs	lr, r1, r4
 912 0094 DEF10001 		rsbs	r1, lr, #0
 913 0098 51EB0E01 		adcs	r1, r1, lr
 914 009c FFF7FEFF 		bl	_test_assert
 915              	.LVL93:
 916 00a0 0028     		cmp	r0, #0
 917 00a2 BCD1     		bne	.L33
 918              		.loc 1 177 0
 919 00a4 A168     		ldr	r1, [r4, #8]
 920 00a6 0620     		movs	r0, #6
 921 00a8 D1F10101 		rsbs	r1, r1, #1
 922 00ac 38BF     		it	cc
 923 00ae 0021     		movcc	r1, #0
 924 00b0 FFF7FEFF 		bl	_test_assert
 925              	.LVL94:
 926 00b4 0028     		cmp	r0, #0
 927 00b6 B2D1     		bne	.L33
 928              		.loc 1 182 0
 929 00b8 FFF7FEFF 		bl	test_wait_tick
 930              	.LVL95:
 931              		.loc 1 183 0
 932 00bc 224B     		ldr	r3, .L40+20
 933 00be 4125     		movs	r5, #65
 934              	.LVL96:
 935 00c0 DE68     		ldr	r6, [r3, #12]
 936              	.LVL97:
 937              	.L37:
 938              		.loc 1 185 0
 939 00c2 2846     		mov	r0, r5
 940 00c4 FFF7FEFF 		bl	test_emit_token
 941              	.LVL98:
 942              		.loc 1 186 0
 943 00c8 4FF4FA71 		mov	r1, #500
 944 00cc 1948     		ldr	r0, .L40
 945 00ce FFF7FEFF 		bl	chSemWaitTimeout
 946              	.LVL99:
 947              		.loc 1 187 0
 948 00d2 B0F1FF30 		subs	r0, r0, #-1
 949              	.LVL100:
 950 00d6 4142     		rsbs	r1, r0, #0
 951 00d8 4141     		adcs	r1, r1, r0
 952 00da 0720     		movs	r0, #7
 953              	.LVL101:
 954 00dc FFF7FEFF 		bl	_test_assert
 955              	.LVL102:
 956 00e0 0028     		cmp	r0, #0
 957 00e2 9CD1     		bne	.L33
 958              		.loc 1 188 0
 959 00e4 2168     		ldr	r1, [r4, #0]
 960 00e6 0820     		movs	r0, #8
 961 00e8 0A1B     		subs	r2, r1, r4
 962 00ea 5142     		rsbs	r1, r2, #0
ARM GAS  /var/folders/dt/0wfd0knj7gs46m8vwfzktm600000gn/T//ccrsjBrt.s 			page 18


 963 00ec 5141     		adcs	r1, r1, r2
 964 00ee FFF7FEFF 		bl	_test_assert
 965              	.LVL103:
 966 00f2 0028     		cmp	r0, #0
 967 00f4 93D1     		bne	.L33
 968              		.loc 1 189 0
 969 00f6 A168     		ldr	r1, [r4, #8]
 970 00f8 0920     		movs	r0, #9
 971 00fa D1F10101 		rsbs	r1, r1, #1
 972 00fe 38BF     		it	cc
 973 0100 0021     		movcc	r1, #0
 974 0102 FFF7FEFF 		bl	_test_assert
 975              	.LVL104:
 976 0106 0135     		adds	r5, r5, #1
 977 0108 EDB2     		uxtb	r5, r5
 978 010a 0028     		cmp	r0, #0
 979 010c 87D1     		bne	.L33
 980              		.loc 1 184 0
 981 010e 462D     		cmp	r5, #70
 982 0110 D7D1     		bne	.L37
 983              		.loc 1 191 0
 984 0112 0A20     		movs	r0, #10
 985 0114 0D49     		ldr	r1, .L40+24
 986 0116 FFF7FEFF 		bl	_test_assert_sequence
 987              	.LVL105:
 988 011a 0028     		cmp	r0, #0
 989 011c 7FF47FAF 		bne	.L33
 990              		.loc 1 192 0
 991 0120 0B20     		movs	r0, #11
 992 0122 06F6C411 		addw	r1, r6, #2500
 993 0126 06F6C912 		addw	r2, r6, #2505
 994              	.LBE22:
 995              	.LBE21:
 996              		.loc 1 193 0
 997 012a 02B0     		add	sp, sp, #8
 998 012c BDE87040 		pop	{r4, r5, r6, lr}
 999              	.LBB24:
 1000              	.LBB23:
 1001              		.loc 1 192 0
 1002 0130 FFF7FEBF 		b	_test_assert_time_window
 1003              	.LVL106:
 1004              	.L41:
 1005              		.align	2
 1006              	.L40:
 1007 0134 00000000 		.word	.LANCHOR0
 1008 0138 00000000 		.word	rlist
 1009 013c 00000000 		.word	wa
 1010 0140 00000000 		.word	thread2
 1011 0144 00000000 		.word	threads
 1012 0148 00000000 		.word	vtlist
 1013 014c 14000000 		.word	.LC5
 1014              	.LBE23:
 1015              	.LBE24:
 1016              		.cfi_endproc
 1017              	.LFE12:
 1018              		.size	sem2_execute, .-sem2_execute
 1019              		.global	patternsem
ARM GAS  /var/folders/dt/0wfd0knj7gs46m8vwfzktm600000gn/T//ccrsjBrt.s 			page 19


 1020              		.global	testsem4
 1021              		.global	testsem3
 1022              		.global	testsem2
 1023              		.global	testsem1
 1024              		.section	.rodata.testsem1,"a",%progbits
 1025              		.align	2
 1026              		.type	testsem1, %object
 1027              		.size	testsem1, 16
 1028              	testsem1:
 1029 0000 74000000 		.word	.LC9
 1030 0004 00000000 		.word	sem1_setup
 1031 0008 00000000 		.word	0
 1032 000c 00000000 		.word	sem1_execute
 1033              		.section	.rodata.testsem2,"a",%progbits
 1034              		.align	2
 1035              		.type	testsem2, %object
 1036              		.size	testsem2, 16
 1037              	testsem2:
 1038 0000 60000000 		.word	.LC8
 1039 0004 00000000 		.word	sem2_setup
 1040 0008 00000000 		.word	0
 1041 000c 00000000 		.word	sem2_execute
 1042              		.section	.rodata.testsem3,"a",%progbits
 1043              		.align	2
 1044              		.type	testsem3, %object
 1045              		.size	testsem3, 16
 1046              	testsem3:
 1047 0000 40000000 		.word	.LC7
 1048 0004 00000000 		.word	sem3_setup
 1049 0008 00000000 		.word	0
 1050 000c 00000000 		.word	sem3_execute
 1051              		.section	.rodata.testsem4,"a",%progbits
 1052              		.align	2
 1053              		.type	testsem4, %object
 1054              		.size	testsem4, 16
 1055              	testsem4:
 1056 0000 1C000000 		.word	.LC6
 1057 0004 00000000 		.word	0
 1058 0008 00000000 		.word	0
 1059 000c 00000000 		.word	sem4_execute
 1060              		.section	.data.sem1,"aw",%progbits
 1061              		.align	2
 1062              		.set	.LANCHOR0,. + 0
 1063              		.type	sem1, %object
 1064              		.size	sem1, 12
 1065              	sem1:
 1066 0000 00000000 		.word	sem1
 1067 0004 00000000 		.word	sem1
 1068 0008 00000000 		.word	0
 1069              		.section	.rodata.patternsem,"a",%progbits
 1070              		.align	2
 1071              		.type	patternsem, %object
 1072              		.size	patternsem, 20
 1073              	patternsem:
 1074 0000 00000000 		.word	testsem1
 1075 0004 00000000 		.word	testsem2
 1076 0008 00000000 		.word	testsem3
ARM GAS  /var/folders/dt/0wfd0knj7gs46m8vwfzktm600000gn/T//ccrsjBrt.s 			page 20


 1077 000c 00000000 		.word	testsem4
 1078 0010 00000000 		.word	0
 1079              		.section	.rodata.str1.4,"aMS",%progbits,1
 1080              		.align	2
 1081              	.LC0:
 1082 0000 4100     		.ascii	"A\000"
 1083 0002 0000     		.space	2
 1084              	.LC1:
 1085 0004 4200     		.ascii	"B\000"
 1086 0006 0000     		.space	2
 1087              	.LC2:
 1088 0008 4300     		.ascii	"C\000"
 1089 000a 0000     		.space	2
 1090              	.LC3:
 1091 000c 4400     		.ascii	"D\000"
 1092 000e 0000     		.space	2
 1093              	.LC4:
 1094 0010 4500     		.ascii	"E\000"
 1095 0012 0000     		.space	2
 1096              	.LC5:
 1097 0014 41424344 		.ascii	"ABCDE\000"
 1097      4500
 1098 001a 0000     		.space	2
 1099              	.LC6:
 1100 001c 42696E61 		.ascii	"Binary Semaphores, functionality\000"
 1100      72792053 
 1100      656D6170 
 1100      686F7265 
 1100      732C2066 
 1101 003d 000000   		.space	3
 1102              	.LC7:
 1103 0040 53656D61 		.ascii	"Semaphores, atomic signal-wait\000"
 1103      70686F72 
 1103      65732C20 
 1103      61746F6D 
 1103      69632073 
 1104 005f 00       		.space	1
 1105              	.LC8:
 1106 0060 53656D61 		.ascii	"Semaphores, timeout\000"
 1106      70686F72 
 1106      65732C20 
 1106      74696D65 
 1106      6F757400 
 1107              	.LC9:
 1108 0074 53656D61 		.ascii	"Semaphores, enqueuing\000"
 1108      70686F72 
 1108      65732C20 
 1108      656E7175 
 1108      6575696E 
 1109 008a 0000     		.text
 1110              	.Letext0:
 1111              		.file 2 "/Users/toxygen/Applications/yagarto-4.7.2/bin/../lib/gcc/arm-none-eabi/4.7.2/include/stdd
 1112              		.file 3 "/Users/toxygen/Applications/yagarto-4.7.2/bin/../lib/gcc/arm-none-eabi/4.7.2/../../../../
 1113              		.file 4 "../../os/ports/GCC/ARMCMx/chtypes.h"
 1114              		.file 5 "../../os/kernel/include/chlists.h"
 1115              		.file 6 "../../os/kernel/include/chthreads.h"
 1116              		.file 7 "../../os/ports/GCC/ARMCMx/chcore_v7m.h"
ARM GAS  /var/folders/dt/0wfd0knj7gs46m8vwfzktm600000gn/T//ccrsjBrt.s 			page 21


 1117              		.file 8 "../../os/kernel/include/chvt.h"
 1118              		.file 9 "../../os/kernel/include/chschd.h"
 1119              		.file 10 "../../os/kernel/include/chsem.h"
 1120              		.file 11 "../../os/kernel/include/chbsem.h"
 1121              		.file 12 "../../os/kernel/include/chmtx.h"
 1122              		.file 13 "../../test/test.h"