ARM GAS  /tmp/cc2s4Zze.s 			page 1


   1              		.syntax unified
   2              		.cpu cortex-m3
   3              		.fpu softvfp
   4              		.eabi_attribute 20, 1
   5              		.eabi_attribute 21, 1
   6              		.eabi_attribute 23, 3
   7              		.eabi_attribute 24, 1
   8              		.eabi_attribute 25, 1
   9              		.eabi_attribute 26, 1
  10              		.eabi_attribute 30, 2
  11              		.eabi_attribute 34, 1
  12              		.eabi_attribute 18, 4
  13              		.thumb
  14              		.file	"chcore_v7m.c"
  15              		.text
  16              	.Ltext0:
  17              		.cfi_sections	.debug_frame
  18              		.section	.text._port_switch_from_isr,"ax",%progbits
  19              		.align	2
  20              		.p2align 4,,15
  21              		.global	_port_switch_from_isr
  22              		.thumb
  23              		.thumb_func
  24              		.type	_port_switch_from_isr, %function
  25              	_port_switch_from_isr:
  26              	.LFB11:
  27              		.file 1 "../../os/ports/GCC/ARMCMx/chcore_v7m.c"
  28              		.loc 1 207 0
  29              		.cfi_startproc
  30              		@ Naked Function: prologue and epilogue provided by programmer.
  31              		@ args = 0, pretend = 0, frame = 0
  32              		@ frame_needed = 0, uses_anonymous_args = 0
  33              		.loc 1 209 0
  34 0000 FFF7FEFF 		bl	dbg_check_lock
  35              	.LVL0:
  36              		.loc 1 210 0
  37 0004 FFF7FEFF 		bl	chSchDoReschedule
  38              	.LVL1:
  39              		.loc 1 211 0
  40 0008 FFF7FEFF 		bl	dbg_check_unlock
  41              	.LVL2:
  42              		.loc 1 212 0
  43              	@ 212 "../../os/ports/GCC/ARMCMx/chcore_v7m.c" 1
  44              		_port_exit_from_isr:
  45              	@ 0 "" 2
  46              		.loc 1 214 0
  47              	@ 214 "../../os/ports/GCC/ARMCMx/chcore_v7m.c" 1
  48 000c 00DF     		svc     #0
  49              	@ 0 "" 2
  50              		.loc 1 221 0
  51              		.thumb
  52              		.cfi_endproc
  53              	.LFE11:
  54              		.size	_port_switch_from_isr, .-_port_switch_from_isr
  55 000e 00BF     		.section	.text.SVCallVector,"ax",%progbits
  56              		.align	2
  57              		.p2align 4,,15
ARM GAS  /tmp/cc2s4Zze.s 			page 2


  58              		.global	SVCallVector
  59              		.thumb
  60              		.thumb_func
  61              		.type	SVCallVector, %function
  62              	SVCallVector:
  63              	.LFB8:
  64              		.loc 1 65 0
  65              		.cfi_startproc
  66              		@ args = 0, pretend = 0, frame = 0
  67              		@ frame_needed = 0, uses_anonymous_args = 0
  68              		@ link register save eliminated.
  69              		.loc 1 69 0
  70              	@ 69 "../../os/ports/GCC/ARMCMx/chcore_v7m.c" 1
  71 0000 EFF30983 		mrs     r3, PSP
  72              	@ 0 "" 2
  73              	.LVL3:
  74              		.loc 1 73 0
  75              		.thumb
  76 0004 2033     		adds	r3, r3, #32
  77              	.LVL4:
  78              		.loc 1 80 0
  79              	@ 80 "../../os/ports/GCC/ARMCMx/chcore_v7m.c" 1
  80 0006 83F30988 		msr     PSP, r3
  81              	@ 0 "" 2
  82              		.thumb
  83              	.LBB2:
  84              		.loc 1 81 0
  85 000a 0023     		movs	r3, #0
  86              	.LVL5:
  87              	@ 81 "../../os/ports/GCC/ARMCMx/chcore_v7m.c" 1
  88 000c 83F31188 		msr     BASEPRI, r3
  89              	@ 0 "" 2
  90              	.LVL6:
  91              		.thumb
  92 0010 7047     		bx	lr
  93              	.LBE2:
  94              		.cfi_endproc
  95              	.LFE8:
  96              		.size	SVCallVector, .-SVCallVector
  97 0012 00BFAFF3 		.section	.text._port_init,"ax",%progbits
  97      0080AFF3 
  97      0080AFF3 
  97      0080
  98              		.align	2
  99              		.p2align 4,,15
 100              		.global	_port_init
 101              		.thumb
 102              		.thumb_func
 103              		.type	_port_init, %function
 104              	_port_init:
 105              	.LFB9:
 106              		.loc 1 118 0
 107              		.cfi_startproc
 108              		@ args = 0, pretend = 0, frame = 0
 109              		@ frame_needed = 0, uses_anonymous_args = 0
 110 0000 08B5     		push	{r3, lr}
 111              	.LCFI0:
ARM GAS  /tmp/cc2s4Zze.s 			page 3


 112              		.cfi_def_cfa_offset 8
 113              		.cfi_offset 3, -8
 114              		.cfi_offset 14, -4
 115              		.loc 1 122 0
 116 0002 0022     		movs	r2, #0
 117              		.loc 1 121 0
 118 0004 4FF46D43 		mov	r3, #60672
 119 0008 CEF20003 		movt	r3, 57344
 120              		.loc 1 122 0
 121 000c C0F2FA52 		movt	r2, 1530
 122              		.loc 1 121 0
 123 0010 0021     		movs	r1, #0
 124 0012 9960     		str	r1, [r3, #8]
 125              		.loc 1 125 0
 126 0014 0720     		movs	r0, #7
 127 0016 1021     		movs	r1, #16
 128              		.loc 1 122 0
 129 0018 DA60     		str	r2, [r3, #12]
 130              		.loc 1 125 0
 131 001a FFF7FEFF 		bl	nvicSetSystemHandlerPriority
 132              	.LVL7:
 133              		.loc 1 127 0
 134 001e 0A20     		movs	r0, #10
 135 0020 4FF40071 		mov	r1, #512
 136 0024 FFF7FEFF 		bl	nvicSetSystemHandlerPriority
 137              	.LVL8:
 138              		.loc 1 129 0
 139 0028 0B20     		movs	r0, #11
 140 002a 8021     		movs	r1, #128
 141              		.loc 1 131 0
 142 002c BDE80840 		pop	{r3, lr}
 143              		.loc 1 129 0
 144 0030 FFF7FEBF 		b	nvicSetSystemHandlerPriority
 145              	.LVL9:
 146              		.cfi_endproc
 147              	.LFE9:
 148              		.size	_port_init, .-_port_init
 149 0034 AFF30080 		.section	.text._port_irq_epilogue,"ax",%progbits
 149      AFF30080 
 149      AFF30080 
 150              		.align	2
 151              		.p2align 4,,15
 152              		.global	_port_irq_epilogue
 153              		.thumb
 154              		.thumb_func
 155              		.type	_port_irq_epilogue, %function
 156              	_port_irq_epilogue:
 157              	.LFB10:
 158              		.loc 1 148 0
 159              		.cfi_startproc
 160              		@ args = 0, pretend = 0, frame = 0
 161              		@ frame_needed = 0, uses_anonymous_args = 0
 162              		@ link register save eliminated.
 163              	.LBB3:
 164              		.loc 1 150 0
 165 0000 2023     		movs	r3, #32
 166              	.LVL10:
ARM GAS  /tmp/cc2s4Zze.s 			page 4


 167              	@ 150 "../../os/ports/GCC/ARMCMx/chcore_v7m.c" 1
 168 0002 83F31188 		msr     BASEPRI, r3
 169              	@ 0 "" 2
 170              	.LVL11:
 171              		.thumb
 172              	.LBE3:
 173              		.loc 1 151 0
 174 0006 4FF46D43 		mov	r3, #60672
 175              	.LVL12:
 176 000a CEF20003 		movt	r3, 57344
 177 000e 5868     		ldr	r0, [r3, #4]
 178 0010 10F40063 		ands	r3, r0, #2048
 179 0014 19D0     		beq	.L5
 180              	.LBB4:
 181              		.loc 1 155 0
 182              	@ 155 "../../os/ports/GCC/ARMCMx/chcore_v7m.c" 1
 183 0016 EFF30983 		mrs     r3, PSP
 184              	@ 0 "" 2
 185              	.LVL13:
 186              		.loc 1 159 0
 187              		.thumb
 188 001a A3F12002 		sub	r2, r3, #32
 189              	.LVL14:
 190              		.loc 1 160 0
 191              	@ 160 "../../os/ports/GCC/ARMCMx/chcore_v7m.c" 1
 192 001e 82F30988 		msr     PSP, r2
 193              	@ 0 "" 2
 194              		.loc 1 165 0
 195              		.thumb
 196 0022 124A     		ldr	r2, .L12
 197              	.LVL15:
 198              		.loc 1 161 0
 199 0024 4FF08070 		mov	r0, #16777216
 200              		.loc 1 165 0
 201 0028 9169     		ldr	r1, [r2, #24]
 202              		.loc 1 161 0
 203 002a 43F8040C 		str	r0, [r3, #-4]
 204              		.loc 1 165 0
 205 002e 79B1     		cbz	r1, .L6
 206              		.loc 1 165 0 is_stmt 0 discriminator 1
 207 0030 1168     		ldr	r1, [r2, #0]
 208 0032 D069     		ldr	r0, [r2, #28]
 209 0034 8968     		ldr	r1, [r1, #8]
 210 0036 8268     		ldr	r2, [r0, #8]
 211 0038 9142     		cmp	r1, r2
 212 003a 94BF     		ite	ls
 213 003c 0022     		movls	r2, #0
 214 003e 0122     		movhi	r2, #1
 215 0040 82B1     		cbz	r2, .L8
 216              	.L11:
 217              		.loc 1 167 0 is_stmt 1
 218 0042 0B48     		ldr	r0, .L12+4
 219 0044 43F8080C 		str	r0, [r3, #-8]
 220 0048 7047     		bx	lr
 221              	.LVL16:
 222              	.L5:
 223              	.LBE4:
ARM GAS  /tmp/cc2s4Zze.s 			page 5


 224              	.LBB5:
 225              		.loc 1 197 0
 226              	@ 197 "../../os/ports/GCC/ARMCMx/chcore_v7m.c" 1
 227 004a 83F31188 		msr     BASEPRI, r3
 228              	@ 0 "" 2
 229              	.LVL17:
 230              		.thumb
 231 004e 7047     		bx	lr
 232              	.LVL18:
 233              	.L6:
 234              	.LBE5:
 235              	.LBB6:
 236              		.loc 1 165 0 discriminator 2
 237 0050 1168     		ldr	r1, [r2, #0]
 238 0052 D269     		ldr	r2, [r2, #28]
 239 0054 8868     		ldr	r0, [r1, #8]
 240 0056 9268     		ldr	r2, [r2, #8]
 241 0058 9042     		cmp	r0, r2
 242 005a 34BF     		ite	cc
 243 005c 0022     		movcc	r2, #0
 244 005e 0122     		movcs	r2, #1
 245 0060 002A     		cmp	r2, #0
 246 0062 EED1     		bne	.L11
 247              	.L8:
 248              		.loc 1 176 0
 249 0064 034A     		ldr	r2, .L12+8
 250 0066 43F8082C 		str	r2, [r3, #-8]
 251 006a 7047     		bx	lr
 252              	.L13:
 253              		.align	2
 254              	.L12:
 255 006c 00000000 		.word	rlist
 256 0070 00000000 		.word	_port_switch_from_isr
 257 0074 0C000000 		.word	_port_exit_from_isr
 258              	.LBE6:
 259              		.cfi_endproc
 260              	.LFE10:
 261              		.size	_port_irq_epilogue, .-_port_irq_epilogue
 262 0078 AFF30080 		.section	.text.SysTickVector,"ax",%progbits
 262      AFF30080 
 263              		.align	2
 264              		.p2align 4,,15
 265              		.global	SysTickVector
 266              		.thumb
 267              		.thumb_func
 268              		.type	SysTickVector, %function
 269              	SysTickVector:
 270              	.LFB7:
 271              		.loc 1 47 0
 272              		.cfi_startproc
 273              		@ args = 0, pretend = 0, frame = 0
 274              		@ frame_needed = 0, uses_anonymous_args = 0
 275 0000 08B5     		push	{r3, lr}
 276              	.LCFI1:
 277              		.cfi_def_cfa_offset 8
 278              		.cfi_offset 3, -8
 279              		.cfi_offset 14, -4
ARM GAS  /tmp/cc2s4Zze.s 			page 6


 280              		.loc 1 49 0
 281 0002 FFF7FEFF 		bl	dbg_check_enter_isr
 282              	.LVL19:
 283              	.LBB7:
 284              		.loc 1 51 0
 285 0006 2023     		movs	r3, #32
 286              	.LVL20:
 287              	@ 51 "../../os/ports/GCC/ARMCMx/chcore_v7m.c" 1
 288 0008 83F31188 		msr     BASEPRI, r3
 289              	@ 0 "" 2
 290              	.LVL21:
 291              		.thumb
 292              	.LBE7:
 293 000c FFF7FEFF 		bl	dbg_check_lock_from_isr
 294              	.LVL22:
 295              		.loc 1 52 0
 296 0010 FFF7FEFF 		bl	chSysTimerHandlerI
 297              	.LVL23:
 298              		.loc 1 53 0
 299 0014 FFF7FEFF 		bl	dbg_check_unlock_from_isr
 300              	.LVL24:
 301              	.LBB8:
 302 0018 0023     		movs	r3, #0
 303              	.LVL25:
 304              	@ 53 "../../os/ports/GCC/ARMCMx/chcore_v7m.c" 1
 305 001a 83F31188 		msr     BASEPRI, r3
 306              	@ 0 "" 2
 307              	.LVL26:
 308              		.thumb
 309              	.LBE8:
 310              		.loc 1 55 0
 311 001e FFF7FEFF 		bl	dbg_check_leave_isr
 312              	.LVL27:
 313              		.loc 1 56 0
 314 0022 BDE80840 		pop	{r3, lr}
 315              		.loc 1 55 0
 316 0026 FFF7FEBF 		b	_port_irq_epilogue
 317              	.LVL28:
 318              		.cfi_endproc
 319              	.LFE7:
 320              		.size	SysTickVector, .-SysTickVector
 321 002a 00BFAFF3 		.section	.text._port_switch,"ax",%progbits
 321      0080
 322              		.align	2
 323              		.p2align 4,,15
 324              		.global	_port_switch
 325              		.thumb
 326              		.thumb_func
 327              		.type	_port_switch, %function
 328              	_port_switch:
 329              	.LFB12:
 330              		.loc 1 236 0
 331              		.cfi_startproc
 332              		@ Naked Function: prologue and epilogue provided by programmer.
 333              		@ args = 0, pretend = 0, frame = 0
 334              		@ frame_needed = 0, uses_anonymous_args = 0
 335              	.LVL29:
ARM GAS  /tmp/cc2s4Zze.s 			page 7


 336              		.loc 1 238 0
 337              	@ 238 "../../os/ports/GCC/ARMCMx/chcore_v7m.c" 1
 338 0000 2DE9F04F 		push    {r4, r5, r6, r7, r8, r9, r10, r11, lr}
 339              	@ 0 "" 2
 340              		.loc 1 244 0
 341              	@ 244 "../../os/ports/GCC/ARMCMx/chcore_v7m.c" 1
 342 0004 C1F80CD0 		str     sp, [r1, #12]                          
 343 0008 D0F80CD0 		ldr     sp, [r0, #12]
 344              	@ 0 "" 2
 345              		.loc 1 250 0
 346              	@ 250 "../../os/ports/GCC/ARMCMx/chcore_v7m.c" 1
 347 000c BDE8F08F 		pop     {r4, r5, r6, r7, r8, r9, r10, r11, pc}
 348              	@ 0 "" 2
 349              		.loc 1 252 0
 350              		.thumb
 351              		.cfi_endproc
 352              	.LFE12:
 353              		.size	_port_switch, .-_port_switch
 354              		.section	.text._port_thread_start,"ax",%progbits
 355              		.align	2
 356              		.p2align 4,,15
 357              		.global	_port_thread_start
 358              		.thumb
 359              		.thumb_func
 360              		.type	_port_thread_start, %function
 361              	_port_thread_start:
 362              	.LFB13:
 363              		.loc 1 259 0
 364              		.cfi_startproc
 365              		@ args = 0, pretend = 0, frame = 0
 366              		@ frame_needed = 0, uses_anonymous_args = 0
 367 0000 08B5     		push	{r3, lr}
 368              	.LCFI2:
 369              		.cfi_def_cfa_offset 8
 370              		.cfi_offset 3, -8
 371              		.cfi_offset 14, -4
 372              		.loc 1 261 0
 373 0002 FFF7FEFF 		bl	dbg_check_unlock
 374              	.LVL30:
 375              	.LBB9:
 376 0006 0023     		movs	r3, #0
 377              	.LVL31:
 378              	@ 261 "../../os/ports/GCC/ARMCMx/chcore_v7m.c" 1
 379 0008 83F31188 		msr     BASEPRI, r3
 380              	@ 0 "" 2
 381              	.LVL32:
 382              		.thumb
 383              	.LBE9:
 384              		.loc 1 262 0
 385              	@ 262 "../../os/ports/GCC/ARMCMx/chcore_v7m.c" 1
 386 000c 2846     		mov     r0, r5                                 
 387 000e A047     		blx     r4                                     
 388 0010 FFF7FEFF 		bl      chThdExit
 389              	@ 0 "" 2
 390              		.thumb
 391 0014 08BD     		pop	{r3, pc}
 392              		.cfi_endproc
ARM GAS  /tmp/cc2s4Zze.s 			page 8


 393              	.LFE13:
 394              		.size	_port_thread_start, .-_port_thread_start
 395 0016 00BFAFF3 		.text
 395      0080AFF3 
 395      0080
 396              	.Letext0:
 397              		.file 2 "/usr/bin/../lib/gcc/arm-none-eabi/4.7.4/../../../../arm-none-eabi/include/stdint.h"
 398              		.file 3 "../../os/ports/GCC/ARMCMx/chtypes.h"
 399              		.file 4 "../../os/kernel/include/chlists.h"
 400              		.file 5 "../../os/kernel/include/chthreads.h"
 401              		.file 6 "../../os/ports/GCC/ARMCMx/chcore_v7m.h"
 402              		.file 7 "../../os/ports/common/ARMCMx/nvic.h"
 403              		.file 8 "../../os/kernel/include/chschd.h"
 404              		.file 9 "../../os/kernel/include/chmtx.h"
 405              		.file 10 "../../os/kernel/include/chdebug.h"
 406              		.file 11 "../../os/kernel/include/chsys.h"