ARM GAS  /var/folders/dt/0wfd0knj7gs46m8vwfzktm600000gn/T//ccZOa0OO.s 			page 1


   1              		.syntax unified
   2              		.cpu cortex-m3
   3              		.fpu softvfp
   4              		.eabi_attribute 20, 1
   5              		.eabi_attribute 21, 1
   6              		.eabi_attribute 23, 3
   7              		.eabi_attribute 24, 1
   8              		.eabi_attribute 25, 1
   9              		.eabi_attribute 26, 1
  10              		.eabi_attribute 30, 2
  11              		.eabi_attribute 34, 1
  12              		.eabi_attribute 18, 4
  13              		.thumb
  14              		.file	"chcond.c"
  15              		.text
  16              	.Ltext0:
  17              		.cfi_sections	.debug_frame
  18              		.section	.text.chCondInit,"ax",%progbits
  19              		.align	2
  20              		.p2align 4,,15
  21              		.global	chCondInit
  22              		.thumb
  23              		.thumb_func
  24              		.type	chCondInit, %function
  25              	chCondInit:
  26              	.LFB7:
  27              		.file 1 "../../os/kernel/src/chcond.c"
  28              		.loc 1 59 0
  29              		.cfi_startproc
  30              		@ args = 0, pretend = 0, frame = 0
  31              		@ frame_needed = 0, uses_anonymous_args = 0
  32              	.LVL0:
  33 0000 10B5     		push	{r4, lr}
  34              	.LCFI0:
  35              		.cfi_def_cfa_offset 8
  36              		.cfi_offset 4, -8
  37              		.cfi_offset 14, -4
  38              		.loc 1 61 0
  39 0002 0446     		mov	r4, r0
  40 0004 10B1     		cbz	r0, .L4
  41              	.LVL1:
  42              	.L2:
  43              		.loc 1 63 0
  44 0006 6460     		str	r4, [r4, #4]
  45 0008 2460     		str	r4, [r4, #0]
  46 000a 10BD     		pop	{r4, pc}
  47              	.LVL2:
  48              	.L4:
  49              		.loc 1 61 0 discriminator 1
  50 000c 0148     		ldr	r0, .L5
  51              	.LVL3:
  52 000e FFF7FEFF 		bl	chDbgPanic
  53              	.LVL4:
  54 0012 F8E7     		b	.L2
  55              	.L6:
  56              		.align	2
  57              	.L5:
ARM GAS  /var/folders/dt/0wfd0knj7gs46m8vwfzktm600000gn/T//ccZOa0OO.s 			page 2


  58 0014 00000000 		.word	.LC0
  59              		.cfi_endproc
  60              	.LFE7:
  61              		.size	chCondInit, .-chCondInit
  62 0018 AFF30080 		.section	.text.chCondSignal,"ax",%progbits
  62      AFF30080 
  63              		.align	2
  64              		.p2align 4,,15
  65              		.global	chCondSignal
  66              		.thumb
  67              		.thumb_func
  68              		.type	chCondSignal, %function
  69              	chCondSignal:
  70              	.LFB8:
  71              		.loc 1 73 0
  72              		.cfi_startproc
  73              		@ args = 0, pretend = 0, frame = 0
  74              		@ frame_needed = 0, uses_anonymous_args = 0
  75              	.LVL5:
  76 0000 10B5     		push	{r4, lr}
  77              	.LCFI1:
  78              		.cfi_def_cfa_offset 8
  79              		.cfi_offset 4, -8
  80              		.cfi_offset 14, -4
  81              		.loc 1 75 0
  82 0002 0446     		mov	r4, r0
  83 0004 98B1     		cbz	r0, .L10
  84              	.LVL6:
  85              	.L8:
  86              	.LBB14:
  87              		.loc 1 77 0
  88 0006 2023     		movs	r3, #32
  89              	.LVL7:
  90              	@ 77 "../../os/kernel/src/chcond.c" 1
  91 0008 83F31188 		msr     BASEPRI, r3
  92              	@ 0 "" 2
  93              	.LVL8:
  94              		.thumb
  95              	.LBE14:
  96 000c FFF7FEFF 		bl	dbg_check_lock
  97              	.LVL9:
  98              		.loc 1 78 0
  99 0010 2068     		ldr	r0, [r4, #0]
 100 0012 A042     		cmp	r0, r4
 101 0014 05D0     		beq	.L9
 102              	.LVL10:
 103              	.LBB15:
 104              	.LBB16:
 105              		.file 2 "../../os/kernel/include/chinline.h"
 106              		.loc 2 62 0
 107 0016 0368     		ldr	r3, [r0, #0]
 108              	.LBE16:
 109              	.LBE15:
 110              		.loc 1 79 0
 111 0018 0021     		movs	r1, #0
 112              	.LBB18:
 113              	.LBB17:
ARM GAS  /var/folders/dt/0wfd0knj7gs46m8vwfzktm600000gn/T//ccZOa0OO.s 			page 3


 114              		.loc 2 62 0
 115 001a 2360     		str	r3, [r4, #0]
 116 001c 5C60     		str	r4, [r3, #4]
 117              	.LBE17:
 118              	.LBE18:
 119              		.loc 1 79 0
 120 001e FFF7FEFF 		bl	chSchWakeupS
 121              	.LVL11:
 122              	.L9:
 123              		.loc 1 80 0
 124 0022 FFF7FEFF 		bl	dbg_check_unlock
 125              	.LVL12:
 126              	.LBB19:
 127 0026 0023     		movs	r3, #0
 128              	.LVL13:
 129              	@ 80 "../../os/kernel/src/chcond.c" 1
 130 0028 83F31188 		msr     BASEPRI, r3
 131              	@ 0 "" 2
 132              	.LVL14:
 133              		.thumb
 134 002c 10BD     		pop	{r4, pc}
 135              	.LVL15:
 136              	.L10:
 137              	.LBE19:
 138              		.loc 1 75 0 discriminator 1
 139 002e 0248     		ldr	r0, .L11
 140              	.LVL16:
 141 0030 FFF7FEFF 		bl	chDbgPanic
 142              	.LVL17:
 143 0034 E7E7     		b	.L8
 144              	.L12:
 145 0036 00BF     		.align	2
 146              	.L11:
 147 0038 10000000 		.word	.LC1
 148              		.cfi_endproc
 149              	.LFE8:
 150              		.size	chCondSignal, .-chCondSignal
 151 003c AFF30080 		.section	.text.chCondSignalI,"ax",%progbits
 152              		.align	2
 153              		.p2align 4,,15
 154              		.global	chCondSignalI
 155              		.thumb
 156              		.thumb_func
 157              		.type	chCondSignalI, %function
 158              	chCondSignalI:
 159              	.LFB9:
 160              		.loc 1 94 0
 161              		.cfi_startproc
 162              		@ args = 0, pretend = 0, frame = 0
 163              		@ frame_needed = 0, uses_anonymous_args = 0
 164              	.LVL18:
 165 0000 10B5     		push	{r4, lr}
 166              	.LCFI2:
 167              		.cfi_def_cfa_offset 8
 168              		.cfi_offset 4, -8
 169              		.cfi_offset 14, -4
 170              		.loc 1 94 0
ARM GAS  /var/folders/dt/0wfd0knj7gs46m8vwfzktm600000gn/T//ccZOa0OO.s 			page 4


 171 0002 0446     		mov	r4, r0
 172              		.loc 1 96 0
 173 0004 FFF7FEFF 		bl	chDbgCheckClassI
 174              	.LVL19:
 175              		.loc 1 97 0
 176 0008 54B1     		cbz	r4, .L16
 177              	.L14:
 178              		.loc 1 99 0
 179 000a 2068     		ldr	r0, [r4, #0]
 180 000c A042     		cmp	r0, r4
 181 000e 06D0     		beq	.L13
 182              	.LVL20:
 183              	.LBB20:
 184              	.LBB21:
 185              		.loc 2 62 0
 186 0010 0368     		ldr	r3, [r0, #0]
 187 0012 2360     		str	r3, [r4, #0]
 188 0014 5C60     		str	r4, [r3, #4]
 189              	.LBE21:
 190              	.LBE20:
 191              		.loc 1 100 0
 192 0016 FFF7FEFF 		bl	chSchReadyI
 193              	.LVL21:
 194 001a 0023     		movs	r3, #0
 195 001c 8362     		str	r3, [r0, #40]
 196              	.LVL22:
 197              	.L13:
 198 001e 10BD     		pop	{r4, pc}
 199              	.L16:
 200              		.loc 1 97 0 discriminator 1
 201 0020 0148     		ldr	r0, .L17
 202 0022 FFF7FEFF 		bl	chDbgPanic
 203              	.LVL23:
 204 0026 F0E7     		b	.L14
 205              	.L18:
 206              		.align	2
 207              	.L17:
 208 0028 24000000 		.word	.LC2
 209              		.cfi_endproc
 210              	.LFE9:
 211              		.size	chCondSignalI, .-chCondSignalI
 212 002c AFF30080 		.section	.text.chCondBroadcastI,"ax",%progbits
 213              		.align	2
 214              		.p2align 4,,15
 215              		.global	chCondBroadcastI
 216              		.thumb
 217              		.thumb_func
 218              		.type	chCondBroadcastI, %function
 219              	chCondBroadcastI:
 220              	.LFB11:
 221              		.loc 1 129 0
 222              		.cfi_startproc
 223              		@ args = 0, pretend = 0, frame = 0
 224              		@ frame_needed = 0, uses_anonymous_args = 0
 225              	.LVL24:
 226 0000 38B5     		push	{r3, r4, r5, lr}
 227              	.LCFI3:
ARM GAS  /var/folders/dt/0wfd0knj7gs46m8vwfzktm600000gn/T//ccZOa0OO.s 			page 5


 228              		.cfi_def_cfa_offset 16
 229              		.cfi_offset 3, -16
 230              		.cfi_offset 4, -12
 231              		.cfi_offset 5, -8
 232              		.cfi_offset 14, -4
 233              		.loc 1 129 0
 234 0002 0446     		mov	r4, r0
 235              		.loc 1 131 0
 236 0004 FFF7FEFF 		bl	chDbgCheckClassI
 237              	.LVL25:
 238              		.loc 1 132 0
 239 0008 74B1     		cbz	r4, .L26
 240              	.L20:
 241              		.loc 1 137 0 discriminator 1
 242 000a 2068     		ldr	r0, [r4, #0]
 243 000c A042     		cmp	r0, r4
 244 000e 0AD0     		beq	.L19
 245              		.loc 1 138 0
 246 0010 6FF00105 		mvn	r5, #1
 247              	.L24:
 248              	.LVL26:
 249              	.LBB22:
 250              	.LBB23:
 251              		.loc 2 62 0
 252 0014 0368     		ldr	r3, [r0, #0]
 253 0016 2360     		str	r3, [r4, #0]
 254 0018 5C60     		str	r4, [r3, #4]
 255              	.LBE23:
 256              	.LBE22:
 257              		.loc 1 138 0
 258 001a FFF7FEFF 		bl	chSchReadyI
 259              	.LVL27:
 260 001e 8562     		str	r5, [r0, #40]
 261              		.loc 1 137 0
 262 0020 2068     		ldr	r0, [r4, #0]
 263 0022 A042     		cmp	r0, r4
 264 0024 F6D1     		bne	.L24
 265              	.LVL28:
 266              	.L19:
 267 0026 38BD     		pop	{r3, r4, r5, pc}
 268              	.L26:
 269              		.loc 1 132 0 discriminator 1
 270 0028 0148     		ldr	r0, .L27
 271 002a FFF7FEFF 		bl	chDbgPanic
 272              	.LVL29:
 273 002e ECE7     		b	.L20
 274              	.L28:
 275              		.align	2
 276              	.L27:
 277 0030 38000000 		.word	.LC3
 278              		.cfi_endproc
 279              	.LFE11:
 280              		.size	chCondBroadcastI, .-chCondBroadcastI
 281 0034 AFF30080 		.section	.text.chCondBroadcast,"ax",%progbits
 281      AFF30080 
 281      AFF30080 
 282              		.align	2
ARM GAS  /var/folders/dt/0wfd0knj7gs46m8vwfzktm600000gn/T//ccZOa0OO.s 			page 6


 283              		.p2align 4,,15
 284              		.global	chCondBroadcast
 285              		.thumb
 286              		.thumb_func
 287              		.type	chCondBroadcast, %function
 288              	chCondBroadcast:
 289              	.LFB10:
 290              		.loc 1 110 0
 291              		.cfi_startproc
 292              		@ args = 0, pretend = 0, frame = 0
 293              		@ frame_needed = 0, uses_anonymous_args = 0
 294              	.LVL30:
 295 0000 10B5     		push	{r4, lr}
 296              	.LCFI4:
 297              		.cfi_def_cfa_offset 8
 298              		.cfi_offset 4, -8
 299              		.cfi_offset 14, -4
 300              	.LBB24:
 301              		.loc 1 112 0
 302 0002 2023     		movs	r3, #32
 303              	.LVL31:
 304              	.LBE24:
 305              		.loc 1 110 0
 306 0004 0446     		mov	r4, r0
 307              	.LBB25:
 308              		.loc 1 112 0
 309              	@ 112 "../../os/kernel/src/chcond.c" 1
 310 0006 83F31188 		msr     BASEPRI, r3
 311              	@ 0 "" 2
 312              	.LVL32:
 313              		.thumb
 314              	.LBE25:
 315 000a FFF7FEFF 		bl	dbg_check_lock
 316              	.LVL33:
 317              		.loc 1 113 0
 318 000e 2046     		mov	r0, r4
 319 0010 FFF7FEFF 		bl	chCondBroadcastI
 320              	.LVL34:
 321              		.loc 1 114 0
 322 0014 FFF7FEFF 		bl	chSchRescheduleS
 323              	.LVL35:
 324              		.loc 1 115 0
 325 0018 FFF7FEFF 		bl	dbg_check_unlock
 326              	.LVL36:
 327              	.LBB26:
 328 001c 0023     		movs	r3, #0
 329              	.LVL37:
 330              	@ 115 "../../os/kernel/src/chcond.c" 1
 331 001e 83F31188 		msr     BASEPRI, r3
 332              	@ 0 "" 2
 333              	.LVL38:
 334              		.thumb
 335 0022 10BD     		pop	{r4, pc}
 336              	.LBE26:
 337              		.cfi_endproc
 338              	.LFE10:
 339              		.size	chCondBroadcast, .-chCondBroadcast
ARM GAS  /var/folders/dt/0wfd0knj7gs46m8vwfzktm600000gn/T//ccZOa0OO.s 			page 7


 340 0024 AFF30080 		.section	.text.chCondWaitS,"ax",%progbits
 340      AFF30080 
 340      AFF30080 
 341              		.align	2
 342              		.p2align 4,,15
 343              		.global	chCondWaitS
 344              		.thumb
 345              		.thumb_func
 346              		.type	chCondWaitS, %function
 347              	chCondWaitS:
 348              	.LFB13:
 349              		.loc 1 184 0
 350              		.cfi_startproc
 351              		@ args = 0, pretend = 0, frame = 0
 352              		@ frame_needed = 0, uses_anonymous_args = 0
 353              	.LVL39:
 354 0000 F8B5     		push	{r3, r4, r5, r6, r7, lr}
 355              	.LCFI5:
 356              		.cfi_def_cfa_offset 24
 357              		.cfi_offset 3, -24
 358              		.cfi_offset 4, -20
 359              		.cfi_offset 5, -16
 360              		.cfi_offset 6, -12
 361              		.cfi_offset 7, -8
 362              		.cfi_offset 14, -4
 363              		.loc 1 185 0
 364 0002 174B     		ldr	r3, .L42
 365              		.loc 1 184 0
 366 0004 0546     		mov	r5, r0
 367              		.loc 1 185 0
 368 0006 DC69     		ldr	r4, [r3, #28]
 369              	.LVL40:
 370              		.loc 1 189 0
 371 0008 FFF7FEFF 		bl	chDbgCheckClassS
 372              	.LVL41:
 373              		.loc 1 190 0
 374 000c 1DB3     		cbz	r5, .L38
 375              	.L31:
 376              		.loc 1 191 0
 377 000e 236C     		ldr	r3, [r4, #64]
 378 0010 EBB1     		cbz	r3, .L39
 379              	.L32:
 380              		.loc 1 195 0
 381 0012 FFF7FEFF 		bl	chMtxUnlockS
 382              	.LVL42:
 383              		.loc 1 197 0
 384 0016 2E46     		mov	r6, r5
 385              		.loc 1 195 0
 386 0018 0746     		mov	r7, r0
 387              	.LVL43:
 388              		.loc 1 196 0
 389 001a A562     		str	r5, [r4, #40]
 390              		.loc 2 43 0
 391 001c 2B46     		mov	r3, r5
 392 001e 03E0     		b	.L34
 393              	.LVL44:
 394              	.L41:
ARM GAS  /var/folders/dt/0wfd0knj7gs46m8vwfzktm600000gn/T//ccZOa0OO.s 			page 8


 395              	.LBB27:
 396              	.LBB28:
 397              		.loc 2 46 0
 398 0020 9968     		ldr	r1, [r3, #8]
 399 0022 A268     		ldr	r2, [r4, #8]
 400 0024 9142     		cmp	r1, r2
 401 0026 10D3     		bcc	.L40
 402              	.L34:
 403              		.loc 2 45 0
 404 0028 1B68     		ldr	r3, [r3, #0]
 405              	.LVL45:
 406              		.loc 2 46 0
 407 002a 9D42     		cmp	r5, r3
 408 002c F8D1     		bne	.L41
 409              	.L35:
 410              		.loc 2 48 0
 411 002e 7368     		ldr	r3, [r6, #4]
 412              	.LVL46:
 413              		.loc 2 47 0
 414 0030 2660     		str	r6, [r4, #0]
 415              		.loc 2 48 0
 416 0032 6360     		str	r3, [r4, #4]
 417              		.loc 2 49 0
 418 0034 1C60     		str	r4, [r3, #0]
 419 0036 7460     		str	r4, [r6, #4]
 420              	.LBE28:
 421              	.LBE27:
 422              		.loc 1 198 0
 423 0038 0520     		movs	r0, #5
 424              	.LVL47:
 425 003a FFF7FEFF 		bl	chSchGoSleepS
 426              	.LVL48:
 427              		.loc 1 199 0
 428 003e A46A     		ldr	r4, [r4, #40]
 429              	.LVL49:
 430              		.loc 1 200 0
 431 0040 3846     		mov	r0, r7
 432 0042 FFF7FEFF 		bl	chMtxLockS
 433              	.LVL50:
 434              		.loc 1 202 0
 435 0046 2046     		mov	r0, r4
 436 0048 F8BD     		pop	{r3, r4, r5, r6, r7, pc}
 437              	.LVL51:
 438              	.L40:
 439              	.LBB30:
 440              	.LBB29:
 441              		.loc 2 46 0
 442 004a 1E46     		mov	r6, r3
 443 004c EFE7     		b	.L35
 444              	.LVL52:
 445              	.L39:
 446              	.LBE29:
 447              	.LBE30:
 448              		.loc 1 191 0 discriminator 1
 449 004e 0548     		ldr	r0, .L42+4
 450 0050 FFF7FEFF 		bl	chDbgPanic
 451              	.LVL53:
ARM GAS  /var/folders/dt/0wfd0knj7gs46m8vwfzktm600000gn/T//ccZOa0OO.s 			page 9


 452 0054 DDE7     		b	.L32
 453              	.L38:
 454              		.loc 1 190 0 discriminator 1
 455 0056 0448     		ldr	r0, .L42+8
 456 0058 FFF7FEFF 		bl	chDbgPanic
 457              	.LVL54:
 458 005c D7E7     		b	.L31
 459              	.L43:
 460 005e 00BF     		.align	2
 461              	.L42:
 462 0060 00000000 		.word	rlist
 463 0064 60000000 		.word	.LC5
 464 0068 50000000 		.word	.LC4
 465              		.cfi_endproc
 466              	.LFE13:
 467              		.size	chCondWaitS, .-chCondWaitS
 468 006c AFF30080 		.section	.text.chCondWait,"ax",%progbits
 469              		.align	2
 470              		.p2align 4,,15
 471              		.global	chCondWait
 472              		.thumb
 473              		.thumb_func
 474              		.type	chCondWait, %function
 475              	chCondWait:
 476              	.LFB12:
 477              		.loc 1 158 0
 478              		.cfi_startproc
 479              		@ args = 0, pretend = 0, frame = 0
 480              		@ frame_needed = 0, uses_anonymous_args = 0
 481              	.LVL55:
 482 0000 10B5     		push	{r4, lr}
 483              	.LCFI6:
 484              		.cfi_def_cfa_offset 8
 485              		.cfi_offset 4, -8
 486              		.cfi_offset 14, -4
 487              	.LBB31:
 488              		.loc 1 161 0
 489 0002 2023     		movs	r3, #32
 490              	.LVL56:
 491              	.LBE31:
 492              		.loc 1 158 0
 493 0004 0446     		mov	r4, r0
 494              	.LBB32:
 495              		.loc 1 161 0
 496              	@ 161 "../../os/kernel/src/chcond.c" 1
 497 0006 83F31188 		msr     BASEPRI, r3
 498              	@ 0 "" 2
 499              	.LVL57:
 500              		.thumb
 501              	.LBE32:
 502 000a FFF7FEFF 		bl	dbg_check_lock
 503              	.LVL58:
 504              		.loc 1 162 0
 505 000e 2046     		mov	r0, r4
 506 0010 FFF7FEFF 		bl	chCondWaitS
 507              	.LVL59:
 508 0014 0446     		mov	r4, r0
ARM GAS  /var/folders/dt/0wfd0knj7gs46m8vwfzktm600000gn/T//ccZOa0OO.s 			page 10


 509              	.LVL60:
 510              		.loc 1 163 0
 511 0016 FFF7FEFF 		bl	dbg_check_unlock
 512              	.LVL61:
 513              	.LBB33:
 514 001a 0023     		movs	r3, #0
 515              	.LVL62:
 516              	@ 163 "../../os/kernel/src/chcond.c" 1
 517 001c 83F31188 		msr     BASEPRI, r3
 518              	@ 0 "" 2
 519              	.LVL63:
 520              		.thumb
 521              	.LBE33:
 522              		.loc 1 165 0
 523 0020 2046     		mov	r0, r4
 524 0022 10BD     		pop	{r4, pc}
 525              		.cfi_endproc
 526              	.LFE12:
 527              		.size	chCondWait, .-chCondWait
 528 0024 AFF30080 		.section	.text.chCondWaitTimeoutS,"ax",%progbits
 528      AFF30080 
 528      AFF30080 
 529              		.align	2
 530              		.p2align 4,,15
 531              		.global	chCondWaitTimeoutS
 532              		.thumb
 533              		.thumb_func
 534              		.type	chCondWaitTimeoutS, %function
 535              	chCondWaitTimeoutS:
 536              	.LFB15:
 537              		.loc 1 270 0
 538              		.cfi_startproc
 539              		@ args = 0, pretend = 0, frame = 0
 540              		@ frame_needed = 0, uses_anonymous_args = 0
 541              	.LVL64:
 542 0000 2DE9F041 		push	{r4, r5, r6, r7, r8, lr}
 543              	.LCFI7:
 544              		.cfi_def_cfa_offset 24
 545              		.cfi_offset 4, -24
 546              		.cfi_offset 5, -20
 547              		.cfi_offset 6, -16
 548              		.cfi_offset 7, -12
 549              		.cfi_offset 8, -8
 550              		.cfi_offset 14, -4
 551              		.loc 1 270 0
 552 0004 0646     		mov	r6, r0
 553 0006 0F46     		mov	r7, r1
 554              		.loc 1 274 0
 555 0008 FFF7FEFF 		bl	chDbgCheckClassS
 556              	.LVL65:
 557              		.loc 1 275 0
 558 000c 002E     		cmp	r6, #0
 559 000e 18BF     		it	ne
 560 0010 002F     		cmpne	r7, #0
 561 0012 22D0     		beq	.L57
 562              	.L46:
 563              		.loc 1 276 0
ARM GAS  /var/folders/dt/0wfd0knj7gs46m8vwfzktm600000gn/T//ccZOa0OO.s 			page 11


 564 0014 154C     		ldr	r4, .L59
 565 0016 E369     		ldr	r3, [r4, #28]
 566 0018 1B6C     		ldr	r3, [r3, #64]
 567 001a 13B3     		cbz	r3, .L58
 568              	.L47:
 569              		.loc 1 280 0
 570 001c FFF7FEFF 		bl	chMtxUnlockS
 571              	.LVL66:
 572              		.loc 1 281 0
 573 0020 E269     		ldr	r2, [r4, #28]
 574              		.loc 1 280 0
 575 0022 8046     		mov	r8, r0
 576              	.LVL67:
 577              		.loc 2 43 0
 578 0024 3346     		mov	r3, r6
 579              		.loc 1 281 0
 580 0026 9662     		str	r6, [r2, #40]
 581              	.LVL68:
 582              	.L51:
 583              	.LBB34:
 584              	.LBB35:
 585              		.loc 2 45 0
 586 0028 1B68     		ldr	r3, [r3, #0]
 587              	.LVL69:
 588              		.loc 2 46 0
 589 002a 9E42     		cmp	r6, r3
 590 002c 03D0     		beq	.L52
 591 002e 9D68     		ldr	r5, [r3, #8]
 592 0030 9468     		ldr	r4, [r2, #8]
 593 0032 A542     		cmp	r5, r4
 594 0034 F8D2     		bcs	.L51
 595              	.L52:
 596              		.loc 2 48 0
 597 0036 5968     		ldr	r1, [r3, #4]
 598              		.loc 2 47 0
 599 0038 1360     		str	r3, [r2, #0]
 600              		.loc 2 48 0
 601 003a 5160     		str	r1, [r2, #4]
 602              		.loc 2 49 0
 603 003c 0A60     		str	r2, [r1, #0]
 604 003e 5A60     		str	r2, [r3, #4]
 605              	.LBE35:
 606              	.LBE34:
 607              		.loc 1 283 0
 608 0040 0520     		movs	r0, #5
 609              	.LVL70:
 610 0042 3946     		mov	r1, r7
 611 0044 FFF7FEFF 		bl	chSchGoSleepTimeoutS
 612              	.LVL71:
 613              		.loc 1 284 0
 614 0048 431C     		adds	r3, r0, #1
 615              		.loc 1 283 0
 616 004a 0446     		mov	r4, r0
 617              	.LVL72:
 618              		.loc 1 284 0
 619 004c 02D0     		beq	.L50
 620              		.loc 1 285 0
ARM GAS  /var/folders/dt/0wfd0knj7gs46m8vwfzktm600000gn/T//ccZOa0OO.s 			page 12


 621 004e 4046     		mov	r0, r8
 622              	.LVL73:
 623 0050 FFF7FEFF 		bl	chMtxLockS
 624              	.LVL74:
 625              	.L50:
 626              		.loc 1 287 0
 627 0054 2046     		mov	r0, r4
 628 0056 BDE8F081 		pop	{r4, r5, r6, r7, r8, pc}
 629              	.LVL75:
 630              	.L57:
 631              		.loc 1 275 0 discriminator 1
 632 005a 0548     		ldr	r0, .L59+4
 633 005c FFF7FEFF 		bl	chDbgPanic
 634              	.LVL76:
 635 0060 D8E7     		b	.L46
 636              	.L58:
 637              		.loc 1 276 0 discriminator 1
 638 0062 0448     		ldr	r0, .L59+8
 639 0064 FFF7FEFF 		bl	chDbgPanic
 640              	.LVL77:
 641 0068 D8E7     		b	.L47
 642              	.L60:
 643 006a 00BF     		.align	2
 644              	.L59:
 645 006c 00000000 		.word	rlist
 646 0070 74000000 		.word	.LC6
 647 0074 8C000000 		.word	.LC7
 648              		.cfi_endproc
 649              	.LFE15:
 650              		.size	chCondWaitTimeoutS, .-chCondWaitTimeoutS
 651 0078 AFF30080 		.section	.text.chCondWaitTimeout,"ax",%progbits
 651      AFF30080 
 652              		.align	2
 653              		.p2align 4,,15
 654              		.global	chCondWaitTimeout
 655              		.thumb
 656              		.thumb_func
 657              		.type	chCondWaitTimeout, %function
 658              	chCondWaitTimeout:
 659              	.LFB14:
 660              		.loc 1 233 0
 661              		.cfi_startproc
 662              		@ args = 0, pretend = 0, frame = 0
 663              		@ frame_needed = 0, uses_anonymous_args = 0
 664              	.LVL78:
 665 0000 38B5     		push	{r3, r4, r5, lr}
 666              	.LCFI8:
 667              		.cfi_def_cfa_offset 16
 668              		.cfi_offset 3, -16
 669              		.cfi_offset 4, -12
 670              		.cfi_offset 5, -8
 671              		.cfi_offset 14, -4
 672              		.loc 1 233 0
 673 0002 0546     		mov	r5, r0
 674 0004 0C46     		mov	r4, r1
 675              	.LBB36:
 676              		.loc 1 236 0
ARM GAS  /var/folders/dt/0wfd0knj7gs46m8vwfzktm600000gn/T//ccZOa0OO.s 			page 13


 677 0006 2023     		movs	r3, #32
 678              	.LVL79:
 679              	@ 236 "../../os/kernel/src/chcond.c" 1
 680 0008 83F31188 		msr     BASEPRI, r3
 681              	@ 0 "" 2
 682              	.LVL80:
 683              		.thumb
 684              	.LBE36:
 685 000c FFF7FEFF 		bl	dbg_check_lock
 686              	.LVL81:
 687              		.loc 1 237 0
 688 0010 2146     		mov	r1, r4
 689 0012 2846     		mov	r0, r5
 690 0014 FFF7FEFF 		bl	chCondWaitTimeoutS
 691              	.LVL82:
 692 0018 0446     		mov	r4, r0
 693              	.LVL83:
 694              		.loc 1 238 0
 695 001a FFF7FEFF 		bl	dbg_check_unlock
 696              	.LVL84:
 697              	.LBB37:
 698 001e 0023     		movs	r3, #0
 699              	.LVL85:
 700              	@ 238 "../../os/kernel/src/chcond.c" 1
 701 0020 83F31188 		msr     BASEPRI, r3
 702              	@ 0 "" 2
 703              	.LVL86:
 704              		.thumb
 705              	.LBE37:
 706              		.loc 1 240 0
 707 0024 2046     		mov	r0, r4
 708 0026 38BD     		pop	{r3, r4, r5, pc}
 709              		.cfi_endproc
 710              	.LFE14:
 711              		.size	chCondWaitTimeout, .-chCondWaitTimeout
 712 0028 AFF30080 		.section	.rodata.str1.4,"aMS",%progbits,1
 712      AFF30080 
 713              		.align	2
 714              	.LC0:
 715 0000 22636843 		.ascii	"\"chCondInit\"()\000"
 715      6F6E6449 
 715      6E697422 
 715      282900
 716 000f 00       		.space	1
 717              	.LC1:
 718 0010 22636843 		.ascii	"\"chCondSignal\"()\000"
 718      6F6E6453 
 718      69676E61 
 718      6C222829 
 718      00
 719 0021 000000   		.space	3
 720              	.LC2:
 721 0024 22636843 		.ascii	"\"chCondSignalI\"()\000"
 721      6F6E6453 
 721      69676E61 
 721      6C492228 
 721      2900
ARM GAS  /var/folders/dt/0wfd0knj7gs46m8vwfzktm600000gn/T//ccZOa0OO.s 			page 14


 722 0036 0000     		.space	2
 723              	.LC3:
 724 0038 22636843 		.ascii	"\"chCondBroadcastI\"()\000"
 724      6F6E6442 
 724      726F6164 
 724      63617374 
 724      49222829 
 725 004d 000000   		.space	3
 726              	.LC4:
 727 0050 22636843 		.ascii	"\"chCondWaitS\"()\000"
 727      6F6E6457 
 727      61697453 
 727      22282900 
 728              	.LC5:
 729 0060 6368436F 		.ascii	"chCondWaitS(), #1\000"
 729      6E645761 
 729      69745328 
 729      292C2023 
 729      3100
 730 0072 0000     		.space	2
 731              	.LC6:
 732 0074 22636843 		.ascii	"\"chCondWaitTimeoutS\"()\000"
 732      6F6E6457 
 732      61697454 
 732      696D656F 
 732      75745322 
 733 008b 00       		.space	1
 734              	.LC7:
 735 008c 6368436F 		.ascii	"chCondWaitTimeoutS(), #1\000"
 735      6E645761 
 735      69745469 
 735      6D656F75 
 735      74532829 
 736 00a5 000000   		.text
 737              	.Letext0:
 738              		.file 3 "/Users/toxygen/Applications/yagarto-4.7.2/bin/../lib/gcc/arm-none-eabi/4.7.2/../../../../
 739              		.file 4 "../../os/ports/GCC/ARMCMx/chtypes.h"
 740              		.file 5 "../../os/kernel/include/chlists.h"
 741              		.file 6 "../../os/kernel/include/chthreads.h"
 742              		.file 7 "../../os/ports/GCC/ARMCMx/chcore_v7m.h"
 743              		.file 8 "../../os/kernel/include/chschd.h"
 744              		.file 9 "../../os/kernel/include/chmtx.h"
 745              		.file 10 "../../os/kernel/include/chcond.h"
 746              		.file 11 "../../os/kernel/include/chdebug.h"