ARM GAS  /tmp/cc2dNRNq.s 			page 1


   1              		.syntax unified
   2              		.cpu cortex-m3
   3              		.fpu softvfp
   4              		.eabi_attribute 20, 1
   5              		.eabi_attribute 21, 1
   6              		.eabi_attribute 23, 3
   7              		.eabi_attribute 24, 1
   8              		.eabi_attribute 25, 1
   9              		.eabi_attribute 26, 1
  10              		.eabi_attribute 30, 2
  11              		.eabi_attribute 34, 1
  12              		.eabi_attribute 18, 4
  13              		.thumb
  14              		.file	"chevents.c"
  15              		.text
  16              	.Ltext0:
  17              		.cfi_sections	.debug_frame
  18              		.section	.text.chEvtRegisterMask,"ax",%progbits
  19              		.align	2
  20              		.p2align 4,,15
  21              		.global	chEvtRegisterMask
  22              		.thumb
  23              		.thumb_func
  24              		.type	chEvtRegisterMask, %function
  25              	chEvtRegisterMask:
  26              	.LFB7:
  27              		.file 1 "../../os/kernel/src/chevents.c"
  28              		.loc 1 82 0
  29              		.cfi_startproc
  30              		@ args = 0, pretend = 0, frame = 0
  31              		@ frame_needed = 0, uses_anonymous_args = 0
  32              	.LVL0:
  33 0000 70B5     		push	{r4, r5, r6, lr}
  34              	.LCFI0:
  35              		.cfi_def_cfa_offset 16
  36              		.cfi_offset 4, -16
  37              		.cfi_offset 5, -12
  38              		.cfi_offset 6, -8
  39              		.cfi_offset 14, -4
  40              		.loc 1 84 0
  41 0002 0546     		mov	r5, r0
  42              		.loc 1 82 0
  43 0004 0C46     		mov	r4, r1
  44 0006 1646     		mov	r6, r2
  45              		.loc 1 84 0
  46 0008 90B1     		cbz	r0, .L2
  47              		.loc 1 84 0 is_stmt 0 discriminator 2
  48 000a 89B1     		cbz	r1, .L2
  49              	.LVL1:
  50              	.L3:
  51              	.LBB2:
  52              		.loc 1 86 0 is_stmt 1
  53 000c 2023     		movs	r3, #32
  54              	.LVL2:
  55              	@ 86 "../../os/kernel/src/chevents.c" 1
  56 000e 83F31188 		msr     BASEPRI, r3
  57              	@ 0 "" 2
ARM GAS  /tmp/cc2dNRNq.s 			page 2


  58              	.LVL3:
  59              		.thumb
  60              	.LBE2:
  61 0012 FFF7FEFF 		bl	dbg_check_lock
  62              	.LVL4:
  63              		.loc 1 89 0
  64 0016 084B     		ldr	r3, .L8
  65              		.loc 1 87 0
  66 0018 2A68     		ldr	r2, [r5, #0]
  67              		.loc 1 89 0
  68 001a D869     		ldr	r0, [r3, #28]
  69              		.loc 1 87 0
  70 001c 2260     		str	r2, [r4, #0]
  71              		.loc 1 88 0
  72 001e 2C60     		str	r4, [r5, #0]
  73              		.loc 1 89 0
  74 0020 6060     		str	r0, [r4, #4]
  75              		.loc 1 90 0
  76 0022 A660     		str	r6, [r4, #8]
  77              		.loc 1 91 0
  78 0024 FFF7FEFF 		bl	dbg_check_unlock
  79              	.LVL5:
  80              	.LBB3:
  81 0028 0023     		movs	r3, #0
  82              	.LVL6:
  83              	@ 91 "../../os/kernel/src/chevents.c" 1
  84 002a 83F31188 		msr     BASEPRI, r3
  85              	@ 0 "" 2
  86              	.LVL7:
  87              		.thumb
  88 002e 70BD     		pop	{r4, r5, r6, pc}
  89              	.LVL8:
  90              	.L2:
  91              	.LBE3:
  92              		.loc 1 84 0 discriminator 1
  93 0030 0248     		ldr	r0, .L8+4
  94              	.LVL9:
  95 0032 FFF7FEFF 		bl	chDbgPanic
  96              	.LVL10:
  97 0036 E9E7     		b	.L3
  98              	.L9:
  99              		.align	2
 100              	.L8:
 101 0038 00000000 		.word	rlist
 102 003c 00000000 		.word	.LC0
 103              		.cfi_endproc
 104              	.LFE7:
 105              		.size	chEvtRegisterMask, .-chEvtRegisterMask
 106              		.section	.text.chEvtUnregister,"ax",%progbits
 107              		.align	2
 108              		.p2align 4,,15
 109              		.global	chEvtUnregister
 110              		.thumb
 111              		.thumb_func
 112              		.type	chEvtUnregister, %function
 113              	chEvtUnregister:
 114              	.LFB8:
ARM GAS  /tmp/cc2dNRNq.s 			page 3


 115              		.loc 1 107 0
 116              		.cfi_startproc
 117              		@ args = 0, pretend = 0, frame = 0
 118              		@ frame_needed = 0, uses_anonymous_args = 0
 119              	.LVL11:
 120 0000 38B5     		push	{r3, r4, r5, lr}
 121              	.LCFI1:
 122              		.cfi_def_cfa_offset 16
 123              		.cfi_offset 3, -16
 124              		.cfi_offset 4, -12
 125              		.cfi_offset 5, -8
 126              		.cfi_offset 14, -4
 127              		.loc 1 110 0
 128 0002 0446     		mov	r4, r0
 129              		.loc 1 107 0
 130 0004 0D46     		mov	r5, r1
 131              		.loc 1 110 0
 132 0006 A8B1     		cbz	r0, .L11
 133              		.loc 1 110 0 is_stmt 0 discriminator 2
 134 0008 A1B1     		cbz	r1, .L11
 135              	.LVL12:
 136              	.L12:
 137              	.LBB4:
 138              		.loc 1 113 0 is_stmt 1
 139 000a 2023     		movs	r3, #32
 140              	.LVL13:
 141              	@ 113 "../../os/kernel/src/chevents.c" 1
 142 000c 83F31188 		msr     BASEPRI, r3
 143              	@ 0 "" 2
 144              	.LVL14:
 145              		.thumb
 146              	.LBE4:
 147 0010 FFF7FEFF 		bl	dbg_check_lock
 148              	.LVL15:
 149              		.loc 1 114 0
 150 0014 2246     		mov	r2, r4
 151 0016 00E0     		b	.L13
 152              	.LVL16:
 153              	.L16:
 154              		.loc 1 115 0
 155 0018 1A46     		mov	r2, r3
 156              	.LVL17:
 157              	.L13:
 158              		.loc 1 114 0 discriminator 1
 159 001a 1368     		ldr	r3, [r2, #0]
 160 001c A342     		cmp	r3, r4
 161 001e 03D0     		beq	.L14
 162              		.loc 1 115 0
 163 0020 9D42     		cmp	r5, r3
 164 0022 F9D1     		bne	.L16
 165              		.loc 1 116 0
 166 0024 2868     		ldr	r0, [r5, #0]
 167 0026 1060     		str	r0, [r2, #0]
 168              	.L14:
 169              		.loc 1 121 0
 170 0028 FFF7FEFF 		bl	dbg_check_unlock
 171              	.LVL18:
ARM GAS  /tmp/cc2dNRNq.s 			page 4


 172              	.LBB5:
 173 002c 0023     		movs	r3, #0
 174              	.LVL19:
 175              	@ 121 "../../os/kernel/src/chevents.c" 1
 176 002e 83F31188 		msr     BASEPRI, r3
 177              	@ 0 "" 2
 178              	.LVL20:
 179              		.thumb
 180 0032 38BD     		pop	{r3, r4, r5, pc}
 181              	.LVL21:
 182              	.L11:
 183              	.LBE5:
 184              		.loc 1 110 0 discriminator 1
 185 0034 0148     		ldr	r0, .L20
 186              	.LVL22:
 187 0036 FFF7FEFF 		bl	chDbgPanic
 188              	.LVL23:
 189 003a E6E7     		b	.L12
 190              	.L21:
 191              		.align	2
 192              	.L20:
 193 003c 18000000 		.word	.LC1
 194              		.cfi_endproc
 195              	.LFE8:
 196              		.size	chEvtUnregister, .-chEvtUnregister
 197              		.section	.text.chEvtClearFlags,"ax",%progbits
 198              		.align	2
 199              		.p2align 4,,15
 200              		.global	chEvtClearFlags
 201              		.thumb
 202              		.thumb_func
 203              		.type	chEvtClearFlags, %function
 204              	chEvtClearFlags:
 205              	.LFB9:
 206              		.loc 1 132 0
 207              		.cfi_startproc
 208              		@ args = 0, pretend = 0, frame = 0
 209              		@ frame_needed = 0, uses_anonymous_args = 0
 210              	.LVL24:
 211 0000 10B5     		push	{r4, lr}
 212              	.LCFI2:
 213              		.cfi_def_cfa_offset 8
 214              		.cfi_offset 4, -8
 215              		.cfi_offset 14, -4
 216              	.LBB6:
 217              		.loc 1 135 0
 218 0002 2023     		movs	r3, #32
 219              	.LVL25:
 220              	.LBE6:
 221              		.loc 1 132 0
 222 0004 0446     		mov	r4, r0
 223              	.LBB7:
 224              		.loc 1 135 0
 225              	@ 135 "../../os/kernel/src/chevents.c" 1
 226 0006 83F31188 		msr     BASEPRI, r3
 227              	@ 0 "" 2
 228              	.LVL26:
ARM GAS  /tmp/cc2dNRNq.s 			page 5


 229              		.thumb
 230              	.LBE7:
 231 000a FFF7FEFF 		bl	dbg_check_lock
 232              	.LVL27:
 233              		.loc 1 137 0
 234 000e 40F20003 		movw	r3, #:lower16:rlist
 235 0012 C0F20003 		movt	r3, #:upper16:rlist
 236 0016 D969     		ldr	r1, [r3, #28]
 237 0018 C86B     		ldr	r0, [r1, #60]
 238              		.loc 1 138 0
 239 001a 20EA0402 		bic	r2, r0, r4
 240 001e CA63     		str	r2, [r1, #60]
 241              		.loc 1 137 0
 242 0020 0440     		ands	r4, r4, r0
 243              	.LVL28:
 244              		.loc 1 140 0
 245 0022 FFF7FEFF 		bl	dbg_check_unlock
 246              	.LVL29:
 247              	.LBB8:
 248 0026 0023     		movs	r3, #0
 249              	.LVL30:
 250              	@ 140 "../../os/kernel/src/chevents.c" 1
 251 0028 83F31188 		msr     BASEPRI, r3
 252              	@ 0 "" 2
 253              	.LVL31:
 254              		.thumb
 255              	.LBE8:
 256              		.loc 1 142 0
 257 002c 2046     		mov	r0, r4
 258 002e 10BD     		pop	{r4, pc}
 259              		.cfi_endproc
 260              	.LFE9:
 261              		.size	chEvtClearFlags, .-chEvtClearFlags
 262              		.section	.text.chEvtAddFlags,"ax",%progbits
 263              		.align	2
 264              		.p2align 4,,15
 265              		.global	chEvtAddFlags
 266              		.thumb
 267              		.thumb_func
 268              		.type	chEvtAddFlags, %function
 269              	chEvtAddFlags:
 270              	.LFB10:
 271              		.loc 1 153 0
 272              		.cfi_startproc
 273              		@ args = 0, pretend = 0, frame = 0
 274              		@ frame_needed = 0, uses_anonymous_args = 0
 275              	.LVL32:
 276 0000 10B5     		push	{r4, lr}
 277              	.LCFI3:
 278              		.cfi_def_cfa_offset 8
 279              		.cfi_offset 4, -8
 280              		.cfi_offset 14, -4
 281              	.LBB9:
 282              		.loc 1 155 0
 283 0002 2023     		movs	r3, #32
 284              	.LVL33:
 285              	.LBE9:
ARM GAS  /tmp/cc2dNRNq.s 			page 6


 286              		.loc 1 153 0
 287 0004 0446     		mov	r4, r0
 288              	.LBB10:
 289              		.loc 1 155 0
 290              	@ 155 "../../os/kernel/src/chevents.c" 1
 291 0006 83F31188 		msr     BASEPRI, r3
 292              	@ 0 "" 2
 293              	.LVL34:
 294              		.thumb
 295              	.LBE10:
 296 000a FFF7FEFF 		bl	dbg_check_lock
 297              	.LVL35:
 298              		.loc 1 157 0
 299 000e 40F20003 		movw	r3, #:lower16:rlist
 300 0012 C0F20003 		movt	r3, #:upper16:rlist
 301 0016 D869     		ldr	r0, [r3, #28]
 302 0018 C26B     		ldr	r2, [r0, #60]
 303 001a 1443     		orrs	r4, r4, r2
 304              	.LVL36:
 305 001c C463     		str	r4, [r0, #60]
 306              	.LVL37:
 307              		.loc 1 159 0
 308 001e FFF7FEFF 		bl	dbg_check_unlock
 309              	.LVL38:
 310              	.LBB11:
 311 0022 0023     		movs	r3, #0
 312              	.LVL39:
 313              	@ 159 "../../os/kernel/src/chevents.c" 1
 314 0024 83F31188 		msr     BASEPRI, r3
 315              	@ 0 "" 2
 316              	.LVL40:
 317              		.thumb
 318              	.LBE11:
 319              		.loc 1 161 0
 320 0028 2046     		mov	r0, r4
 321 002a 10BD     		pop	{r4, pc}
 322              		.cfi_endproc
 323              	.LFE10:
 324              		.size	chEvtAddFlags, .-chEvtAddFlags
 325 002c AFF30080 		.section	.text.chEvtSignalFlagsI,"ax",%progbits
 326              		.align	2
 327              		.p2align 4,,15
 328              		.global	chEvtSignalFlagsI
 329              		.thumb
 330              		.thumb_func
 331              		.type	chEvtSignalFlagsI, %function
 332              	chEvtSignalFlagsI:
 333              	.LFB12:
 334              		.loc 1 193 0
 335              		.cfi_startproc
 336              		@ args = 0, pretend = 0, frame = 0
 337              		@ frame_needed = 0, uses_anonymous_args = 0
 338              	.LVL41:
 339 0000 38B5     		push	{r3, r4, r5, lr}
 340              	.LCFI4:
 341              		.cfi_def_cfa_offset 16
 342              		.cfi_offset 3, -16
ARM GAS  /tmp/cc2dNRNq.s 			page 7


 343              		.cfi_offset 4, -12
 344              		.cfi_offset 5, -8
 345              		.cfi_offset 14, -4
 346              		.loc 1 193 0
 347 0002 0446     		mov	r4, r0
 348 0004 0D46     		mov	r5, r1
 349              		.loc 1 195 0
 350 0006 FFF7FEFF 		bl	chDbgCheckClassI
 351              	.LVL42:
 352              		.loc 1 196 0
 353 000a C4B1     		cbz	r4, .L29
 354              	.L25:
 355              		.loc 1 198 0
 356 000c E26B     		ldr	r2, [r4, #60]
 357              		.loc 1 200 0
 358 000e 94F82030 		ldrb	r3, [r4, #32]	@ zero_extendqisi2
 359              		.loc 1 198 0
 360 0012 45EA0201 		orr	r1, r5, r2
 361              		.loc 1 200 0
 362 0016 082B     		cmp	r3, #8
 363              		.loc 1 198 0
 364 0018 E163     		str	r1, [r4, #60]
 365              		.loc 1 200 0
 366 001a 0CD0     		beq	.L30
 367              		.loc 1 201 0
 368 001c 092B     		cmp	r3, #9
 369 001e 00D0     		beq	.L31
 370              	.L24:
 371 0020 38BD     		pop	{r3, r4, r5, pc}
 372              	.L31:
 373              		.loc 1 203 0
 374 0022 A06A     		ldr	r0, [r4, #40]
 375 0024 0140     		ands	r1, r1, r0
 376              		.loc 1 202 0
 377 0026 8842     		cmp	r0, r1
 378 0028 FAD1     		bne	.L24
 379              	.L27:
 380              	.LVL43:
 381              	.LBB14:
 382              	.LBB15:
 383              		.loc 1 204 0
 384 002a 2046     		mov	r0, r4
 385 002c FFF7FEFF 		bl	chSchReadyI
 386              	.LVL44:
 387 0030 0023     		movs	r3, #0
 388 0032 8362     		str	r3, [r0, #40]
 389 0034 38BD     		pop	{r3, r4, r5, pc}
 390              	.LVL45:
 391              	.L30:
 392              	.LBE15:
 393              	.LBE14:
 394              		.loc 1 201 0 discriminator 1
 395 0036 A26A     		ldr	r2, [r4, #40]
 396              		.loc 1 200 0 discriminator 1
 397 0038 1142     		tst	r1, r2
 398 003a F6D1     		bne	.L27
 399 003c 38BD     		pop	{r3, r4, r5, pc}
ARM GAS  /tmp/cc2dNRNq.s 			page 8


 400              	.L29:
 401              		.loc 1 196 0 discriminator 1
 402 003e 0248     		ldr	r0, .L32
 403 0040 FFF7FEFF 		bl	chDbgPanic
 404              	.LVL46:
 405 0044 E2E7     		b	.L25
 406              	.L33:
 407 0046 00BF     		.align	2
 408              	.L32:
 409 0048 2C000000 		.word	.LC2
 410              		.cfi_endproc
 411              	.LFE12:
 412              		.size	chEvtSignalFlagsI, .-chEvtSignalFlagsI
 413 004c AFF30080 		.section	.text.chEvtSignalFlags,"ax",%progbits
 414              		.align	2
 415              		.p2align 4,,15
 416              		.global	chEvtSignalFlags
 417              		.thumb
 418              		.thumb_func
 419              		.type	chEvtSignalFlags, %function
 420              	chEvtSignalFlags:
 421              	.LFB11:
 422              		.loc 1 171 0
 423              		.cfi_startproc
 424              		@ args = 0, pretend = 0, frame = 0
 425              		@ frame_needed = 0, uses_anonymous_args = 0
 426              	.LVL47:
 427 0000 38B5     		push	{r3, r4, r5, lr}
 428              	.LCFI5:
 429              		.cfi_def_cfa_offset 16
 430              		.cfi_offset 3, -16
 431              		.cfi_offset 4, -12
 432              		.cfi_offset 5, -8
 433              		.cfi_offset 14, -4
 434              		.loc 1 173 0
 435 0002 0446     		mov	r4, r0
 436              		.loc 1 171 0
 437 0004 0D46     		mov	r5, r1
 438              		.loc 1 173 0
 439 0006 80B1     		cbz	r0, .L36
 440              	.LVL48:
 441              	.L35:
 442              	.LBB16:
 443              		.loc 1 175 0
 444 0008 2023     		movs	r3, #32
 445              	.LVL49:
 446              	@ 175 "../../os/kernel/src/chevents.c" 1
 447 000a 83F31188 		msr     BASEPRI, r3
 448              	@ 0 "" 2
 449              	.LVL50:
 450              		.thumb
 451              	.LBE16:
 452 000e FFF7FEFF 		bl	dbg_check_lock
 453              	.LVL51:
 454              		.loc 1 176 0
 455 0012 2046     		mov	r0, r4
 456 0014 2946     		mov	r1, r5
ARM GAS  /tmp/cc2dNRNq.s 			page 9


 457 0016 FFF7FEFF 		bl	chEvtSignalFlagsI
 458              	.LVL52:
 459              		.loc 1 177 0
 460 001a FFF7FEFF 		bl	chSchRescheduleS
 461              	.LVL53:
 462              		.loc 1 178 0
 463 001e FFF7FEFF 		bl	dbg_check_unlock
 464              	.LVL54:
 465              	.LBB17:
 466 0022 0023     		movs	r3, #0
 467              	.LVL55:
 468              	@ 178 "../../os/kernel/src/chevents.c" 1
 469 0024 83F31188 		msr     BASEPRI, r3
 470              	@ 0 "" 2
 471              	.LVL56:
 472              		.thumb
 473 0028 38BD     		pop	{r3, r4, r5, pc}
 474              	.LVL57:
 475              	.L36:
 476              	.LBE17:
 477              		.loc 1 173 0 discriminator 1
 478 002a 0248     		ldr	r0, .L37
 479              	.LVL58:
 480 002c FFF7FEFF 		bl	chDbgPanic
 481              	.LVL59:
 482 0030 EAE7     		b	.L35
 483              	.L38:
 484 0032 00BF     		.align	2
 485              	.L37:
 486 0034 40000000 		.word	.LC3
 487              		.cfi_endproc
 488              	.LFE11:
 489              		.size	chEvtSignalFlags, .-chEvtSignalFlags
 490 0038 AFF30080 		.section	.text.chEvtBroadcastFlagsI,"ax",%progbits
 490      AFF30080 
 491              		.align	2
 492              		.p2align 4,,15
 493              		.global	chEvtBroadcastFlagsI
 494              		.thumb
 495              		.thumb_func
 496              		.type	chEvtBroadcastFlagsI, %function
 497              	chEvtBroadcastFlagsI:
 498              	.LFB14:
 499              		.loc 1 245 0
 500              		.cfi_startproc
 501              		@ args = 0, pretend = 0, frame = 0
 502              		@ frame_needed = 0, uses_anonymous_args = 0
 503              	.LVL60:
 504 0000 70B5     		push	{r4, r5, r6, lr}
 505              	.LCFI6:
 506              		.cfi_def_cfa_offset 16
 507              		.cfi_offset 4, -16
 508              		.cfi_offset 5, -12
 509              		.cfi_offset 6, -8
 510              		.cfi_offset 14, -4
 511              		.loc 1 245 0
 512 0002 0546     		mov	r5, r0
ARM GAS  /tmp/cc2dNRNq.s 			page 10


 513 0004 0E46     		mov	r6, r1
 514              		.loc 1 248 0
 515 0006 FFF7FEFF 		bl	chDbgCheckClassI
 516              	.LVL61:
 517              		.loc 1 249 0
 518 000a 5DB1     		cbz	r5, .L46
 519              	.L40:
 520              		.loc 1 251 0
 521 000c 2C68     		ldr	r4, [r5, #0]
 522              	.LVL62:
 523              		.loc 1 252 0
 524 000e A542     		cmp	r5, r4
 525 0010 07D0     		beq	.L39
 526              	.L44:
 527              		.loc 1 253 0
 528 0012 A168     		ldr	r1, [r4, #8]
 529 0014 6068     		ldr	r0, [r4, #4]
 530 0016 3143     		orrs	r1, r1, r6
 531 0018 FFF7FEFF 		bl	chEvtSignalFlagsI
 532              	.LVL63:
 533              		.loc 1 254 0
 534 001c 2468     		ldr	r4, [r4, #0]
 535              	.LVL64:
 536              		.loc 1 252 0
 537 001e A542     		cmp	r5, r4
 538 0020 F7D1     		bne	.L44
 539              	.L39:
 540 0022 70BD     		pop	{r4, r5, r6, pc}
 541              	.LVL65:
 542              	.L46:
 543              		.loc 1 249 0 discriminator 1
 544 0024 0148     		ldr	r0, .L47
 545 0026 FFF7FEFF 		bl	chDbgPanic
 546              	.LVL66:
 547 002a EFE7     		b	.L40
 548              	.L48:
 549              		.align	2
 550              	.L47:
 551 002c 50000000 		.word	.LC4
 552              		.cfi_endproc
 553              	.LFE14:
 554              		.size	chEvtBroadcastFlagsI, .-chEvtBroadcastFlagsI
 555              		.section	.text.chEvtBroadcastFlags,"ax",%progbits
 556              		.align	2
 557              		.p2align 4,,15
 558              		.global	chEvtBroadcastFlags
 559              		.thumb
 560              		.thumb_func
 561              		.type	chEvtBroadcastFlags, %function
 562              	chEvtBroadcastFlags:
 563              	.LFB13:
 564              		.loc 1 220 0
 565              		.cfi_startproc
 566              		@ args = 0, pretend = 0, frame = 0
 567              		@ frame_needed = 0, uses_anonymous_args = 0
 568              	.LVL67:
 569 0000 38B5     		push	{r3, r4, r5, lr}
ARM GAS  /tmp/cc2dNRNq.s 			page 11


 570              	.LCFI7:
 571              		.cfi_def_cfa_offset 16
 572              		.cfi_offset 3, -16
 573              		.cfi_offset 4, -12
 574              		.cfi_offset 5, -8
 575              		.cfi_offset 14, -4
 576              		.loc 1 220 0
 577 0002 0546     		mov	r5, r0
 578 0004 0C46     		mov	r4, r1
 579              	.LBB18:
 580              		.loc 1 222 0
 581 0006 2023     		movs	r3, #32
 582              	.LVL68:
 583              	@ 222 "../../os/kernel/src/chevents.c" 1
 584 0008 83F31188 		msr     BASEPRI, r3
 585              	@ 0 "" 2
 586              	.LVL69:
 587              		.thumb
 588              	.LBE18:
 589 000c FFF7FEFF 		bl	dbg_check_lock
 590              	.LVL70:
 591              		.loc 1 223 0
 592 0010 2846     		mov	r0, r5
 593 0012 2146     		mov	r1, r4
 594 0014 FFF7FEFF 		bl	chEvtBroadcastFlagsI
 595              	.LVL71:
 596              		.loc 1 224 0
 597 0018 FFF7FEFF 		bl	chSchRescheduleS
 598              	.LVL72:
 599              		.loc 1 225 0
 600 001c FFF7FEFF 		bl	dbg_check_unlock
 601              	.LVL73:
 602              	.LBB19:
 603 0020 0023     		movs	r3, #0
 604              	.LVL74:
 605              	@ 225 "../../os/kernel/src/chevents.c" 1
 606 0022 83F31188 		msr     BASEPRI, r3
 607              	@ 0 "" 2
 608              	.LVL75:
 609              		.thumb
 610 0026 38BD     		pop	{r3, r4, r5, pc}
 611              	.LBE19:
 612              		.cfi_endproc
 613              	.LFE13:
 614              		.size	chEvtBroadcastFlags, .-chEvtBroadcastFlags
 615 0028 AFF30080 		.section	.text.chEvtDispatch,"ax",%progbits
 615      AFF30080 
 616              		.align	2
 617              		.p2align 4,,15
 618              		.global	chEvtDispatch
 619              		.thumb
 620              		.thumb_func
 621              		.type	chEvtDispatch, %function
 622              	chEvtDispatch:
 623              	.LFB15:
 624              		.loc 1 267 0
 625              		.cfi_startproc
ARM GAS  /tmp/cc2dNRNq.s 			page 12


 626              		@ args = 0, pretend = 0, frame = 0
 627              		@ frame_needed = 0, uses_anonymous_args = 0
 628              	.LVL76:
 629 0000 2DE9F041 		push	{r4, r5, r6, r7, r8, lr}
 630              	.LCFI8:
 631              		.cfi_def_cfa_offset 24
 632              		.cfi_offset 4, -24
 633              		.cfi_offset 5, -20
 634              		.cfi_offset 6, -16
 635              		.cfi_offset 7, -12
 636              		.cfi_offset 8, -8
 637              		.cfi_offset 14, -4
 638              		.loc 1 270 0
 639 0004 8046     		mov	r8, r0
 640              		.loc 1 267 0
 641 0006 0D46     		mov	r5, r1
 642              		.loc 1 270 0
 643 0008 D0B1     		cbz	r0, .L61
 644              	.LVL77:
 645              	.L51:
 646              		.loc 1 273 0 discriminator 1
 647 000a 8DB1     		cbz	r5, .L50
 648              		.loc 1 273 0 is_stmt 0
 649 000c 0026     		movs	r6, #0
 650 000e 3446     		mov	r4, r6
 651              		.loc 1 274 0 is_stmt 1
 652 0010 0127     		movs	r7, #1
 653              	.LVL78:
 654              	.L52:
 655 0012 07FA04F3 		lsl	r3, r7, r4
 656 0016 2B42     		tst	r3, r5
 657 0018 06D0     		beq	.L53
 658              		.loc 1 275 0
 659 001a 58F80610 		ldr	r1, [r8, r6]
 660              		.loc 1 278 0
 661 001e 25EA0305 		bic	r5, r5, r3
 662              	.LVL79:
 663              		.loc 1 275 0
 664 0022 39B1     		cbz	r1, .L62
 665              	.L54:
 666              	.LVL80:
 667              		.loc 1 279 0
 668 0024 2046     		mov	r0, r4
 669 0026 8847     		blx	r1
 670              	.LVL81:
 671              	.L53:
 672              		.loc 1 281 0
 673 0028 0134     		adds	r4, r4, #1
 674              	.LVL82:
 675 002a 0436     		adds	r6, r6, #4
 676              		.loc 1 273 0
 677 002c 002D     		cmp	r5, #0
 678 002e F0D1     		bne	.L52
 679              	.LVL83:
 680              	.L50:
 681 0030 BDE8F081 		pop	{r4, r5, r6, r7, r8, pc}
 682              	.LVL84:
ARM GAS  /tmp/cc2dNRNq.s 			page 13


 683              	.L62:
 684              		.loc 1 275 0 discriminator 1
 685 0034 0448     		ldr	r0, .L63
 686 0036 FFF7FEFF 		bl	chDbgPanic
 687              	.LVL85:
 688 003a 58F80610 		ldr	r1, [r8, r6]
 689 003e F1E7     		b	.L54
 690              	.LVL86:
 691              	.L61:
 692              		.loc 1 270 0 discriminator 1
 693 0040 0248     		ldr	r0, .L63+4
 694              	.LVL87:
 695 0042 FFF7FEFF 		bl	chDbgPanic
 696              	.LVL88:
 697 0046 E0E7     		b	.L51
 698              	.L64:
 699              		.align	2
 700              	.L63:
 701 0048 7C000000 		.word	.LC6
 702 004c 68000000 		.word	.LC5
 703              		.cfi_endproc
 704              	.LFE15:
 705              		.size	chEvtDispatch, .-chEvtDispatch
 706              		.section	.text.chEvtWaitOne,"ax",%progbits
 707              		.align	2
 708              		.p2align 4,,15
 709              		.global	chEvtWaitOne
 710              		.thumb
 711              		.thumb_func
 712              		.type	chEvtWaitOne, %function
 713              	chEvtWaitOne:
 714              	.LFB16:
 715              		.loc 1 302 0
 716              		.cfi_startproc
 717              		@ args = 0, pretend = 0, frame = 0
 718              		@ frame_needed = 0, uses_anonymous_args = 0
 719              	.LVL89:
 720 0000 38B5     		push	{r3, r4, r5, lr}
 721              	.LCFI9:
 722              		.cfi_def_cfa_offset 16
 723              		.cfi_offset 3, -16
 724              		.cfi_offset 4, -12
 725              		.cfi_offset 5, -8
 726              		.cfi_offset 14, -4
 727              		.loc 1 303 0
 728 0002 0F4B     		ldr	r3, .L67
 729              		.loc 1 302 0
 730 0004 0446     		mov	r4, r0
 731              		.loc 1 303 0
 732 0006 DD69     		ldr	r5, [r3, #28]
 733              	.LVL90:
 734              	.LBB20:
 735              		.loc 1 306 0
 736 0008 2023     		movs	r3, #32
 737              	.LVL91:
 738              	@ 306 "../../os/kernel/src/chevents.c" 1
 739 000a 83F31188 		msr     BASEPRI, r3
ARM GAS  /tmp/cc2dNRNq.s 			page 14


 740              	@ 0 "" 2
 741              	.LVL92:
 742              		.thumb
 743              	.LBE20:
 744 000e FFF7FEFF 		bl	dbg_check_lock
 745              	.LVL93:
 746              		.loc 1 308 0
 747 0012 E86B     		ldr	r0, [r5, #60]
 748              	.LVL94:
 749 0014 14EA0002 		ands	r2, r4, r0
 750              	.LVL95:
 751 0018 06D1     		bne	.L66
 752              		.loc 1 310 0
 753 001a 0820     		movs	r0, #8
 754              		.loc 1 309 0
 755 001c AC62     		str	r4, [r5, #40]
 756              		.loc 1 310 0
 757 001e FFF7FEFF 		bl	chSchGoSleepS
 758              	.LVL96:
 759              		.loc 1 311 0
 760 0022 E86B     		ldr	r0, [r5, #60]
 761 0024 04EA0002 		and	r2, r4, r0
 762              	.LVL97:
 763              	.L66:
 764              		.loc 1 313 0
 765 0028 5442     		negs	r4, r2
 766              	.LVL98:
 767 002a 1440     		ands	r4, r4, r2
 768              	.LVL99:
 769              		.loc 1 314 0
 770 002c 20EA0400 		bic	r0, r0, r4
 771 0030 E863     		str	r0, [r5, #60]
 772              		.loc 1 316 0
 773 0032 FFF7FEFF 		bl	dbg_check_unlock
 774              	.LVL100:
 775              	.LBB21:
 776 0036 0023     		movs	r3, #0
 777              	.LVL101:
 778              	@ 316 "../../os/kernel/src/chevents.c" 1
 779 0038 83F31188 		msr     BASEPRI, r3
 780              	@ 0 "" 2
 781              	.LVL102:
 782              		.thumb
 783              	.LBE21:
 784              		.loc 1 318 0
 785 003c 2046     		mov	r0, r4
 786 003e 38BD     		pop	{r3, r4, r5, pc}
 787              	.L68:
 788              		.align	2
 789              	.L67:
 790 0040 00000000 		.word	rlist
 791              		.cfi_endproc
 792              	.LFE16:
 793              		.size	chEvtWaitOne, .-chEvtWaitOne
 794 0044 AFF30080 		.section	.text.chEvtWaitAny,"ax",%progbits
 794      AFF30080 
 794      AFF30080 
ARM GAS  /tmp/cc2dNRNq.s 			page 15


 795              		.align	2
 796              		.p2align 4,,15
 797              		.global	chEvtWaitAny
 798              		.thumb
 799              		.thumb_func
 800              		.type	chEvtWaitAny, %function
 801              	chEvtWaitAny:
 802              	.LFB17:
 803              		.loc 1 331 0
 804              		.cfi_startproc
 805              		@ args = 0, pretend = 0, frame = 0
 806              		@ frame_needed = 0, uses_anonymous_args = 0
 807              	.LVL103:
 808              		.loc 1 332 0
 809 0000 0E4B     		ldr	r3, .L71
 810              		.loc 1 331 0
 811 0002 70B5     		push	{r4, r5, r6, lr}
 812              	.LCFI10:
 813              		.cfi_def_cfa_offset 16
 814              		.cfi_offset 4, -16
 815              		.cfi_offset 5, -12
 816              		.cfi_offset 6, -8
 817              		.cfi_offset 14, -4
 818              		.loc 1 332 0
 819 0004 DD69     		ldr	r5, [r3, #28]
 820              	.LVL104:
 821              		.loc 1 331 0
 822 0006 0446     		mov	r4, r0
 823              	.LBB22:
 824              		.loc 1 335 0
 825 0008 2023     		movs	r3, #32
 826              	.LVL105:
 827              	@ 335 "../../os/kernel/src/chevents.c" 1
 828 000a 83F31188 		msr     BASEPRI, r3
 829              	@ 0 "" 2
 830              	.LVL106:
 831              		.thumb
 832              	.LBE22:
 833 000e FFF7FEFF 		bl	dbg_check_lock
 834              	.LVL107:
 835              		.loc 1 337 0
 836 0012 E86B     		ldr	r0, [r5, #60]
 837              	.LVL108:
 838 0014 14EA0006 		ands	r6, r4, r0
 839              	.LVL109:
 840 0018 06D1     		bne	.L70
 841              		.loc 1 339 0
 842 001a 0820     		movs	r0, #8
 843              		.loc 1 338 0
 844 001c AC62     		str	r4, [r5, #40]
 845              		.loc 1 339 0
 846 001e FFF7FEFF 		bl	chSchGoSleepS
 847              	.LVL110:
 848              		.loc 1 340 0
 849 0022 E86B     		ldr	r0, [r5, #60]
 850 0024 04EA0006 		and	r6, r4, r0
 851              	.LVL111:
ARM GAS  /tmp/cc2dNRNq.s 			page 16


 852              	.L70:
 853              		.loc 1 342 0
 854 0028 20EA0600 		bic	r0, r0, r6
 855 002c E863     		str	r0, [r5, #60]
 856              		.loc 1 344 0
 857 002e FFF7FEFF 		bl	dbg_check_unlock
 858              	.LVL112:
 859              	.LBB23:
 860 0032 0023     		movs	r3, #0
 861              	.LVL113:
 862              	@ 344 "../../os/kernel/src/chevents.c" 1
 863 0034 83F31188 		msr     BASEPRI, r3
 864              	@ 0 "" 2
 865              	.LVL114:
 866              		.thumb
 867              	.LBE23:
 868              		.loc 1 346 0
 869 0038 3046     		mov	r0, r6
 870 003a 70BD     		pop	{r4, r5, r6, pc}
 871              	.L72:
 872              		.align	2
 873              	.L71:
 874 003c 00000000 		.word	rlist
 875              		.cfi_endproc
 876              	.LFE17:
 877              		.size	chEvtWaitAny, .-chEvtWaitAny
 878              		.section	.text.chEvtWaitAll,"ax",%progbits
 879              		.align	2
 880              		.p2align 4,,15
 881              		.global	chEvtWaitAll
 882              		.thumb
 883              		.thumb_func
 884              		.type	chEvtWaitAll, %function
 885              	chEvtWaitAll:
 886              	.LFB18:
 887              		.loc 1 359 0
 888              		.cfi_startproc
 889              		@ args = 0, pretend = 0, frame = 0
 890              		@ frame_needed = 0, uses_anonymous_args = 0
 891              	.LVL115:
 892 0000 38B5     		push	{r3, r4, r5, lr}
 893              	.LCFI11:
 894              		.cfi_def_cfa_offset 16
 895              		.cfi_offset 3, -16
 896              		.cfi_offset 4, -12
 897              		.cfi_offset 5, -8
 898              		.cfi_offset 14, -4
 899              		.loc 1 360 0
 900 0002 0E4B     		ldr	r3, .L75
 901              		.loc 1 359 0
 902 0004 0446     		mov	r4, r0
 903              		.loc 1 360 0
 904 0006 DD69     		ldr	r5, [r3, #28]
 905              	.LVL116:
 906              	.LBB24:
 907              		.loc 1 362 0
 908 0008 2023     		movs	r3, #32
ARM GAS  /tmp/cc2dNRNq.s 			page 17


 909              	.LVL117:
 910              	@ 362 "../../os/kernel/src/chevents.c" 1
 911 000a 83F31188 		msr     BASEPRI, r3
 912              	@ 0 "" 2
 913              	.LVL118:
 914              		.thumb
 915              	.LBE24:
 916 000e FFF7FEFF 		bl	dbg_check_lock
 917              	.LVL119:
 918              		.loc 1 364 0
 919 0012 E86B     		ldr	r0, [r5, #60]
 920 0014 04EA0002 		and	r2, r4, r0
 921 0018 A242     		cmp	r2, r4
 922 001a 04D0     		beq	.L74
 923              		.loc 1 366 0
 924 001c 0920     		movs	r0, #9
 925              		.loc 1 365 0
 926 001e AC62     		str	r4, [r5, #40]
 927              		.loc 1 366 0
 928 0020 FFF7FEFF 		bl	chSchGoSleepS
 929              	.LVL120:
 930 0024 E86B     		ldr	r0, [r5, #60]
 931              	.L74:
 932              		.loc 1 368 0
 933 0026 20EA0400 		bic	r0, r0, r4
 934 002a E863     		str	r0, [r5, #60]
 935              		.loc 1 370 0
 936 002c FFF7FEFF 		bl	dbg_check_unlock
 937              	.LVL121:
 938              	.LBB25:
 939 0030 0023     		movs	r3, #0
 940              	.LVL122:
 941              	@ 370 "../../os/kernel/src/chevents.c" 1
 942 0032 83F31188 		msr     BASEPRI, r3
 943              	@ 0 "" 2
 944              	.LVL123:
 945              		.thumb
 946              	.LBE25:
 947              		.loc 1 372 0
 948 0036 2046     		mov	r0, r4
 949 0038 38BD     		pop	{r3, r4, r5, pc}
 950              	.L76:
 951 003a 00BF     		.align	2
 952              	.L75:
 953 003c 00000000 		.word	rlist
 954              		.cfi_endproc
 955              	.LFE18:
 956              		.size	chEvtWaitAll, .-chEvtWaitAll
 957              		.section	.text.chEvtWaitOneTimeout,"ax",%progbits
 958              		.align	2
 959              		.p2align 4,,15
 960              		.global	chEvtWaitOneTimeout
 961              		.thumb
 962              		.thumb_func
 963              		.type	chEvtWaitOneTimeout, %function
 964              	chEvtWaitOneTimeout:
 965              	.LFB19:
ARM GAS  /tmp/cc2dNRNq.s 			page 18


 966              		.loc 1 398 0
 967              		.cfi_startproc
 968              		@ args = 0, pretend = 0, frame = 0
 969              		@ frame_needed = 0, uses_anonymous_args = 0
 970              	.LVL124:
 971 0000 F8B5     		push	{r3, r4, r5, r6, r7, lr}
 972              	.LCFI12:
 973              		.cfi_def_cfa_offset 24
 974              		.cfi_offset 3, -24
 975              		.cfi_offset 4, -20
 976              		.cfi_offset 5, -16
 977              		.cfi_offset 6, -12
 978              		.cfi_offset 7, -8
 979              		.cfi_offset 14, -4
 980              		.loc 1 399 0
 981 0002 154B     		ldr	r3, .L83
 982              		.loc 1 398 0
 983 0004 0546     		mov	r5, r0
 984              		.loc 1 399 0
 985 0006 DE69     		ldr	r6, [r3, #28]
 986              	.LVL125:
 987              		.loc 1 398 0
 988 0008 0F46     		mov	r7, r1
 989              	.LBB26:
 990              		.loc 1 402 0
 991 000a 2023     		movs	r3, #32
 992              	.LVL126:
 993              	@ 402 "../../os/kernel/src/chevents.c" 1
 994 000c 83F31188 		msr     BASEPRI, r3
 995              	@ 0 "" 2
 996              	.LVL127:
 997              		.thumb
 998              	.LBE26:
 999 0010 FFF7FEFF 		bl	dbg_check_lock
 1000              	.LVL128:
 1001              		.loc 1 404 0
 1002 0014 F06B     		ldr	r0, [r6, #60]
 1003              	.LVL129:
 1004 0016 15EA0004 		ands	r4, r5, r0
 1005              	.LVL130:
 1006 001a 0AD1     		bne	.L78
 1007              		.loc 1 405 0
 1008 001c AFB1     		cbz	r7, .L82
 1009              		.loc 1 410 0
 1010 001e 0820     		movs	r0, #8
 1011              		.loc 1 409 0
 1012 0020 B562     		str	r5, [r6, #40]
 1013              		.loc 1 410 0
 1014 0022 3946     		mov	r1, r7
 1015 0024 FFF7FEFF 		bl	chSchGoSleepTimeoutS
 1016              	.LVL131:
 1017 0028 0028     		cmp	r0, #0
 1018 002a 0EDB     		blt	.L82
 1019              		.loc 1 414 0
 1020 002c F06B     		ldr	r0, [r6, #60]
 1021 002e 05EA0004 		and	r4, r5, r0
 1022              	.LVL132:
ARM GAS  /tmp/cc2dNRNq.s 			page 19


 1023              	.L78:
 1024              		.loc 1 416 0
 1025 0032 6242     		negs	r2, r4
 1026 0034 1440     		ands	r4, r4, r2
 1027              	.LVL133:
 1028              		.loc 1 417 0
 1029 0036 20EA0400 		bic	r0, r0, r4
 1030 003a F063     		str	r0, [r6, #60]
 1031              		.loc 1 419 0
 1032 003c FFF7FEFF 		bl	dbg_check_unlock
 1033              	.LVL134:
 1034              	.LBB27:
 1035 0040 0023     		movs	r3, #0
 1036              	.LVL135:
 1037              	@ 419 "../../os/kernel/src/chevents.c" 1
 1038 0042 83F31188 		msr     BASEPRI, r3
 1039              	@ 0 "" 2
 1040              	.LVL136:
 1041              		.thumb
 1042              	.LBE27:
 1043              		.loc 1 421 0
 1044 0046 2046     		mov	r0, r4
 1045 0048 F8BD     		pop	{r3, r4, r5, r6, r7, pc}
 1046              	.LVL137:
 1047              	.L82:
 1048              		.loc 1 411 0
 1049 004a FFF7FEFF 		bl	dbg_check_unlock
 1050              	.LVL138:
 1051              	.LBB28:
 1052 004e 2346     		mov	r3, r4
 1053              	.LVL139:
 1054              	@ 411 "../../os/kernel/src/chevents.c" 1
 1055 0050 83F31188 		msr     BASEPRI, r3
 1056              	@ 0 "" 2
 1057              	.LVL140:
 1058              		.thumb
 1059              	.LBE28:
 1060              		.loc 1 421 0
 1061 0054 2046     		mov	r0, r4
 1062 0056 F8BD     		pop	{r3, r4, r5, r6, r7, pc}
 1063              	.L84:
 1064              		.align	2
 1065              	.L83:
 1066 0058 00000000 		.word	rlist
 1067              		.cfi_endproc
 1068              	.LFE19:
 1069              		.size	chEvtWaitOneTimeout, .-chEvtWaitOneTimeout
 1070 005c AFF30080 		.section	.text.chEvtWaitAnyTimeout,"ax",%progbits
 1071              		.align	2
 1072              		.p2align 4,,15
 1073              		.global	chEvtWaitAnyTimeout
 1074              		.thumb
 1075              		.thumb_func
 1076              		.type	chEvtWaitAnyTimeout, %function
 1077              	chEvtWaitAnyTimeout:
 1078              	.LFB20:
 1079              		.loc 1 441 0
ARM GAS  /tmp/cc2dNRNq.s 			page 20


 1080              		.cfi_startproc
 1081              		@ args = 0, pretend = 0, frame = 0
 1082              		@ frame_needed = 0, uses_anonymous_args = 0
 1083              	.LVL141:
 1084 0000 F8B5     		push	{r3, r4, r5, r6, r7, lr}
 1085              	.LCFI13:
 1086              		.cfi_def_cfa_offset 24
 1087              		.cfi_offset 3, -24
 1088              		.cfi_offset 4, -20
 1089              		.cfi_offset 5, -16
 1090              		.cfi_offset 6, -12
 1091              		.cfi_offset 7, -8
 1092              		.cfi_offset 14, -4
 1093              		.loc 1 442 0
 1094 0002 144B     		ldr	r3, .L91
 1095              		.loc 1 441 0
 1096 0004 0446     		mov	r4, r0
 1097              		.loc 1 442 0
 1098 0006 DD69     		ldr	r5, [r3, #28]
 1099              	.LVL142:
 1100              		.loc 1 441 0
 1101 0008 0F46     		mov	r7, r1
 1102              	.LBB29:
 1103              		.loc 1 445 0
 1104 000a 2023     		movs	r3, #32
 1105              	.LVL143:
 1106              	@ 445 "../../os/kernel/src/chevents.c" 1
 1107 000c 83F31188 		msr     BASEPRI, r3
 1108              	@ 0 "" 2
 1109              	.LVL144:
 1110              		.thumb
 1111              	.LBE29:
 1112 0010 FFF7FEFF 		bl	dbg_check_lock
 1113              	.LVL145:
 1114              		.loc 1 447 0
 1115 0014 EA6B     		ldr	r2, [r5, #60]
 1116              	.LVL146:
 1117 0016 14EA0206 		ands	r6, r4, r2
 1118              	.LVL147:
 1119 001a 0AD1     		bne	.L86
 1120              		.loc 1 448 0
 1121 001c 9FB1     		cbz	r7, .L90
 1122              		.loc 1 453 0
 1123 001e 0820     		movs	r0, #8
 1124              		.loc 1 452 0
 1125 0020 AC62     		str	r4, [r5, #40]
 1126              		.loc 1 453 0
 1127 0022 3946     		mov	r1, r7
 1128 0024 FFF7FEFF 		bl	chSchGoSleepTimeoutS
 1129              	.LVL148:
 1130 0028 0028     		cmp	r0, #0
 1131 002a 0CDB     		blt	.L90
 1132              		.loc 1 457 0
 1133 002c EA6B     		ldr	r2, [r5, #60]
 1134 002e 04EA0206 		and	r6, r4, r2
 1135              	.LVL149:
 1136              	.L86:
ARM GAS  /tmp/cc2dNRNq.s 			page 21


 1137              		.loc 1 459 0
 1138 0032 22EA0602 		bic	r2, r2, r6
 1139 0036 EA63     		str	r2, [r5, #60]
 1140              		.loc 1 461 0
 1141 0038 FFF7FEFF 		bl	dbg_check_unlock
 1142              	.LVL150:
 1143              	.LBB30:
 1144 003c 0023     		movs	r3, #0
 1145              	.LVL151:
 1146              	@ 461 "../../os/kernel/src/chevents.c" 1
 1147 003e 83F31188 		msr     BASEPRI, r3
 1148              	@ 0 "" 2
 1149              	.LVL152:
 1150              		.thumb
 1151              	.LBE30:
 1152              		.loc 1 463 0
 1153 0042 3046     		mov	r0, r6
 1154 0044 F8BD     		pop	{r3, r4, r5, r6, r7, pc}
 1155              	.LVL153:
 1156              	.L90:
 1157              		.loc 1 454 0
 1158 0046 FFF7FEFF 		bl	dbg_check_unlock
 1159              	.LVL154:
 1160              	.LBB31:
 1161 004a 3346     		mov	r3, r6
 1162              	.LVL155:
 1163              	@ 454 "../../os/kernel/src/chevents.c" 1
 1164 004c 83F31188 		msr     BASEPRI, r3
 1165              	@ 0 "" 2
 1166              	.LVL156:
 1167              		.thumb
 1168              	.LBE31:
 1169              		.loc 1 463 0
 1170 0050 3046     		mov	r0, r6
 1171 0052 F8BD     		pop	{r3, r4, r5, r6, r7, pc}
 1172              	.L92:
 1173              		.align	2
 1174              	.L91:
 1175 0054 00000000 		.word	rlist
 1176              		.cfi_endproc
 1177              	.LFE20:
 1178              		.size	chEvtWaitAnyTimeout, .-chEvtWaitAnyTimeout
 1179 0058 AFF30080 		.section	.text.chEvtWaitAllTimeout,"ax",%progbits
 1179      AFF30080 
 1180              		.align	2
 1181              		.p2align 4,,15
 1182              		.global	chEvtWaitAllTimeout
 1183              		.thumb
 1184              		.thumb_func
 1185              		.type	chEvtWaitAllTimeout, %function
 1186              	chEvtWaitAllTimeout:
 1187              	.LFB21:
 1188              		.loc 1 482 0
 1189              		.cfi_startproc
 1190              		@ args = 0, pretend = 0, frame = 0
 1191              		@ frame_needed = 0, uses_anonymous_args = 0
 1192              	.LVL157:
ARM GAS  /tmp/cc2dNRNq.s 			page 22


 1193              		.loc 1 483 0
 1194 0000 184B     		ldr	r3, .L99
 1195              		.loc 1 482 0
 1196 0002 70B5     		push	{r4, r5, r6, lr}
 1197              	.LCFI14:
 1198              		.cfi_def_cfa_offset 16
 1199              		.cfi_offset 4, -16
 1200              		.cfi_offset 5, -12
 1201              		.cfi_offset 6, -8
 1202              		.cfi_offset 14, -4
 1203              		.loc 1 483 0
 1204 0004 DD69     		ldr	r5, [r3, #28]
 1205              	.LVL158:
 1206              		.loc 1 482 0
 1207 0006 0446     		mov	r4, r0
 1208 0008 0E46     		mov	r6, r1
 1209              	.LBB32:
 1210              		.loc 1 485 0
 1211 000a 2023     		movs	r3, #32
 1212              	.LVL159:
 1213              	@ 485 "../../os/kernel/src/chevents.c" 1
 1214 000c 83F31188 		msr     BASEPRI, r3
 1215              	@ 0 "" 2
 1216              	.LVL160:
 1217              		.thumb
 1218              	.LBE32:
 1219 0010 FFF7FEFF 		bl	dbg_check_lock
 1220              	.LVL161:
 1221              		.loc 1 487 0
 1222 0014 EA6B     		ldr	r2, [r5, #60]
 1223 0016 04EA0200 		and	r0, r4, r2
 1224 001a A042     		cmp	r0, r4
 1225 001c 08D0     		beq	.L94
 1226              		.loc 1 488 0
 1227 001e 8EB1     		cbz	r6, .L98
 1228              		.loc 1 493 0
 1229 0020 0920     		movs	r0, #9
 1230              		.loc 1 492 0
 1231 0022 AC62     		str	r4, [r5, #40]
 1232              		.loc 1 493 0
 1233 0024 3146     		mov	r1, r6
 1234 0026 FFF7FEFF 		bl	chSchGoSleepTimeoutS
 1235              	.LVL162:
 1236 002a 0028     		cmp	r0, #0
 1237 002c 12DB     		blt	.L97
 1238 002e EA6B     		ldr	r2, [r5, #60]
 1239              	.L94:
 1240              		.loc 1 498 0
 1241 0030 22EA0402 		bic	r2, r2, r4
 1242 0034 EA63     		str	r2, [r5, #60]
 1243              		.loc 1 500 0
 1244 0036 FFF7FEFF 		bl	dbg_check_unlock
 1245              	.LVL163:
 1246              	.LBB33:
 1247 003a 0023     		movs	r3, #0
 1248              	.LVL164:
 1249              	@ 500 "../../os/kernel/src/chevents.c" 1
ARM GAS  /tmp/cc2dNRNq.s 			page 23


 1250 003c 83F31188 		msr     BASEPRI, r3
 1251              	@ 0 "" 2
 1252              	.LVL165:
 1253              		.thumb
 1254              	.L96:
 1255              	.LBE33:
 1256              		.loc 1 502 0
 1257 0040 2046     		mov	r0, r4
 1258 0042 70BD     		pop	{r4, r5, r6, pc}
 1259              	.LVL166:
 1260              	.L98:
 1261              		.loc 1 489 0
 1262 0044 FFF7FEFF 		bl	dbg_check_unlock
 1263              	.LVL167:
 1264              	.LBB34:
 1265 0048 3346     		mov	r3, r6
 1266              	.LVL168:
 1267              	@ 489 "../../os/kernel/src/chevents.c" 1
 1268 004a 83F31188 		msr     BASEPRI, r3
 1269              	@ 0 "" 2
 1270              	.LVL169:
 1271              		.thumb
 1272              	.LBE34:
 1273              		.loc 1 490 0
 1274 004e 3446     		mov	r4, r6
 1275              	.LVL170:
 1276              		.loc 1 502 0
 1277 0050 2046     		mov	r0, r4
 1278 0052 70BD     		pop	{r4, r5, r6, pc}
 1279              	.LVL171:
 1280              	.L97:
 1281              		.loc 1 494 0
 1282 0054 FFF7FEFF 		bl	dbg_check_unlock
 1283              	.LVL172:
 1284              	.LBB35:
 1285 0058 0023     		movs	r3, #0
 1286              	@ 494 "../../os/kernel/src/chevents.c" 1
 1287 005a 83F31188 		msr     BASEPRI, r3
 1288              	@ 0 "" 2
 1289              	.LVL173:
 1290              		.thumb
 1291              	.LBE35:
 1292              		.loc 1 495 0
 1293 005e 1C46     		mov	r4, r3
 1294              	.LVL174:
 1295 0060 EEE7     		b	.L96
 1296              	.L100:
 1297 0062 00BF     		.align	2
 1298              	.L99:
 1299 0064 00000000 		.word	rlist
 1300              		.cfi_endproc
 1301              	.LFE21:
 1302              		.size	chEvtWaitAllTimeout, .-chEvtWaitAllTimeout
 1303 0068 AFF30080 		.section	.rodata.str1.4,"aMS",%progbits,1
 1303      AFF30080 
 1304              		.align	2
 1305              	.LC0:
ARM GAS  /tmp/cc2dNRNq.s 			page 24


 1306 0000 22636845 		.ascii	"\"chEvtRegisterMask\"()\000"
 1306      76745265 
 1306      67697374 
 1306      65724D61 
 1306      736B2228 
 1307 0016 0000     		.space	2
 1308              	.LC1:
 1309 0018 22636845 		.ascii	"\"chEvtUnregister\"()\000"
 1309      7674556E 
 1309      72656769 
 1309      73746572 
 1309      22282900 
 1310              	.LC2:
 1311 002c 22636845 		.ascii	"\"chEvtSignalI\"()\000"
 1311      76745369 
 1311      676E616C 
 1311      49222829 
 1311      00
 1312 003d 000000   		.space	3
 1313              	.LC3:
 1314 0040 22636845 		.ascii	"\"chEvtSignal\"()\000"
 1314      76745369 
 1314      676E616C 
 1314      22282900 
 1315              	.LC4:
 1316 0050 22636845 		.ascii	"\"chEvtBroadcastMaskI\"()\000"
 1316      76744272 
 1316      6F616463 
 1316      6173744D 
 1316      61736B49 
 1317              	.LC5:
 1318 0068 22636845 		.ascii	"\"chEvtDispatch\"()\000"
 1318      76744469 
 1318      73706174 
 1318      63682228 
 1318      2900
 1319 007a 0000     		.space	2
 1320              	.LC6:
 1321 007c 63684576 		.ascii	"chEvtDispatch(), #1\000"
 1321      74446973 
 1321      70617463 
 1321      6828292C 
 1321      20233100 
 1322              		.text
 1323              	.Letext0:
 1324              		.file 2 "/usr/bin/../lib/gcc/arm-none-eabi/4.7.4/../../../../arm-none-eabi/include/stdint.h"
 1325              		.file 3 "../../os/ports/GCC/ARMCMx/chtypes.h"
 1326              		.file 4 "../../os/kernel/include/chlists.h"
 1327              		.file 5 "../../os/kernel/include/chthreads.h"
 1328              		.file 6 "../../os/ports/GCC/ARMCMx/chcore_v7m.h"
 1329              		.file 7 "../../os/kernel/include/chschd.h"
 1330              		.file 8 "../../os/kernel/include/chmtx.h"
 1331              		.file 9 "../../os/kernel/include/chevents.h"
 1332              		.file 10 "../../os/kernel/include/chdebug.h"