ARM GAS  /tmp/cc2dNRNq.s 			page 1


   1              		.syntax unified
   2              		.cpu cortex-m3
   3              		.fpu softvfp
   4              		.eabi_attribute 20, 1
   5              		.eabi_attribute 21, 1
   6              		.eabi_attribute 23, 3
   7              		.eabi_attribute 24, 1
   8              		.eabi_attribute 25, 1
   9              		.eabi_attribute 26, 1
  10              		.eabi_attribute 30, 2
  11              		.eabi_attribute 34, 1
  12              		.eabi_attribute 18, 4
  13              		.thumb
  14              		.file	"chevents.c"
  15              		.text
  16              	.Ltext0:
  17              		.cfi_sections	.debug_frame
  18              		.section	.text.chEvtRegisterMask,"ax",%progbits
  19              		.align	2
  20              		.p2align 4,,15
  21              		.global	chEvtRegisterMask
  22              		.thumb
  23              		.thumb_func
  24              		.type	chEvtRegisterMask, %function
  25              	chEvtRegisterMask:
  26              	.LFB7:
  27              		.file 1 "../../os/kernel/src/chevents.c"
  28              		.loc 1 82 0
  29              		.cfi_startproc
  30              		@ args = 0, pretend = 0, frame = 0
  31              		@ frame_needed = 0, uses_anonymous_args = 0
  32              	.LVL0:
  33 0000 70B5     		push	{r4, r5, r6, lr}
  34              	.LCFI0:
  35              		.cfi_def_cfa_offset 16
  36              		.cfi_offset 4, -16
  37              		.cfi_offset 5, -12
  38              		.cfi_offset 6, -8
  39              		.cfi_offset 14, -4
  40              		.loc 1 84 0
  41 0002 0546     		mov	r5, r0
  42              		.loc 1 82 0
  43 0004 0C46     		mov	r4, r1
  44 0006 1646     		mov	r6, r2
  45              		.loc 1 84 0
  46 0008 90B1     		cbz	r0, .L2
  47              		.loc 1 84 0 is_stmt 0 discriminator 2
  48 000a 89B1     		cbz	r1, .L2
  49              	.LVL1:
  50              	.L3:
  51              	.LBB2:
  52              		.loc 1 86 0 is_stmt 1
  53 000c 2023     		movs	r3, #32
  54              	.LVL2:
  55              	@ 86 "../../os/kernel/src/chevents.c" 1
  56 000e 83F31188 		msr     BASEPRI, r3
  57              	@ 0 "" 2
ARM GAS  /tmp/cc2dNRNq.s 			page 2


  58              	.LVL3:
  59              		.thumb
  60              	.LBE2:
  61 0012 FFF7FEFF 		bl	dbg_check_lock
  62              	.LVL4:
  63              		.loc 1 89 0
  64 0016 084B     		ldr	r3, .L8
  65              		.loc 1 87 0
  66 0018 2A68     		ldr	r2, [r5, #0]
  67              		.loc 1 89 0
  68 001a D869     		ldr	r0, [r3, #28]
  69              		.loc 1 87 0
  70 001c 2260     		str	r2, [r4, #0]
  71              		.loc 1 88 0
  72 001e 2C60     		str	r4, [r5, #0]
  73              		.loc 1 89 0
  74 0020 6060     		str	r0, [r4, #4]
  75              		.loc 1 90 0
  76 0022 A660     		str	r6, [r4, #8]
  77              		.loc 1 91 0
  78 0024 FFF7FEFF 		bl	dbg_check_unlock
  79              	.LVL5:
  80              	.LBB3:
  81 0028 0023     		movs	r3, #0
  82              	.LVL6:
  83              	@ 91 "../../os/kernel/src/chevents.c" 1
  84 002a 83F31188 		msr     BASEPRI, r3
  85              	@ 0 "" 2
  86              	.LVL7:
  87              		.thumb
  88 002e 70BD     		pop	{r4, r5, r6, pc}
  89              	.LVL8:
  90              	.L2:
  91              	.LBE3:
  92              		.loc 1 84 0 discriminator 1
  93 0030 0248     		ldr	r0, .L8+4
  94              	.LVL9:
  95 0032 FFF7FEFF 		bl	chDbgPanic
  96              	.LVL10:
  97 0036 E9E7     		b	.L3
  98              	.L9:
  99              		.align	2
 100              	.L8:
 101 0038 00000000 		.word	rlist
 102 003c 00000000 		.word	.LC0
 103              		.cfi_endproc
 104              	.LFE7:
 105              		.size	chEvtRegisterMask, .-chEvtRegisterMask
 106              		.section	.text.chEvtUnregister,"ax",%progbits
 107              		.align	2
 108              		.p2align 4,,15
 109              		.global	chEvtUnregister
 110              		.thumb
 111              		.thumb_func
 112              		.type	chEvtUnregister, %function
 113              	chEvtUnregister:
 114              	.LFB8:
ARM GAS  /tmp/cc2dNRNq.s 			page 3


 115              		.loc 1 107 0
 116              		.cfi_startproc
 117              		@ args = 0, pretend = 0, frame = 0
 118              		@ frame_needed = 0, uses_anonymous_args = 0
 119              	.LVL11:
 120 0000 38B5     		push	{r3, r4, r5, lr}
 121              	.LCFI1:
 122              		.cfi_def_cfa_offset 16
 123              		.cfi_offset 3, -16
 124              		.cfi_offset 4, -12
 125              		.cfi_offset 5, -8
 126              		.cfi_offset 14, -4
 127              		.loc 1 110 0
 128 0002 0446     		mov	r4, r0
 129              		.loc 1 107 0
 130 0004 0D46     		mov	r5, r1
 131              		.loc 1 110 0
 132 0006 A8B1     		cbz	r0, .L11
 133              		.loc 1 110 0 is_stmt 0 discriminator 2
 134 0008 A1B1     		cbz	r1, .L11
 135              	.LVL12:
 136              	.L12:
 137              	.LBB4:
 138              		.loc 1 113 0 is_stmt 1
 139 000a 2023     		movs	r3, #32
 140              	.LVL13:
 141              	@ 113 "../../os/kernel/src/chevents.c" 1
 142 000c 83F31188 		msr     BASEPRI, r3
 143              	@ 0 "" 2
 144              	.LVL14:
 145              		.thumb
 146              	.LBE4:
 147 0010 FFF7FEFF 		bl	dbg_check_lock
 148              	.LVL15:
 149              		.loc 1 114 0
 150 0014 2246     		mov	r2, r4
 151 0016 00E0     		b	.L13
 152              	.LVL16:
 153              	.L16:
 154              		.loc 1 115 0
 155 0018 1A46     		mov	r2, r3
 156              	.LVL17:
 157              	.L13:
 158              		.loc 1 114 0 discriminator 1
 159 001a 1368     		ldr	r3, [r2, #0]
 160 001c A342     		cmp	r3, r4
 161 001e 03D0     		beq	.L14
 162              		.loc 1 115 0
 163 0020 9D42     		cmp	r5, r3
 164 0022 F9D1     		bne	.L16
 165              		.loc 1 116 0
 166 0024 2868     		ldr	r0, [r5, #0]
 167 0026 1060     		str	r0, [r2, #0]
 168              	.L14:
 169              		.loc 1 121 0
 170 0028 FFF7FEFF 		bl	dbg_check_unlock
 171              	.LVL18:
ARM GAS  /tmp/cc2dNRNq.s 			page 4


 172              	.LBB5:
 173 002c 0023     		movs	r3, #0
 174              	.LVL19:
 175              	@ 121 "../../os/kernel/src/chevents.c" 1
 176 002e 83F31188 		msr     BASEPRI, r3
 177              	@ 0 "" 2
 178              	.LVL20:
 179              		.thumb
 180 0032 38BD     		pop	{r3, r4, r5, pc}
 181              	.LVL21:
 182              	.L11:
 183              	.LBE5:
 184              		.loc 1 110 0 discriminator 1
 185 0034 0148     		ldr	r0, .L20
 186              	.LVL22:
 187 0036 FFF7FEFF 		bl	chDbgPanic
 188              	.LVL23:
 189 003a E6E7     		b	.L12
 190              	.L21:
 191              		.align	2
 192              	.L20:
 193 003c 18000000 		.word	.LC1
 194              		.cfi_endproc
 195              	.LFE8:
 196              		.size	chEvtUnregister, .-chEvtUnregister
 197              		.section	.text.chEvtClearFlags,"ax",%progbits
 198              		.align	2
 199              		.p2align 4,,15
 200              		.global	chEvtClearFlags
 201              		.thumb
 202              		.thumb_func
 203              		.type	chEvtClearFlags, %function
 204              	chEvtClearFlags:
 205              	.LFB9:
 206              		.loc 1 132 0
 207              		.cfi_startproc
 208              		@ args = 0, pretend = 0, frame = 0
 209              		@ frame_needed = 0, uses_anonymous_args = 0
 210              	.LVL24:
 211 0000 10B5     		push	{r4, lr}
 212              	.LCFI2:
 213              		.cfi_def_cfa_offset 8
 214              		.cfi_offset 4, -8
 215              		.cfi_offset 14, -4
 216              	.LBB6:
 217              		.loc 1 135 0
 218 0002 2023     		movs	r3, #32
 219              	.LVL25:
 220              	.LBE6:
 221              		.loc 1 132 0
 222 0004 0446     		mov	r4, r0
 223              	.LBB7:
 224              		.loc 1 135 0
 225              	@ 135 "../../os/kernel/src/chevents.c" 1
 226 0006 83F31188 		msr     BASEPRI, r3
 227              	@ 0 "" 2
 228              	.LVL26:
ARM GAS  /tmp/cc2dNRNq.s 			page 5


 229              		.thumb
 230              	.LBE7:
 231 000a FFF7FEFF 		bl	dbg_check_lock
 232              	.LVL27:
 233              		.loc 1 137 0
 234 000e 40F20003 		movw	r3, #:lower16:rlist
 235 0012 C0F20003 		movt	r3, #:upper16:rlist
 236 0016 D969     		ldr	r1, [r3, #28]
 237 0018 C86B     		ldr	r0, [r1, #60]
 238              		.loc 1 138 0
 239 001a 20EA0402 		bic	r2, r0, r4
 240 001e CA63     		str	r2, [r1, #60]
 241              		.loc 1 137 0
 242 0020 0440     		ands	r4, r4, r0
 243              	.LVL28:
 244              		.loc 1 140 0
 245 0022 FFF7FEFF 		bl	dbg_check_unlock
 246              	.LVL29:
 247              	.LBB8:
 248 0026 0023     		movs	r3, #0
 249              	.LVL30:
 250              	@ 140 "../../os/kernel/src/chevents.c" 1
 251 0028 83F31188 		msr     BASEPRI, r3
 252              	@ 0 "" 2
 253              	.LVL31:
 254              		.thumb
 255              	.LBE8:
 256              		.loc 1 142 0
 257 002c 2046     		mov	r0, r4
 258 002e 10BD     		pop	{r4, pc}
 259              		.cfi_endproc
 260              	.LFE9:
 261              		.size	chEvtClearFlags, .-chEvtClearFlags
 262              		.section	.text.chEvtAddFlags,"ax",%progbits
 263              		.align	2
 264              		.p2align 4,,15
 265              		.global	chEvtAddFlags
 266              		.thumb
 267              		.thumb_func
 268              		.type	chEvtAddFlags, %function
 269              	chEvtAddFlags:
 270              	.LFB10:
 271              		.loc 1 153 0
 272              		.cfi_startproc
 273              		@ args = 0, pretend = 0, frame = 0
 274              		@ frame_needed = 0, uses_anonymous_args = 0
 275              	.LVL32:
 276 0000 10B5     		push	{r4, lr}
 277              	.LCFI3:
 278              		.cfi_def_cfa_offset 8
 279              		.cfi_offset 4, -8
 280              		.cfi_offset 14, -4
 281              	.LBB9:
 282              		.loc 1 155 0
 283 0002 2023     		movs	r3, #32
 284              	.LVL33:
 285              	.LBE9:
ARM GAS  /tmp/cc2dNRNq.s 			page 6


 286              		.loc 1 153 0
 287 0004 0446     		mov	r4, r0
 288              	.LBB10:
 289              		.loc 1 155 0
 290              	@ 155 "../../os/kernel/src/chevents.c" 1
 291 0006 83F31188 		msr     BASEPRI, r3
 292              	@ 0 "" 2
 293              	.LVL34:
 294              		.thumb
 295              	.LBE10:
 296 000a FFF7FEFF 		bl	dbg_check_lock
 297              	.LVL35:
 298              		.loc 1 157 0
 299 000e 40F20003 		movw	r3, #:lower16:rlist
 300 0012 C0F20003 		movt	r3, #:upper16:rlist
 301 0016 D869     		ldr	r0, [r3, #28]
 302 0018 C26B     		ldr	r2, [r0, #60]
 303 001a 1443     		orrs	r4, r4, r2
 304              	.LVL36:
 305 001c C463     		str	r4, [r0, #60]
 306              	.LVL37:
 307              		.loc 1 159 0
 308 001e FFF7FEFF 		bl	dbg_check_unlock
 309              	.LVL38:
 310              	.LBB11:
 311 0022 0023     		movs	r3, #0
 312              	.LVL39:
 313              	@ 159 "../../os/kernel/src/chevents.c" 1
 314 0024 83F31188 		msr     BASEPRI, r3
 315              	@ 0 "" 2
 316              	.LVL40:
 317              		.thumb
 318              	.LBE11:
 319              		.loc 1 161 0
 320 0028 2046     		mov	r0, r4
 321 002a 10BD     		pop	{r4, pc}
 322              		.cfi_endproc
 323              	.LFE10:
 324              		.size	chEvtAddFlags, .-chEvtAddFlags
 325 002c AFF30080 		.section	.text.chEvtSignalFlagsI,"ax",%progbits
 326              		.align	2
 327              		.p2align 4,,15
 328              		.global	chEvtSignalFlagsI
 329              		.thumb
 330              		.thumb_func
 331              		.type	chEvtSignalFlagsI, %function
 332              	chEvtSignalFlagsI:
 333              	.LFB12:
 334              		.loc 1 193 0
 335              		.cfi_startproc
 336              		@ args = 0, pretend = 0, frame = 0
 337              		@ frame_needed = 0, uses_anonymous_args = 0
 338              	.LVL41:
 339 0000 38B5     		push	{r3, r4, r5, lr}
 340              	.LCFI4:
 341              		.cfi_def_cfa_offset 16
 342              		.cfi_offset 3, -16
ARM GAS  /tmp/cc2dNRNq.s 			page 7


 343              		.cfi_offset 4, -12
 344              		.cfi_offset 5, -8
 345              		.cfi_offset 14, -4
 346              		.loc 1 193 0
 347 0002 0446     		mov	r4, r0
 348 0004 0D46     		mov	r5, r1
 349              		.loc 1 195 0
 350 0006 FFF7FEFF 		bl	chDbgCheckClassI
 351              	.LVL42:
 352              		.loc 1 196 0
 353 000a C4B1     		cbz	r4, .L29
 354              	.L25:
 355              		.loc 1 198 0
 356 000c E26B     		ldr	r2, [r4, #60]
 357              		.loc 1 200 0
 358 000e 94F82030 		ldrb	r3, [r4, #32]	@ zero_extendqisi2
 359              		.loc 1 198 0
 360 0012 45EA0201 		orr	r1, r5, r2
 361              		.loc 1 200 0
 362 0016 082B     		cmp	r3, #8
 363              		.loc 1 198 0
 364 0018 E163     		str	r1, [r4, #60]
 365              		.loc 1 200 0
 366 001a 0CD0     		beq	.L30
 367              		.loc 1 201 0
 368 001c 092B     		cmp	r3, #9
 369 001e 00D0     		beq	.L31
 370              	.L24:
 371 0020 38BD     		pop	{r3, r4, r5, pc}
 372              	.L31:
 373              		.loc 1 203 0
 374 0022 A06A     		ldr	r0, [r4, #40]
 375 0024 0140     		ands	r1, r1, r0
 376              		.loc 1 202 0
 377 0026 8842     		cmp	r0, r1
 378 0028 FAD1     		bne	.L24
 379              	.L27:
 380              	.LVL43:
 381              	.LBB14:
 382              	.LBB15:
 383              		.loc 1 204 0
 384 002a 2046     		mov	r0, r4
 385 002c FFF7FEFF 		bl	chSchReadyI
 386              	.LVL44:
 387 0030 0023     		movs	r3, #0
 388 0032 8362     		str	r3, [r0, #40]
 389 0034 38BD     		pop	{r3, r4, r5, pc}
 390              	.LVL45:
 391              	.L30:
 392              	.LBE15:
 393              	.LBE14:
 394              		.loc 1 201 0 discriminator 1
 395 0036 A26A     		ldr	r2, [r4, #40]
 396              		.loc 1 200 0 discriminator 1
 397 0038 1142     		tst	r1, r2
 398 003a F6D1     		bne	.L27
 399 003c 38BD     		pop	{r3, r4, r5, pc}
ARM GAS  /tmp/cc2dNRNq.s 			page 8


 400              	.L29:
 401              		.loc 1 196 0 discriminator 1
 402 003e 0248     		ldr	r0, .L32
 403 0040 FFF7FEFF 		bl	chDbgPanic
 404              	.LVL46:
 405 0044 E2E7     		b	.L25
 406              	.L33:
 407 0046 00BF     		.align	2
 408              	.L32:
 409 0048 2C000000 		.word	.LC2
 410              		.cfi_endproc
 411              	.LFE12:
 412              		.size	chEvtSignalFlagsI, .-chEvtSignalFlagsI
 413 004c AFF30080 		.section	.text.chEvtSignalFlags,"ax",%progbits
 414              		.align	2
 415              		.p2align 4,,15
 416              		.global	chEvtSignalFlags
 417              		.thumb
 418              		.thumb_func
 419              		.type	chEvtSignalFlags, %function
 420              	chEvtSignalFlags:
 421              	.LFB11:
 422              		.loc 1 171 0
 423              		.cfi_startproc
 424              		@ args = 0, pretend = 0, frame = 0
 425              		@ frame_needed = 0, uses_anonymous_args = 0
 426              	.LVL47:
 427 0000 38B5     		push	{r3, r4, r5, lr}
 428              	.LCFI5:
 429              		.cfi_def_cfa_offset 16
 430              		.cfi_offset 3, -16
 431              		.cfi_offset 4, -12
 432              		.cfi_offset 5, -8
 433              		.cfi_offset 14, -4
 434              		.loc 1 173 0
 435 0002 0446     		mov	r4, r0
 436              		.loc 1 171 0
 437 0004 0D46     		mov	r5, r1
 438              		.loc 1 173 0
 439 0006 80B1     		cbz	r0, .L36
 440              	.LVL48:
 441              	.L35:
 442              	.LBB16:
 443              		.loc 1 175 0
 444 0008 2023     		movs	r3, #32
 445              	.LVL49:
 446              	@ 175 "../../os/kernel/src/chevents.c" 1
 447 000a 83F31188 		msr     BASEPRI, r3
 448              	@ 0 "" 2
 449              	.LVL50:
 450              		.thumb
 451              	.LBE16:
 452 000e FFF7FEFF 		bl	dbg_check_lock
 453              	.LVL51:
 454              		.loc 1 176 0
 455 0012 2046     		mov	r0, r4
 456 0014 2946     		mov	r1, r5
ARM GAS  /tmp/cc2dNRNq.s 			page 9


 457 0016 FFF7FEFF 		bl	chEvtSignalFlagsI
 458              	.LVL52:
 459              		.loc 1 177 0
 460 001a FFF7FEFF 		bl	chSchRescheduleS
 461              	.LVL53:
 462              		.loc 1 178 0
 463 001e FFF7FEFF 		bl	dbg_check_unlock
 464              	.LVL54:
 465              	.LBB17:
 466 0022 0023     		movs	r3, #0
 467              	.LVL55:
 468              	@ 178 "../../os/kernel/src/chevents.c" 1
 469 0024 83F31188 		msr     BASEPRI, r3
 470              	@ 0 "" 2
 471              	.LVL56:
 472              		.thumb
 473 0028 38BD     		pop	{r3, r4, r5, pc}
 474              	.LVL57:
 475              	.L36:
 476              	.LBE17:
 477              		.loc 1 173 0 discriminator 1
 478 002a 0248     		ldr	r0, .L37
 479              	.LVL58:
 480 002c FFF7FEFF 		bl	chDbgPanic
 481              	.LVL59:
 482 0030 EAE7     		b	.L35
 483              	.L38:
 484 0032 00BF     		.align	2
 485              	.L37:
 486 0034 40000000 		.word	.LC3
 487              		.cfi_endproc
 488              	.LFE11:
 489              		.size	chEvtSignalFlags, .-chEvtSignalFlags
 490 0038 AFF30080 		.section	.text.chEvtBroadcastFlagsI,"ax",%progbits
 490      AFF30080 
 491              		.align	2
 492              		.p2align 4,,15
 493              		.global	chEvtBroadcastFlagsI
 494              		.thumb
 495              		.thumb_func
 496              		.type	chEvtBroadcastFlagsI, %function
 497              	chEvtBroadcastFlagsI:
 498              	.LFB14:
 499              		.loc 1 245 0
 500              		.cfi_startproc
 501              		@ args = 0, pretend = 0, frame = 0
 502              		@ frame_needed = 0, uses_anonymous_args = 0
 503              	.LVL60:
 504 0000 70B5     		push	{r4, r5, r6, lr}
 505              	.LCFI6:
 506              		.cfi_def_cfa_offset 16
 507              		.cfi_offset 4, -16
 508              		.cfi_offset 5, -12
 509              		.cfi_offset 6, -8
 510              		.cfi_offset 14, -4
 511              		.loc 1 245 0
 512 0002 0546     		mov	r5, r0
ARM GAS  /tmp/cc2dNRNq.s 			page 10


 513 0004 0E46     		mov	r6, r1
 514              		.loc 1 248 0
 515 0006 FFF7FEFF 		bl	chDbgCheckClassI
 516              	.LVL61:
 517              		.loc 1 249 0
 518 000a 5DB1     		cbz	r5, .L46
 519              	.L40:
 520              		.loc 1 251 0
 521 000c 2C68     		ldr	r4, [r5, #0]
 522              	.LVL62:
 523              		.loc 1 252 0
 524 000e A542     		cmp	r5, r4
 525 0010 07D0     		beq	.L39
 526              	.L44:
 527              		.loc 1 253 0
 528 0012 A168     		ldr	r1, [r4, #8]
 529 0014 6068     		ldr	r0, [r4, #4]
 530 0016 3143     		orrs	r1, r1, r6
 531 0018 FFF7FEFF 		bl	chEvtSignalFlagsI
 532              	.LVL63:
 533              		.loc 1 254 0
 534 001c 2468     		ldr	r4, [r4, #0]
 535              	.LVL64:
 536              		.loc 1 252 0
 537 001e A542     		cmp	r5, r4
 538 0020 F7D1     		bne	.L44
 539              	.L39:
 540 0022 70BD     		pop	{r4, r5, r6, pc}
 541              	.LVL65:
 542              	.L46:
 543              		.loc 1 249 0 discriminator 1
 544 0024 0148     		ldr	r0, .L47
 545 0026 FFF7FEFF 		bl	chDbgPanic
 546              	.LVL66:
 547 002a EFE7     		b	.L40
 548              	.L48:
 549              		.align	2
 550              	.L47:
 551 002c 50000000 		.word	.LC4
 552              		.cfi_endproc
 553              	.LFE14:
 554              		.size	chEvtBroadcastFlagsI, .-chEvtBroadcastFlagsI
 555              		.section	.text.chEvtBroadcastFlags,"ax",%progbits
 556              		.align	2
 557              		.p2align 4,,15
 558              		.global	chEvtBroadcastFlags
 559              		.thumb
 560              		.thumb_func
 561              		.type	chEvtBroadcastFlags, %function
 562              	chEvtBroadcastFlags:
 563              	.LFB13:
 564              		.loc 1 220 0
 565              		.cfi_startproc
 566              		@ args = 0, pretend = 0, frame = 0
 567              		@ frame_needed = 0, uses_anonymous_args = 0
 568              	.LVL67:
 569 0000 38B5     		push	{r3, r4, r5, lr}
ARM GAS  /tmp/cc2dNRNq.s 			page 11


 570              	.LCFI7:
 571              		.cfi_def_cfa_offset 16
 572              		.cfi_offset 3, -16
 573              		.cfi_offset 4, -12
 574              		.cfi_offset 5, -8
 575              		.cfi_offset 14, -4
 576              		.loc 1 220 0
 577 0002 0546     		mov	r5, r0
 578 0004 0C46     		mov	r4, r1
 579              	.LBB18:
 580              		.loc 1 222 0
 581 0006 2023     		movs	r3, #32
 582              	.LVL68:
 583              	@ 222 "../../os/kernel/src/chevents.c" 1
 584 0008 83F31188 		msr     BASEPRI, r3
 585              	@ 0 "" 2
 586              	.LVL69:
 587              		.thumb
 588              	.LBE18:
 589 000c FFF7FEFF 		bl	dbg_check_lock
 590              	.LVL70:
 591              		.loc 1 223 0
 592 0010 2846     		mov	r0, r5
 593 0012 2146     		mov	r1, r4
 594 0014 FFF7FEFF 		bl	chEvtBroadcastFlagsI
 595              	.LVL71:
 596              		.loc 1 224 0
 597 0018 FFF7FEFF 		bl	chSchRescheduleS
 598              	.LVL72:
 599              		.loc 1 225 0
 600 001c FFF7FEFF 		bl	dbg_check_unlock
 601              	.LVL73:
 602              	.LBB19:
 603 0020 0023     		movs	r3, #0
 604              	.LVL74:
 605              	@ 225 "../../os/kernel/src/chevents.c" 1
 606 0022 83F31188 		msr     BASEPRI, r3
 607              	@ 0 "" 2
 608              	.LVL75:
 609              		.thumb
 610 0026 38BD     		pop	{r3, r4, r5, pc}
 611              	.LBE19:
 612              		.cfi_endproc
 613              	.LFE13:
 614              		.size	chEvtBroadcastFlags, .-chEvtBroadcastFlags
 615 0028 AFF30080 		.section	.text.chEvtDispatch,"ax",%progbits
 615      AFF30080 
 616              		.align	2
 617              		.p2align 4,,15
 618              		.global	chEvtDispatch
 619              		.thumb
 620              		.thumb_func
 621              		.type	chEvtDispatch, %function
 622              	chEvtDispatch:
 623              	.LFB15:
 624              		.loc 1 267 0
 625              		.cfi_startproc
ARM GAS  /tmp/cc2dNRNq.s 			page 12


 626              		@ args = 0, pretend = 0, frame = 0
 627              		@ frame_needed = 0, uses_anonymous_args = 0
 628              	.LVL76:
 629 0000 2DE9F041 		push	{r4, r5, r6, r7, r8, lr}
 630              	.LCFI8:
 631              		.cfi_def_cfa_offset 24
 632              		.cfi_offset 4, -24
 633              		.cfi_offset 5, -20
 634              		.cfi_offset 6, -16
 635              		.cfi_offset 7, -12
 636              		.cfi_offset 8, -8
 637              		.cfi_offset 14, -4
 638              		.loc 1 270 0
 639 0004 8046     		mov	r8, r0
 640              		.loc 1 267 0
 641 0006 0D46     		mov	r5, r1
 642              		.loc 1 270 0
 643 0008 D0B1     		cbz	r0, .L61
 644              	.LVL77:
 645              	.L51:
 646              		.loc 1 273 0 discriminator 1
 647 000a 8DB1     		cbz	r5, .L50
 648              		.loc 1 273 0 is_stmt 0
 649 000c 0026     		movs	r6, #0
 650 000e 3446     		mov	r4, r6
 651              		.loc 1 274 0 is_stmt 1
 652 0010 0127     		movs	r7, #1
 653              	.LVL78:
 654              	.L52:
 655 0012 07FA04F3 		lsl	r3, r7, r4
 656 0016 2B42     		tst	r3, r5
 657 0018 06D0     		beq	.L53
 658              		.loc 1 275 0
 659 001a 58F80610 		ldr	r1, [r8, r6]
 660              		.loc 1 278 0
 661 001e 25EA0305 		bic	r5, r5, r3
 662              	.LVL79:
 663              		.loc 1 275 0
 664 0022 39B1     		cbz	r1, .L62
 665              	.L54:
 666              	.LVL80:
 667              		.loc 1 279 0
 668 0024 2046     		mov	r0, r4
 669 0026 8847     		blx	r1
 670              	.LVL81:
 671              	.L53:
 672              		.loc 1 281 0
 673 0028 0134     		adds	r4, r4, #1
 674              	.LVL82:
 675 002a 0436     		adds	r6, r6, #4
 676              		.loc 1 273 0
 677 002c 002D     		cmp	r5, #0
 678 002e F0D1     		bne	.L52
 679              	.LVL83:
 680              	.L50:
 681 0030 BDE8F081 		pop	{r4, r5, r6, r7, r8, pc}
 682              	.LVL84:
ARM GAS  /tmp/cc2dNRNq.s 			page 13


 683              	.L62:
 684              		.loc 1 275 0 discriminator 1
 685 0034 0448     		ldr	r0, .L63
 686 0036 FFF7FEFF 		bl	chDbgPanic
 687              	.LVL85:
 688 003a 58F80610 		ldr	r1, [r8, r6]
 689 003e F1E7     		b	.L54
 690              	.LVL86:
 691              	.L61:
 692              		.loc 1 270 0 discriminator 1
 693 0040 0248     		ldr	r0, .L63+4
 694              	.LVL87:
 695 0042 FFF7FEFF 		bl	chDbgPanic
 696              	.LVL88:
 697 0046 E0E7     		b	.L51
 698              	.L64:
 699              		.align	2
 700              	.L63:
 701 0048 7C000000 		.word	.LC6
 702 004c 68000000 		.word	.LC5
 703              		.cfi_endproc
 704              	.LFE15:
 705              		.size	chEvtDispatch, .-chEvtDispatch
 706              		.section	.text.chEvtWaitOne,"ax",%progbits
 707              		.align	2
 708              		.p2align 4,,15
 709              		.global	chEvtWaitOne
 710              		.thumb
 711              		.thumb_func
 712              		.type	chEvtWaitOne, %function
 713              	chEvtWaitOne:
 714              	.LFB16:
 715              		.loc 1 302 0
 716              		.cfi_startproc
 717              		@ args = 0, pretend = 0, frame = 0
 718              		@ frame_needed = 0, uses_anonymous_args = 0
 719              	.LVL89:
 720 0000 38B5     		push	{r3, r4, r5, lr}
 721              	.LCFI9:
 722              		.cfi_def_cfa_offset 16
 723              		.cfi_offset 3, -16
 724              		.cfi_offset 4, -12
 725              		.cfi_offset 5, -8
 726              		.cfi_offset 14, -4
 727              		.loc 1 303 0
 728 0002 0F4B     		ldr	r3, .L67
 729              		.loc 1 302 0
 730 0004 0446     		mov	r4, r0
 731              		.loc 1 303 0
 732 0006 DD69     		ldr	r5, [r3, #28]
 733              	.LVL90:
 734              	.LBB20:
 735              		.loc 1 306 0
 736 0008 2023     		movs	r3, #32
 737              	.LVL91:
 738              	@ 306 "../../os/kernel/src/chevents.c" 1
 739 000a 83F31188 		msr     BASEPRI, r3
ARM GAS  /tmp/cc2dNRNq.s 			page 14


 740              	@ 0 "" 2
 741              	.LVL92:
 742              		.thumb
 743              	.LBE20:
 744 000e FFF7FEFF 		bl	dbg_check_lock
 745              	.LVL93:
 746              		.loc 1 308 0
 747 0012 E86B     		ldr	r0, [r5, #60]
 748              	.LVL94:
 749 0014 14EA0002 		ands	r2, r4, r0
 750              	.LVL95:
 751 0018 06D1     		bne	.L66
 752              		.loc 1 310 0
 753 001a 0820     		movs	r0, #8
 754              		.loc 1 309 0
 755 001c AC62     		str	r4, [r5, #40]
 756              		.loc 1 310 0
 757 001e FFF7FEFF 		bl	chSchGoSleepS
 758              	.LVL96:
 759              		.loc 1 311 0
 760 0022 E86B     		ldr	r0, [r5, #60]
 761 0024 04EA0002 		and	r2, r4, r0
 762              	.LVL97:
 763              	.L66:
 764              		.loc 1 313 0
 765 0028 5442     		negs	r4, r2
 766              	.LVL98:
 767 002a 1440     		ands	r4, r4, r2
 768              	.LVL99:
 769              		.loc 1 314 0
 770 002c 20EA0400 		bic	r0, r0, r4
 771 0030 E863     		str	r0, [r5, #60]
 772              		.loc 1 316 0
 773 0032 FFF7FEFF 		bl	dbg_check_unlock
 774              	.LVL100:
 775              	.LBB21:
 776 0036 0023     		movs	r3, #0
 777              	.LVL101:
 778              	@ 316 "../../os/kernel/src/chevents.c" 1
 779 0038 83F31188 		msr     BASEPRI, r3
 780              	@ 0 "" 2
 781              	.LVL102:
 782              		.thumb
 783              	.LBE21:
 784              		.loc 1 318 0
 785 003c 2046     		mov	r0, r4
 786 003e 38BD     		pop	{r3, r4, r5, pc}
 787              	.L68:
 788              		.align	2
 789              	.L67:
 790 0040 00000000 		.word	rlist
 791              		.cfi_endproc
 792              	.LFE16:
 793              		.size	chEvtWaitOne, .-chEvtWaitOne
 794 0044 AFF30080 		.section	.text.chEvtWaitAny,"ax",%progbits
 794      AFF30080 
 794      AFF30080 
ARM GAS  /tmp/cc2dNRNq.s 			page 15


 795              		.align	2
 796              		.p2align 4,,15
 797              		.global	chEvtWaitAny
 798              		.thumb
 799              		.thumb_func
 800              		.type	chEvtWaitAny, %function
 801              	chEvtWaitAny:
 802              	.LFB17:
 803              		.loc 1 331 0
 804              		.cfi_startproc
 805              		@ args = 0, pretend = 0, frame = 0
 806              		@ frame_needed = 0, uses_anonymous_args = 0
 807              	.LVL103:
 808              		.loc 1 332 0
 809 0000 0E4B     		ldr	r3, .L71
 810              		.loc 1 331 0
 811 0002 70B5     		push	{r4, r5, r6, lr}
 812              	.LCFI10:
 813              		.cfi_def_cfa_offset 16
 814              		.cfi_offset 4, -16
 815              		.cfi_offset 5, -12
 816              		.cfi_offset 6, -8
 817              		.cfi_offset 14, -4
 818              		.loc 1 332 0
 819 0004 DD69     		ldr	r5, [r3, #28]
 820              	.LVL104:
 821              		.loc 1 331 0
 822 0006 0446     		mov	r4, r0
 823              	.LBB22:
 824              		.loc 1 335 0
 825 0008 2023     		movs	r3, #32
 826              	.LVL105:
 827              	@ 335 "../../os/kernel/src/chevents.c" 1
 828 000a 83F31188 		msr     BASEPRI, r3
 829              	@ 0 "" 2
 830              	.LVL106:
 831              		.thumb
 832              	.LBE22:
 833 000e FFF7FEFF 		bl	dbg_check_lock
 834              	.LVL107:
 835              		.loc 1 337 0
 836 0012 E86B     		ldr	r0, [r5, #60]
 837              	.LVL108:
 838 0014 14EA0006 		ands	r6, r4, r0
 839              	.LVL109:
 840 0018 06D1     		bne	.L70
 841              		.loc 1 339 0
 842 001a 0820     		movs	r0, #8
 843              		.loc 1 338 0
 844 001c AC62     		str	r4, [r5, #40]
 845              		.loc 1 339 0
 846 001e FFF7FEFF 		bl	chSchGoSleepS
 847              	.LVL110:
 848              		.loc 1 340 0
 849 0022 E86B     		ldr	r0, [r5, #60]
 850 0024 04EA0006 		and	r6, r4, r0
 851              	.LVL111:
ARM GAS  /tmp/cc2dNRNq.s 			page 16


 852              	.L70:
 853              		.loc 1 342 0
 854 0028 20EA0600 		bic	r0, r0, r6
 855 002c E863     		str	r0, [r5, #60]
 856              		.loc 1 344 0
 857 002e FFF7FEFF 		bl	dbg_check_unlock
 858              	.LVL112:
 859              	.LBB23:
 860 0032 0023     		movs	r3, #0
 861              	.LVL113:
 862              	@ 344 "../../os/kernel/src/chevents.c" 1
 863 0034 83F31188 		msr     BASEPRI, r3
 864              	@ 0 "" 2
 865              	.LVL114:
 866              		.thumb
 867              	.LBE23:
 868              		.loc 1 346 0
 869 0038 3046     		mov	r0, r6
 870 003a 70BD     		pop	{r4, r5, r6, pc}
 871              	.L72:
 872              		.align	2
 873              	.L71:
 874 003c 00000000 		.word	rlist
 875              		.cfi_endproc
 876              	.LFE17:
 877              		.size	chEvtWaitAny, .-chEvtWaitAny
 878              		.section	.text.chEvtWaitAll,"ax",%progbits
 879              		.align	2
 880              		.p2align 4,,15
 881              		.global	chEvtWaitAll
 882              		.thumb
 883              		.thumb_func
 884              		.type	chEvtWaitAll, %function
 885              	chEvtWaitAll:
 886              	.LFB18:
 887              		.loc 1 359 0
 888              		.cfi_startproc
 889              		@ args = 0, pretend = 0, frame = 0
 890              		@ frame_needed = 0, uses_anonymous_args = 0
 891              	.LVL115:
 892 0000 38B5     		push	{r3, r4, r5, lr}
 893              	.LCFI11:
 894              		.cfi_def_cfa_offset 16
 895              		.cfi_offset 3, -16
 896              		.cfi_offset 4, -12
 897              		.cfi_offset 5, -8
 898              		.cfi_offset 14, -4
 899              		.loc 1 360 0
 900 0002 0E4B     		ldr	r3, .L75
 901              		.loc 1 359 0
 902 0004 0446     		mov	r4, r0
 903              		.loc 1 360 0
 904 0006 DD69     		ldr	r5, [r3, #28]
 905              	.LVL116:
 906              	.LBB24:
 907              		.loc 1 362 0
 908 0008 2023     		movs	r3, #32
ARM GAS  /tmp/cc2dNRNq.s 			page 17


 909              	.LVL117:
 910              	@ 362 "../../os/kernel/src/chevents.c" 1
 911 000a 83F31188 		msr     BASEPRI, r3
 912              	@ 0 "" 2
 913              	.LVL118:
 914              		.thumb
 915              	.LBE24:
 916 000e FFF7FEFF 		bl	dbg_check_lock
 917              	.LVL119:
 918              		.loc 1 364 0
 919 0012 E86B     		ldr	r0, [r5, #60]
 920 0014 04EA0002 		and	r2, r4, r0
 921 0018 A242     		cmp	r2, r4
 922 001a 04D0     		beq	.L74
 923              		.loc 1 366 0
 924 001c 0920     		movs	r0, #9
 925              		.loc 1 365 0
 926 001e AC62     		str	r4, [r5, #40]
 927              		.loc 1 366 0
 928 0020 FFF7FEFF 		bl	chSchGoSleepS
 929              	.LVL120:
 930 0024 E86B     		ldr	r0, [r5, #60]
 931              	.L74:
 932              		.loc 1 368 0
 933 0026 20EA0400 		bic	r0, r0, r4
 934 002a E863     		str	r0, [r5, #60]
 935              		.loc 1 370 0
 936 002c FFF7FEFF 		bl	dbg_check_unlock
 937              	.LVL121:
 938              	.LBB25:
 939 0030 0023     		movs	r3, #0
 940              	.LVL122:
 941              	@ 370 "../../os/kernel/src/chevents.c" 1
 942 0032 83F31188 		msr     BASEPRI, r3
 943              	@ 0 "" 2
 944              	.LVL123:
 945              		.thumb
 946              	.LBE25:
 947              		.loc 1 372 0
 948 0036 2046     		mov	r0, r4
 949 0038 38BD     		pop	{r3, r4, r5, pc}
 950              	.L76:
 951 003a 00BF     		.align	2
 952              	.L75:
 953 003c 00000000 		.word	rlist
 954              		.cfi_endproc
 955              	.LFE18:
 956              		.size	chEvtWaitAll, .-chEvtWaitAll
 957              		.section	.text.chEvtWaitOneTimeout,"ax",%progbits
 958              		.align	2
 959              		.p2align 4,,15
 960              		.global	chEvtWaitOneTimeout
 961              		.thumb
 962              		.thumb_func
 963              		.type	chEvtWaitOneTimeout, %function
 964              	chEvtWaitOneTimeout:
 965              	.LFB19:
ARM GAS  /tmp/cc2dNRNq.s 			page 18


 966              		.loc 1 398 0
 967              		.cfi_startproc
 968              		@ args = 0, pretend = 0, frame = 0
 969              		@ frame_needed = 0, uses_anonymous_args = 0
 970              	.LVL124:
 971 0000 F8B5     		push	{r3, r4, r5, r6, r7, lr}
 972              	.LCFI12:
 973              		.cfi_def_cfa_offset 24
 974              		.cfi_offset 3, -24
 975              		.cfi_offset 4, -20
 976              		.cfi_offset 5, -16
 977              		.cfi_offset 6, -12
 978              		.cfi_offset 7, -8
 979              		.cfi_offset 14, -4
 980              		.loc 1 399 0
 981 0002 154B     		ldr	r3, .L83
 982              		.loc 1 398 0
 983 0004 0546     		mov	r5, r0
 984              		.loc 1 399 0
 985 0006 DE69     		ldr	r6, [r3, #28]
 986              	.LVL125:
 987              		.loc 1 398 0
 988 0008 0F46     		mov	r7, r1
 989              	.LBB26:
 990              		.loc 1 402 0
 991 000a 2023     		movs	r3, #32
 992              	.LVL126:
 993              	@ 402 "../../os/kernel/src/chevents.c" 1
 994 000c 83F31188 		msr     BASEPRI, r3
 995              	@ 0 "" 2
 996              	.LVL127:
 997              		.thumb
 998              	.LBE26:
 999 0010 FFF7FEFF 		bl	dbg_check_lock
 1000              	.LVL128:
 1001              		.loc 1 404 0
 1002 0014 F06B     		ldr	r0, [r6, #60]
 1003              	.LVL129:
 1004 0016 15EA0004 		ands	r4, r5, r0
 1005              	.LVL130:
 1006 001a 0AD1     		bne	.L78
 1007              		.loc 1 405 0
 1008 001c AFB1     		cbz	r7, .L82
 1009              		.loc 1 410 0
 1010 001e 0820     		movs	r0, #8
 1011              		.loc 1 409 0
 1012 0020 B562     		str	r5, [r6, #40]
 1013              		.loc 1 410 0
 1014 0022 3946     		mov	r1, r7
 1015 0024 FFF7FEFF 		bl	chSchGoSleepTimeoutS
 1016              	.LVL131:
 1017 0028 0028     		cmp	r0, #0
 1018 002a 0EDB     		blt	.L82
 1019              		.loc 1 414 0
 1020 002c F06B     		ldr	r0, [r6, #60]
 1021 002e 05EA0004 		and	r4, r5, r0
 1022              	.LVL132:
ARM GAS  /tmp/cc2dNRNq.s 			page 19


 1023              	.L78:
 1024              		.loc 1 416 0
 1025 0032 6242     		negs	r2, r4
 1026 0034 1440     		ands	r4, r4, r2
 1027              	.LVL133:
 1028              		.loc 1 417 0
 1029 0036 20EA0400 		bic	r0, r0, r4
 1030 003a F063     		str	r0, [r6, #60]
 1031              		.loc 1 419 0
 1032 003c FFF7FEFF 		bl	dbg_check_unlock
 1033              	.LVL134:
 1034              	.LBB27:
 1035 0040 0023     		movs	r3, #0
 1036              	.LVL135:
 1037              	@ 419 "../../os/kernel/src/chevents.c" 1
 1038 0042 83F31188 		msr     BASEPRI, r3
 1039              	@ 0 "" 2
 1040              	.LVL136:
 1041              		.thumb
 1042              	.LBE27:
 1043              		.loc 1 421 0
 1044 0046 2046     		mov	r0, r4
 1045 0048 F8BD     		pop	{r3, r4, r5, r6, r7, pc}
 1046              	.LVL137:
 1047              	.L82:
 1048              		.loc 1 411 0
 1049 004a FFF7FEFF 		bl	dbg_check_unlock
 1050              	.LVL138:
 1051              	.LBB28:
 1052 004e 2346     		mov	r3, r4
 1053              	.LVL139:
 1054              	@ 411 "../../os/kernel/src/chevents.c" 1
 1055 0050 83F31188 		msr     BASEPRI, r3
 1056              	@ 0 "" 2
 1057              	.LVL140:
 1058              		.thumb
 1059              	.LBE28:
 1060              		.loc 1 421 0
 1061 0054 2046     		mov	r0, r4
 1062 0056 F8BD     		pop	{r3, r4, r5, r6, r7, pc}
 1063              	.L84:
 1064              		.align	2
 1065              	.L83:
 1066 0058 00000000 		.word	rlist
 1067              		.cfi_endproc
 1068              	.LFE19:
 1069              		.size	chEvtWaitOneTimeout, .-chEvtWaitOneTimeout
 1070 005c AFF30080 		.section	.text.chEvtWaitAnyTimeout,"ax",%progbits
 1071              		.align	2
 1072              		.p2align 4,,15
 1073              		.global	chEvtWaitAnyTimeout
 1074              		.thumb
 1075              		.thumb_func
 1076              		.type	chEvtWaitAnyTimeout, %function
 1077              	chEvtWaitAnyTimeout:
 1078              	.LFB20:
 1079              		.loc 1 441 0
ARM GAS  /tmp/cc2dNRNq.s 			page 20


 1080              		.cfi_startproc
 1081              		@ args = 0, pretend = 0, frame = 0
 1082              		@ frame_needed = 0, uses_anonymous_args = 0
 1083              	.LVL141:
 1084 0000 F8B5     		push	{r3, r4, r5, r6, r7, lr}
 1085              	.LCFI13:
 1086              		.cfi_def_cfa_offset 24
 1087              		.cfi_offset 3, -24
 1088              		.cfi_offset 4, -20
 1089              		.cfi_offset 5, -16
 1090              		.cfi_offset 6, -12
 1091              		.cfi_offset 7, -8
 1092              		.cfi_offset 14, -4
 1093              		.loc 1 442 0
 1094 0002 144B     		ldr	r3, .L91
 1095              		.loc 1 441 0
 1096 0004 0446     		mov	r4, r0
 1097              		.loc 1 442 0
 1098 0006 DD69     		ldr	r5, [r3, #28]
 1099              	.LVL142:
 1100              		.loc 1 441 0
 1101 0008 0F46     		mov	r7, r1
 1102              	.LBB29:
 1103              		.loc 1 445 0
 1104 000a 2023     		movs	r3, #32
 1105              	.LVL143:
 1106              	@ 445 "../../os/kernel/src/chevents.c" 1
 1107 000c 83F31188 		msr     BASEPRI, r3
 1108              	@ 0 "" 2
 1109              	.LVL144:
 1110              		.thumb
 1111              	.LBE29:
 1112 0010 FFF7FEFF 		bl	dbg_check_lock
 1113              	.LVL145:
 1114              		.loc 1 447 0
 1115 0014 EA6B     		ldr	r2, [r5, #60]
 1116              	.LVL146:
 1117 0016 14EA0206 		ands	r6, r4, r2
 1118              	.LVL147:
 1119 001a 0AD1     		bne	.L86
 1120              		.loc 1 448 0
 1121 001c 9FB1     		cbz	r7, .L90
 1122              		.loc 1 453 0
 1123 001e 0820     		movs	r0, #8
 1124              		.loc 1 452 0
 1125 0020 AC62     		str	r4, [r5, #40]
 1126              		.loc 1 453 0
 1127 0022 3946     		mov	r1, r7
 1128 0024 FFF7FEFF 		bl	chSchGoSleepTimeoutS
 1129              	.LVL148:
 1130 0028 0028     		cmp	r0, #0
 1131 002a 0CDB     		blt	.L90
 1132              		.loc 1 457 0
 1133 002c EA6B     		ldr	r2, [r5, #60]
 1134 002e 04EA0206 		and	r6, r4, r2
 1135              	.LVL149:
 1136              	.L86:
ARM GAS  /tmp/cc2dNRNq.s 			page 21


 1137              		.loc 1 459 0
 1138 0032 22EA0602 		bic	r2, r2, r6
 1139 0036 EA63     		str	r2, [r5, #60]
 1140              		.loc 1 461 0
 1141 0038 FFF7FEFF 		bl	dbg_check_unlock
 1142              	.LVL150:
 1143              	.LBB30:
 1144 003c 0023     		movs	r3, #0
 1145              	.LVL151:
 1146              	@ 461 "../../os/kernel/src/chevents.c" 1
 1147 003e 83F31188 		msr     BASEPRI, r3
 1148              	@ 0 "" 2
 1149              	.LVL152:
 1150              		.thumb
 1151              	.LBE30:
 1152              		.loc 1 463 0
 1153 0042 3046     		mov	r0, r6
 1154 0044 F8BD     		pop	{r3, r4, r5, r6, r7, pc}
 1155              	.LVL153:
 1156              	.L90:
 1157              		.loc 1 454 0
 1158 0046 FFF7FEFF 		bl	dbg_check_unlock
 1159              	.LVL154:
 1160              	.LBB31:
 1161 004a 3346     		mov	r3, r6
 1162              	.LVL155:
 1163              	@ 454 "../../os/kernel/src/chevents.c" 1
 1164 004c 83F31188 		msr     BASEPRI, r3
 1165              	@ 0 "" 2
 1166              	.LVL156:
 1167              		.thumb
 1168              	.LBE31:
 1169              		.loc 1 463 0
 1170 0050 3046     		mov	r0, r6
 1171 0052 F8BD     		pop	{r3, r4, r5, r6, r7, pc}
 1172              	.L92:
 1173              		.align	2
 1174              	.L91:
 1175 0054 00000000 		.word	rlist
 1176              		.cfi_endproc
 1177              	.LFE20:
 1178              		.size	chEvtWaitAnyTimeout, .-chEvtWaitAnyTimeout
 1179 0058 AFF30080 		.section	.text.chEvtWaitAllTimeout,"ax",%progbits
 1179      AFF30080 
 1180              		.align	2
 1181              		.p2align 4,,15
 1182              		.global	chEvtWaitAllTimeout
 1183              		.thumb
 1184              		.thumb_func
 1185              		.type	chEvtWaitAllTimeout, %function
 1186              	chEvtWaitAllTimeout:
 1187              	.LFB21:
 1188              		.loc 1 482 0
 1189              		.cfi_startproc
 1190              		@ args = 0, pretend = 0, frame = 0
 1191              		@ frame_needed = 0, uses_anonymous_args = 0
 1192              	.LVL157:
ARM GAS  /tmp/cc2dNRNq.s 			page 22


 1193              		.loc 1 483 0
 1194 0000 184B     		ldr	r3, .L99
 1195              		.loc 1 482 0
 1196 0002 70B5     		push	{r4, r5, r6, lr}
 1197              	.LCFI14:
 1198              		.cfi_def_cfa_offset 16
 1199              		.cfi_offset 4, -16
 1200              		.cfi_offset 5, -12
 1201              		.cfi_offset 6, -8
 1202              		.cfi_offset 14, -4
 1203              		.loc 1 483 0
 1204 0004 DD69     		ldr	r5, [r3, #28]
 1205              	.LVL158:
 1206              		.loc 1 482 0
 1207 0006 0446     		mov	r4, r0
 1208 0008 0E46     		mov	r6, r1
 1209              	.LBB32:
 1210              		.loc 1 485 0
 1211 000a 2023     		movs	r3, #32
 1212              	.LVL159:
 1213              	@ 485 "../../os/kernel/src/chevents.c" 1
 1214 000c 83F31188 		msr     BASEPRI, r3
 1215              	@ 0 "" 2
 1216              	.LVL160:
 1217              		.thumb
 1218              	.LBE32:
 1219 0010 FFF7FEFF 		bl	dbg_check_lock
 1220              	.LVL161:
 1221              		.loc 1 487 0
 1222 0014 EA6B     		ldr	r2, [r5, #60]
 1223 0016 04EA0200 		and	r0, r4, r2
 1224 001a A042     		cmp	r0, r4
 1225 001c 08D0     		beq	.L94
 1226              		.loc 1 488 0
 1227 001e 8EB1     		cbz	r6, .L98
 1228              		.loc 1 493 0
 1229 0020 0920     		movs	r0, #9
 1230              		.loc 1 492 0
 1231 0022 AC62     		str	r4, [r5, #40]
 1232              		.loc 1 493 0
 1233 0024 3146     		mov	r1, r6
 1234 0026 FFF7FEFF 		bl	chSchGoSleepTimeoutS
 1235              	.LVL162:
 1236 002a 0028     		cmp	r0, #0
 1237 002c 12DB     		blt	.L97
 1238 002e EA6B     		ldr	r2, [r5, #60]
 1239              	.L94:
 1240              		.loc 1 498 0
 1241 0030 22EA0402 		bic	r2, r2, r4
 1242 0034 EA63     		str	r2, [r5, #60]
 1243              		.loc 1 500 0
 1244 0036 FFF7FEFF 		bl	dbg_check_unlock
 1245              	.LVL163:
 1246              	.LBB33:
 1247 003a 0023     		movs	r3, #0
 1248              	.LVL164:
 1249              	@ 500 "../../os/kernel/src/chevents.c" 1
ARM GAS  /tmp/cc2dNRNq.s 			page 23


 1250 003c 83F31188 		msr     BASEPRI, r3
 1251              	@ 0 "" 2
 1252              	.LVL165:
 1253              		.thumb
 1254              	.L96:
 1255              	.LBE33:
 1256              		.loc 1 502 0
 1257 0040 2046     		mov	r0, r4
 1258 0042 70BD     		pop	{r4, r5, r6, pc}
 1259              	.LVL166:
 1260              	.L98:
 1261              		.loc 1 489 0
 1262 0044 FFF7FEFF 		bl	dbg_check_unlock
 1263              	.LVL167:
 1264              	.LBB34:
 1265 0048 3346     		mov	r3, r6
 1266              	.LVL168:
 1267              	@ 489 "../../os/kernel/src/chevents.c" 1
 1268 004a 83F31188 		msr     BASEPRI, r3
 1269              	@ 0 "" 2
 1270              	.LVL169:
 1271              		.thumb
 1272              	.LBE34:
 1273              		.loc 1 490 0
 1274 004e 3446     		mov	r4, r6
 1275              	.LVL170:
 1276              		.loc 1 502 0
 1277 0050 2046     		mov	r0, r4
 1278 0052 70BD     		pop	{r4, r5, r6, pc}
 1279              	.LVL171:
 1280              	.L97:
 1281              		.loc 1 494 0
 1282 0054 FFF7FEFF 		bl	dbg_check_unlock
 1283              	.LVL172:
 1284              	.LBB35:
 1285 0058 0023     		movs	r3, #0
 1286              	@ 494 "../../os/kernel/src/chevents.c" 1
 1287 005a 83F31188 		msr     BASEPRI, r3
 1288              	@ 0 "" 2
 1289              	.LVL173:
 1290              		.thumb
 1291              	.LBE35:
 1292              		.loc 1 495 0
 1293 005e 1C46     		mov	r4, r3
 1294              	.LVL174:
 1295 0060 EEE7     		b	.L96
 1296              	.L100:
 1297 0062 00BF     		.align	2
 1298              	.L99:
 1299 0064 00000000 		.word	rlist
 1300              		.cfi_endproc
 1301              	.LFE21:
 1302              		.size	chEvtWaitAllTimeout, .-chEvtWaitAllTimeout
 1303 0068 AFF30080 		.section	.rodata.str1.4,"aMS",%progbits,1
 1303      AFF30080 
 1304              		.align	2
 1305              	.LC0:
ARM GAS  /tmp/cc2dNRNq.s 			page 24


 1306 0000 22636845 		.ascii	"\"chEvtRegisterMask\"()\000"
 1306      76745265 
 1306      67697374 
 1306      65724D61 
 1306      736B2228 
 1307 0016 0000     		.space	2
 1308              	.LC1:
 1309 0018 22636845 		.ascii	"\"chEvtUnregister\"()\000"
 1309      7674556E 
 1309      72656769 
 1309      73746572 
 1309      22282900 
 1310              	.LC2:
 1311 002c 22636845 		.ascii	"\"chEvtSignalI\"()\000"
 1311      76745369 
 1311      676E616C 
 1311      49222829 
 1311      00
 1312 003d 000000   		.space	3
 1313              	.LC3:
 1314 0040 22636845 		.ascii	"\"chEvtSignal\"()\000"
 1314      76745369 
 1314      676E616C 
 1314      22282900 
 1315              	.LC4:
 1316 0050 22636845 		.ascii	"\"chEvtBroadcastMaskI\"()\000"
 1316      76744272 
 1316      6F616463 
 1316      6173744D 
 1316      61736B49 
 1317              	.LC5:
 1318 0068 22636845 		.ascii	"\"chEvtDispatch\"()\000"
 1318      76744469 
 1318      73706174 
 1318      63682228 
 1318      2900
 1319 007a 0000     		.space	2
 1320              	.LC6:
 1321 007c 63684576 		.ascii	"chEvtDispatch(), #1\000"
 1321      74446973 
 1321      70617463 
 1321      6828292C 
 1321      20233100 
 1322              		.text
 1323              	.Letext0:
 1324              		.file 2 "/usr/bin/../lib/gcc/arm-none-eabi/4.7.4/../../../../arm-none-eabi/include/stdint.h"
 1325              		.file 3 "../../os/ports/GCC/ARMCMx/chtypes.h"
 1326              		.file 4 "../../os/kernel/include/chlists.h"
 1327              		.file 5 "../../os/kernel/include/chthreads.h"
 1328              		.file 6 "../../os/ports/GCC/ARMCMx/chcore_v7m.h"
 1329              		.file 7 "../../os/kernel/include/chschd.h"
 1330              		.file 8 "../../os/kernel/include/chmtx.h"
 1331              		.file 9 "../../os/kernel/include/chevents.h"
 1332              		.file 10 "../../os/kernel/include/chdebug.h"
 1333              		.section	.debug_info,"",%progbits
 1334              	.Ldebug_info0:
 1335 0000 A50F0000 		.4byte	0xfa5
ARM GAS  /tmp/cc2dNRNq.s 			page 25


 1336 0004 0200     		.2byte	0x2
 1337 0006 00000000 		.4byte	.Ldebug_abbrev0
 1338 000a 04       		.byte	0x4
 1339 000b 01       		.uleb128 0x1
 1340 000c 01020000 		.4byte	.LASF98
 1341 0010 01       		.byte	0x1
 1342 0011 30040000 		.4byte	.LASF99
 1343 0015 C8020000 		.4byte	.LASF100
 1344 0019 30000000 		.4byte	.Ldebug_ranges0+0x30
 1345 001d 00000000 		.4byte	0
 1346 0021 00000000 		.4byte	0
 1347 0025 00000000 		.4byte	.Ldebug_line0
 1348 0029 02       		.uleb128 0x2
 1349 002a 04       		.byte	0x4
 1350 002b 05       		.byte	0x5
 1351 002c 696E7400 		.ascii	"int\000"
 1352 0030 03       		.uleb128 0x3
 1353 0031 04       		.byte	0x4
 1354 0032 07       		.byte	0x7
 1355 0033 71010000 		.4byte	.LASF0
 1356 0037 03       		.uleb128 0x3
 1357 0038 01       		.byte	0x1
 1358 0039 06       		.byte	0x6
 1359 003a 7C000000 		.4byte	.LASF1
 1360 003e 04       		.uleb128 0x4
 1361 003f 28040000 		.4byte	.LASF5
 1362 0043 02       		.byte	0x2
 1363 0044 2A       		.byte	0x2a
 1364 0045 49000000 		.4byte	0x49
 1365 0049 03       		.uleb128 0x3
 1366 004a 01       		.byte	0x1
 1367 004b 08       		.byte	0x8
 1368 004c 3A030000 		.4byte	.LASF2
 1369 0050 03       		.uleb128 0x3
 1370 0051 02       		.byte	0x2
 1371 0052 05       		.byte	0x5
 1372 0053 6B030000 		.4byte	.LASF3
 1373 0057 03       		.uleb128 0x3
 1374 0058 02       		.byte	0x2
 1375 0059 07       		.byte	0x7
 1376 005a 98010000 		.4byte	.LASF4
 1377 005e 04       		.uleb128 0x4
 1378 005f 32030000 		.4byte	.LASF6
 1379 0063 02       		.byte	0x2
 1380 0064 4F       		.byte	0x4f
 1381 0065 69000000 		.4byte	0x69
 1382 0069 03       		.uleb128 0x3
 1383 006a 04       		.byte	0x4
 1384 006b 05       		.byte	0x5
 1385 006c BA000000 		.4byte	.LASF7
 1386 0070 04       		.uleb128 0x4
 1387 0071 BA030000 		.4byte	.LASF8
 1388 0075 02       		.byte	0x2
 1389 0076 50       		.byte	0x50
 1390 0077 7B000000 		.4byte	0x7b
 1391 007b 03       		.uleb128 0x3
 1392 007c 04       		.byte	0x4
ARM GAS  /tmp/cc2dNRNq.s 			page 26


 1393 007d 07       		.byte	0x7
 1394 007e 7E010000 		.4byte	.LASF9
 1395 0082 03       		.uleb128 0x3
 1396 0083 08       		.byte	0x8
 1397 0084 05       		.byte	0x5
 1398 0085 6E000000 		.4byte	.LASF10
 1399 0089 04       		.uleb128 0x4
 1400 008a 18000000 		.4byte	.LASF11
 1401 008e 02       		.byte	0x2
 1402 008f 78       		.byte	0x78
 1403 0090 94000000 		.4byte	0x94
 1404 0094 03       		.uleb128 0x3
 1405 0095 08       		.byte	0x8
 1406 0096 07       		.byte	0x7
 1407 0097 21000000 		.4byte	.LASF12
 1408 009b 04       		.uleb128 0x4
 1409 009c DB010000 		.4byte	.LASF13
 1410 00a0 03       		.byte	0x3
 1411 00a1 2F       		.byte	0x2f
 1412 00a2 3E000000 		.4byte	0x3e
 1413 00a6 04       		.uleb128 0x4
 1414 00a7 C3000000 		.4byte	.LASF14
 1415 00ab 03       		.byte	0x3
 1416 00ac 30       		.byte	0x30
 1417 00ad 3E000000 		.4byte	0x3e
 1418 00b1 04       		.uleb128 0x4
 1419 00b2 0B030000 		.4byte	.LASF15
 1420 00b6 03       		.byte	0x3
 1421 00b7 31       		.byte	0x31
 1422 00b8 3E000000 		.4byte	0x3e
 1423 00bc 04       		.uleb128 0x4
 1424 00bd 1A030000 		.4byte	.LASF16
 1425 00c1 03       		.byte	0x3
 1426 00c2 32       		.byte	0x32
 1427 00c3 70000000 		.4byte	0x70
 1428 00c7 04       		.uleb128 0x4
 1429 00c8 BD010000 		.4byte	.LASF17
 1430 00cc 03       		.byte	0x3
 1431 00cd 33       		.byte	0x33
 1432 00ce 5E000000 		.4byte	0x5e
 1433 00d2 04       		.uleb128 0x4
 1434 00d3 3E010000 		.4byte	.LASF18
 1435 00d7 03       		.byte	0x3
 1436 00d8 34       		.byte	0x34
 1437 00d9 5E000000 		.4byte	0x5e
 1438 00dd 04       		.uleb128 0x4
 1439 00de EF010000 		.4byte	.LASF19
 1440 00e2 03       		.byte	0x3
 1441 00e3 35       		.byte	0x35
 1442 00e4 70000000 		.4byte	0x70
 1443 00e8 04       		.uleb128 0x4
 1444 00e9 E3030000 		.4byte	.LASF20
 1445 00ed 03       		.byte	0x3
 1446 00ee 36       		.byte	0x36
 1447 00ef 70000000 		.4byte	0x70
 1448 00f3 04       		.uleb128 0x4
 1449 00f4 60010000 		.4byte	.LASF21
ARM GAS  /tmp/cc2dNRNq.s 			page 27


 1450 00f8 03       		.byte	0x3
 1451 00f9 37       		.byte	0x37
 1452 00fa 5E000000 		.4byte	0x5e
 1453 00fe 04       		.uleb128 0x4
 1454 00ff 9A030000 		.4byte	.LASF22
 1455 0103 04       		.byte	0x4
 1456 0104 2A       		.byte	0x2a
 1457 0105 09010000 		.4byte	0x109
 1458 0109 05       		.uleb128 0x5
 1459 010a 9A030000 		.4byte	.LASF22
 1460 010e 4C       		.byte	0x4c
 1461 010f 05       		.byte	0x5
 1462 0110 5E       		.byte	0x5e
 1463 0111 2E020000 		.4byte	0x22e
 1464 0115 06       		.uleb128 0x6
 1465 0116 8B030000 		.4byte	.LASF23
 1466 011a 05       		.byte	0x5
 1467 011b 5F       		.byte	0x5f
 1468 011c 53020000 		.4byte	0x253
 1469 0120 02       		.byte	0x2
 1470 0121 23       		.byte	0x23
 1471 0122 00       		.uleb128 0
 1472 0123 06       		.uleb128 0x6
 1473 0124 13030000 		.4byte	.LASF24
 1474 0128 05       		.byte	0x5
 1475 0129 61       		.byte	0x61
 1476 012a 53020000 		.4byte	0x253
 1477 012e 02       		.byte	0x2
 1478 012f 23       		.byte	0x23
 1479 0130 04       		.uleb128 0x4
 1480 0131 06       		.uleb128 0x6
 1481 0132 67000000 		.4byte	.LASF25
 1482 0136 05       		.byte	0x5
 1483 0137 63       		.byte	0x63
 1484 0138 BC000000 		.4byte	0xbc
 1485 013c 02       		.byte	0x2
 1486 013d 23       		.byte	0x23
 1487 013e 08       		.uleb128 0x8
 1488 013f 06       		.uleb128 0x6
 1489 0140 CE040000 		.4byte	.LASF26
 1490 0144 05       		.byte	0x5
 1491 0145 64       		.byte	0x64
 1492 0146 2B030000 		.4byte	0x32b
 1493 014a 02       		.byte	0x2
 1494 014b 23       		.byte	0x23
 1495 014c 0C       		.uleb128 0xc
 1496 014d 06       		.uleb128 0x6
 1497 014e FB000000 		.4byte	.LASF27
 1498 0152 05       		.byte	0x5
 1499 0153 66       		.byte	0x66
 1500 0154 53020000 		.4byte	0x253
 1501 0158 02       		.byte	0x2
 1502 0159 23       		.byte	0x23
 1503 015a 10       		.uleb128 0x10
 1504 015b 06       		.uleb128 0x6
 1505 015c 7D020000 		.4byte	.LASF28
 1506 0160 05       		.byte	0x5
ARM GAS  /tmp/cc2dNRNq.s 			page 28


 1507 0161 67       		.byte	0x67
 1508 0162 53020000 		.4byte	0x253
 1509 0166 02       		.byte	0x2
 1510 0167 23       		.byte	0x23
 1511 0168 14       		.uleb128 0x14
 1512 0169 06       		.uleb128 0x6
 1513 016a 78040000 		.4byte	.LASF29
 1514 016e 05       		.byte	0x5
 1515 016f 6E       		.byte	0x6e
 1516 0170 D8040000 		.4byte	0x4d8
 1517 0174 02       		.byte	0x2
 1518 0175 23       		.byte	0x23
 1519 0176 18       		.uleb128 0x18
 1520 0177 06       		.uleb128 0x6
 1521 0178 66010000 		.4byte	.LASF30
 1522 017c 05       		.byte	0x5
 1523 017d 74       		.byte	0x74
 1524 017e EA040000 		.4byte	0x4ea
 1525 0182 02       		.byte	0x2
 1526 0183 23       		.byte	0x23
 1527 0184 1C       		.uleb128 0x1c
 1528 0185 06       		.uleb128 0x6
 1529 0186 75030000 		.4byte	.LASF31
 1530 018a 05       		.byte	0x5
 1531 018b 79       		.byte	0x79
 1532 018c A6000000 		.4byte	0xa6
 1533 0190 02       		.byte	0x2
 1534 0191 23       		.byte	0x23
 1535 0192 20       		.uleb128 0x20
 1536 0193 06       		.uleb128 0x6
 1537 0194 92030000 		.4byte	.LASF32
 1538 0198 05       		.byte	0x5
 1539 0199 7D       		.byte	0x7d
 1540 019a 9B000000 		.4byte	0x9b
 1541 019e 02       		.byte	0x2
 1542 019f 23       		.byte	0x23
 1543 01a0 21       		.uleb128 0x21
 1544 01a1 06       		.uleb128 0x6
 1545 01a2 11040000 		.4byte	.LASF33
 1546 01a6 05       		.byte	0x5
 1547 01a7 82       		.byte	0x82
 1548 01a8 B1000000 		.4byte	0xb1
 1549 01ac 02       		.byte	0x2
 1550 01ad 23       		.byte	0x23
 1551 01ae 22       		.uleb128 0x22
 1552 01af 06       		.uleb128 0x6
 1553 01b0 F8030000 		.4byte	.LASF34
 1554 01b4 05       		.byte	0x5
 1555 01b5 89       		.byte	0x89
 1556 01b6 55030000 		.4byte	0x355
 1557 01ba 02       		.byte	0x2
 1558 01bb 23       		.byte	0x23
 1559 01bc 24       		.uleb128 0x24
 1560 01bd 07       		.uleb128 0x7
 1561 01be 705F7500 		.ascii	"p_u\000"
 1562 01c2 05       		.byte	0x5
 1563 01c3 AE       		.byte	0xae
ARM GAS  /tmp/cc2dNRNq.s 			page 29


 1564 01c4 A3040000 		.4byte	0x4a3
 1565 01c8 02       		.byte	0x2
 1566 01c9 23       		.byte	0x23
 1567 01ca 28       		.uleb128 0x28
 1568 01cb 06       		.uleb128 0x6
 1569 01cc D4040000 		.4byte	.LASF35
 1570 01d0 05       		.byte	0x5
 1571 01d1 B3       		.byte	0xb3
 1572 01d2 7B020000 		.4byte	0x27b
 1573 01d6 02       		.byte	0x2
 1574 01d7 23       		.byte	0x23
 1575 01d8 2C       		.uleb128 0x2c
 1576 01d9 06       		.uleb128 0x6
 1577 01da 06040000 		.4byte	.LASF36
 1578 01de 05       		.byte	0x5
 1579 01df B9       		.byte	0xb9
 1580 01e0 59020000 		.4byte	0x259
 1581 01e4 02       		.byte	0x2
 1582 01e5 23       		.byte	0x23
 1583 01e6 30       		.uleb128 0x30
 1584 01e7 06       		.uleb128 0x6
 1585 01e8 00000000 		.4byte	.LASF37
 1586 01ec 05       		.byte	0x5
 1587 01ed BD       		.byte	0xbd
 1588 01ee C7000000 		.4byte	0xc7
 1589 01f2 02       		.byte	0x2
 1590 01f3 23       		.byte	0x23
 1591 01f4 38       		.uleb128 0x38
 1592 01f5 06       		.uleb128 0x6
 1593 01f6 AF030000 		.4byte	.LASF38
 1594 01fa 05       		.byte	0x5
 1595 01fb C3       		.byte	0xc3
 1596 01fc DD000000 		.4byte	0xdd
 1597 0200 02       		.byte	0x2
 1598 0201 23       		.byte	0x23
 1599 0202 3C       		.uleb128 0x3c
 1600 0203 06       		.uleb128 0x6
 1601 0204 61030000 		.4byte	.LASF39
 1602 0208 05       		.byte	0x5
 1603 0209 CA       		.byte	0xca
 1604 020a F0040000 		.4byte	0x4f0
 1605 020e 02       		.byte	0x2
 1606 020f 23       		.byte	0x23
 1607 0210 40       		.uleb128 0x40
 1608 0211 06       		.uleb128 0x6
 1609 0212 ED030000 		.4byte	.LASF40
 1610 0216 05       		.byte	0x5
 1611 0217 CE       		.byte	0xce
 1612 0218 BC000000 		.4byte	0xbc
 1613 021c 02       		.byte	0x2
 1614 021d 23       		.byte	0x23
 1615 021e 44       		.uleb128 0x44
 1616 021f 06       		.uleb128 0x6
 1617 0220 9C000000 		.4byte	.LASF41
 1618 0224 05       		.byte	0x5
 1619 0225 D4       		.byte	0xd4
 1620 0226 91020000 		.4byte	0x291
ARM GAS  /tmp/cc2dNRNq.s 			page 30


 1621 022a 02       		.byte	0x2
 1622 022b 23       		.byte	0x23
 1623 022c 48       		.uleb128 0x48
 1624 022d 00       		.byte	0
 1625 022e 08       		.uleb128 0x8
 1626 022f 08       		.byte	0x8
 1627 0230 04       		.byte	0x4
 1628 0231 61       		.byte	0x61
 1629 0232 53020000 		.4byte	0x253
 1630 0236 06       		.uleb128 0x6
 1631 0237 8B030000 		.4byte	.LASF23
 1632 023b 04       		.byte	0x4
 1633 023c 62       		.byte	0x62
 1634 023d 53020000 		.4byte	0x253
 1635 0241 02       		.byte	0x2
 1636 0242 23       		.byte	0x23
 1637 0243 00       		.uleb128 0
 1638 0244 06       		.uleb128 0x6
 1639 0245 13030000 		.4byte	.LASF24
 1640 0249 04       		.byte	0x4
 1641 024a 64       		.byte	0x64
 1642 024b 53020000 		.4byte	0x253
 1643 024f 02       		.byte	0x2
 1644 0250 23       		.byte	0x23
 1645 0251 04       		.uleb128 0x4
 1646 0252 00       		.byte	0
 1647 0253 09       		.uleb128 0x9
 1648 0254 04       		.byte	0x4
 1649 0255 FE000000 		.4byte	0xfe
 1650 0259 04       		.uleb128 0x4
 1651 025a 8B020000 		.4byte	.LASF42
 1652 025e 04       		.byte	0x4
 1653 025f 66       		.byte	0x66
 1654 0260 2E020000 		.4byte	0x22e
 1655 0264 08       		.uleb128 0x8
 1656 0265 04       		.byte	0x4
 1657 0266 04       		.byte	0x4
 1658 0267 6B       		.byte	0x6b
 1659 0268 7B020000 		.4byte	0x27b
 1660 026c 06       		.uleb128 0x6
 1661 026d 8B030000 		.4byte	.LASF23
 1662 0271 04       		.byte	0x4
 1663 0272 6D       		.byte	0x6d
 1664 0273 53020000 		.4byte	0x253
 1665 0277 02       		.byte	0x2
 1666 0278 23       		.byte	0x23
 1667 0279 00       		.uleb128 0
 1668 027a 00       		.byte	0
 1669 027b 04       		.uleb128 0x4
 1670 027c E3010000 		.4byte	.LASF43
 1671 0280 04       		.byte	0x4
 1672 0281 70       		.byte	0x70
 1673 0282 64020000 		.4byte	0x264
 1674 0286 04       		.uleb128 0x4
 1675 0287 21010000 		.4byte	.LASF44
 1676 028b 06       		.byte	0x6
 1677 028c D7       		.byte	0xd7
ARM GAS  /tmp/cc2dNRNq.s 			page 31


 1678 028d 91020000 		.4byte	0x291
 1679 0291 0A       		.uleb128 0xa
 1680 0292 04       		.byte	0x4
 1681 0293 04       		.uleb128 0x4
 1682 0294 4A020000 		.4byte	.LASF45
 1683 0298 06       		.byte	0x6
 1684 0299 DD       		.byte	0xdd
 1685 029a 89000000 		.4byte	0x89
 1686 029e 05       		.uleb128 0x5
 1687 029f FF030000 		.4byte	.LASF46
 1688 02a3 24       		.byte	0x24
 1689 02a4 06       		.byte	0x6
 1690 02a5 FE       		.byte	0xfe
 1691 02a6 2B030000 		.4byte	0x32b
 1692 02aa 0B       		.uleb128 0xb
 1693 02ab 723400   		.ascii	"r4\000"
 1694 02ae 06       		.byte	0x6
 1695 02af 1101     		.2byte	0x111
 1696 02b1 86020000 		.4byte	0x286
 1697 02b5 02       		.byte	0x2
 1698 02b6 23       		.byte	0x23
 1699 02b7 00       		.uleb128 0
 1700 02b8 0B       		.uleb128 0xb
 1701 02b9 723500   		.ascii	"r5\000"
 1702 02bc 06       		.byte	0x6
 1703 02bd 1201     		.2byte	0x112
 1704 02bf 86020000 		.4byte	0x286
 1705 02c3 02       		.byte	0x2
 1706 02c4 23       		.byte	0x23
 1707 02c5 04       		.uleb128 0x4
 1708 02c6 0B       		.uleb128 0xb
 1709 02c7 723600   		.ascii	"r6\000"
 1710 02ca 06       		.byte	0x6
 1711 02cb 1301     		.2byte	0x113
 1712 02cd 86020000 		.4byte	0x286
 1713 02d1 02       		.byte	0x2
 1714 02d2 23       		.byte	0x23
 1715 02d3 08       		.uleb128 0x8
 1716 02d4 0B       		.uleb128 0xb
 1717 02d5 723700   		.ascii	"r7\000"
 1718 02d8 06       		.byte	0x6
 1719 02d9 1401     		.2byte	0x114
 1720 02db 86020000 		.4byte	0x286
 1721 02df 02       		.byte	0x2
 1722 02e0 23       		.byte	0x23
 1723 02e1 0C       		.uleb128 0xc
 1724 02e2 0B       		.uleb128 0xb
 1725 02e3 723800   		.ascii	"r8\000"
 1726 02e6 06       		.byte	0x6
 1727 02e7 1501     		.2byte	0x115
 1728 02e9 86020000 		.4byte	0x286
 1729 02ed 02       		.byte	0x2
 1730 02ee 23       		.byte	0x23
 1731 02ef 10       		.uleb128 0x10
 1732 02f0 0B       		.uleb128 0xb
 1733 02f1 723900   		.ascii	"r9\000"
 1734 02f4 06       		.byte	0x6
ARM GAS  /tmp/cc2dNRNq.s 			page 32


 1735 02f5 1601     		.2byte	0x116
 1736 02f7 86020000 		.4byte	0x286
 1737 02fb 02       		.byte	0x2
 1738 02fc 23       		.byte	0x23
 1739 02fd 14       		.uleb128 0x14
 1740 02fe 0B       		.uleb128 0xb
 1741 02ff 72313000 		.ascii	"r10\000"
 1742 0303 06       		.byte	0x6
 1743 0304 1701     		.2byte	0x117
 1744 0306 86020000 		.4byte	0x286
 1745 030a 02       		.byte	0x2
 1746 030b 23       		.byte	0x23
 1747 030c 18       		.uleb128 0x18
 1748 030d 0B       		.uleb128 0xb
 1749 030e 72313100 		.ascii	"r11\000"
 1750 0312 06       		.byte	0x6
 1751 0313 1801     		.2byte	0x118
 1752 0315 86020000 		.4byte	0x286
 1753 0319 02       		.byte	0x2
 1754 031a 23       		.byte	0x23
 1755 031b 1C       		.uleb128 0x1c
 1756 031c 0B       		.uleb128 0xb
 1757 031d 6C7200   		.ascii	"lr\000"
 1758 0320 06       		.byte	0x6
 1759 0321 1901     		.2byte	0x119
 1760 0323 86020000 		.4byte	0x286
 1761 0327 02       		.byte	0x2
 1762 0328 23       		.byte	0x23
 1763 0329 20       		.uleb128 0x20
 1764 032a 00       		.byte	0
 1765 032b 0C       		.uleb128 0xc
 1766 032c 90010000 		.4byte	.LASF47
 1767 0330 04       		.byte	0x4
 1768 0331 06       		.byte	0x6
 1769 0332 2301     		.2byte	0x123
 1770 0334 48030000 		.4byte	0x348
 1771 0338 0B       		.uleb128 0xb
 1772 0339 72313300 		.ascii	"r13\000"
 1773 033d 06       		.byte	0x6
 1774 033e 2401     		.2byte	0x124
 1775 0340 48030000 		.4byte	0x348
 1776 0344 02       		.byte	0x2
 1777 0345 23       		.byte	0x23
 1778 0346 00       		.uleb128 0
 1779 0347 00       		.byte	0
 1780 0348 09       		.uleb128 0x9
 1781 0349 04       		.byte	0x4
 1782 034a 9E020000 		.4byte	0x29e
 1783 034e 03       		.uleb128 0x3
 1784 034f 04       		.byte	0x4
 1785 0350 07       		.byte	0x7
 1786 0351 66020000 		.4byte	.LASF48
 1787 0355 0D       		.uleb128 0xd
 1788 0356 E8000000 		.4byte	0xe8
 1789 035a 08       		.uleb128 0x8
 1790 035b 20       		.byte	0x20
 1791 035c 07       		.byte	0x7
ARM GAS  /tmp/cc2dNRNq.s 			page 33


 1792 035d 5E       		.byte	0x5e
 1793 035e C5030000 		.4byte	0x3c5
 1794 0362 06       		.uleb128 0x6
 1795 0363 C3030000 		.4byte	.LASF49
 1796 0367 07       		.byte	0x7
 1797 0368 5F       		.byte	0x5f
 1798 0369 59020000 		.4byte	0x259
 1799 036d 02       		.byte	0x2
 1800 036e 23       		.byte	0x23
 1801 036f 00       		.uleb128 0
 1802 0370 06       		.uleb128 0x6
 1803 0371 7D030000 		.4byte	.LASF50
 1804 0375 07       		.byte	0x7
 1805 0376 60       		.byte	0x60
 1806 0377 BC000000 		.4byte	0xbc
 1807 037b 02       		.byte	0x2
 1808 037c 23       		.byte	0x23
 1809 037d 08       		.uleb128 0x8
 1810 037e 06       		.uleb128 0x6
 1811 037f 85020000 		.4byte	.LASF51
 1812 0383 07       		.byte	0x7
 1813 0384 62       		.byte	0x62
 1814 0385 2B030000 		.4byte	0x32b
 1815 0389 02       		.byte	0x2
 1816 038a 23       		.byte	0x23
 1817 038b 0C       		.uleb128 0xc
 1818 038c 06       		.uleb128 0x6
 1819 038d 14010000 		.4byte	.LASF52
 1820 0391 07       		.byte	0x7
 1821 0392 65       		.byte	0x65
 1822 0393 53020000 		.4byte	0x253
 1823 0397 02       		.byte	0x2
 1824 0398 23       		.byte	0x23
 1825 0399 10       		.uleb128 0x10
 1826 039a 06       		.uleb128 0x6
 1827 039b B8020000 		.4byte	.LASF53
 1828 039f 07       		.byte	0x7
 1829 03a0 66       		.byte	0x66
 1830 03a1 53020000 		.4byte	0x253
 1831 03a5 02       		.byte	0x2
 1832 03a6 23       		.byte	0x23
 1833 03a7 14       		.uleb128 0x14
 1834 03a8 06       		.uleb128 0x6
 1835 03a9 AD040000 		.4byte	.LASF54
 1836 03ad 07       		.byte	0x7
 1837 03ae 6A       		.byte	0x6a
 1838 03af F3000000 		.4byte	0xf3
 1839 03b3 02       		.byte	0x2
 1840 03b4 23       		.byte	0x23
 1841 03b5 18       		.uleb128 0x18
 1842 03b6 06       		.uleb128 0x6
 1843 03b7 AE020000 		.4byte	.LASF55
 1844 03bb 07       		.byte	0x7
 1845 03bc 6C       		.byte	0x6c
 1846 03bd 53020000 		.4byte	0x253
 1847 03c1 02       		.byte	0x2
 1848 03c2 23       		.byte	0x23
ARM GAS  /tmp/cc2dNRNq.s 			page 34


 1849 03c3 1C       		.uleb128 0x1c
 1850 03c4 00       		.byte	0
 1851 03c5 04       		.uleb128 0x4
 1852 03c6 18040000 		.4byte	.LASF56
 1853 03ca 07       		.byte	0x7
 1854 03cb 6E       		.byte	0x6e
 1855 03cc 5A030000 		.4byte	0x35a
 1856 03d0 05       		.uleb128 0x5
 1857 03d1 FB010000 		.4byte	.LASF57
 1858 03d5 10       		.byte	0x10
 1859 03d6 08       		.byte	0x8
 1860 03d7 2C       		.byte	0x2c
 1861 03d8 07040000 		.4byte	0x407
 1862 03dc 06       		.uleb128 0x6
 1863 03dd A4000000 		.4byte	.LASF58
 1864 03e1 08       		.byte	0x8
 1865 03e2 2D       		.byte	0x2d
 1866 03e3 59020000 		.4byte	0x259
 1867 03e7 02       		.byte	0x2
 1868 03e8 23       		.byte	0x23
 1869 03e9 00       		.uleb128 0
 1870 03ea 06       		.uleb128 0x6
 1871 03eb B7040000 		.4byte	.LASF59
 1872 03ef 08       		.byte	0x8
 1873 03f0 2F       		.byte	0x2f
 1874 03f1 53020000 		.4byte	0x253
 1875 03f5 02       		.byte	0x2
 1876 03f6 23       		.byte	0x23
 1877 03f7 08       		.uleb128 0x8
 1878 03f8 06       		.uleb128 0x6
 1879 03f9 DC030000 		.4byte	.LASF60
 1880 03fd 08       		.byte	0x8
 1881 03fe 31       		.byte	0x31
 1882 03ff 07040000 		.4byte	0x407
 1883 0403 02       		.byte	0x2
 1884 0404 23       		.byte	0x23
 1885 0405 0C       		.uleb128 0xc
 1886 0406 00       		.byte	0
 1887 0407 09       		.uleb128 0x9
 1888 0408 04       		.byte	0x4
 1889 0409 D0030000 		.4byte	0x3d0
 1890 040d 04       		.uleb128 0x4
 1891 040e FB010000 		.4byte	.LASF57
 1892 0412 08       		.byte	0x8
 1893 0413 33       		.byte	0x33
 1894 0414 D0030000 		.4byte	0x3d0
 1895 0418 04       		.uleb128 0x4
 1896 0419 4F040000 		.4byte	.LASF61
 1897 041d 09       		.byte	0x9
 1898 041e 29       		.byte	0x29
 1899 041f 23040000 		.4byte	0x423
 1900 0423 05       		.uleb128 0x5
 1901 0424 4F040000 		.4byte	.LASF61
 1902 0428 0C       		.byte	0xc
 1903 0429 09       		.byte	0x9
 1904 042a 2E       		.byte	0x2e
 1905 042b 5A040000 		.4byte	0x45a
ARM GAS  /tmp/cc2dNRNq.s 			page 35


 1906 042f 06       		.uleb128 0x6
 1907 0430 C3010000 		.4byte	.LASF62
 1908 0434 09       		.byte	0x9
 1909 0435 2F       		.byte	0x2f
 1910 0436 5A040000 		.4byte	0x45a
 1911 043a 02       		.byte	0x2
 1912 043b 23       		.byte	0x23
 1913 043c 00       		.uleb128 0
 1914 043d 06       		.uleb128 0x6
 1915 043e 55030000 		.4byte	.LASF63
 1916 0442 09       		.byte	0x9
 1917 0443 32       		.byte	0x32
 1918 0444 53020000 		.4byte	0x253
 1919 0448 02       		.byte	0x2
 1920 0449 23       		.byte	0x23
 1921 044a 04       		.uleb128 0x4
 1922 044b 06       		.uleb128 0x6
 1923 044c C0020000 		.4byte	.LASF64
 1924 0450 09       		.byte	0x9
 1925 0451 34       		.byte	0x34
 1926 0452 DD000000 		.4byte	0xdd
 1927 0456 02       		.byte	0x2
 1928 0457 23       		.byte	0x23
 1929 0458 08       		.uleb128 0x8
 1930 0459 00       		.byte	0
 1931 045a 09       		.uleb128 0x9
 1932 045b 04       		.byte	0x4
 1933 045c 18040000 		.4byte	0x418
 1934 0460 05       		.uleb128 0x5
 1935 0461 48010000 		.4byte	.LASF65
 1936 0465 04       		.byte	0x4
 1937 0466 09       		.byte	0x9
 1938 0467 3C       		.byte	0x3c
 1939 0468 7B040000 		.4byte	0x47b
 1940 046c 06       		.uleb128 0x6
 1941 046d 7F040000 		.4byte	.LASF66
 1942 0471 09       		.byte	0x9
 1943 0472 3D       		.byte	0x3d
 1944 0473 5A040000 		.4byte	0x45a
 1945 0477 02       		.byte	0x2
 1946 0478 23       		.byte	0x23
 1947 0479 00       		.uleb128 0
 1948 047a 00       		.byte	0
 1949 047b 04       		.uleb128 0x4
 1950 047c 48010000 		.4byte	.LASF65
 1951 0480 09       		.byte	0x9
 1952 0481 40       		.byte	0x40
 1953 0482 60040000 		.4byte	0x460
 1954 0486 04       		.uleb128 0x4
 1955 0487 54010000 		.4byte	.LASF67
 1956 048b 09       		.byte	0x9
 1957 048c 45       		.byte	0x45
 1958 048d 91040000 		.4byte	0x491
 1959 0491 09       		.uleb128 0x9
 1960 0492 04       		.byte	0x4
 1961 0493 97040000 		.4byte	0x497
 1962 0497 0E       		.uleb128 0xe
ARM GAS  /tmp/cc2dNRNq.s 			page 36


 1963 0498 01       		.byte	0x1
 1964 0499 A3040000 		.4byte	0x4a3
 1965 049d 0F       		.uleb128 0xf
 1966 049e D2000000 		.4byte	0xd2
 1967 04a2 00       		.byte	0
 1968 04a3 10       		.uleb128 0x10
 1969 04a4 04       		.byte	0x4
 1970 04a5 05       		.byte	0x5
 1971 04a6 90       		.byte	0x90
 1972 04a7 D8040000 		.4byte	0x4d8
 1973 04ab 11       		.uleb128 0x11
 1974 04ac 11000000 		.4byte	.LASF68
 1975 04b0 05       		.byte	0x5
 1976 04b1 97       		.byte	0x97
 1977 04b2 C7000000 		.4byte	0xc7
 1978 04b6 11       		.uleb128 0x11
 1979 04b7 38000000 		.4byte	.LASF69
 1980 04bb 05       		.byte	0x5
 1981 04bc 9E       		.byte	0x9e
 1982 04bd C7000000 		.4byte	0xc7
 1983 04c1 11       		.uleb128 0x11
 1984 04c2 71040000 		.4byte	.LASF70
 1985 04c6 05       		.byte	0x5
 1986 04c7 A5       		.byte	0xa5
 1987 04c8 91020000 		.4byte	0x291
 1988 04cc 11       		.uleb128 0x11
 1989 04cd 84030000 		.4byte	.LASF71
 1990 04d1 05       		.byte	0x5
 1991 04d2 AC       		.byte	0xac
 1992 04d3 DD000000 		.4byte	0xdd
 1993 04d7 00       		.byte	0
 1994 04d8 09       		.uleb128 0x9
 1995 04d9 04       		.byte	0x4
 1996 04da DE040000 		.4byte	0x4de
 1997 04de 12       		.uleb128 0x12
 1998 04df E3040000 		.4byte	0x4e3
 1999 04e3 03       		.uleb128 0x3
 2000 04e4 01       		.byte	0x1
 2001 04e5 08       		.byte	0x8
 2002 04e6 D7030000 		.4byte	.LASF72
 2003 04ea 09       		.uleb128 0x9
 2004 04eb 04       		.byte	0x4
 2005 04ec 93020000 		.4byte	0x293
 2006 04f0 09       		.uleb128 0x9
 2007 04f1 04       		.byte	0x4
 2008 04f2 0D040000 		.4byte	0x40d
 2009 04f6 13       		.uleb128 0x13
 2010 04f7 01       		.byte	0x1
 2011 04f8 41000000 		.4byte	.LASF92
 2012 04fc 01       		.byte	0x1
 2013 04fd C1       		.byte	0xc1
 2014 04fe 01       		.byte	0x1
 2015 04ff 01       		.byte	0x1
 2016 0500 1A050000 		.4byte	0x51a
 2017 0504 14       		.uleb128 0x14
 2018 0505 747000   		.ascii	"tp\000"
 2019 0508 01       		.byte	0x1
ARM GAS  /tmp/cc2dNRNq.s 			page 37


 2020 0509 C1       		.byte	0xc1
 2021 050a 53020000 		.4byte	0x253
 2022 050e 15       		.uleb128 0x15
 2023 050f 1C010000 		.4byte	.LASF73
 2024 0513 01       		.byte	0x1
 2025 0514 C1       		.byte	0xc1
 2026 0515 DD000000 		.4byte	0xdd
 2027 0519 00       		.byte	0
 2028 051a 16       		.uleb128 0x16
 2029 051b 01       		.byte	0x1
 2030 051c AB010000 		.4byte	.LASF74
 2031 0520 01       		.byte	0x1
 2032 0521 52       		.byte	0x52
 2033 0522 01       		.byte	0x1
 2034 0523 00000000 		.4byte	.LFB7
 2035 0527 40000000 		.4byte	.LFE7
 2036 052b 00000000 		.4byte	.LLST0
 2037 052f 01       		.byte	0x1
 2038 0530 C1050000 		.4byte	0x5c1
 2039 0534 17       		.uleb128 0x17
 2040 0535 65737000 		.ascii	"esp\000"
 2041 0539 01       		.byte	0x1
 2042 053a 52       		.byte	0x52
 2043 053b C1050000 		.4byte	0x5c1
 2044 053f 20000000 		.4byte	.LLST1
 2045 0543 17       		.uleb128 0x17
 2046 0544 656C7000 		.ascii	"elp\000"
 2047 0548 01       		.byte	0x1
 2048 0549 52       		.byte	0x52
 2049 054a 5A040000 		.4byte	0x45a
 2050 054e 54000000 		.4byte	.LLST2
 2051 0552 18       		.uleb128 0x18
 2052 0553 1C010000 		.4byte	.LASF73
 2053 0557 01       		.byte	0x1
 2054 0558 52       		.byte	0x52
 2055 0559 DD000000 		.4byte	0xdd
 2056 055d 88000000 		.4byte	.LLST3
 2057 0561 19       		.uleb128 0x19
 2058 0562 0C000000 		.4byte	.LBB2
 2059 0566 12000000 		.4byte	.LBE2
 2060 056a 7E050000 		.4byte	0x57e
 2061 056e 1A       		.uleb128 0x1a
 2062 056f 746D7000 		.ascii	"tmp\000"
 2063 0573 01       		.byte	0x1
 2064 0574 56       		.byte	0x56
 2065 0575 70000000 		.4byte	0x70
 2066 0579 BC000000 		.4byte	.LLST4
 2067 057d 00       		.byte	0
 2068 057e 19       		.uleb128 0x19
 2069 057f 28000000 		.4byte	.LBB3
 2070 0583 30000000 		.4byte	.LBE3
 2071 0587 9B050000 		.4byte	0x59b
 2072 058b 1A       		.uleb128 0x1a
 2073 058c 746D7000 		.ascii	"tmp\000"
 2074 0590 01       		.byte	0x1
 2075 0591 5B       		.byte	0x5b
 2076 0592 70000000 		.4byte	0x70
ARM GAS  /tmp/cc2dNRNq.s 			page 38


 2077 0596 CF000000 		.4byte	.LLST5
 2078 059a 00       		.byte	0
 2079 059b 1B       		.uleb128 0x1b
 2080 059c 16000000 		.4byte	.LVL4
 2081 05a0 210F0000 		.4byte	0xf21
 2082 05a4 1B       		.uleb128 0x1b
 2083 05a5 28000000 		.4byte	.LVL5
 2084 05a9 2B0F0000 		.4byte	0xf2b
 2085 05ad 1C       		.uleb128 0x1c
 2086 05ae 36000000 		.4byte	.LVL10
 2087 05b2 350F0000 		.4byte	0xf35
 2088 05b6 1D       		.uleb128 0x1d
 2089 05b7 01       		.byte	0x1
 2090 05b8 50       		.byte	0x50
 2091 05b9 05       		.byte	0x5
 2092 05ba 03       		.byte	0x3
 2093 05bb 00000000 		.4byte	.LC0
 2094 05bf 00       		.byte	0
 2095 05c0 00       		.byte	0
 2096 05c1 09       		.uleb128 0x9
 2097 05c2 04       		.byte	0x4
 2098 05c3 7B040000 		.4byte	0x47b
 2099 05c7 16       		.uleb128 0x16
 2100 05c8 01       		.byte	0x1
 2101 05c9 CB010000 		.4byte	.LASF75
 2102 05cd 01       		.byte	0x1
 2103 05ce 6B       		.byte	0x6b
 2104 05cf 01       		.byte	0x1
 2105 05d0 00000000 		.4byte	.LFB8
 2106 05d4 40000000 		.4byte	.LFE8
 2107 05d8 E2000000 		.4byte	.LLST6
 2108 05dc 01       		.byte	0x1
 2109 05dd 6C060000 		.4byte	0x66c
 2110 05e1 17       		.uleb128 0x17
 2111 05e2 65737000 		.ascii	"esp\000"
 2112 05e6 01       		.byte	0x1
 2113 05e7 6B       		.byte	0x6b
 2114 05e8 C1050000 		.4byte	0x5c1
 2115 05ec 02010000 		.4byte	.LLST7
 2116 05f0 17       		.uleb128 0x17
 2117 05f1 656C7000 		.ascii	"elp\000"
 2118 05f5 01       		.byte	0x1
 2119 05f6 6B       		.byte	0x6b
 2120 05f7 5A040000 		.4byte	0x45a
 2121 05fb 36010000 		.4byte	.LLST8
 2122 05ff 1A       		.uleb128 0x1a
 2123 0600 7000     		.ascii	"p\000"
 2124 0602 01       		.byte	0x1
 2125 0603 6C       		.byte	0x6c
 2126 0604 5A040000 		.4byte	0x45a
 2127 0608 6A010000 		.4byte	.LLST9
 2128 060c 19       		.uleb128 0x19
 2129 060d 0A000000 		.4byte	.LBB4
 2130 0611 10000000 		.4byte	.LBE4
 2131 0615 29060000 		.4byte	0x629
 2132 0619 1A       		.uleb128 0x1a
 2133 061a 746D7000 		.ascii	"tmp\000"
ARM GAS  /tmp/cc2dNRNq.s 			page 39


 2134 061e 01       		.byte	0x1
 2135 061f 71       		.byte	0x71
 2136 0620 70000000 		.4byte	0x70
 2137 0624 88010000 		.4byte	.LLST10
 2138 0628 00       		.byte	0
 2139 0629 19       		.uleb128 0x19
 2140 062a 2C000000 		.4byte	.LBB5
 2141 062e 34000000 		.4byte	.LBE5
 2142 0632 46060000 		.4byte	0x646
 2143 0636 1A       		.uleb128 0x1a
 2144 0637 746D7000 		.ascii	"tmp\000"
 2145 063b 01       		.byte	0x1
 2146 063c 79       		.byte	0x79
 2147 063d 70000000 		.4byte	0x70
 2148 0641 9B010000 		.4byte	.LLST11
 2149 0645 00       		.byte	0
 2150 0646 1B       		.uleb128 0x1b
 2151 0647 14000000 		.4byte	.LVL15
 2152 064b 210F0000 		.4byte	0xf21
 2153 064f 1B       		.uleb128 0x1b
 2154 0650 2C000000 		.4byte	.LVL18
 2155 0654 2B0F0000 		.4byte	0xf2b
 2156 0658 1C       		.uleb128 0x1c
 2157 0659 3A000000 		.4byte	.LVL23
 2158 065d 350F0000 		.4byte	0xf35
 2159 0661 1D       		.uleb128 0x1d
 2160 0662 01       		.byte	0x1
 2161 0663 50       		.byte	0x50
 2162 0664 05       		.byte	0x5
 2163 0665 03       		.byte	0x3
 2164 0666 18000000 		.4byte	.LC1
 2165 066a 00       		.byte	0
 2166 066b 00       		.byte	0
 2167 066c 1E       		.uleb128 0x1e
 2168 066d 01       		.byte	0x1
 2169 066e 22030000 		.4byte	.LASF76
 2170 0672 01       		.byte	0x1
 2171 0673 84       		.byte	0x84
 2172 0674 01       		.byte	0x1
 2173 0675 DD000000 		.4byte	0xdd
 2174 0679 00000000 		.4byte	.LFB9
 2175 067d 30000000 		.4byte	.LFE9
 2176 0681 AE010000 		.4byte	.LLST12
 2177 0685 01       		.byte	0x1
 2178 0686 ED060000 		.4byte	0x6ed
 2179 068a 18       		.uleb128 0x18
 2180 068b 1C010000 		.4byte	.LASF73
 2181 068f 01       		.byte	0x1
 2182 0690 84       		.byte	0x84
 2183 0691 DD000000 		.4byte	0xdd
 2184 0695 CE010000 		.4byte	.LLST13
 2185 0699 1F       		.uleb128 0x1f
 2186 069a 6D00     		.ascii	"m\000"
 2187 069c 01       		.byte	0x1
 2188 069d 85       		.byte	0x85
 2189 069e DD000000 		.4byte	0xdd
 2190 06a2 01       		.byte	0x1
ARM GAS  /tmp/cc2dNRNq.s 			page 40


 2191 06a3 54       		.byte	0x54
 2192 06a4 20       		.uleb128 0x20
 2193 06a5 00000000 		.4byte	.Ldebug_ranges0+0
 2194 06a9 BD060000 		.4byte	0x6bd
 2195 06ad 1A       		.uleb128 0x1a
 2196 06ae 746D7000 		.ascii	"tmp\000"
 2197 06b2 01       		.byte	0x1
 2198 06b3 87       		.byte	0x87
 2199 06b4 70000000 		.4byte	0x70
 2200 06b8 FA010000 		.4byte	.LLST14
 2201 06bc 00       		.byte	0
 2202 06bd 19       		.uleb128 0x19
 2203 06be 26000000 		.4byte	.LBB8
 2204 06c2 2C000000 		.4byte	.LBE8
 2205 06c6 DA060000 		.4byte	0x6da
 2206 06ca 1A       		.uleb128 0x1a
 2207 06cb 746D7000 		.ascii	"tmp\000"
 2208 06cf 01       		.byte	0x1
 2209 06d0 8C       		.byte	0x8c
 2210 06d1 70000000 		.4byte	0x70
 2211 06d5 0D020000 		.4byte	.LLST15
 2212 06d9 00       		.byte	0
 2213 06da 1B       		.uleb128 0x1b
 2214 06db 0E000000 		.4byte	.LVL27
 2215 06df 210F0000 		.4byte	0xf21
 2216 06e3 1B       		.uleb128 0x1b
 2217 06e4 26000000 		.4byte	.LVL29
 2218 06e8 2B0F0000 		.4byte	0xf2b
 2219 06ec 00       		.byte	0
 2220 06ed 1E       		.uleb128 0x1e
 2221 06ee 01       		.byte	0x1
 2222 06ef AC000000 		.4byte	.LASF77
 2223 06f3 01       		.byte	0x1
 2224 06f4 99       		.byte	0x99
 2225 06f5 01       		.byte	0x1
 2226 06f6 DD000000 		.4byte	0xdd
 2227 06fa 00000000 		.4byte	.LFB10
 2228 06fe 2C000000 		.4byte	.LFE10
 2229 0702 20020000 		.4byte	.LLST16
 2230 0706 01       		.byte	0x1
 2231 0707 63070000 		.4byte	0x763
 2232 070b 18       		.uleb128 0x18
 2233 070c 1C010000 		.4byte	.LASF73
 2234 0710 01       		.byte	0x1
 2235 0711 99       		.byte	0x99
 2236 0712 DD000000 		.4byte	0xdd
 2237 0716 40020000 		.4byte	.LLST17
 2238 071a 20       		.uleb128 0x20
 2239 071b 18000000 		.4byte	.Ldebug_ranges0+0x18
 2240 071f 33070000 		.4byte	0x733
 2241 0723 1A       		.uleb128 0x1a
 2242 0724 746D7000 		.ascii	"tmp\000"
 2243 0728 01       		.byte	0x1
 2244 0729 9B       		.byte	0x9b
 2245 072a 70000000 		.4byte	0x70
 2246 072e 77020000 		.4byte	.LLST18
 2247 0732 00       		.byte	0
ARM GAS  /tmp/cc2dNRNq.s 			page 41


 2248 0733 19       		.uleb128 0x19
 2249 0734 22000000 		.4byte	.LBB11
 2250 0738 28000000 		.4byte	.LBE11
 2251 073c 50070000 		.4byte	0x750
 2252 0740 1A       		.uleb128 0x1a
 2253 0741 746D7000 		.ascii	"tmp\000"
 2254 0745 01       		.byte	0x1
 2255 0746 9F       		.byte	0x9f
 2256 0747 70000000 		.4byte	0x70
 2257 074b 8A020000 		.4byte	.LLST19
 2258 074f 00       		.byte	0
 2259 0750 1B       		.uleb128 0x1b
 2260 0751 0E000000 		.4byte	.LVL35
 2261 0755 210F0000 		.4byte	0xf21
 2262 0759 1B       		.uleb128 0x1b
 2263 075a 22000000 		.4byte	.LVL38
 2264 075e 2B0F0000 		.4byte	0xf2b
 2265 0762 00       		.byte	0
 2266 0763 21       		.uleb128 0x21
 2267 0764 F6040000 		.4byte	0x4f6
 2268 0768 00000000 		.4byte	.LFB12
 2269 076c 4C000000 		.4byte	.LFE12
 2270 0770 9D020000 		.4byte	.LLST20
 2271 0774 01       		.byte	0x1
 2272 0775 E4070000 		.4byte	0x7e4
 2273 0779 22       		.uleb128 0x22
 2274 077a 04050000 		.4byte	0x504
 2275 077e BD020000 		.4byte	.LLST21
 2276 0782 22       		.uleb128 0x22
 2277 0783 0E050000 		.4byte	0x50e
 2278 0787 DB020000 		.4byte	.LLST22
 2279 078b 23       		.uleb128 0x23
 2280 078c F6040000 		.4byte	0x4f6
 2281 0790 2A000000 		.4byte	.LBB14
 2282 0794 36000000 		.4byte	.LBE14
 2283 0798 01       		.byte	0x1
 2284 0799 C1       		.byte	0xc1
 2285 079a C7070000 		.4byte	0x7c7
 2286 079e 22       		.uleb128 0x22
 2287 079f 04050000 		.4byte	0x504
 2288 07a3 F9020000 		.4byte	.LLST23
 2289 07a7 24       		.uleb128 0x24
 2290 07a8 2A000000 		.4byte	.LBB15
 2291 07ac 36000000 		.4byte	.LBE15
 2292 07b0 25       		.uleb128 0x25
 2293 07b1 0E050000 		.4byte	0x50e
 2294 07b5 1C       		.uleb128 0x1c
 2295 07b6 30000000 		.4byte	.LVL44
 2296 07ba 4F0F0000 		.4byte	0xf4f
 2297 07be 1D       		.uleb128 0x1d
 2298 07bf 01       		.byte	0x1
 2299 07c0 50       		.byte	0x50
 2300 07c1 02       		.byte	0x2
 2301 07c2 74       		.byte	0x74
 2302 07c3 00       		.sleb128 0
 2303 07c4 00       		.byte	0
 2304 07c5 00       		.byte	0
ARM GAS  /tmp/cc2dNRNq.s 			page 42


 2305 07c6 00       		.byte	0
 2306 07c7 1B       		.uleb128 0x1b
 2307 07c8 0A000000 		.4byte	.LVL42
 2308 07cc 670F0000 		.4byte	0xf67
 2309 07d0 1C       		.uleb128 0x1c
 2310 07d1 44000000 		.4byte	.LVL46
 2311 07d5 350F0000 		.4byte	0xf35
 2312 07d9 1D       		.uleb128 0x1d
 2313 07da 01       		.byte	0x1
 2314 07db 50       		.byte	0x50
 2315 07dc 05       		.byte	0x5
 2316 07dd 03       		.byte	0x3
 2317 07de 2C000000 		.4byte	.LC2
 2318 07e2 00       		.byte	0
 2319 07e3 00       		.byte	0
 2320 07e4 16       		.uleb128 0x16
 2321 07e5 01       		.byte	0x1
 2322 07e6 9D020000 		.4byte	.LASF78
 2323 07ea 01       		.byte	0x1
 2324 07eb AB       		.byte	0xab
 2325 07ec 01       		.byte	0x1
 2326 07ed 00000000 		.4byte	.LFB11
 2327 07f1 38000000 		.4byte	.LFE11
 2328 07f5 0C030000 		.4byte	.LLST24
 2329 07f9 01       		.byte	0x1
 2330 07fa 9E080000 		.4byte	0x89e
 2331 07fe 17       		.uleb128 0x17
 2332 07ff 747000   		.ascii	"tp\000"
 2333 0802 01       		.byte	0x1
 2334 0803 AB       		.byte	0xab
 2335 0804 53020000 		.4byte	0x253
 2336 0808 2C030000 		.4byte	.LLST25
 2337 080c 18       		.uleb128 0x18
 2338 080d 1C010000 		.4byte	.LASF73
 2339 0811 01       		.byte	0x1
 2340 0812 AB       		.byte	0xab
 2341 0813 DD000000 		.4byte	0xdd
 2342 0817 60030000 		.4byte	.LLST26
 2343 081b 19       		.uleb128 0x19
 2344 081c 08000000 		.4byte	.LBB16
 2345 0820 0E000000 		.4byte	.LBE16
 2346 0824 38080000 		.4byte	0x838
 2347 0828 1A       		.uleb128 0x1a
 2348 0829 746D7000 		.ascii	"tmp\000"
 2349 082d 01       		.byte	0x1
 2350 082e AF       		.byte	0xaf
 2351 082f 70000000 		.4byte	0x70
 2352 0833 94030000 		.4byte	.LLST27
 2353 0837 00       		.byte	0
 2354 0838 19       		.uleb128 0x19
 2355 0839 22000000 		.4byte	.LBB17
 2356 083d 2A000000 		.4byte	.LBE17
 2357 0841 55080000 		.4byte	0x855
 2358 0845 1A       		.uleb128 0x1a
 2359 0846 746D7000 		.ascii	"tmp\000"
 2360 084a 01       		.byte	0x1
 2361 084b B2       		.byte	0xb2
ARM GAS  /tmp/cc2dNRNq.s 			page 43


 2362 084c 70000000 		.4byte	0x70
 2363 0850 A7030000 		.4byte	.LLST28
 2364 0854 00       		.byte	0
 2365 0855 1B       		.uleb128 0x1b
 2366 0856 12000000 		.4byte	.LVL51
 2367 085a 210F0000 		.4byte	0xf21
 2368 085e 26       		.uleb128 0x26
 2369 085f 1A000000 		.4byte	.LVL52
 2370 0863 F6040000 		.4byte	0x4f6
 2371 0867 78080000 		.4byte	0x878
 2372 086b 1D       		.uleb128 0x1d
 2373 086c 01       		.byte	0x1
 2374 086d 51       		.byte	0x51
 2375 086e 02       		.byte	0x2
 2376 086f 75       		.byte	0x75
 2377 0870 00       		.sleb128 0
 2378 0871 1D       		.uleb128 0x1d
 2379 0872 01       		.byte	0x1
 2380 0873 50       		.byte	0x50
 2381 0874 02       		.byte	0x2
 2382 0875 74       		.byte	0x74
 2383 0876 00       		.sleb128 0
 2384 0877 00       		.byte	0
 2385 0878 1B       		.uleb128 0x1b
 2386 0879 1E000000 		.4byte	.LVL53
 2387 087d 710F0000 		.4byte	0xf71
 2388 0881 1B       		.uleb128 0x1b
 2389 0882 22000000 		.4byte	.LVL54
 2390 0886 2B0F0000 		.4byte	0xf2b
 2391 088a 1C       		.uleb128 0x1c
 2392 088b 30000000 		.4byte	.LVL59
 2393 088f 350F0000 		.4byte	0xf35
 2394 0893 1D       		.uleb128 0x1d
 2395 0894 01       		.byte	0x1
 2396 0895 50       		.byte	0x50
 2397 0896 05       		.byte	0x5
 2398 0897 03       		.byte	0x3
 2399 0898 40000000 		.4byte	.LC3
 2400 089c 00       		.byte	0
 2401 089d 00       		.byte	0
 2402 089e 16       		.uleb128 0x16
 2403 089f 01       		.byte	0x1
 2404 08a0 E6000000 		.4byte	.LASF79
 2405 08a4 01       		.byte	0x1
 2406 08a5 F5       		.byte	0xf5
 2407 08a6 01       		.byte	0x1
 2408 08a7 00000000 		.4byte	.LFB14
 2409 08ab 30000000 		.4byte	.LFE14
 2410 08af BA030000 		.4byte	.LLST29
 2411 08b3 01       		.byte	0x1
 2412 08b4 0B090000 		.4byte	0x90b
 2413 08b8 17       		.uleb128 0x17
 2414 08b9 65737000 		.ascii	"esp\000"
 2415 08bd 01       		.byte	0x1
 2416 08be F5       		.byte	0xf5
 2417 08bf C1050000 		.4byte	0x5c1
 2418 08c3 DA030000 		.4byte	.LLST30
ARM GAS  /tmp/cc2dNRNq.s 			page 44


 2419 08c7 18       		.uleb128 0x18
 2420 08c8 1C010000 		.4byte	.LASF73
 2421 08cc 01       		.byte	0x1
 2422 08cd F5       		.byte	0xf5
 2423 08ce DD000000 		.4byte	0xdd
 2424 08d2 F8030000 		.4byte	.LLST31
 2425 08d6 1A       		.uleb128 0x1a
 2426 08d7 656C7000 		.ascii	"elp\000"
 2427 08db 01       		.byte	0x1
 2428 08dc F6       		.byte	0xf6
 2429 08dd 5A040000 		.4byte	0x45a
 2430 08e1 16040000 		.4byte	.LLST32
 2431 08e5 1B       		.uleb128 0x1b
 2432 08e6 0A000000 		.4byte	.LVL61
 2433 08ea 670F0000 		.4byte	0xf67
 2434 08ee 1B       		.uleb128 0x1b
 2435 08ef 1C000000 		.4byte	.LVL63
 2436 08f3 F6040000 		.4byte	0x4f6
 2437 08f7 1C       		.uleb128 0x1c
 2438 08f8 2A000000 		.4byte	.LVL66
 2439 08fc 350F0000 		.4byte	0xf35
 2440 0900 1D       		.uleb128 0x1d
 2441 0901 01       		.byte	0x1
 2442 0902 50       		.byte	0x50
 2443 0903 05       		.byte	0x5
 2444 0904 03       		.byte	0x3
 2445 0905 50000000 		.4byte	.LC4
 2446 0909 00       		.byte	0
 2447 090a 00       		.byte	0
 2448 090b 16       		.uleb128 0x16
 2449 090c 01       		.byte	0x1
 2450 090d 2A010000 		.4byte	.LASF80
 2451 0911 01       		.byte	0x1
 2452 0912 DC       		.byte	0xdc
 2453 0913 01       		.byte	0x1
 2454 0914 00000000 		.4byte	.LFB13
 2455 0918 28000000 		.4byte	.LFE13
 2456 091c 29040000 		.4byte	.LLST33
 2457 0920 01       		.byte	0x1
 2458 0921 B3090000 		.4byte	0x9b3
 2459 0925 17       		.uleb128 0x17
 2460 0926 65737000 		.ascii	"esp\000"
 2461 092a 01       		.byte	0x1
 2462 092b DC       		.byte	0xdc
 2463 092c C1050000 		.4byte	0x5c1
 2464 0930 49040000 		.4byte	.LLST34
 2465 0934 18       		.uleb128 0x18
 2466 0935 1C010000 		.4byte	.LASF73
 2467 0939 01       		.byte	0x1
 2468 093a DC       		.byte	0xdc
 2469 093b DD000000 		.4byte	0xdd
 2470 093f 67040000 		.4byte	.LLST35
 2471 0943 19       		.uleb128 0x19
 2472 0944 06000000 		.4byte	.LBB18
 2473 0948 0C000000 		.4byte	.LBE18
 2474 094c 60090000 		.4byte	0x960
 2475 0950 1A       		.uleb128 0x1a
ARM GAS  /tmp/cc2dNRNq.s 			page 45


 2476 0951 746D7000 		.ascii	"tmp\000"
 2477 0955 01       		.byte	0x1
 2478 0956 DE       		.byte	0xde
 2479 0957 70000000 		.4byte	0x70
 2480 095b 85040000 		.4byte	.LLST36
 2481 095f 00       		.byte	0
 2482 0960 19       		.uleb128 0x19
 2483 0961 20000000 		.4byte	.LBB19
 2484 0965 28000000 		.4byte	.LBE19
 2485 0969 7D090000 		.4byte	0x97d
 2486 096d 1A       		.uleb128 0x1a
 2487 096e 746D7000 		.ascii	"tmp\000"
 2488 0972 01       		.byte	0x1
 2489 0973 E1       		.byte	0xe1
 2490 0974 70000000 		.4byte	0x70
 2491 0978 98040000 		.4byte	.LLST37
 2492 097c 00       		.byte	0
 2493 097d 1B       		.uleb128 0x1b
 2494 097e 10000000 		.4byte	.LVL70
 2495 0982 210F0000 		.4byte	0xf21
 2496 0986 26       		.uleb128 0x26
 2497 0987 18000000 		.4byte	.LVL71
 2498 098b 9E080000 		.4byte	0x89e
 2499 098f A0090000 		.4byte	0x9a0
 2500 0993 1D       		.uleb128 0x1d
 2501 0994 01       		.byte	0x1
 2502 0995 51       		.byte	0x51
 2503 0996 02       		.byte	0x2
 2504 0997 74       		.byte	0x74
 2505 0998 00       		.sleb128 0
 2506 0999 1D       		.uleb128 0x1d
 2507 099a 01       		.byte	0x1
 2508 099b 50       		.byte	0x50
 2509 099c 02       		.byte	0x2
 2510 099d 75       		.byte	0x75
 2511 099e 00       		.sleb128 0
 2512 099f 00       		.byte	0
 2513 09a0 1B       		.uleb128 0x1b
 2514 09a1 1C000000 		.4byte	.LVL72
 2515 09a5 710F0000 		.4byte	0xf71
 2516 09a9 1B       		.uleb128 0x1b
 2517 09aa 20000000 		.4byte	.LVL73
 2518 09ae 2B0F0000 		.4byte	0xf2b
 2519 09b2 00       		.byte	0
 2520 09b3 27       		.uleb128 0x27
 2521 09b4 01       		.byte	0x1
 2522 09b5 6F020000 		.4byte	.LASF81
 2523 09b9 01       		.byte	0x1
 2524 09ba 0B01     		.2byte	0x10b
 2525 09bc 01       		.byte	0x1
 2526 09bd 00000000 		.4byte	.LFB15
 2527 09c1 50000000 		.4byte	.LFE15
 2528 09c5 AB040000 		.4byte	.LLST38
 2529 09c9 01       		.byte	0x1
 2530 09ca 390A0000 		.4byte	0xa39
 2531 09ce 28       		.uleb128 0x28
 2532 09cf 02030000 		.4byte	.LASF82
ARM GAS  /tmp/cc2dNRNq.s 			page 46


 2533 09d3 01       		.byte	0x1
 2534 09d4 0B01     		.2byte	0x10b
 2535 09d6 390A0000 		.4byte	0xa39
 2536 09da CB040000 		.4byte	.LLST39
 2537 09de 28       		.uleb128 0x28
 2538 09df 1C010000 		.4byte	.LASF73
 2539 09e3 01       		.byte	0x1
 2540 09e4 0B01     		.2byte	0x10b
 2541 09e6 DD000000 		.4byte	0xdd
 2542 09ea FF040000 		.4byte	.LLST40
 2543 09ee 29       		.uleb128 0x29
 2544 09ef 65696400 		.ascii	"eid\000"
 2545 09f3 01       		.byte	0x1
 2546 09f4 0C01     		.2byte	0x10c
 2547 09f6 D2000000 		.4byte	0xd2
 2548 09fa 3E050000 		.4byte	.LLST41
 2549 09fe 2A       		.uleb128 0x2a
 2550 09ff 28000000 		.4byte	.LVL81
 2551 0a03 0E0A0000 		.4byte	0xa0e
 2552 0a07 1D       		.uleb128 0x1d
 2553 0a08 01       		.byte	0x1
 2554 0a09 50       		.byte	0x50
 2555 0a0a 02       		.byte	0x2
 2556 0a0b 74       		.byte	0x74
 2557 0a0c 00       		.sleb128 0
 2558 0a0d 00       		.byte	0
 2559 0a0e 26       		.uleb128 0x26
 2560 0a0f 3A000000 		.4byte	.LVL85
 2561 0a13 350F0000 		.4byte	0xf35
 2562 0a17 250A0000 		.4byte	0xa25
 2563 0a1b 1D       		.uleb128 0x1d
 2564 0a1c 01       		.byte	0x1
 2565 0a1d 50       		.byte	0x50
 2566 0a1e 05       		.byte	0x5
 2567 0a1f 03       		.byte	0x3
 2568 0a20 7C000000 		.4byte	.LC6
 2569 0a24 00       		.byte	0
 2570 0a25 1C       		.uleb128 0x1c
 2571 0a26 46000000 		.4byte	.LVL88
 2572 0a2a 350F0000 		.4byte	0xf35
 2573 0a2e 1D       		.uleb128 0x1d
 2574 0a2f 01       		.byte	0x1
 2575 0a30 50       		.byte	0x50
 2576 0a31 05       		.byte	0x5
 2577 0a32 03       		.byte	0x3
 2578 0a33 68000000 		.4byte	.LC5
 2579 0a37 00       		.byte	0
 2580 0a38 00       		.byte	0
 2581 0a39 09       		.uleb128 0x9
 2582 0a3a 04       		.byte	0x4
 2583 0a3b 3F0A0000 		.4byte	0xa3f
 2584 0a3f 12       		.uleb128 0x12
 2585 0a40 86040000 		.4byte	0x486
 2586 0a44 2B       		.uleb128 0x2b
 2587 0a45 01       		.byte	0x1
 2588 0a46 48030000 		.4byte	.LASF83
 2589 0a4a 01       		.byte	0x1
ARM GAS  /tmp/cc2dNRNq.s 			page 47


 2590 0a4b 2E01     		.2byte	0x12e
 2591 0a4d 01       		.byte	0x1
 2592 0a4e DD000000 		.4byte	0xdd
 2593 0a52 00000000 		.4byte	.LFB16
 2594 0a56 44000000 		.4byte	.LFE16
 2595 0a5a 5D050000 		.4byte	.LLST42
 2596 0a5e 01       		.byte	0x1
 2597 0a5f F10A0000 		.4byte	0xaf1
 2598 0a63 28       		.uleb128 0x28
 2599 0a64 1C010000 		.4byte	.LASF73
 2600 0a68 01       		.byte	0x1
 2601 0a69 2E01     		.2byte	0x12e
 2602 0a6b DD000000 		.4byte	0xdd
 2603 0a6f 7D050000 		.4byte	.LLST43
 2604 0a73 2C       		.uleb128 0x2c
 2605 0a74 63747000 		.ascii	"ctp\000"
 2606 0a78 01       		.byte	0x1
 2607 0a79 2F01     		.2byte	0x12f
 2608 0a7b 53020000 		.4byte	0x253
 2609 0a7f 01       		.byte	0x1
 2610 0a80 55       		.byte	0x55
 2611 0a81 29       		.uleb128 0x29
 2612 0a82 6D00     		.ascii	"m\000"
 2613 0a84 01       		.byte	0x1
 2614 0a85 3001     		.2byte	0x130
 2615 0a87 DD000000 		.4byte	0xdd
 2616 0a8b A9050000 		.4byte	.LLST44
 2617 0a8f 19       		.uleb128 0x19
 2618 0a90 08000000 		.4byte	.LBB20
 2619 0a94 0E000000 		.4byte	.LBE20
 2620 0a98 AD0A0000 		.4byte	0xaad
 2621 0a9c 29       		.uleb128 0x29
 2622 0a9d 746D7000 		.ascii	"tmp\000"
 2623 0aa1 01       		.byte	0x1
 2624 0aa2 3201     		.2byte	0x132
 2625 0aa4 70000000 		.4byte	0x70
 2626 0aa8 E2050000 		.4byte	.LLST45
 2627 0aac 00       		.byte	0
 2628 0aad 19       		.uleb128 0x19
 2629 0aae 36000000 		.4byte	.LBB21
 2630 0ab2 3C000000 		.4byte	.LBE21
 2631 0ab6 CB0A0000 		.4byte	0xacb
 2632 0aba 29       		.uleb128 0x29
 2633 0abb 746D7000 		.ascii	"tmp\000"
 2634 0abf 01       		.byte	0x1
 2635 0ac0 3C01     		.2byte	0x13c
 2636 0ac2 70000000 		.4byte	0x70
 2637 0ac6 F5050000 		.4byte	.LLST46
 2638 0aca 00       		.byte	0
 2639 0acb 1B       		.uleb128 0x1b
 2640 0acc 12000000 		.4byte	.LVL93
 2641 0ad0 210F0000 		.4byte	0xf21
 2642 0ad4 26       		.uleb128 0x26
 2643 0ad5 22000000 		.4byte	.LVL96
 2644 0ad9 7B0F0000 		.4byte	0xf7b
 2645 0add E70A0000 		.4byte	0xae7
 2646 0ae1 1D       		.uleb128 0x1d
ARM GAS  /tmp/cc2dNRNq.s 			page 48


 2647 0ae2 01       		.byte	0x1
 2648 0ae3 50       		.byte	0x50
 2649 0ae4 01       		.byte	0x1
 2650 0ae5 38       		.byte	0x38
 2651 0ae6 00       		.byte	0
 2652 0ae7 1B       		.uleb128 0x1b
 2653 0ae8 36000000 		.4byte	.LVL100
 2654 0aec 2B0F0000 		.4byte	0xf2b
 2655 0af0 00       		.byte	0
 2656 0af1 2B       		.uleb128 0x2b
 2657 0af2 01       		.byte	0x1
 2658 0af3 D9000000 		.4byte	.LASF84
 2659 0af7 01       		.byte	0x1
 2660 0af8 4B01     		.2byte	0x14b
 2661 0afa 01       		.byte	0x1
 2662 0afb DD000000 		.4byte	0xdd
 2663 0aff 00000000 		.4byte	.LFB17
 2664 0b03 40000000 		.4byte	.LFE17
 2665 0b07 08060000 		.4byte	.LLST47
 2666 0b0b 01       		.byte	0x1
 2667 0b0c 9E0B0000 		.4byte	0xb9e
 2668 0b10 28       		.uleb128 0x28
 2669 0b11 1C010000 		.4byte	.LASF73
 2670 0b15 01       		.byte	0x1
 2671 0b16 4B01     		.2byte	0x14b
 2672 0b18 DD000000 		.4byte	0xdd
 2673 0b1c 28060000 		.4byte	.LLST48
 2674 0b20 2C       		.uleb128 0x2c
 2675 0b21 63747000 		.ascii	"ctp\000"
 2676 0b25 01       		.byte	0x1
 2677 0b26 4C01     		.2byte	0x14c
 2678 0b28 53020000 		.4byte	0x253
 2679 0b2c 01       		.byte	0x1
 2680 0b2d 55       		.byte	0x55
 2681 0b2e 29       		.uleb128 0x29
 2682 0b2f 6D00     		.ascii	"m\000"
 2683 0b31 01       		.byte	0x1
 2684 0b32 4D01     		.2byte	0x14d
 2685 0b34 DD000000 		.4byte	0xdd
 2686 0b38 46060000 		.4byte	.LLST49
 2687 0b3c 19       		.uleb128 0x19
 2688 0b3d 08000000 		.4byte	.LBB22
 2689 0b41 0E000000 		.4byte	.LBE22
 2690 0b45 5A0B0000 		.4byte	0xb5a
 2691 0b49 29       		.uleb128 0x29
 2692 0b4a 746D7000 		.ascii	"tmp\000"
 2693 0b4e 01       		.byte	0x1
 2694 0b4f 4F01     		.2byte	0x14f
 2695 0b51 70000000 		.4byte	0x70
 2696 0b55 69060000 		.4byte	.LLST50
 2697 0b59 00       		.byte	0
 2698 0b5a 19       		.uleb128 0x19
 2699 0b5b 32000000 		.4byte	.LBB23
 2700 0b5f 38000000 		.4byte	.LBE23
 2701 0b63 780B0000 		.4byte	0xb78
 2702 0b67 29       		.uleb128 0x29
 2703 0b68 746D7000 		.ascii	"tmp\000"
ARM GAS  /tmp/cc2dNRNq.s 			page 49


 2704 0b6c 01       		.byte	0x1
 2705 0b6d 5801     		.2byte	0x158
 2706 0b6f 70000000 		.4byte	0x70
 2707 0b73 7C060000 		.4byte	.LLST51
 2708 0b77 00       		.byte	0
 2709 0b78 1B       		.uleb128 0x1b
 2710 0b79 12000000 		.4byte	.LVL107
 2711 0b7d 210F0000 		.4byte	0xf21
 2712 0b81 26       		.uleb128 0x26
 2713 0b82 22000000 		.4byte	.LVL110
 2714 0b86 7B0F0000 		.4byte	0xf7b
 2715 0b8a 940B0000 		.4byte	0xb94
 2716 0b8e 1D       		.uleb128 0x1d
 2717 0b8f 01       		.byte	0x1
 2718 0b90 50       		.byte	0x50
 2719 0b91 01       		.byte	0x1
 2720 0b92 38       		.byte	0x38
 2721 0b93 00       		.byte	0
 2722 0b94 1B       		.uleb128 0x1b
 2723 0b95 32000000 		.4byte	.LVL112
 2724 0b99 2B0F0000 		.4byte	0xf2b
 2725 0b9d 00       		.byte	0
 2726 0b9e 2B       		.uleb128 0x2b
 2727 0b9f 01       		.byte	0x1
 2728 0ba0 CC000000 		.4byte	.LASF85
 2729 0ba4 01       		.byte	0x1
 2730 0ba5 6701     		.2byte	0x167
 2731 0ba7 01       		.byte	0x1
 2732 0ba8 DD000000 		.4byte	0xdd
 2733 0bac 00000000 		.4byte	.LFB18
 2734 0bb0 40000000 		.4byte	.LFE18
 2735 0bb4 8F060000 		.4byte	.LLST52
 2736 0bb8 01       		.byte	0x1
 2737 0bb9 3D0C0000 		.4byte	0xc3d
 2738 0bbd 28       		.uleb128 0x28
 2739 0bbe 1C010000 		.4byte	.LASF73
 2740 0bc2 01       		.byte	0x1
 2741 0bc3 6701     		.2byte	0x167
 2742 0bc5 DD000000 		.4byte	0xdd
 2743 0bc9 AF060000 		.4byte	.LLST53
 2744 0bcd 2C       		.uleb128 0x2c
 2745 0bce 63747000 		.ascii	"ctp\000"
 2746 0bd2 01       		.byte	0x1
 2747 0bd3 6801     		.2byte	0x168
 2748 0bd5 53020000 		.4byte	0x253
 2749 0bd9 01       		.byte	0x1
 2750 0bda 55       		.byte	0x55
 2751 0bdb 19       		.uleb128 0x19
 2752 0bdc 08000000 		.4byte	.LBB24
 2753 0be0 0E000000 		.4byte	.LBE24
 2754 0be4 F90B0000 		.4byte	0xbf9
 2755 0be8 29       		.uleb128 0x29
 2756 0be9 746D7000 		.ascii	"tmp\000"
 2757 0bed 01       		.byte	0x1
 2758 0bee 6A01     		.2byte	0x16a
 2759 0bf0 70000000 		.4byte	0x70
 2760 0bf4 CD060000 		.4byte	.LLST54
ARM GAS  /tmp/cc2dNRNq.s 			page 50


 2761 0bf8 00       		.byte	0
 2762 0bf9 19       		.uleb128 0x19
 2763 0bfa 30000000 		.4byte	.LBB25
 2764 0bfe 36000000 		.4byte	.LBE25
 2765 0c02 170C0000 		.4byte	0xc17
 2766 0c06 29       		.uleb128 0x29
 2767 0c07 746D7000 		.ascii	"tmp\000"
 2768 0c0b 01       		.byte	0x1
 2769 0c0c 7201     		.2byte	0x172
 2770 0c0e 70000000 		.4byte	0x70
 2771 0c12 E0060000 		.4byte	.LLST55
 2772 0c16 00       		.byte	0
 2773 0c17 1B       		.uleb128 0x1b
 2774 0c18 12000000 		.4byte	.LVL119
 2775 0c1c 210F0000 		.4byte	0xf21
 2776 0c20 26       		.uleb128 0x26
 2777 0c21 24000000 		.4byte	.LVL120
 2778 0c25 7B0F0000 		.4byte	0xf7b
 2779 0c29 330C0000 		.4byte	0xc33
 2780 0c2d 1D       		.uleb128 0x1d
 2781 0c2e 01       		.byte	0x1
 2782 0c2f 50       		.byte	0x50
 2783 0c30 01       		.byte	0x1
 2784 0c31 39       		.byte	0x39
 2785 0c32 00       		.byte	0
 2786 0c33 1B       		.uleb128 0x1b
 2787 0c34 30000000 		.4byte	.LVL121
 2788 0c38 2B0F0000 		.4byte	0xf2b
 2789 0c3c 00       		.byte	0
 2790 0c3d 2B       		.uleb128 0x2b
 2791 0c3e 01       		.byte	0x1
 2792 0c3f 5D040000 		.4byte	.LASF86
 2793 0c43 01       		.byte	0x1
 2794 0c44 8E01     		.2byte	0x18e
 2795 0c46 01       		.byte	0x1
 2796 0c47 DD000000 		.4byte	0xdd
 2797 0c4b 00000000 		.4byte	.LFB19
 2798 0c4f 5C000000 		.4byte	.LFE19
 2799 0c53 F3060000 		.4byte	.LLST56
 2800 0c57 01       		.byte	0x1
 2801 0c58 270D0000 		.4byte	0xd27
 2802 0c5c 28       		.uleb128 0x28
 2803 0c5d 1C010000 		.4byte	.LASF73
 2804 0c61 01       		.byte	0x1
 2805 0c62 8E01     		.2byte	0x18e
 2806 0c64 DD000000 		.4byte	0xdd
 2807 0c68 13070000 		.4byte	.LLST57
 2808 0c6c 28       		.uleb128 0x28
 2809 0c6d 98020000 		.4byte	.LASF87
 2810 0c71 01       		.byte	0x1
 2811 0c72 8E01     		.2byte	0x18e
 2812 0c74 E8000000 		.4byte	0xe8
 2813 0c78 31070000 		.4byte	.LLST58
 2814 0c7c 2C       		.uleb128 0x2c
 2815 0c7d 63747000 		.ascii	"ctp\000"
 2816 0c81 01       		.byte	0x1
 2817 0c82 8F01     		.2byte	0x18f
ARM GAS  /tmp/cc2dNRNq.s 			page 51


 2818 0c84 53020000 		.4byte	0x253
 2819 0c88 01       		.byte	0x1
 2820 0c89 56       		.byte	0x56
 2821 0c8a 29       		.uleb128 0x29
 2822 0c8b 6D00     		.ascii	"m\000"
 2823 0c8d 01       		.byte	0x1
 2824 0c8e 9001     		.2byte	0x190
 2825 0c90 DD000000 		.4byte	0xdd
 2826 0c94 4F070000 		.4byte	.LLST59
 2827 0c98 19       		.uleb128 0x19
 2828 0c99 0A000000 		.4byte	.LBB26
 2829 0c9d 10000000 		.4byte	.LBE26
 2830 0ca1 B60C0000 		.4byte	0xcb6
 2831 0ca5 29       		.uleb128 0x29
 2832 0ca6 746D7000 		.ascii	"tmp\000"
 2833 0caa 01       		.byte	0x1
 2834 0cab 9201     		.2byte	0x192
 2835 0cad 70000000 		.4byte	0x70
 2836 0cb1 72070000 		.4byte	.LLST60
 2837 0cb5 00       		.byte	0
 2838 0cb6 19       		.uleb128 0x19
 2839 0cb7 40000000 		.4byte	.LBB27
 2840 0cbb 46000000 		.4byte	.LBE27
 2841 0cbf D40C0000 		.4byte	0xcd4
 2842 0cc3 29       		.uleb128 0x29
 2843 0cc4 746D7000 		.ascii	"tmp\000"
 2844 0cc8 01       		.byte	0x1
 2845 0cc9 A301     		.2byte	0x1a3
 2846 0ccb 70000000 		.4byte	0x70
 2847 0ccf 85070000 		.4byte	.LLST61
 2848 0cd3 00       		.byte	0
 2849 0cd4 19       		.uleb128 0x19
 2850 0cd5 4E000000 		.4byte	.LBB28
 2851 0cd9 54000000 		.4byte	.LBE28
 2852 0cdd F20C0000 		.4byte	0xcf2
 2853 0ce1 29       		.uleb128 0x29
 2854 0ce2 746D7000 		.ascii	"tmp\000"
 2855 0ce6 01       		.byte	0x1
 2856 0ce7 9B01     		.2byte	0x19b
 2857 0ce9 70000000 		.4byte	0x70
 2858 0ced 98070000 		.4byte	.LLST62
 2859 0cf1 00       		.byte	0
 2860 0cf2 1B       		.uleb128 0x1b
 2861 0cf3 14000000 		.4byte	.LVL128
 2862 0cf7 210F0000 		.4byte	0xf21
 2863 0cfb 26       		.uleb128 0x26
 2864 0cfc 28000000 		.4byte	.LVL131
 2865 0d00 8F0F0000 		.4byte	0xf8f
 2866 0d04 140D0000 		.4byte	0xd14
 2867 0d08 1D       		.uleb128 0x1d
 2868 0d09 01       		.byte	0x1
 2869 0d0a 51       		.byte	0x51
 2870 0d0b 02       		.byte	0x2
 2871 0d0c 77       		.byte	0x77
 2872 0d0d 00       		.sleb128 0
 2873 0d0e 1D       		.uleb128 0x1d
 2874 0d0f 01       		.byte	0x1
ARM GAS  /tmp/cc2dNRNq.s 			page 52


 2875 0d10 50       		.byte	0x50
 2876 0d11 01       		.byte	0x1
 2877 0d12 38       		.byte	0x38
 2878 0d13 00       		.byte	0
 2879 0d14 1B       		.uleb128 0x1b
 2880 0d15 40000000 		.4byte	.LVL134
 2881 0d19 2B0F0000 		.4byte	0xf2b
 2882 0d1d 1B       		.uleb128 0x1b
 2883 0d1e 4E000000 		.4byte	.LVL138
 2884 0d22 2B0F0000 		.4byte	0xf2b
 2885 0d26 00       		.byte	0
 2886 0d27 2B       		.uleb128 0x2b
 2887 0d28 01       		.byte	0x1
 2888 0d29 53000000 		.4byte	.LASF88
 2889 0d2d 01       		.byte	0x1
 2890 0d2e B901     		.2byte	0x1b9
 2891 0d30 01       		.byte	0x1
 2892 0d31 DD000000 		.4byte	0xdd
 2893 0d35 00000000 		.4byte	.LFB20
 2894 0d39 58000000 		.4byte	.LFE20
 2895 0d3d AB070000 		.4byte	.LLST63
 2896 0d41 01       		.byte	0x1
 2897 0d42 110E0000 		.4byte	0xe11
 2898 0d46 28       		.uleb128 0x28
 2899 0d47 1C010000 		.4byte	.LASF73
 2900 0d4b 01       		.byte	0x1
 2901 0d4c B901     		.2byte	0x1b9
 2902 0d4e DD000000 		.4byte	0xdd
 2903 0d52 CB070000 		.4byte	.LLST64
 2904 0d56 28       		.uleb128 0x28
 2905 0d57 98020000 		.4byte	.LASF87
 2906 0d5b 01       		.byte	0x1
 2907 0d5c B901     		.2byte	0x1b9
 2908 0d5e E8000000 		.4byte	0xe8
 2909 0d62 E9070000 		.4byte	.LLST65
 2910 0d66 2C       		.uleb128 0x2c
 2911 0d67 63747000 		.ascii	"ctp\000"
 2912 0d6b 01       		.byte	0x1
 2913 0d6c BA01     		.2byte	0x1ba
 2914 0d6e 53020000 		.4byte	0x253
 2915 0d72 01       		.byte	0x1
 2916 0d73 55       		.byte	0x55
 2917 0d74 29       		.uleb128 0x29
 2918 0d75 6D00     		.ascii	"m\000"
 2919 0d77 01       		.byte	0x1
 2920 0d78 BB01     		.2byte	0x1bb
 2921 0d7a DD000000 		.4byte	0xdd
 2922 0d7e 07080000 		.4byte	.LLST66
 2923 0d82 19       		.uleb128 0x19
 2924 0d83 0A000000 		.4byte	.LBB29
 2925 0d87 10000000 		.4byte	.LBE29
 2926 0d8b A00D0000 		.4byte	0xda0
 2927 0d8f 29       		.uleb128 0x29
 2928 0d90 746D7000 		.ascii	"tmp\000"
 2929 0d94 01       		.byte	0x1
 2930 0d95 BD01     		.2byte	0x1bd
 2931 0d97 70000000 		.4byte	0x70
ARM GAS  /tmp/cc2dNRNq.s 			page 53


 2932 0d9b 2A080000 		.4byte	.LLST67
 2933 0d9f 00       		.byte	0
 2934 0da0 19       		.uleb128 0x19
 2935 0da1 3C000000 		.4byte	.LBB30
 2936 0da5 42000000 		.4byte	.LBE30
 2937 0da9 BE0D0000 		.4byte	0xdbe
 2938 0dad 29       		.uleb128 0x29
 2939 0dae 746D7000 		.ascii	"tmp\000"
 2940 0db2 01       		.byte	0x1
 2941 0db3 CD01     		.2byte	0x1cd
 2942 0db5 70000000 		.4byte	0x70
 2943 0db9 3D080000 		.4byte	.LLST68
 2944 0dbd 00       		.byte	0
 2945 0dbe 19       		.uleb128 0x19
 2946 0dbf 4A000000 		.4byte	.LBB31
 2947 0dc3 50000000 		.4byte	.LBE31
 2948 0dc7 DC0D0000 		.4byte	0xddc
 2949 0dcb 29       		.uleb128 0x29
 2950 0dcc 746D7000 		.ascii	"tmp\000"
 2951 0dd0 01       		.byte	0x1
 2952 0dd1 C601     		.2byte	0x1c6
 2953 0dd3 70000000 		.4byte	0x70
 2954 0dd7 50080000 		.4byte	.LLST69
 2955 0ddb 00       		.byte	0
 2956 0ddc 1B       		.uleb128 0x1b
 2957 0ddd 14000000 		.4byte	.LVL145
 2958 0de1 210F0000 		.4byte	0xf21
 2959 0de5 26       		.uleb128 0x26
 2960 0de6 28000000 		.4byte	.LVL148
 2961 0dea 8F0F0000 		.4byte	0xf8f
 2962 0dee FE0D0000 		.4byte	0xdfe
 2963 0df2 1D       		.uleb128 0x1d
 2964 0df3 01       		.byte	0x1
 2965 0df4 51       		.byte	0x51
 2966 0df5 02       		.byte	0x2
 2967 0df6 77       		.byte	0x77
 2968 0df7 00       		.sleb128 0
 2969 0df8 1D       		.uleb128 0x1d
 2970 0df9 01       		.byte	0x1
 2971 0dfa 50       		.byte	0x50
 2972 0dfb 01       		.byte	0x1
 2973 0dfc 38       		.byte	0x38
 2974 0dfd 00       		.byte	0
 2975 0dfe 1B       		.uleb128 0x1b
 2976 0dff 3C000000 		.4byte	.LVL150
 2977 0e03 2B0F0000 		.4byte	0xf2b
 2978 0e07 1B       		.uleb128 0x1b
 2979 0e08 4A000000 		.4byte	.LVL154
 2980 0e0c 2B0F0000 		.4byte	0xf2b
 2981 0e10 00       		.byte	0
 2982 0e11 2B       		.uleb128 0x2b
 2983 0e12 01       		.byte	0x1
 2984 0e13 88000000 		.4byte	.LASF89
 2985 0e17 01       		.byte	0x1
 2986 0e18 E201     		.2byte	0x1e2
 2987 0e1a 01       		.byte	0x1
 2988 0e1b DD000000 		.4byte	0xdd
ARM GAS  /tmp/cc2dNRNq.s 			page 54


 2989 0e1f 00000000 		.4byte	.LFB21
 2990 0e23 68000000 		.4byte	.LFE21
 2991 0e27 63080000 		.4byte	.LLST70
 2992 0e2b 01       		.byte	0x1
 2993 0e2c 140F0000 		.4byte	0xf14
 2994 0e30 28       		.uleb128 0x28
 2995 0e31 1C010000 		.4byte	.LASF73
 2996 0e35 01       		.byte	0x1
 2997 0e36 E201     		.2byte	0x1e2
 2998 0e38 DD000000 		.4byte	0xdd
 2999 0e3c 83080000 		.4byte	.LLST71
 3000 0e40 28       		.uleb128 0x28
 3001 0e41 98020000 		.4byte	.LASF87
 3002 0e45 01       		.byte	0x1
 3003 0e46 E201     		.2byte	0x1e2
 3004 0e48 E8000000 		.4byte	0xe8
 3005 0e4c E1080000 		.4byte	.LLST72
 3006 0e50 2C       		.uleb128 0x2c
 3007 0e51 63747000 		.ascii	"ctp\000"
 3008 0e55 01       		.byte	0x1
 3009 0e56 E301     		.2byte	0x1e3
 3010 0e58 53020000 		.4byte	0x253
 3011 0e5c 01       		.byte	0x1
 3012 0e5d 55       		.byte	0x55
 3013 0e5e 19       		.uleb128 0x19
 3014 0e5f 0A000000 		.4byte	.LBB32
 3015 0e63 10000000 		.4byte	.LBE32
 3016 0e67 7C0E0000 		.4byte	0xe7c
 3017 0e6b 29       		.uleb128 0x29
 3018 0e6c 746D7000 		.ascii	"tmp\000"
 3019 0e70 01       		.byte	0x1
 3020 0e71 E501     		.2byte	0x1e5
 3021 0e73 70000000 		.4byte	0x70
 3022 0e77 FF080000 		.4byte	.LLST73
 3023 0e7b 00       		.byte	0
 3024 0e7c 19       		.uleb128 0x19
 3025 0e7d 3A000000 		.4byte	.LBB33
 3026 0e81 40000000 		.4byte	.LBE33
 3027 0e85 9A0E0000 		.4byte	0xe9a
 3028 0e89 29       		.uleb128 0x29
 3029 0e8a 746D7000 		.ascii	"tmp\000"
 3030 0e8e 01       		.byte	0x1
 3031 0e8f F401     		.2byte	0x1f4
 3032 0e91 70000000 		.4byte	0x70
 3033 0e95 12090000 		.4byte	.LLST74
 3034 0e99 00       		.byte	0
 3035 0e9a 19       		.uleb128 0x19
 3036 0e9b 48000000 		.4byte	.LBB34
 3037 0e9f 4E000000 		.4byte	.LBE34
 3038 0ea3 B80E0000 		.4byte	0xeb8
 3039 0ea7 29       		.uleb128 0x29
 3040 0ea8 746D7000 		.ascii	"tmp\000"
 3041 0eac 01       		.byte	0x1
 3042 0ead E901     		.2byte	0x1e9
 3043 0eaf 70000000 		.4byte	0x70
 3044 0eb3 25090000 		.4byte	.LLST75
 3045 0eb7 00       		.byte	0
ARM GAS  /tmp/cc2dNRNq.s 			page 55


 3046 0eb8 19       		.uleb128 0x19
 3047 0eb9 58000000 		.4byte	.LBB35
 3048 0ebd 5E000000 		.4byte	.LBE35
 3049 0ec1 D60E0000 		.4byte	0xed6
 3050 0ec5 29       		.uleb128 0x29
 3051 0ec6 746D7000 		.ascii	"tmp\000"
 3052 0eca 01       		.byte	0x1
 3053 0ecb EE01     		.2byte	0x1ee
 3054 0ecd 70000000 		.4byte	0x70
 3055 0ed1 38090000 		.4byte	.LLST76
 3056 0ed5 00       		.byte	0
 3057 0ed6 1B       		.uleb128 0x1b
 3058 0ed7 14000000 		.4byte	.LVL161
 3059 0edb 210F0000 		.4byte	0xf21
 3060 0edf 26       		.uleb128 0x26
 3061 0ee0 2A000000 		.4byte	.LVL162
 3062 0ee4 8F0F0000 		.4byte	0xf8f
 3063 0ee8 F80E0000 		.4byte	0xef8
 3064 0eec 1D       		.uleb128 0x1d
 3065 0eed 01       		.byte	0x1
 3066 0eee 51       		.byte	0x51
 3067 0eef 02       		.byte	0x2
 3068 0ef0 76       		.byte	0x76
 3069 0ef1 00       		.sleb128 0
 3070 0ef2 1D       		.uleb128 0x1d
 3071 0ef3 01       		.byte	0x1
 3072 0ef4 50       		.byte	0x50
 3073 0ef5 01       		.byte	0x1
 3074 0ef6 39       		.byte	0x39
 3075 0ef7 00       		.byte	0
 3076 0ef8 1B       		.uleb128 0x1b
 3077 0ef9 3A000000 		.4byte	.LVL163
 3078 0efd 2B0F0000 		.4byte	0xf2b
 3079 0f01 1B       		.uleb128 0x1b
 3080 0f02 48000000 		.4byte	.LVL167
 3081 0f06 2B0F0000 		.4byte	0xf2b
 3082 0f0a 1B       		.uleb128 0x1b
 3083 0f0b 58000000 		.4byte	.LVL172
 3084 0f0f 2B0F0000 		.4byte	0xf2b
 3085 0f13 00       		.byte	0
 3086 0f14 2D       		.uleb128 0x2d
 3087 0f15 22040000 		.4byte	.LASF101
 3088 0f19 07       		.byte	0x7
 3089 0f1a 72       		.byte	0x72
 3090 0f1b C5030000 		.4byte	0x3c5
 3091 0f1f 01       		.byte	0x1
 3092 0f20 01       		.byte	0x1
 3093 0f21 2E       		.uleb128 0x2e
 3094 0f22 01       		.byte	0x1
 3095 0f23 BF040000 		.4byte	.LASF90
 3096 0f27 0A       		.byte	0xa
 3097 0f28 E2       		.byte	0xe2
 3098 0f29 01       		.byte	0x1
 3099 0f2a 01       		.byte	0x1
 3100 0f2b 2E       		.uleb128 0x2e
 3101 0f2c 01       		.byte	0x1
 3102 0f2d 55020000 		.4byte	.LASF91
ARM GAS  /tmp/cc2dNRNq.s 			page 56


 3103 0f31 0A       		.byte	0xa
 3104 0f32 E3       		.byte	0xe3
 3105 0f33 01       		.byte	0x1
 3106 0f34 01       		.byte	0x1
 3107 0f35 2F       		.uleb128 0x2f
 3108 0f36 01       		.byte	0x1
 3109 0f37 06000000 		.4byte	.LASF93
 3110 0f3b 0A       		.byte	0xa
 3111 0f3c F0       		.byte	0xf0
 3112 0f3d 01       		.byte	0x1
 3113 0f3e 01       		.byte	0x1
 3114 0f3f 490F0000 		.4byte	0xf49
 3115 0f43 0F       		.uleb128 0xf
 3116 0f44 490F0000 		.4byte	0xf49
 3117 0f48 00       		.byte	0
 3118 0f49 09       		.uleb128 0x9
 3119 0f4a 04       		.byte	0x4
 3120 0f4b E3040000 		.4byte	0x4e3
 3121 0f4f 30       		.uleb128 0x30
 3122 0f50 01       		.byte	0x1
 3123 0f51 CB030000 		.4byte	.LASF102
 3124 0f55 07       		.byte	0x7
 3125 0f56 93       		.byte	0x93
 3126 0f57 01       		.byte	0x1
 3127 0f58 53020000 		.4byte	0x253
 3128 0f5c 01       		.byte	0x1
 3129 0f5d 670F0000 		.4byte	0xf67
 3130 0f61 0F       		.uleb128 0xf
 3131 0f62 53020000 		.4byte	0x253
 3132 0f66 00       		.byte	0
 3133 0f67 2E       		.uleb128 0x2e
 3134 0f68 01       		.byte	0x1
 3135 0f69 9C040000 		.4byte	.LASF94
 3136 0f6d 0A       		.byte	0xa
 3137 0f6e E8       		.byte	0xe8
 3138 0f6f 01       		.byte	0x1
 3139 0f70 01       		.byte	0x1
 3140 0f71 2E       		.uleb128 0x2e
 3141 0f72 01       		.byte	0x1
 3142 0f73 03010000 		.4byte	.LASF95
 3143 0f77 07       		.byte	0x7
 3144 0f78 9F       		.byte	0x9f
 3145 0f79 01       		.byte	0x1
 3146 0f7a 01       		.byte	0x1
 3147 0f7b 2F       		.uleb128 0x2f
 3148 0f7c 01       		.byte	0x1
 3149 0f7d A1030000 		.4byte	.LASF96
 3150 0f81 07       		.byte	0x7
 3151 0f82 96       		.byte	0x96
 3152 0f83 01       		.byte	0x1
 3153 0f84 01       		.byte	0x1
 3154 0f85 8F0F0000 		.4byte	0xf8f
 3155 0f89 0F       		.uleb128 0xf
 3156 0f8a A6000000 		.4byte	0xa6
 3157 0f8e 00       		.byte	0
 3158 0f8f 31       		.uleb128 0x31
 3159 0f90 01       		.byte	0x1
ARM GAS  /tmp/cc2dNRNq.s 			page 57


 3160 0f91 87040000 		.4byte	.LASF97
 3161 0f95 07       		.byte	0x7
 3162 0f96 99       		.byte	0x99
 3163 0f97 01       		.byte	0x1
 3164 0f98 C7000000 		.4byte	0xc7
 3165 0f9c 01       		.byte	0x1
 3166 0f9d 0F       		.uleb128 0xf
 3167 0f9e A6000000 		.4byte	0xa6
 3168 0fa2 0F       		.uleb128 0xf
 3169 0fa3 E8000000 		.4byte	0xe8
 3170 0fa7 00       		.byte	0
 3171 0fa8 00       		.byte	0
 3172              		.section	.debug_abbrev,"",%progbits
 3173              	.Ldebug_abbrev0:
 3174 0000 01       		.uleb128 0x1
 3175 0001 11       		.uleb128 0x11
 3176 0002 01       		.byte	0x1
 3177 0003 25       		.uleb128 0x25
 3178 0004 0E       		.uleb128 0xe
 3179 0005 13       		.uleb128 0x13
 3180 0006 0B       		.uleb128 0xb
 3181 0007 03       		.uleb128 0x3
 3182 0008 0E       		.uleb128 0xe
 3183 0009 1B       		.uleb128 0x1b
 3184 000a 0E       		.uleb128 0xe
 3185 000b 55       		.uleb128 0x55
 3186 000c 06       		.uleb128 0x6
 3187 000d 11       		.uleb128 0x11
 3188 000e 01       		.uleb128 0x1
 3189 000f 52       		.uleb128 0x52
 3190 0010 01       		.uleb128 0x1
 3191 0011 10       		.uleb128 0x10
 3192 0012 06       		.uleb128 0x6
 3193 0013 00       		.byte	0
 3194 0014 00       		.byte	0
 3195 0015 02       		.uleb128 0x2
 3196 0016 24       		.uleb128 0x24
 3197 0017 00       		.byte	0
 3198 0018 0B       		.uleb128 0xb
 3199 0019 0B       		.uleb128 0xb
 3200 001a 3E       		.uleb128 0x3e
 3201 001b 0B       		.uleb128 0xb
 3202 001c 03       		.uleb128 0x3
 3203 001d 08       		.uleb128 0x8
 3204 001e 00       		.byte	0
 3205 001f 00       		.byte	0
 3206 0020 03       		.uleb128 0x3
 3207 0021 24       		.uleb128 0x24
 3208 0022 00       		.byte	0
 3209 0023 0B       		.uleb128 0xb
 3210 0024 0B       		.uleb128 0xb
 3211 0025 3E       		.uleb128 0x3e
 3212 0026 0B       		.uleb128 0xb
 3213 0027 03       		.uleb128 0x3
 3214 0028 0E       		.uleb128 0xe
 3215 0029 00       		.byte	0
 3216 002a 00       		.byte	0
ARM GAS  /tmp/cc2dNRNq.s 			page 58


 3217 002b 04       		.uleb128 0x4
 3218 002c 16       		.uleb128 0x16
 3219 002d 00       		.byte	0
 3220 002e 03       		.uleb128 0x3
 3221 002f 0E       		.uleb128 0xe
 3222 0030 3A       		.uleb128 0x3a
 3223 0031 0B       		.uleb128 0xb
 3224 0032 3B       		.uleb128 0x3b
 3225 0033 0B       		.uleb128 0xb
 3226 0034 49       		.uleb128 0x49
 3227 0035 13       		.uleb128 0x13
 3228 0036 00       		.byte	0
 3229 0037 00       		.byte	0
 3230 0038 05       		.uleb128 0x5
 3231 0039 13       		.uleb128 0x13
 3232 003a 01       		.byte	0x1
 3233 003b 03       		.uleb128 0x3
 3234 003c 0E       		.uleb128 0xe
 3235 003d 0B       		.uleb128 0xb
 3236 003e 0B       		.uleb128 0xb
 3237 003f 3A       		.uleb128 0x3a
 3238 0040 0B       		.uleb128 0xb
 3239 0041 3B       		.uleb128 0x3b
 3240 0042 0B       		.uleb128 0xb
 3241 0043 01       		.uleb128 0x1
 3242 0044 13       		.uleb128 0x13
 3243 0045 00       		.byte	0
 3244 0046 00       		.byte	0
 3245 0047 06       		.uleb128 0x6
 3246 0048 0D       		.uleb128 0xd
 3247 0049 00       		.byte	0
 3248 004a 03       		.uleb128 0x3
 3249 004b 0E       		.uleb128 0xe
 3250 004c 3A       		.uleb128 0x3a
 3251 004d 0B       		.uleb128 0xb
 3252 004e 3B       		.uleb128 0x3b
 3253 004f 0B       		.uleb128 0xb
 3254 0050 49       		.uleb128 0x49
 3255 0051 13       		.uleb128 0x13
 3256 0052 38       		.uleb128 0x38
 3257 0053 0A       		.uleb128 0xa
 3258 0054 00       		.byte	0
 3259 0055 00       		.byte	0
 3260 0056 07       		.uleb128 0x7
 3261 0057 0D       		.uleb128 0xd
 3262 0058 00       		.byte	0
 3263 0059 03       		.uleb128 0x3
 3264 005a 08       		.uleb128 0x8
 3265 005b 3A       		.uleb128 0x3a
 3266 005c 0B       		.uleb128 0xb
 3267 005d 3B       		.uleb128 0x3b
 3268 005e 0B       		.uleb128 0xb
 3269 005f 49       		.uleb128 0x49
 3270 0060 13       		.uleb128 0x13
 3271 0061 38       		.uleb128 0x38
 3272 0062 0A       		.uleb128 0xa
 3273 0063 00       		.byte	0
ARM GAS  /tmp/cc2dNRNq.s 			page 59


 3274 0064 00       		.byte	0
 3275 0065 08       		.uleb128 0x8
 3276 0066 13       		.uleb128 0x13
 3277 0067 01       		.byte	0x1
 3278 0068 0B       		.uleb128 0xb
 3279 0069 0B       		.uleb128 0xb
 3280 006a 3A       		.uleb128 0x3a
 3281 006b 0B       		.uleb128 0xb
 3282 006c 3B       		.uleb128 0x3b
 3283 006d 0B       		.uleb128 0xb
 3284 006e 01       		.uleb128 0x1
 3285 006f 13       		.uleb128 0x13
 3286 0070 00       		.byte	0
 3287 0071 00       		.byte	0
 3288 0072 09       		.uleb128 0x9
 3289 0073 0F       		.uleb128 0xf
 3290 0074 00       		.byte	0
 3291 0075 0B       		.uleb128 0xb
 3292 0076 0B       		.uleb128 0xb
 3293 0077 49       		.uleb128 0x49
 3294 0078 13       		.uleb128 0x13
 3295 0079 00       		.byte	0
 3296 007a 00       		.byte	0
 3297 007b 0A       		.uleb128 0xa
 3298 007c 0F       		.uleb128 0xf
 3299 007d 00       		.byte	0
 3300 007e 0B       		.uleb128 0xb
 3301 007f 0B       		.uleb128 0xb
 3302 0080 00       		.byte	0
 3303 0081 00       		.byte	0
 3304 0082 0B       		.uleb128 0xb
 3305 0083 0D       		.uleb128 0xd
 3306 0084 00       		.byte	0
 3307 0085 03       		.uleb128 0x3
 3308 0086 08       		.uleb128 0x8
 3309 0087 3A       		.uleb128 0x3a
 3310 0088 0B       		.uleb128 0xb
 3311 0089 3B       		.uleb128 0x3b
 3312 008a 05       		.uleb128 0x5
 3313 008b 49       		.uleb128 0x49
 3314 008c 13       		.uleb128 0x13
 3315 008d 38       		.uleb128 0x38
 3316 008e 0A       		.uleb128 0xa
 3317 008f 00       		.byte	0
 3318 0090 00       		.byte	0
 3319 0091 0C       		.uleb128 0xc
 3320 0092 13       		.uleb128 0x13
 3321 0093 01       		.byte	0x1
 3322 0094 03       		.uleb128 0x3
 3323 0095 0E       		.uleb128 0xe
 3324 0096 0B       		.uleb128 0xb
 3325 0097 0B       		.uleb128 0xb
 3326 0098 3A       		.uleb128 0x3a
 3327 0099 0B       		.uleb128 0xb
 3328 009a 3B       		.uleb128 0x3b
 3329 009b 05       		.uleb128 0x5
 3330 009c 01       		.uleb128 0x1
ARM GAS  /tmp/cc2dNRNq.s 			page 60


 3331 009d 13       		.uleb128 0x13
 3332 009e 00       		.byte	0
 3333 009f 00       		.byte	0
 3334 00a0 0D       		.uleb128 0xd
 3335 00a1 35       		.uleb128 0x35
 3336 00a2 00       		.byte	0
 3337 00a3 49       		.uleb128 0x49
 3338 00a4 13       		.uleb128 0x13
 3339 00a5 00       		.byte	0
 3340 00a6 00       		.byte	0
 3341 00a7 0E       		.uleb128 0xe
 3342 00a8 15       		.uleb128 0x15
 3343 00a9 01       		.byte	0x1
 3344 00aa 27       		.uleb128 0x27
 3345 00ab 0C       		.uleb128 0xc
 3346 00ac 01       		.uleb128 0x1
 3347 00ad 13       		.uleb128 0x13
 3348 00ae 00       		.byte	0
 3349 00af 00       		.byte	0
 3350 00b0 0F       		.uleb128 0xf
 3351 00b1 05       		.uleb128 0x5
 3352 00b2 00       		.byte	0
 3353 00b3 49       		.uleb128 0x49
 3354 00b4 13       		.uleb128 0x13
 3355 00b5 00       		.byte	0
 3356 00b6 00       		.byte	0
 3357 00b7 10       		.uleb128 0x10
 3358 00b8 17       		.uleb128 0x17
 3359 00b9 01       		.byte	0x1
 3360 00ba 0B       		.uleb128 0xb
 3361 00bb 0B       		.uleb128 0xb
 3362 00bc 3A       		.uleb128 0x3a
 3363 00bd 0B       		.uleb128 0xb
 3364 00be 3B       		.uleb128 0x3b
 3365 00bf 0B       		.uleb128 0xb
 3366 00c0 01       		.uleb128 0x1
 3367 00c1 13       		.uleb128 0x13
 3368 00c2 00       		.byte	0
 3369 00c3 00       		.byte	0
 3370 00c4 11       		.uleb128 0x11
 3371 00c5 0D       		.uleb128 0xd
 3372 00c6 00       		.byte	0
 3373 00c7 03       		.uleb128 0x3
 3374 00c8 0E       		.uleb128 0xe
 3375 00c9 3A       		.uleb128 0x3a
 3376 00ca 0B       		.uleb128 0xb
 3377 00cb 3B       		.uleb128 0x3b
 3378 00cc 0B       		.uleb128 0xb
 3379 00cd 49       		.uleb128 0x49
 3380 00ce 13       		.uleb128 0x13
 3381 00cf 00       		.byte	0
 3382 00d0 00       		.byte	0
 3383 00d1 12       		.uleb128 0x12
 3384 00d2 26       		.uleb128 0x26
 3385 00d3 00       		.byte	0
 3386 00d4 49       		.uleb128 0x49
 3387 00d5 13       		.uleb128 0x13
ARM GAS  /tmp/cc2dNRNq.s 			page 61


 3388 00d6 00       		.byte	0
 3389 00d7 00       		.byte	0
 3390 00d8 13       		.uleb128 0x13
 3391 00d9 2E       		.uleb128 0x2e
 3392 00da 01       		.byte	0x1
 3393 00db 3F       		.uleb128 0x3f
 3394 00dc 0C       		.uleb128 0xc
 3395 00dd 03       		.uleb128 0x3
 3396 00de 0E       		.uleb128 0xe
 3397 00df 3A       		.uleb128 0x3a
 3398 00e0 0B       		.uleb128 0xb
 3399 00e1 3B       		.uleb128 0x3b
 3400 00e2 0B       		.uleb128 0xb
 3401 00e3 27       		.uleb128 0x27
 3402 00e4 0C       		.uleb128 0xc
 3403 00e5 20       		.uleb128 0x20
 3404 00e6 0B       		.uleb128 0xb
 3405 00e7 01       		.uleb128 0x1
 3406 00e8 13       		.uleb128 0x13
 3407 00e9 00       		.byte	0
 3408 00ea 00       		.byte	0
 3409 00eb 14       		.uleb128 0x14
 3410 00ec 05       		.uleb128 0x5
 3411 00ed 00       		.byte	0
 3412 00ee 03       		.uleb128 0x3
 3413 00ef 08       		.uleb128 0x8
 3414 00f0 3A       		.uleb128 0x3a
 3415 00f1 0B       		.uleb128 0xb
 3416 00f2 3B       		.uleb128 0x3b
 3417 00f3 0B       		.uleb128 0xb
 3418 00f4 49       		.uleb128 0x49
 3419 00f5 13       		.uleb128 0x13
 3420 00f6 00       		.byte	0
 3421 00f7 00       		.byte	0
 3422 00f8 15       		.uleb128 0x15
 3423 00f9 05       		.uleb128 0x5
 3424 00fa 00       		.byte	0
 3425 00fb 03       		.uleb128 0x3
 3426 00fc 0E       		.uleb128 0xe
 3427 00fd 3A       		.uleb128 0x3a
 3428 00fe 0B       		.uleb128 0xb
 3429 00ff 3B       		.uleb128 0x3b
 3430 0100 0B       		.uleb128 0xb
 3431 0101 49       		.uleb128 0x49
 3432 0102 13       		.uleb128 0x13
 3433 0103 00       		.byte	0
 3434 0104 00       		.byte	0
 3435 0105 16       		.uleb128 0x16
 3436 0106 2E       		.uleb128 0x2e
 3437 0107 01       		.byte	0x1
 3438 0108 3F       		.uleb128 0x3f
 3439 0109 0C       		.uleb128 0xc
 3440 010a 03       		.uleb128 0x3
 3441 010b 0E       		.uleb128 0xe
 3442 010c 3A       		.uleb128 0x3a
 3443 010d 0B       		.uleb128 0xb
 3444 010e 3B       		.uleb128 0x3b
ARM GAS  /tmp/cc2dNRNq.s 			page 62


 3445 010f 0B       		.uleb128 0xb
 3446 0110 27       		.uleb128 0x27
 3447 0111 0C       		.uleb128 0xc
 3448 0112 11       		.uleb128 0x11
 3449 0113 01       		.uleb128 0x1
 3450 0114 12       		.uleb128 0x12
 3451 0115 01       		.uleb128 0x1
 3452 0116 40       		.uleb128 0x40
 3453 0117 06       		.uleb128 0x6
 3454 0118 9742     		.uleb128 0x2117
 3455 011a 0C       		.uleb128 0xc
 3456 011b 01       		.uleb128 0x1
 3457 011c 13       		.uleb128 0x13
 3458 011d 00       		.byte	0
 3459 011e 00       		.byte	0
 3460 011f 17       		.uleb128 0x17
 3461 0120 05       		.uleb128 0x5
 3462 0121 00       		.byte	0
 3463 0122 03       		.uleb128 0x3
 3464 0123 08       		.uleb128 0x8
 3465 0124 3A       		.uleb128 0x3a
 3466 0125 0B       		.uleb128 0xb
 3467 0126 3B       		.uleb128 0x3b
 3468 0127 0B       		.uleb128 0xb
 3469 0128 49       		.uleb128 0x49
 3470 0129 13       		.uleb128 0x13
 3471 012a 02       		.uleb128 0x2
 3472 012b 06       		.uleb128 0x6
 3473 012c 00       		.byte	0
 3474 012d 00       		.byte	0
 3475 012e 18       		.uleb128 0x18
 3476 012f 05       		.uleb128 0x5
 3477 0130 00       		.byte	0
 3478 0131 03       		.uleb128 0x3
 3479 0132 0E       		.uleb128 0xe
 3480 0133 3A       		.uleb128 0x3a
 3481 0134 0B       		.uleb128 0xb
 3482 0135 3B       		.uleb128 0x3b
 3483 0136 0B       		.uleb128 0xb
 3484 0137 49       		.uleb128 0x49
 3485 0138 13       		.uleb128 0x13
 3486 0139 02       		.uleb128 0x2
 3487 013a 06       		.uleb128 0x6
 3488 013b 00       		.byte	0
 3489 013c 00       		.byte	0
 3490 013d 19       		.uleb128 0x19
 3491 013e 0B       		.uleb128 0xb
 3492 013f 01       		.byte	0x1
 3493 0140 11       		.uleb128 0x11
 3494 0141 01       		.uleb128 0x1
 3495 0142 12       		.uleb128 0x12
 3496 0143 01       		.uleb128 0x1
 3497 0144 01       		.uleb128 0x1
 3498 0145 13       		.uleb128 0x13
 3499 0146 00       		.byte	0
 3500 0147 00       		.byte	0
 3501 0148 1A       		.uleb128 0x1a
ARM GAS  /tmp/cc2dNRNq.s 			page 63


 3502 0149 34       		.uleb128 0x34
 3503 014a 00       		.byte	0
 3504 014b 03       		.uleb128 0x3
 3505 014c 08       		.uleb128 0x8
 3506 014d 3A       		.uleb128 0x3a
 3507 014e 0B       		.uleb128 0xb
 3508 014f 3B       		.uleb128 0x3b
 3509 0150 0B       		.uleb128 0xb
 3510 0151 49       		.uleb128 0x49
 3511 0152 13       		.uleb128 0x13
 3512 0153 02       		.uleb128 0x2
 3513 0154 06       		.uleb128 0x6
 3514 0155 00       		.byte	0
 3515 0156 00       		.byte	0
 3516 0157 1B       		.uleb128 0x1b
 3517 0158 898201   		.uleb128 0x4109
 3518 015b 00       		.byte	0
 3519 015c 11       		.uleb128 0x11
 3520 015d 01       		.uleb128 0x1
 3521 015e 31       		.uleb128 0x31
 3522 015f 13       		.uleb128 0x13
 3523 0160 00       		.byte	0
 3524 0161 00       		.byte	0
 3525 0162 1C       		.uleb128 0x1c
 3526 0163 898201   		.uleb128 0x4109
 3527 0166 01       		.byte	0x1
 3528 0167 11       		.uleb128 0x11
 3529 0168 01       		.uleb128 0x1
 3530 0169 31       		.uleb128 0x31
 3531 016a 13       		.uleb128 0x13
 3532 016b 00       		.byte	0
 3533 016c 00       		.byte	0
 3534 016d 1D       		.uleb128 0x1d
 3535 016e 8A8201   		.uleb128 0x410a
 3536 0171 00       		.byte	0
 3537 0172 02       		.uleb128 0x2
 3538 0173 0A       		.uleb128 0xa
 3539 0174 9142     		.uleb128 0x2111
 3540 0176 0A       		.uleb128 0xa
 3541 0177 00       		.byte	0
 3542 0178 00       		.byte	0
 3543 0179 1E       		.uleb128 0x1e
 3544 017a 2E       		.uleb128 0x2e
 3545 017b 01       		.byte	0x1
 3546 017c 3F       		.uleb128 0x3f
 3547 017d 0C       		.uleb128 0xc
 3548 017e 03       		.uleb128 0x3
 3549 017f 0E       		.uleb128 0xe
 3550 0180 3A       		.uleb128 0x3a
 3551 0181 0B       		.uleb128 0xb
 3552 0182 3B       		.uleb128 0x3b
 3553 0183 0B       		.uleb128 0xb
 3554 0184 27       		.uleb128 0x27
 3555 0185 0C       		.uleb128 0xc
 3556 0186 49       		.uleb128 0x49
 3557 0187 13       		.uleb128 0x13
 3558 0188 11       		.uleb128 0x11
ARM GAS  /tmp/cc2dNRNq.s 			page 64


 3559 0189 01       		.uleb128 0x1
 3560 018a 12       		.uleb128 0x12
 3561 018b 01       		.uleb128 0x1
 3562 018c 40       		.uleb128 0x40
 3563 018d 06       		.uleb128 0x6
 3564 018e 9742     		.uleb128 0x2117
 3565 0190 0C       		.uleb128 0xc
 3566 0191 01       		.uleb128 0x1
 3567 0192 13       		.uleb128 0x13
 3568 0193 00       		.byte	0
 3569 0194 00       		.byte	0
 3570 0195 1F       		.uleb128 0x1f
 3571 0196 34       		.uleb128 0x34
 3572 0197 00       		.byte	0
 3573 0198 03       		.uleb128 0x3
 3574 0199 08       		.uleb128 0x8
 3575 019a 3A       		.uleb128 0x3a
 3576 019b 0B       		.uleb128 0xb
 3577 019c 3B       		.uleb128 0x3b
 3578 019d 0B       		.uleb128 0xb
 3579 019e 49       		.uleb128 0x49
 3580 019f 13       		.uleb128 0x13
 3581 01a0 02       		.uleb128 0x2
 3582 01a1 0A       		.uleb128 0xa
 3583 01a2 00       		.byte	0
 3584 01a3 00       		.byte	0
 3585 01a4 20       		.uleb128 0x20
 3586 01a5 0B       		.uleb128 0xb
 3587 01a6 01       		.byte	0x1
 3588 01a7 55       		.uleb128 0x55
 3589 01a8 06       		.uleb128 0x6
 3590 01a9 01       		.uleb128 0x1
 3591 01aa 13       		.uleb128 0x13
 3592 01ab 00       		.byte	0
 3593 01ac 00       		.byte	0
 3594 01ad 21       		.uleb128 0x21
 3595 01ae 2E       		.uleb128 0x2e
 3596 01af 01       		.byte	0x1
 3597 01b0 31       		.uleb128 0x31
 3598 01b1 13       		.uleb128 0x13
 3599 01b2 11       		.uleb128 0x11
 3600 01b3 01       		.uleb128 0x1
 3601 01b4 12       		.uleb128 0x12
 3602 01b5 01       		.uleb128 0x1
 3603 01b6 40       		.uleb128 0x40
 3604 01b7 06       		.uleb128 0x6
 3605 01b8 9742     		.uleb128 0x2117
 3606 01ba 0C       		.uleb128 0xc
 3607 01bb 01       		.uleb128 0x1
 3608 01bc 13       		.uleb128 0x13
 3609 01bd 00       		.byte	0
 3610 01be 00       		.byte	0
 3611 01bf 22       		.uleb128 0x22
 3612 01c0 05       		.uleb128 0x5
 3613 01c1 00       		.byte	0
 3614 01c2 31       		.uleb128 0x31
 3615 01c3 13       		.uleb128 0x13
ARM GAS  /tmp/cc2dNRNq.s 			page 65


 3616 01c4 02       		.uleb128 0x2
 3617 01c5 06       		.uleb128 0x6
 3618 01c6 00       		.byte	0
 3619 01c7 00       		.byte	0
 3620 01c8 23       		.uleb128 0x23
 3621 01c9 1D       		.uleb128 0x1d
 3622 01ca 01       		.byte	0x1
 3623 01cb 31       		.uleb128 0x31
 3624 01cc 13       		.uleb128 0x13
 3625 01cd 11       		.uleb128 0x11
 3626 01ce 01       		.uleb128 0x1
 3627 01cf 12       		.uleb128 0x12
 3628 01d0 01       		.uleb128 0x1
 3629 01d1 58       		.uleb128 0x58
 3630 01d2 0B       		.uleb128 0xb
 3631 01d3 59       		.uleb128 0x59
 3632 01d4 0B       		.uleb128 0xb
 3633 01d5 01       		.uleb128 0x1
 3634 01d6 13       		.uleb128 0x13
 3635 01d7 00       		.byte	0
 3636 01d8 00       		.byte	0
 3637 01d9 24       		.uleb128 0x24
 3638 01da 0B       		.uleb128 0xb
 3639 01db 01       		.byte	0x1
 3640 01dc 11       		.uleb128 0x11
 3641 01dd 01       		.uleb128 0x1
 3642 01de 12       		.uleb128 0x12
 3643 01df 01       		.uleb128 0x1
 3644 01e0 00       		.byte	0
 3645 01e1 00       		.byte	0
 3646 01e2 25       		.uleb128 0x25
 3647 01e3 05       		.uleb128 0x5
 3648 01e4 00       		.byte	0
 3649 01e5 31       		.uleb128 0x31
 3650 01e6 13       		.uleb128 0x13
 3651 01e7 00       		.byte	0
 3652 01e8 00       		.byte	0
 3653 01e9 26       		.uleb128 0x26
 3654 01ea 898201   		.uleb128 0x4109
 3655 01ed 01       		.byte	0x1
 3656 01ee 11       		.uleb128 0x11
 3657 01ef 01       		.uleb128 0x1
 3658 01f0 31       		.uleb128 0x31
 3659 01f1 13       		.uleb128 0x13
 3660 01f2 01       		.uleb128 0x1
 3661 01f3 13       		.uleb128 0x13
 3662 01f4 00       		.byte	0
 3663 01f5 00       		.byte	0
 3664 01f6 27       		.uleb128 0x27
 3665 01f7 2E       		.uleb128 0x2e
 3666 01f8 01       		.byte	0x1
 3667 01f9 3F       		.uleb128 0x3f
 3668 01fa 0C       		.uleb128 0xc
 3669 01fb 03       		.uleb128 0x3
 3670 01fc 0E       		.uleb128 0xe
 3671 01fd 3A       		.uleb128 0x3a
 3672 01fe 0B       		.uleb128 0xb
ARM GAS  /tmp/cc2dNRNq.s 			page 66


 3673 01ff 3B       		.uleb128 0x3b
 3674 0200 05       		.uleb128 0x5
 3675 0201 27       		.uleb128 0x27
 3676 0202 0C       		.uleb128 0xc
 3677 0203 11       		.uleb128 0x11
 3678 0204 01       		.uleb128 0x1
 3679 0205 12       		.uleb128 0x12
 3680 0206 01       		.uleb128 0x1
 3681 0207 40       		.uleb128 0x40
 3682 0208 06       		.uleb128 0x6
 3683 0209 9742     		.uleb128 0x2117
 3684 020b 0C       		.uleb128 0xc
 3685 020c 01       		.uleb128 0x1
 3686 020d 13       		.uleb128 0x13
 3687 020e 00       		.byte	0
 3688 020f 00       		.byte	0
 3689 0210 28       		.uleb128 0x28
 3690 0211 05       		.uleb128 0x5
 3691 0212 00       		.byte	0
 3692 0213 03       		.uleb128 0x3
 3693 0214 0E       		.uleb128 0xe
 3694 0215 3A       		.uleb128 0x3a
 3695 0216 0B       		.uleb128 0xb
 3696 0217 3B       		.uleb128 0x3b
 3697 0218 05       		.uleb128 0x5
 3698 0219 49       		.uleb128 0x49
 3699 021a 13       		.uleb128 0x13
 3700 021b 02       		.uleb128 0x2
 3701 021c 06       		.uleb128 0x6
 3702 021d 00       		.byte	0
 3703 021e 00       		.byte	0
 3704 021f 29       		.uleb128 0x29
 3705 0220 34       		.uleb128 0x34
 3706 0221 00       		.byte	0
 3707 0222 03       		.uleb128 0x3
 3708 0223 08       		.uleb128 0x8
 3709 0224 3A       		.uleb128 0x3a
 3710 0225 0B       		.uleb128 0xb
 3711 0226 3B       		.uleb128 0x3b
 3712 0227 05       		.uleb128 0x5
 3713 0228 49       		.uleb128 0x49
 3714 0229 13       		.uleb128 0x13
 3715 022a 02       		.uleb128 0x2
 3716 022b 06       		.uleb128 0x6
 3717 022c 00       		.byte	0
 3718 022d 00       		.byte	0
 3719 022e 2A       		.uleb128 0x2a
 3720 022f 898201   		.uleb128 0x4109
 3721 0232 01       		.byte	0x1
 3722 0233 11       		.uleb128 0x11
 3723 0234 01       		.uleb128 0x1
 3724 0235 01       		.uleb128 0x1
 3725 0236 13       		.uleb128 0x13
 3726 0237 00       		.byte	0
 3727 0238 00       		.byte	0
 3728 0239 2B       		.uleb128 0x2b
 3729 023a 2E       		.uleb128 0x2e
ARM GAS  /tmp/cc2dNRNq.s 			page 67


 3730 023b 01       		.byte	0x1
 3731 023c 3F       		.uleb128 0x3f
 3732 023d 0C       		.uleb128 0xc
 3733 023e 03       		.uleb128 0x3
 3734 023f 0E       		.uleb128 0xe
 3735 0240 3A       		.uleb128 0x3a
 3736 0241 0B       		.uleb128 0xb
 3737 0242 3B       		.uleb128 0x3b
 3738 0243 05       		.uleb128 0x5
 3739 0244 27       		.uleb128 0x27
 3740 0245 0C       		.uleb128 0xc
 3741 0246 49       		.uleb128 0x49
 3742 0247 13       		.uleb128 0x13
 3743 0248 11       		.uleb128 0x11
 3744 0249 01       		.uleb128 0x1
 3745 024a 12       		.uleb128 0x12
 3746 024b 01       		.uleb128 0x1
 3747 024c 40       		.uleb128 0x40
 3748 024d 06       		.uleb128 0x6
 3749 024e 9742     		.uleb128 0x2117
 3750 0250 0C       		.uleb128 0xc
 3751 0251 01       		.uleb128 0x1
 3752 0252 13       		.uleb128 0x13
 3753 0253 00       		.byte	0
 3754 0254 00       		.byte	0
 3755 0255 2C       		.uleb128 0x2c
 3756 0256 34       		.uleb128 0x34
 3757 0257 00       		.byte	0
 3758 0258 03       		.uleb128 0x3
 3759 0259 08       		.uleb128 0x8
 3760 025a 3A       		.uleb128 0x3a
 3761 025b 0B       		.uleb128 0xb
 3762 025c 3B       		.uleb128 0x3b
 3763 025d 05       		.uleb128 0x5
 3764 025e 49       		.uleb128 0x49
 3765 025f 13       		.uleb128 0x13
 3766 0260 02       		.uleb128 0x2
 3767 0261 0A       		.uleb128 0xa
 3768 0262 00       		.byte	0
 3769 0263 00       		.byte	0
 3770 0264 2D       		.uleb128 0x2d
 3771 0265 34       		.uleb128 0x34
 3772 0266 00       		.byte	0
 3773 0267 03       		.uleb128 0x3
 3774 0268 0E       		.uleb128 0xe
 3775 0269 3A       		.uleb128 0x3a
 3776 026a 0B       		.uleb128 0xb
 3777 026b 3B       		.uleb128 0x3b
 3778 026c 0B       		.uleb128 0xb
 3779 026d 49       		.uleb128 0x49
 3780 026e 13       		.uleb128 0x13
 3781 026f 3F       		.uleb128 0x3f
 3782 0270 0C       		.uleb128 0xc
 3783 0271 3C       		.uleb128 0x3c
 3784 0272 0C       		.uleb128 0xc
 3785 0273 00       		.byte	0
 3786 0274 00       		.byte	0
ARM GAS  /tmp/cc2dNRNq.s 			page 68


 3787 0275 2E       		.uleb128 0x2e
 3788 0276 2E       		.uleb128 0x2e
 3789 0277 00       		.byte	0
 3790 0278 3F       		.uleb128 0x3f
 3791 0279 0C       		.uleb128 0xc
 3792 027a 03       		.uleb128 0x3
 3793 027b 0E       		.uleb128 0xe
 3794 027c 3A       		.uleb128 0x3a
 3795 027d 0B       		.uleb128 0xb
 3796 027e 3B       		.uleb128 0x3b
 3797 027f 0B       		.uleb128 0xb
 3798 0280 27       		.uleb128 0x27
 3799 0281 0C       		.uleb128 0xc
 3800 0282 3C       		.uleb128 0x3c
 3801 0283 0C       		.uleb128 0xc
 3802 0284 00       		.byte	0
 3803 0285 00       		.byte	0
 3804 0286 2F       		.uleb128 0x2f
 3805 0287 2E       		.uleb128 0x2e
 3806 0288 01       		.byte	0x1
 3807 0289 3F       		.uleb128 0x3f
 3808 028a 0C       		.uleb128 0xc
 3809 028b 03       		.uleb128 0x3
 3810 028c 0E       		.uleb128 0xe
 3811 028d 3A       		.uleb128 0x3a
 3812 028e 0B       		.uleb128 0xb
 3813 028f 3B       		.uleb128 0x3b
 3814 0290 0B       		.uleb128 0xb
 3815 0291 27       		.uleb128 0x27
 3816 0292 0C       		.uleb128 0xc
 3817 0293 3C       		.uleb128 0x3c
 3818 0294 0C       		.uleb128 0xc
 3819 0295 01       		.uleb128 0x1
 3820 0296 13       		.uleb128 0x13
 3821 0297 00       		.byte	0
 3822 0298 00       		.byte	0
 3823 0299 30       		.uleb128 0x30
 3824 029a 2E       		.uleb128 0x2e
 3825 029b 01       		.byte	0x1
 3826 029c 3F       		.uleb128 0x3f
 3827 029d 0C       		.uleb128 0xc
 3828 029e 03       		.uleb128 0x3
 3829 029f 0E       		.uleb128 0xe
 3830 02a0 3A       		.uleb128 0x3a
 3831 02a1 0B       		.uleb128 0xb
 3832 02a2 3B       		.uleb128 0x3b
 3833 02a3 0B       		.uleb128 0xb
 3834 02a4 27       		.uleb128 0x27
 3835 02a5 0C       		.uleb128 0xc
 3836 02a6 49       		.uleb128 0x49
 3837 02a7 13       		.uleb128 0x13
 3838 02a8 3C       		.uleb128 0x3c
 3839 02a9 0C       		.uleb128 0xc
 3840 02aa 01       		.uleb128 0x1
 3841 02ab 13       		.uleb128 0x13
 3842 02ac 00       		.byte	0
 3843 02ad 00       		.byte	0
ARM GAS  /tmp/cc2dNRNq.s 			page 69


 3844 02ae 31       		.uleb128 0x31
 3845 02af 2E       		.uleb128 0x2e
 3846 02b0 01       		.byte	0x1
 3847 02b1 3F       		.uleb128 0x3f
 3848 02b2 0C       		.uleb128 0xc
 3849 02b3 03       		.uleb128 0x3
 3850 02b4 0E       		.uleb128 0xe
 3851 02b5 3A       		.uleb128 0x3a
 3852 02b6 0B       		.uleb128 0xb
 3853 02b7 3B       		.uleb128 0x3b
 3854 02b8 0B       		.uleb128 0xb
 3855 02b9 27       		.uleb128 0x27
 3856 02ba 0C       		.uleb128 0xc
 3857 02bb 49       		.uleb128 0x49
 3858 02bc 13       		.uleb128 0x13
 3859 02bd 3C       		.uleb128 0x3c
 3860 02be 0C       		.uleb128 0xc
 3861 02bf 00       		.byte	0
 3862 02c0 00       		.byte	0
 3863 02c1 00       		.byte	0
 3864              		.section	.debug_loc,"",%progbits
 3865              	.Ldebug_loc0:
 3866              	.LLST0:
 3867 0000 00000000 		.4byte	.LFB7
 3868 0004 02000000 		.4byte	.LCFI0
 3869 0008 0200     		.2byte	0x2
 3870 000a 7D       		.byte	0x7d
 3871 000b 00       		.sleb128 0
 3872 000c 02000000 		.4byte	.LCFI0
 3873 0010 40000000 		.4byte	.LFE7
 3874 0014 0200     		.2byte	0x2
 3875 0016 7D       		.byte	0x7d
 3876 0017 10       		.sleb128 16
 3877 0018 00000000 		.4byte	0
 3878 001c 00000000 		.4byte	0
 3879              	.LLST1:
 3880 0020 00000000 		.4byte	.LVL0
 3881 0024 0C000000 		.4byte	.LVL1
 3882 0028 0100     		.2byte	0x1
 3883 002a 50       		.byte	0x50
 3884 002b 0C000000 		.4byte	.LVL1
 3885 002f 30000000 		.4byte	.LVL8
 3886 0033 0100     		.2byte	0x1
 3887 0035 55       		.byte	0x55
 3888 0036 30000000 		.4byte	.LVL8
 3889 003a 32000000 		.4byte	.LVL9
 3890 003e 0100     		.2byte	0x1
 3891 0040 50       		.byte	0x50
 3892 0041 32000000 		.4byte	.LVL9
 3893 0045 40000000 		.4byte	.LFE7
 3894 0049 0100     		.2byte	0x1
 3895 004b 55       		.byte	0x55
 3896 004c 00000000 		.4byte	0
 3897 0050 00000000 		.4byte	0
 3898              	.LLST2:
 3899 0054 00000000 		.4byte	.LVL0
 3900 0058 0C000000 		.4byte	.LVL1
ARM GAS  /tmp/cc2dNRNq.s 			page 70


 3901 005c 0100     		.2byte	0x1
 3902 005e 51       		.byte	0x51
 3903 005f 0C000000 		.4byte	.LVL1
 3904 0063 30000000 		.4byte	.LVL8
 3905 0067 0100     		.2byte	0x1
 3906 0069 54       		.byte	0x54
 3907 006a 30000000 		.4byte	.LVL8
 3908 006e 35000000 		.4byte	.LVL10-1
 3909 0072 0100     		.2byte	0x1
 3910 0074 51       		.byte	0x51
 3911 0075 35000000 		.4byte	.LVL10-1
 3912 0079 40000000 		.4byte	.LFE7
 3913 007d 0100     		.2byte	0x1
 3914 007f 54       		.byte	0x54
 3915 0080 00000000 		.4byte	0
 3916 0084 00000000 		.4byte	0
 3917              	.LLST3:
 3918 0088 00000000 		.4byte	.LVL0
 3919 008c 0C000000 		.4byte	.LVL1
 3920 0090 0100     		.2byte	0x1
 3921 0092 52       		.byte	0x52
 3922 0093 0C000000 		.4byte	.LVL1
 3923 0097 30000000 		.4byte	.LVL8
 3924 009b 0100     		.2byte	0x1
 3925 009d 56       		.byte	0x56
 3926 009e 30000000 		.4byte	.LVL8
 3927 00a2 35000000 		.4byte	.LVL10-1
 3928 00a6 0100     		.2byte	0x1
 3929 00a8 52       		.byte	0x52
 3930 00a9 35000000 		.4byte	.LVL10-1
 3931 00ad 40000000 		.4byte	.LFE7
 3932 00b1 0100     		.2byte	0x1
 3933 00b3 56       		.byte	0x56
 3934 00b4 00000000 		.4byte	0
 3935 00b8 00000000 		.4byte	0
 3936              	.LLST4:
 3937 00bc 12000000 		.4byte	.LVL3
 3938 00c0 15000000 		.4byte	.LVL4-1
 3939 00c4 0100     		.2byte	0x1
 3940 00c6 53       		.byte	0x53
 3941 00c7 00000000 		.4byte	0
 3942 00cb 00000000 		.4byte	0
 3943              	.LLST5:
 3944 00cf 2E000000 		.4byte	.LVL7
 3945 00d3 30000000 		.4byte	.LVL8
 3946 00d7 0100     		.2byte	0x1
 3947 00d9 53       		.byte	0x53
 3948 00da 00000000 		.4byte	0
 3949 00de 00000000 		.4byte	0
 3950              	.LLST6:
 3951 00e2 00000000 		.4byte	.LFB8
 3952 00e6 02000000 		.4byte	.LCFI1
 3953 00ea 0200     		.2byte	0x2
 3954 00ec 7D       		.byte	0x7d
 3955 00ed 00       		.sleb128 0
 3956 00ee 02000000 		.4byte	.LCFI1
 3957 00f2 40000000 		.4byte	.LFE8
ARM GAS  /tmp/cc2dNRNq.s 			page 71


 3958 00f6 0200     		.2byte	0x2
 3959 00f8 7D       		.byte	0x7d
 3960 00f9 10       		.sleb128 16
 3961 00fa 00000000 		.4byte	0
 3962 00fe 00000000 		.4byte	0
 3963              	.LLST7:
 3964 0102 00000000 		.4byte	.LVL11
 3965 0106 0A000000 		.4byte	.LVL12
 3966 010a 0100     		.2byte	0x1
 3967 010c 50       		.byte	0x50
 3968 010d 0A000000 		.4byte	.LVL12
 3969 0111 34000000 		.4byte	.LVL21
 3970 0115 0100     		.2byte	0x1
 3971 0117 54       		.byte	0x54
 3972 0118 34000000 		.4byte	.LVL21
 3973 011c 36000000 		.4byte	.LVL22
 3974 0120 0100     		.2byte	0x1
 3975 0122 50       		.byte	0x50
 3976 0123 36000000 		.4byte	.LVL22
 3977 0127 40000000 		.4byte	.LFE8
 3978 012b 0100     		.2byte	0x1
 3979 012d 54       		.byte	0x54
 3980 012e 00000000 		.4byte	0
 3981 0132 00000000 		.4byte	0
 3982              	.LLST8:
 3983 0136 00000000 		.4byte	.LVL11
 3984 013a 0A000000 		.4byte	.LVL12
 3985 013e 0100     		.2byte	0x1
 3986 0140 51       		.byte	0x51
 3987 0141 0A000000 		.4byte	.LVL12
 3988 0145 34000000 		.4byte	.LVL21
 3989 0149 0100     		.2byte	0x1
 3990 014b 55       		.byte	0x55
 3991 014c 34000000 		.4byte	.LVL21
 3992 0150 39000000 		.4byte	.LVL23-1
 3993 0154 0100     		.2byte	0x1
 3994 0156 51       		.byte	0x51
 3995 0157 39000000 		.4byte	.LVL23-1
 3996 015b 40000000 		.4byte	.LFE8
 3997 015f 0100     		.2byte	0x1
 3998 0161 55       		.byte	0x55
 3999 0162 00000000 		.4byte	0
 4000 0166 00000000 		.4byte	0
 4001              	.LLST9:
 4002 016a 0A000000 		.4byte	.LVL12
 4003 016e 18000000 		.4byte	.LVL16
 4004 0172 0100     		.2byte	0x1
 4005 0174 54       		.byte	0x54
 4006 0175 18000000 		.4byte	.LVL16
 4007 0179 2B000000 		.4byte	.LVL18-1
 4008 017d 0100     		.2byte	0x1
 4009 017f 52       		.byte	0x52
 4010 0180 00000000 		.4byte	0
 4011 0184 00000000 		.4byte	0
 4012              	.LLST10:
 4013 0188 10000000 		.4byte	.LVL14
 4014 018c 13000000 		.4byte	.LVL15-1
ARM GAS  /tmp/cc2dNRNq.s 			page 72


 4015 0190 0100     		.2byte	0x1
 4016 0192 53       		.byte	0x53
 4017 0193 00000000 		.4byte	0
 4018 0197 00000000 		.4byte	0
 4019              	.LLST11:
 4020 019b 32000000 		.4byte	.LVL20
 4021 019f 34000000 		.4byte	.LVL21
 4022 01a3 0100     		.2byte	0x1
 4023 01a5 53       		.byte	0x53
 4024 01a6 00000000 		.4byte	0
 4025 01aa 00000000 		.4byte	0
 4026              	.LLST12:
 4027 01ae 00000000 		.4byte	.LFB9
 4028 01b2 02000000 		.4byte	.LCFI2
 4029 01b6 0200     		.2byte	0x2
 4030 01b8 7D       		.byte	0x7d
 4031 01b9 00       		.sleb128 0
 4032 01ba 02000000 		.4byte	.LCFI2
 4033 01be 30000000 		.4byte	.LFE9
 4034 01c2 0200     		.2byte	0x2
 4035 01c4 7D       		.byte	0x7d
 4036 01c5 08       		.sleb128 8
 4037 01c6 00000000 		.4byte	0
 4038 01ca 00000000 		.4byte	0
 4039              	.LLST13:
 4040 01ce 00000000 		.4byte	.LVL24
 4041 01d2 0D000000 		.4byte	.LVL27-1
 4042 01d6 0100     		.2byte	0x1
 4043 01d8 50       		.byte	0x50
 4044 01d9 0D000000 		.4byte	.LVL27-1
 4045 01dd 22000000 		.4byte	.LVL28
 4046 01e1 0100     		.2byte	0x1
 4047 01e3 54       		.byte	0x54
 4048 01e4 22000000 		.4byte	.LVL28
 4049 01e8 30000000 		.4byte	.LFE9
 4050 01ec 0400     		.2byte	0x4
 4051 01ee F3       		.byte	0xf3
 4052 01ef 01       		.uleb128 0x1
 4053 01f0 50       		.byte	0x50
 4054 01f1 9F       		.byte	0x9f
 4055 01f2 00000000 		.4byte	0
 4056 01f6 00000000 		.4byte	0
 4057              	.LLST14:
 4058 01fa 0A000000 		.4byte	.LVL26
 4059 01fe 0D000000 		.4byte	.LVL27-1
 4060 0202 0100     		.2byte	0x1
 4061 0204 53       		.byte	0x53
 4062 0205 00000000 		.4byte	0
 4063 0209 00000000 		.4byte	0
 4064              	.LLST15:
 4065 020d 2C000000 		.4byte	.LVL31
 4066 0211 30000000 		.4byte	.LFE9
 4067 0215 0100     		.2byte	0x1
 4068 0217 53       		.byte	0x53
 4069 0218 00000000 		.4byte	0
 4070 021c 00000000 		.4byte	0
 4071              	.LLST16:
ARM GAS  /tmp/cc2dNRNq.s 			page 73


 4072 0220 00000000 		.4byte	.LFB10
 4073 0224 02000000 		.4byte	.LCFI3
 4074 0228 0200     		.2byte	0x2
 4075 022a 7D       		.byte	0x7d
 4076 022b 00       		.sleb128 0
 4077 022c 02000000 		.4byte	.LCFI3
 4078 0230 2C000000 		.4byte	.LFE10
 4079 0234 0200     		.2byte	0x2
 4080 0236 7D       		.byte	0x7d
 4081 0237 08       		.sleb128 8
 4082 0238 00000000 		.4byte	0
 4083 023c 00000000 		.4byte	0
 4084              	.LLST17:
 4085 0240 00000000 		.4byte	.LVL32
 4086 0244 0D000000 		.4byte	.LVL35-1
 4087 0248 0100     		.2byte	0x1
 4088 024a 50       		.byte	0x50
 4089 024b 0D000000 		.4byte	.LVL35-1
 4090 024f 1C000000 		.4byte	.LVL36
 4091 0253 0100     		.2byte	0x1
 4092 0255 54       		.byte	0x54
 4093 0256 1C000000 		.4byte	.LVL36
 4094 025a 1E000000 		.4byte	.LVL37
 4095 025e 0400     		.2byte	0x4
 4096 0260 F3       		.byte	0xf3
 4097 0261 01       		.uleb128 0x1
 4098 0262 50       		.byte	0x50
 4099 0263 9F       		.byte	0x9f
 4100 0264 1E000000 		.4byte	.LVL37
 4101 0268 2C000000 		.4byte	.LFE10
 4102 026c 0100     		.2byte	0x1
 4103 026e 54       		.byte	0x54
 4104 026f 00000000 		.4byte	0
 4105 0273 00000000 		.4byte	0
 4106              	.LLST18:
 4107 0277 0A000000 		.4byte	.LVL34
 4108 027b 0D000000 		.4byte	.LVL35-1
 4109 027f 0100     		.2byte	0x1
 4110 0281 53       		.byte	0x53
 4111 0282 00000000 		.4byte	0
 4112 0286 00000000 		.4byte	0
 4113              	.LLST19:
 4114 028a 28000000 		.4byte	.LVL40
 4115 028e 2C000000 		.4byte	.LFE10
 4116 0292 0100     		.2byte	0x1
 4117 0294 53       		.byte	0x53
 4118 0295 00000000 		.4byte	0
 4119 0299 00000000 		.4byte	0
 4120              	.LLST20:
 4121 029d 00000000 		.4byte	.LFB12
 4122 02a1 02000000 		.4byte	.LCFI4
 4123 02a5 0200     		.2byte	0x2
 4124 02a7 7D       		.byte	0x7d
 4125 02a8 00       		.sleb128 0
 4126 02a9 02000000 		.4byte	.LCFI4
 4127 02ad 4C000000 		.4byte	.LFE12
 4128 02b1 0200     		.2byte	0x2
ARM GAS  /tmp/cc2dNRNq.s 			page 74


 4129 02b3 7D       		.byte	0x7d
 4130 02b4 10       		.sleb128 16
 4131 02b5 00000000 		.4byte	0
 4132 02b9 00000000 		.4byte	0
 4133              	.LLST21:
 4134 02bd 00000000 		.4byte	.LVL41
 4135 02c1 09000000 		.4byte	.LVL42-1
 4136 02c5 0100     		.2byte	0x1
 4137 02c7 50       		.byte	0x50
 4138 02c8 09000000 		.4byte	.LVL42-1
 4139 02cc 4C000000 		.4byte	.LFE12
 4140 02d0 0100     		.2byte	0x1
 4141 02d2 54       		.byte	0x54
 4142 02d3 00000000 		.4byte	0
 4143 02d7 00000000 		.4byte	0
 4144              	.LLST22:
 4145 02db 00000000 		.4byte	.LVL41
 4146 02df 09000000 		.4byte	.LVL42-1
 4147 02e3 0100     		.2byte	0x1
 4148 02e5 51       		.byte	0x51
 4149 02e6 09000000 		.4byte	.LVL42-1
 4150 02ea 4C000000 		.4byte	.LFE12
 4151 02ee 0100     		.2byte	0x1
 4152 02f0 55       		.byte	0x55
 4153 02f1 00000000 		.4byte	0
 4154 02f5 00000000 		.4byte	0
 4155              	.LLST23:
 4156 02f9 2A000000 		.4byte	.LVL43
 4157 02fd 36000000 		.4byte	.LVL45
 4158 0301 0100     		.2byte	0x1
 4159 0303 54       		.byte	0x54
 4160 0304 00000000 		.4byte	0
 4161 0308 00000000 		.4byte	0
 4162              	.LLST24:
 4163 030c 00000000 		.4byte	.LFB11
 4164 0310 02000000 		.4byte	.LCFI5
 4165 0314 0200     		.2byte	0x2
 4166 0316 7D       		.byte	0x7d
 4167 0317 00       		.sleb128 0
 4168 0318 02000000 		.4byte	.LCFI5
 4169 031c 38000000 		.4byte	.LFE11
 4170 0320 0200     		.2byte	0x2
 4171 0322 7D       		.byte	0x7d
 4172 0323 10       		.sleb128 16
 4173 0324 00000000 		.4byte	0
 4174 0328 00000000 		.4byte	0
 4175              	.LLST25:
 4176 032c 00000000 		.4byte	.LVL47
 4177 0330 08000000 		.4byte	.LVL48
 4178 0334 0100     		.2byte	0x1
 4179 0336 50       		.byte	0x50
 4180 0337 08000000 		.4byte	.LVL48
 4181 033b 2A000000 		.4byte	.LVL57
 4182 033f 0100     		.2byte	0x1
 4183 0341 54       		.byte	0x54
 4184 0342 2A000000 		.4byte	.LVL57
 4185 0346 2C000000 		.4byte	.LVL58
ARM GAS  /tmp/cc2dNRNq.s 			page 75


 4186 034a 0100     		.2byte	0x1
 4187 034c 50       		.byte	0x50
 4188 034d 2C000000 		.4byte	.LVL58
 4189 0351 38000000 		.4byte	.LFE11
 4190 0355 0100     		.2byte	0x1
 4191 0357 54       		.byte	0x54
 4192 0358 00000000 		.4byte	0
 4193 035c 00000000 		.4byte	0
 4194              	.LLST26:
 4195 0360 00000000 		.4byte	.LVL47
 4196 0364 08000000 		.4byte	.LVL48
 4197 0368 0100     		.2byte	0x1
 4198 036a 51       		.byte	0x51
 4199 036b 08000000 		.4byte	.LVL48
 4200 036f 2A000000 		.4byte	.LVL57
 4201 0373 0100     		.2byte	0x1
 4202 0375 55       		.byte	0x55
 4203 0376 2A000000 		.4byte	.LVL57
 4204 037a 2F000000 		.4byte	.LVL59-1
 4205 037e 0100     		.2byte	0x1
 4206 0380 51       		.byte	0x51
 4207 0381 2F000000 		.4byte	.LVL59-1
 4208 0385 38000000 		.4byte	.LFE11
 4209 0389 0100     		.2byte	0x1
 4210 038b 55       		.byte	0x55
 4211 038c 00000000 		.4byte	0
 4212 0390 00000000 		.4byte	0
 4213              	.LLST27:
 4214 0394 0E000000 		.4byte	.LVL50
 4215 0398 11000000 		.4byte	.LVL51-1
 4216 039c 0100     		.2byte	0x1
 4217 039e 53       		.byte	0x53
 4218 039f 00000000 		.4byte	0
 4219 03a3 00000000 		.4byte	0
 4220              	.LLST28:
 4221 03a7 28000000 		.4byte	.LVL56
 4222 03ab 2A000000 		.4byte	.LVL57
 4223 03af 0100     		.2byte	0x1
 4224 03b1 53       		.byte	0x53
 4225 03b2 00000000 		.4byte	0
 4226 03b6 00000000 		.4byte	0
 4227              	.LLST29:
 4228 03ba 00000000 		.4byte	.LFB14
 4229 03be 02000000 		.4byte	.LCFI6
 4230 03c2 0200     		.2byte	0x2
 4231 03c4 7D       		.byte	0x7d
 4232 03c5 00       		.sleb128 0
 4233 03c6 02000000 		.4byte	.LCFI6
 4234 03ca 30000000 		.4byte	.LFE14
 4235 03ce 0200     		.2byte	0x2
 4236 03d0 7D       		.byte	0x7d
 4237 03d1 10       		.sleb128 16
 4238 03d2 00000000 		.4byte	0
 4239 03d6 00000000 		.4byte	0
 4240              	.LLST30:
 4241 03da 00000000 		.4byte	.LVL60
 4242 03de 09000000 		.4byte	.LVL61-1
ARM GAS  /tmp/cc2dNRNq.s 			page 76


 4243 03e2 0100     		.2byte	0x1
 4244 03e4 50       		.byte	0x50
 4245 03e5 09000000 		.4byte	.LVL61-1
 4246 03e9 30000000 		.4byte	.LFE14
 4247 03ed 0100     		.2byte	0x1
 4248 03ef 55       		.byte	0x55
 4249 03f0 00000000 		.4byte	0
 4250 03f4 00000000 		.4byte	0
 4251              	.LLST31:
 4252 03f8 00000000 		.4byte	.LVL60
 4253 03fc 09000000 		.4byte	.LVL61-1
 4254 0400 0100     		.2byte	0x1
 4255 0402 51       		.byte	0x51
 4256 0403 09000000 		.4byte	.LVL61-1
 4257 0407 30000000 		.4byte	.LFE14
 4258 040b 0100     		.2byte	0x1
 4259 040d 56       		.byte	0x56
 4260 040e 00000000 		.4byte	0
 4261 0412 00000000 		.4byte	0
 4262              	.LLST32:
 4263 0416 0E000000 		.4byte	.LVL62
 4264 041a 24000000 		.4byte	.LVL65
 4265 041e 0100     		.2byte	0x1
 4266 0420 54       		.byte	0x54
 4267 0421 00000000 		.4byte	0
 4268 0425 00000000 		.4byte	0
 4269              	.LLST33:
 4270 0429 00000000 		.4byte	.LFB13
 4271 042d 02000000 		.4byte	.LCFI7
 4272 0431 0200     		.2byte	0x2
 4273 0433 7D       		.byte	0x7d
 4274 0434 00       		.sleb128 0
 4275 0435 02000000 		.4byte	.LCFI7
 4276 0439 28000000 		.4byte	.LFE13
 4277 043d 0200     		.2byte	0x2
 4278 043f 7D       		.byte	0x7d
 4279 0440 10       		.sleb128 16
 4280 0441 00000000 		.4byte	0
 4281 0445 00000000 		.4byte	0
 4282              	.LLST34:
 4283 0449 00000000 		.4byte	.LVL67
 4284 044d 0F000000 		.4byte	.LVL70-1
 4285 0451 0100     		.2byte	0x1
 4286 0453 50       		.byte	0x50
 4287 0454 0F000000 		.4byte	.LVL70-1
 4288 0458 28000000 		.4byte	.LFE13
 4289 045c 0100     		.2byte	0x1
 4290 045e 55       		.byte	0x55
 4291 045f 00000000 		.4byte	0
 4292 0463 00000000 		.4byte	0
 4293              	.LLST35:
 4294 0467 00000000 		.4byte	.LVL67
 4295 046b 0F000000 		.4byte	.LVL70-1
 4296 046f 0100     		.2byte	0x1
 4297 0471 51       		.byte	0x51
 4298 0472 0F000000 		.4byte	.LVL70-1
 4299 0476 28000000 		.4byte	.LFE13
ARM GAS  /tmp/cc2dNRNq.s 			page 77


 4300 047a 0100     		.2byte	0x1
 4301 047c 54       		.byte	0x54
 4302 047d 00000000 		.4byte	0
 4303 0481 00000000 		.4byte	0
 4304              	.LLST36:
 4305 0485 0C000000 		.4byte	.LVL69
 4306 0489 0F000000 		.4byte	.LVL70-1
 4307 048d 0100     		.2byte	0x1
 4308 048f 53       		.byte	0x53
 4309 0490 00000000 		.4byte	0
 4310 0494 00000000 		.4byte	0
 4311              	.LLST37:
 4312 0498 26000000 		.4byte	.LVL75
 4313 049c 28000000 		.4byte	.LFE13
 4314 04a0 0100     		.2byte	0x1
 4315 04a2 53       		.byte	0x53
 4316 04a3 00000000 		.4byte	0
 4317 04a7 00000000 		.4byte	0
 4318              	.LLST38:
 4319 04ab 00000000 		.4byte	.LFB15
 4320 04af 04000000 		.4byte	.LCFI8
 4321 04b3 0200     		.2byte	0x2
 4322 04b5 7D       		.byte	0x7d
 4323 04b6 00       		.sleb128 0
 4324 04b7 04000000 		.4byte	.LCFI8
 4325 04bb 50000000 		.4byte	.LFE15
 4326 04bf 0200     		.2byte	0x2
 4327 04c1 7D       		.byte	0x7d
 4328 04c2 18       		.sleb128 24
 4329 04c3 00000000 		.4byte	0
 4330 04c7 00000000 		.4byte	0
 4331              	.LLST39:
 4332 04cb 00000000 		.4byte	.LVL76
 4333 04cf 0A000000 		.4byte	.LVL77
 4334 04d3 0100     		.2byte	0x1
 4335 04d5 50       		.byte	0x50
 4336 04d6 0A000000 		.4byte	.LVL77
 4337 04da 40000000 		.4byte	.LVL86
 4338 04de 0100     		.2byte	0x1
 4339 04e0 58       		.byte	0x58
 4340 04e1 40000000 		.4byte	.LVL86
 4341 04e5 42000000 		.4byte	.LVL87
 4342 04e9 0100     		.2byte	0x1
 4343 04eb 50       		.byte	0x50
 4344 04ec 42000000 		.4byte	.LVL87
 4345 04f0 50000000 		.4byte	.LFE15
 4346 04f4 0100     		.2byte	0x1
 4347 04f6 58       		.byte	0x58
 4348 04f7 00000000 		.4byte	0
 4349 04fb 00000000 		.4byte	0
 4350              	.LLST40:
 4351 04ff 00000000 		.4byte	.LVL76
 4352 0503 0A000000 		.4byte	.LVL77
 4353 0507 0100     		.2byte	0x1
 4354 0509 51       		.byte	0x51
 4355 050a 0A000000 		.4byte	.LVL77
 4356 050e 22000000 		.4byte	.LVL79
ARM GAS  /tmp/cc2dNRNq.s 			page 78


 4357 0512 0100     		.2byte	0x1
 4358 0514 55       		.byte	0x55
 4359 0515 24000000 		.4byte	.LVL80
 4360 0519 34000000 		.4byte	.LVL84
 4361 051d 0100     		.2byte	0x1
 4362 051f 55       		.byte	0x55
 4363 0520 40000000 		.4byte	.LVL86
 4364 0524 45000000 		.4byte	.LVL88-1
 4365 0528 0100     		.2byte	0x1
 4366 052a 51       		.byte	0x51
 4367 052b 45000000 		.4byte	.LVL88-1
 4368 052f 50000000 		.4byte	.LFE15
 4369 0533 0100     		.2byte	0x1
 4370 0535 55       		.byte	0x55
 4371 0536 00000000 		.4byte	0
 4372 053a 00000000 		.4byte	0
 4373              	.LLST41:
 4374 053e 0A000000 		.4byte	.LVL77
 4375 0542 12000000 		.4byte	.LVL78
 4376 0546 0200     		.2byte	0x2
 4377 0548 30       		.byte	0x30
 4378 0549 9F       		.byte	0x9f
 4379 054a 2A000000 		.4byte	.LVL82
 4380 054e 30000000 		.4byte	.LVL83
 4381 0552 0100     		.2byte	0x1
 4382 0554 54       		.byte	0x54
 4383 0555 00000000 		.4byte	0
 4384 0559 00000000 		.4byte	0
 4385              	.LLST42:
 4386 055d 00000000 		.4byte	.LFB16
 4387 0561 02000000 		.4byte	.LCFI9
 4388 0565 0200     		.2byte	0x2
 4389 0567 7D       		.byte	0x7d
 4390 0568 00       		.sleb128 0
 4391 0569 02000000 		.4byte	.LCFI9
 4392 056d 44000000 		.4byte	.LFE16
 4393 0571 0200     		.2byte	0x2
 4394 0573 7D       		.byte	0x7d
 4395 0574 10       		.sleb128 16
 4396 0575 00000000 		.4byte	0
 4397 0579 00000000 		.4byte	0
 4398              	.LLST43:
 4399 057d 00000000 		.4byte	.LVL89
 4400 0581 11000000 		.4byte	.LVL93-1
 4401 0585 0100     		.2byte	0x1
 4402 0587 50       		.byte	0x50
 4403 0588 11000000 		.4byte	.LVL93-1
 4404 058c 2A000000 		.4byte	.LVL98
 4405 0590 0100     		.2byte	0x1
 4406 0592 54       		.byte	0x54
 4407 0593 2A000000 		.4byte	.LVL98
 4408 0597 44000000 		.4byte	.LFE16
 4409 059b 0400     		.2byte	0x4
 4410 059d F3       		.byte	0xf3
 4411 059e 01       		.uleb128 0x1
 4412 059f 50       		.byte	0x50
 4413 05a0 9F       		.byte	0x9f
ARM GAS  /tmp/cc2dNRNq.s 			page 79


 4414 05a1 00000000 		.4byte	0
 4415 05a5 00000000 		.4byte	0
 4416              	.LLST44:
 4417 05a9 14000000 		.4byte	.LVL94
 4418 05ad 18000000 		.4byte	.LVL95
 4419 05b1 0600     		.2byte	0x6
 4420 05b3 74       		.byte	0x74
 4421 05b4 00       		.sleb128 0
 4422 05b5 70       		.byte	0x70
 4423 05b6 00       		.sleb128 0
 4424 05b7 1A       		.byte	0x1a
 4425 05b8 9F       		.byte	0x9f
 4426 05b9 18000000 		.4byte	.LVL95
 4427 05bd 21000000 		.4byte	.LVL96-1
 4428 05c1 0100     		.2byte	0x1
 4429 05c3 52       		.byte	0x52
 4430 05c4 28000000 		.4byte	.LVL97
 4431 05c8 2C000000 		.4byte	.LVL99
 4432 05cc 0100     		.2byte	0x1
 4433 05ce 52       		.byte	0x52
 4434 05cf 2C000000 		.4byte	.LVL99
 4435 05d3 44000000 		.4byte	.LFE16
 4436 05d7 0100     		.2byte	0x1
 4437 05d9 54       		.byte	0x54
 4438 05da 00000000 		.4byte	0
 4439 05de 00000000 		.4byte	0
 4440              	.LLST45:
 4441 05e2 0E000000 		.4byte	.LVL92
 4442 05e6 11000000 		.4byte	.LVL93-1
 4443 05ea 0100     		.2byte	0x1
 4444 05ec 53       		.byte	0x53
 4445 05ed 00000000 		.4byte	0
 4446 05f1 00000000 		.4byte	0
 4447              	.LLST46:
 4448 05f5 3C000000 		.4byte	.LVL102
 4449 05f9 44000000 		.4byte	.LFE16
 4450 05fd 0100     		.2byte	0x1
 4451 05ff 53       		.byte	0x53
 4452 0600 00000000 		.4byte	0
 4453 0604 00000000 		.4byte	0
 4454              	.LLST47:
 4455 0608 00000000 		.4byte	.LFB17
 4456 060c 04000000 		.4byte	.LCFI10
 4457 0610 0200     		.2byte	0x2
 4458 0612 7D       		.byte	0x7d
 4459 0613 00       		.sleb128 0
 4460 0614 04000000 		.4byte	.LCFI10
 4461 0618 40000000 		.4byte	.LFE17
 4462 061c 0200     		.2byte	0x2
 4463 061e 7D       		.byte	0x7d
 4464 061f 10       		.sleb128 16
 4465 0620 00000000 		.4byte	0
 4466 0624 00000000 		.4byte	0
 4467              	.LLST48:
 4468 0628 00000000 		.4byte	.LVL103
 4469 062c 11000000 		.4byte	.LVL107-1
 4470 0630 0100     		.2byte	0x1
ARM GAS  /tmp/cc2dNRNq.s 			page 80


 4471 0632 50       		.byte	0x50
 4472 0633 11000000 		.4byte	.LVL107-1
 4473 0637 40000000 		.4byte	.LFE17
 4474 063b 0100     		.2byte	0x1
 4475 063d 54       		.byte	0x54
 4476 063e 00000000 		.4byte	0
 4477 0642 00000000 		.4byte	0
 4478              	.LLST49:
 4479 0646 14000000 		.4byte	.LVL108
 4480 064a 18000000 		.4byte	.LVL109
 4481 064e 0600     		.2byte	0x6
 4482 0650 74       		.byte	0x74
 4483 0651 00       		.sleb128 0
 4484 0652 70       		.byte	0x70
 4485 0653 00       		.sleb128 0
 4486 0654 1A       		.byte	0x1a
 4487 0655 9F       		.byte	0x9f
 4488 0656 18000000 		.4byte	.LVL109
 4489 065a 40000000 		.4byte	.LFE17
 4490 065e 0100     		.2byte	0x1
 4491 0660 56       		.byte	0x56
 4492 0661 00000000 		.4byte	0
 4493 0665 00000000 		.4byte	0
 4494              	.LLST50:
 4495 0669 0E000000 		.4byte	.LVL106
 4496 066d 11000000 		.4byte	.LVL107-1
 4497 0671 0100     		.2byte	0x1
 4498 0673 53       		.byte	0x53
 4499 0674 00000000 		.4byte	0
 4500 0678 00000000 		.4byte	0
 4501              	.LLST51:
 4502 067c 38000000 		.4byte	.LVL114
 4503 0680 40000000 		.4byte	.LFE17
 4504 0684 0100     		.2byte	0x1
 4505 0686 53       		.byte	0x53
 4506 0687 00000000 		.4byte	0
 4507 068b 00000000 		.4byte	0
 4508              	.LLST52:
 4509 068f 00000000 		.4byte	.LFB18
 4510 0693 02000000 		.4byte	.LCFI11
 4511 0697 0200     		.2byte	0x2
 4512 0699 7D       		.byte	0x7d
 4513 069a 00       		.sleb128 0
 4514 069b 02000000 		.4byte	.LCFI11
 4515 069f 40000000 		.4byte	.LFE18
 4516 06a3 0200     		.2byte	0x2
 4517 06a5 7D       		.byte	0x7d
 4518 06a6 10       		.sleb128 16
 4519 06a7 00000000 		.4byte	0
 4520 06ab 00000000 		.4byte	0
 4521              	.LLST53:
 4522 06af 00000000 		.4byte	.LVL115
 4523 06b3 11000000 		.4byte	.LVL119-1
 4524 06b7 0100     		.2byte	0x1
 4525 06b9 50       		.byte	0x50
 4526 06ba 11000000 		.4byte	.LVL119-1
 4527 06be 40000000 		.4byte	.LFE18
ARM GAS  /tmp/cc2dNRNq.s 			page 81


 4528 06c2 0100     		.2byte	0x1
 4529 06c4 54       		.byte	0x54
 4530 06c5 00000000 		.4byte	0
 4531 06c9 00000000 		.4byte	0
 4532              	.LLST54:
 4533 06cd 0E000000 		.4byte	.LVL118
 4534 06d1 11000000 		.4byte	.LVL119-1
 4535 06d5 0100     		.2byte	0x1
 4536 06d7 53       		.byte	0x53
 4537 06d8 00000000 		.4byte	0
 4538 06dc 00000000 		.4byte	0
 4539              	.LLST55:
 4540 06e0 36000000 		.4byte	.LVL123
 4541 06e4 40000000 		.4byte	.LFE18
 4542 06e8 0100     		.2byte	0x1
 4543 06ea 53       		.byte	0x53
 4544 06eb 00000000 		.4byte	0
 4545 06ef 00000000 		.4byte	0
 4546              	.LLST56:
 4547 06f3 00000000 		.4byte	.LFB19
 4548 06f7 02000000 		.4byte	.LCFI12
 4549 06fb 0200     		.2byte	0x2
 4550 06fd 7D       		.byte	0x7d
 4551 06fe 00       		.sleb128 0
 4552 06ff 02000000 		.4byte	.LCFI12
 4553 0703 5C000000 		.4byte	.LFE19
 4554 0707 0200     		.2byte	0x2
 4555 0709 7D       		.byte	0x7d
 4556 070a 18       		.sleb128 24
 4557 070b 00000000 		.4byte	0
 4558 070f 00000000 		.4byte	0
 4559              	.LLST57:
 4560 0713 00000000 		.4byte	.LVL124
 4561 0717 13000000 		.4byte	.LVL128-1
 4562 071b 0100     		.2byte	0x1
 4563 071d 50       		.byte	0x50
 4564 071e 13000000 		.4byte	.LVL128-1
 4565 0722 5C000000 		.4byte	.LFE19
 4566 0726 0100     		.2byte	0x1
 4567 0728 55       		.byte	0x55
 4568 0729 00000000 		.4byte	0
 4569 072d 00000000 		.4byte	0
 4570              	.LLST58:
 4571 0731 00000000 		.4byte	.LVL124
 4572 0735 13000000 		.4byte	.LVL128-1
 4573 0739 0100     		.2byte	0x1
 4574 073b 51       		.byte	0x51
 4575 073c 13000000 		.4byte	.LVL128-1
 4576 0740 5C000000 		.4byte	.LFE19
 4577 0744 0100     		.2byte	0x1
 4578 0746 57       		.byte	0x57
 4579 0747 00000000 		.4byte	0
 4580 074b 00000000 		.4byte	0
 4581              	.LLST59:
 4582 074f 16000000 		.4byte	.LVL129
 4583 0753 1A000000 		.4byte	.LVL130
 4584 0757 0600     		.2byte	0x6
ARM GAS  /tmp/cc2dNRNq.s 			page 82


 4585 0759 75       		.byte	0x75
 4586 075a 00       		.sleb128 0
 4587 075b 70       		.byte	0x70
 4588 075c 00       		.sleb128 0
 4589 075d 1A       		.byte	0x1a
 4590 075e 9F       		.byte	0x9f
 4591 075f 1A000000 		.4byte	.LVL130
 4592 0763 5C000000 		.4byte	.LFE19
 4593 0767 0100     		.2byte	0x1
 4594 0769 54       		.byte	0x54
 4595 076a 00000000 		.4byte	0
 4596 076e 00000000 		.4byte	0
 4597              	.LLST60:
 4598 0772 10000000 		.4byte	.LVL127
 4599 0776 13000000 		.4byte	.LVL128-1
 4600 077a 0100     		.2byte	0x1
 4601 077c 53       		.byte	0x53
 4602 077d 00000000 		.4byte	0
 4603 0781 00000000 		.4byte	0
 4604              	.LLST61:
 4605 0785 46000000 		.4byte	.LVL136
 4606 0789 4A000000 		.4byte	.LVL137
 4607 078d 0100     		.2byte	0x1
 4608 078f 53       		.byte	0x53
 4609 0790 00000000 		.4byte	0
 4610 0794 00000000 		.4byte	0
 4611              	.LLST62:
 4612 0798 54000000 		.4byte	.LVL140
 4613 079c 5C000000 		.4byte	.LFE19
 4614 07a0 0100     		.2byte	0x1
 4615 07a2 53       		.byte	0x53
 4616 07a3 00000000 		.4byte	0
 4617 07a7 00000000 		.4byte	0
 4618              	.LLST63:
 4619 07ab 00000000 		.4byte	.LFB20
 4620 07af 02000000 		.4byte	.LCFI13
 4621 07b3 0200     		.2byte	0x2
 4622 07b5 7D       		.byte	0x7d
 4623 07b6 00       		.sleb128 0
 4624 07b7 02000000 		.4byte	.LCFI13
 4625 07bb 58000000 		.4byte	.LFE20
 4626 07bf 0200     		.2byte	0x2
 4627 07c1 7D       		.byte	0x7d
 4628 07c2 18       		.sleb128 24
 4629 07c3 00000000 		.4byte	0
 4630 07c7 00000000 		.4byte	0
 4631              	.LLST64:
 4632 07cb 00000000 		.4byte	.LVL141
 4633 07cf 13000000 		.4byte	.LVL145-1
 4634 07d3 0100     		.2byte	0x1
 4635 07d5 50       		.byte	0x50
 4636 07d6 13000000 		.4byte	.LVL145-1
 4637 07da 58000000 		.4byte	.LFE20
 4638 07de 0100     		.2byte	0x1
 4639 07e0 54       		.byte	0x54
 4640 07e1 00000000 		.4byte	0
 4641 07e5 00000000 		.4byte	0
ARM GAS  /tmp/cc2dNRNq.s 			page 83


 4642              	.LLST65:
 4643 07e9 00000000 		.4byte	.LVL141
 4644 07ed 13000000 		.4byte	.LVL145-1
 4645 07f1 0100     		.2byte	0x1
 4646 07f3 51       		.byte	0x51
 4647 07f4 13000000 		.4byte	.LVL145-1
 4648 07f8 58000000 		.4byte	.LFE20
 4649 07fc 0100     		.2byte	0x1
 4650 07fe 57       		.byte	0x57
 4651 07ff 00000000 		.4byte	0
 4652 0803 00000000 		.4byte	0
 4653              	.LLST66:
 4654 0807 16000000 		.4byte	.LVL146
 4655 080b 1A000000 		.4byte	.LVL147
 4656 080f 0600     		.2byte	0x6
 4657 0811 74       		.byte	0x74
 4658 0812 00       		.sleb128 0
 4659 0813 72       		.byte	0x72
 4660 0814 00       		.sleb128 0
 4661 0815 1A       		.byte	0x1a
 4662 0816 9F       		.byte	0x9f
 4663 0817 1A000000 		.4byte	.LVL147
 4664 081b 58000000 		.4byte	.LFE20
 4665 081f 0100     		.2byte	0x1
 4666 0821 56       		.byte	0x56
 4667 0822 00000000 		.4byte	0
 4668 0826 00000000 		.4byte	0
 4669              	.LLST67:
 4670 082a 10000000 		.4byte	.LVL144
 4671 082e 13000000 		.4byte	.LVL145-1
 4672 0832 0100     		.2byte	0x1
 4673 0834 53       		.byte	0x53
 4674 0835 00000000 		.4byte	0
 4675 0839 00000000 		.4byte	0
 4676              	.LLST68:
 4677 083d 42000000 		.4byte	.LVL152
 4678 0841 46000000 		.4byte	.LVL153
 4679 0845 0100     		.2byte	0x1
 4680 0847 53       		.byte	0x53
 4681 0848 00000000 		.4byte	0
 4682 084c 00000000 		.4byte	0
 4683              	.LLST69:
 4684 0850 50000000 		.4byte	.LVL156
 4685 0854 58000000 		.4byte	.LFE20
 4686 0858 0100     		.2byte	0x1
 4687 085a 53       		.byte	0x53
 4688 085b 00000000 		.4byte	0
 4689 085f 00000000 		.4byte	0
 4690              	.LLST70:
 4691 0863 00000000 		.4byte	.LFB21
 4692 0867 04000000 		.4byte	.LCFI14
 4693 086b 0200     		.2byte	0x2
 4694 086d 7D       		.byte	0x7d
 4695 086e 00       		.sleb128 0
 4696 086f 04000000 		.4byte	.LCFI14
 4697 0873 68000000 		.4byte	.LFE21
 4698 0877 0200     		.2byte	0x2
ARM GAS  /tmp/cc2dNRNq.s 			page 84


 4699 0879 7D       		.byte	0x7d
 4700 087a 10       		.sleb128 16
 4701 087b 00000000 		.4byte	0
 4702 087f 00000000 		.4byte	0
 4703              	.LLST71:
 4704 0883 00000000 		.4byte	.LVL157
 4705 0887 13000000 		.4byte	.LVL161-1
 4706 088b 0100     		.2byte	0x1
 4707 088d 50       		.byte	0x50
 4708 088e 13000000 		.4byte	.LVL161-1
 4709 0892 40000000 		.4byte	.LVL165
 4710 0896 0100     		.2byte	0x1
 4711 0898 54       		.byte	0x54
 4712 0899 40000000 		.4byte	.LVL165
 4713 089d 44000000 		.4byte	.LVL166
 4714 08a1 0400     		.2byte	0x4
 4715 08a3 F3       		.byte	0xf3
 4716 08a4 01       		.uleb128 0x1
 4717 08a5 50       		.byte	0x50
 4718 08a6 9F       		.byte	0x9f
 4719 08a7 44000000 		.4byte	.LVL166
 4720 08ab 50000000 		.4byte	.LVL170
 4721 08af 0100     		.2byte	0x1
 4722 08b1 54       		.byte	0x54
 4723 08b2 50000000 		.4byte	.LVL170
 4724 08b6 54000000 		.4byte	.LVL171
 4725 08ba 0400     		.2byte	0x4
 4726 08bc F3       		.byte	0xf3
 4727 08bd 01       		.uleb128 0x1
 4728 08be 50       		.byte	0x50
 4729 08bf 9F       		.byte	0x9f
 4730 08c0 54000000 		.4byte	.LVL171
 4731 08c4 60000000 		.4byte	.LVL174
 4732 08c8 0100     		.2byte	0x1
 4733 08ca 54       		.byte	0x54
 4734 08cb 60000000 		.4byte	.LVL174
 4735 08cf 68000000 		.4byte	.LFE21
 4736 08d3 0400     		.2byte	0x4
 4737 08d5 F3       		.byte	0xf3
 4738 08d6 01       		.uleb128 0x1
 4739 08d7 50       		.byte	0x50
 4740 08d8 9F       		.byte	0x9f
 4741 08d9 00000000 		.4byte	0
 4742 08dd 00000000 		.4byte	0
 4743              	.LLST72:
 4744 08e1 00000000 		.4byte	.LVL157
 4745 08e5 13000000 		.4byte	.LVL161-1
 4746 08e9 0100     		.2byte	0x1
 4747 08eb 51       		.byte	0x51
 4748 08ec 13000000 		.4byte	.LVL161-1
 4749 08f0 68000000 		.4byte	.LFE21
 4750 08f4 0100     		.2byte	0x1
 4751 08f6 56       		.byte	0x56
 4752 08f7 00000000 		.4byte	0
 4753 08fb 00000000 		.4byte	0
 4754              	.LLST73:
 4755 08ff 10000000 		.4byte	.LVL160
ARM GAS  /tmp/cc2dNRNq.s 			page 85


 4756 0903 13000000 		.4byte	.LVL161-1
 4757 0907 0100     		.2byte	0x1
 4758 0909 53       		.byte	0x53
 4759 090a 00000000 		.4byte	0
 4760 090e 00000000 		.4byte	0
 4761              	.LLST74:
 4762 0912 40000000 		.4byte	.LVL165
 4763 0916 44000000 		.4byte	.LVL166
 4764 091a 0100     		.2byte	0x1
 4765 091c 53       		.byte	0x53
 4766 091d 00000000 		.4byte	0
 4767 0921 00000000 		.4byte	0
 4768              	.LLST75:
 4769 0925 4E000000 		.4byte	.LVL169
 4770 0929 54000000 		.4byte	.LVL171
 4771 092d 0100     		.2byte	0x1
 4772 092f 53       		.byte	0x53
 4773 0930 00000000 		.4byte	0
 4774 0934 00000000 		.4byte	0
 4775              	.LLST76:
 4776 0938 40000000 		.4byte	.LVL165
 4777 093c 44000000 		.4byte	.LVL166
 4778 0940 0100     		.2byte	0x1
 4779 0942 53       		.byte	0x53
 4780 0943 5E000000 		.4byte	.LVL173
 4781 0947 68000000 		.4byte	.LFE21
 4782 094b 0100     		.2byte	0x1
 4783 094d 53       		.byte	0x53
 4784 094e 00000000 		.4byte	0
 4785 0952 00000000 		.4byte	0
 4786              		.section	.debug_aranges,"",%progbits
 4787 0000 8C000000 		.4byte	0x8c
 4788 0004 0200     		.2byte	0x2
 4789 0006 00000000 		.4byte	.Ldebug_info0
 4790 000a 04       		.byte	0x4
 4791 000b 00       		.byte	0
 4792 000c 0000     		.2byte	0
 4793 000e 0000     		.2byte	0
 4794 0010 00000000 		.4byte	.LFB7
 4795 0014 40000000 		.4byte	.LFE7-.LFB7
 4796 0018 00000000 		.4byte	.LFB8
 4797 001c 40000000 		.4byte	.LFE8-.LFB8
 4798 0020 00000000 		.4byte	.LFB9
 4799 0024 30000000 		.4byte	.LFE9-.LFB9
 4800 0028 00000000 		.4byte	.LFB10
 4801 002c 2C000000 		.4byte	.LFE10-.LFB10
 4802 0030 00000000 		.4byte	.LFB12
 4803 0034 4C000000 		.4byte	.LFE12-.LFB12
 4804 0038 00000000 		.4byte	.LFB11
 4805 003c 38000000 		.4byte	.LFE11-.LFB11
 4806 0040 00000000 		.4byte	.LFB14
 4807 0044 30000000 		.4byte	.LFE14-.LFB14
 4808 0048 00000000 		.4byte	.LFB13
 4809 004c 28000000 		.4byte	.LFE13-.LFB13
 4810 0050 00000000 		.4byte	.LFB15
 4811 0054 50000000 		.4byte	.LFE15-.LFB15
 4812 0058 00000000 		.4byte	.LFB16
ARM GAS  /tmp/cc2dNRNq.s 			page 86


 4813 005c 44000000 		.4byte	.LFE16-.LFB16
 4814 0060 00000000 		.4byte	.LFB17
 4815 0064 40000000 		.4byte	.LFE17-.LFB17
 4816 0068 00000000 		.4byte	.LFB18
 4817 006c 40000000 		.4byte	.LFE18-.LFB18
 4818 0070 00000000 		.4byte	.LFB19
 4819 0074 5C000000 		.4byte	.LFE19-.LFB19
 4820 0078 00000000 		.4byte	.LFB20
 4821 007c 58000000 		.4byte	.LFE20-.LFB20
 4822 0080 00000000 		.4byte	.LFB21
 4823 0084 68000000 		.4byte	.LFE21-.LFB21
 4824 0088 00000000 		.4byte	0
 4825 008c 00000000 		.4byte	0
 4826              		.section	.debug_ranges,"",%progbits
 4827              	.Ldebug_ranges0:
 4828 0000 02000000 		.4byte	.LBB6
 4829 0004 04000000 		.4byte	.LBE6
 4830 0008 06000000 		.4byte	.LBB7
 4831 000c 0A000000 		.4byte	.LBE7
 4832 0010 00000000 		.4byte	0
 4833 0014 00000000 		.4byte	0
 4834 0018 02000000 		.4byte	.LBB9
 4835 001c 04000000 		.4byte	.LBE9
 4836 0020 06000000 		.4byte	.LBB10
 4837 0024 0A000000 		.4byte	.LBE10
 4838 0028 00000000 		.4byte	0
 4839 002c 00000000 		.4byte	0
 4840 0030 00000000 		.4byte	.LFB7
 4841 0034 40000000 		.4byte	.LFE7
 4842 0038 00000000 		.4byte	.LFB8
 4843 003c 40000000 		.4byte	.LFE8
 4844 0040 00000000 		.4byte	.LFB9
 4845 0044 30000000 		.4byte	.LFE9
 4846 0048 00000000 		.4byte	.LFB10
 4847 004c 2C000000 		.4byte	.LFE10
 4848 0050 00000000 		.4byte	.LFB12
 4849 0054 4C000000 		.4byte	.LFE12
 4850 0058 00000000 		.4byte	.LFB11
 4851 005c 38000000 		.4byte	.LFE11
 4852 0060 00000000 		.4byte	.LFB14
 4853 0064 30000000 		.4byte	.LFE14
 4854 0068 00000000 		.4byte	.LFB13
 4855 006c 28000000 		.4byte	.LFE13
 4856 0070 00000000 		.4byte	.LFB15
 4857 0074 50000000 		.4byte	.LFE15
 4858 0078 00000000 		.4byte	.LFB16
 4859 007c 44000000 		.4byte	.LFE16
 4860 0080 00000000 		.4byte	.LFB17
 4861 0084 40000000 		.4byte	.LFE17
 4862 0088 00000000 		.4byte	.LFB18
 4863 008c 40000000 		.4byte	.LFE18
 4864 0090 00000000 		.4byte	.LFB19
 4865 0094 5C000000 		.4byte	.LFE19
 4866 0098 00000000 		.4byte	.LFB20
 4867 009c 58000000 		.4byte	.LFE20
 4868 00a0 00000000 		.4byte	.LFB21
 4869 00a4 68000000 		.4byte	.LFE21
ARM GAS  /tmp/cc2dNRNq.s 			page 87


 4870 00a8 00000000 		.4byte	0
 4871 00ac 00000000 		.4byte	0
 4872              		.section	.debug_line,"",%progbits
 4873              	.Ldebug_line0:
 4874 0000 20030000 		.section	.debug_str,"MS",%progbits,1
 4874      02002801 
 4874      00000201 
 4874      FB0E0D00 
 4874      01010101 
 4875              	.LASF37:
 4876 0000 705F6D73 		.ascii	"p_msg\000"
 4876      6700
 4877              	.LASF93:
 4878 0006 63684462 		.ascii	"chDbgPanic\000"
 4878      6750616E 
 4878      696300
 4879              	.LASF68:
 4880 0011 7264796D 		.ascii	"rdymsg\000"
 4880      736700
 4881              	.LASF11:
 4882 0018 75696E74 		.ascii	"uint64_t\000"
 4882      36345F74 
 4882      00
 4883              	.LASF12:
 4884 0021 6C6F6E67 		.ascii	"long long unsigned int\000"
 4884      206C6F6E 
 4884      6720756E 
 4884      7369676E 
 4884      65642069 
 4885              	.LASF69:
 4886 0038 65786974 		.ascii	"exitcode\000"
 4886      636F6465 
 4886      00
 4887              	.LASF92:
 4888 0041 63684576 		.ascii	"chEvtSignalFlagsI\000"
 4888      74536967 
 4888      6E616C46 
 4888      6C616773 
 4888      4900
 4889              	.LASF88:
 4890 0053 63684576 		.ascii	"chEvtWaitAnyTimeout\000"
 4890      74576169 
 4890      74416E79 
 4890      54696D65 
 4890      6F757400 
 4891              	.LASF25:
 4892 0067 705F7072 		.ascii	"p_prio\000"
 4892      696F00
 4893              	.LASF10:
 4894 006e 6C6F6E67 		.ascii	"long long int\000"
 4894      206C6F6E 
 4894      6720696E 
 4894      7400
 4895              	.LASF1:
 4896 007c 7369676E 		.ascii	"signed char\000"
 4896      65642063 
 4896      68617200 
ARM GAS  /tmp/cc2dNRNq.s 			page 88


 4897              	.LASF89:
 4898 0088 63684576 		.ascii	"chEvtWaitAllTimeout\000"
 4898      74576169 
 4898      74416C6C 
 4898      54696D65 
 4898      6F757400 
 4899              	.LASF41:
 4900 009c 705F6D70 		.ascii	"p_mpool\000"
 4900      6F6F6C00 
 4901              	.LASF58:
 4902 00a4 6D5F7175 		.ascii	"m_queue\000"
 4902      65756500 
 4903              	.LASF77:
 4904 00ac 63684576 		.ascii	"chEvtAddFlags\000"
 4904      74416464 
 4904      466C6167 
 4904      7300
 4905              	.LASF7:
 4906 00ba 6C6F6E67 		.ascii	"long int\000"
 4906      20696E74 
 4906      00
 4907              	.LASF14:
 4908 00c3 74737461 		.ascii	"tstate_t\000"
 4908      74655F74 
 4908      00
 4909              	.LASF85:
 4910 00cc 63684576 		.ascii	"chEvtWaitAll\000"
 4910      74576169 
 4910      74416C6C 
 4910      00
 4911              	.LASF84:
 4912 00d9 63684576 		.ascii	"chEvtWaitAny\000"
 4912      74576169 
 4912      74416E79 
 4912      00
 4913              	.LASF79:
 4914 00e6 63684576 		.ascii	"chEvtBroadcastFlagsI\000"
 4914      7442726F 
 4914      61646361 
 4914      7374466C 
 4914      61677349 
 4915              	.LASF27:
 4916 00fb 705F6E65 		.ascii	"p_newer\000"
 4916      77657200 
 4917              	.LASF95:
 4918 0103 63685363 		.ascii	"chSchRescheduleS\000"
 4918      68526573 
 4918      63686564 
 4918      756C6553 
 4918      00
 4919              	.LASF52:
 4920 0114 725F6E65 		.ascii	"r_newer\000"
 4920      77657200 
 4921              	.LASF73:
 4922 011c 6D61736B 		.ascii	"mask\000"
 4922      00
 4923              	.LASF44:
ARM GAS  /tmp/cc2dNRNq.s 			page 89


 4924 0121 72656761 		.ascii	"regarm_t\000"
 4924      726D5F74 
 4924      00
 4925              	.LASF80:
 4926 012a 63684576 		.ascii	"chEvtBroadcastFlags\000"
 4926      7442726F 
 4926      61646361 
 4926      7374466C 
 4926      61677300 
 4927              	.LASF18:
 4928 013e 6576656E 		.ascii	"eventid_t\000"
 4928      7469645F 
 4928      7400
 4929              	.LASF65:
 4930 0148 4576656E 		.ascii	"EventSource\000"
 4930      74536F75 
 4930      72636500 
 4931              	.LASF67:
 4932 0154 65766861 		.ascii	"evhandler_t\000"
 4932      6E646C65 
 4932      725F7400 
 4933              	.LASF21:
 4934 0160 636E745F 		.ascii	"cnt_t\000"
 4934      7400
 4935              	.LASF30:
 4936 0166 705F7374 		.ascii	"p_stklimit\000"
 4936      6B6C696D 
 4936      697400
 4937              	.LASF0:
 4938 0171 756E7369 		.ascii	"unsigned int\000"
 4938      676E6564 
 4938      20696E74 
 4938      00
 4939              	.LASF9:
 4940 017e 6C6F6E67 		.ascii	"long unsigned int\000"
 4940      20756E73 
 4940      69676E65 
 4940      6420696E 
 4940      7400
 4941              	.LASF47:
 4942 0190 636F6E74 		.ascii	"context\000"
 4942      65787400 
 4943              	.LASF4:
 4944 0198 73686F72 		.ascii	"short unsigned int\000"
 4944      7420756E 
 4944      7369676E 
 4944      65642069 
 4944      6E7400
 4945              	.LASF74:
 4946 01ab 63684576 		.ascii	"chEvtRegisterMask\000"
 4946      74526567 
 4946      69737465 
 4946      724D6173 
 4946      6B00
 4947              	.LASF17:
 4948 01bd 6D73675F 		.ascii	"msg_t\000"
 4948      7400
ARM GAS  /tmp/cc2dNRNq.s 			page 90


 4949              	.LASF62:
 4950 01c3 656C5F6E 		.ascii	"el_next\000"
 4950      65787400 
 4951              	.LASF75:
 4952 01cb 63684576 		.ascii	"chEvtUnregister\000"
 4952      74556E72 
 4952      65676973 
 4952      74657200 
 4953              	.LASF13:
 4954 01db 746D6F64 		.ascii	"tmode_t\000"
 4954      655F7400 
 4955              	.LASF43:
 4956 01e3 54687265 		.ascii	"ThreadsList\000"
 4956      6164734C 
 4956      69737400 
 4957              	.LASF19:
 4958 01ef 6576656E 		.ascii	"eventmask_t\000"
 4958      746D6173 
 4958      6B5F7400 
 4959              	.LASF57:
 4960 01fb 4D757465 		.ascii	"Mutex\000"
 4960      7800
 4961              	.LASF98:
 4962 0201 474E5520 		.ascii	"GNU C 4.7.4 20130613 (release) [ARM/embedded-4_7-br"
 4962      4320342E 
 4962      372E3420 
 4962      32303133 
 4962      30363133 
 4963 0234 616E6368 		.ascii	"anch revision 200083]\000"
 4963      20726576 
 4963      6973696F 
 4963      6E203230 
 4963      30303833 
 4964              	.LASF45:
 4965 024a 73746B61 		.ascii	"stkalign_t\000"
 4965      6C69676E 
 4965      5F7400
 4966              	.LASF91:
 4967 0255 6462675F 		.ascii	"dbg_check_unlock\000"
 4967      63686563 
 4967      6B5F756E 
 4967      6C6F636B 
 4967      00
 4968              	.LASF48:
 4969 0266 73697A65 		.ascii	"sizetype\000"
 4969      74797065 
 4969      00
 4970              	.LASF81:
 4971 026f 63684576 		.ascii	"chEvtDispatch\000"
 4971      74446973 
 4971      70617463 
 4971      6800
 4972              	.LASF28:
 4973 027d 705F6F6C 		.ascii	"p_older\000"
 4973      64657200 
 4974              	.LASF51:
 4975 0285 725F6374 		.ascii	"r_ctx\000"
ARM GAS  /tmp/cc2dNRNq.s 			page 91


 4975      7800
 4976              	.LASF42:
 4977 028b 54687265 		.ascii	"ThreadsQueue\000"
 4977      61647351 
 4977      75657565 
 4977      00
 4978              	.LASF87:
 4979 0298 74696D65 		.ascii	"time\000"
 4979      00
 4980              	.LASF78:
 4981 029d 63684576 		.ascii	"chEvtSignalFlags\000"
 4981      74536967 
 4981      6E616C46 
 4981      6C616773 
 4981      00
 4982              	.LASF55:
 4983 02ae 725F6375 		.ascii	"r_current\000"
 4983      7272656E 
 4983      7400
 4984              	.LASF53:
 4985 02b8 725F6F6C 		.ascii	"r_older\000"
 4985      64657200 
 4986              	.LASF64:
 4987 02c0 656C5F6D 		.ascii	"el_mask\000"
 4987      61736B00 
 4988              	.LASF100:
 4989 02c8 2F686F6D 		.ascii	"/home/kaklik/git/mlab-chibios/demos/STM32F107-seria"
 4989      652F6B61 
 4989      6B6C696B 
 4989      2F676974 
 4989      2F6D6C61 
 4990 02fb 6C736865 		.ascii	"lshell\000"
 4990      6C6C00
 4991              	.LASF82:
 4992 0302 68616E64 		.ascii	"handlers\000"
 4992      6C657273 
 4992      00
 4993              	.LASF15:
 4994 030b 74726566 		.ascii	"trefs_t\000"
 4994      735F7400 
 4995              	.LASF24:
 4996 0313 705F7072 		.ascii	"p_prev\000"
 4996      657600
 4997              	.LASF16:
 4998 031a 74707269 		.ascii	"tprio_t\000"
 4998      6F5F7400 
 4999              	.LASF76:
 5000 0322 63684576 		.ascii	"chEvtClearFlags\000"
 5000      74436C65 
 5000      6172466C 
 5000      61677300 
 5001              	.LASF6:
 5002 0332 696E7433 		.ascii	"int32_t\000"
 5002      325F7400 
 5003              	.LASF2:
 5004 033a 756E7369 		.ascii	"unsigned char\000"
 5004      676E6564 
ARM GAS  /tmp/cc2dNRNq.s 			page 92


 5004      20636861 
 5004      7200
 5005              	.LASF83:
 5006 0348 63684576 		.ascii	"chEvtWaitOne\000"
 5006      74576169 
 5006      744F6E65 
 5006      00
 5007              	.LASF63:
 5008 0355 656C5F6C 		.ascii	"el_listener\000"
 5008      69737465 
 5008      6E657200 
 5009              	.LASF39:
 5010 0361 705F6D74 		.ascii	"p_mtxlist\000"
 5010      786C6973 
 5010      7400
 5011              	.LASF3:
 5012 036b 73686F72 		.ascii	"short int\000"
 5012      7420696E 
 5012      7400
 5013              	.LASF31:
 5014 0375 705F7374 		.ascii	"p_state\000"
 5014      61746500 
 5015              	.LASF50:
 5016 037d 725F7072 		.ascii	"r_prio\000"
 5016      696F00
 5017              	.LASF71:
 5018 0384 65776D61 		.ascii	"ewmask\000"
 5018      736B00
 5019              	.LASF23:
 5020 038b 705F6E65 		.ascii	"p_next\000"
 5020      787400
 5021              	.LASF32:
 5022 0392 705F666C 		.ascii	"p_flags\000"
 5022      61677300 
 5023              	.LASF22:
 5024 039a 54687265 		.ascii	"Thread\000"
 5024      616400
 5025              	.LASF96:
 5026 03a1 63685363 		.ascii	"chSchGoSleepS\000"
 5026      68476F53 
 5026      6C656570 
 5026      5300
 5027              	.LASF38:
 5028 03af 705F6570 		.ascii	"p_epending\000"
 5028      656E6469 
 5028      6E6700
 5029              	.LASF8:
 5030 03ba 75696E74 		.ascii	"uint32_t\000"
 5030      33325F74 
 5030      00
 5031              	.LASF49:
 5032 03c3 725F7175 		.ascii	"r_queue\000"
 5032      65756500 
 5033              	.LASF102:
 5034 03cb 63685363 		.ascii	"chSchReadyI\000"
 5034      68526561 
 5034      64794900 
ARM GAS  /tmp/cc2dNRNq.s 			page 93


 5035              	.LASF72:
 5036 03d7 63686172 		.ascii	"char\000"
 5036      00
 5037              	.LASF60:
 5038 03dc 6D5F6E65 		.ascii	"m_next\000"
 5038      787400
 5039              	.LASF20:
 5040 03e3 73797374 		.ascii	"systime_t\000"
 5040      696D655F 
 5040      7400
 5041              	.LASF40:
 5042 03ed 705F7265 		.ascii	"p_realprio\000"
 5042      616C7072 
 5042      696F00
 5043              	.LASF34:
 5044 03f8 705F7469 		.ascii	"p_time\000"
 5044      6D6500
 5045              	.LASF46:
 5046 03ff 696E7463 		.ascii	"intctx\000"
 5046      747800
 5047              	.LASF36:
 5048 0406 705F6D73 		.ascii	"p_msgqueue\000"
 5048      67717565 
 5048      756500
 5049              	.LASF33:
 5050 0411 705F7265 		.ascii	"p_refs\000"
 5050      667300
 5051              	.LASF56:
 5052 0418 52656164 		.ascii	"ReadyList\000"
 5052      794C6973 
 5052      7400
 5053              	.LASF101:
 5054 0422 726C6973 		.ascii	"rlist\000"
 5054      7400
 5055              	.LASF5:
 5056 0428 75696E74 		.ascii	"uint8_t\000"
 5056      385F7400 
 5057              	.LASF99:
 5058 0430 2E2E2F2E 		.ascii	"../../os/kernel/src/chevents.c\000"
 5058      2E2F6F73 
 5058      2F6B6572 
 5058      6E656C2F 
 5058      7372632F 
 5059              	.LASF61:
 5060 044f 4576656E 		.ascii	"EventListener\000"
 5060      744C6973 
 5060      74656E65 
 5060      7200
 5061              	.LASF86:
 5062 045d 63684576 		.ascii	"chEvtWaitOneTimeout\000"
 5062      74576169 
 5062      744F6E65 
 5062      54696D65 
 5062      6F757400 
 5063              	.LASF70:
 5064 0471 77746F62 		.ascii	"wtobjp\000"
 5064      6A7000
ARM GAS  /tmp/cc2dNRNq.s 			page 94


 5065              	.LASF29:
 5066 0478 705F6E61 		.ascii	"p_name\000"
 5066      6D6500
 5067              	.LASF66:
 5068 047f 65735F6E 		.ascii	"es_next\000"
 5068      65787400 
 5069              	.LASF97:
 5070 0487 63685363 		.ascii	"chSchGoSleepTimeoutS\000"
 5070      68476F53 
 5070      6C656570 
 5070      54696D65 
 5070      6F757453 
 5071              	.LASF94:
 5072 049c 63684462 		.ascii	"chDbgCheckClassI\000"
 5072      67436865 
 5072      636B436C 
 5072      61737349 
 5072      00
 5073              	.LASF54:
 5074 04ad 725F7072 		.ascii	"r_preempt\000"
 5074      65656D70 
 5074      7400
 5075              	.LASF59:
 5076 04b7 6D5F6F77 		.ascii	"m_owner\000"
 5076      6E657200 
 5077              	.LASF90:
 5078 04bf 6462675F 		.ascii	"dbg_check_lock\000"
 5078      63686563 
 5078      6B5F6C6F 
 5078      636B00
 5079              	.LASF26:
 5080 04ce 705F6374 		.ascii	"p_ctx\000"
 5080      7800
 5081              	.LASF35:
 5082 04d4 705F7761 		.ascii	"p_waiting\000"
 5082      6974696E 
 5082      6700
 5083              		.ident	"GCC: (GNU Tools for ARM Embedded Processors) 4.7.4 20130613 (release) [ARM/embedded-4_7-br
ARM GAS  /tmp/cc2dNRNq.s 			page 95


DEFINED SYMBOLS
                            *ABS*:00000000 chevents.c
     /tmp/cc2dNRNq.s:19     .text.chEvtRegisterMask:00000000 $t
     /tmp/cc2dNRNq.s:25     .text.chEvtRegisterMask:00000000 chEvtRegisterMask
     /tmp/cc2dNRNq.s:101    .text.chEvtRegisterMask:00000038 $d
     /tmp/cc2dNRNq.s:107    .text.chEvtUnregister:00000000 $t
     /tmp/cc2dNRNq.s:113    .text.chEvtUnregister:00000000 chEvtUnregister
     /tmp/cc2dNRNq.s:193    .text.chEvtUnregister:0000003c $d
     /tmp/cc2dNRNq.s:198    .text.chEvtClearFlags:00000000 $t
     /tmp/cc2dNRNq.s:204    .text.chEvtClearFlags:00000000 chEvtClearFlags
     /tmp/cc2dNRNq.s:263    .text.chEvtAddFlags:00000000 $t
     /tmp/cc2dNRNq.s:269    .text.chEvtAddFlags:00000000 chEvtAddFlags
     /tmp/cc2dNRNq.s:326    .text.chEvtSignalFlagsI:00000000 $t
     /tmp/cc2dNRNq.s:332    .text.chEvtSignalFlagsI:00000000 chEvtSignalFlagsI
     /tmp/cc2dNRNq.s:409    .text.chEvtSignalFlagsI:00000048 $d
     /tmp/cc2dNRNq.s:414    .text.chEvtSignalFlags:00000000 $t
     /tmp/cc2dNRNq.s:420    .text.chEvtSignalFlags:00000000 chEvtSignalFlags
     /tmp/cc2dNRNq.s:486    .text.chEvtSignalFlags:00000034 $d
     /tmp/cc2dNRNq.s:491    .text.chEvtBroadcastFlagsI:00000000 $t
     /tmp/cc2dNRNq.s:497    .text.chEvtBroadcastFlagsI:00000000 chEvtBroadcastFlagsI
     /tmp/cc2dNRNq.s:551    .text.chEvtBroadcastFlagsI:0000002c $d
     /tmp/cc2dNRNq.s:556    .text.chEvtBroadcastFlags:00000000 $t
     /tmp/cc2dNRNq.s:562    .text.chEvtBroadcastFlags:00000000 chEvtBroadcastFlags
     /tmp/cc2dNRNq.s:616    .text.chEvtDispatch:00000000 $t
     /tmp/cc2dNRNq.s:622    .text.chEvtDispatch:00000000 chEvtDispatch
     /tmp/cc2dNRNq.s:701    .text.chEvtDispatch:00000048 $d
     /tmp/cc2dNRNq.s:707    .text.chEvtWaitOne:00000000 $t
     /tmp/cc2dNRNq.s:713    .text.chEvtWaitOne:00000000 chEvtWaitOne
     /tmp/cc2dNRNq.s:790    .text.chEvtWaitOne:00000040 $d
     /tmp/cc2dNRNq.s:795    .text.chEvtWaitAny:00000000 $t
     /tmp/cc2dNRNq.s:801    .text.chEvtWaitAny:00000000 chEvtWaitAny
     /tmp/cc2dNRNq.s:874    .text.chEvtWaitAny:0000003c $d
     /tmp/cc2dNRNq.s:879    .text.chEvtWaitAll:00000000 $t
     /tmp/cc2dNRNq.s:885    .text.chEvtWaitAll:00000000 chEvtWaitAll
     /tmp/cc2dNRNq.s:953    .text.chEvtWaitAll:0000003c $d
     /tmp/cc2dNRNq.s:958    .text.chEvtWaitOneTimeout:00000000 $t
     /tmp/cc2dNRNq.s:964    .text.chEvtWaitOneTimeout:00000000 chEvtWaitOneTimeout
     /tmp/cc2dNRNq.s:1066   .text.chEvtWaitOneTimeout:00000058 $d
     /tmp/cc2dNRNq.s:1071   .text.chEvtWaitAnyTimeout:00000000 $t
     /tmp/cc2dNRNq.s:1077   .text.chEvtWaitAnyTimeout:00000000 chEvtWaitAnyTimeout
     /tmp/cc2dNRNq.s:1175   .text.chEvtWaitAnyTimeout:00000054 $d
     /tmp/cc2dNRNq.s:1180   .text.chEvtWaitAllTimeout:00000000 $t
     /tmp/cc2dNRNq.s:1186   .text.chEvtWaitAllTimeout:00000000 chEvtWaitAllTimeout
     /tmp/cc2dNRNq.s:1299   .text.chEvtWaitAllTimeout:00000064 $d
     /tmp/cc2dNRNq.s:1304   .rodata.str1.4:00000000 $d
                     .debug_frame:00000010 $d
     /tmp/cc2dNRNq.s:413    .text.chEvtSignalFlagsI:0000004c $t
     /tmp/cc2dNRNq.s:490    .text.chEvtSignalFlags:00000038 $t
     /tmp/cc2dNRNq.s:794    .text.chEvtWaitOne:00000044 $t
     /tmp/cc2dNRNq.s:1070   .text.chEvtWaitOneTimeout:0000005c $t
     /tmp/cc2dNRNq.s:1179   .text.chEvtWaitAnyTimeout:00000058 $t
     /tmp/cc2dNRNq.s:1303   .text.chEvtWaitAllTimeout:00000068 $t

UNDEFINED SYMBOLS
dbg_check_lock
dbg_check_unlock
chDbgPanic
ARM GAS  /tmp/cc2dNRNq.s 			page 96


rlist
chDbgCheckClassI
chSchReadyI
chSchRescheduleS
chSchGoSleepS
chSchGoSleepTimeoutS
