ARM GAS  /var/folders/dt/0wfd0knj7gs46m8vwfzktm600000gn/T//cchPVIpt.s 			page 1


   1              		.syntax unified
   2              		.cpu cortex-m3
   3              		.fpu softvfp
   4              		.eabi_attribute 20, 1
   5              		.eabi_attribute 21, 1
   6              		.eabi_attribute 23, 3
   7              		.eabi_attribute 24, 1
   8              		.eabi_attribute 25, 1
   9              		.eabi_attribute 26, 1
  10              		.eabi_attribute 30, 2
  11              		.eabi_attribute 34, 1
  12              		.eabi_attribute 18, 4
  13              		.thumb
  14              		.file	"chevents.c"
  15              		.text
  16              	.Ltext0:
  17              		.cfi_sections	.debug_frame
  18              		.section	.text.chEvtRegisterMask,"ax",%progbits
  19              		.align	2
  20              		.p2align 4,,15
  21              		.global	chEvtRegisterMask
  22              		.thumb
  23              		.thumb_func
  24              		.type	chEvtRegisterMask, %function
  25              	chEvtRegisterMask:
  26              	.LFB7:
  27              		.file 1 "../../os/kernel/src/chevents.c"
  28              		.loc 1 82 0
  29              		.cfi_startproc
  30              		@ args = 0, pretend = 0, frame = 0
  31              		@ frame_needed = 0, uses_anonymous_args = 0
  32              	.LVL0:
  33              		.loc 1 84 0
  34 0000 0028     		cmp	r0, #0
  35 0002 18BF     		it	ne
  36 0004 0029     		cmpne	r1, #0
  37              		.loc 1 82 0
  38 0006 70B5     		push	{r4, r5, r6, lr}
  39              	.LCFI0:
  40              		.cfi_def_cfa_offset 16
  41              		.cfi_offset 4, -16
  42              		.cfi_offset 5, -12
  43              		.cfi_offset 6, -8
  44              		.cfi_offset 14, -4
  45              		.loc 1 84 0
  46 0008 0C46     		mov	r4, r1
  47 000a 0546     		mov	r5, r0
  48              		.loc 1 82 0
  49 000c 1646     		mov	r6, r2
  50              		.loc 1 84 0
  51 000e 02D1     		bne	.L2
  52              		.loc 1 84 0 is_stmt 0 discriminator 1
  53 0010 0A48     		ldr	r0, .L7
  54              	.LVL1:
  55 0012 FFF7FEFF 		bl	chDbgPanic
  56              	.LVL2:
  57              	.L2:
ARM GAS  /var/folders/dt/0wfd0knj7gs46m8vwfzktm600000gn/T//cchPVIpt.s 			page 2


  58              	.LBB2:
  59              		.loc 1 86 0 is_stmt 1
  60 0016 2023     		movs	r3, #32
  61              	.LVL3:
  62              	@ 86 "../../os/kernel/src/chevents.c" 1
  63 0018 83F31188 		msr     BASEPRI, r3
  64              	@ 0 "" 2
  65              	.LVL4:
  66              		.thumb
  67              	.LBE2:
  68 001c FFF7FEFF 		bl	dbg_check_lock
  69              	.LVL5:
  70              		.loc 1 89 0
  71 0020 074B     		ldr	r3, .L7+4
  72              		.loc 1 87 0
  73 0022 2A68     		ldr	r2, [r5, #0]
  74              		.loc 1 89 0
  75 0024 DB69     		ldr	r3, [r3, #28]
  76              		.loc 1 87 0
  77 0026 2260     		str	r2, [r4, #0]
  78              		.loc 1 88 0
  79 0028 2C60     		str	r4, [r5, #0]
  80              		.loc 1 89 0
  81 002a 6360     		str	r3, [r4, #4]
  82              		.loc 1 90 0
  83 002c A660     		str	r6, [r4, #8]
  84              		.loc 1 91 0
  85 002e FFF7FEFF 		bl	dbg_check_unlock
  86              	.LVL6:
  87              	.LBB3:
  88 0032 0023     		movs	r3, #0
  89              	.LVL7:
  90              	@ 91 "../../os/kernel/src/chevents.c" 1
  91 0034 83F31188 		msr     BASEPRI, r3
  92              	@ 0 "" 2
  93              	.LVL8:
  94              		.thumb
  95 0038 70BD     		pop	{r4, r5, r6, pc}
  96              	.L8:
  97 003a 00BF     		.align	2
  98              	.L7:
  99 003c 00000000 		.word	.LC0
 100 0040 00000000 		.word	rlist
 101              	.LBE3:
 102              		.cfi_endproc
 103              	.LFE7:
 104              		.size	chEvtRegisterMask, .-chEvtRegisterMask
 105 0044 AFF30080 		.section	.text.chEvtUnregister,"ax",%progbits
 105      AFF30080 
 105      AFF30080 
 106              		.align	2
 107              		.p2align 4,,15
 108              		.global	chEvtUnregister
 109              		.thumb
 110              		.thumb_func
 111              		.type	chEvtUnregister, %function
 112              	chEvtUnregister:
ARM GAS  /var/folders/dt/0wfd0knj7gs46m8vwfzktm600000gn/T//cchPVIpt.s 			page 3


 113              	.LFB8:
 114              		.loc 1 107 0
 115              		.cfi_startproc
 116              		@ args = 0, pretend = 0, frame = 0
 117              		@ frame_needed = 0, uses_anonymous_args = 0
 118              	.LVL9:
 119              		.loc 1 110 0
 120 0000 0028     		cmp	r0, #0
 121 0002 18BF     		it	ne
 122 0004 0029     		cmpne	r1, #0
 123              		.loc 1 107 0
 124 0006 38B5     		push	{r3, r4, r5, lr}
 125              	.LCFI1:
 126              		.cfi_def_cfa_offset 16
 127              		.cfi_offset 3, -16
 128              		.cfi_offset 4, -12
 129              		.cfi_offset 5, -8
 130              		.cfi_offset 14, -4
 131              		.loc 1 110 0
 132 0008 0D46     		mov	r5, r1
 133 000a 0446     		mov	r4, r0
 134 000c 14D0     		beq	.L18
 135              	.LVL10:
 136              	.L10:
 137              	.LBB4:
 138              		.loc 1 113 0
 139 000e 2023     		movs	r3, #32
 140              	.LVL11:
 141              	@ 113 "../../os/kernel/src/chevents.c" 1
 142 0010 83F31188 		msr     BASEPRI, r3
 143              	@ 0 "" 2
 144              	.LVL12:
 145              		.thumb
 146              	.LBE4:
 147 0014 FFF7FEFF 		bl	dbg_check_lock
 148              	.LVL13:
 149              		.loc 1 114 0
 150 0018 2246     		mov	r2, r4
 151 001a 00E0     		b	.L11
 152              	.LVL14:
 153              	.L14:
 154              		.loc 1 115 0
 155 001c 1A46     		mov	r2, r3
 156              	.LVL15:
 157              	.L11:
 158              		.loc 1 114 0 discriminator 1
 159 001e 1368     		ldr	r3, [r2, #0]
 160 0020 A342     		cmp	r3, r4
 161 0022 03D0     		beq	.L12
 162              		.loc 1 115 0
 163 0024 9D42     		cmp	r5, r3
 164 0026 F9D1     		bne	.L14
 165              		.loc 1 116 0
 166 0028 2B68     		ldr	r3, [r5, #0]
 167 002a 1360     		str	r3, [r2, #0]
 168              	.L12:
 169              		.loc 1 121 0
ARM GAS  /var/folders/dt/0wfd0knj7gs46m8vwfzktm600000gn/T//cchPVIpt.s 			page 4


 170 002c FFF7FEFF 		bl	dbg_check_unlock
 171              	.LVL16:
 172              	.LBB5:
 173 0030 0023     		movs	r3, #0
 174              	.LVL17:
 175              	@ 121 "../../os/kernel/src/chevents.c" 1
 176 0032 83F31188 		msr     BASEPRI, r3
 177              	@ 0 "" 2
 178              	.LVL18:
 179              		.thumb
 180 0036 38BD     		pop	{r3, r4, r5, pc}
 181              	.LVL19:
 182              	.L18:
 183              	.LBE5:
 184              		.loc 1 110 0 discriminator 1
 185 0038 0148     		ldr	r0, .L19
 186              	.LVL20:
 187 003a FFF7FEFF 		bl	chDbgPanic
 188              	.LVL21:
 189 003e E6E7     		b	.L10
 190              	.L20:
 191              		.align	2
 192              	.L19:
 193 0040 18000000 		.word	.LC1
 194              		.cfi_endproc
 195              	.LFE8:
 196              		.size	chEvtUnregister, .-chEvtUnregister
 197 0044 AFF30080 		.section	.text.chEvtClearFlags,"ax",%progbits
 197      AFF30080 
 197      AFF30080 
 198              		.align	2
 199              		.p2align 4,,15
 200              		.global	chEvtClearFlags
 201              		.thumb
 202              		.thumb_func
 203              		.type	chEvtClearFlags, %function
 204              	chEvtClearFlags:
 205              	.LFB9:
 206              		.loc 1 132 0
 207              		.cfi_startproc
 208              		@ args = 0, pretend = 0, frame = 0
 209              		@ frame_needed = 0, uses_anonymous_args = 0
 210              	.LVL22:
 211 0000 10B5     		push	{r4, lr}
 212              	.LCFI2:
 213              		.cfi_def_cfa_offset 8
 214              		.cfi_offset 4, -8
 215              		.cfi_offset 14, -4
 216              	.LBB6:
 217              		.loc 1 135 0
 218 0002 2023     		movs	r3, #32
 219              	.LVL23:
 220              	.LBE6:
 221              		.loc 1 132 0
 222 0004 0446     		mov	r4, r0
 223              	.LBB7:
 224              		.loc 1 135 0
ARM GAS  /var/folders/dt/0wfd0knj7gs46m8vwfzktm600000gn/T//cchPVIpt.s 			page 5


 225              	@ 135 "../../os/kernel/src/chevents.c" 1
 226 0006 83F31188 		msr     BASEPRI, r3
 227              	@ 0 "" 2
 228              	.LVL24:
 229              		.thumb
 230              	.LBE7:
 231 000a FFF7FEFF 		bl	dbg_check_lock
 232              	.LVL25:
 233              		.loc 1 137 0
 234 000e 40F20003 		movw	r3, #:lower16:rlist
 235 0012 C0F20003 		movt	r3, #:upper16:rlist
 236 0016 DB69     		ldr	r3, [r3, #28]
 237 0018 D86B     		ldr	r0, [r3, #60]
 238              		.loc 1 138 0
 239 001a 20EA0402 		bic	r2, r0, r4
 240 001e DA63     		str	r2, [r3, #60]
 241              		.loc 1 137 0
 242 0020 0440     		ands	r4, r4, r0
 243              	.LVL26:
 244              		.loc 1 140 0
 245 0022 FFF7FEFF 		bl	dbg_check_unlock
 246              	.LVL27:
 247              	.LBB8:
 248 0026 0023     		movs	r3, #0
 249              	.LVL28:
 250              	@ 140 "../../os/kernel/src/chevents.c" 1
 251 0028 83F31188 		msr     BASEPRI, r3
 252              	@ 0 "" 2
 253              	.LVL29:
 254              		.thumb
 255              	.LBE8:
 256              		.loc 1 142 0
 257 002c 2046     		mov	r0, r4
 258 002e 10BD     		pop	{r4, pc}
 259              		.cfi_endproc
 260              	.LFE9:
 261              		.size	chEvtClearFlags, .-chEvtClearFlags
 262              		.section	.text.chEvtAddFlags,"ax",%progbits
 263              		.align	2
 264              		.p2align 4,,15
 265              		.global	chEvtAddFlags
 266              		.thumb
 267              		.thumb_func
 268              		.type	chEvtAddFlags, %function
 269              	chEvtAddFlags:
 270              	.LFB10:
 271              		.loc 1 153 0
 272              		.cfi_startproc
 273              		@ args = 0, pretend = 0, frame = 0
 274              		@ frame_needed = 0, uses_anonymous_args = 0
 275              	.LVL30:
 276 0000 10B5     		push	{r4, lr}
 277              	.LCFI3:
 278              		.cfi_def_cfa_offset 8
 279              		.cfi_offset 4, -8
 280              		.cfi_offset 14, -4
 281              	.LBB9:
ARM GAS  /var/folders/dt/0wfd0knj7gs46m8vwfzktm600000gn/T//cchPVIpt.s 			page 6


 282              		.loc 1 155 0
 283 0002 2023     		movs	r3, #32
 284              	.LVL31:
 285              	.LBE9:
 286              		.loc 1 153 0
 287 0004 0446     		mov	r4, r0
 288              	.LBB10:
 289              		.loc 1 155 0
 290              	@ 155 "../../os/kernel/src/chevents.c" 1
 291 0006 83F31188 		msr     BASEPRI, r3
 292              	@ 0 "" 2
 293              	.LVL32:
 294              		.thumb
 295              	.LBE10:
 296 000a FFF7FEFF 		bl	dbg_check_lock
 297              	.LVL33:
 298              		.loc 1 157 0
 299 000e 40F20003 		movw	r3, #:lower16:rlist
 300 0012 C0F20003 		movt	r3, #:upper16:rlist
 301 0016 DB69     		ldr	r3, [r3, #28]
 302 0018 DA6B     		ldr	r2, [r3, #60]
 303 001a 1443     		orrs	r4, r4, r2
 304              	.LVL34:
 305 001c DC63     		str	r4, [r3, #60]
 306              	.LVL35:
 307              		.loc 1 159 0
 308 001e FFF7FEFF 		bl	dbg_check_unlock
 309              	.LVL36:
 310              	.LBB11:
 311 0022 0023     		movs	r3, #0
 312              	.LVL37:
 313              	@ 159 "../../os/kernel/src/chevents.c" 1
 314 0024 83F31188 		msr     BASEPRI, r3
 315              	@ 0 "" 2
 316              	.LVL38:
 317              		.thumb
 318              	.LBE11:
 319              		.loc 1 161 0
 320 0028 2046     		mov	r0, r4
 321 002a 10BD     		pop	{r4, pc}
 322              		.cfi_endproc
 323              	.LFE10:
 324              		.size	chEvtAddFlags, .-chEvtAddFlags
 325 002c AFF30080 		.section	.text.chEvtSignalFlagsI,"ax",%progbits
 326              		.align	2
 327              		.p2align 4,,15
 328              		.global	chEvtSignalFlagsI
 329              		.thumb
 330              		.thumb_func
 331              		.type	chEvtSignalFlagsI, %function
 332              	chEvtSignalFlagsI:
 333              	.LFB12:
 334              		.loc 1 193 0
 335              		.cfi_startproc
 336              		@ args = 0, pretend = 0, frame = 0
 337              		@ frame_needed = 0, uses_anonymous_args = 0
 338              	.LVL39:
ARM GAS  /var/folders/dt/0wfd0knj7gs46m8vwfzktm600000gn/T//cchPVIpt.s 			page 7


 339 0000 38B5     		push	{r3, r4, r5, lr}
 340              	.LCFI4:
 341              		.cfi_def_cfa_offset 16
 342              		.cfi_offset 3, -16
 343              		.cfi_offset 4, -12
 344              		.cfi_offset 5, -8
 345              		.cfi_offset 14, -4
 346              		.loc 1 193 0
 347 0002 0446     		mov	r4, r0
 348 0004 0D46     		mov	r5, r1
 349              		.loc 1 195 0
 350 0006 FFF7FEFF 		bl	chDbgCheckClassI
 351              	.LVL40:
 352              		.loc 1 196 0
 353 000a C4B1     		cbz	r4, .L28
 354              	.L24:
 355              		.loc 1 198 0
 356 000c E26B     		ldr	r2, [r4, #60]
 357              		.loc 1 200 0
 358 000e 94F82030 		ldrb	r3, [r4, #32]	@ zero_extendqisi2
 359              		.loc 1 198 0
 360 0012 45EA0201 		orr	r1, r5, r2
 361              		.loc 1 200 0
 362 0016 082B     		cmp	r3, #8
 363              		.loc 1 198 0
 364 0018 E163     		str	r1, [r4, #60]
 365              		.loc 1 200 0
 366 001a 0CD0     		beq	.L29
 367              		.loc 1 201 0
 368 001c 092B     		cmp	r3, #9
 369 001e 00D0     		beq	.L30
 370              	.L23:
 371 0020 38BD     		pop	{r3, r4, r5, pc}
 372              	.L30:
 373              		.loc 1 203 0
 374 0022 A36A     		ldr	r3, [r4, #40]
 375 0024 1940     		ands	r1, r1, r3
 376              		.loc 1 202 0
 377 0026 8B42     		cmp	r3, r1
 378 0028 FAD1     		bne	.L23
 379              	.L26:
 380              	.LVL41:
 381              	.LBB14:
 382              	.LBB15:
 383              		.loc 1 204 0
 384 002a 2046     		mov	r0, r4
 385 002c FFF7FEFF 		bl	chSchReadyI
 386              	.LVL42:
 387 0030 0023     		movs	r3, #0
 388 0032 8362     		str	r3, [r0, #40]
 389 0034 38BD     		pop	{r3, r4, r5, pc}
 390              	.LVL43:
 391              	.L29:
 392              	.LBE15:
 393              	.LBE14:
 394              		.loc 1 201 0 discriminator 1
 395 0036 A36A     		ldr	r3, [r4, #40]
ARM GAS  /var/folders/dt/0wfd0knj7gs46m8vwfzktm600000gn/T//cchPVIpt.s 			page 8


 396              		.loc 1 200 0 discriminator 1
 397 0038 1942     		tst	r1, r3
 398 003a F6D1     		bne	.L26
 399 003c 38BD     		pop	{r3, r4, r5, pc}
 400              	.L28:
 401              		.loc 1 196 0 discriminator 1
 402 003e 0248     		ldr	r0, .L31
 403 0040 FFF7FEFF 		bl	chDbgPanic
 404              	.LVL44:
 405 0044 E2E7     		b	.L24
 406              	.L32:
 407 0046 00BF     		.align	2
 408              	.L31:
 409 0048 2C000000 		.word	.LC2
 410              		.cfi_endproc
 411              	.LFE12:
 412              		.size	chEvtSignalFlagsI, .-chEvtSignalFlagsI
 413 004c AFF30080 		.section	.text.chEvtSignalFlags,"ax",%progbits
 414              		.align	2
 415              		.p2align 4,,15
 416              		.global	chEvtSignalFlags
 417              		.thumb
 418              		.thumb_func
 419              		.type	chEvtSignalFlags, %function
 420              	chEvtSignalFlags:
 421              	.LFB11:
 422              		.loc 1 171 0
 423              		.cfi_startproc
 424              		@ args = 0, pretend = 0, frame = 0
 425              		@ frame_needed = 0, uses_anonymous_args = 0
 426              	.LVL45:
 427 0000 38B5     		push	{r3, r4, r5, lr}
 428              	.LCFI5:
 429              		.cfi_def_cfa_offset 16
 430              		.cfi_offset 3, -16
 431              		.cfi_offset 4, -12
 432              		.cfi_offset 5, -8
 433              		.cfi_offset 14, -4
 434              		.loc 1 173 0
 435 0002 0446     		mov	r4, r0
 436              		.loc 1 171 0
 437 0004 0D46     		mov	r5, r1
 438              		.loc 1 173 0
 439 0006 80B1     		cbz	r0, .L35
 440              	.LVL46:
 441              	.L34:
 442              	.LBB16:
 443              		.loc 1 175 0
 444 0008 2023     		movs	r3, #32
 445              	.LVL47:
 446              	@ 175 "../../os/kernel/src/chevents.c" 1
 447 000a 83F31188 		msr     BASEPRI, r3
 448              	@ 0 "" 2
 449              	.LVL48:
 450              		.thumb
 451              	.LBE16:
 452 000e FFF7FEFF 		bl	dbg_check_lock
ARM GAS  /var/folders/dt/0wfd0knj7gs46m8vwfzktm600000gn/T//cchPVIpt.s 			page 9


 453              	.LVL49:
 454              		.loc 1 176 0
 455 0012 2046     		mov	r0, r4
 456 0014 2946     		mov	r1, r5
 457 0016 FFF7FEFF 		bl	chEvtSignalFlagsI
 458              	.LVL50:
 459              		.loc 1 177 0
 460 001a FFF7FEFF 		bl	chSchRescheduleS
 461              	.LVL51:
 462              		.loc 1 178 0
 463 001e FFF7FEFF 		bl	dbg_check_unlock
 464              	.LVL52:
 465              	.LBB17:
 466 0022 0023     		movs	r3, #0
 467              	.LVL53:
 468              	@ 178 "../../os/kernel/src/chevents.c" 1
 469 0024 83F31188 		msr     BASEPRI, r3
 470              	@ 0 "" 2
 471              	.LVL54:
 472              		.thumb
 473 0028 38BD     		pop	{r3, r4, r5, pc}
 474              	.LVL55:
 475              	.L35:
 476              	.LBE17:
 477              		.loc 1 173 0 discriminator 1
 478 002a 0248     		ldr	r0, .L36
 479              	.LVL56:
 480 002c FFF7FEFF 		bl	chDbgPanic
 481              	.LVL57:
 482 0030 EAE7     		b	.L34
 483              	.L37:
 484 0032 00BF     		.align	2
 485              	.L36:
 486 0034 40000000 		.word	.LC3
 487              		.cfi_endproc
 488              	.LFE11:
 489              		.size	chEvtSignalFlags, .-chEvtSignalFlags
 490 0038 AFF30080 		.section	.text.chEvtBroadcastFlagsI,"ax",%progbits
 490      AFF30080 
 491              		.align	2
 492              		.p2align 4,,15
 493              		.global	chEvtBroadcastFlagsI
 494              		.thumb
 495              		.thumb_func
 496              		.type	chEvtBroadcastFlagsI, %function
 497              	chEvtBroadcastFlagsI:
 498              	.LFB14:
 499              		.loc 1 245 0
 500              		.cfi_startproc
 501              		@ args = 0, pretend = 0, frame = 0
 502              		@ frame_needed = 0, uses_anonymous_args = 0
 503              	.LVL58:
 504 0000 70B5     		push	{r4, r5, r6, lr}
 505              	.LCFI6:
 506              		.cfi_def_cfa_offset 16
 507              		.cfi_offset 4, -16
 508              		.cfi_offset 5, -12
ARM GAS  /var/folders/dt/0wfd0knj7gs46m8vwfzktm600000gn/T//cchPVIpt.s 			page 10


 509              		.cfi_offset 6, -8
 510              		.cfi_offset 14, -4
 511              		.loc 1 245 0
 512 0002 0546     		mov	r5, r0
 513 0004 0E46     		mov	r6, r1
 514              		.loc 1 248 0
 515 0006 FFF7FEFF 		bl	chDbgCheckClassI
 516              	.LVL59:
 517              		.loc 1 249 0
 518 000a 5DB1     		cbz	r5, .L45
 519              	.L39:
 520              		.loc 1 251 0
 521 000c 2C68     		ldr	r4, [r5, #0]
 522              	.LVL60:
 523              		.loc 1 252 0
 524 000e A542     		cmp	r5, r4
 525 0010 07D0     		beq	.L38
 526              	.L43:
 527              		.loc 1 253 0
 528 0012 A168     		ldr	r1, [r4, #8]
 529 0014 6068     		ldr	r0, [r4, #4]
 530 0016 3143     		orrs	r1, r1, r6
 531 0018 FFF7FEFF 		bl	chEvtSignalFlagsI
 532              	.LVL61:
 533              		.loc 1 254 0
 534 001c 2468     		ldr	r4, [r4, #0]
 535              	.LVL62:
 536              		.loc 1 252 0
 537 001e A542     		cmp	r5, r4
 538 0020 F7D1     		bne	.L43
 539              	.L38:
 540 0022 70BD     		pop	{r4, r5, r6, pc}
 541              	.LVL63:
 542              	.L45:
 543              		.loc 1 249 0 discriminator 1
 544 0024 0148     		ldr	r0, .L46
 545 0026 FFF7FEFF 		bl	chDbgPanic
 546              	.LVL64:
 547 002a EFE7     		b	.L39
 548              	.L47:
 549              		.align	2
 550              	.L46:
 551 002c 50000000 		.word	.LC4
 552              		.cfi_endproc
 553              	.LFE14:
 554              		.size	chEvtBroadcastFlagsI, .-chEvtBroadcastFlagsI
 555              		.section	.text.chEvtBroadcastFlags,"ax",%progbits
 556              		.align	2
 557              		.p2align 4,,15
 558              		.global	chEvtBroadcastFlags
 559              		.thumb
 560              		.thumb_func
 561              		.type	chEvtBroadcastFlags, %function
 562              	chEvtBroadcastFlags:
 563              	.LFB13:
 564              		.loc 1 220 0
 565              		.cfi_startproc
ARM GAS  /var/folders/dt/0wfd0knj7gs46m8vwfzktm600000gn/T//cchPVIpt.s 			page 11


 566              		@ args = 0, pretend = 0, frame = 0
 567              		@ frame_needed = 0, uses_anonymous_args = 0
 568              	.LVL65:
 569 0000 38B5     		push	{r3, r4, r5, lr}
 570              	.LCFI7:
 571              		.cfi_def_cfa_offset 16
 572              		.cfi_offset 3, -16
 573              		.cfi_offset 4, -12
 574              		.cfi_offset 5, -8
 575              		.cfi_offset 14, -4
 576              		.loc 1 220 0
 577 0002 0546     		mov	r5, r0
 578 0004 0C46     		mov	r4, r1
 579              	.LBB18:
 580              		.loc 1 222 0
 581 0006 2023     		movs	r3, #32
 582              	.LVL66:
 583              	@ 222 "../../os/kernel/src/chevents.c" 1
 584 0008 83F31188 		msr     BASEPRI, r3
 585              	@ 0 "" 2
 586              	.LVL67:
 587              		.thumb
 588              	.LBE18:
 589 000c FFF7FEFF 		bl	dbg_check_lock
 590              	.LVL68:
 591              		.loc 1 223 0
 592 0010 2846     		mov	r0, r5
 593 0012 2146     		mov	r1, r4
 594 0014 FFF7FEFF 		bl	chEvtBroadcastFlagsI
 595              	.LVL69:
 596              		.loc 1 224 0
 597 0018 FFF7FEFF 		bl	chSchRescheduleS
 598              	.LVL70:
 599              		.loc 1 225 0
 600 001c FFF7FEFF 		bl	dbg_check_unlock
 601              	.LVL71:
 602              	.LBB19:
 603 0020 0023     		movs	r3, #0
 604              	.LVL72:
 605              	@ 225 "../../os/kernel/src/chevents.c" 1
 606 0022 83F31188 		msr     BASEPRI, r3
 607              	@ 0 "" 2
 608              	.LVL73:
 609              		.thumb
 610 0026 38BD     		pop	{r3, r4, r5, pc}
 611              	.LBE19:
 612              		.cfi_endproc
 613              	.LFE13:
 614              		.size	chEvtBroadcastFlags, .-chEvtBroadcastFlags
 615 0028 AFF30080 		.section	.text.chEvtDispatch,"ax",%progbits
 615      AFF30080 
 616              		.align	2
 617              		.p2align 4,,15
 618              		.global	chEvtDispatch
 619              		.thumb
 620              		.thumb_func
 621              		.type	chEvtDispatch, %function
ARM GAS  /var/folders/dt/0wfd0knj7gs46m8vwfzktm600000gn/T//cchPVIpt.s 			page 12


 622              	chEvtDispatch:
 623              	.LFB15:
 624              		.loc 1 267 0
 625              		.cfi_startproc
 626              		@ args = 0, pretend = 0, frame = 0
 627              		@ frame_needed = 0, uses_anonymous_args = 0
 628              	.LVL74:
 629 0000 2DE9F041 		push	{r4, r5, r6, r7, r8, lr}
 630              	.LCFI8:
 631              		.cfi_def_cfa_offset 24
 632              		.cfi_offset 4, -24
 633              		.cfi_offset 5, -20
 634              		.cfi_offset 6, -16
 635              		.cfi_offset 7, -12
 636              		.cfi_offset 8, -8
 637              		.cfi_offset 14, -4
 638              		.loc 1 270 0
 639 0004 8046     		mov	r8, r0
 640              		.loc 1 267 0
 641 0006 0D46     		mov	r5, r1
 642              		.loc 1 270 0
 643 0008 D0B1     		cbz	r0, .L60
 644              	.LVL75:
 645              	.L50:
 646              		.loc 1 273 0 discriminator 1
 647 000a 8DB1     		cbz	r5, .L49
 648              		.loc 1 273 0 is_stmt 0
 649 000c 0026     		movs	r6, #0
 650 000e 3446     		mov	r4, r6
 651              		.loc 1 274 0 is_stmt 1
 652 0010 0127     		movs	r7, #1
 653              	.LVL76:
 654              	.L51:
 655 0012 07FA04F3 		lsl	r3, r7, r4
 656 0016 2B42     		tst	r3, r5
 657 0018 06D0     		beq	.L52
 658              		.loc 1 278 0
 659 001a 25EA0305 		bic	r5, r5, r3
 660              	.LVL77:
 661              		.loc 1 275 0
 662 001e 58F80630 		ldr	r3, [r8, r6]
 663 0022 3BB1     		cbz	r3, .L61
 664              	.L53:
 665              	.LVL78:
 666              		.loc 1 279 0
 667 0024 2046     		mov	r0, r4
 668 0026 9847     		blx	r3
 669              	.LVL79:
 670              	.L52:
 671              		.loc 1 281 0
 672 0028 0134     		adds	r4, r4, #1
 673              	.LVL80:
 674 002a 0436     		adds	r6, r6, #4
 675              		.loc 1 273 0
 676 002c 002D     		cmp	r5, #0
 677 002e F0D1     		bne	.L51
 678              	.LVL81:
ARM GAS  /var/folders/dt/0wfd0knj7gs46m8vwfzktm600000gn/T//cchPVIpt.s 			page 13


 679              	.L49:
 680 0030 BDE8F081 		pop	{r4, r5, r6, r7, r8, pc}
 681              	.LVL82:
 682              	.L61:
 683              		.loc 1 275 0 discriminator 1
 684 0034 0448     		ldr	r0, .L62
 685 0036 FFF7FEFF 		bl	chDbgPanic
 686              	.LVL83:
 687 003a 58F80630 		ldr	r3, [r8, r6]
 688 003e F1E7     		b	.L53
 689              	.LVL84:
 690              	.L60:
 691              		.loc 1 270 0 discriminator 1
 692 0040 0248     		ldr	r0, .L62+4
 693              	.LVL85:
 694 0042 FFF7FEFF 		bl	chDbgPanic
 695              	.LVL86:
 696 0046 E0E7     		b	.L50
 697              	.L63:
 698              		.align	2
 699              	.L62:
 700 0048 7C000000 		.word	.LC6
 701 004c 68000000 		.word	.LC5
 702              		.cfi_endproc
 703              	.LFE15:
 704              		.size	chEvtDispatch, .-chEvtDispatch
 705              		.section	.text.chEvtWaitOne,"ax",%progbits
 706              		.align	2
 707              		.p2align 4,,15
 708              		.global	chEvtWaitOne
 709              		.thumb
 710              		.thumb_func
 711              		.type	chEvtWaitOne, %function
 712              	chEvtWaitOne:
 713              	.LFB16:
 714              		.loc 1 302 0
 715              		.cfi_startproc
 716              		@ args = 0, pretend = 0, frame = 0
 717              		@ frame_needed = 0, uses_anonymous_args = 0
 718              	.LVL87:
 719 0000 38B5     		push	{r3, r4, r5, lr}
 720              	.LCFI9:
 721              		.cfi_def_cfa_offset 16
 722              		.cfi_offset 3, -16
 723              		.cfi_offset 4, -12
 724              		.cfi_offset 5, -8
 725              		.cfi_offset 14, -4
 726              		.loc 1 303 0
 727 0002 0F4B     		ldr	r3, .L66
 728              		.loc 1 302 0
 729 0004 0446     		mov	r4, r0
 730              		.loc 1 303 0
 731 0006 DD69     		ldr	r5, [r3, #28]
 732              	.LVL88:
 733              	.LBB20:
 734              		.loc 1 306 0
 735 0008 2023     		movs	r3, #32
ARM GAS  /var/folders/dt/0wfd0knj7gs46m8vwfzktm600000gn/T//cchPVIpt.s 			page 14


 736              	.LVL89:
 737              	@ 306 "../../os/kernel/src/chevents.c" 1
 738 000a 83F31188 		msr     BASEPRI, r3
 739              	@ 0 "" 2
 740              	.LVL90:
 741              		.thumb
 742              	.LBE20:
 743 000e FFF7FEFF 		bl	dbg_check_lock
 744              	.LVL91:
 745              		.loc 1 308 0
 746 0012 EB6B     		ldr	r3, [r5, #60]
 747              	.LVL92:
 748 0014 14EA0302 		ands	r2, r4, r3
 749              	.LVL93:
 750 0018 06D1     		bne	.L65
 751              		.loc 1 309 0
 752 001a AC62     		str	r4, [r5, #40]
 753              		.loc 1 310 0
 754 001c 0820     		movs	r0, #8
 755 001e FFF7FEFF 		bl	chSchGoSleepS
 756              	.LVL94:
 757              		.loc 1 311 0
 758 0022 EB6B     		ldr	r3, [r5, #60]
 759 0024 04EA0302 		and	r2, r4, r3
 760              	.LVL95:
 761              	.L65:
 762              		.loc 1 313 0
 763 0028 5442     		negs	r4, r2
 764              	.LVL96:
 765 002a 1440     		ands	r4, r4, r2
 766              	.LVL97:
 767              		.loc 1 314 0
 768 002c 23EA0403 		bic	r3, r3, r4
 769 0030 EB63     		str	r3, [r5, #60]
 770              		.loc 1 316 0
 771 0032 FFF7FEFF 		bl	dbg_check_unlock
 772              	.LVL98:
 773              	.LBB21:
 774 0036 0023     		movs	r3, #0
 775              	.LVL99:
 776              	@ 316 "../../os/kernel/src/chevents.c" 1
 777 0038 83F31188 		msr     BASEPRI, r3
 778              	@ 0 "" 2
 779              	.LVL100:
 780              		.thumb
 781              	.LBE21:
 782              		.loc 1 318 0
 783 003c 2046     		mov	r0, r4
 784 003e 38BD     		pop	{r3, r4, r5, pc}
 785              	.L67:
 786              		.align	2
 787              	.L66:
 788 0040 00000000 		.word	rlist
 789              		.cfi_endproc
 790              	.LFE16:
 791              		.size	chEvtWaitOne, .-chEvtWaitOne
 792 0044 AFF30080 		.section	.text.chEvtWaitAny,"ax",%progbits
ARM GAS  /var/folders/dt/0wfd0knj7gs46m8vwfzktm600000gn/T//cchPVIpt.s 			page 15


 792      AFF30080 
 792      AFF30080 
 793              		.align	2
 794              		.p2align 4,,15
 795              		.global	chEvtWaitAny
 796              		.thumb
 797              		.thumb_func
 798              		.type	chEvtWaitAny, %function
 799              	chEvtWaitAny:
 800              	.LFB17:
 801              		.loc 1 331 0
 802              		.cfi_startproc
 803              		@ args = 0, pretend = 0, frame = 0
 804              		@ frame_needed = 0, uses_anonymous_args = 0
 805              	.LVL101:
 806              		.loc 1 332 0
 807 0000 0E4B     		ldr	r3, .L70
 808              		.loc 1 331 0
 809 0002 70B5     		push	{r4, r5, r6, lr}
 810              	.LCFI10:
 811              		.cfi_def_cfa_offset 16
 812              		.cfi_offset 4, -16
 813              		.cfi_offset 5, -12
 814              		.cfi_offset 6, -8
 815              		.cfi_offset 14, -4
 816              		.loc 1 332 0
 817 0004 DD69     		ldr	r5, [r3, #28]
 818              	.LVL102:
 819              		.loc 1 331 0
 820 0006 0446     		mov	r4, r0
 821              	.LBB22:
 822              		.loc 1 335 0
 823 0008 2023     		movs	r3, #32
 824              	.LVL103:
 825              	@ 335 "../../os/kernel/src/chevents.c" 1
 826 000a 83F31188 		msr     BASEPRI, r3
 827              	@ 0 "" 2
 828              	.LVL104:
 829              		.thumb
 830              	.LBE22:
 831 000e FFF7FEFF 		bl	dbg_check_lock
 832              	.LVL105:
 833              		.loc 1 337 0
 834 0012 EB6B     		ldr	r3, [r5, #60]
 835              	.LVL106:
 836 0014 14EA0306 		ands	r6, r4, r3
 837              	.LVL107:
 838 0018 06D1     		bne	.L69
 839              		.loc 1 338 0
 840 001a AC62     		str	r4, [r5, #40]
 841              		.loc 1 339 0
 842 001c 0820     		movs	r0, #8
 843 001e FFF7FEFF 		bl	chSchGoSleepS
 844              	.LVL108:
 845              		.loc 1 340 0
 846 0022 EB6B     		ldr	r3, [r5, #60]
 847 0024 04EA0306 		and	r6, r4, r3
ARM GAS  /var/folders/dt/0wfd0knj7gs46m8vwfzktm600000gn/T//cchPVIpt.s 			page 16


 848              	.LVL109:
 849              	.L69:
 850              		.loc 1 342 0
 851 0028 23EA0603 		bic	r3, r3, r6
 852 002c EB63     		str	r3, [r5, #60]
 853              		.loc 1 344 0
 854 002e FFF7FEFF 		bl	dbg_check_unlock
 855              	.LVL110:
 856              	.LBB23:
 857 0032 0023     		movs	r3, #0
 858              	.LVL111:
 859              	@ 344 "../../os/kernel/src/chevents.c" 1
 860 0034 83F31188 		msr     BASEPRI, r3
 861              	@ 0 "" 2
 862              	.LVL112:
 863              		.thumb
 864              	.LBE23:
 865              		.loc 1 346 0
 866 0038 3046     		mov	r0, r6
 867 003a 70BD     		pop	{r4, r5, r6, pc}
 868              	.L71:
 869              		.align	2
 870              	.L70:
 871 003c 00000000 		.word	rlist
 872              		.cfi_endproc
 873              	.LFE17:
 874              		.size	chEvtWaitAny, .-chEvtWaitAny
 875              		.section	.text.chEvtWaitAll,"ax",%progbits
 876              		.align	2
 877              		.p2align 4,,15
 878              		.global	chEvtWaitAll
 879              		.thumb
 880              		.thumb_func
 881              		.type	chEvtWaitAll, %function
 882              	chEvtWaitAll:
 883              	.LFB18:
 884              		.loc 1 359 0
 885              		.cfi_startproc
 886              		@ args = 0, pretend = 0, frame = 0
 887              		@ frame_needed = 0, uses_anonymous_args = 0
 888              	.LVL113:
 889 0000 38B5     		push	{r3, r4, r5, lr}
 890              	.LCFI11:
 891              		.cfi_def_cfa_offset 16
 892              		.cfi_offset 3, -16
 893              		.cfi_offset 4, -12
 894              		.cfi_offset 5, -8
 895              		.cfi_offset 14, -4
 896              		.loc 1 360 0
 897 0002 0E4B     		ldr	r3, .L74
 898              		.loc 1 359 0
 899 0004 0446     		mov	r4, r0
 900              		.loc 1 360 0
 901 0006 DD69     		ldr	r5, [r3, #28]
 902              	.LVL114:
 903              	.LBB24:
 904              		.loc 1 362 0
ARM GAS  /var/folders/dt/0wfd0knj7gs46m8vwfzktm600000gn/T//cchPVIpt.s 			page 17


 905 0008 2023     		movs	r3, #32
 906              	.LVL115:
 907              	@ 362 "../../os/kernel/src/chevents.c" 1
 908 000a 83F31188 		msr     BASEPRI, r3
 909              	@ 0 "" 2
 910              	.LVL116:
 911              		.thumb
 912              	.LBE24:
 913 000e FFF7FEFF 		bl	dbg_check_lock
 914              	.LVL117:
 915              		.loc 1 364 0
 916 0012 EB6B     		ldr	r3, [r5, #60]
 917 0014 04EA0302 		and	r2, r4, r3
 918 0018 A242     		cmp	r2, r4
 919 001a 04D0     		beq	.L73
 920              		.loc 1 365 0
 921 001c AC62     		str	r4, [r5, #40]
 922              		.loc 1 366 0
 923 001e 0920     		movs	r0, #9
 924 0020 FFF7FEFF 		bl	chSchGoSleepS
 925              	.LVL118:
 926 0024 EB6B     		ldr	r3, [r5, #60]
 927              	.L73:
 928              		.loc 1 368 0
 929 0026 23EA0403 		bic	r3, r3, r4
 930 002a EB63     		str	r3, [r5, #60]
 931              		.loc 1 370 0
 932 002c FFF7FEFF 		bl	dbg_check_unlock
 933              	.LVL119:
 934              	.LBB25:
 935 0030 0023     		movs	r3, #0
 936              	.LVL120:
 937              	@ 370 "../../os/kernel/src/chevents.c" 1
 938 0032 83F31188 		msr     BASEPRI, r3
 939              	@ 0 "" 2
 940              	.LVL121:
 941              		.thumb
 942              	.LBE25:
 943              		.loc 1 372 0
 944 0036 2046     		mov	r0, r4
 945 0038 38BD     		pop	{r3, r4, r5, pc}
 946              	.L75:
 947 003a 00BF     		.align	2
 948              	.L74:
 949 003c 00000000 		.word	rlist
 950              		.cfi_endproc
 951              	.LFE18:
 952              		.size	chEvtWaitAll, .-chEvtWaitAll
 953              		.section	.text.chEvtWaitOneTimeout,"ax",%progbits
 954              		.align	2
 955              		.p2align 4,,15
 956              		.global	chEvtWaitOneTimeout
 957              		.thumb
 958              		.thumb_func
 959              		.type	chEvtWaitOneTimeout, %function
 960              	chEvtWaitOneTimeout:
 961              	.LFB19:
ARM GAS  /var/folders/dt/0wfd0knj7gs46m8vwfzktm600000gn/T//cchPVIpt.s 			page 18


 962              		.loc 1 398 0
 963              		.cfi_startproc
 964              		@ args = 0, pretend = 0, frame = 0
 965              		@ frame_needed = 0, uses_anonymous_args = 0
 966              	.LVL122:
 967 0000 F8B5     		push	{r3, r4, r5, r6, r7, lr}
 968              	.LCFI12:
 969              		.cfi_def_cfa_offset 24
 970              		.cfi_offset 3, -24
 971              		.cfi_offset 4, -20
 972              		.cfi_offset 5, -16
 973              		.cfi_offset 6, -12
 974              		.cfi_offset 7, -8
 975              		.cfi_offset 14, -4
 976              		.loc 1 399 0
 977 0002 164B     		ldr	r3, .L82
 978              		.loc 1 398 0
 979 0004 0546     		mov	r5, r0
 980              		.loc 1 399 0
 981 0006 DE69     		ldr	r6, [r3, #28]
 982              	.LVL123:
 983              		.loc 1 398 0
 984 0008 0F46     		mov	r7, r1
 985              	.LBB26:
 986              		.loc 1 402 0
 987 000a 2023     		movs	r3, #32
 988              	.LVL124:
 989              	@ 402 "../../os/kernel/src/chevents.c" 1
 990 000c 83F31188 		msr     BASEPRI, r3
 991              	@ 0 "" 2
 992              	.LVL125:
 993              		.thumb
 994              	.LBE26:
 995 0010 FFF7FEFF 		bl	dbg_check_lock
 996              	.LVL126:
 997              		.loc 1 404 0
 998 0014 F36B     		ldr	r3, [r6, #60]
 999              	.LVL127:
 1000 0016 15EA0304 		ands	r4, r5, r3
 1001              	.LVL128:
 1002 001a 0BD1     		bne	.L77
 1003              		.loc 1 405 0
 1004 001c B7B1     		cbz	r7, .L81
 1005              		.loc 1 410 0
 1006 001e 0820     		movs	r0, #8
 1007              		.loc 1 409 0
 1008 0020 B562     		str	r5, [r6, #40]
 1009              		.loc 1 410 0
 1010 0022 3946     		mov	r1, r7
 1011 0024 FFF7FEFF 		bl	chSchGoSleepTimeoutS
 1012              	.LVL129:
 1013 0028 0028     		cmp	r0, #0
 1014              		.loc 1 414 0
 1015 002a A4BF     		itt	ge
 1016 002c F36B     		ldrge	r3, [r6, #60]
 1017 002e 05EA0304 		andge	r4, r5, r3
 1018              	.LVL130:
ARM GAS  /var/folders/dt/0wfd0knj7gs46m8vwfzktm600000gn/T//cchPVIpt.s 			page 19


 1019              		.loc 1 410 0
 1020 0032 0BDB     		blt	.L81
 1021              	.L77:
 1022              	.LVL131:
 1023              		.loc 1 416 0
 1024 0034 6242     		negs	r2, r4
 1025 0036 1440     		ands	r4, r4, r2
 1026              	.LVL132:
 1027              		.loc 1 417 0
 1028 0038 23EA0403 		bic	r3, r3, r4
 1029 003c F363     		str	r3, [r6, #60]
 1030              		.loc 1 419 0
 1031 003e FFF7FEFF 		bl	dbg_check_unlock
 1032              	.LVL133:
 1033              	.LBB27:
 1034 0042 0023     		movs	r3, #0
 1035              	.LVL134:
 1036              	@ 419 "../../os/kernel/src/chevents.c" 1
 1037 0044 83F31188 		msr     BASEPRI, r3
 1038              	@ 0 "" 2
 1039              	.LVL135:
 1040              		.thumb
 1041              	.LBE27:
 1042              		.loc 1 421 0
 1043 0048 2046     		mov	r0, r4
 1044 004a F8BD     		pop	{r3, r4, r5, r6, r7, pc}
 1045              	.LVL136:
 1046              	.L81:
 1047              		.loc 1 411 0
 1048 004c FFF7FEFF 		bl	dbg_check_unlock
 1049              	.LVL137:
 1050              	.LBB28:
 1051 0050 2346     		mov	r3, r4
 1052              	.LVL138:
 1053              	@ 411 "../../os/kernel/src/chevents.c" 1
 1054 0052 83F31188 		msr     BASEPRI, r3
 1055              	@ 0 "" 2
 1056              	.LVL139:
 1057              		.thumb
 1058              	.LBE28:
 1059              		.loc 1 421 0
 1060 0056 2046     		mov	r0, r4
 1061 0058 F8BD     		pop	{r3, r4, r5, r6, r7, pc}
 1062              	.L83:
 1063 005a 00BF     		.align	2
 1064              	.L82:
 1065 005c 00000000 		.word	rlist
 1066              		.cfi_endproc
 1067              	.LFE19:
 1068              		.size	chEvtWaitOneTimeout, .-chEvtWaitOneTimeout
 1069              		.section	.text.chEvtWaitAnyTimeout,"ax",%progbits
 1070              		.align	2
 1071              		.p2align 4,,15
 1072              		.global	chEvtWaitAnyTimeout
 1073              		.thumb
 1074              		.thumb_func
 1075              		.type	chEvtWaitAnyTimeout, %function
ARM GAS  /var/folders/dt/0wfd0knj7gs46m8vwfzktm600000gn/T//cchPVIpt.s 			page 20


 1076              	chEvtWaitAnyTimeout:
 1077              	.LFB20:
 1078              		.loc 1 441 0
 1079              		.cfi_startproc
 1080              		@ args = 0, pretend = 0, frame = 0
 1081              		@ frame_needed = 0, uses_anonymous_args = 0
 1082              	.LVL140:
 1083 0000 F8B5     		push	{r3, r4, r5, r6, r7, lr}
 1084              	.LCFI13:
 1085              		.cfi_def_cfa_offset 24
 1086              		.cfi_offset 3, -24
 1087              		.cfi_offset 4, -20
 1088              		.cfi_offset 5, -16
 1089              		.cfi_offset 6, -12
 1090              		.cfi_offset 7, -8
 1091              		.cfi_offset 14, -4
 1092              		.loc 1 442 0
 1093 0002 154B     		ldr	r3, .L90
 1094              		.loc 1 441 0
 1095 0004 0446     		mov	r4, r0
 1096              		.loc 1 442 0
 1097 0006 DD69     		ldr	r5, [r3, #28]
 1098              	.LVL141:
 1099              		.loc 1 441 0
 1100 0008 0F46     		mov	r7, r1
 1101              	.LBB29:
 1102              		.loc 1 445 0
 1103 000a 2023     		movs	r3, #32
 1104              	.LVL142:
 1105              	@ 445 "../../os/kernel/src/chevents.c" 1
 1106 000c 83F31188 		msr     BASEPRI, r3
 1107              	@ 0 "" 2
 1108              	.LVL143:
 1109              		.thumb
 1110              	.LBE29:
 1111 0010 FFF7FEFF 		bl	dbg_check_lock
 1112              	.LVL144:
 1113              		.loc 1 447 0
 1114 0014 EA6B     		ldr	r2, [r5, #60]
 1115              	.LVL145:
 1116 0016 14EA0206 		ands	r6, r4, r2
 1117              	.LVL146:
 1118 001a 0BD1     		bne	.L85
 1119              		.loc 1 448 0
 1120 001c A7B1     		cbz	r7, .L89
 1121              		.loc 1 453 0
 1122 001e 0820     		movs	r0, #8
 1123              		.loc 1 452 0
 1124 0020 AC62     		str	r4, [r5, #40]
 1125              		.loc 1 453 0
 1126 0022 3946     		mov	r1, r7
 1127 0024 FFF7FEFF 		bl	chSchGoSleepTimeoutS
 1128              	.LVL147:
 1129 0028 0028     		cmp	r0, #0
 1130              		.loc 1 457 0
 1131 002a A4BF     		itt	ge
 1132 002c EA6B     		ldrge	r2, [r5, #60]
ARM GAS  /var/folders/dt/0wfd0knj7gs46m8vwfzktm600000gn/T//cchPVIpt.s 			page 21


 1133 002e 04EA0206 		andge	r6, r4, r2
 1134              	.LVL148:
 1135              		.loc 1 453 0
 1136 0032 09DB     		blt	.L89
 1137              	.L85:
 1138              	.LVL149:
 1139              		.loc 1 459 0
 1140 0034 22EA0602 		bic	r2, r2, r6
 1141 0038 EA63     		str	r2, [r5, #60]
 1142              		.loc 1 461 0
 1143 003a FFF7FEFF 		bl	dbg_check_unlock
 1144              	.LVL150:
 1145              	.LBB30:
 1146 003e 0023     		movs	r3, #0
 1147              	.LVL151:
 1148              	@ 461 "../../os/kernel/src/chevents.c" 1
 1149 0040 83F31188 		msr     BASEPRI, r3
 1150              	@ 0 "" 2
 1151              	.LVL152:
 1152              		.thumb
 1153              	.LBE30:
 1154              		.loc 1 463 0
 1155 0044 3046     		mov	r0, r6
 1156 0046 F8BD     		pop	{r3, r4, r5, r6, r7, pc}
 1157              	.LVL153:
 1158              	.L89:
 1159              		.loc 1 454 0
 1160 0048 FFF7FEFF 		bl	dbg_check_unlock
 1161              	.LVL154:
 1162              	.LBB31:
 1163 004c 3346     		mov	r3, r6
 1164              	.LVL155:
 1165              	@ 454 "../../os/kernel/src/chevents.c" 1
 1166 004e 83F31188 		msr     BASEPRI, r3
 1167              	@ 0 "" 2
 1168              	.LVL156:
 1169              		.thumb
 1170              	.LBE31:
 1171              		.loc 1 463 0
 1172 0052 3046     		mov	r0, r6
 1173 0054 F8BD     		pop	{r3, r4, r5, r6, r7, pc}
 1174              	.L91:
 1175 0056 00BF     		.align	2
 1176              	.L90:
 1177 0058 00000000 		.word	rlist
 1178              		.cfi_endproc
 1179              	.LFE20:
 1180              		.size	chEvtWaitAnyTimeout, .-chEvtWaitAnyTimeout
 1181 005c AFF30080 		.section	.text.chEvtWaitAllTimeout,"ax",%progbits
 1182              		.align	2
 1183              		.p2align 4,,15
 1184              		.global	chEvtWaitAllTimeout
 1185              		.thumb
 1186              		.thumb_func
 1187              		.type	chEvtWaitAllTimeout, %function
 1188              	chEvtWaitAllTimeout:
 1189              	.LFB21:
ARM GAS  /var/folders/dt/0wfd0knj7gs46m8vwfzktm600000gn/T//cchPVIpt.s 			page 22


 1190              		.loc 1 482 0
 1191              		.cfi_startproc
 1192              		@ args = 0, pretend = 0, frame = 0
 1193              		@ frame_needed = 0, uses_anonymous_args = 0
 1194              	.LVL157:
 1195              		.loc 1 483 0
 1196 0000 184B     		ldr	r3, .L98
 1197              		.loc 1 482 0
 1198 0002 70B5     		push	{r4, r5, r6, lr}
 1199              	.LCFI14:
 1200              		.cfi_def_cfa_offset 16
 1201              		.cfi_offset 4, -16
 1202              		.cfi_offset 5, -12
 1203              		.cfi_offset 6, -8
 1204              		.cfi_offset 14, -4
 1205              		.loc 1 483 0
 1206 0004 DD69     		ldr	r5, [r3, #28]
 1207              	.LVL158:
 1208              		.loc 1 482 0
 1209 0006 0446     		mov	r4, r0
 1210 0008 0E46     		mov	r6, r1
 1211              	.LBB32:
 1212              		.loc 1 485 0
 1213 000a 2023     		movs	r3, #32
 1214              	.LVL159:
 1215              	@ 485 "../../os/kernel/src/chevents.c" 1
 1216 000c 83F31188 		msr     BASEPRI, r3
 1217              	@ 0 "" 2
 1218              	.LVL160:
 1219              		.thumb
 1220              	.LBE32:
 1221 0010 FFF7FEFF 		bl	dbg_check_lock
 1222              	.LVL161:
 1223              		.loc 1 487 0
 1224 0014 EA6B     		ldr	r2, [r5, #60]
 1225 0016 04EA0203 		and	r3, r4, r2
 1226 001a A342     		cmp	r3, r4
 1227 001c 08D0     		beq	.L93
 1228              		.loc 1 488 0
 1229 001e 8EB1     		cbz	r6, .L97
 1230              		.loc 1 493 0
 1231 0020 0920     		movs	r0, #9
 1232              		.loc 1 492 0
 1233 0022 AC62     		str	r4, [r5, #40]
 1234              		.loc 1 493 0
 1235 0024 3146     		mov	r1, r6
 1236 0026 FFF7FEFF 		bl	chSchGoSleepTimeoutS
 1237              	.LVL162:
 1238 002a 0028     		cmp	r0, #0
 1239 002c 12DB     		blt	.L96
 1240 002e EA6B     		ldr	r2, [r5, #60]
 1241              	.L93:
 1242              		.loc 1 498 0
 1243 0030 22EA0402 		bic	r2, r2, r4
 1244 0034 EA63     		str	r2, [r5, #60]
 1245              		.loc 1 500 0
 1246 0036 FFF7FEFF 		bl	dbg_check_unlock
ARM GAS  /var/folders/dt/0wfd0knj7gs46m8vwfzktm600000gn/T//cchPVIpt.s 			page 23


 1247              	.LVL163:
 1248              	.LBB33:
 1249 003a 0023     		movs	r3, #0
 1250              	.LVL164:
 1251              	@ 500 "../../os/kernel/src/chevents.c" 1
 1252 003c 83F31188 		msr     BASEPRI, r3
 1253              	@ 0 "" 2
 1254              	.LVL165:
 1255              		.thumb
 1256              	.L95:
 1257              	.LBE33:
 1258              		.loc 1 502 0
 1259 0040 2046     		mov	r0, r4
 1260 0042 70BD     		pop	{r4, r5, r6, pc}
 1261              	.LVL166:
 1262              	.L97:
 1263              		.loc 1 489 0
 1264 0044 FFF7FEFF 		bl	dbg_check_unlock
 1265              	.LVL167:
 1266              	.LBB34:
 1267 0048 3346     		mov	r3, r6
 1268              	.LVL168:
 1269              	@ 489 "../../os/kernel/src/chevents.c" 1
 1270 004a 83F31188 		msr     BASEPRI, r3
 1271              	@ 0 "" 2
 1272              	.LVL169:
 1273              		.thumb
 1274              	.LBE34:
 1275              		.loc 1 490 0
 1276 004e 3446     		mov	r4, r6
 1277              	.LVL170:
 1278              		.loc 1 502 0
 1279 0050 2046     		mov	r0, r4
 1280 0052 70BD     		pop	{r4, r5, r6, pc}
 1281              	.LVL171:
 1282              	.L96:
 1283              		.loc 1 494 0
 1284 0054 FFF7FEFF 		bl	dbg_check_unlock
 1285              	.LVL172:
 1286              	.LBB35:
 1287 0058 0023     		movs	r3, #0
 1288              	@ 494 "../../os/kernel/src/chevents.c" 1
 1289 005a 83F31188 		msr     BASEPRI, r3
 1290              	@ 0 "" 2
 1291              	.LVL173:
 1292              		.thumb
 1293              	.LBE35:
 1294              		.loc 1 495 0
 1295 005e 1C46     		mov	r4, r3
 1296              	.LVL174:
 1297 0060 EEE7     		b	.L95
 1298              	.L99:
 1299 0062 00BF     		.align	2
 1300              	.L98:
 1301 0064 00000000 		.word	rlist
 1302              		.cfi_endproc
 1303              	.LFE21:
ARM GAS  /var/folders/dt/0wfd0knj7gs46m8vwfzktm600000gn/T//cchPVIpt.s 			page 24


 1304              		.size	chEvtWaitAllTimeout, .-chEvtWaitAllTimeout
 1305 0068 AFF30080 		.section	.rodata.str1.4,"aMS",%progbits,1
 1305      AFF30080 
 1306              		.align	2
 1307              	.LC0:
 1308 0000 22636845 		.ascii	"\"chEvtRegisterMask\"()\000"
 1308      76745265 
 1308      67697374 
 1308      65724D61 
 1308      736B2228 
 1309 0016 0000     		.space	2
 1310              	.LC1:
 1311 0018 22636845 		.ascii	"\"chEvtUnregister\"()\000"
 1311      7674556E 
 1311      72656769 
 1311      73746572 
 1311      22282900 
 1312              	.LC2:
 1313 002c 22636845 		.ascii	"\"chEvtSignalI\"()\000"
 1313      76745369 
 1313      676E616C 
 1313      49222829 
 1313      00
 1314 003d 000000   		.space	3
 1315              	.LC3:
 1316 0040 22636845 		.ascii	"\"chEvtSignal\"()\000"
 1316      76745369 
 1316      676E616C 
 1316      22282900 
 1317              	.LC4:
 1318 0050 22636845 		.ascii	"\"chEvtBroadcastMaskI\"()\000"
 1318      76744272 
 1318      6F616463 
 1318      6173744D 
 1318      61736B49 
 1319              	.LC5:
 1320 0068 22636845 		.ascii	"\"chEvtDispatch\"()\000"
 1320      76744469 
 1320      73706174 
 1320      63682228 
 1320      2900
 1321 007a 0000     		.space	2
 1322              	.LC6:
 1323 007c 63684576 		.ascii	"chEvtDispatch(), #1\000"
 1323      74446973 
 1323      70617463 
 1323      6828292C 
 1323      20233100 
 1324              		.text
 1325              	.Letext0:
 1326              		.file 2 "/Users/toxygen/Applications/yagarto-4.7.2/bin/../lib/gcc/arm-none-eabi/4.7.2/../../../../
 1327              		.file 3 "../../os/ports/GCC/ARMCMx/chtypes.h"
 1328              		.file 4 "../../os/kernel/include/chlists.h"
 1329              		.file 5 "../../os/kernel/include/chthreads.h"
 1330              		.file 6 "../../os/ports/GCC/ARMCMx/chcore_v7m.h"
 1331              		.file 7 "../../os/kernel/include/chschd.h"
 1332              		.file 8 "../../os/kernel/include/chmtx.h"
ARM GAS  /var/folders/dt/0wfd0knj7gs46m8vwfzktm600000gn/T//cchPVIpt.s 			page 25


 1333              		.file 9 "../../os/kernel/include/chevents.h"
 1334              		.file 10 "../../os/kernel/include/chdebug.h"
 1335              		.section	.debug_info,"",%progbits
 1336              	.Ldebug_info0:
 1337 0000 A90F0000 		.4byte	0xfa9
 1338 0004 0200     		.2byte	0x2
 1339 0006 00000000 		.4byte	.Ldebug_abbrev0
 1340 000a 04       		.byte	0x4
 1341 000b 01       		.uleb128 0x1
 1342 000c 65020000 		.4byte	.LASF98
 1343 0010 01       		.byte	0x1
 1344 0011 E7030000 		.4byte	.LASF99
 1345 0015 81030000 		.4byte	.LASF100
 1346 0019 30000000 		.4byte	.Ldebug_ranges0+0x30
 1347 001d 00000000 		.4byte	0
 1348 0021 00000000 		.4byte	0
 1349 0025 00000000 		.4byte	.Ldebug_line0
 1350 0029 02       		.uleb128 0x2
 1351 002a 04       		.byte	0x4
 1352 002b 05       		.byte	0x5
 1353 002c 696E7400 		.ascii	"int\000"
 1354 0030 03       		.uleb128 0x3
 1355 0031 04       		.byte	0x4
 1356 0032 07       		.byte	0x7
 1357 0033 82010000 		.4byte	.LASF0
 1358 0037 03       		.uleb128 0x3
 1359 0038 01       		.byte	0x1
 1360 0039 06       		.byte	0x6
 1361 003a 7C000000 		.4byte	.LASF1
 1362 003e 04       		.uleb128 0x4
 1363 003f DF030000 		.4byte	.LASF5
 1364 0043 02       		.byte	0x2
 1365 0044 2A       		.byte	0x2a
 1366 0045 49000000 		.4byte	0x49
 1367 0049 03       		.uleb128 0x3
 1368 004a 01       		.byte	0x1
 1369 004b 08       		.byte	0x8
 1370 004c C3020000 		.4byte	.LASF2
 1371 0050 03       		.uleb128 0x3
 1372 0051 02       		.byte	0x2
 1373 0052 05       		.byte	0x5
 1374 0053 F4020000 		.4byte	.LASF3
 1375 0057 03       		.uleb128 0x3
 1376 0058 02       		.byte	0x2
 1377 0059 07       		.byte	0x7
 1378 005a A9010000 		.4byte	.LASF4
 1379 005e 04       		.uleb128 0x4
 1380 005f BB020000 		.4byte	.LASF6
 1381 0063 02       		.byte	0x2
 1382 0064 4F       		.byte	0x4f
 1383 0065 69000000 		.4byte	0x69
 1384 0069 03       		.uleb128 0x3
 1385 006a 04       		.byte	0x4
 1386 006b 05       		.byte	0x5
 1387 006c BA000000 		.4byte	.LASF7
 1388 0070 04       		.uleb128 0x4
 1389 0071 43030000 		.4byte	.LASF8
ARM GAS  /var/folders/dt/0wfd0knj7gs46m8vwfzktm600000gn/T//cchPVIpt.s 			page 26


 1390 0075 02       		.byte	0x2
 1391 0076 50       		.byte	0x50
 1392 0077 7B000000 		.4byte	0x7b
 1393 007b 03       		.uleb128 0x3
 1394 007c 04       		.byte	0x4
 1395 007d 07       		.byte	0x7
 1396 007e 8F010000 		.4byte	.LASF9
 1397 0082 03       		.uleb128 0x3
 1398 0083 08       		.byte	0x8
 1399 0084 05       		.byte	0x5
 1400 0085 6E000000 		.4byte	.LASF10
 1401 0089 04       		.uleb128 0x4
 1402 008a 18000000 		.4byte	.LASF11
 1403 008e 02       		.byte	0x2
 1404 008f 78       		.byte	0x78
 1405 0090 94000000 		.4byte	0x94
 1406 0094 03       		.uleb128 0x3
 1407 0095 08       		.byte	0x8
 1408 0096 07       		.byte	0x7
 1409 0097 21000000 		.4byte	.LASF12
 1410 009b 04       		.uleb128 0x4
 1411 009c EC010000 		.4byte	.LASF13
 1412 00a0 03       		.byte	0x3
 1413 00a1 2F       		.byte	0x2f
 1414 00a2 3E000000 		.4byte	0x3e
 1415 00a6 04       		.uleb128 0x4
 1416 00a7 C3000000 		.4byte	.LASF14
 1417 00ab 03       		.byte	0x3
 1418 00ac 30       		.byte	0x30
 1419 00ad 3E000000 		.4byte	0x3e
 1420 00b1 04       		.uleb128 0x4
 1421 00b2 94020000 		.4byte	.LASF15
 1422 00b6 03       		.byte	0x3
 1423 00b7 31       		.byte	0x31
 1424 00b8 3E000000 		.4byte	0x3e
 1425 00bc 04       		.uleb128 0x4
 1426 00bd A3020000 		.4byte	.LASF16
 1427 00c1 03       		.byte	0x3
 1428 00c2 32       		.byte	0x32
 1429 00c3 70000000 		.4byte	0x70
 1430 00c7 04       		.uleb128 0x4
 1431 00c8 CE010000 		.4byte	.LASF17
 1432 00cc 03       		.byte	0x3
 1433 00cd 33       		.byte	0x33
 1434 00ce 5E000000 		.4byte	0x5e
 1435 00d2 04       		.uleb128 0x4
 1436 00d3 3E010000 		.4byte	.LASF18
 1437 00d7 03       		.byte	0x3
 1438 00d8 34       		.byte	0x34
 1439 00d9 5E000000 		.4byte	0x5e
 1440 00dd 04       		.uleb128 0x4
 1441 00de 00020000 		.4byte	.LASF19
 1442 00e2 03       		.byte	0x3
 1443 00e3 35       		.byte	0x35
 1444 00e4 70000000 		.4byte	0x70
 1445 00e8 04       		.uleb128 0x4
 1446 00e9 6C030000 		.4byte	.LASF20
ARM GAS  /var/folders/dt/0wfd0knj7gs46m8vwfzktm600000gn/T//cchPVIpt.s 			page 27


 1447 00ed 03       		.byte	0x3
 1448 00ee 36       		.byte	0x36
 1449 00ef 70000000 		.4byte	0x70
 1450 00f3 04       		.uleb128 0x4
 1451 00f4 60010000 		.4byte	.LASF21
 1452 00f8 03       		.byte	0x3
 1453 00f9 37       		.byte	0x37
 1454 00fa 5E000000 		.4byte	0x5e
 1455 00fe 04       		.uleb128 0x4
 1456 00ff 23030000 		.4byte	.LASF22
 1457 0103 04       		.byte	0x4
 1458 0104 2A       		.byte	0x2a
 1459 0105 09010000 		.4byte	0x109
 1460 0109 05       		.uleb128 0x5
 1461 010a 23030000 		.4byte	.LASF22
 1462 010e 4C       		.byte	0x4c
 1463 010f 05       		.byte	0x5
 1464 0110 5E       		.byte	0x5e
 1465 0111 2E020000 		.4byte	0x22e
 1466 0115 06       		.uleb128 0x6
 1467 0116 14030000 		.4byte	.LASF23
 1468 011a 05       		.byte	0x5
 1469 011b 5F       		.byte	0x5f
 1470 011c 53020000 		.4byte	0x253
 1471 0120 02       		.byte	0x2
 1472 0121 23       		.byte	0x23
 1473 0122 00       		.uleb128 0
 1474 0123 06       		.uleb128 0x6
 1475 0124 9C020000 		.4byte	.LASF24
 1476 0128 05       		.byte	0x5
 1477 0129 61       		.byte	0x61
 1478 012a 53020000 		.4byte	0x253
 1479 012e 02       		.byte	0x2
 1480 012f 23       		.byte	0x23
 1481 0130 04       		.uleb128 0x4
 1482 0131 06       		.uleb128 0x6
 1483 0132 67000000 		.4byte	.LASF25
 1484 0136 05       		.byte	0x5
 1485 0137 63       		.byte	0x63
 1486 0138 BC000000 		.4byte	0xbc
 1487 013c 02       		.byte	0x2
 1488 013d 23       		.byte	0x23
 1489 013e 08       		.uleb128 0x8
 1490 013f 06       		.uleb128 0x6
 1491 0140 85040000 		.4byte	.LASF26
 1492 0144 05       		.byte	0x5
 1493 0145 64       		.byte	0x64
 1494 0146 2B030000 		.4byte	0x32b
 1495 014a 02       		.byte	0x2
 1496 014b 23       		.byte	0x23
 1497 014c 0C       		.uleb128 0xc
 1498 014d 06       		.uleb128 0x6
 1499 014e FB000000 		.4byte	.LASF27
 1500 0152 05       		.byte	0x5
 1501 0153 66       		.byte	0x66
 1502 0154 53020000 		.4byte	0x253
 1503 0158 02       		.byte	0x2
ARM GAS  /var/folders/dt/0wfd0knj7gs46m8vwfzktm600000gn/T//cchPVIpt.s 			page 28


 1504 0159 23       		.byte	0x23
 1505 015a 10       		.uleb128 0x10
 1506 015b 06       		.uleb128 0x6
 1507 015c 45020000 		.4byte	.LASF28
 1508 0160 05       		.byte	0x5
 1509 0161 67       		.byte	0x67
 1510 0162 53020000 		.4byte	0x253
 1511 0166 02       		.byte	0x2
 1512 0167 23       		.byte	0x23
 1513 0168 14       		.uleb128 0x14
 1514 0169 06       		.uleb128 0x6
 1515 016a 2F040000 		.4byte	.LASF29
 1516 016e 05       		.byte	0x5
 1517 016f 6E       		.byte	0x6e
 1518 0170 D8040000 		.4byte	0x4d8
 1519 0174 02       		.byte	0x2
 1520 0175 23       		.byte	0x23
 1521 0176 18       		.uleb128 0x18
 1522 0177 06       		.uleb128 0x6
 1523 0178 77010000 		.4byte	.LASF30
 1524 017c 05       		.byte	0x5
 1525 017d 74       		.byte	0x74
 1526 017e EA040000 		.4byte	0x4ea
 1527 0182 02       		.byte	0x2
 1528 0183 23       		.byte	0x23
 1529 0184 1C       		.uleb128 0x1c
 1530 0185 06       		.uleb128 0x6
 1531 0186 FE020000 		.4byte	.LASF31
 1532 018a 05       		.byte	0x5
 1533 018b 79       		.byte	0x79
 1534 018c A6000000 		.4byte	0xa6
 1535 0190 02       		.byte	0x2
 1536 0191 23       		.byte	0x23
 1537 0192 20       		.uleb128 0x20
 1538 0193 06       		.uleb128 0x6
 1539 0194 1B030000 		.4byte	.LASF32
 1540 0198 05       		.byte	0x5
 1541 0199 7D       		.byte	0x7d
 1542 019a 9B000000 		.4byte	0x9b
 1543 019e 02       		.byte	0x2
 1544 019f 23       		.byte	0x23
 1545 01a0 21       		.uleb128 0x21
 1546 01a1 06       		.uleb128 0x6
 1547 01a2 C8030000 		.4byte	.LASF33
 1548 01a6 05       		.byte	0x5
 1549 01a7 82       		.byte	0x82
 1550 01a8 B1000000 		.4byte	0xb1
 1551 01ac 02       		.byte	0x2
 1552 01ad 23       		.byte	0x23
 1553 01ae 22       		.uleb128 0x22
 1554 01af 06       		.uleb128 0x6
 1555 01b0 AF030000 		.4byte	.LASF34
 1556 01b4 05       		.byte	0x5
 1557 01b5 89       		.byte	0x89
 1558 01b6 55030000 		.4byte	0x355
 1559 01ba 02       		.byte	0x2
 1560 01bb 23       		.byte	0x23
ARM GAS  /var/folders/dt/0wfd0knj7gs46m8vwfzktm600000gn/T//cchPVIpt.s 			page 29


 1561 01bc 24       		.uleb128 0x24
 1562 01bd 07       		.uleb128 0x7
 1563 01be 705F7500 		.ascii	"p_u\000"
 1564 01c2 05       		.byte	0x5
 1565 01c3 AE       		.byte	0xae
 1566 01c4 A3040000 		.4byte	0x4a3
 1567 01c8 02       		.byte	0x2
 1568 01c9 23       		.byte	0x23
 1569 01ca 28       		.uleb128 0x28
 1570 01cb 06       		.uleb128 0x6
 1571 01cc 8B040000 		.4byte	.LASF35
 1572 01d0 05       		.byte	0x5
 1573 01d1 B3       		.byte	0xb3
 1574 01d2 7B020000 		.4byte	0x27b
 1575 01d6 02       		.byte	0x2
 1576 01d7 23       		.byte	0x23
 1577 01d8 2C       		.uleb128 0x2c
 1578 01d9 06       		.uleb128 0x6
 1579 01da BD030000 		.4byte	.LASF36
 1580 01de 05       		.byte	0x5
 1581 01df B9       		.byte	0xb9
 1582 01e0 59020000 		.4byte	0x259
 1583 01e4 02       		.byte	0x2
 1584 01e5 23       		.byte	0x23
 1585 01e6 30       		.uleb128 0x30
 1586 01e7 06       		.uleb128 0x6
 1587 01e8 00000000 		.4byte	.LASF37
 1588 01ec 05       		.byte	0x5
 1589 01ed BD       		.byte	0xbd
 1590 01ee C7000000 		.4byte	0xc7
 1591 01f2 02       		.byte	0x2
 1592 01f3 23       		.byte	0x23
 1593 01f4 38       		.uleb128 0x38
 1594 01f5 06       		.uleb128 0x6
 1595 01f6 38030000 		.4byte	.LASF38
 1596 01fa 05       		.byte	0x5
 1597 01fb C3       		.byte	0xc3
 1598 01fc DD000000 		.4byte	0xdd
 1599 0200 02       		.byte	0x2
 1600 0201 23       		.byte	0x23
 1601 0202 3C       		.uleb128 0x3c
 1602 0203 06       		.uleb128 0x6
 1603 0204 EA020000 		.4byte	.LASF39
 1604 0208 05       		.byte	0x5
 1605 0209 CA       		.byte	0xca
 1606 020a F0040000 		.4byte	0x4f0
 1607 020e 02       		.byte	0x2
 1608 020f 23       		.byte	0x23
 1609 0210 40       		.uleb128 0x40
 1610 0211 06       		.uleb128 0x6
 1611 0212 76030000 		.4byte	.LASF40
 1612 0216 05       		.byte	0x5
 1613 0217 CE       		.byte	0xce
 1614 0218 BC000000 		.4byte	0xbc
 1615 021c 02       		.byte	0x2
 1616 021d 23       		.byte	0x23
 1617 021e 44       		.uleb128 0x44
ARM GAS  /var/folders/dt/0wfd0knj7gs46m8vwfzktm600000gn/T//cchPVIpt.s 			page 30


 1618 021f 06       		.uleb128 0x6
 1619 0220 9C000000 		.4byte	.LASF41
 1620 0224 05       		.byte	0x5
 1621 0225 D4       		.byte	0xd4
 1622 0226 91020000 		.4byte	0x291
 1623 022a 02       		.byte	0x2
 1624 022b 23       		.byte	0x23
 1625 022c 48       		.uleb128 0x48
 1626 022d 00       		.byte	0
 1627 022e 08       		.uleb128 0x8
 1628 022f 08       		.byte	0x8
 1629 0230 04       		.byte	0x4
 1630 0231 61       		.byte	0x61
 1631 0232 53020000 		.4byte	0x253
 1632 0236 06       		.uleb128 0x6
 1633 0237 14030000 		.4byte	.LASF23
 1634 023b 04       		.byte	0x4
 1635 023c 62       		.byte	0x62
 1636 023d 53020000 		.4byte	0x253
 1637 0241 02       		.byte	0x2
 1638 0242 23       		.byte	0x23
 1639 0243 00       		.uleb128 0
 1640 0244 06       		.uleb128 0x6
 1641 0245 9C020000 		.4byte	.LASF24
 1642 0249 04       		.byte	0x4
 1643 024a 64       		.byte	0x64
 1644 024b 53020000 		.4byte	0x253
 1645 024f 02       		.byte	0x2
 1646 0250 23       		.byte	0x23
 1647 0251 04       		.uleb128 0x4
 1648 0252 00       		.byte	0
 1649 0253 09       		.uleb128 0x9
 1650 0254 04       		.byte	0x4
 1651 0255 FE000000 		.4byte	0xfe
 1652 0259 04       		.uleb128 0x4
 1653 025a 53020000 		.4byte	.LASF42
 1654 025e 04       		.byte	0x4
 1655 025f 66       		.byte	0x66
 1656 0260 2E020000 		.4byte	0x22e
 1657 0264 08       		.uleb128 0x8
 1658 0265 04       		.byte	0x4
 1659 0266 04       		.byte	0x4
 1660 0267 6B       		.byte	0x6b
 1661 0268 7B020000 		.4byte	0x27b
 1662 026c 06       		.uleb128 0x6
 1663 026d 14030000 		.4byte	.LASF23
 1664 0271 04       		.byte	0x4
 1665 0272 6D       		.byte	0x6d
 1666 0273 53020000 		.4byte	0x253
 1667 0277 02       		.byte	0x2
 1668 0278 23       		.byte	0x23
 1669 0279 00       		.uleb128 0
 1670 027a 00       		.byte	0
 1671 027b 04       		.uleb128 0x4
 1672 027c F4010000 		.4byte	.LASF43
 1673 0280 04       		.byte	0x4
 1674 0281 70       		.byte	0x70
ARM GAS  /var/folders/dt/0wfd0knj7gs46m8vwfzktm600000gn/T//cchPVIpt.s 			page 31


 1675 0282 64020000 		.4byte	0x264
 1676 0286 04       		.uleb128 0x4
 1677 0287 21010000 		.4byte	.LASF44
 1678 028b 06       		.byte	0x6
 1679 028c D7       		.byte	0xd7
 1680 028d 91020000 		.4byte	0x291
 1681 0291 0A       		.uleb128 0xa
 1682 0292 04       		.byte	0x4
 1683 0293 04       		.uleb128 0x4
 1684 0294 12020000 		.4byte	.LASF45
 1685 0298 06       		.byte	0x6
 1686 0299 DD       		.byte	0xdd
 1687 029a 89000000 		.4byte	0x89
 1688 029e 05       		.uleb128 0x5
 1689 029f B6030000 		.4byte	.LASF46
 1690 02a3 24       		.byte	0x24
 1691 02a4 06       		.byte	0x6
 1692 02a5 FE       		.byte	0xfe
 1693 02a6 2B030000 		.4byte	0x32b
 1694 02aa 0B       		.uleb128 0xb
 1695 02ab 723400   		.ascii	"r4\000"
 1696 02ae 06       		.byte	0x6
 1697 02af 1101     		.2byte	0x111
 1698 02b1 86020000 		.4byte	0x286
 1699 02b5 02       		.byte	0x2
 1700 02b6 23       		.byte	0x23
 1701 02b7 00       		.uleb128 0
 1702 02b8 0B       		.uleb128 0xb
 1703 02b9 723500   		.ascii	"r5\000"
 1704 02bc 06       		.byte	0x6
 1705 02bd 1201     		.2byte	0x112
 1706 02bf 86020000 		.4byte	0x286
 1707 02c3 02       		.byte	0x2
 1708 02c4 23       		.byte	0x23
 1709 02c5 04       		.uleb128 0x4
 1710 02c6 0B       		.uleb128 0xb
 1711 02c7 723600   		.ascii	"r6\000"
 1712 02ca 06       		.byte	0x6
 1713 02cb 1301     		.2byte	0x113
 1714 02cd 86020000 		.4byte	0x286
 1715 02d1 02       		.byte	0x2
 1716 02d2 23       		.byte	0x23
 1717 02d3 08       		.uleb128 0x8
 1718 02d4 0B       		.uleb128 0xb
 1719 02d5 723700   		.ascii	"r7\000"
 1720 02d8 06       		.byte	0x6
 1721 02d9 1401     		.2byte	0x114
 1722 02db 86020000 		.4byte	0x286
 1723 02df 02       		.byte	0x2
 1724 02e0 23       		.byte	0x23
 1725 02e1 0C       		.uleb128 0xc
 1726 02e2 0B       		.uleb128 0xb
 1727 02e3 723800   		.ascii	"r8\000"
 1728 02e6 06       		.byte	0x6
 1729 02e7 1501     		.2byte	0x115
 1730 02e9 86020000 		.4byte	0x286
 1731 02ed 02       		.byte	0x2
ARM GAS  /var/folders/dt/0wfd0knj7gs46m8vwfzktm600000gn/T//cchPVIpt.s 			page 32


 1732 02ee 23       		.byte	0x23
 1733 02ef 10       		.uleb128 0x10
 1734 02f0 0B       		.uleb128 0xb
 1735 02f1 723900   		.ascii	"r9\000"
 1736 02f4 06       		.byte	0x6
 1737 02f5 1601     		.2byte	0x116
 1738 02f7 86020000 		.4byte	0x286
 1739 02fb 02       		.byte	0x2
 1740 02fc 23       		.byte	0x23
 1741 02fd 14       		.uleb128 0x14
 1742 02fe 0B       		.uleb128 0xb
 1743 02ff 72313000 		.ascii	"r10\000"
 1744 0303 06       		.byte	0x6
 1745 0304 1701     		.2byte	0x117
 1746 0306 86020000 		.4byte	0x286
 1747 030a 02       		.byte	0x2
 1748 030b 23       		.byte	0x23
 1749 030c 18       		.uleb128 0x18
 1750 030d 0B       		.uleb128 0xb
 1751 030e 72313100 		.ascii	"r11\000"
 1752 0312 06       		.byte	0x6
 1753 0313 1801     		.2byte	0x118
 1754 0315 86020000 		.4byte	0x286
 1755 0319 02       		.byte	0x2
 1756 031a 23       		.byte	0x23
 1757 031b 1C       		.uleb128 0x1c
 1758 031c 0B       		.uleb128 0xb
 1759 031d 6C7200   		.ascii	"lr\000"
 1760 0320 06       		.byte	0x6
 1761 0321 1901     		.2byte	0x119
 1762 0323 86020000 		.4byte	0x286
 1763 0327 02       		.byte	0x2
 1764 0328 23       		.byte	0x23
 1765 0329 20       		.uleb128 0x20
 1766 032a 00       		.byte	0
 1767 032b 0C       		.uleb128 0xc
 1768 032c A1010000 		.4byte	.LASF47
 1769 0330 04       		.byte	0x4
 1770 0331 06       		.byte	0x6
 1771 0332 2301     		.2byte	0x123
 1772 0334 48030000 		.4byte	0x348
 1773 0338 0B       		.uleb128 0xb
 1774 0339 72313300 		.ascii	"r13\000"
 1775 033d 06       		.byte	0x6
 1776 033e 2401     		.2byte	0x124
 1777 0340 48030000 		.4byte	0x348
 1778 0344 02       		.byte	0x2
 1779 0345 23       		.byte	0x23
 1780 0346 00       		.uleb128 0
 1781 0347 00       		.byte	0
 1782 0348 09       		.uleb128 0x9
 1783 0349 04       		.byte	0x4
 1784 034a 9E020000 		.4byte	0x29e
 1785 034e 03       		.uleb128 0x3
 1786 034f 04       		.byte	0x4
 1787 0350 07       		.byte	0x7
 1788 0351 2E020000 		.4byte	.LASF48
ARM GAS  /var/folders/dt/0wfd0knj7gs46m8vwfzktm600000gn/T//cchPVIpt.s 			page 33


 1789 0355 0D       		.uleb128 0xd
 1790 0356 E8000000 		.4byte	0xe8
 1791 035a 08       		.uleb128 0x8
 1792 035b 20       		.byte	0x20
 1793 035c 07       		.byte	0x7
 1794 035d 5E       		.byte	0x5e
 1795 035e C5030000 		.4byte	0x3c5
 1796 0362 06       		.uleb128 0x6
 1797 0363 4C030000 		.4byte	.LASF49
 1798 0367 07       		.byte	0x7
 1799 0368 5F       		.byte	0x5f
 1800 0369 59020000 		.4byte	0x259
 1801 036d 02       		.byte	0x2
 1802 036e 23       		.byte	0x23
 1803 036f 00       		.uleb128 0
 1804 0370 06       		.uleb128 0x6
 1805 0371 06030000 		.4byte	.LASF50
 1806 0375 07       		.byte	0x7
 1807 0376 60       		.byte	0x60
 1808 0377 BC000000 		.4byte	0xbc
 1809 037b 02       		.byte	0x2
 1810 037c 23       		.byte	0x23
 1811 037d 08       		.uleb128 0x8
 1812 037e 06       		.uleb128 0x6
 1813 037f 4D020000 		.4byte	.LASF51
 1814 0383 07       		.byte	0x7
 1815 0384 62       		.byte	0x62
 1816 0385 2B030000 		.4byte	0x32b
 1817 0389 02       		.byte	0x2
 1818 038a 23       		.byte	0x23
 1819 038b 0C       		.uleb128 0xc
 1820 038c 06       		.uleb128 0x6
 1821 038d 14010000 		.4byte	.LASF52
 1822 0391 07       		.byte	0x7
 1823 0392 65       		.byte	0x65
 1824 0393 53020000 		.4byte	0x253
 1825 0397 02       		.byte	0x2
 1826 0398 23       		.byte	0x23
 1827 0399 10       		.uleb128 0x10
 1828 039a 06       		.uleb128 0x6
 1829 039b 7B020000 		.4byte	.LASF53
 1830 039f 07       		.byte	0x7
 1831 03a0 66       		.byte	0x66
 1832 03a1 53020000 		.4byte	0x253
 1833 03a5 02       		.byte	0x2
 1834 03a6 23       		.byte	0x23
 1835 03a7 14       		.uleb128 0x14
 1836 03a8 06       		.uleb128 0x6
 1837 03a9 64040000 		.4byte	.LASF54
 1838 03ad 07       		.byte	0x7
 1839 03ae 6A       		.byte	0x6a
 1840 03af F3000000 		.4byte	0xf3
 1841 03b3 02       		.byte	0x2
 1842 03b4 23       		.byte	0x23
 1843 03b5 18       		.uleb128 0x18
 1844 03b6 06       		.uleb128 0x6
 1845 03b7 71020000 		.4byte	.LASF55
ARM GAS  /var/folders/dt/0wfd0knj7gs46m8vwfzktm600000gn/T//cchPVIpt.s 			page 34


 1846 03bb 07       		.byte	0x7
 1847 03bc 6C       		.byte	0x6c
 1848 03bd 53020000 		.4byte	0x253
 1849 03c1 02       		.byte	0x2
 1850 03c2 23       		.byte	0x23
 1851 03c3 1C       		.uleb128 0x1c
 1852 03c4 00       		.byte	0
 1853 03c5 04       		.uleb128 0x4
 1854 03c6 CF030000 		.4byte	.LASF56
 1855 03ca 07       		.byte	0x7
 1856 03cb 6E       		.byte	0x6e
 1857 03cc 5A030000 		.4byte	0x35a
 1858 03d0 05       		.uleb128 0x5
 1859 03d1 0C020000 		.4byte	.LASF57
 1860 03d5 10       		.byte	0x10
 1861 03d6 08       		.byte	0x8
 1862 03d7 2C       		.byte	0x2c
 1863 03d8 07040000 		.4byte	0x407
 1864 03dc 06       		.uleb128 0x6
 1865 03dd A4000000 		.4byte	.LASF58
 1866 03e1 08       		.byte	0x8
 1867 03e2 2D       		.byte	0x2d
 1868 03e3 59020000 		.4byte	0x259
 1869 03e7 02       		.byte	0x2
 1870 03e8 23       		.byte	0x23
 1871 03e9 00       		.uleb128 0
 1872 03ea 06       		.uleb128 0x6
 1873 03eb 6E040000 		.4byte	.LASF59
 1874 03ef 08       		.byte	0x8
 1875 03f0 2F       		.byte	0x2f
 1876 03f1 53020000 		.4byte	0x253
 1877 03f5 02       		.byte	0x2
 1878 03f6 23       		.byte	0x23
 1879 03f7 08       		.uleb128 0x8
 1880 03f8 06       		.uleb128 0x6
 1881 03f9 65030000 		.4byte	.LASF60
 1882 03fd 08       		.byte	0x8
 1883 03fe 31       		.byte	0x31
 1884 03ff 07040000 		.4byte	0x407
 1885 0403 02       		.byte	0x2
 1886 0404 23       		.byte	0x23
 1887 0405 0C       		.uleb128 0xc
 1888 0406 00       		.byte	0
 1889 0407 09       		.uleb128 0x9
 1890 0408 04       		.byte	0x4
 1891 0409 D0030000 		.4byte	0x3d0
 1892 040d 04       		.uleb128 0x4
 1893 040e 0C020000 		.4byte	.LASF57
 1894 0412 08       		.byte	0x8
 1895 0413 33       		.byte	0x33
 1896 0414 D0030000 		.4byte	0x3d0
 1897 0418 04       		.uleb128 0x4
 1898 0419 06040000 		.4byte	.LASF61
 1899 041d 09       		.byte	0x9
 1900 041e 29       		.byte	0x29
 1901 041f 23040000 		.4byte	0x423
 1902 0423 05       		.uleb128 0x5
ARM GAS  /var/folders/dt/0wfd0knj7gs46m8vwfzktm600000gn/T//cchPVIpt.s 			page 35


 1903 0424 06040000 		.4byte	.LASF61
 1904 0428 0C       		.byte	0xc
 1905 0429 09       		.byte	0x9
 1906 042a 2E       		.byte	0x2e
 1907 042b 5A040000 		.4byte	0x45a
 1908 042f 06       		.uleb128 0x6
 1909 0430 D4010000 		.4byte	.LASF62
 1910 0434 09       		.byte	0x9
 1911 0435 2F       		.byte	0x2f
 1912 0436 5A040000 		.4byte	0x45a
 1913 043a 02       		.byte	0x2
 1914 043b 23       		.byte	0x23
 1915 043c 00       		.uleb128 0
 1916 043d 06       		.uleb128 0x6
 1917 043e DE020000 		.4byte	.LASF63
 1918 0442 09       		.byte	0x9
 1919 0443 32       		.byte	0x32
 1920 0444 53020000 		.4byte	0x253
 1921 0448 02       		.byte	0x2
 1922 0449 23       		.byte	0x23
 1923 044a 04       		.uleb128 0x4
 1924 044b 06       		.uleb128 0x6
 1925 044c 83020000 		.4byte	.LASF64
 1926 0450 09       		.byte	0x9
 1927 0451 34       		.byte	0x34
 1928 0452 DD000000 		.4byte	0xdd
 1929 0456 02       		.byte	0x2
 1930 0457 23       		.byte	0x23
 1931 0458 08       		.uleb128 0x8
 1932 0459 00       		.byte	0
 1933 045a 09       		.uleb128 0x9
 1934 045b 04       		.byte	0x4
 1935 045c 18040000 		.4byte	0x418
 1936 0460 05       		.uleb128 0x5
 1937 0461 48010000 		.4byte	.LASF65
 1938 0465 04       		.byte	0x4
 1939 0466 09       		.byte	0x9
 1940 0467 3C       		.byte	0x3c
 1941 0468 7B040000 		.4byte	0x47b
 1942 046c 06       		.uleb128 0x6
 1943 046d 36040000 		.4byte	.LASF66
 1944 0471 09       		.byte	0x9
 1945 0472 3D       		.byte	0x3d
 1946 0473 5A040000 		.4byte	0x45a
 1947 0477 02       		.byte	0x2
 1948 0478 23       		.byte	0x23
 1949 0479 00       		.uleb128 0
 1950 047a 00       		.byte	0
 1951 047b 04       		.uleb128 0x4
 1952 047c 48010000 		.4byte	.LASF65
 1953 0480 09       		.byte	0x9
 1954 0481 40       		.byte	0x40
 1955 0482 60040000 		.4byte	0x460
 1956 0486 04       		.uleb128 0x4
 1957 0487 54010000 		.4byte	.LASF67
 1958 048b 09       		.byte	0x9
 1959 048c 45       		.byte	0x45
ARM GAS  /var/folders/dt/0wfd0knj7gs46m8vwfzktm600000gn/T//cchPVIpt.s 			page 36


 1960 048d 91040000 		.4byte	0x491
 1961 0491 09       		.uleb128 0x9
 1962 0492 04       		.byte	0x4
 1963 0493 97040000 		.4byte	0x497
 1964 0497 0E       		.uleb128 0xe
 1965 0498 01       		.byte	0x1
 1966 0499 A3040000 		.4byte	0x4a3
 1967 049d 0F       		.uleb128 0xf
 1968 049e D2000000 		.4byte	0xd2
 1969 04a2 00       		.byte	0
 1970 04a3 10       		.uleb128 0x10
 1971 04a4 04       		.byte	0x4
 1972 04a5 05       		.byte	0x5
 1973 04a6 90       		.byte	0x90
 1974 04a7 D8040000 		.4byte	0x4d8
 1975 04ab 11       		.uleb128 0x11
 1976 04ac 11000000 		.4byte	.LASF68
 1977 04b0 05       		.byte	0x5
 1978 04b1 97       		.byte	0x97
 1979 04b2 C7000000 		.4byte	0xc7
 1980 04b6 11       		.uleb128 0x11
 1981 04b7 38000000 		.4byte	.LASF69
 1982 04bb 05       		.byte	0x5
 1983 04bc 9E       		.byte	0x9e
 1984 04bd C7000000 		.4byte	0xc7
 1985 04c1 11       		.uleb128 0x11
 1986 04c2 28040000 		.4byte	.LASF70
 1987 04c6 05       		.byte	0x5
 1988 04c7 A5       		.byte	0xa5
 1989 04c8 91020000 		.4byte	0x291
 1990 04cc 11       		.uleb128 0x11
 1991 04cd 0D030000 		.4byte	.LASF71
 1992 04d1 05       		.byte	0x5
 1993 04d2 AC       		.byte	0xac
 1994 04d3 DD000000 		.4byte	0xdd
 1995 04d7 00       		.byte	0
 1996 04d8 09       		.uleb128 0x9
 1997 04d9 04       		.byte	0x4
 1998 04da DE040000 		.4byte	0x4de
 1999 04de 12       		.uleb128 0x12
 2000 04df E3040000 		.4byte	0x4e3
 2001 04e3 03       		.uleb128 0x3
 2002 04e4 01       		.byte	0x1
 2003 04e5 08       		.byte	0x8
 2004 04e6 60030000 		.4byte	.LASF72
 2005 04ea 09       		.uleb128 0x9
 2006 04eb 04       		.byte	0x4
 2007 04ec 93020000 		.4byte	0x293
 2008 04f0 09       		.uleb128 0x9
 2009 04f1 04       		.byte	0x4
 2010 04f2 0D040000 		.4byte	0x40d
 2011 04f6 13       		.uleb128 0x13
 2012 04f7 01       		.byte	0x1
 2013 04f8 41000000 		.4byte	.LASF90
 2014 04fc 01       		.byte	0x1
 2015 04fd C1       		.byte	0xc1
 2016 04fe 01       		.byte	0x1
ARM GAS  /var/folders/dt/0wfd0knj7gs46m8vwfzktm600000gn/T//cchPVIpt.s 			page 37


 2017 04ff 01       		.byte	0x1
 2018 0500 1A050000 		.4byte	0x51a
 2019 0504 14       		.uleb128 0x14
 2020 0505 747000   		.ascii	"tp\000"
 2021 0508 01       		.byte	0x1
 2022 0509 C1       		.byte	0xc1
 2023 050a 53020000 		.4byte	0x253
 2024 050e 15       		.uleb128 0x15
 2025 050f 1C010000 		.4byte	.LASF73
 2026 0513 01       		.byte	0x1
 2027 0514 C1       		.byte	0xc1
 2028 0515 DD000000 		.4byte	0xdd
 2029 0519 00       		.byte	0
 2030 051a 16       		.uleb128 0x16
 2031 051b 01       		.byte	0x1
 2032 051c BC010000 		.4byte	.LASF74
 2033 0520 01       		.byte	0x1
 2034 0521 52       		.byte	0x52
 2035 0522 01       		.byte	0x1
 2036 0523 00000000 		.4byte	.LFB7
 2037 0527 44000000 		.4byte	.LFE7
 2038 052b 00000000 		.4byte	.LLST0
 2039 052f 01       		.byte	0x1
 2040 0530 C5050000 		.4byte	0x5c5
 2041 0534 17       		.uleb128 0x17
 2042 0535 65737000 		.ascii	"esp\000"
 2043 0539 01       		.byte	0x1
 2044 053a 52       		.byte	0x52
 2045 053b C5050000 		.4byte	0x5c5
 2046 053f 20000000 		.4byte	.LLST1
 2047 0543 17       		.uleb128 0x17
 2048 0544 656C7000 		.ascii	"elp\000"
 2049 0548 01       		.byte	0x1
 2050 0549 52       		.byte	0x52
 2051 054a 5A040000 		.4byte	0x45a
 2052 054e 3E000000 		.4byte	.LLST2
 2053 0552 18       		.uleb128 0x18
 2054 0553 1C010000 		.4byte	.LASF73
 2055 0557 01       		.byte	0x1
 2056 0558 52       		.byte	0x52
 2057 0559 DD000000 		.4byte	0xdd
 2058 055d 5C000000 		.4byte	.LLST3
 2059 0561 19       		.uleb128 0x19
 2060 0562 16000000 		.4byte	.LBB2
 2061 0566 1C000000 		.4byte	.LBE2
 2062 056a 7E050000 		.4byte	0x57e
 2063 056e 1A       		.uleb128 0x1a
 2064 056f 746D7000 		.ascii	"tmp\000"
 2065 0573 01       		.byte	0x1
 2066 0574 56       		.byte	0x56
 2067 0575 70000000 		.4byte	0x70
 2068 0579 7A000000 		.4byte	.LLST4
 2069 057d 00       		.byte	0
 2070 057e 19       		.uleb128 0x19
 2071 057f 32000000 		.4byte	.LBB3
 2072 0583 44000000 		.4byte	.LBE3
 2073 0587 9B050000 		.4byte	0x59b
ARM GAS  /var/folders/dt/0wfd0knj7gs46m8vwfzktm600000gn/T//cchPVIpt.s 			page 38


 2074 058b 1A       		.uleb128 0x1a
 2075 058c 746D7000 		.ascii	"tmp\000"
 2076 0590 01       		.byte	0x1
 2077 0591 5B       		.byte	0x5b
 2078 0592 70000000 		.4byte	0x70
 2079 0596 8D000000 		.4byte	.LLST5
 2080 059a 00       		.byte	0
 2081 059b 1B       		.uleb128 0x1b
 2082 059c 16000000 		.4byte	.LVL2
 2083 05a0 250F0000 		.4byte	0xf25
 2084 05a4 B2050000 		.4byte	0x5b2
 2085 05a8 1C       		.uleb128 0x1c
 2086 05a9 01       		.byte	0x1
 2087 05aa 50       		.byte	0x50
 2088 05ab 05       		.byte	0x5
 2089 05ac 03       		.byte	0x3
 2090 05ad 00000000 		.4byte	.LC0
 2091 05b1 00       		.byte	0
 2092 05b2 1D       		.uleb128 0x1d
 2093 05b3 20000000 		.4byte	.LVL5
 2094 05b7 3F0F0000 		.4byte	0xf3f
 2095 05bb 1D       		.uleb128 0x1d
 2096 05bc 32000000 		.4byte	.LVL6
 2097 05c0 490F0000 		.4byte	0xf49
 2098 05c4 00       		.byte	0
 2099 05c5 09       		.uleb128 0x9
 2100 05c6 04       		.byte	0x4
 2101 05c7 7B040000 		.4byte	0x47b
 2102 05cb 16       		.uleb128 0x16
 2103 05cc 01       		.byte	0x1
 2104 05cd DC010000 		.4byte	.LASF75
 2105 05d1 01       		.byte	0x1
 2106 05d2 6B       		.byte	0x6b
 2107 05d3 01       		.byte	0x1
 2108 05d4 00000000 		.4byte	.LFB8
 2109 05d8 44000000 		.4byte	.LFE8
 2110 05dc A0000000 		.4byte	.LLST6
 2111 05e0 01       		.byte	0x1
 2112 05e1 70060000 		.4byte	0x670
 2113 05e5 17       		.uleb128 0x17
 2114 05e6 65737000 		.ascii	"esp\000"
 2115 05ea 01       		.byte	0x1
 2116 05eb 6B       		.byte	0x6b
 2117 05ec C5050000 		.4byte	0x5c5
 2118 05f0 C0000000 		.4byte	.LLST7
 2119 05f4 17       		.uleb128 0x17
 2120 05f5 656C7000 		.ascii	"elp\000"
 2121 05f9 01       		.byte	0x1
 2122 05fa 6B       		.byte	0x6b
 2123 05fb 5A040000 		.4byte	0x45a
 2124 05ff F4000000 		.4byte	.LLST8
 2125 0603 1A       		.uleb128 0x1a
 2126 0604 7000     		.ascii	"p\000"
 2127 0606 01       		.byte	0x1
 2128 0607 6C       		.byte	0x6c
 2129 0608 5A040000 		.4byte	0x45a
 2130 060c 28010000 		.4byte	.LLST9
ARM GAS  /var/folders/dt/0wfd0knj7gs46m8vwfzktm600000gn/T//cchPVIpt.s 			page 39


 2131 0610 19       		.uleb128 0x19
 2132 0611 0E000000 		.4byte	.LBB4
 2133 0615 14000000 		.4byte	.LBE4
 2134 0619 2D060000 		.4byte	0x62d
 2135 061d 1A       		.uleb128 0x1a
 2136 061e 746D7000 		.ascii	"tmp\000"
 2137 0622 01       		.byte	0x1
 2138 0623 71       		.byte	0x71
 2139 0624 70000000 		.4byte	0x70
 2140 0628 46010000 		.4byte	.LLST10
 2141 062c 00       		.byte	0
 2142 062d 19       		.uleb128 0x19
 2143 062e 30000000 		.4byte	.LBB5
 2144 0632 38000000 		.4byte	.LBE5
 2145 0636 4A060000 		.4byte	0x64a
 2146 063a 1A       		.uleb128 0x1a
 2147 063b 746D7000 		.ascii	"tmp\000"
 2148 063f 01       		.byte	0x1
 2149 0640 79       		.byte	0x79
 2150 0641 70000000 		.4byte	0x70
 2151 0645 59010000 		.4byte	.LLST11
 2152 0649 00       		.byte	0
 2153 064a 1D       		.uleb128 0x1d
 2154 064b 18000000 		.4byte	.LVL13
 2155 064f 3F0F0000 		.4byte	0xf3f
 2156 0653 1D       		.uleb128 0x1d
 2157 0654 30000000 		.4byte	.LVL16
 2158 0658 490F0000 		.4byte	0xf49
 2159 065c 1E       		.uleb128 0x1e
 2160 065d 3E000000 		.4byte	.LVL21
 2161 0661 250F0000 		.4byte	0xf25
 2162 0665 1C       		.uleb128 0x1c
 2163 0666 01       		.byte	0x1
 2164 0667 50       		.byte	0x50
 2165 0668 05       		.byte	0x5
 2166 0669 03       		.byte	0x3
 2167 066a 18000000 		.4byte	.LC1
 2168 066e 00       		.byte	0
 2169 066f 00       		.byte	0
 2170 0670 1F       		.uleb128 0x1f
 2171 0671 01       		.byte	0x1
 2172 0672 AB020000 		.4byte	.LASF76
 2173 0676 01       		.byte	0x1
 2174 0677 84       		.byte	0x84
 2175 0678 01       		.byte	0x1
 2176 0679 DD000000 		.4byte	0xdd
 2177 067d 00000000 		.4byte	.LFB9
 2178 0681 30000000 		.4byte	.LFE9
 2179 0685 6C010000 		.4byte	.LLST12
 2180 0689 01       		.byte	0x1
 2181 068a F1060000 		.4byte	0x6f1
 2182 068e 18       		.uleb128 0x18
 2183 068f 1C010000 		.4byte	.LASF73
 2184 0693 01       		.byte	0x1
 2185 0694 84       		.byte	0x84
 2186 0695 DD000000 		.4byte	0xdd
 2187 0699 8C010000 		.4byte	.LLST13
ARM GAS  /var/folders/dt/0wfd0knj7gs46m8vwfzktm600000gn/T//cchPVIpt.s 			page 40


 2188 069d 20       		.uleb128 0x20
 2189 069e 6D00     		.ascii	"m\000"
 2190 06a0 01       		.byte	0x1
 2191 06a1 85       		.byte	0x85
 2192 06a2 DD000000 		.4byte	0xdd
 2193 06a6 01       		.byte	0x1
 2194 06a7 54       		.byte	0x54
 2195 06a8 21       		.uleb128 0x21
 2196 06a9 00000000 		.4byte	.Ldebug_ranges0+0
 2197 06ad C1060000 		.4byte	0x6c1
 2198 06b1 1A       		.uleb128 0x1a
 2199 06b2 746D7000 		.ascii	"tmp\000"
 2200 06b6 01       		.byte	0x1
 2201 06b7 87       		.byte	0x87
 2202 06b8 70000000 		.4byte	0x70
 2203 06bc B8010000 		.4byte	.LLST14
 2204 06c0 00       		.byte	0
 2205 06c1 19       		.uleb128 0x19
 2206 06c2 26000000 		.4byte	.LBB8
 2207 06c6 2C000000 		.4byte	.LBE8
 2208 06ca DE060000 		.4byte	0x6de
 2209 06ce 1A       		.uleb128 0x1a
 2210 06cf 746D7000 		.ascii	"tmp\000"
 2211 06d3 01       		.byte	0x1
 2212 06d4 8C       		.byte	0x8c
 2213 06d5 70000000 		.4byte	0x70
 2214 06d9 CB010000 		.4byte	.LLST15
 2215 06dd 00       		.byte	0
 2216 06de 1D       		.uleb128 0x1d
 2217 06df 0E000000 		.4byte	.LVL25
 2218 06e3 3F0F0000 		.4byte	0xf3f
 2219 06e7 1D       		.uleb128 0x1d
 2220 06e8 26000000 		.4byte	.LVL27
 2221 06ec 490F0000 		.4byte	0xf49
 2222 06f0 00       		.byte	0
 2223 06f1 1F       		.uleb128 0x1f
 2224 06f2 01       		.byte	0x1
 2225 06f3 AC000000 		.4byte	.LASF77
 2226 06f7 01       		.byte	0x1
 2227 06f8 99       		.byte	0x99
 2228 06f9 01       		.byte	0x1
 2229 06fa DD000000 		.4byte	0xdd
 2230 06fe 00000000 		.4byte	.LFB10
 2231 0702 2C000000 		.4byte	.LFE10
 2232 0706 DE010000 		.4byte	.LLST16
 2233 070a 01       		.byte	0x1
 2234 070b 67070000 		.4byte	0x767
 2235 070f 18       		.uleb128 0x18
 2236 0710 1C010000 		.4byte	.LASF73
 2237 0714 01       		.byte	0x1
 2238 0715 99       		.byte	0x99
 2239 0716 DD000000 		.4byte	0xdd
 2240 071a FE010000 		.4byte	.LLST17
 2241 071e 21       		.uleb128 0x21
 2242 071f 18000000 		.4byte	.Ldebug_ranges0+0x18
 2243 0723 37070000 		.4byte	0x737
 2244 0727 1A       		.uleb128 0x1a
ARM GAS  /var/folders/dt/0wfd0knj7gs46m8vwfzktm600000gn/T//cchPVIpt.s 			page 41


 2245 0728 746D7000 		.ascii	"tmp\000"
 2246 072c 01       		.byte	0x1
 2247 072d 9B       		.byte	0x9b
 2248 072e 70000000 		.4byte	0x70
 2249 0732 35020000 		.4byte	.LLST18
 2250 0736 00       		.byte	0
 2251 0737 19       		.uleb128 0x19
 2252 0738 22000000 		.4byte	.LBB11
 2253 073c 28000000 		.4byte	.LBE11
 2254 0740 54070000 		.4byte	0x754
 2255 0744 1A       		.uleb128 0x1a
 2256 0745 746D7000 		.ascii	"tmp\000"
 2257 0749 01       		.byte	0x1
 2258 074a 9F       		.byte	0x9f
 2259 074b 70000000 		.4byte	0x70
 2260 074f 48020000 		.4byte	.LLST19
 2261 0753 00       		.byte	0
 2262 0754 1D       		.uleb128 0x1d
 2263 0755 0E000000 		.4byte	.LVL33
 2264 0759 3F0F0000 		.4byte	0xf3f
 2265 075d 1D       		.uleb128 0x1d
 2266 075e 22000000 		.4byte	.LVL36
 2267 0762 490F0000 		.4byte	0xf49
 2268 0766 00       		.byte	0
 2269 0767 22       		.uleb128 0x22
 2270 0768 F6040000 		.4byte	0x4f6
 2271 076c 00000000 		.4byte	.LFB12
 2272 0770 4C000000 		.4byte	.LFE12
 2273 0774 5B020000 		.4byte	.LLST20
 2274 0778 01       		.byte	0x1
 2275 0779 E8070000 		.4byte	0x7e8
 2276 077d 23       		.uleb128 0x23
 2277 077e 04050000 		.4byte	0x504
 2278 0782 7B020000 		.4byte	.LLST21
 2279 0786 23       		.uleb128 0x23
 2280 0787 0E050000 		.4byte	0x50e
 2281 078b 99020000 		.4byte	.LLST22
 2282 078f 24       		.uleb128 0x24
 2283 0790 F6040000 		.4byte	0x4f6
 2284 0794 2A000000 		.4byte	.LBB14
 2285 0798 36000000 		.4byte	.LBE14
 2286 079c 01       		.byte	0x1
 2287 079d C1       		.byte	0xc1
 2288 079e CB070000 		.4byte	0x7cb
 2289 07a2 23       		.uleb128 0x23
 2290 07a3 04050000 		.4byte	0x504
 2291 07a7 B7020000 		.4byte	.LLST23
 2292 07ab 25       		.uleb128 0x25
 2293 07ac 2A000000 		.4byte	.LBB15
 2294 07b0 36000000 		.4byte	.LBE15
 2295 07b4 26       		.uleb128 0x26
 2296 07b5 0E050000 		.4byte	0x50e
 2297 07b9 1E       		.uleb128 0x1e
 2298 07ba 30000000 		.4byte	.LVL42
 2299 07be 530F0000 		.4byte	0xf53
 2300 07c2 1C       		.uleb128 0x1c
 2301 07c3 01       		.byte	0x1
ARM GAS  /var/folders/dt/0wfd0knj7gs46m8vwfzktm600000gn/T//cchPVIpt.s 			page 42


 2302 07c4 50       		.byte	0x50
 2303 07c5 02       		.byte	0x2
 2304 07c6 74       		.byte	0x74
 2305 07c7 00       		.sleb128 0
 2306 07c8 00       		.byte	0
 2307 07c9 00       		.byte	0
 2308 07ca 00       		.byte	0
 2309 07cb 1D       		.uleb128 0x1d
 2310 07cc 0A000000 		.4byte	.LVL40
 2311 07d0 6B0F0000 		.4byte	0xf6b
 2312 07d4 1E       		.uleb128 0x1e
 2313 07d5 44000000 		.4byte	.LVL44
 2314 07d9 250F0000 		.4byte	0xf25
 2315 07dd 1C       		.uleb128 0x1c
 2316 07de 01       		.byte	0x1
 2317 07df 50       		.byte	0x50
 2318 07e0 05       		.byte	0x5
 2319 07e1 03       		.byte	0x3
 2320 07e2 2C000000 		.4byte	.LC2
 2321 07e6 00       		.byte	0
 2322 07e7 00       		.byte	0
 2323 07e8 16       		.uleb128 0x16
 2324 07e9 01       		.byte	0x1
 2325 07ea 66010000 		.4byte	.LASF78
 2326 07ee 01       		.byte	0x1
 2327 07ef AB       		.byte	0xab
 2328 07f0 01       		.byte	0x1
 2329 07f1 00000000 		.4byte	.LFB11
 2330 07f5 38000000 		.4byte	.LFE11
 2331 07f9 CA020000 		.4byte	.LLST24
 2332 07fd 01       		.byte	0x1
 2333 07fe A2080000 		.4byte	0x8a2
 2334 0802 17       		.uleb128 0x17
 2335 0803 747000   		.ascii	"tp\000"
 2336 0806 01       		.byte	0x1
 2337 0807 AB       		.byte	0xab
 2338 0808 53020000 		.4byte	0x253
 2339 080c EA020000 		.4byte	.LLST25
 2340 0810 18       		.uleb128 0x18
 2341 0811 1C010000 		.4byte	.LASF73
 2342 0815 01       		.byte	0x1
 2343 0816 AB       		.byte	0xab
 2344 0817 DD000000 		.4byte	0xdd
 2345 081b 1E030000 		.4byte	.LLST26
 2346 081f 19       		.uleb128 0x19
 2347 0820 08000000 		.4byte	.LBB16
 2348 0824 0E000000 		.4byte	.LBE16
 2349 0828 3C080000 		.4byte	0x83c
 2350 082c 1A       		.uleb128 0x1a
 2351 082d 746D7000 		.ascii	"tmp\000"
 2352 0831 01       		.byte	0x1
 2353 0832 AF       		.byte	0xaf
 2354 0833 70000000 		.4byte	0x70
 2355 0837 52030000 		.4byte	.LLST27
 2356 083b 00       		.byte	0
 2357 083c 19       		.uleb128 0x19
 2358 083d 22000000 		.4byte	.LBB17
ARM GAS  /var/folders/dt/0wfd0knj7gs46m8vwfzktm600000gn/T//cchPVIpt.s 			page 43


 2359 0841 2A000000 		.4byte	.LBE17
 2360 0845 59080000 		.4byte	0x859
 2361 0849 1A       		.uleb128 0x1a
 2362 084a 746D7000 		.ascii	"tmp\000"
 2363 084e 01       		.byte	0x1
 2364 084f B2       		.byte	0xb2
 2365 0850 70000000 		.4byte	0x70
 2366 0854 65030000 		.4byte	.LLST28
 2367 0858 00       		.byte	0
 2368 0859 1D       		.uleb128 0x1d
 2369 085a 12000000 		.4byte	.LVL49
 2370 085e 3F0F0000 		.4byte	0xf3f
 2371 0862 1B       		.uleb128 0x1b
 2372 0863 1A000000 		.4byte	.LVL50
 2373 0867 F6040000 		.4byte	0x4f6
 2374 086b 7C080000 		.4byte	0x87c
 2375 086f 1C       		.uleb128 0x1c
 2376 0870 01       		.byte	0x1
 2377 0871 51       		.byte	0x51
 2378 0872 02       		.byte	0x2
 2379 0873 75       		.byte	0x75
 2380 0874 00       		.sleb128 0
 2381 0875 1C       		.uleb128 0x1c
 2382 0876 01       		.byte	0x1
 2383 0877 50       		.byte	0x50
 2384 0878 02       		.byte	0x2
 2385 0879 74       		.byte	0x74
 2386 087a 00       		.sleb128 0
 2387 087b 00       		.byte	0
 2388 087c 1D       		.uleb128 0x1d
 2389 087d 1E000000 		.4byte	.LVL51
 2390 0881 750F0000 		.4byte	0xf75
 2391 0885 1D       		.uleb128 0x1d
 2392 0886 22000000 		.4byte	.LVL52
 2393 088a 490F0000 		.4byte	0xf49
 2394 088e 1E       		.uleb128 0x1e
 2395 088f 30000000 		.4byte	.LVL57
 2396 0893 250F0000 		.4byte	0xf25
 2397 0897 1C       		.uleb128 0x1c
 2398 0898 01       		.byte	0x1
 2399 0899 50       		.byte	0x50
 2400 089a 05       		.byte	0x5
 2401 089b 03       		.byte	0x3
 2402 089c 40000000 		.4byte	.LC3
 2403 08a0 00       		.byte	0
 2404 08a1 00       		.byte	0
 2405 08a2 16       		.uleb128 0x16
 2406 08a3 01       		.byte	0x1
 2407 08a4 E6000000 		.4byte	.LASF79
 2408 08a8 01       		.byte	0x1
 2409 08a9 F5       		.byte	0xf5
 2410 08aa 01       		.byte	0x1
 2411 08ab 00000000 		.4byte	.LFB14
 2412 08af 30000000 		.4byte	.LFE14
 2413 08b3 78030000 		.4byte	.LLST29
 2414 08b7 01       		.byte	0x1
 2415 08b8 0F090000 		.4byte	0x90f
ARM GAS  /var/folders/dt/0wfd0knj7gs46m8vwfzktm600000gn/T//cchPVIpt.s 			page 44


 2416 08bc 17       		.uleb128 0x17
 2417 08bd 65737000 		.ascii	"esp\000"
 2418 08c1 01       		.byte	0x1
 2419 08c2 F5       		.byte	0xf5
 2420 08c3 C5050000 		.4byte	0x5c5
 2421 08c7 98030000 		.4byte	.LLST30
 2422 08cb 18       		.uleb128 0x18
 2423 08cc 1C010000 		.4byte	.LASF73
 2424 08d0 01       		.byte	0x1
 2425 08d1 F5       		.byte	0xf5
 2426 08d2 DD000000 		.4byte	0xdd
 2427 08d6 B6030000 		.4byte	.LLST31
 2428 08da 1A       		.uleb128 0x1a
 2429 08db 656C7000 		.ascii	"elp\000"
 2430 08df 01       		.byte	0x1
 2431 08e0 F6       		.byte	0xf6
 2432 08e1 5A040000 		.4byte	0x45a
 2433 08e5 D4030000 		.4byte	.LLST32
 2434 08e9 1D       		.uleb128 0x1d
 2435 08ea 0A000000 		.4byte	.LVL59
 2436 08ee 6B0F0000 		.4byte	0xf6b
 2437 08f2 1D       		.uleb128 0x1d
 2438 08f3 1C000000 		.4byte	.LVL61
 2439 08f7 F6040000 		.4byte	0x4f6
 2440 08fb 1E       		.uleb128 0x1e
 2441 08fc 2A000000 		.4byte	.LVL64
 2442 0900 250F0000 		.4byte	0xf25
 2443 0904 1C       		.uleb128 0x1c
 2444 0905 01       		.byte	0x1
 2445 0906 50       		.byte	0x50
 2446 0907 05       		.byte	0x5
 2447 0908 03       		.byte	0x3
 2448 0909 50000000 		.4byte	.LC4
 2449 090d 00       		.byte	0
 2450 090e 00       		.byte	0
 2451 090f 16       		.uleb128 0x16
 2452 0910 01       		.byte	0x1
 2453 0911 2A010000 		.4byte	.LASF80
 2454 0915 01       		.byte	0x1
 2455 0916 DC       		.byte	0xdc
 2456 0917 01       		.byte	0x1
 2457 0918 00000000 		.4byte	.LFB13
 2458 091c 28000000 		.4byte	.LFE13
 2459 0920 E7030000 		.4byte	.LLST33
 2460 0924 01       		.byte	0x1
 2461 0925 B7090000 		.4byte	0x9b7
 2462 0929 17       		.uleb128 0x17
 2463 092a 65737000 		.ascii	"esp\000"
 2464 092e 01       		.byte	0x1
 2465 092f DC       		.byte	0xdc
 2466 0930 C5050000 		.4byte	0x5c5
 2467 0934 07040000 		.4byte	.LLST34
 2468 0938 18       		.uleb128 0x18
 2469 0939 1C010000 		.4byte	.LASF73
 2470 093d 01       		.byte	0x1
 2471 093e DC       		.byte	0xdc
 2472 093f DD000000 		.4byte	0xdd
ARM GAS  /var/folders/dt/0wfd0knj7gs46m8vwfzktm600000gn/T//cchPVIpt.s 			page 45


 2473 0943 25040000 		.4byte	.LLST35
 2474 0947 19       		.uleb128 0x19
 2475 0948 06000000 		.4byte	.LBB18
 2476 094c 0C000000 		.4byte	.LBE18
 2477 0950 64090000 		.4byte	0x964
 2478 0954 1A       		.uleb128 0x1a
 2479 0955 746D7000 		.ascii	"tmp\000"
 2480 0959 01       		.byte	0x1
 2481 095a DE       		.byte	0xde
 2482 095b 70000000 		.4byte	0x70
 2483 095f 43040000 		.4byte	.LLST36
 2484 0963 00       		.byte	0
 2485 0964 19       		.uleb128 0x19
 2486 0965 20000000 		.4byte	.LBB19
 2487 0969 28000000 		.4byte	.LBE19
 2488 096d 81090000 		.4byte	0x981
 2489 0971 1A       		.uleb128 0x1a
 2490 0972 746D7000 		.ascii	"tmp\000"
 2491 0976 01       		.byte	0x1
 2492 0977 E1       		.byte	0xe1
 2493 0978 70000000 		.4byte	0x70
 2494 097c 56040000 		.4byte	.LLST37
 2495 0980 00       		.byte	0
 2496 0981 1D       		.uleb128 0x1d
 2497 0982 10000000 		.4byte	.LVL68
 2498 0986 3F0F0000 		.4byte	0xf3f
 2499 098a 1B       		.uleb128 0x1b
 2500 098b 18000000 		.4byte	.LVL69
 2501 098f A2080000 		.4byte	0x8a2
 2502 0993 A4090000 		.4byte	0x9a4
 2503 0997 1C       		.uleb128 0x1c
 2504 0998 01       		.byte	0x1
 2505 0999 51       		.byte	0x51
 2506 099a 02       		.byte	0x2
 2507 099b 74       		.byte	0x74
 2508 099c 00       		.sleb128 0
 2509 099d 1C       		.uleb128 0x1c
 2510 099e 01       		.byte	0x1
 2511 099f 50       		.byte	0x50
 2512 09a0 02       		.byte	0x2
 2513 09a1 75       		.byte	0x75
 2514 09a2 00       		.sleb128 0
 2515 09a3 00       		.byte	0
 2516 09a4 1D       		.uleb128 0x1d
 2517 09a5 1C000000 		.4byte	.LVL70
 2518 09a9 750F0000 		.4byte	0xf75
 2519 09ad 1D       		.uleb128 0x1d
 2520 09ae 20000000 		.4byte	.LVL71
 2521 09b2 490F0000 		.4byte	0xf49
 2522 09b6 00       		.byte	0
 2523 09b7 27       		.uleb128 0x27
 2524 09b8 01       		.byte	0x1
 2525 09b9 37020000 		.4byte	.LASF81
 2526 09bd 01       		.byte	0x1
 2527 09be 0B01     		.2byte	0x10b
 2528 09c0 01       		.byte	0x1
 2529 09c1 00000000 		.4byte	.LFB15
ARM GAS  /var/folders/dt/0wfd0knj7gs46m8vwfzktm600000gn/T//cchPVIpt.s 			page 46


 2530 09c5 50000000 		.4byte	.LFE15
 2531 09c9 69040000 		.4byte	.LLST38
 2532 09cd 01       		.byte	0x1
 2533 09ce 3D0A0000 		.4byte	0xa3d
 2534 09d2 28       		.uleb128 0x28
 2535 09d3 8B020000 		.4byte	.LASF82
 2536 09d7 01       		.byte	0x1
 2537 09d8 0B01     		.2byte	0x10b
 2538 09da 3D0A0000 		.4byte	0xa3d
 2539 09de 89040000 		.4byte	.LLST39
 2540 09e2 28       		.uleb128 0x28
 2541 09e3 1C010000 		.4byte	.LASF73
 2542 09e7 01       		.byte	0x1
 2543 09e8 0B01     		.2byte	0x10b
 2544 09ea DD000000 		.4byte	0xdd
 2545 09ee BD040000 		.4byte	.LLST40
 2546 09f2 29       		.uleb128 0x29
 2547 09f3 65696400 		.ascii	"eid\000"
 2548 09f7 01       		.byte	0x1
 2549 09f8 0C01     		.2byte	0x10c
 2550 09fa D2000000 		.4byte	0xd2
 2551 09fe FC040000 		.4byte	.LLST41
 2552 0a02 2A       		.uleb128 0x2a
 2553 0a03 28000000 		.4byte	.LVL79
 2554 0a07 120A0000 		.4byte	0xa12
 2555 0a0b 1C       		.uleb128 0x1c
 2556 0a0c 01       		.byte	0x1
 2557 0a0d 50       		.byte	0x50
 2558 0a0e 02       		.byte	0x2
 2559 0a0f 74       		.byte	0x74
 2560 0a10 00       		.sleb128 0
 2561 0a11 00       		.byte	0
 2562 0a12 1B       		.uleb128 0x1b
 2563 0a13 3A000000 		.4byte	.LVL83
 2564 0a17 250F0000 		.4byte	0xf25
 2565 0a1b 290A0000 		.4byte	0xa29
 2566 0a1f 1C       		.uleb128 0x1c
 2567 0a20 01       		.byte	0x1
 2568 0a21 50       		.byte	0x50
 2569 0a22 05       		.byte	0x5
 2570 0a23 03       		.byte	0x3
 2571 0a24 7C000000 		.4byte	.LC6
 2572 0a28 00       		.byte	0
 2573 0a29 1E       		.uleb128 0x1e
 2574 0a2a 46000000 		.4byte	.LVL86
 2575 0a2e 250F0000 		.4byte	0xf25
 2576 0a32 1C       		.uleb128 0x1c
 2577 0a33 01       		.byte	0x1
 2578 0a34 50       		.byte	0x50
 2579 0a35 05       		.byte	0x5
 2580 0a36 03       		.byte	0x3
 2581 0a37 68000000 		.4byte	.LC5
 2582 0a3b 00       		.byte	0
 2583 0a3c 00       		.byte	0
 2584 0a3d 09       		.uleb128 0x9
 2585 0a3e 04       		.byte	0x4
 2586 0a3f 430A0000 		.4byte	0xa43
ARM GAS  /var/folders/dt/0wfd0knj7gs46m8vwfzktm600000gn/T//cchPVIpt.s 			page 47


 2587 0a43 12       		.uleb128 0x12
 2588 0a44 86040000 		.4byte	0x486
 2589 0a48 2B       		.uleb128 0x2b
 2590 0a49 01       		.byte	0x1
 2591 0a4a D1020000 		.4byte	.LASF83
 2592 0a4e 01       		.byte	0x1
 2593 0a4f 2E01     		.2byte	0x12e
 2594 0a51 01       		.byte	0x1
 2595 0a52 DD000000 		.4byte	0xdd
 2596 0a56 00000000 		.4byte	.LFB16
 2597 0a5a 44000000 		.4byte	.LFE16
 2598 0a5e 1B050000 		.4byte	.LLST42
 2599 0a62 01       		.byte	0x1
 2600 0a63 F50A0000 		.4byte	0xaf5
 2601 0a67 28       		.uleb128 0x28
 2602 0a68 1C010000 		.4byte	.LASF73
 2603 0a6c 01       		.byte	0x1
 2604 0a6d 2E01     		.2byte	0x12e
 2605 0a6f DD000000 		.4byte	0xdd
 2606 0a73 3B050000 		.4byte	.LLST43
 2607 0a77 2C       		.uleb128 0x2c
 2608 0a78 63747000 		.ascii	"ctp\000"
 2609 0a7c 01       		.byte	0x1
 2610 0a7d 2F01     		.2byte	0x12f
 2611 0a7f 53020000 		.4byte	0x253
 2612 0a83 01       		.byte	0x1
 2613 0a84 55       		.byte	0x55
 2614 0a85 29       		.uleb128 0x29
 2615 0a86 6D00     		.ascii	"m\000"
 2616 0a88 01       		.byte	0x1
 2617 0a89 3001     		.2byte	0x130
 2618 0a8b DD000000 		.4byte	0xdd
 2619 0a8f 67050000 		.4byte	.LLST44
 2620 0a93 19       		.uleb128 0x19
 2621 0a94 08000000 		.4byte	.LBB20
 2622 0a98 0E000000 		.4byte	.LBE20
 2623 0a9c B10A0000 		.4byte	0xab1
 2624 0aa0 29       		.uleb128 0x29
 2625 0aa1 746D7000 		.ascii	"tmp\000"
 2626 0aa5 01       		.byte	0x1
 2627 0aa6 3201     		.2byte	0x132
 2628 0aa8 70000000 		.4byte	0x70
 2629 0aac A0050000 		.4byte	.LLST45
 2630 0ab0 00       		.byte	0
 2631 0ab1 19       		.uleb128 0x19
 2632 0ab2 36000000 		.4byte	.LBB21
 2633 0ab6 3C000000 		.4byte	.LBE21
 2634 0aba CF0A0000 		.4byte	0xacf
 2635 0abe 29       		.uleb128 0x29
 2636 0abf 746D7000 		.ascii	"tmp\000"
 2637 0ac3 01       		.byte	0x1
 2638 0ac4 3C01     		.2byte	0x13c
 2639 0ac6 70000000 		.4byte	0x70
 2640 0aca B3050000 		.4byte	.LLST46
 2641 0ace 00       		.byte	0
 2642 0acf 1D       		.uleb128 0x1d
 2643 0ad0 12000000 		.4byte	.LVL91
ARM GAS  /var/folders/dt/0wfd0knj7gs46m8vwfzktm600000gn/T//cchPVIpt.s 			page 48


 2644 0ad4 3F0F0000 		.4byte	0xf3f
 2645 0ad8 1B       		.uleb128 0x1b
 2646 0ad9 22000000 		.4byte	.LVL94
 2647 0add 7F0F0000 		.4byte	0xf7f
 2648 0ae1 EB0A0000 		.4byte	0xaeb
 2649 0ae5 1C       		.uleb128 0x1c
 2650 0ae6 01       		.byte	0x1
 2651 0ae7 50       		.byte	0x50
 2652 0ae8 01       		.byte	0x1
 2653 0ae9 38       		.byte	0x38
 2654 0aea 00       		.byte	0
 2655 0aeb 1D       		.uleb128 0x1d
 2656 0aec 36000000 		.4byte	.LVL98
 2657 0af0 490F0000 		.4byte	0xf49
 2658 0af4 00       		.byte	0
 2659 0af5 2B       		.uleb128 0x2b
 2660 0af6 01       		.byte	0x1
 2661 0af7 D9000000 		.4byte	.LASF84
 2662 0afb 01       		.byte	0x1
 2663 0afc 4B01     		.2byte	0x14b
 2664 0afe 01       		.byte	0x1
 2665 0aff DD000000 		.4byte	0xdd
 2666 0b03 00000000 		.4byte	.LFB17
 2667 0b07 40000000 		.4byte	.LFE17
 2668 0b0b C6050000 		.4byte	.LLST47
 2669 0b0f 01       		.byte	0x1
 2670 0b10 A20B0000 		.4byte	0xba2
 2671 0b14 28       		.uleb128 0x28
 2672 0b15 1C010000 		.4byte	.LASF73
 2673 0b19 01       		.byte	0x1
 2674 0b1a 4B01     		.2byte	0x14b
 2675 0b1c DD000000 		.4byte	0xdd
 2676 0b20 E6050000 		.4byte	.LLST48
 2677 0b24 2C       		.uleb128 0x2c
 2678 0b25 63747000 		.ascii	"ctp\000"
 2679 0b29 01       		.byte	0x1
 2680 0b2a 4C01     		.2byte	0x14c
 2681 0b2c 53020000 		.4byte	0x253
 2682 0b30 01       		.byte	0x1
 2683 0b31 55       		.byte	0x55
 2684 0b32 29       		.uleb128 0x29
 2685 0b33 6D00     		.ascii	"m\000"
 2686 0b35 01       		.byte	0x1
 2687 0b36 4D01     		.2byte	0x14d
 2688 0b38 DD000000 		.4byte	0xdd
 2689 0b3c 04060000 		.4byte	.LLST49
 2690 0b40 19       		.uleb128 0x19
 2691 0b41 08000000 		.4byte	.LBB22
 2692 0b45 0E000000 		.4byte	.LBE22
 2693 0b49 5E0B0000 		.4byte	0xb5e
 2694 0b4d 29       		.uleb128 0x29
 2695 0b4e 746D7000 		.ascii	"tmp\000"
 2696 0b52 01       		.byte	0x1
 2697 0b53 4F01     		.2byte	0x14f
 2698 0b55 70000000 		.4byte	0x70
 2699 0b59 27060000 		.4byte	.LLST50
 2700 0b5d 00       		.byte	0
ARM GAS  /var/folders/dt/0wfd0knj7gs46m8vwfzktm600000gn/T//cchPVIpt.s 			page 49


 2701 0b5e 19       		.uleb128 0x19
 2702 0b5f 32000000 		.4byte	.LBB23
 2703 0b63 38000000 		.4byte	.LBE23
 2704 0b67 7C0B0000 		.4byte	0xb7c
 2705 0b6b 29       		.uleb128 0x29
 2706 0b6c 746D7000 		.ascii	"tmp\000"
 2707 0b70 01       		.byte	0x1
 2708 0b71 5801     		.2byte	0x158
 2709 0b73 70000000 		.4byte	0x70
 2710 0b77 3A060000 		.4byte	.LLST51
 2711 0b7b 00       		.byte	0
 2712 0b7c 1D       		.uleb128 0x1d
 2713 0b7d 12000000 		.4byte	.LVL105
 2714 0b81 3F0F0000 		.4byte	0xf3f
 2715 0b85 1B       		.uleb128 0x1b
 2716 0b86 22000000 		.4byte	.LVL108
 2717 0b8a 7F0F0000 		.4byte	0xf7f
 2718 0b8e 980B0000 		.4byte	0xb98
 2719 0b92 1C       		.uleb128 0x1c
 2720 0b93 01       		.byte	0x1
 2721 0b94 50       		.byte	0x50
 2722 0b95 01       		.byte	0x1
 2723 0b96 38       		.byte	0x38
 2724 0b97 00       		.byte	0
 2725 0b98 1D       		.uleb128 0x1d
 2726 0b99 32000000 		.4byte	.LVL110
 2727 0b9d 490F0000 		.4byte	0xf49
 2728 0ba1 00       		.byte	0
 2729 0ba2 2B       		.uleb128 0x2b
 2730 0ba3 01       		.byte	0x1
 2731 0ba4 CC000000 		.4byte	.LASF85
 2732 0ba8 01       		.byte	0x1
 2733 0ba9 6701     		.2byte	0x167
 2734 0bab 01       		.byte	0x1
 2735 0bac DD000000 		.4byte	0xdd
 2736 0bb0 00000000 		.4byte	.LFB18
 2737 0bb4 40000000 		.4byte	.LFE18
 2738 0bb8 4D060000 		.4byte	.LLST52
 2739 0bbc 01       		.byte	0x1
 2740 0bbd 410C0000 		.4byte	0xc41
 2741 0bc1 28       		.uleb128 0x28
 2742 0bc2 1C010000 		.4byte	.LASF73
 2743 0bc6 01       		.byte	0x1
 2744 0bc7 6701     		.2byte	0x167
 2745 0bc9 DD000000 		.4byte	0xdd
 2746 0bcd 6D060000 		.4byte	.LLST53
 2747 0bd1 2C       		.uleb128 0x2c
 2748 0bd2 63747000 		.ascii	"ctp\000"
 2749 0bd6 01       		.byte	0x1
 2750 0bd7 6801     		.2byte	0x168
 2751 0bd9 53020000 		.4byte	0x253
 2752 0bdd 01       		.byte	0x1
 2753 0bde 55       		.byte	0x55
 2754 0bdf 19       		.uleb128 0x19
 2755 0be0 08000000 		.4byte	.LBB24
 2756 0be4 0E000000 		.4byte	.LBE24
 2757 0be8 FD0B0000 		.4byte	0xbfd
ARM GAS  /var/folders/dt/0wfd0knj7gs46m8vwfzktm600000gn/T//cchPVIpt.s 			page 50


 2758 0bec 29       		.uleb128 0x29
 2759 0bed 746D7000 		.ascii	"tmp\000"
 2760 0bf1 01       		.byte	0x1
 2761 0bf2 6A01     		.2byte	0x16a
 2762 0bf4 70000000 		.4byte	0x70
 2763 0bf8 8B060000 		.4byte	.LLST54
 2764 0bfc 00       		.byte	0
 2765 0bfd 19       		.uleb128 0x19
 2766 0bfe 30000000 		.4byte	.LBB25
 2767 0c02 36000000 		.4byte	.LBE25
 2768 0c06 1B0C0000 		.4byte	0xc1b
 2769 0c0a 29       		.uleb128 0x29
 2770 0c0b 746D7000 		.ascii	"tmp\000"
 2771 0c0f 01       		.byte	0x1
 2772 0c10 7201     		.2byte	0x172
 2773 0c12 70000000 		.4byte	0x70
 2774 0c16 9E060000 		.4byte	.LLST55
 2775 0c1a 00       		.byte	0
 2776 0c1b 1D       		.uleb128 0x1d
 2777 0c1c 12000000 		.4byte	.LVL117
 2778 0c20 3F0F0000 		.4byte	0xf3f
 2779 0c24 1B       		.uleb128 0x1b
 2780 0c25 24000000 		.4byte	.LVL118
 2781 0c29 7F0F0000 		.4byte	0xf7f
 2782 0c2d 370C0000 		.4byte	0xc37
 2783 0c31 1C       		.uleb128 0x1c
 2784 0c32 01       		.byte	0x1
 2785 0c33 50       		.byte	0x50
 2786 0c34 01       		.byte	0x1
 2787 0c35 39       		.byte	0x39
 2788 0c36 00       		.byte	0
 2789 0c37 1D       		.uleb128 0x1d
 2790 0c38 30000000 		.4byte	.LVL119
 2791 0c3c 490F0000 		.4byte	0xf49
 2792 0c40 00       		.byte	0
 2793 0c41 2B       		.uleb128 0x2b
 2794 0c42 01       		.byte	0x1
 2795 0c43 14040000 		.4byte	.LASF86
 2796 0c47 01       		.byte	0x1
 2797 0c48 8E01     		.2byte	0x18e
 2798 0c4a 01       		.byte	0x1
 2799 0c4b DD000000 		.4byte	0xdd
 2800 0c4f 00000000 		.4byte	.LFB19
 2801 0c53 60000000 		.4byte	.LFE19
 2802 0c57 B1060000 		.4byte	.LLST56
 2803 0c5b 01       		.byte	0x1
 2804 0c5c 2B0D0000 		.4byte	0xd2b
 2805 0c60 28       		.uleb128 0x28
 2806 0c61 1C010000 		.4byte	.LASF73
 2807 0c65 01       		.byte	0x1
 2808 0c66 8E01     		.2byte	0x18e
 2809 0c68 DD000000 		.4byte	0xdd
 2810 0c6c D1060000 		.4byte	.LLST57
 2811 0c70 28       		.uleb128 0x28
 2812 0c71 60020000 		.4byte	.LASF87
 2813 0c75 01       		.byte	0x1
 2814 0c76 8E01     		.2byte	0x18e
ARM GAS  /var/folders/dt/0wfd0knj7gs46m8vwfzktm600000gn/T//cchPVIpt.s 			page 51


 2815 0c78 E8000000 		.4byte	0xe8
 2816 0c7c EF060000 		.4byte	.LLST58
 2817 0c80 2C       		.uleb128 0x2c
 2818 0c81 63747000 		.ascii	"ctp\000"
 2819 0c85 01       		.byte	0x1
 2820 0c86 8F01     		.2byte	0x18f
 2821 0c88 53020000 		.4byte	0x253
 2822 0c8c 01       		.byte	0x1
 2823 0c8d 56       		.byte	0x56
 2824 0c8e 29       		.uleb128 0x29
 2825 0c8f 6D00     		.ascii	"m\000"
 2826 0c91 01       		.byte	0x1
 2827 0c92 9001     		.2byte	0x190
 2828 0c94 DD000000 		.4byte	0xdd
 2829 0c98 0D070000 		.4byte	.LLST59
 2830 0c9c 19       		.uleb128 0x19
 2831 0c9d 0A000000 		.4byte	.LBB26
 2832 0ca1 10000000 		.4byte	.LBE26
 2833 0ca5 BA0C0000 		.4byte	0xcba
 2834 0ca9 29       		.uleb128 0x29
 2835 0caa 746D7000 		.ascii	"tmp\000"
 2836 0cae 01       		.byte	0x1
 2837 0caf 9201     		.2byte	0x192
 2838 0cb1 70000000 		.4byte	0x70
 2839 0cb5 3B070000 		.4byte	.LLST60
 2840 0cb9 00       		.byte	0
 2841 0cba 19       		.uleb128 0x19
 2842 0cbb 42000000 		.4byte	.LBB27
 2843 0cbf 48000000 		.4byte	.LBE27
 2844 0cc3 D80C0000 		.4byte	0xcd8
 2845 0cc7 29       		.uleb128 0x29
 2846 0cc8 746D7000 		.ascii	"tmp\000"
 2847 0ccc 01       		.byte	0x1
 2848 0ccd A301     		.2byte	0x1a3
 2849 0ccf 70000000 		.4byte	0x70
 2850 0cd3 4E070000 		.4byte	.LLST61
 2851 0cd7 00       		.byte	0
 2852 0cd8 19       		.uleb128 0x19
 2853 0cd9 50000000 		.4byte	.LBB28
 2854 0cdd 56000000 		.4byte	.LBE28
 2855 0ce1 F60C0000 		.4byte	0xcf6
 2856 0ce5 29       		.uleb128 0x29
 2857 0ce6 746D7000 		.ascii	"tmp\000"
 2858 0cea 01       		.byte	0x1
 2859 0ceb 9B01     		.2byte	0x19b
 2860 0ced 70000000 		.4byte	0x70
 2861 0cf1 61070000 		.4byte	.LLST62
 2862 0cf5 00       		.byte	0
 2863 0cf6 1D       		.uleb128 0x1d
 2864 0cf7 14000000 		.4byte	.LVL126
 2865 0cfb 3F0F0000 		.4byte	0xf3f
 2866 0cff 1B       		.uleb128 0x1b
 2867 0d00 28000000 		.4byte	.LVL129
 2868 0d04 930F0000 		.4byte	0xf93
 2869 0d08 180D0000 		.4byte	0xd18
 2870 0d0c 1C       		.uleb128 0x1c
 2871 0d0d 01       		.byte	0x1
ARM GAS  /var/folders/dt/0wfd0knj7gs46m8vwfzktm600000gn/T//cchPVIpt.s 			page 52


 2872 0d0e 51       		.byte	0x51
 2873 0d0f 02       		.byte	0x2
 2874 0d10 77       		.byte	0x77
 2875 0d11 00       		.sleb128 0
 2876 0d12 1C       		.uleb128 0x1c
 2877 0d13 01       		.byte	0x1
 2878 0d14 50       		.byte	0x50
 2879 0d15 01       		.byte	0x1
 2880 0d16 38       		.byte	0x38
 2881 0d17 00       		.byte	0
 2882 0d18 1D       		.uleb128 0x1d
 2883 0d19 42000000 		.4byte	.LVL133
 2884 0d1d 490F0000 		.4byte	0xf49
 2885 0d21 1D       		.uleb128 0x1d
 2886 0d22 50000000 		.4byte	.LVL137
 2887 0d26 490F0000 		.4byte	0xf49
 2888 0d2a 00       		.byte	0
 2889 0d2b 2B       		.uleb128 0x2b
 2890 0d2c 01       		.byte	0x1
 2891 0d2d 53000000 		.4byte	.LASF88
 2892 0d31 01       		.byte	0x1
 2893 0d32 B901     		.2byte	0x1b9
 2894 0d34 01       		.byte	0x1
 2895 0d35 DD000000 		.4byte	0xdd
 2896 0d39 00000000 		.4byte	.LFB20
 2897 0d3d 5C000000 		.4byte	.LFE20
 2898 0d41 74070000 		.4byte	.LLST63
 2899 0d45 01       		.byte	0x1
 2900 0d46 150E0000 		.4byte	0xe15
 2901 0d4a 28       		.uleb128 0x28
 2902 0d4b 1C010000 		.4byte	.LASF73
 2903 0d4f 01       		.byte	0x1
 2904 0d50 B901     		.2byte	0x1b9
 2905 0d52 DD000000 		.4byte	0xdd
 2906 0d56 94070000 		.4byte	.LLST64
 2907 0d5a 28       		.uleb128 0x28
 2908 0d5b 60020000 		.4byte	.LASF87
 2909 0d5f 01       		.byte	0x1
 2910 0d60 B901     		.2byte	0x1b9
 2911 0d62 E8000000 		.4byte	0xe8
 2912 0d66 B2070000 		.4byte	.LLST65
 2913 0d6a 2C       		.uleb128 0x2c
 2914 0d6b 63747000 		.ascii	"ctp\000"
 2915 0d6f 01       		.byte	0x1
 2916 0d70 BA01     		.2byte	0x1ba
 2917 0d72 53020000 		.4byte	0x253
 2918 0d76 01       		.byte	0x1
 2919 0d77 55       		.byte	0x55
 2920 0d78 29       		.uleb128 0x29
 2921 0d79 6D00     		.ascii	"m\000"
 2922 0d7b 01       		.byte	0x1
 2923 0d7c BB01     		.2byte	0x1bb
 2924 0d7e DD000000 		.4byte	0xdd
 2925 0d82 D0070000 		.4byte	.LLST66
 2926 0d86 19       		.uleb128 0x19
 2927 0d87 0A000000 		.4byte	.LBB29
 2928 0d8b 10000000 		.4byte	.LBE29
ARM GAS  /var/folders/dt/0wfd0knj7gs46m8vwfzktm600000gn/T//cchPVIpt.s 			page 53


 2929 0d8f A40D0000 		.4byte	0xda4
 2930 0d93 29       		.uleb128 0x29
 2931 0d94 746D7000 		.ascii	"tmp\000"
 2932 0d98 01       		.byte	0x1
 2933 0d99 BD01     		.2byte	0x1bd
 2934 0d9b 70000000 		.4byte	0x70
 2935 0d9f FE070000 		.4byte	.LLST67
 2936 0da3 00       		.byte	0
 2937 0da4 19       		.uleb128 0x19
 2938 0da5 3E000000 		.4byte	.LBB30
 2939 0da9 44000000 		.4byte	.LBE30
 2940 0dad C20D0000 		.4byte	0xdc2
 2941 0db1 29       		.uleb128 0x29
 2942 0db2 746D7000 		.ascii	"tmp\000"
 2943 0db6 01       		.byte	0x1
 2944 0db7 CD01     		.2byte	0x1cd
 2945 0db9 70000000 		.4byte	0x70
 2946 0dbd 11080000 		.4byte	.LLST68
 2947 0dc1 00       		.byte	0
 2948 0dc2 19       		.uleb128 0x19
 2949 0dc3 4C000000 		.4byte	.LBB31
 2950 0dc7 52000000 		.4byte	.LBE31
 2951 0dcb E00D0000 		.4byte	0xde0
 2952 0dcf 29       		.uleb128 0x29
 2953 0dd0 746D7000 		.ascii	"tmp\000"
 2954 0dd4 01       		.byte	0x1
 2955 0dd5 C601     		.2byte	0x1c6
 2956 0dd7 70000000 		.4byte	0x70
 2957 0ddb 24080000 		.4byte	.LLST69
 2958 0ddf 00       		.byte	0
 2959 0de0 1D       		.uleb128 0x1d
 2960 0de1 14000000 		.4byte	.LVL144
 2961 0de5 3F0F0000 		.4byte	0xf3f
 2962 0de9 1B       		.uleb128 0x1b
 2963 0dea 28000000 		.4byte	.LVL147
 2964 0dee 930F0000 		.4byte	0xf93
 2965 0df2 020E0000 		.4byte	0xe02
 2966 0df6 1C       		.uleb128 0x1c
 2967 0df7 01       		.byte	0x1
 2968 0df8 51       		.byte	0x51
 2969 0df9 02       		.byte	0x2
 2970 0dfa 77       		.byte	0x77
 2971 0dfb 00       		.sleb128 0
 2972 0dfc 1C       		.uleb128 0x1c
 2973 0dfd 01       		.byte	0x1
 2974 0dfe 50       		.byte	0x50
 2975 0dff 01       		.byte	0x1
 2976 0e00 38       		.byte	0x38
 2977 0e01 00       		.byte	0
 2978 0e02 1D       		.uleb128 0x1d
 2979 0e03 3E000000 		.4byte	.LVL150
 2980 0e07 490F0000 		.4byte	0xf49
 2981 0e0b 1D       		.uleb128 0x1d
 2982 0e0c 4C000000 		.4byte	.LVL154
 2983 0e10 490F0000 		.4byte	0xf49
 2984 0e14 00       		.byte	0
 2985 0e15 2B       		.uleb128 0x2b
ARM GAS  /var/folders/dt/0wfd0knj7gs46m8vwfzktm600000gn/T//cchPVIpt.s 			page 54


 2986 0e16 01       		.byte	0x1
 2987 0e17 88000000 		.4byte	.LASF89
 2988 0e1b 01       		.byte	0x1
 2989 0e1c E201     		.2byte	0x1e2
 2990 0e1e 01       		.byte	0x1
 2991 0e1f DD000000 		.4byte	0xdd
 2992 0e23 00000000 		.4byte	.LFB21
 2993 0e27 68000000 		.4byte	.LFE21
 2994 0e2b 37080000 		.4byte	.LLST70
 2995 0e2f 01       		.byte	0x1
 2996 0e30 180F0000 		.4byte	0xf18
 2997 0e34 28       		.uleb128 0x28
 2998 0e35 1C010000 		.4byte	.LASF73
 2999 0e39 01       		.byte	0x1
 3000 0e3a E201     		.2byte	0x1e2
 3001 0e3c DD000000 		.4byte	0xdd
 3002 0e40 57080000 		.4byte	.LLST71
 3003 0e44 28       		.uleb128 0x28
 3004 0e45 60020000 		.4byte	.LASF87
 3005 0e49 01       		.byte	0x1
 3006 0e4a E201     		.2byte	0x1e2
 3007 0e4c E8000000 		.4byte	0xe8
 3008 0e50 B5080000 		.4byte	.LLST72
 3009 0e54 2C       		.uleb128 0x2c
 3010 0e55 63747000 		.ascii	"ctp\000"
 3011 0e59 01       		.byte	0x1
 3012 0e5a E301     		.2byte	0x1e3
 3013 0e5c 53020000 		.4byte	0x253
 3014 0e60 01       		.byte	0x1
 3015 0e61 55       		.byte	0x55
 3016 0e62 19       		.uleb128 0x19
 3017 0e63 0A000000 		.4byte	.LBB32
 3018 0e67 10000000 		.4byte	.LBE32
 3019 0e6b 800E0000 		.4byte	0xe80
 3020 0e6f 29       		.uleb128 0x29
 3021 0e70 746D7000 		.ascii	"tmp\000"
 3022 0e74 01       		.byte	0x1
 3023 0e75 E501     		.2byte	0x1e5
 3024 0e77 70000000 		.4byte	0x70
 3025 0e7b D3080000 		.4byte	.LLST73
 3026 0e7f 00       		.byte	0
 3027 0e80 19       		.uleb128 0x19
 3028 0e81 3A000000 		.4byte	.LBB33
 3029 0e85 40000000 		.4byte	.LBE33
 3030 0e89 9E0E0000 		.4byte	0xe9e
 3031 0e8d 29       		.uleb128 0x29
 3032 0e8e 746D7000 		.ascii	"tmp\000"
 3033 0e92 01       		.byte	0x1
 3034 0e93 F401     		.2byte	0x1f4
 3035 0e95 70000000 		.4byte	0x70
 3036 0e99 E6080000 		.4byte	.LLST74
 3037 0e9d 00       		.byte	0
 3038 0e9e 19       		.uleb128 0x19
 3039 0e9f 48000000 		.4byte	.LBB34
 3040 0ea3 4E000000 		.4byte	.LBE34
 3041 0ea7 BC0E0000 		.4byte	0xebc
 3042 0eab 29       		.uleb128 0x29
ARM GAS  /var/folders/dt/0wfd0knj7gs46m8vwfzktm600000gn/T//cchPVIpt.s 			page 55


 3043 0eac 746D7000 		.ascii	"tmp\000"
 3044 0eb0 01       		.byte	0x1
 3045 0eb1 E901     		.2byte	0x1e9
 3046 0eb3 70000000 		.4byte	0x70
 3047 0eb7 F9080000 		.4byte	.LLST75
 3048 0ebb 00       		.byte	0
 3049 0ebc 19       		.uleb128 0x19
 3050 0ebd 58000000 		.4byte	.LBB35
 3051 0ec1 5E000000 		.4byte	.LBE35
 3052 0ec5 DA0E0000 		.4byte	0xeda
 3053 0ec9 29       		.uleb128 0x29
 3054 0eca 746D7000 		.ascii	"tmp\000"
 3055 0ece 01       		.byte	0x1
 3056 0ecf EE01     		.2byte	0x1ee
 3057 0ed1 70000000 		.4byte	0x70
 3058 0ed5 0C090000 		.4byte	.LLST76
 3059 0ed9 00       		.byte	0
 3060 0eda 1D       		.uleb128 0x1d
 3061 0edb 14000000 		.4byte	.LVL161
 3062 0edf 3F0F0000 		.4byte	0xf3f
 3063 0ee3 1B       		.uleb128 0x1b
 3064 0ee4 2A000000 		.4byte	.LVL162
 3065 0ee8 930F0000 		.4byte	0xf93
 3066 0eec FC0E0000 		.4byte	0xefc
 3067 0ef0 1C       		.uleb128 0x1c
 3068 0ef1 01       		.byte	0x1
 3069 0ef2 51       		.byte	0x51
 3070 0ef3 02       		.byte	0x2
 3071 0ef4 76       		.byte	0x76
 3072 0ef5 00       		.sleb128 0
 3073 0ef6 1C       		.uleb128 0x1c
 3074 0ef7 01       		.byte	0x1
 3075 0ef8 50       		.byte	0x50
 3076 0ef9 01       		.byte	0x1
 3077 0efa 39       		.byte	0x39
 3078 0efb 00       		.byte	0
 3079 0efc 1D       		.uleb128 0x1d
 3080 0efd 3A000000 		.4byte	.LVL163
 3081 0f01 490F0000 		.4byte	0xf49
 3082 0f05 1D       		.uleb128 0x1d
 3083 0f06 48000000 		.4byte	.LVL167
 3084 0f0a 490F0000 		.4byte	0xf49
 3085 0f0e 1D       		.uleb128 0x1d
 3086 0f0f 58000000 		.4byte	.LVL172
 3087 0f13 490F0000 		.4byte	0xf49
 3088 0f17 00       		.byte	0
 3089 0f18 2D       		.uleb128 0x2d
 3090 0f19 D9030000 		.4byte	.LASF101
 3091 0f1d 07       		.byte	0x7
 3092 0f1e 72       		.byte	0x72
 3093 0f1f C5030000 		.4byte	0x3c5
 3094 0f23 01       		.byte	0x1
 3095 0f24 01       		.byte	0x1
 3096 0f25 2E       		.uleb128 0x2e
 3097 0f26 01       		.byte	0x1
 3098 0f27 06000000 		.4byte	.LASF91
 3099 0f2b 0A       		.byte	0xa
ARM GAS  /var/folders/dt/0wfd0knj7gs46m8vwfzktm600000gn/T//cchPVIpt.s 			page 56


 3100 0f2c F0       		.byte	0xf0
 3101 0f2d 01       		.byte	0x1
 3102 0f2e 01       		.byte	0x1
 3103 0f2f 390F0000 		.4byte	0xf39
 3104 0f33 0F       		.uleb128 0xf
 3105 0f34 390F0000 		.4byte	0xf39
 3106 0f38 00       		.byte	0
 3107 0f39 09       		.uleb128 0x9
 3108 0f3a 04       		.byte	0x4
 3109 0f3b E3040000 		.4byte	0x4e3
 3110 0f3f 2F       		.uleb128 0x2f
 3111 0f40 01       		.byte	0x1
 3112 0f41 76040000 		.4byte	.LASF92
 3113 0f45 0A       		.byte	0xa
 3114 0f46 E2       		.byte	0xe2
 3115 0f47 01       		.byte	0x1
 3116 0f48 01       		.byte	0x1
 3117 0f49 2F       		.uleb128 0x2f
 3118 0f4a 01       		.byte	0x1
 3119 0f4b 1D020000 		.4byte	.LASF93
 3120 0f4f 0A       		.byte	0xa
 3121 0f50 E3       		.byte	0xe3
 3122 0f51 01       		.byte	0x1
 3123 0f52 01       		.byte	0x1
 3124 0f53 30       		.uleb128 0x30
 3125 0f54 01       		.byte	0x1
 3126 0f55 54030000 		.4byte	.LASF102
 3127 0f59 07       		.byte	0x7
 3128 0f5a 93       		.byte	0x93
 3129 0f5b 01       		.byte	0x1
 3130 0f5c 53020000 		.4byte	0x253
 3131 0f60 01       		.byte	0x1
 3132 0f61 6B0F0000 		.4byte	0xf6b
 3133 0f65 0F       		.uleb128 0xf
 3134 0f66 53020000 		.4byte	0x253
 3135 0f6a 00       		.byte	0
 3136 0f6b 2F       		.uleb128 0x2f
 3137 0f6c 01       		.byte	0x1
 3138 0f6d 53040000 		.4byte	.LASF94
 3139 0f71 0A       		.byte	0xa
 3140 0f72 E8       		.byte	0xe8
 3141 0f73 01       		.byte	0x1
 3142 0f74 01       		.byte	0x1
 3143 0f75 2F       		.uleb128 0x2f
 3144 0f76 01       		.byte	0x1
 3145 0f77 03010000 		.4byte	.LASF95
 3146 0f7b 07       		.byte	0x7
 3147 0f7c 9F       		.byte	0x9f
 3148 0f7d 01       		.byte	0x1
 3149 0f7e 01       		.byte	0x1
 3150 0f7f 2E       		.uleb128 0x2e
 3151 0f80 01       		.byte	0x1
 3152 0f81 2A030000 		.4byte	.LASF96
 3153 0f85 07       		.byte	0x7
 3154 0f86 96       		.byte	0x96
 3155 0f87 01       		.byte	0x1
 3156 0f88 01       		.byte	0x1
ARM GAS  /var/folders/dt/0wfd0knj7gs46m8vwfzktm600000gn/T//cchPVIpt.s 			page 57


 3157 0f89 930F0000 		.4byte	0xf93
 3158 0f8d 0F       		.uleb128 0xf
 3159 0f8e A6000000 		.4byte	0xa6
 3160 0f92 00       		.byte	0
 3161 0f93 31       		.uleb128 0x31
 3162 0f94 01       		.byte	0x1
 3163 0f95 3E040000 		.4byte	.LASF97
 3164 0f99 07       		.byte	0x7
 3165 0f9a 99       		.byte	0x99
 3166 0f9b 01       		.byte	0x1
 3167 0f9c C7000000 		.4byte	0xc7
 3168 0fa0 01       		.byte	0x1
 3169 0fa1 0F       		.uleb128 0xf
 3170 0fa2 A6000000 		.4byte	0xa6
 3171 0fa6 0F       		.uleb128 0xf
 3172 0fa7 E8000000 		.4byte	0xe8
 3173 0fab 00       		.byte	0
 3174 0fac 00       		.byte	0
 3175              		.section	.debug_abbrev,"",%progbits
 3176              	.Ldebug_abbrev0:
 3177 0000 01       		.uleb128 0x1
 3178 0001 11       		.uleb128 0x11
 3179 0002 01       		.byte	0x1
 3180 0003 25       		.uleb128 0x25
 3181 0004 0E       		.uleb128 0xe
 3182 0005 13       		.uleb128 0x13
 3183 0006 0B       		.uleb128 0xb
 3184 0007 03       		.uleb128 0x3
 3185 0008 0E       		.uleb128 0xe
 3186 0009 1B       		.uleb128 0x1b
 3187 000a 0E       		.uleb128 0xe
 3188 000b 55       		.uleb128 0x55
 3189 000c 06       		.uleb128 0x6
 3190 000d 11       		.uleb128 0x11
 3191 000e 01       		.uleb128 0x1
 3192 000f 52       		.uleb128 0x52
 3193 0010 01       		.uleb128 0x1
 3194 0011 10       		.uleb128 0x10
 3195 0012 06       		.uleb128 0x6
 3196 0013 00       		.byte	0
 3197 0014 00       		.byte	0
 3198 0015 02       		.uleb128 0x2
 3199 0016 24       		.uleb128 0x24
 3200 0017 00       		.byte	0
 3201 0018 0B       		.uleb128 0xb
 3202 0019 0B       		.uleb128 0xb
 3203 001a 3E       		.uleb128 0x3e
 3204 001b 0B       		.uleb128 0xb
 3205 001c 03       		.uleb128 0x3
 3206 001d 08       		.uleb128 0x8
 3207 001e 00       		.byte	0
 3208 001f 00       		.byte	0
 3209 0020 03       		.uleb128 0x3
 3210 0021 24       		.uleb128 0x24
 3211 0022 00       		.byte	0
 3212 0023 0B       		.uleb128 0xb
 3213 0024 0B       		.uleb128 0xb
ARM GAS  /var/folders/dt/0wfd0knj7gs46m8vwfzktm600000gn/T//cchPVIpt.s 			page 58


 3214 0025 3E       		.uleb128 0x3e
 3215 0026 0B       		.uleb128 0xb
 3216 0027 03       		.uleb128 0x3
 3217 0028 0E       		.uleb128 0xe
 3218 0029 00       		.byte	0
 3219 002a 00       		.byte	0
 3220 002b 04       		.uleb128 0x4
 3221 002c 16       		.uleb128 0x16
 3222 002d 00       		.byte	0
 3223 002e 03       		.uleb128 0x3
 3224 002f 0E       		.uleb128 0xe
 3225 0030 3A       		.uleb128 0x3a
 3226 0031 0B       		.uleb128 0xb
 3227 0032 3B       		.uleb128 0x3b
 3228 0033 0B       		.uleb128 0xb
 3229 0034 49       		.uleb128 0x49
 3230 0035 13       		.uleb128 0x13
 3231 0036 00       		.byte	0
 3232 0037 00       		.byte	0
 3233 0038 05       		.uleb128 0x5
 3234 0039 13       		.uleb128 0x13
 3235 003a 01       		.byte	0x1
 3236 003b 03       		.uleb128 0x3
 3237 003c 0E       		.uleb128 0xe
 3238 003d 0B       		.uleb128 0xb
 3239 003e 0B       		.uleb128 0xb
 3240 003f 3A       		.uleb128 0x3a
 3241 0040 0B       		.uleb128 0xb
 3242 0041 3B       		.uleb128 0x3b
 3243 0042 0B       		.uleb128 0xb
 3244 0043 01       		.uleb128 0x1
 3245 0044 13       		.uleb128 0x13
 3246 0045 00       		.byte	0
 3247 0046 00       		.byte	0
 3248 0047 06       		.uleb128 0x6
 3249 0048 0D       		.uleb128 0xd
 3250 0049 00       		.byte	0
 3251 004a 03       		.uleb128 0x3
 3252 004b 0E       		.uleb128 0xe
 3253 004c 3A       		.uleb128 0x3a
 3254 004d 0B       		.uleb128 0xb
 3255 004e 3B       		.uleb128 0x3b
 3256 004f 0B       		.uleb128 0xb
 3257 0050 49       		.uleb128 0x49
 3258 0051 13       		.uleb128 0x13
 3259 0052 38       		.uleb128 0x38
 3260 0053 0A       		.uleb128 0xa
 3261 0054 00       		.byte	0
 3262 0055 00       		.byte	0
 3263 0056 07       		.uleb128 0x7
 3264 0057 0D       		.uleb128 0xd
 3265 0058 00       		.byte	0
 3266 0059 03       		.uleb128 0x3
 3267 005a 08       		.uleb128 0x8
 3268 005b 3A       		.uleb128 0x3a
 3269 005c 0B       		.uleb128 0xb
 3270 005d 3B       		.uleb128 0x3b
ARM GAS  /var/folders/dt/0wfd0knj7gs46m8vwfzktm600000gn/T//cchPVIpt.s 			page 59


 3271 005e 0B       		.uleb128 0xb
 3272 005f 49       		.uleb128 0x49
 3273 0060 13       		.uleb128 0x13
 3274 0061 38       		.uleb128 0x38
 3275 0062 0A       		.uleb128 0xa
 3276 0063 00       		.byte	0
 3277 0064 00       		.byte	0
 3278 0065 08       		.uleb128 0x8
 3279 0066 13       		.uleb128 0x13
 3280 0067 01       		.byte	0x1
 3281 0068 0B       		.uleb128 0xb
 3282 0069 0B       		.uleb128 0xb
 3283 006a 3A       		.uleb128 0x3a
 3284 006b 0B       		.uleb128 0xb
 3285 006c 3B       		.uleb128 0x3b
 3286 006d 0B       		.uleb128 0xb
 3287 006e 01       		.uleb128 0x1
 3288 006f 13       		.uleb128 0x13
 3289 0070 00       		.byte	0
 3290 0071 00       		.byte	0
 3291 0072 09       		.uleb128 0x9
 3292 0073 0F       		.uleb128 0xf
 3293 0074 00       		.byte	0
 3294 0075 0B       		.uleb128 0xb
 3295 0076 0B       		.uleb128 0xb
 3296 0077 49       		.uleb128 0x49
 3297 0078 13       		.uleb128 0x13
 3298 0079 00       		.byte	0
 3299 007a 00       		.byte	0
 3300 007b 0A       		.uleb128 0xa
 3301 007c 0F       		.uleb128 0xf
 3302 007d 00       		.byte	0
 3303 007e 0B       		.uleb128 0xb
 3304 007f 0B       		.uleb128 0xb
 3305 0080 00       		.byte	0
 3306 0081 00       		.byte	0
 3307 0082 0B       		.uleb128 0xb
 3308 0083 0D       		.uleb128 0xd
 3309 0084 00       		.byte	0
 3310 0085 03       		.uleb128 0x3
 3311 0086 08       		.uleb128 0x8
 3312 0087 3A       		.uleb128 0x3a
 3313 0088 0B       		.uleb128 0xb
 3314 0089 3B       		.uleb128 0x3b
 3315 008a 05       		.uleb128 0x5
 3316 008b 49       		.uleb128 0x49
 3317 008c 13       		.uleb128 0x13
 3318 008d 38       		.uleb128 0x38
 3319 008e 0A       		.uleb128 0xa
 3320 008f 00       		.byte	0
 3321 0090 00       		.byte	0
 3322 0091 0C       		.uleb128 0xc
 3323 0092 13       		.uleb128 0x13
 3324 0093 01       		.byte	0x1
 3325 0094 03       		.uleb128 0x3
 3326 0095 0E       		.uleb128 0xe
 3327 0096 0B       		.uleb128 0xb
ARM GAS  /var/folders/dt/0wfd0knj7gs46m8vwfzktm600000gn/T//cchPVIpt.s 			page 60


 3328 0097 0B       		.uleb128 0xb
 3329 0098 3A       		.uleb128 0x3a
 3330 0099 0B       		.uleb128 0xb
 3331 009a 3B       		.uleb128 0x3b
 3332 009b 05       		.uleb128 0x5
 3333 009c 01       		.uleb128 0x1
 3334 009d 13       		.uleb128 0x13
 3335 009e 00       		.byte	0
 3336 009f 00       		.byte	0
 3337 00a0 0D       		.uleb128 0xd
 3338 00a1 35       		.uleb128 0x35
 3339 00a2 00       		.byte	0
 3340 00a3 49       		.uleb128 0x49
 3341 00a4 13       		.uleb128 0x13
 3342 00a5 00       		.byte	0
 3343 00a6 00       		.byte	0
 3344 00a7 0E       		.uleb128 0xe
 3345 00a8 15       		.uleb128 0x15
 3346 00a9 01       		.byte	0x1
 3347 00aa 27       		.uleb128 0x27
 3348 00ab 0C       		.uleb128 0xc
 3349 00ac 01       		.uleb128 0x1
 3350 00ad 13       		.uleb128 0x13
 3351 00ae 00       		.byte	0
 3352 00af 00       		.byte	0
 3353 00b0 0F       		.uleb128 0xf
 3354 00b1 05       		.uleb128 0x5
 3355 00b2 00       		.byte	0
 3356 00b3 49       		.uleb128 0x49
 3357 00b4 13       		.uleb128 0x13
 3358 00b5 00       		.byte	0
 3359 00b6 00       		.byte	0
 3360 00b7 10       		.uleb128 0x10
 3361 00b8 17       		.uleb128 0x17
 3362 00b9 01       		.byte	0x1
 3363 00ba 0B       		.uleb128 0xb
 3364 00bb 0B       		.uleb128 0xb
 3365 00bc 3A       		.uleb128 0x3a
 3366 00bd 0B       		.uleb128 0xb
 3367 00be 3B       		.uleb128 0x3b
 3368 00bf 0B       		.uleb128 0xb
 3369 00c0 01       		.uleb128 0x1
 3370 00c1 13       		.uleb128 0x13
 3371 00c2 00       		.byte	0
 3372 00c3 00       		.byte	0
 3373 00c4 11       		.uleb128 0x11
 3374 00c5 0D       		.uleb128 0xd
 3375 00c6 00       		.byte	0
 3376 00c7 03       		.uleb128 0x3
 3377 00c8 0E       		.uleb128 0xe
 3378 00c9 3A       		.uleb128 0x3a
 3379 00ca 0B       		.uleb128 0xb
 3380 00cb 3B       		.uleb128 0x3b
 3381 00cc 0B       		.uleb128 0xb
 3382 00cd 49       		.uleb128 0x49
 3383 00ce 13       		.uleb128 0x13
 3384 00cf 00       		.byte	0
ARM GAS  /var/folders/dt/0wfd0knj7gs46m8vwfzktm600000gn/T//cchPVIpt.s 			page 61


 3385 00d0 00       		.byte	0
 3386 00d1 12       		.uleb128 0x12
 3387 00d2 26       		.uleb128 0x26
 3388 00d3 00       		.byte	0
 3389 00d4 49       		.uleb128 0x49
 3390 00d5 13       		.uleb128 0x13
 3391 00d6 00       		.byte	0
 3392 00d7 00       		.byte	0
 3393 00d8 13       		.uleb128 0x13
 3394 00d9 2E       		.uleb128 0x2e
 3395 00da 01       		.byte	0x1
 3396 00db 3F       		.uleb128 0x3f
 3397 00dc 0C       		.uleb128 0xc
 3398 00dd 03       		.uleb128 0x3
 3399 00de 0E       		.uleb128 0xe
 3400 00df 3A       		.uleb128 0x3a
 3401 00e0 0B       		.uleb128 0xb
 3402 00e1 3B       		.uleb128 0x3b
 3403 00e2 0B       		.uleb128 0xb
 3404 00e3 27       		.uleb128 0x27
 3405 00e4 0C       		.uleb128 0xc
 3406 00e5 20       		.uleb128 0x20
 3407 00e6 0B       		.uleb128 0xb
 3408 00e7 01       		.uleb128 0x1
 3409 00e8 13       		.uleb128 0x13
 3410 00e9 00       		.byte	0
 3411 00ea 00       		.byte	0
 3412 00eb 14       		.uleb128 0x14
 3413 00ec 05       		.uleb128 0x5
 3414 00ed 00       		.byte	0
 3415 00ee 03       		.uleb128 0x3
 3416 00ef 08       		.uleb128 0x8
 3417 00f0 3A       		.uleb128 0x3a
 3418 00f1 0B       		.uleb128 0xb
 3419 00f2 3B       		.uleb128 0x3b
 3420 00f3 0B       		.uleb128 0xb
 3421 00f4 49       		.uleb128 0x49
 3422 00f5 13       		.uleb128 0x13
 3423 00f6 00       		.byte	0
 3424 00f7 00       		.byte	0
 3425 00f8 15       		.uleb128 0x15
 3426 00f9 05       		.uleb128 0x5
 3427 00fa 00       		.byte	0
 3428 00fb 03       		.uleb128 0x3
 3429 00fc 0E       		.uleb128 0xe
 3430 00fd 3A       		.uleb128 0x3a
 3431 00fe 0B       		.uleb128 0xb
 3432 00ff 3B       		.uleb128 0x3b
 3433 0100 0B       		.uleb128 0xb
 3434 0101 49       		.uleb128 0x49
 3435 0102 13       		.uleb128 0x13
 3436 0103 00       		.byte	0
 3437 0104 00       		.byte	0
 3438 0105 16       		.uleb128 0x16
 3439 0106 2E       		.uleb128 0x2e
 3440 0107 01       		.byte	0x1
 3441 0108 3F       		.uleb128 0x3f
ARM GAS  /var/folders/dt/0wfd0knj7gs46m8vwfzktm600000gn/T//cchPVIpt.s 			page 62


 3442 0109 0C       		.uleb128 0xc
 3443 010a 03       		.uleb128 0x3
 3444 010b 0E       		.uleb128 0xe
 3445 010c 3A       		.uleb128 0x3a
 3446 010d 0B       		.uleb128 0xb
 3447 010e 3B       		.uleb128 0x3b
 3448 010f 0B       		.uleb128 0xb
 3449 0110 27       		.uleb128 0x27
 3450 0111 0C       		.uleb128 0xc
 3451 0112 11       		.uleb128 0x11
 3452 0113 01       		.uleb128 0x1
 3453 0114 12       		.uleb128 0x12
 3454 0115 01       		.uleb128 0x1
 3455 0116 40       		.uleb128 0x40
 3456 0117 06       		.uleb128 0x6
 3457 0118 9742     		.uleb128 0x2117
 3458 011a 0C       		.uleb128 0xc
 3459 011b 01       		.uleb128 0x1
 3460 011c 13       		.uleb128 0x13
 3461 011d 00       		.byte	0
 3462 011e 00       		.byte	0
 3463 011f 17       		.uleb128 0x17
 3464 0120 05       		.uleb128 0x5
 3465 0121 00       		.byte	0
 3466 0122 03       		.uleb128 0x3
 3467 0123 08       		.uleb128 0x8
 3468 0124 3A       		.uleb128 0x3a
 3469 0125 0B       		.uleb128 0xb
 3470 0126 3B       		.uleb128 0x3b
 3471 0127 0B       		.uleb128 0xb
 3472 0128 49       		.uleb128 0x49
 3473 0129 13       		.uleb128 0x13
 3474 012a 02       		.uleb128 0x2
 3475 012b 06       		.uleb128 0x6
 3476 012c 00       		.byte	0
 3477 012d 00       		.byte	0
 3478 012e 18       		.uleb128 0x18
 3479 012f 05       		.uleb128 0x5
 3480 0130 00       		.byte	0
 3481 0131 03       		.uleb128 0x3
 3482 0132 0E       		.uleb128 0xe
 3483 0133 3A       		.uleb128 0x3a
 3484 0134 0B       		.uleb128 0xb
 3485 0135 3B       		.uleb128 0x3b
 3486 0136 0B       		.uleb128 0xb
 3487 0137 49       		.uleb128 0x49
 3488 0138 13       		.uleb128 0x13
 3489 0139 02       		.uleb128 0x2
 3490 013a 06       		.uleb128 0x6
 3491 013b 00       		.byte	0
 3492 013c 00       		.byte	0
 3493 013d 19       		.uleb128 0x19
 3494 013e 0B       		.uleb128 0xb
 3495 013f 01       		.byte	0x1
 3496 0140 11       		.uleb128 0x11
 3497 0141 01       		.uleb128 0x1
 3498 0142 12       		.uleb128 0x12
ARM GAS  /var/folders/dt/0wfd0knj7gs46m8vwfzktm600000gn/T//cchPVIpt.s 			page 63


 3499 0143 01       		.uleb128 0x1
 3500 0144 01       		.uleb128 0x1
 3501 0145 13       		.uleb128 0x13
 3502 0146 00       		.byte	0
 3503 0147 00       		.byte	0
 3504 0148 1A       		.uleb128 0x1a
 3505 0149 34       		.uleb128 0x34
 3506 014a 00       		.byte	0
 3507 014b 03       		.uleb128 0x3
 3508 014c 08       		.uleb128 0x8
 3509 014d 3A       		.uleb128 0x3a
 3510 014e 0B       		.uleb128 0xb
 3511 014f 3B       		.uleb128 0x3b
 3512 0150 0B       		.uleb128 0xb
 3513 0151 49       		.uleb128 0x49
 3514 0152 13       		.uleb128 0x13
 3515 0153 02       		.uleb128 0x2
 3516 0154 06       		.uleb128 0x6
 3517 0155 00       		.byte	0
 3518 0156 00       		.byte	0
 3519 0157 1B       		.uleb128 0x1b
 3520 0158 898201   		.uleb128 0x4109
 3521 015b 01       		.byte	0x1
 3522 015c 11       		.uleb128 0x11
 3523 015d 01       		.uleb128 0x1
 3524 015e 31       		.uleb128 0x31
 3525 015f 13       		.uleb128 0x13
 3526 0160 01       		.uleb128 0x1
 3527 0161 13       		.uleb128 0x13
 3528 0162 00       		.byte	0
 3529 0163 00       		.byte	0
 3530 0164 1C       		.uleb128 0x1c
 3531 0165 8A8201   		.uleb128 0x410a
 3532 0168 00       		.byte	0
 3533 0169 02       		.uleb128 0x2
 3534 016a 0A       		.uleb128 0xa
 3535 016b 9142     		.uleb128 0x2111
 3536 016d 0A       		.uleb128 0xa
 3537 016e 00       		.byte	0
 3538 016f 00       		.byte	0
 3539 0170 1D       		.uleb128 0x1d
 3540 0171 898201   		.uleb128 0x4109
 3541 0174 00       		.byte	0
 3542 0175 11       		.uleb128 0x11
 3543 0176 01       		.uleb128 0x1
 3544 0177 31       		.uleb128 0x31
 3545 0178 13       		.uleb128 0x13
 3546 0179 00       		.byte	0
 3547 017a 00       		.byte	0
 3548 017b 1E       		.uleb128 0x1e
 3549 017c 898201   		.uleb128 0x4109
 3550 017f 01       		.byte	0x1
 3551 0180 11       		.uleb128 0x11
 3552 0181 01       		.uleb128 0x1
 3553 0182 31       		.uleb128 0x31
 3554 0183 13       		.uleb128 0x13
 3555 0184 00       		.byte	0
ARM GAS  /var/folders/dt/0wfd0knj7gs46m8vwfzktm600000gn/T//cchPVIpt.s 			page 64


 3556 0185 00       		.byte	0
 3557 0186 1F       		.uleb128 0x1f
 3558 0187 2E       		.uleb128 0x2e
 3559 0188 01       		.byte	0x1
 3560 0189 3F       		.uleb128 0x3f
 3561 018a 0C       		.uleb128 0xc
 3562 018b 03       		.uleb128 0x3
 3563 018c 0E       		.uleb128 0xe
 3564 018d 3A       		.uleb128 0x3a
 3565 018e 0B       		.uleb128 0xb
 3566 018f 3B       		.uleb128 0x3b
 3567 0190 0B       		.uleb128 0xb
 3568 0191 27       		.uleb128 0x27
 3569 0192 0C       		.uleb128 0xc
 3570 0193 49       		.uleb128 0x49
 3571 0194 13       		.uleb128 0x13
 3572 0195 11       		.uleb128 0x11
 3573 0196 01       		.uleb128 0x1
 3574 0197 12       		.uleb128 0x12
 3575 0198 01       		.uleb128 0x1
 3576 0199 40       		.uleb128 0x40
 3577 019a 06       		.uleb128 0x6
 3578 019b 9742     		.uleb128 0x2117
 3579 019d 0C       		.uleb128 0xc
 3580 019e 01       		.uleb128 0x1
 3581 019f 13       		.uleb128 0x13
 3582 01a0 00       		.byte	0
 3583 01a1 00       		.byte	0
 3584 01a2 20       		.uleb128 0x20
 3585 01a3 34       		.uleb128 0x34
 3586 01a4 00       		.byte	0
 3587 01a5 03       		.uleb128 0x3
 3588 01a6 08       		.uleb128 0x8
 3589 01a7 3A       		.uleb128 0x3a
 3590 01a8 0B       		.uleb128 0xb
 3591 01a9 3B       		.uleb128 0x3b
 3592 01aa 0B       		.uleb128 0xb
 3593 01ab 49       		.uleb128 0x49
 3594 01ac 13       		.uleb128 0x13
 3595 01ad 02       		.uleb128 0x2
 3596 01ae 0A       		.uleb128 0xa
 3597 01af 00       		.byte	0
 3598 01b0 00       		.byte	0
 3599 01b1 21       		.uleb128 0x21
 3600 01b2 0B       		.uleb128 0xb
 3601 01b3 01       		.byte	0x1
 3602 01b4 55       		.uleb128 0x55
 3603 01b5 06       		.uleb128 0x6
 3604 01b6 01       		.uleb128 0x1
 3605 01b7 13       		.uleb128 0x13
 3606 01b8 00       		.byte	0
 3607 01b9 00       		.byte	0
 3608 01ba 22       		.uleb128 0x22
 3609 01bb 2E       		.uleb128 0x2e
 3610 01bc 01       		.byte	0x1
 3611 01bd 31       		.uleb128 0x31
 3612 01be 13       		.uleb128 0x13
ARM GAS  /var/folders/dt/0wfd0knj7gs46m8vwfzktm600000gn/T//cchPVIpt.s 			page 65


 3613 01bf 11       		.uleb128 0x11
 3614 01c0 01       		.uleb128 0x1
 3615 01c1 12       		.uleb128 0x12
 3616 01c2 01       		.uleb128 0x1
 3617 01c3 40       		.uleb128 0x40
 3618 01c4 06       		.uleb128 0x6
 3619 01c5 9742     		.uleb128 0x2117
 3620 01c7 0C       		.uleb128 0xc
 3621 01c8 01       		.uleb128 0x1
 3622 01c9 13       		.uleb128 0x13
 3623 01ca 00       		.byte	0
 3624 01cb 00       		.byte	0
 3625 01cc 23       		.uleb128 0x23
 3626 01cd 05       		.uleb128 0x5
 3627 01ce 00       		.byte	0
 3628 01cf 31       		.uleb128 0x31
 3629 01d0 13       		.uleb128 0x13
 3630 01d1 02       		.uleb128 0x2
 3631 01d2 06       		.uleb128 0x6
 3632 01d3 00       		.byte	0
 3633 01d4 00       		.byte	0
 3634 01d5 24       		.uleb128 0x24
 3635 01d6 1D       		.uleb128 0x1d
 3636 01d7 01       		.byte	0x1
 3637 01d8 31       		.uleb128 0x31
 3638 01d9 13       		.uleb128 0x13
 3639 01da 11       		.uleb128 0x11
 3640 01db 01       		.uleb128 0x1
 3641 01dc 12       		.uleb128 0x12
 3642 01dd 01       		.uleb128 0x1
 3643 01de 58       		.uleb128 0x58
 3644 01df 0B       		.uleb128 0xb
 3645 01e0 59       		.uleb128 0x59
 3646 01e1 0B       		.uleb128 0xb
 3647 01e2 01       		.uleb128 0x1
 3648 01e3 13       		.uleb128 0x13
 3649 01e4 00       		.byte	0
 3650 01e5 00       		.byte	0
 3651 01e6 25       		.uleb128 0x25
 3652 01e7 0B       		.uleb128 0xb
 3653 01e8 01       		.byte	0x1
 3654 01e9 11       		.uleb128 0x11
 3655 01ea 01       		.uleb128 0x1
 3656 01eb 12       		.uleb128 0x12
 3657 01ec 01       		.uleb128 0x1
 3658 01ed 00       		.byte	0
 3659 01ee 00       		.byte	0
 3660 01ef 26       		.uleb128 0x26
 3661 01f0 05       		.uleb128 0x5
 3662 01f1 00       		.byte	0
 3663 01f2 31       		.uleb128 0x31
 3664 01f3 13       		.uleb128 0x13
 3665 01f4 00       		.byte	0
 3666 01f5 00       		.byte	0
 3667 01f6 27       		.uleb128 0x27
 3668 01f7 2E       		.uleb128 0x2e
 3669 01f8 01       		.byte	0x1
ARM GAS  /var/folders/dt/0wfd0knj7gs46m8vwfzktm600000gn/T//cchPVIpt.s 			page 66


 3670 01f9 3F       		.uleb128 0x3f
 3671 01fa 0C       		.uleb128 0xc
 3672 01fb 03       		.uleb128 0x3
 3673 01fc 0E       		.uleb128 0xe
 3674 01fd 3A       		.uleb128 0x3a
 3675 01fe 0B       		.uleb128 0xb
 3676 01ff 3B       		.uleb128 0x3b
 3677 0200 05       		.uleb128 0x5
 3678 0201 27       		.uleb128 0x27
 3679 0202 0C       		.uleb128 0xc
 3680 0203 11       		.uleb128 0x11
 3681 0204 01       		.uleb128 0x1
 3682 0205 12       		.uleb128 0x12
 3683 0206 01       		.uleb128 0x1
 3684 0207 40       		.uleb128 0x40
 3685 0208 06       		.uleb128 0x6
 3686 0209 9742     		.uleb128 0x2117
 3687 020b 0C       		.uleb128 0xc
 3688 020c 01       		.uleb128 0x1
 3689 020d 13       		.uleb128 0x13
 3690 020e 00       		.byte	0
 3691 020f 00       		.byte	0
 3692 0210 28       		.uleb128 0x28
 3693 0211 05       		.uleb128 0x5
 3694 0212 00       		.byte	0
 3695 0213 03       		.uleb128 0x3
 3696 0214 0E       		.uleb128 0xe
 3697 0215 3A       		.uleb128 0x3a
 3698 0216 0B       		.uleb128 0xb
 3699 0217 3B       		.uleb128 0x3b
 3700 0218 05       		.uleb128 0x5
 3701 0219 49       		.uleb128 0x49
 3702 021a 13       		.uleb128 0x13
 3703 021b 02       		.uleb128 0x2
 3704 021c 06       		.uleb128 0x6
 3705 021d 00       		.byte	0
 3706 021e 00       		.byte	0
 3707 021f 29       		.uleb128 0x29
 3708 0220 34       		.uleb128 0x34
 3709 0221 00       		.byte	0
 3710 0222 03       		.uleb128 0x3
 3711 0223 08       		.uleb128 0x8
 3712 0224 3A       		.uleb128 0x3a
 3713 0225 0B       		.uleb128 0xb
 3714 0226 3B       		.uleb128 0x3b
 3715 0227 05       		.uleb128 0x5
 3716 0228 49       		.uleb128 0x49
 3717 0229 13       		.uleb128 0x13
 3718 022a 02       		.uleb128 0x2
 3719 022b 06       		.uleb128 0x6
 3720 022c 00       		.byte	0
 3721 022d 00       		.byte	0
 3722 022e 2A       		.uleb128 0x2a
 3723 022f 898201   		.uleb128 0x4109
 3724 0232 01       		.byte	0x1
 3725 0233 11       		.uleb128 0x11
 3726 0234 01       		.uleb128 0x1
ARM GAS  /var/folders/dt/0wfd0knj7gs46m8vwfzktm600000gn/T//cchPVIpt.s 			page 67


 3727 0235 01       		.uleb128 0x1
 3728 0236 13       		.uleb128 0x13
 3729 0237 00       		.byte	0
 3730 0238 00       		.byte	0
 3731 0239 2B       		.uleb128 0x2b
 3732 023a 2E       		.uleb128 0x2e
 3733 023b 01       		.byte	0x1
 3734 023c 3F       		.uleb128 0x3f
 3735 023d 0C       		.uleb128 0xc
 3736 023e 03       		.uleb128 0x3
 3737 023f 0E       		.uleb128 0xe
 3738 0240 3A       		.uleb128 0x3a
 3739 0241 0B       		.uleb128 0xb
 3740 0242 3B       		.uleb128 0x3b
 3741 0243 05       		.uleb128 0x5
 3742 0244 27       		.uleb128 0x27
 3743 0245 0C       		.uleb128 0xc
 3744 0246 49       		.uleb128 0x49
 3745 0247 13       		.uleb128 0x13
 3746 0248 11       		.uleb128 0x11
 3747 0249 01       		.uleb128 0x1
 3748 024a 12       		.uleb128 0x12
 3749 024b 01       		.uleb128 0x1
 3750 024c 40       		.uleb128 0x40
 3751 024d 06       		.uleb128 0x6
 3752 024e 9742     		.uleb128 0x2117
 3753 0250 0C       		.uleb128 0xc
 3754 0251 01       		.uleb128 0x1
 3755 0252 13       		.uleb128 0x13
 3756 0253 00       		.byte	0
 3757 0254 00       		.byte	0
 3758 0255 2C       		.uleb128 0x2c
 3759 0256 34       		.uleb128 0x34
 3760 0257 00       		.byte	0
 3761 0258 03       		.uleb128 0x3
 3762 0259 08       		.uleb128 0x8
 3763 025a 3A       		.uleb128 0x3a
 3764 025b 0B       		.uleb128 0xb
 3765 025c 3B       		.uleb128 0x3b
 3766 025d 05       		.uleb128 0x5
 3767 025e 49       		.uleb128 0x49
 3768 025f 13       		.uleb128 0x13
 3769 0260 02       		.uleb128 0x2
 3770 0261 0A       		.uleb128 0xa
 3771 0262 00       		.byte	0
 3772 0263 00       		.byte	0
 3773 0264 2D       		.uleb128 0x2d
 3774 0265 34       		.uleb128 0x34
 3775 0266 00       		.byte	0
 3776 0267 03       		.uleb128 0x3
 3777 0268 0E       		.uleb128 0xe
 3778 0269 3A       		.uleb128 0x3a
 3779 026a 0B       		.uleb128 0xb
 3780 026b 3B       		.uleb128 0x3b
 3781 026c 0B       		.uleb128 0xb
 3782 026d 49       		.uleb128 0x49
 3783 026e 13       		.uleb128 0x13
ARM GAS  /var/folders/dt/0wfd0knj7gs46m8vwfzktm600000gn/T//cchPVIpt.s 			page 68


 3784 026f 3F       		.uleb128 0x3f
 3785 0270 0C       		.uleb128 0xc
 3786 0271 3C       		.uleb128 0x3c
 3787 0272 0C       		.uleb128 0xc
 3788 0273 00       		.byte	0
 3789 0274 00       		.byte	0
 3790 0275 2E       		.uleb128 0x2e
 3791 0276 2E       		.uleb128 0x2e
 3792 0277 01       		.byte	0x1
 3793 0278 3F       		.uleb128 0x3f
 3794 0279 0C       		.uleb128 0xc
 3795 027a 03       		.uleb128 0x3
 3796 027b 0E       		.uleb128 0xe
 3797 027c 3A       		.uleb128 0x3a
 3798 027d 0B       		.uleb128 0xb
 3799 027e 3B       		.uleb128 0x3b
 3800 027f 0B       		.uleb128 0xb
 3801 0280 27       		.uleb128 0x27
 3802 0281 0C       		.uleb128 0xc
 3803 0282 3C       		.uleb128 0x3c
 3804 0283 0C       		.uleb128 0xc
 3805 0284 01       		.uleb128 0x1
 3806 0285 13       		.uleb128 0x13
 3807 0286 00       		.byte	0
 3808 0287 00       		.byte	0
 3809 0288 2F       		.uleb128 0x2f
 3810 0289 2E       		.uleb128 0x2e
 3811 028a 00       		.byte	0
 3812 028b 3F       		.uleb128 0x3f
 3813 028c 0C       		.uleb128 0xc
 3814 028d 03       		.uleb128 0x3
 3815 028e 0E       		.uleb128 0xe
 3816 028f 3A       		.uleb128 0x3a
 3817 0290 0B       		.uleb128 0xb
 3818 0291 3B       		.uleb128 0x3b
 3819 0292 0B       		.uleb128 0xb
 3820 0293 27       		.uleb128 0x27
 3821 0294 0C       		.uleb128 0xc
 3822 0295 3C       		.uleb128 0x3c
 3823 0296 0C       		.uleb128 0xc
 3824 0297 00       		.byte	0
 3825 0298 00       		.byte	0
 3826 0299 30       		.uleb128 0x30
 3827 029a 2E       		.uleb128 0x2e
 3828 029b 01       		.byte	0x1
 3829 029c 3F       		.uleb128 0x3f
 3830 029d 0C       		.uleb128 0xc
 3831 029e 03       		.uleb128 0x3
 3832 029f 0E       		.uleb128 0xe
 3833 02a0 3A       		.uleb128 0x3a
 3834 02a1 0B       		.uleb128 0xb
 3835 02a2 3B       		.uleb128 0x3b
 3836 02a3 0B       		.uleb128 0xb
 3837 02a4 27       		.uleb128 0x27
 3838 02a5 0C       		.uleb128 0xc
 3839 02a6 49       		.uleb128 0x49
 3840 02a7 13       		.uleb128 0x13
ARM GAS  /var/folders/dt/0wfd0knj7gs46m8vwfzktm600000gn/T//cchPVIpt.s 			page 69


 3841 02a8 3C       		.uleb128 0x3c
 3842 02a9 0C       		.uleb128 0xc
 3843 02aa 01       		.uleb128 0x1
 3844 02ab 13       		.uleb128 0x13
 3845 02ac 00       		.byte	0
 3846 02ad 00       		.byte	0
 3847 02ae 31       		.uleb128 0x31
 3848 02af 2E       		.uleb128 0x2e
 3849 02b0 01       		.byte	0x1
 3850 02b1 3F       		.uleb128 0x3f
 3851 02b2 0C       		.uleb128 0xc
 3852 02b3 03       		.uleb128 0x3
 3853 02b4 0E       		.uleb128 0xe
 3854 02b5 3A       		.uleb128 0x3a
 3855 02b6 0B       		.uleb128 0xb
 3856 02b7 3B       		.uleb128 0x3b
 3857 02b8 0B       		.uleb128 0xb
 3858 02b9 27       		.uleb128 0x27
 3859 02ba 0C       		.uleb128 0xc
 3860 02bb 49       		.uleb128 0x49
 3861 02bc 13       		.uleb128 0x13
 3862 02bd 3C       		.uleb128 0x3c
 3863 02be 0C       		.uleb128 0xc
 3864 02bf 00       		.byte	0
 3865 02c0 00       		.byte	0
 3866 02c1 00       		.byte	0
 3867              		.section	.debug_loc,"",%progbits
 3868              	.Ldebug_loc0:
 3869              	.LLST0:
 3870 0000 00000000 		.4byte	.LFB7
 3871 0004 08000000 		.4byte	.LCFI0
 3872 0008 0200     		.2byte	0x2
 3873 000a 7D       		.byte	0x7d
 3874 000b 00       		.sleb128 0
 3875 000c 08000000 		.4byte	.LCFI0
 3876 0010 44000000 		.4byte	.LFE7
 3877 0014 0200     		.2byte	0x2
 3878 0016 7D       		.byte	0x7d
 3879 0017 10       		.sleb128 16
 3880 0018 00000000 		.4byte	0
 3881 001c 00000000 		.4byte	0
 3882              	.LLST1:
 3883 0020 00000000 		.4byte	.LVL0
 3884 0024 12000000 		.4byte	.LVL1
 3885 0028 0100     		.2byte	0x1
 3886 002a 50       		.byte	0x50
 3887 002b 12000000 		.4byte	.LVL1
 3888 002f 44000000 		.4byte	.LFE7
 3889 0033 0100     		.2byte	0x1
 3890 0035 55       		.byte	0x55
 3891 0036 00000000 		.4byte	0
 3892 003a 00000000 		.4byte	0
 3893              	.LLST2:
 3894 003e 00000000 		.4byte	.LVL0
 3895 0042 15000000 		.4byte	.LVL2-1
 3896 0046 0100     		.2byte	0x1
 3897 0048 51       		.byte	0x51
ARM GAS  /var/folders/dt/0wfd0knj7gs46m8vwfzktm600000gn/T//cchPVIpt.s 			page 70


 3898 0049 15000000 		.4byte	.LVL2-1
 3899 004d 44000000 		.4byte	.LFE7
 3900 0051 0100     		.2byte	0x1
 3901 0053 54       		.byte	0x54
 3902 0054 00000000 		.4byte	0
 3903 0058 00000000 		.4byte	0
 3904              	.LLST3:
 3905 005c 00000000 		.4byte	.LVL0
 3906 0060 15000000 		.4byte	.LVL2-1
 3907 0064 0100     		.2byte	0x1
 3908 0066 52       		.byte	0x52
 3909 0067 15000000 		.4byte	.LVL2-1
 3910 006b 44000000 		.4byte	.LFE7
 3911 006f 0100     		.2byte	0x1
 3912 0071 56       		.byte	0x56
 3913 0072 00000000 		.4byte	0
 3914 0076 00000000 		.4byte	0
 3915              	.LLST4:
 3916 007a 1C000000 		.4byte	.LVL4
 3917 007e 1F000000 		.4byte	.LVL5-1
 3918 0082 0100     		.2byte	0x1
 3919 0084 53       		.byte	0x53
 3920 0085 00000000 		.4byte	0
 3921 0089 00000000 		.4byte	0
 3922              	.LLST5:
 3923 008d 38000000 		.4byte	.LVL8
 3924 0091 44000000 		.4byte	.LFE7
 3925 0095 0100     		.2byte	0x1
 3926 0097 53       		.byte	0x53
 3927 0098 00000000 		.4byte	0
 3928 009c 00000000 		.4byte	0
 3929              	.LLST6:
 3930 00a0 00000000 		.4byte	.LFB8
 3931 00a4 08000000 		.4byte	.LCFI1
 3932 00a8 0200     		.2byte	0x2
 3933 00aa 7D       		.byte	0x7d
 3934 00ab 00       		.sleb128 0
 3935 00ac 08000000 		.4byte	.LCFI1
 3936 00b0 44000000 		.4byte	.LFE8
 3937 00b4 0200     		.2byte	0x2
 3938 00b6 7D       		.byte	0x7d
 3939 00b7 10       		.sleb128 16
 3940 00b8 00000000 		.4byte	0
 3941 00bc 00000000 		.4byte	0
 3942              	.LLST7:
 3943 00c0 00000000 		.4byte	.LVL9
 3944 00c4 0E000000 		.4byte	.LVL10
 3945 00c8 0100     		.2byte	0x1
 3946 00ca 50       		.byte	0x50
 3947 00cb 0E000000 		.4byte	.LVL10
 3948 00cf 38000000 		.4byte	.LVL19
 3949 00d3 0100     		.2byte	0x1
 3950 00d5 54       		.byte	0x54
 3951 00d6 38000000 		.4byte	.LVL19
 3952 00da 3A000000 		.4byte	.LVL20
 3953 00de 0100     		.2byte	0x1
 3954 00e0 50       		.byte	0x50
ARM GAS  /var/folders/dt/0wfd0knj7gs46m8vwfzktm600000gn/T//cchPVIpt.s 			page 71


 3955 00e1 3A000000 		.4byte	.LVL20
 3956 00e5 44000000 		.4byte	.LFE8
 3957 00e9 0100     		.2byte	0x1
 3958 00eb 54       		.byte	0x54
 3959 00ec 00000000 		.4byte	0
 3960 00f0 00000000 		.4byte	0
 3961              	.LLST8:
 3962 00f4 00000000 		.4byte	.LVL9
 3963 00f8 0E000000 		.4byte	.LVL10
 3964 00fc 0100     		.2byte	0x1
 3965 00fe 51       		.byte	0x51
 3966 00ff 0E000000 		.4byte	.LVL10
 3967 0103 38000000 		.4byte	.LVL19
 3968 0107 0100     		.2byte	0x1
 3969 0109 55       		.byte	0x55
 3970 010a 38000000 		.4byte	.LVL19
 3971 010e 3D000000 		.4byte	.LVL21-1
 3972 0112 0100     		.2byte	0x1
 3973 0114 51       		.byte	0x51
 3974 0115 3D000000 		.4byte	.LVL21-1
 3975 0119 44000000 		.4byte	.LFE8
 3976 011d 0100     		.2byte	0x1
 3977 011f 55       		.byte	0x55
 3978 0120 00000000 		.4byte	0
 3979 0124 00000000 		.4byte	0
 3980              	.LLST9:
 3981 0128 0E000000 		.4byte	.LVL10
 3982 012c 1C000000 		.4byte	.LVL14
 3983 0130 0100     		.2byte	0x1
 3984 0132 54       		.byte	0x54
 3985 0133 1C000000 		.4byte	.LVL14
 3986 0137 2F000000 		.4byte	.LVL16-1
 3987 013b 0100     		.2byte	0x1
 3988 013d 52       		.byte	0x52
 3989 013e 00000000 		.4byte	0
 3990 0142 00000000 		.4byte	0
 3991              	.LLST10:
 3992 0146 14000000 		.4byte	.LVL12
 3993 014a 17000000 		.4byte	.LVL13-1
 3994 014e 0100     		.2byte	0x1
 3995 0150 53       		.byte	0x53
 3996 0151 00000000 		.4byte	0
 3997 0155 00000000 		.4byte	0
 3998              	.LLST11:
 3999 0159 36000000 		.4byte	.LVL18
 4000 015d 38000000 		.4byte	.LVL19
 4001 0161 0100     		.2byte	0x1
 4002 0163 53       		.byte	0x53
 4003 0164 00000000 		.4byte	0
 4004 0168 00000000 		.4byte	0
 4005              	.LLST12:
 4006 016c 00000000 		.4byte	.LFB9
 4007 0170 02000000 		.4byte	.LCFI2
 4008 0174 0200     		.2byte	0x2
 4009 0176 7D       		.byte	0x7d
 4010 0177 00       		.sleb128 0
 4011 0178 02000000 		.4byte	.LCFI2
ARM GAS  /var/folders/dt/0wfd0knj7gs46m8vwfzktm600000gn/T//cchPVIpt.s 			page 72


 4012 017c 30000000 		.4byte	.LFE9
 4013 0180 0200     		.2byte	0x2
 4014 0182 7D       		.byte	0x7d
 4015 0183 08       		.sleb128 8
 4016 0184 00000000 		.4byte	0
 4017 0188 00000000 		.4byte	0
 4018              	.LLST13:
 4019 018c 00000000 		.4byte	.LVL22
 4020 0190 0D000000 		.4byte	.LVL25-1
 4021 0194 0100     		.2byte	0x1
 4022 0196 50       		.byte	0x50
 4023 0197 0D000000 		.4byte	.LVL25-1
 4024 019b 22000000 		.4byte	.LVL26
 4025 019f 0100     		.2byte	0x1
 4026 01a1 54       		.byte	0x54
 4027 01a2 22000000 		.4byte	.LVL26
 4028 01a6 30000000 		.4byte	.LFE9
 4029 01aa 0400     		.2byte	0x4
 4030 01ac F3       		.byte	0xf3
 4031 01ad 01       		.uleb128 0x1
 4032 01ae 50       		.byte	0x50
 4033 01af 9F       		.byte	0x9f
 4034 01b0 00000000 		.4byte	0
 4035 01b4 00000000 		.4byte	0
 4036              	.LLST14:
 4037 01b8 0A000000 		.4byte	.LVL24
 4038 01bc 0D000000 		.4byte	.LVL25-1
 4039 01c0 0100     		.2byte	0x1
 4040 01c2 53       		.byte	0x53
 4041 01c3 00000000 		.4byte	0
 4042 01c7 00000000 		.4byte	0
 4043              	.LLST15:
 4044 01cb 2C000000 		.4byte	.LVL29
 4045 01cf 30000000 		.4byte	.LFE9
 4046 01d3 0100     		.2byte	0x1
 4047 01d5 53       		.byte	0x53
 4048 01d6 00000000 		.4byte	0
 4049 01da 00000000 		.4byte	0
 4050              	.LLST16:
 4051 01de 00000000 		.4byte	.LFB10
 4052 01e2 02000000 		.4byte	.LCFI3
 4053 01e6 0200     		.2byte	0x2
 4054 01e8 7D       		.byte	0x7d
 4055 01e9 00       		.sleb128 0
 4056 01ea 02000000 		.4byte	.LCFI3
 4057 01ee 2C000000 		.4byte	.LFE10
 4058 01f2 0200     		.2byte	0x2
 4059 01f4 7D       		.byte	0x7d
 4060 01f5 08       		.sleb128 8
 4061 01f6 00000000 		.4byte	0
 4062 01fa 00000000 		.4byte	0
 4063              	.LLST17:
 4064 01fe 00000000 		.4byte	.LVL30
 4065 0202 0D000000 		.4byte	.LVL33-1
 4066 0206 0100     		.2byte	0x1
 4067 0208 50       		.byte	0x50
 4068 0209 0D000000 		.4byte	.LVL33-1
ARM GAS  /var/folders/dt/0wfd0knj7gs46m8vwfzktm600000gn/T//cchPVIpt.s 			page 73


 4069 020d 1C000000 		.4byte	.LVL34
 4070 0211 0100     		.2byte	0x1
 4071 0213 54       		.byte	0x54
 4072 0214 1C000000 		.4byte	.LVL34
 4073 0218 1E000000 		.4byte	.LVL35
 4074 021c 0400     		.2byte	0x4
 4075 021e F3       		.byte	0xf3
 4076 021f 01       		.uleb128 0x1
 4077 0220 50       		.byte	0x50
 4078 0221 9F       		.byte	0x9f
 4079 0222 1E000000 		.4byte	.LVL35
 4080 0226 2C000000 		.4byte	.LFE10
 4081 022a 0100     		.2byte	0x1
 4082 022c 54       		.byte	0x54
 4083 022d 00000000 		.4byte	0
 4084 0231 00000000 		.4byte	0
 4085              	.LLST18:
 4086 0235 0A000000 		.4byte	.LVL32
 4087 0239 0D000000 		.4byte	.LVL33-1
 4088 023d 0100     		.2byte	0x1
 4089 023f 53       		.byte	0x53
 4090 0240 00000000 		.4byte	0
 4091 0244 00000000 		.4byte	0
 4092              	.LLST19:
 4093 0248 28000000 		.4byte	.LVL38
 4094 024c 2C000000 		.4byte	.LFE10
 4095 0250 0100     		.2byte	0x1
 4096 0252 53       		.byte	0x53
 4097 0253 00000000 		.4byte	0
 4098 0257 00000000 		.4byte	0
 4099              	.LLST20:
 4100 025b 00000000 		.4byte	.LFB12
 4101 025f 02000000 		.4byte	.LCFI4
 4102 0263 0200     		.2byte	0x2
 4103 0265 7D       		.byte	0x7d
 4104 0266 00       		.sleb128 0
 4105 0267 02000000 		.4byte	.LCFI4
 4106 026b 4C000000 		.4byte	.LFE12
 4107 026f 0200     		.2byte	0x2
 4108 0271 7D       		.byte	0x7d
 4109 0272 10       		.sleb128 16
 4110 0273 00000000 		.4byte	0
 4111 0277 00000000 		.4byte	0
 4112              	.LLST21:
 4113 027b 00000000 		.4byte	.LVL39
 4114 027f 09000000 		.4byte	.LVL40-1
 4115 0283 0100     		.2byte	0x1
 4116 0285 50       		.byte	0x50
 4117 0286 09000000 		.4byte	.LVL40-1
 4118 028a 4C000000 		.4byte	.LFE12
 4119 028e 0100     		.2byte	0x1
 4120 0290 54       		.byte	0x54
 4121 0291 00000000 		.4byte	0
 4122 0295 00000000 		.4byte	0
 4123              	.LLST22:
 4124 0299 00000000 		.4byte	.LVL39
 4125 029d 09000000 		.4byte	.LVL40-1
ARM GAS  /var/folders/dt/0wfd0knj7gs46m8vwfzktm600000gn/T//cchPVIpt.s 			page 74


 4126 02a1 0100     		.2byte	0x1
 4127 02a3 51       		.byte	0x51
 4128 02a4 09000000 		.4byte	.LVL40-1
 4129 02a8 4C000000 		.4byte	.LFE12
 4130 02ac 0100     		.2byte	0x1
 4131 02ae 55       		.byte	0x55
 4132 02af 00000000 		.4byte	0
 4133 02b3 00000000 		.4byte	0
 4134              	.LLST23:
 4135 02b7 2A000000 		.4byte	.LVL41
 4136 02bb 36000000 		.4byte	.LVL43
 4137 02bf 0100     		.2byte	0x1
 4138 02c1 54       		.byte	0x54
 4139 02c2 00000000 		.4byte	0
 4140 02c6 00000000 		.4byte	0
 4141              	.LLST24:
 4142 02ca 00000000 		.4byte	.LFB11
 4143 02ce 02000000 		.4byte	.LCFI5
 4144 02d2 0200     		.2byte	0x2
 4145 02d4 7D       		.byte	0x7d
 4146 02d5 00       		.sleb128 0
 4147 02d6 02000000 		.4byte	.LCFI5
 4148 02da 38000000 		.4byte	.LFE11
 4149 02de 0200     		.2byte	0x2
 4150 02e0 7D       		.byte	0x7d
 4151 02e1 10       		.sleb128 16
 4152 02e2 00000000 		.4byte	0
 4153 02e6 00000000 		.4byte	0
 4154              	.LLST25:
 4155 02ea 00000000 		.4byte	.LVL45
 4156 02ee 08000000 		.4byte	.LVL46
 4157 02f2 0100     		.2byte	0x1
 4158 02f4 50       		.byte	0x50
 4159 02f5 08000000 		.4byte	.LVL46
 4160 02f9 2A000000 		.4byte	.LVL55
 4161 02fd 0100     		.2byte	0x1
 4162 02ff 54       		.byte	0x54
 4163 0300 2A000000 		.4byte	.LVL55
 4164 0304 2C000000 		.4byte	.LVL56
 4165 0308 0100     		.2byte	0x1
 4166 030a 50       		.byte	0x50
 4167 030b 2C000000 		.4byte	.LVL56
 4168 030f 38000000 		.4byte	.LFE11
 4169 0313 0100     		.2byte	0x1
 4170 0315 54       		.byte	0x54
 4171 0316 00000000 		.4byte	0
 4172 031a 00000000 		.4byte	0
 4173              	.LLST26:
 4174 031e 00000000 		.4byte	.LVL45
 4175 0322 08000000 		.4byte	.LVL46
 4176 0326 0100     		.2byte	0x1
 4177 0328 51       		.byte	0x51
 4178 0329 08000000 		.4byte	.LVL46
 4179 032d 2A000000 		.4byte	.LVL55
 4180 0331 0100     		.2byte	0x1
 4181 0333 55       		.byte	0x55
 4182 0334 2A000000 		.4byte	.LVL55
ARM GAS  /var/folders/dt/0wfd0knj7gs46m8vwfzktm600000gn/T//cchPVIpt.s 			page 75


 4183 0338 2F000000 		.4byte	.LVL57-1
 4184 033c 0100     		.2byte	0x1
 4185 033e 51       		.byte	0x51
 4186 033f 2F000000 		.4byte	.LVL57-1
 4187 0343 38000000 		.4byte	.LFE11
 4188 0347 0100     		.2byte	0x1
 4189 0349 55       		.byte	0x55
 4190 034a 00000000 		.4byte	0
 4191 034e 00000000 		.4byte	0
 4192              	.LLST27:
 4193 0352 0E000000 		.4byte	.LVL48
 4194 0356 11000000 		.4byte	.LVL49-1
 4195 035a 0100     		.2byte	0x1
 4196 035c 53       		.byte	0x53
 4197 035d 00000000 		.4byte	0
 4198 0361 00000000 		.4byte	0
 4199              	.LLST28:
 4200 0365 28000000 		.4byte	.LVL54
 4201 0369 2A000000 		.4byte	.LVL55
 4202 036d 0100     		.2byte	0x1
 4203 036f 53       		.byte	0x53
 4204 0370 00000000 		.4byte	0
 4205 0374 00000000 		.4byte	0
 4206              	.LLST29:
 4207 0378 00000000 		.4byte	.LFB14
 4208 037c 02000000 		.4byte	.LCFI6
 4209 0380 0200     		.2byte	0x2
 4210 0382 7D       		.byte	0x7d
 4211 0383 00       		.sleb128 0
 4212 0384 02000000 		.4byte	.LCFI6
 4213 0388 30000000 		.4byte	.LFE14
 4214 038c 0200     		.2byte	0x2
 4215 038e 7D       		.byte	0x7d
 4216 038f 10       		.sleb128 16
 4217 0390 00000000 		.4byte	0
 4218 0394 00000000 		.4byte	0
 4219              	.LLST30:
 4220 0398 00000000 		.4byte	.LVL58
 4221 039c 09000000 		.4byte	.LVL59-1
 4222 03a0 0100     		.2byte	0x1
 4223 03a2 50       		.byte	0x50
 4224 03a3 09000000 		.4byte	.LVL59-1
 4225 03a7 30000000 		.4byte	.LFE14
 4226 03ab 0100     		.2byte	0x1
 4227 03ad 55       		.byte	0x55
 4228 03ae 00000000 		.4byte	0
 4229 03b2 00000000 		.4byte	0
 4230              	.LLST31:
 4231 03b6 00000000 		.4byte	.LVL58
 4232 03ba 09000000 		.4byte	.LVL59-1
 4233 03be 0100     		.2byte	0x1
 4234 03c0 51       		.byte	0x51
 4235 03c1 09000000 		.4byte	.LVL59-1
 4236 03c5 30000000 		.4byte	.LFE14
 4237 03c9 0100     		.2byte	0x1
 4238 03cb 56       		.byte	0x56
 4239 03cc 00000000 		.4byte	0
ARM GAS  /var/folders/dt/0wfd0knj7gs46m8vwfzktm600000gn/T//cchPVIpt.s 			page 76


 4240 03d0 00000000 		.4byte	0
 4241              	.LLST32:
 4242 03d4 0E000000 		.4byte	.LVL60
 4243 03d8 24000000 		.4byte	.LVL63
 4244 03dc 0100     		.2byte	0x1
 4245 03de 54       		.byte	0x54
 4246 03df 00000000 		.4byte	0
 4247 03e3 00000000 		.4byte	0
 4248              	.LLST33:
 4249 03e7 00000000 		.4byte	.LFB13
 4250 03eb 02000000 		.4byte	.LCFI7
 4251 03ef 0200     		.2byte	0x2
 4252 03f1 7D       		.byte	0x7d
 4253 03f2 00       		.sleb128 0
 4254 03f3 02000000 		.4byte	.LCFI7
 4255 03f7 28000000 		.4byte	.LFE13
 4256 03fb 0200     		.2byte	0x2
 4257 03fd 7D       		.byte	0x7d
 4258 03fe 10       		.sleb128 16
 4259 03ff 00000000 		.4byte	0
 4260 0403 00000000 		.4byte	0
 4261              	.LLST34:
 4262 0407 00000000 		.4byte	.LVL65
 4263 040b 0F000000 		.4byte	.LVL68-1
 4264 040f 0100     		.2byte	0x1
 4265 0411 50       		.byte	0x50
 4266 0412 0F000000 		.4byte	.LVL68-1
 4267 0416 28000000 		.4byte	.LFE13
 4268 041a 0100     		.2byte	0x1
 4269 041c 55       		.byte	0x55
 4270 041d 00000000 		.4byte	0
 4271 0421 00000000 		.4byte	0
 4272              	.LLST35:
 4273 0425 00000000 		.4byte	.LVL65
 4274 0429 0F000000 		.4byte	.LVL68-1
 4275 042d 0100     		.2byte	0x1
 4276 042f 51       		.byte	0x51
 4277 0430 0F000000 		.4byte	.LVL68-1
 4278 0434 28000000 		.4byte	.LFE13
 4279 0438 0100     		.2byte	0x1
 4280 043a 54       		.byte	0x54
 4281 043b 00000000 		.4byte	0
 4282 043f 00000000 		.4byte	0
 4283              	.LLST36:
 4284 0443 0C000000 		.4byte	.LVL67
 4285 0447 0F000000 		.4byte	.LVL68-1
 4286 044b 0100     		.2byte	0x1
 4287 044d 53       		.byte	0x53
 4288 044e 00000000 		.4byte	0
 4289 0452 00000000 		.4byte	0
 4290              	.LLST37:
 4291 0456 26000000 		.4byte	.LVL73
 4292 045a 28000000 		.4byte	.LFE13
 4293 045e 0100     		.2byte	0x1
 4294 0460 53       		.byte	0x53
 4295 0461 00000000 		.4byte	0
 4296 0465 00000000 		.4byte	0
ARM GAS  /var/folders/dt/0wfd0knj7gs46m8vwfzktm600000gn/T//cchPVIpt.s 			page 77


 4297              	.LLST38:
 4298 0469 00000000 		.4byte	.LFB15
 4299 046d 04000000 		.4byte	.LCFI8
 4300 0471 0200     		.2byte	0x2
 4301 0473 7D       		.byte	0x7d
 4302 0474 00       		.sleb128 0
 4303 0475 04000000 		.4byte	.LCFI8
 4304 0479 50000000 		.4byte	.LFE15
 4305 047d 0200     		.2byte	0x2
 4306 047f 7D       		.byte	0x7d
 4307 0480 18       		.sleb128 24
 4308 0481 00000000 		.4byte	0
 4309 0485 00000000 		.4byte	0
 4310              	.LLST39:
 4311 0489 00000000 		.4byte	.LVL74
 4312 048d 0A000000 		.4byte	.LVL75
 4313 0491 0100     		.2byte	0x1
 4314 0493 50       		.byte	0x50
 4315 0494 0A000000 		.4byte	.LVL75
 4316 0498 40000000 		.4byte	.LVL84
 4317 049c 0100     		.2byte	0x1
 4318 049e 58       		.byte	0x58
 4319 049f 40000000 		.4byte	.LVL84
 4320 04a3 42000000 		.4byte	.LVL85
 4321 04a7 0100     		.2byte	0x1
 4322 04a9 50       		.byte	0x50
 4323 04aa 42000000 		.4byte	.LVL85
 4324 04ae 50000000 		.4byte	.LFE15
 4325 04b2 0100     		.2byte	0x1
 4326 04b4 58       		.byte	0x58
 4327 04b5 00000000 		.4byte	0
 4328 04b9 00000000 		.4byte	0
 4329              	.LLST40:
 4330 04bd 00000000 		.4byte	.LVL74
 4331 04c1 0A000000 		.4byte	.LVL75
 4332 04c5 0100     		.2byte	0x1
 4333 04c7 51       		.byte	0x51
 4334 04c8 0A000000 		.4byte	.LVL75
 4335 04cc 1E000000 		.4byte	.LVL77
 4336 04d0 0100     		.2byte	0x1
 4337 04d2 55       		.byte	0x55
 4338 04d3 24000000 		.4byte	.LVL78
 4339 04d7 34000000 		.4byte	.LVL82
 4340 04db 0100     		.2byte	0x1
 4341 04dd 55       		.byte	0x55
 4342 04de 40000000 		.4byte	.LVL84
 4343 04e2 45000000 		.4byte	.LVL86-1
 4344 04e6 0100     		.2byte	0x1
 4345 04e8 51       		.byte	0x51
 4346 04e9 45000000 		.4byte	.LVL86-1
 4347 04ed 50000000 		.4byte	.LFE15
 4348 04f1 0100     		.2byte	0x1
 4349 04f3 55       		.byte	0x55
 4350 04f4 00000000 		.4byte	0
 4351 04f8 00000000 		.4byte	0
 4352              	.LLST41:
 4353 04fc 0A000000 		.4byte	.LVL75
ARM GAS  /var/folders/dt/0wfd0knj7gs46m8vwfzktm600000gn/T//cchPVIpt.s 			page 78


 4354 0500 12000000 		.4byte	.LVL76
 4355 0504 0200     		.2byte	0x2
 4356 0506 30       		.byte	0x30
 4357 0507 9F       		.byte	0x9f
 4358 0508 2A000000 		.4byte	.LVL80
 4359 050c 30000000 		.4byte	.LVL81
 4360 0510 0100     		.2byte	0x1
 4361 0512 54       		.byte	0x54
 4362 0513 00000000 		.4byte	0
 4363 0517 00000000 		.4byte	0
 4364              	.LLST42:
 4365 051b 00000000 		.4byte	.LFB16
 4366 051f 02000000 		.4byte	.LCFI9
 4367 0523 0200     		.2byte	0x2
 4368 0525 7D       		.byte	0x7d
 4369 0526 00       		.sleb128 0
 4370 0527 02000000 		.4byte	.LCFI9
 4371 052b 44000000 		.4byte	.LFE16
 4372 052f 0200     		.2byte	0x2
 4373 0531 7D       		.byte	0x7d
 4374 0532 10       		.sleb128 16
 4375 0533 00000000 		.4byte	0
 4376 0537 00000000 		.4byte	0
 4377              	.LLST43:
 4378 053b 00000000 		.4byte	.LVL87
 4379 053f 11000000 		.4byte	.LVL91-1
 4380 0543 0100     		.2byte	0x1
 4381 0545 50       		.byte	0x50
 4382 0546 11000000 		.4byte	.LVL91-1
 4383 054a 2A000000 		.4byte	.LVL96
 4384 054e 0100     		.2byte	0x1
 4385 0550 54       		.byte	0x54
 4386 0551 2A000000 		.4byte	.LVL96
 4387 0555 44000000 		.4byte	.LFE16
 4388 0559 0400     		.2byte	0x4
 4389 055b F3       		.byte	0xf3
 4390 055c 01       		.uleb128 0x1
 4391 055d 50       		.byte	0x50
 4392 055e 9F       		.byte	0x9f
 4393 055f 00000000 		.4byte	0
 4394 0563 00000000 		.4byte	0
 4395              	.LLST44:
 4396 0567 14000000 		.4byte	.LVL92
 4397 056b 18000000 		.4byte	.LVL93
 4398 056f 0600     		.2byte	0x6
 4399 0571 74       		.byte	0x74
 4400 0572 00       		.sleb128 0
 4401 0573 73       		.byte	0x73
 4402 0574 00       		.sleb128 0
 4403 0575 1A       		.byte	0x1a
 4404 0576 9F       		.byte	0x9f
 4405 0577 18000000 		.4byte	.LVL93
 4406 057b 21000000 		.4byte	.LVL94-1
 4407 057f 0100     		.2byte	0x1
 4408 0581 52       		.byte	0x52
 4409 0582 28000000 		.4byte	.LVL95
 4410 0586 2C000000 		.4byte	.LVL97
ARM GAS  /var/folders/dt/0wfd0knj7gs46m8vwfzktm600000gn/T//cchPVIpt.s 			page 79


 4411 058a 0100     		.2byte	0x1
 4412 058c 52       		.byte	0x52
 4413 058d 2C000000 		.4byte	.LVL97
 4414 0591 44000000 		.4byte	.LFE16
 4415 0595 0100     		.2byte	0x1
 4416 0597 54       		.byte	0x54
 4417 0598 00000000 		.4byte	0
 4418 059c 00000000 		.4byte	0
 4419              	.LLST45:
 4420 05a0 0E000000 		.4byte	.LVL90
 4421 05a4 11000000 		.4byte	.LVL91-1
 4422 05a8 0100     		.2byte	0x1
 4423 05aa 53       		.byte	0x53
 4424 05ab 00000000 		.4byte	0
 4425 05af 00000000 		.4byte	0
 4426              	.LLST46:
 4427 05b3 3C000000 		.4byte	.LVL100
 4428 05b7 44000000 		.4byte	.LFE16
 4429 05bb 0100     		.2byte	0x1
 4430 05bd 53       		.byte	0x53
 4431 05be 00000000 		.4byte	0
 4432 05c2 00000000 		.4byte	0
 4433              	.LLST47:
 4434 05c6 00000000 		.4byte	.LFB17
 4435 05ca 04000000 		.4byte	.LCFI10
 4436 05ce 0200     		.2byte	0x2
 4437 05d0 7D       		.byte	0x7d
 4438 05d1 00       		.sleb128 0
 4439 05d2 04000000 		.4byte	.LCFI10
 4440 05d6 40000000 		.4byte	.LFE17
 4441 05da 0200     		.2byte	0x2
 4442 05dc 7D       		.byte	0x7d
 4443 05dd 10       		.sleb128 16
 4444 05de 00000000 		.4byte	0
 4445 05e2 00000000 		.4byte	0
 4446              	.LLST48:
 4447 05e6 00000000 		.4byte	.LVL101
 4448 05ea 11000000 		.4byte	.LVL105-1
 4449 05ee 0100     		.2byte	0x1
 4450 05f0 50       		.byte	0x50
 4451 05f1 11000000 		.4byte	.LVL105-1
 4452 05f5 40000000 		.4byte	.LFE17
 4453 05f9 0100     		.2byte	0x1
 4454 05fb 54       		.byte	0x54
 4455 05fc 00000000 		.4byte	0
 4456 0600 00000000 		.4byte	0
 4457              	.LLST49:
 4458 0604 14000000 		.4byte	.LVL106
 4459 0608 18000000 		.4byte	.LVL107
 4460 060c 0600     		.2byte	0x6
 4461 060e 74       		.byte	0x74
 4462 060f 00       		.sleb128 0
 4463 0610 73       		.byte	0x73
 4464 0611 00       		.sleb128 0
 4465 0612 1A       		.byte	0x1a
 4466 0613 9F       		.byte	0x9f
 4467 0614 18000000 		.4byte	.LVL107
ARM GAS  /var/folders/dt/0wfd0knj7gs46m8vwfzktm600000gn/T//cchPVIpt.s 			page 80


 4468 0618 40000000 		.4byte	.LFE17
 4469 061c 0100     		.2byte	0x1
 4470 061e 56       		.byte	0x56
 4471 061f 00000000 		.4byte	0
 4472 0623 00000000 		.4byte	0
 4473              	.LLST50:
 4474 0627 0E000000 		.4byte	.LVL104
 4475 062b 11000000 		.4byte	.LVL105-1
 4476 062f 0100     		.2byte	0x1
 4477 0631 53       		.byte	0x53
 4478 0632 00000000 		.4byte	0
 4479 0636 00000000 		.4byte	0
 4480              	.LLST51:
 4481 063a 38000000 		.4byte	.LVL112
 4482 063e 40000000 		.4byte	.LFE17
 4483 0642 0100     		.2byte	0x1
 4484 0644 53       		.byte	0x53
 4485 0645 00000000 		.4byte	0
 4486 0649 00000000 		.4byte	0
 4487              	.LLST52:
 4488 064d 00000000 		.4byte	.LFB18
 4489 0651 02000000 		.4byte	.LCFI11
 4490 0655 0200     		.2byte	0x2
 4491 0657 7D       		.byte	0x7d
 4492 0658 00       		.sleb128 0
 4493 0659 02000000 		.4byte	.LCFI11
 4494 065d 40000000 		.4byte	.LFE18
 4495 0661 0200     		.2byte	0x2
 4496 0663 7D       		.byte	0x7d
 4497 0664 10       		.sleb128 16
 4498 0665 00000000 		.4byte	0
 4499 0669 00000000 		.4byte	0
 4500              	.LLST53:
 4501 066d 00000000 		.4byte	.LVL113
 4502 0671 11000000 		.4byte	.LVL117-1
 4503 0675 0100     		.2byte	0x1
 4504 0677 50       		.byte	0x50
 4505 0678 11000000 		.4byte	.LVL117-1
 4506 067c 40000000 		.4byte	.LFE18
 4507 0680 0100     		.2byte	0x1
 4508 0682 54       		.byte	0x54
 4509 0683 00000000 		.4byte	0
 4510 0687 00000000 		.4byte	0
 4511              	.LLST54:
 4512 068b 0E000000 		.4byte	.LVL116
 4513 068f 11000000 		.4byte	.LVL117-1
 4514 0693 0100     		.2byte	0x1
 4515 0695 53       		.byte	0x53
 4516 0696 00000000 		.4byte	0
 4517 069a 00000000 		.4byte	0
 4518              	.LLST55:
 4519 069e 36000000 		.4byte	.LVL121
 4520 06a2 40000000 		.4byte	.LFE18
 4521 06a6 0100     		.2byte	0x1
 4522 06a8 53       		.byte	0x53
 4523 06a9 00000000 		.4byte	0
 4524 06ad 00000000 		.4byte	0
ARM GAS  /var/folders/dt/0wfd0knj7gs46m8vwfzktm600000gn/T//cchPVIpt.s 			page 81


 4525              	.LLST56:
 4526 06b1 00000000 		.4byte	.LFB19
 4527 06b5 02000000 		.4byte	.LCFI12
 4528 06b9 0200     		.2byte	0x2
 4529 06bb 7D       		.byte	0x7d
 4530 06bc 00       		.sleb128 0
 4531 06bd 02000000 		.4byte	.LCFI12
 4532 06c1 60000000 		.4byte	.LFE19
 4533 06c5 0200     		.2byte	0x2
 4534 06c7 7D       		.byte	0x7d
 4535 06c8 18       		.sleb128 24
 4536 06c9 00000000 		.4byte	0
 4537 06cd 00000000 		.4byte	0
 4538              	.LLST57:
 4539 06d1 00000000 		.4byte	.LVL122
 4540 06d5 13000000 		.4byte	.LVL126-1
 4541 06d9 0100     		.2byte	0x1
 4542 06db 50       		.byte	0x50
 4543 06dc 13000000 		.4byte	.LVL126-1
 4544 06e0 60000000 		.4byte	.LFE19
 4545 06e4 0100     		.2byte	0x1
 4546 06e6 55       		.byte	0x55
 4547 06e7 00000000 		.4byte	0
 4548 06eb 00000000 		.4byte	0
 4549              	.LLST58:
 4550 06ef 00000000 		.4byte	.LVL122
 4551 06f3 13000000 		.4byte	.LVL126-1
 4552 06f7 0100     		.2byte	0x1
 4553 06f9 51       		.byte	0x51
 4554 06fa 13000000 		.4byte	.LVL126-1
 4555 06fe 60000000 		.4byte	.LFE19
 4556 0702 0100     		.2byte	0x1
 4557 0704 57       		.byte	0x57
 4558 0705 00000000 		.4byte	0
 4559 0709 00000000 		.4byte	0
 4560              	.LLST59:
 4561 070d 16000000 		.4byte	.LVL127
 4562 0711 1A000000 		.4byte	.LVL128
 4563 0715 0600     		.2byte	0x6
 4564 0717 75       		.byte	0x75
 4565 0718 00       		.sleb128 0
 4566 0719 73       		.byte	0x73
 4567 071a 00       		.sleb128 0
 4568 071b 1A       		.byte	0x1a
 4569 071c 9F       		.byte	0x9f
 4570 071d 1A000000 		.4byte	.LVL128
 4571 0721 32000000 		.4byte	.LVL130
 4572 0725 0100     		.2byte	0x1
 4573 0727 54       		.byte	0x54
 4574 0728 34000000 		.4byte	.LVL131
 4575 072c 4C000000 		.4byte	.LVL136
 4576 0730 0100     		.2byte	0x1
 4577 0732 54       		.byte	0x54
 4578 0733 00000000 		.4byte	0
 4579 0737 00000000 		.4byte	0
 4580              	.LLST60:
 4581 073b 10000000 		.4byte	.LVL125
ARM GAS  /var/folders/dt/0wfd0knj7gs46m8vwfzktm600000gn/T//cchPVIpt.s 			page 82


 4582 073f 13000000 		.4byte	.LVL126-1
 4583 0743 0100     		.2byte	0x1
 4584 0745 53       		.byte	0x53
 4585 0746 00000000 		.4byte	0
 4586 074a 00000000 		.4byte	0
 4587              	.LLST61:
 4588 074e 48000000 		.4byte	.LVL135
 4589 0752 4C000000 		.4byte	.LVL136
 4590 0756 0100     		.2byte	0x1
 4591 0758 53       		.byte	0x53
 4592 0759 00000000 		.4byte	0
 4593 075d 00000000 		.4byte	0
 4594              	.LLST62:
 4595 0761 56000000 		.4byte	.LVL139
 4596 0765 60000000 		.4byte	.LFE19
 4597 0769 0100     		.2byte	0x1
 4598 076b 53       		.byte	0x53
 4599 076c 00000000 		.4byte	0
 4600 0770 00000000 		.4byte	0
 4601              	.LLST63:
 4602 0774 00000000 		.4byte	.LFB20
 4603 0778 02000000 		.4byte	.LCFI13
 4604 077c 0200     		.2byte	0x2
 4605 077e 7D       		.byte	0x7d
 4606 077f 00       		.sleb128 0
 4607 0780 02000000 		.4byte	.LCFI13
 4608 0784 5C000000 		.4byte	.LFE20
 4609 0788 0200     		.2byte	0x2
 4610 078a 7D       		.byte	0x7d
 4611 078b 18       		.sleb128 24
 4612 078c 00000000 		.4byte	0
 4613 0790 00000000 		.4byte	0
 4614              	.LLST64:
 4615 0794 00000000 		.4byte	.LVL140
 4616 0798 13000000 		.4byte	.LVL144-1
 4617 079c 0100     		.2byte	0x1
 4618 079e 50       		.byte	0x50
 4619 079f 13000000 		.4byte	.LVL144-1
 4620 07a3 5C000000 		.4byte	.LFE20
 4621 07a7 0100     		.2byte	0x1
 4622 07a9 54       		.byte	0x54
 4623 07aa 00000000 		.4byte	0
 4624 07ae 00000000 		.4byte	0
 4625              	.LLST65:
 4626 07b2 00000000 		.4byte	.LVL140
 4627 07b6 13000000 		.4byte	.LVL144-1
 4628 07ba 0100     		.2byte	0x1
 4629 07bc 51       		.byte	0x51
 4630 07bd 13000000 		.4byte	.LVL144-1
 4631 07c1 5C000000 		.4byte	.LFE20
 4632 07c5 0100     		.2byte	0x1
 4633 07c7 57       		.byte	0x57
 4634 07c8 00000000 		.4byte	0
 4635 07cc 00000000 		.4byte	0
 4636              	.LLST66:
 4637 07d0 16000000 		.4byte	.LVL145
 4638 07d4 1A000000 		.4byte	.LVL146
ARM GAS  /var/folders/dt/0wfd0knj7gs46m8vwfzktm600000gn/T//cchPVIpt.s 			page 83


 4639 07d8 0600     		.2byte	0x6
 4640 07da 74       		.byte	0x74
 4641 07db 00       		.sleb128 0
 4642 07dc 72       		.byte	0x72
 4643 07dd 00       		.sleb128 0
 4644 07de 1A       		.byte	0x1a
 4645 07df 9F       		.byte	0x9f
 4646 07e0 1A000000 		.4byte	.LVL146
 4647 07e4 32000000 		.4byte	.LVL148
 4648 07e8 0100     		.2byte	0x1
 4649 07ea 56       		.byte	0x56
 4650 07eb 34000000 		.4byte	.LVL149
 4651 07ef 48000000 		.4byte	.LVL153
 4652 07f3 0100     		.2byte	0x1
 4653 07f5 56       		.byte	0x56
 4654 07f6 00000000 		.4byte	0
 4655 07fa 00000000 		.4byte	0
 4656              	.LLST67:
 4657 07fe 10000000 		.4byte	.LVL143
 4658 0802 13000000 		.4byte	.LVL144-1
 4659 0806 0100     		.2byte	0x1
 4660 0808 53       		.byte	0x53
 4661 0809 00000000 		.4byte	0
 4662 080d 00000000 		.4byte	0
 4663              	.LLST68:
 4664 0811 44000000 		.4byte	.LVL152
 4665 0815 48000000 		.4byte	.LVL153
 4666 0819 0100     		.2byte	0x1
 4667 081b 53       		.byte	0x53
 4668 081c 00000000 		.4byte	0
 4669 0820 00000000 		.4byte	0
 4670              	.LLST69:
 4671 0824 52000000 		.4byte	.LVL156
 4672 0828 5C000000 		.4byte	.LFE20
 4673 082c 0100     		.2byte	0x1
 4674 082e 53       		.byte	0x53
 4675 082f 00000000 		.4byte	0
 4676 0833 00000000 		.4byte	0
 4677              	.LLST70:
 4678 0837 00000000 		.4byte	.LFB21
 4679 083b 04000000 		.4byte	.LCFI14
 4680 083f 0200     		.2byte	0x2
 4681 0841 7D       		.byte	0x7d
 4682 0842 00       		.sleb128 0
 4683 0843 04000000 		.4byte	.LCFI14
 4684 0847 68000000 		.4byte	.LFE21
 4685 084b 0200     		.2byte	0x2
 4686 084d 7D       		.byte	0x7d
 4687 084e 10       		.sleb128 16
 4688 084f 00000000 		.4byte	0
 4689 0853 00000000 		.4byte	0
 4690              	.LLST71:
 4691 0857 00000000 		.4byte	.LVL157
 4692 085b 13000000 		.4byte	.LVL161-1
 4693 085f 0100     		.2byte	0x1
 4694 0861 50       		.byte	0x50
 4695 0862 13000000 		.4byte	.LVL161-1
ARM GAS  /var/folders/dt/0wfd0knj7gs46m8vwfzktm600000gn/T//cchPVIpt.s 			page 84


 4696 0866 40000000 		.4byte	.LVL165
 4697 086a 0100     		.2byte	0x1
 4698 086c 54       		.byte	0x54
 4699 086d 40000000 		.4byte	.LVL165
 4700 0871 44000000 		.4byte	.LVL166
 4701 0875 0400     		.2byte	0x4
 4702 0877 F3       		.byte	0xf3
 4703 0878 01       		.uleb128 0x1
 4704 0879 50       		.byte	0x50
 4705 087a 9F       		.byte	0x9f
 4706 087b 44000000 		.4byte	.LVL166
 4707 087f 50000000 		.4byte	.LVL170
 4708 0883 0100     		.2byte	0x1
 4709 0885 54       		.byte	0x54
 4710 0886 50000000 		.4byte	.LVL170
 4711 088a 54000000 		.4byte	.LVL171
 4712 088e 0400     		.2byte	0x4
 4713 0890 F3       		.byte	0xf3
 4714 0891 01       		.uleb128 0x1
 4715 0892 50       		.byte	0x50
 4716 0893 9F       		.byte	0x9f
 4717 0894 54000000 		.4byte	.LVL171
 4718 0898 60000000 		.4byte	.LVL174
 4719 089c 0100     		.2byte	0x1
 4720 089e 54       		.byte	0x54
 4721 089f 60000000 		.4byte	.LVL174
 4722 08a3 68000000 		.4byte	.LFE21
 4723 08a7 0400     		.2byte	0x4
 4724 08a9 F3       		.byte	0xf3
 4725 08aa 01       		.uleb128 0x1
 4726 08ab 50       		.byte	0x50
 4727 08ac 9F       		.byte	0x9f
 4728 08ad 00000000 		.4byte	0
 4729 08b1 00000000 		.4byte	0
 4730              	.LLST72:
 4731 08b5 00000000 		.4byte	.LVL157
 4732 08b9 13000000 		.4byte	.LVL161-1
 4733 08bd 0100     		.2byte	0x1
 4734 08bf 51       		.byte	0x51
 4735 08c0 13000000 		.4byte	.LVL161-1
 4736 08c4 68000000 		.4byte	.LFE21
 4737 08c8 0100     		.2byte	0x1
 4738 08ca 56       		.byte	0x56
 4739 08cb 00000000 		.4byte	0
 4740 08cf 00000000 		.4byte	0
 4741              	.LLST73:
 4742 08d3 10000000 		.4byte	.LVL160
 4743 08d7 13000000 		.4byte	.LVL161-1
 4744 08db 0100     		.2byte	0x1
 4745 08dd 53       		.byte	0x53
 4746 08de 00000000 		.4byte	0
 4747 08e2 00000000 		.4byte	0
 4748              	.LLST74:
 4749 08e6 40000000 		.4byte	.LVL165
 4750 08ea 44000000 		.4byte	.LVL166
 4751 08ee 0100     		.2byte	0x1
 4752 08f0 53       		.byte	0x53
ARM GAS  /var/folders/dt/0wfd0knj7gs46m8vwfzktm600000gn/T//cchPVIpt.s 			page 85


 4753 08f1 00000000 		.4byte	0
 4754 08f5 00000000 		.4byte	0
 4755              	.LLST75:
 4756 08f9 4E000000 		.4byte	.LVL169
 4757 08fd 54000000 		.4byte	.LVL171
 4758 0901 0100     		.2byte	0x1
 4759 0903 53       		.byte	0x53
 4760 0904 00000000 		.4byte	0
 4761 0908 00000000 		.4byte	0
 4762              	.LLST76:
 4763 090c 40000000 		.4byte	.LVL165
 4764 0910 44000000 		.4byte	.LVL166
 4765 0914 0100     		.2byte	0x1
 4766 0916 53       		.byte	0x53
 4767 0917 5E000000 		.4byte	.LVL173
 4768 091b 68000000 		.4byte	.LFE21
 4769 091f 0100     		.2byte	0x1
 4770 0921 53       		.byte	0x53
 4771 0922 00000000 		.4byte	0
 4772 0926 00000000 		.4byte	0
 4773              		.section	.debug_aranges,"",%progbits
 4774 0000 8C000000 		.4byte	0x8c
 4775 0004 0200     		.2byte	0x2
 4776 0006 00000000 		.4byte	.Ldebug_info0
 4777 000a 04       		.byte	0x4
 4778 000b 00       		.byte	0
 4779 000c 0000     		.2byte	0
 4780 000e 0000     		.2byte	0
 4781 0010 00000000 		.4byte	.LFB7
 4782 0014 44000000 		.4byte	.LFE7-.LFB7
 4783 0018 00000000 		.4byte	.LFB8
 4784 001c 44000000 		.4byte	.LFE8-.LFB8
 4785 0020 00000000 		.4byte	.LFB9
 4786 0024 30000000 		.4byte	.LFE9-.LFB9
 4787 0028 00000000 		.4byte	.LFB10
 4788 002c 2C000000 		.4byte	.LFE10-.LFB10
 4789 0030 00000000 		.4byte	.LFB12
 4790 0034 4C000000 		.4byte	.LFE12-.LFB12
 4791 0038 00000000 		.4byte	.LFB11
 4792 003c 38000000 		.4byte	.LFE11-.LFB11
 4793 0040 00000000 		.4byte	.LFB14
 4794 0044 30000000 		.4byte	.LFE14-.LFB14
 4795 0048 00000000 		.4byte	.LFB13
 4796 004c 28000000 		.4byte	.LFE13-.LFB13
 4797 0050 00000000 		.4byte	.LFB15
 4798 0054 50000000 		.4byte	.LFE15-.LFB15
 4799 0058 00000000 		.4byte	.LFB16
 4800 005c 44000000 		.4byte	.LFE16-.LFB16
 4801 0060 00000000 		.4byte	.LFB17
 4802 0064 40000000 		.4byte	.LFE17-.LFB17
 4803 0068 00000000 		.4byte	.LFB18
 4804 006c 40000000 		.4byte	.LFE18-.LFB18
 4805 0070 00000000 		.4byte	.LFB19
 4806 0074 60000000 		.4byte	.LFE19-.LFB19
 4807 0078 00000000 		.4byte	.LFB20
 4808 007c 5C000000 		.4byte	.LFE20-.LFB20
 4809 0080 00000000 		.4byte	.LFB21
ARM GAS  /var/folders/dt/0wfd0knj7gs46m8vwfzktm600000gn/T//cchPVIpt.s 			page 86


 4810 0084 68000000 		.4byte	.LFE21-.LFB21
 4811 0088 00000000 		.4byte	0
 4812 008c 00000000 		.4byte	0
 4813              		.section	.debug_ranges,"",%progbits
 4814              	.Ldebug_ranges0:
 4815 0000 02000000 		.4byte	.LBB6
 4816 0004 04000000 		.4byte	.LBE6
 4817 0008 06000000 		.4byte	.LBB7
 4818 000c 0A000000 		.4byte	.LBE7
 4819 0010 00000000 		.4byte	0
 4820 0014 00000000 		.4byte	0
 4821 0018 02000000 		.4byte	.LBB9
 4822 001c 04000000 		.4byte	.LBE9
 4823 0020 06000000 		.4byte	.LBB10
 4824 0024 0A000000 		.4byte	.LBE10
 4825 0028 00000000 		.4byte	0
 4826 002c 00000000 		.4byte	0
 4827 0030 00000000 		.4byte	.LFB7
 4828 0034 44000000 		.4byte	.LFE7
 4829 0038 00000000 		.4byte	.LFB8
 4830 003c 44000000 		.4byte	.LFE8
 4831 0040 00000000 		.4byte	.LFB9
 4832 0044 30000000 		.4byte	.LFE9
 4833 0048 00000000 		.4byte	.LFB10
 4834 004c 2C000000 		.4byte	.LFE10
 4835 0050 00000000 		.4byte	.LFB12
 4836 0054 4C000000 		.4byte	.LFE12
 4837 0058 00000000 		.4byte	.LFB11
 4838 005c 38000000 		.4byte	.LFE11
 4839 0060 00000000 		.4byte	.LFB14
 4840 0064 30000000 		.4byte	.LFE14
 4841 0068 00000000 		.4byte	.LFB13
 4842 006c 28000000 		.4byte	.LFE13
 4843 0070 00000000 		.4byte	.LFB15
 4844 0074 50000000 		.4byte	.LFE15
 4845 0078 00000000 		.4byte	.LFB16
 4846 007c 44000000 		.4byte	.LFE16
 4847 0080 00000000 		.4byte	.LFB17
 4848 0084 40000000 		.4byte	.LFE17
 4849 0088 00000000 		.4byte	.LFB18
 4850 008c 40000000 		.4byte	.LFE18
 4851 0090 00000000 		.4byte	.LFB19
 4852 0094 60000000 		.4byte	.LFE19
 4853 0098 00000000 		.4byte	.LFB20
 4854 009c 5C000000 		.4byte	.LFE20
 4855 00a0 00000000 		.4byte	.LFB21
 4856 00a4 68000000 		.4byte	.LFE21
 4857 00a8 00000000 		.4byte	0
 4858 00ac 00000000 		.4byte	0
 4859              		.section	.debug_line,"",%progbits
 4860              	.Ldebug_line0:
 4861 0000 3B030000 		.section	.debug_str,"MS",%progbits,1
 4861      02005101 
 4861      00000201 
 4861      FB0E0D00 
 4861      01010101 
 4862              	.LASF37:
ARM GAS  /var/folders/dt/0wfd0knj7gs46m8vwfzktm600000gn/T//cchPVIpt.s 			page 87


 4863 0000 705F6D73 		.ascii	"p_msg\000"
 4863      6700
 4864              	.LASF91:
 4865 0006 63684462 		.ascii	"chDbgPanic\000"
 4865      6750616E 
 4865      696300
 4866              	.LASF68:
 4867 0011 7264796D 		.ascii	"rdymsg\000"
 4867      736700
 4868              	.LASF11:
 4869 0018 75696E74 		.ascii	"uint64_t\000"
 4869      36345F74 
 4869      00
 4870              	.LASF12:
 4871 0021 6C6F6E67 		.ascii	"long long unsigned int\000"
 4871      206C6F6E 
 4871      6720756E 
 4871      7369676E 
 4871      65642069 
 4872              	.LASF69:
 4873 0038 65786974 		.ascii	"exitcode\000"
 4873      636F6465 
 4873      00
 4874              	.LASF90:
 4875 0041 63684576 		.ascii	"chEvtSignalFlagsI\000"
 4875      74536967 
 4875      6E616C46 
 4875      6C616773 
 4875      4900
 4876              	.LASF88:
 4877 0053 63684576 		.ascii	"chEvtWaitAnyTimeout\000"
 4877      74576169 
 4877      74416E79 
 4877      54696D65 
 4877      6F757400 
 4878              	.LASF25:
 4879 0067 705F7072 		.ascii	"p_prio\000"
 4879      696F00
 4880              	.LASF10:
 4881 006e 6C6F6E67 		.ascii	"long long int\000"
 4881      206C6F6E 
 4881      6720696E 
 4881      7400
 4882              	.LASF1:
 4883 007c 7369676E 		.ascii	"signed char\000"
 4883      65642063 
 4883      68617200 
 4884              	.LASF89:
 4885 0088 63684576 		.ascii	"chEvtWaitAllTimeout\000"
 4885      74576169 
 4885      74416C6C 
 4885      54696D65 
 4885      6F757400 
 4886              	.LASF41:
 4887 009c 705F6D70 		.ascii	"p_mpool\000"
 4887      6F6F6C00 
 4888              	.LASF58:
ARM GAS  /var/folders/dt/0wfd0knj7gs46m8vwfzktm600000gn/T//cchPVIpt.s 			page 88


 4889 00a4 6D5F7175 		.ascii	"m_queue\000"
 4889      65756500 
 4890              	.LASF77:
 4891 00ac 63684576 		.ascii	"chEvtAddFlags\000"
 4891      74416464 
 4891      466C6167 
 4891      7300
 4892              	.LASF7:
 4893 00ba 6C6F6E67 		.ascii	"long int\000"
 4893      20696E74 
 4893      00
 4894              	.LASF14:
 4895 00c3 74737461 		.ascii	"tstate_t\000"
 4895      74655F74 
 4895      00
 4896              	.LASF85:
 4897 00cc 63684576 		.ascii	"chEvtWaitAll\000"
 4897      74576169 
 4897      74416C6C 
 4897      00
 4898              	.LASF84:
 4899 00d9 63684576 		.ascii	"chEvtWaitAny\000"
 4899      74576169 
 4899      74416E79 
 4899      00
 4900              	.LASF79:
 4901 00e6 63684576 		.ascii	"chEvtBroadcastFlagsI\000"
 4901      7442726F 
 4901      61646361 
 4901      7374466C 
 4901      61677349 
 4902              	.LASF27:
 4903 00fb 705F6E65 		.ascii	"p_newer\000"
 4903      77657200 
 4904              	.LASF95:
 4905 0103 63685363 		.ascii	"chSchRescheduleS\000"
 4905      68526573 
 4905      63686564 
 4905      756C6553 
 4905      00
 4906              	.LASF52:
 4907 0114 725F6E65 		.ascii	"r_newer\000"
 4907      77657200 
 4908              	.LASF73:
 4909 011c 6D61736B 		.ascii	"mask\000"
 4909      00
 4910              	.LASF44:
 4911 0121 72656761 		.ascii	"regarm_t\000"
 4911      726D5F74 
 4911      00
 4912              	.LASF80:
 4913 012a 63684576 		.ascii	"chEvtBroadcastFlags\000"
 4913      7442726F 
 4913      61646361 
 4913      7374466C 
 4913      61677300 
 4914              	.LASF18:
ARM GAS  /var/folders/dt/0wfd0knj7gs46m8vwfzktm600000gn/T//cchPVIpt.s 			page 89


 4915 013e 6576656E 		.ascii	"eventid_t\000"
 4915      7469645F 
 4915      7400
 4916              	.LASF65:
 4917 0148 4576656E 		.ascii	"EventSource\000"
 4917      74536F75 
 4917      72636500 
 4918              	.LASF67:
 4919 0154 65766861 		.ascii	"evhandler_t\000"
 4919      6E646C65 
 4919      725F7400 
 4920              	.LASF21:
 4921 0160 636E745F 		.ascii	"cnt_t\000"
 4921      7400
 4922              	.LASF78:
 4923 0166 63684576 		.ascii	"chEvtSignalFlags\000"
 4923      74536967 
 4923      6E616C46 
 4923      6C616773 
 4923      00
 4924              	.LASF30:
 4925 0177 705F7374 		.ascii	"p_stklimit\000"
 4925      6B6C696D 
 4925      697400
 4926              	.LASF0:
 4927 0182 756E7369 		.ascii	"unsigned int\000"
 4927      676E6564 
 4927      20696E74 
 4927      00
 4928              	.LASF9:
 4929 018f 6C6F6E67 		.ascii	"long unsigned int\000"
 4929      20756E73 
 4929      69676E65 
 4929      6420696E 
 4929      7400
 4930              	.LASF47:
 4931 01a1 636F6E74 		.ascii	"context\000"
 4931      65787400 
 4932              	.LASF4:
 4933 01a9 73686F72 		.ascii	"short unsigned int\000"
 4933      7420756E 
 4933      7369676E 
 4933      65642069 
 4933      6E7400
 4934              	.LASF74:
 4935 01bc 63684576 		.ascii	"chEvtRegisterMask\000"
 4935      74526567 
 4935      69737465 
 4935      724D6173 
 4935      6B00
 4936              	.LASF17:
 4937 01ce 6D73675F 		.ascii	"msg_t\000"
 4937      7400
 4938              	.LASF62:
 4939 01d4 656C5F6E 		.ascii	"el_next\000"
 4939      65787400 
 4940              	.LASF75:
ARM GAS  /var/folders/dt/0wfd0knj7gs46m8vwfzktm600000gn/T//cchPVIpt.s 			page 90


 4941 01dc 63684576 		.ascii	"chEvtUnregister\000"
 4941      74556E72 
 4941      65676973 
 4941      74657200 
 4942              	.LASF13:
 4943 01ec 746D6F64 		.ascii	"tmode_t\000"
 4943      655F7400 
 4944              	.LASF43:
 4945 01f4 54687265 		.ascii	"ThreadsList\000"
 4945      6164734C 
 4945      69737400 
 4946              	.LASF19:
 4947 0200 6576656E 		.ascii	"eventmask_t\000"
 4947      746D6173 
 4947      6B5F7400 
 4948              	.LASF57:
 4949 020c 4D757465 		.ascii	"Mutex\000"
 4949      7800
 4950              	.LASF45:
 4951 0212 73746B61 		.ascii	"stkalign_t\000"
 4951      6C69676E 
 4951      5F7400
 4952              	.LASF93:
 4953 021d 6462675F 		.ascii	"dbg_check_unlock\000"
 4953      63686563 
 4953      6B5F756E 
 4953      6C6F636B 
 4953      00
 4954              	.LASF48:
 4955 022e 73697A65 		.ascii	"sizetype\000"
 4955      74797065 
 4955      00
 4956              	.LASF81:
 4957 0237 63684576 		.ascii	"chEvtDispatch\000"
 4957      74446973 
 4957      70617463 
 4957      6800
 4958              	.LASF28:
 4959 0245 705F6F6C 		.ascii	"p_older\000"
 4959      64657200 
 4960              	.LASF51:
 4961 024d 725F6374 		.ascii	"r_ctx\000"
 4961      7800
 4962              	.LASF42:
 4963 0253 54687265 		.ascii	"ThreadsQueue\000"
 4963      61647351 
 4963      75657565 
 4963      00
 4964              	.LASF87:
 4965 0260 74696D65 		.ascii	"time\000"
 4965      00
 4966              	.LASF98:
 4967 0265 474E5520 		.ascii	"GNU C 4.7.2\000"
 4967      4320342E 
 4967      372E3200 
 4968              	.LASF55:
 4969 0271 725F6375 		.ascii	"r_current\000"
ARM GAS  /var/folders/dt/0wfd0knj7gs46m8vwfzktm600000gn/T//cchPVIpt.s 			page 91


 4969      7272656E 
 4969      7400
 4970              	.LASF53:
 4971 027b 725F6F6C 		.ascii	"r_older\000"
 4971      64657200 
 4972              	.LASF64:
 4973 0283 656C5F6D 		.ascii	"el_mask\000"
 4973      61736B00 
 4974              	.LASF82:
 4975 028b 68616E64 		.ascii	"handlers\000"
 4975      6C657273 
 4975      00
 4976              	.LASF15:
 4977 0294 74726566 		.ascii	"trefs_t\000"
 4977      735F7400 
 4978              	.LASF24:
 4979 029c 705F7072 		.ascii	"p_prev\000"
 4979      657600
 4980              	.LASF16:
 4981 02a3 74707269 		.ascii	"tprio_t\000"
 4981      6F5F7400 
 4982              	.LASF76:
 4983 02ab 63684576 		.ascii	"chEvtClearFlags\000"
 4983      74436C65 
 4983      6172466C 
 4983      61677300 
 4984              	.LASF6:
 4985 02bb 696E7433 		.ascii	"int32_t\000"
 4985      325F7400 
 4986              	.LASF2:
 4987 02c3 756E7369 		.ascii	"unsigned char\000"
 4987      676E6564 
 4987      20636861 
 4987      7200
 4988              	.LASF83:
 4989 02d1 63684576 		.ascii	"chEvtWaitOne\000"
 4989      74576169 
 4989      744F6E65 
 4989      00
 4990              	.LASF63:
 4991 02de 656C5F6C 		.ascii	"el_listener\000"
 4991      69737465 
 4991      6E657200 
 4992              	.LASF39:
 4993 02ea 705F6D74 		.ascii	"p_mtxlist\000"
 4993      786C6973 
 4993      7400
 4994              	.LASF3:
 4995 02f4 73686F72 		.ascii	"short int\000"
 4995      7420696E 
 4995      7400
 4996              	.LASF31:
 4997 02fe 705F7374 		.ascii	"p_state\000"
 4997      61746500 
 4998              	.LASF50:
 4999 0306 725F7072 		.ascii	"r_prio\000"
 4999      696F00
ARM GAS  /var/folders/dt/0wfd0knj7gs46m8vwfzktm600000gn/T//cchPVIpt.s 			page 92


 5000              	.LASF71:
 5001 030d 65776D61 		.ascii	"ewmask\000"
 5001      736B00
 5002              	.LASF23:
 5003 0314 705F6E65 		.ascii	"p_next\000"
 5003      787400
 5004              	.LASF32:
 5005 031b 705F666C 		.ascii	"p_flags\000"
 5005      61677300 
 5006              	.LASF22:
 5007 0323 54687265 		.ascii	"Thread\000"
 5007      616400
 5008              	.LASF96:
 5009 032a 63685363 		.ascii	"chSchGoSleepS\000"
 5009      68476F53 
 5009      6C656570 
 5009      5300
 5010              	.LASF38:
 5011 0338 705F6570 		.ascii	"p_epending\000"
 5011      656E6469 
 5011      6E6700
 5012              	.LASF8:
 5013 0343 75696E74 		.ascii	"uint32_t\000"
 5013      33325F74 
 5013      00
 5014              	.LASF49:
 5015 034c 725F7175 		.ascii	"r_queue\000"
 5015      65756500 
 5016              	.LASF102:
 5017 0354 63685363 		.ascii	"chSchReadyI\000"
 5017      68526561 
 5017      64794900 
 5018              	.LASF72:
 5019 0360 63686172 		.ascii	"char\000"
 5019      00
 5020              	.LASF60:
 5021 0365 6D5F6E65 		.ascii	"m_next\000"
 5021      787400
 5022              	.LASF20:
 5023 036c 73797374 		.ascii	"systime_t\000"
 5023      696D655F 
 5023      7400
 5024              	.LASF40:
 5025 0376 705F7265 		.ascii	"p_realprio\000"
 5025      616C7072 
 5025      696F00
 5026              	.LASF100:
 5027 0381 2F746D70 		.ascii	"/tmp/mlab-chibios/demos/STM32F107-serialshell\000"
 5027      2F6D6C61 
 5027      622D6368 
 5027      6962696F 
 5027      732F6465 
 5028              	.LASF34:
 5029 03af 705F7469 		.ascii	"p_time\000"
 5029      6D6500
 5030              	.LASF46:
 5031 03b6 696E7463 		.ascii	"intctx\000"
ARM GAS  /var/folders/dt/0wfd0knj7gs46m8vwfzktm600000gn/T//cchPVIpt.s 			page 93


 5031      747800
 5032              	.LASF36:
 5033 03bd 705F6D73 		.ascii	"p_msgqueue\000"
 5033      67717565 
 5033      756500
 5034              	.LASF33:
 5035 03c8 705F7265 		.ascii	"p_refs\000"
 5035      667300
 5036              	.LASF56:
 5037 03cf 52656164 		.ascii	"ReadyList\000"
 5037      794C6973 
 5037      7400
 5038              	.LASF101:
 5039 03d9 726C6973 		.ascii	"rlist\000"
 5039      7400
 5040              	.LASF5:
 5041 03df 75696E74 		.ascii	"uint8_t\000"
 5041      385F7400 
 5042              	.LASF99:
 5043 03e7 2E2E2F2E 		.ascii	"../../os/kernel/src/chevents.c\000"
 5043      2E2F6F73 
 5043      2F6B6572 
 5043      6E656C2F 
 5043      7372632F 
 5044              	.LASF61:
 5045 0406 4576656E 		.ascii	"EventListener\000"
 5045      744C6973 
 5045      74656E65 
 5045      7200
 5046              	.LASF86:
 5047 0414 63684576 		.ascii	"chEvtWaitOneTimeout\000"
 5047      74576169 
 5047      744F6E65 
 5047      54696D65 
 5047      6F757400 
 5048              	.LASF70:
 5049 0428 77746F62 		.ascii	"wtobjp\000"
 5049      6A7000
 5050              	.LASF29:
 5051 042f 705F6E61 		.ascii	"p_name\000"
 5051      6D6500
 5052              	.LASF66:
 5053 0436 65735F6E 		.ascii	"es_next\000"
 5053      65787400 
 5054              	.LASF97:
 5055 043e 63685363 		.ascii	"chSchGoSleepTimeoutS\000"
 5055      68476F53 
 5055      6C656570 
 5055      54696D65 
 5055      6F757453 
 5056              	.LASF94:
 5057 0453 63684462 		.ascii	"chDbgCheckClassI\000"
 5057      67436865 
 5057      636B436C 
 5057      61737349 
 5057      00
 5058              	.LASF54:
ARM GAS  /var/folders/dt/0wfd0knj7gs46m8vwfzktm600000gn/T//cchPVIpt.s 			page 94


 5059 0464 725F7072 		.ascii	"r_preempt\000"
 5059      65656D70 
 5059      7400
 5060              	.LASF59:
 5061 046e 6D5F6F77 		.ascii	"m_owner\000"
 5061      6E657200 
 5062              	.LASF92:
 5063 0476 6462675F 		.ascii	"dbg_check_lock\000"
 5063      63686563 
 5063      6B5F6C6F 
 5063      636B00
 5064              	.LASF26:
 5065 0485 705F6374 		.ascii	"p_ctx\000"
 5065      7800
 5066              	.LASF35:
 5067 048b 705F7761 		.ascii	"p_waiting\000"
 5067      6974696E 
 5067      6700
 5068              		.ident	"GCC: (GNU) 4.7.2"
ARM GAS  /var/folders/dt/0wfd0knj7gs46m8vwfzktm600000gn/T//cchPVIpt.s 			page 95


DEFINED SYMBOLS
                            *ABS*:0000000000000000 chevents.c
/var/folders/dt/0wfd0knj7gs46m8vwfzktm600000gn/T//cchPVIpt.s:19     .text.chEvtRegisterMask:0000000000000000 $t
/var/folders/dt/0wfd0knj7gs46m8vwfzktm600000gn/T//cchPVIpt.s:25     .text.chEvtRegisterMask:0000000000000000 chEvtRegisterMask
/var/folders/dt/0wfd0knj7gs46m8vwfzktm600000gn/T//cchPVIpt.s:99     .text.chEvtRegisterMask:000000000000003c $d
/var/folders/dt/0wfd0knj7gs46m8vwfzktm600000gn/T//cchPVIpt.s:106    .text.chEvtUnregister:0000000000000000 $t
/var/folders/dt/0wfd0knj7gs46m8vwfzktm600000gn/T//cchPVIpt.s:112    .text.chEvtUnregister:0000000000000000 chEvtUnregister
/var/folders/dt/0wfd0knj7gs46m8vwfzktm600000gn/T//cchPVIpt.s:193    .text.chEvtUnregister:0000000000000040 $d
/var/folders/dt/0wfd0knj7gs46m8vwfzktm600000gn/T//cchPVIpt.s:198    .text.chEvtClearFlags:0000000000000000 $t
/var/folders/dt/0wfd0knj7gs46m8vwfzktm600000gn/T//cchPVIpt.s:204    .text.chEvtClearFlags:0000000000000000 chEvtClearFlags
/var/folders/dt/0wfd0knj7gs46m8vwfzktm600000gn/T//cchPVIpt.s:263    .text.chEvtAddFlags:0000000000000000 $t
/var/folders/dt/0wfd0knj7gs46m8vwfzktm600000gn/T//cchPVIpt.s:269    .text.chEvtAddFlags:0000000000000000 chEvtAddFlags
/var/folders/dt/0wfd0knj7gs46m8vwfzktm600000gn/T//cchPVIpt.s:326    .text.chEvtSignalFlagsI:0000000000000000 $t
/var/folders/dt/0wfd0knj7gs46m8vwfzktm600000gn/T//cchPVIpt.s:332    .text.chEvtSignalFlagsI:0000000000000000 chEvtSignalFlagsI
/var/folders/dt/0wfd0knj7gs46m8vwfzktm600000gn/T//cchPVIpt.s:409    .text.chEvtSignalFlagsI:0000000000000048 $d
/var/folders/dt/0wfd0knj7gs46m8vwfzktm600000gn/T//cchPVIpt.s:414    .text.chEvtSignalFlags:0000000000000000 $t
/var/folders/dt/0wfd0knj7gs46m8vwfzktm600000gn/T//cchPVIpt.s:420    .text.chEvtSignalFlags:0000000000000000 chEvtSignalFlags
/var/folders/dt/0wfd0knj7gs46m8vwfzktm600000gn/T//cchPVIpt.s:486    .text.chEvtSignalFlags:0000000000000034 $d
/var/folders/dt/0wfd0knj7gs46m8vwfzktm600000gn/T//cchPVIpt.s:491    .text.chEvtBroadcastFlagsI:0000000000000000 $t
/var/folders/dt/0wfd0knj7gs46m8vwfzktm600000gn/T//cchPVIpt.s:497    .text.chEvtBroadcastFlagsI:0000000000000000 chEvtBroadcastFlagsI
/var/folders/dt/0wfd0knj7gs46m8vwfzktm600000gn/T//cchPVIpt.s:551    .text.chEvtBroadcastFlagsI:000000000000002c $d
/var/folders/dt/0wfd0knj7gs46m8vwfzktm600000gn/T//cchPVIpt.s:556    .text.chEvtBroadcastFlags:0000000000000000 $t
/var/folders/dt/0wfd0knj7gs46m8vwfzktm600000gn/T//cchPVIpt.s:562    .text.chEvtBroadcastFlags:0000000000000000 chEvtBroadcastFlags
/var/folders/dt/0wfd0knj7gs46m8vwfzktm600000gn/T//cchPVIpt.s:616    .text.chEvtDispatch:0000000000000000 $t
/var/folders/dt/0wfd0knj7gs46m8vwfzktm600000gn/T//cchPVIpt.s:622    .text.chEvtDispatch:0000000000000000 chEvtDispatch
/var/folders/dt/0wfd0knj7gs46m8vwfzktm600000gn/T//cchPVIpt.s:700    .text.chEvtDispatch:0000000000000048 $d
/var/folders/dt/0wfd0knj7gs46m8vwfzktm600000gn/T//cchPVIpt.s:706    .text.chEvtWaitOne:0000000000000000 $t
/var/folders/dt/0wfd0knj7gs46m8vwfzktm600000gn/T//cchPVIpt.s:712    .text.chEvtWaitOne:0000000000000000 chEvtWaitOne
/var/folders/dt/0wfd0knj7gs46m8vwfzktm600000gn/T//cchPVIpt.s:788    .text.chEvtWaitOne:0000000000000040 $d
/var/folders/dt/0wfd0knj7gs46m8vwfzktm600000gn/T//cchPVIpt.s:793    .text.chEvtWaitAny:0000000000000000 $t
/var/folders/dt/0wfd0knj7gs46m8vwfzktm600000gn/T//cchPVIpt.s:799    .text.chEvtWaitAny:0000000000000000 chEvtWaitAny
/var/folders/dt/0wfd0knj7gs46m8vwfzktm600000gn/T//cchPVIpt.s:871    .text.chEvtWaitAny:000000000000003c $d
/var/folders/dt/0wfd0knj7gs46m8vwfzktm600000gn/T//cchPVIpt.s:876    .text.chEvtWaitAll:0000000000000000 $t
/var/folders/dt/0wfd0knj7gs46m8vwfzktm600000gn/T//cchPVIpt.s:882    .text.chEvtWaitAll:0000000000000000 chEvtWaitAll
/var/folders/dt/0wfd0knj7gs46m8vwfzktm600000gn/T//cchPVIpt.s:949    .text.chEvtWaitAll:000000000000003c $d
/var/folders/dt/0wfd0knj7gs46m8vwfzktm600000gn/T//cchPVIpt.s:954    .text.chEvtWaitOneTimeout:0000000000000000 $t
/var/folders/dt/0wfd0knj7gs46m8vwfzktm600000gn/T//cchPVIpt.s:960    .text.chEvtWaitOneTimeout:0000000000000000 chEvtWaitOneTimeout
/var/folders/dt/0wfd0knj7gs46m8vwfzktm600000gn/T//cchPVIpt.s:1065   .text.chEvtWaitOneTimeout:000000000000005c $d
/var/folders/dt/0wfd0knj7gs46m8vwfzktm600000gn/T//cchPVIpt.s:1070   .text.chEvtWaitAnyTimeout:0000000000000000 $t
/var/folders/dt/0wfd0knj7gs46m8vwfzktm600000gn/T//cchPVIpt.s:1076   .text.chEvtWaitAnyTimeout:0000000000000000 chEvtWaitAnyTimeout
/var/folders/dt/0wfd0knj7gs46m8vwfzktm600000gn/T//cchPVIpt.s:1177   .text.chEvtWaitAnyTimeout:0000000000000058 $d
/var/folders/dt/0wfd0knj7gs46m8vwfzktm600000gn/T//cchPVIpt.s:1182   .text.chEvtWaitAllTimeout:0000000000000000 $t
/var/folders/dt/0wfd0knj7gs46m8vwfzktm600000gn/T//cchPVIpt.s:1188   .text.chEvtWaitAllTimeout:0000000000000000 chEvtWaitAllTimeout
/var/folders/dt/0wfd0knj7gs46m8vwfzktm600000gn/T//cchPVIpt.s:1301   .text.chEvtWaitAllTimeout:0000000000000064 $d
/var/folders/dt/0wfd0knj7gs46m8vwfzktm600000gn/T//cchPVIpt.s:1306   .rodata.str1.4:0000000000000000 $d
                     .debug_frame:0000000000000010 $d
/var/folders/dt/0wfd0knj7gs46m8vwfzktm600000gn/T//cchPVIpt.s:105    .text.chEvtRegisterMask:0000000000000044 $t
/var/folders/dt/0wfd0knj7gs46m8vwfzktm600000gn/T//cchPVIpt.s:197    .text.chEvtUnregister:0000000000000044 $t
/var/folders/dt/0wfd0knj7gs46m8vwfzktm600000gn/T//cchPVIpt.s:413    .text.chEvtSignalFlagsI:000000000000004c $t
/var/folders/dt/0wfd0knj7gs46m8vwfzktm600000gn/T//cchPVIpt.s:490    .text.chEvtSignalFlags:0000000000000038 $t
/var/folders/dt/0wfd0knj7gs46m8vwfzktm600000gn/T//cchPVIpt.s:792    .text.chEvtWaitOne:0000000000000044 $t
/var/folders/dt/0wfd0knj7gs46m8vwfzktm600000gn/T//cchPVIpt.s:1181   .text.chEvtWaitAnyTimeout:000000000000005c $t
/var/folders/dt/0wfd0knj7gs46m8vwfzktm600000gn/T//cchPVIpt.s:1305   .text.chEvtWaitAllTimeout:0000000000000068 $t

UNDEFINED SYMBOLS
chDbgPanic
dbg_check_lock
ARM GAS  /var/folders/dt/0wfd0knj7gs46m8vwfzktm600000gn/T//cchPVIpt.s 			page 96


dbg_check_unlock
rlist
chDbgCheckClassI
chSchReadyI
chSchRescheduleS
chSchGoSleepS
chSchGoSleepTimeoutS
