ARM GAS  /var/folders/dt/0wfd0knj7gs46m8vwfzktm600000gn/T//ccOjTrsk.s 			page 1


   1              		.syntax unified
   2              		.cpu cortex-m3
   3              		.fpu softvfp
   4              		.eabi_attribute 20, 1
   5              		.eabi_attribute 21, 1
   6              		.eabi_attribute 23, 3
   7              		.eabi_attribute 24, 1
   8              		.eabi_attribute 25, 1
   9              		.eabi_attribute 26, 1
  10              		.eabi_attribute 30, 2
  11              		.eabi_attribute 34, 1
  12              		.eabi_attribute 18, 4
  13              		.thumb
  14              		.file	"chmempools.c"
  15              		.text
  16              	.Ltext0:
  17              		.cfi_sections	.debug_frame
  18              		.section	.text.chPoolInit,"ax",%progbits
  19              		.align	2
  20              		.p2align 4,,15
  21              		.global	chPoolInit
  22              		.thumb
  23              		.thumb_func
  24              		.type	chPoolInit, %function
  25              	chPoolInit:
  26              	.LFB7:
  27              		.file 1 "../../os/kernel/src/chmempools.c"
  28              		.loc 1 61 0
  29              		.cfi_startproc
  30              		@ args = 0, pretend = 0, frame = 0
  31              		@ frame_needed = 0, uses_anonymous_args = 0
  32              	.LVL0:
  33              		.loc 1 63 0
  34 0000 0028     		cmp	r0, #0
  35 0002 18BF     		it	ne
  36 0004 0329     		cmpne	r1, #3
  37              		.loc 1 61 0
  38 0006 70B5     		push	{r4, r5, r6, lr}
  39              	.LCFI0:
  40              		.cfi_def_cfa_offset 16
  41              		.cfi_offset 4, -16
  42              		.cfi_offset 5, -12
  43              		.cfi_offset 6, -8
  44              		.cfi_offset 14, -4
  45              		.loc 1 61 0
  46 0008 0D46     		mov	r5, r1
  47              		.loc 1 63 0
  48 000a 0446     		mov	r4, r0
  49              		.loc 1 61 0
  50 000c 1646     		mov	r6, r2
  51              		.loc 1 63 0
  52 000e 02D8     		bhi	.L2
  53              		.loc 1 63 0 is_stmt 0 discriminator 1
  54 0010 0448     		ldr	r0, .L7
  55              	.LVL1:
  56 0012 FFF7FEFF 		bl	chDbgPanic
  57              	.LVL2:
ARM GAS  /var/folders/dt/0wfd0knj7gs46m8vwfzktm600000gn/T//ccOjTrsk.s 			page 2


  58              	.L2:
  59              		.loc 1 66 0 is_stmt 1
  60 0016 0735     		adds	r5, r5, #7
  61              	.LVL3:
  62 0018 25F00705 		bic	r5, r5, #7
  63              	.LVL4:
  64              		.loc 1 65 0
  65 001c 0023     		movs	r3, #0
  66              		.loc 1 67 0
  67 001e 84E86800 		stmia	r4, {r3, r5, r6}
  68 0022 70BD     		pop	{r4, r5, r6, pc}
  69              	.L8:
  70              		.align	2
  71              	.L7:
  72 0024 00000000 		.word	.LC0
  73              		.cfi_endproc
  74              	.LFE7:
  75              		.size	chPoolInit, .-chPoolInit
  76 0028 AFF30080 		.section	.text.chPoolAllocI,"ax",%progbits
  76      AFF30080 
  77              		.align	2
  78              		.p2align 4,,15
  79              		.global	chPoolAllocI
  80              		.thumb
  81              		.thumb_func
  82              		.type	chPoolAllocI, %function
  83              	chPoolAllocI:
  84              	.LFB8:
  85              		.loc 1 79 0
  86              		.cfi_startproc
  87              		@ args = 0, pretend = 0, frame = 0
  88              		@ frame_needed = 0, uses_anonymous_args = 0
  89              	.LVL5:
  90 0000 10B5     		push	{r4, lr}
  91              	.LCFI1:
  92              		.cfi_def_cfa_offset 8
  93              		.cfi_offset 4, -8
  94              		.cfi_offset 14, -4
  95              		.loc 1 79 0
  96 0002 0446     		mov	r4, r0
  97              		.loc 1 82 0
  98 0004 FFF7FEFF 		bl	chDbgCheckClassI
  99              	.LVL6:
 100              		.loc 1 83 0
 101 0008 4CB1     		cbz	r4, .L16
 102              	.L10:
 103              		.loc 1 85 0
 104 000a 2068     		ldr	r0, [r4, #0]
 105              	.LVL7:
 106 000c 10B1     		cbz	r0, .L11
 107              		.loc 1 86 0
 108 000e 0368     		ldr	r3, [r0, #0]
 109 0010 2360     		str	r3, [r4, #0]
 110 0012 10BD     		pop	{r4, pc}
 111              	.L11:
 112              		.loc 1 87 0
 113 0014 A368     		ldr	r3, [r4, #8]
ARM GAS  /var/folders/dt/0wfd0knj7gs46m8vwfzktm600000gn/T//ccOjTrsk.s 			page 3


 114 0016 0BB1     		cbz	r3, .L12
 115              		.loc 1 88 0
 116 0018 6068     		ldr	r0, [r4, #4]
 117              	.LVL8:
 118 001a 9847     		blx	r3
 119              	.LVL9:
 120              	.L12:
 121              		.loc 1 90 0
 122 001c 10BD     		pop	{r4, pc}
 123              	.LVL10:
 124              	.L16:
 125              		.loc 1 83 0 discriminator 1
 126 001e 0248     		ldr	r0, .L17
 127 0020 FFF7FEFF 		bl	chDbgPanic
 128              	.LVL11:
 129 0024 F1E7     		b	.L10
 130              	.L18:
 131 0026 00BF     		.align	2
 132              	.L17:
 133 0028 10000000 		.word	.LC1
 134              		.cfi_endproc
 135              	.LFE8:
 136              		.size	chPoolAllocI, .-chPoolAllocI
 137 002c AFF30080 		.section	.text.chPoolAlloc,"ax",%progbits
 138              		.align	2
 139              		.p2align 4,,15
 140              		.global	chPoolAlloc
 141              		.thumb
 142              		.thumb_func
 143              		.type	chPoolAlloc, %function
 144              	chPoolAlloc:
 145              	.LFB9:
 146              		.loc 1 101 0
 147              		.cfi_startproc
 148              		@ args = 0, pretend = 0, frame = 0
 149              		@ frame_needed = 0, uses_anonymous_args = 0
 150              	.LVL12:
 151 0000 10B5     		push	{r4, lr}
 152              	.LCFI2:
 153              		.cfi_def_cfa_offset 8
 154              		.cfi_offset 4, -8
 155              		.cfi_offset 14, -4
 156              	.LBB2:
 157              		.loc 1 104 0
 158 0002 2023     		movs	r3, #32
 159              	.LVL13:
 160              	.LBE2:
 161              		.loc 1 101 0
 162 0004 0446     		mov	r4, r0
 163              	.LBB3:
 164              		.loc 1 104 0
 165              	@ 104 "../../os/kernel/src/chmempools.c" 1
 166 0006 83F31188 		msr     BASEPRI, r3
 167              	@ 0 "" 2
 168              	.LVL14:
 169              		.thumb
 170              	.LBE3:
ARM GAS  /var/folders/dt/0wfd0knj7gs46m8vwfzktm600000gn/T//ccOjTrsk.s 			page 4


 171 000a FFF7FEFF 		bl	dbg_check_lock
 172              	.LVL15:
 173              		.loc 1 105 0
 174 000e 2046     		mov	r0, r4
 175 0010 FFF7FEFF 		bl	chPoolAllocI
 176              	.LVL16:
 177 0014 0446     		mov	r4, r0
 178              	.LVL17:
 179              		.loc 1 106 0
 180 0016 FFF7FEFF 		bl	dbg_check_unlock
 181              	.LVL18:
 182              	.LBB4:
 183 001a 0023     		movs	r3, #0
 184              	.LVL19:
 185              	@ 106 "../../os/kernel/src/chmempools.c" 1
 186 001c 83F31188 		msr     BASEPRI, r3
 187              	@ 0 "" 2
 188              	.LVL20:
 189              		.thumb
 190              	.LBE4:
 191              		.loc 1 108 0
 192 0020 2046     		mov	r0, r4
 193 0022 10BD     		pop	{r4, pc}
 194              		.cfi_endproc
 195              	.LFE9:
 196              		.size	chPoolAlloc, .-chPoolAlloc
 197 0024 AFF30080 		.section	.text.chPoolFreeI,"ax",%progbits
 197      AFF30080 
 197      AFF30080 
 198              		.align	2
 199              		.p2align 4,,15
 200              		.global	chPoolFreeI
 201              		.thumb
 202              		.thumb_func
 203              		.type	chPoolFreeI, %function
 204              	chPoolFreeI:
 205              	.LFB10:
 206              		.loc 1 122 0
 207              		.cfi_startproc
 208              		@ args = 0, pretend = 0, frame = 0
 209              		@ frame_needed = 0, uses_anonymous_args = 0
 210              	.LVL21:
 211 0000 38B5     		push	{r3, r4, r5, lr}
 212              	.LCFI3:
 213              		.cfi_def_cfa_offset 16
 214              		.cfi_offset 3, -16
 215              		.cfi_offset 4, -12
 216              		.cfi_offset 5, -8
 217              		.cfi_offset 14, -4
 218              		.loc 1 122 0
 219 0002 0546     		mov	r5, r0
 220 0004 0C46     		mov	r4, r1
 221              	.LVL22:
 222              		.loc 1 125 0
 223 0006 FFF7FEFF 		bl	chDbgCheckClassI
 224              	.LVL23:
 225              		.loc 1 126 0
ARM GAS  /var/folders/dt/0wfd0knj7gs46m8vwfzktm600000gn/T//ccOjTrsk.s 			page 5


 226 000a 002D     		cmp	r5, #0
 227 000c 18BF     		it	ne
 228 000e 002C     		cmpne	r4, #0
 229 0010 01D0     		beq	.L21
 230              		.loc 1 126 0 is_stmt 0 discriminator 2
 231 0012 6307     		lsls	r3, r4, #29
 232 0014 02D0     		beq	.L22
 233              	.L21:
 234              		.loc 1 126 0 discriminator 1
 235 0016 0348     		ldr	r0, .L26
 236 0018 FFF7FEFF 		bl	chDbgPanic
 237              	.LVL24:
 238              	.L22:
 239              		.loc 1 129 0 is_stmt 1
 240 001c 2B68     		ldr	r3, [r5, #0]
 241 001e 2360     		str	r3, [r4, #0]
 242              		.loc 1 130 0
 243 0020 2C60     		str	r4, [r5, #0]
 244 0022 38BD     		pop	{r3, r4, r5, pc}
 245              	.L27:
 246              		.align	2
 247              	.L26:
 248 0024 24000000 		.word	.LC2
 249              		.cfi_endproc
 250              	.LFE10:
 251              		.size	chPoolFreeI, .-chPoolFreeI
 252 0028 AFF30080 		.section	.text.chPoolFree,"ax",%progbits
 252      AFF30080 
 253              		.align	2
 254              		.p2align 4,,15
 255              		.global	chPoolFree
 256              		.thumb
 257              		.thumb_func
 258              		.type	chPoolFree, %function
 259              	chPoolFree:
 260              	.LFB11:
 261              		.loc 1 145 0
 262              		.cfi_startproc
 263              		@ args = 0, pretend = 0, frame = 0
 264              		@ frame_needed = 0, uses_anonymous_args = 0
 265              	.LVL25:
 266 0000 38B5     		push	{r3, r4, r5, lr}
 267              	.LCFI4:
 268              		.cfi_def_cfa_offset 16
 269              		.cfi_offset 3, -16
 270              		.cfi_offset 4, -12
 271              		.cfi_offset 5, -8
 272              		.cfi_offset 14, -4
 273              		.loc 1 145 0
 274 0002 0546     		mov	r5, r0
 275 0004 0C46     		mov	r4, r1
 276              	.LBB5:
 277              		.loc 1 147 0
 278 0006 2023     		movs	r3, #32
 279              	.LVL26:
 280              	@ 147 "../../os/kernel/src/chmempools.c" 1
 281 0008 83F31188 		msr     BASEPRI, r3
ARM GAS  /var/folders/dt/0wfd0knj7gs46m8vwfzktm600000gn/T//ccOjTrsk.s 			page 6


 282              	@ 0 "" 2
 283              	.LVL27:
 284              		.thumb
 285              	.LBE5:
 286 000c FFF7FEFF 		bl	dbg_check_lock
 287              	.LVL28:
 288              		.loc 1 148 0
 289 0010 2846     		mov	r0, r5
 290 0012 2146     		mov	r1, r4
 291 0014 FFF7FEFF 		bl	chPoolFreeI
 292              	.LVL29:
 293              		.loc 1 149 0
 294 0018 FFF7FEFF 		bl	dbg_check_unlock
 295              	.LVL30:
 296              	.LBB6:
 297 001c 0023     		movs	r3, #0
 298              	.LVL31:
 299              	@ 149 "../../os/kernel/src/chmempools.c" 1
 300 001e 83F31188 		msr     BASEPRI, r3
 301              	@ 0 "" 2
 302              	.LVL32:
 303              		.thumb
 304 0022 38BD     		pop	{r3, r4, r5, pc}
 305              	.LBE6:
 306              		.cfi_endproc
 307              	.LFE11:
 308              		.size	chPoolFree, .-chPoolFree
 309 0024 AFF30080 		.section	.rodata.str1.4,"aMS",%progbits,1
 309      AFF30080 
 309      AFF30080 
 310              		.align	2
 311              	.LC0:
 312 0000 22636850 		.ascii	"\"chPoolInit\"()\000"
 312      6F6F6C49 
 312      6E697422 
 312      282900
 313 000f 00       		.space	1
 314              	.LC1:
 315 0010 22636850 		.ascii	"\"chPoolAllocI\"()\000"
 315      6F6F6C41 
 315      6C6C6F63 
 315      49222829 
 315      00
 316 0021 000000   		.space	3
 317              	.LC2:
 318 0024 22636850 		.ascii	"\"chPoolFreeI\"()\000"
 318      6F6F6C46 
 318      72656549 
 318      22282900 
 319              		.text
 320              	.Letext0:
 321              		.file 2 "/Users/toxygen/Applications/yagarto-4.7.2/bin/../lib/gcc/arm-none-eabi/4.7.2/include/stdd
 322              		.file 3 "/Users/toxygen/Applications/yagarto-4.7.2/bin/../lib/gcc/arm-none-eabi/4.7.2/../../../../
 323              		.file 4 "../../os/kernel/include/chmemcore.h"
 324              		.file 5 "../../os/kernel/include/chmempools.h"
 325              		.file 6 "../../os/kernel/include/chdebug.h"