ARM GAS  /var/folders/dt/0wfd0knj7gs46m8vwfzktm600000gn/T//ccOjTrsk.s 			page 1


   1              		.syntax unified
   2              		.cpu cortex-m3
   3              		.fpu softvfp
   4              		.eabi_attribute 20, 1
   5              		.eabi_attribute 21, 1
   6              		.eabi_attribute 23, 3
   7              		.eabi_attribute 24, 1
   8              		.eabi_attribute 25, 1
   9              		.eabi_attribute 26, 1
  10              		.eabi_attribute 30, 2
  11              		.eabi_attribute 34, 1
  12              		.eabi_attribute 18, 4
  13              		.thumb
  14              		.file	"chmempools.c"
  15              		.text
  16              	.Ltext0:
  17              		.cfi_sections	.debug_frame
  18              		.section	.text.chPoolInit,"ax",%progbits
  19              		.align	2
  20              		.p2align 4,,15
  21              		.global	chPoolInit
  22              		.thumb
  23              		.thumb_func
  24              		.type	chPoolInit, %function
  25              	chPoolInit:
  26              	.LFB7:
  27              		.file 1 "../../os/kernel/src/chmempools.c"
  28              		.loc 1 61 0
  29              		.cfi_startproc
  30              		@ args = 0, pretend = 0, frame = 0
  31              		@ frame_needed = 0, uses_anonymous_args = 0
  32              	.LVL0:
  33              		.loc 1 63 0
  34 0000 0028     		cmp	r0, #0
  35 0002 18BF     		it	ne
  36 0004 0329     		cmpne	r1, #3
  37              		.loc 1 61 0
  38 0006 70B5     		push	{r4, r5, r6, lr}
  39              	.LCFI0:
  40              		.cfi_def_cfa_offset 16
  41              		.cfi_offset 4, -16
  42              		.cfi_offset 5, -12
  43              		.cfi_offset 6, -8
  44              		.cfi_offset 14, -4
  45              		.loc 1 61 0
  46 0008 0D46     		mov	r5, r1
  47              		.loc 1 63 0
  48 000a 0446     		mov	r4, r0
  49              		.loc 1 61 0
  50 000c 1646     		mov	r6, r2
  51              		.loc 1 63 0
  52 000e 02D8     		bhi	.L2
  53              		.loc 1 63 0 is_stmt 0 discriminator 1
  54 0010 0448     		ldr	r0, .L7
  55              	.LVL1:
  56 0012 FFF7FEFF 		bl	chDbgPanic
  57              	.LVL2:
ARM GAS  /var/folders/dt/0wfd0knj7gs46m8vwfzktm600000gn/T//ccOjTrsk.s 			page 2


  58              	.L2:
  59              		.loc 1 66 0 is_stmt 1
  60 0016 0735     		adds	r5, r5, #7
  61              	.LVL3:
  62 0018 25F00705 		bic	r5, r5, #7
  63              	.LVL4:
  64              		.loc 1 65 0
  65 001c 0023     		movs	r3, #0
  66              		.loc 1 67 0
  67 001e 84E86800 		stmia	r4, {r3, r5, r6}
  68 0022 70BD     		pop	{r4, r5, r6, pc}
  69              	.L8:
  70              		.align	2
  71              	.L7:
  72 0024 00000000 		.word	.LC0
  73              		.cfi_endproc
  74              	.LFE7:
  75              		.size	chPoolInit, .-chPoolInit
  76 0028 AFF30080 		.section	.text.chPoolAllocI,"ax",%progbits
  76      AFF30080 
  77              		.align	2
  78              		.p2align 4,,15
  79              		.global	chPoolAllocI
  80              		.thumb
  81              		.thumb_func
  82              		.type	chPoolAllocI, %function
  83              	chPoolAllocI:
  84              	.LFB8:
  85              		.loc 1 79 0
  86              		.cfi_startproc
  87              		@ args = 0, pretend = 0, frame = 0
  88              		@ frame_needed = 0, uses_anonymous_args = 0
  89              	.LVL5:
  90 0000 10B5     		push	{r4, lr}
  91              	.LCFI1:
  92              		.cfi_def_cfa_offset 8
  93              		.cfi_offset 4, -8
  94              		.cfi_offset 14, -4
  95              		.loc 1 79 0
  96 0002 0446     		mov	r4, r0
  97              		.loc 1 82 0
  98 0004 FFF7FEFF 		bl	chDbgCheckClassI
  99              	.LVL6:
 100              		.loc 1 83 0
 101 0008 4CB1     		cbz	r4, .L16
 102              	.L10:
 103              		.loc 1 85 0
 104 000a 2068     		ldr	r0, [r4, #0]
 105              	.LVL7:
 106 000c 10B1     		cbz	r0, .L11
 107              		.loc 1 86 0
 108 000e 0368     		ldr	r3, [r0, #0]
 109 0010 2360     		str	r3, [r4, #0]
 110 0012 10BD     		pop	{r4, pc}
 111              	.L11:
 112              		.loc 1 87 0
 113 0014 A368     		ldr	r3, [r4, #8]
ARM GAS  /var/folders/dt/0wfd0knj7gs46m8vwfzktm600000gn/T//ccOjTrsk.s 			page 3


 114 0016 0BB1     		cbz	r3, .L12
 115              		.loc 1 88 0
 116 0018 6068     		ldr	r0, [r4, #4]
 117              	.LVL8:
 118 001a 9847     		blx	r3
 119              	.LVL9:
 120              	.L12:
 121              		.loc 1 90 0
 122 001c 10BD     		pop	{r4, pc}
 123              	.LVL10:
 124              	.L16:
 125              		.loc 1 83 0 discriminator 1
 126 001e 0248     		ldr	r0, .L17
 127 0020 FFF7FEFF 		bl	chDbgPanic
 128              	.LVL11:
 129 0024 F1E7     		b	.L10
 130              	.L18:
 131 0026 00BF     		.align	2
 132              	.L17:
 133 0028 10000000 		.word	.LC1
 134              		.cfi_endproc
 135              	.LFE8:
 136              		.size	chPoolAllocI, .-chPoolAllocI
 137 002c AFF30080 		.section	.text.chPoolAlloc,"ax",%progbits
 138              		.align	2
 139              		.p2align 4,,15
 140              		.global	chPoolAlloc
 141              		.thumb
 142              		.thumb_func
 143              		.type	chPoolAlloc, %function
 144              	chPoolAlloc:
 145              	.LFB9:
 146              		.loc 1 101 0
 147              		.cfi_startproc
 148              		@ args = 0, pretend = 0, frame = 0
 149              		@ frame_needed = 0, uses_anonymous_args = 0
 150              	.LVL12:
 151 0000 10B5     		push	{r4, lr}
 152              	.LCFI2:
 153              		.cfi_def_cfa_offset 8
 154              		.cfi_offset 4, -8
 155              		.cfi_offset 14, -4
 156              	.LBB2:
 157              		.loc 1 104 0
 158 0002 2023     		movs	r3, #32
 159              	.LVL13:
 160              	.LBE2:
 161              		.loc 1 101 0
 162 0004 0446     		mov	r4, r0
 163              	.LBB3:
 164              		.loc 1 104 0
 165              	@ 104 "../../os/kernel/src/chmempools.c" 1
 166 0006 83F31188 		msr     BASEPRI, r3
 167              	@ 0 "" 2
 168              	.LVL14:
 169              		.thumb
 170              	.LBE3:
ARM GAS  /var/folders/dt/0wfd0knj7gs46m8vwfzktm600000gn/T//ccOjTrsk.s 			page 4


 171 000a FFF7FEFF 		bl	dbg_check_lock
 172              	.LVL15:
 173              		.loc 1 105 0
 174 000e 2046     		mov	r0, r4
 175 0010 FFF7FEFF 		bl	chPoolAllocI
 176              	.LVL16:
 177 0014 0446     		mov	r4, r0
 178              	.LVL17:
 179              		.loc 1 106 0
 180 0016 FFF7FEFF 		bl	dbg_check_unlock
 181              	.LVL18:
 182              	.LBB4:
 183 001a 0023     		movs	r3, #0
 184              	.LVL19:
 185              	@ 106 "../../os/kernel/src/chmempools.c" 1
 186 001c 83F31188 		msr     BASEPRI, r3
 187              	@ 0 "" 2
 188              	.LVL20:
 189              		.thumb
 190              	.LBE4:
 191              		.loc 1 108 0
 192 0020 2046     		mov	r0, r4
 193 0022 10BD     		pop	{r4, pc}
 194              		.cfi_endproc
 195              	.LFE9:
 196              		.size	chPoolAlloc, .-chPoolAlloc
 197 0024 AFF30080 		.section	.text.chPoolFreeI,"ax",%progbits
 197      AFF30080 
 197      AFF30080 
 198              		.align	2
 199              		.p2align 4,,15
 200              		.global	chPoolFreeI
 201              		.thumb
 202              		.thumb_func
 203              		.type	chPoolFreeI, %function
 204              	chPoolFreeI:
 205              	.LFB10:
 206              		.loc 1 122 0
 207              		.cfi_startproc
 208              		@ args = 0, pretend = 0, frame = 0
 209              		@ frame_needed = 0, uses_anonymous_args = 0
 210              	.LVL21:
 211 0000 38B5     		push	{r3, r4, r5, lr}
 212              	.LCFI3:
 213              		.cfi_def_cfa_offset 16
 214              		.cfi_offset 3, -16
 215              		.cfi_offset 4, -12
 216              		.cfi_offset 5, -8
 217              		.cfi_offset 14, -4
 218              		.loc 1 122 0
 219 0002 0546     		mov	r5, r0
 220 0004 0C46     		mov	r4, r1
 221              	.LVL22:
 222              		.loc 1 125 0
 223 0006 FFF7FEFF 		bl	chDbgCheckClassI
 224              	.LVL23:
 225              		.loc 1 126 0
ARM GAS  /var/folders/dt/0wfd0knj7gs46m8vwfzktm600000gn/T//ccOjTrsk.s 			page 5


 226 000a 002D     		cmp	r5, #0
 227 000c 18BF     		it	ne
 228 000e 002C     		cmpne	r4, #0
 229 0010 01D0     		beq	.L21
 230              		.loc 1 126 0 is_stmt 0 discriminator 2
 231 0012 6307     		lsls	r3, r4, #29
 232 0014 02D0     		beq	.L22
 233              	.L21:
 234              		.loc 1 126 0 discriminator 1
 235 0016 0348     		ldr	r0, .L26
 236 0018 FFF7FEFF 		bl	chDbgPanic
 237              	.LVL24:
 238              	.L22:
 239              		.loc 1 129 0 is_stmt 1
 240 001c 2B68     		ldr	r3, [r5, #0]
 241 001e 2360     		str	r3, [r4, #0]
 242              		.loc 1 130 0
 243 0020 2C60     		str	r4, [r5, #0]
 244 0022 38BD     		pop	{r3, r4, r5, pc}
 245              	.L27:
 246              		.align	2
 247              	.L26:
 248 0024 24000000 		.word	.LC2
 249              		.cfi_endproc
 250              	.LFE10:
 251              		.size	chPoolFreeI, .-chPoolFreeI
 252 0028 AFF30080 		.section	.text.chPoolFree,"ax",%progbits
 252      AFF30080 
 253              		.align	2
 254              		.p2align 4,,15
 255              		.global	chPoolFree
 256              		.thumb
 257              		.thumb_func
 258              		.type	chPoolFree, %function
 259              	chPoolFree:
 260              	.LFB11:
 261              		.loc 1 145 0
 262              		.cfi_startproc
 263              		@ args = 0, pretend = 0, frame = 0
 264              		@ frame_needed = 0, uses_anonymous_args = 0
 265              	.LVL25:
 266 0000 38B5     		push	{r3, r4, r5, lr}
 267              	.LCFI4:
 268              		.cfi_def_cfa_offset 16
 269              		.cfi_offset 3, -16
 270              		.cfi_offset 4, -12
 271              		.cfi_offset 5, -8
 272              		.cfi_offset 14, -4
 273              		.loc 1 145 0
 274 0002 0546     		mov	r5, r0
 275 0004 0C46     		mov	r4, r1
 276              	.LBB5:
 277              		.loc 1 147 0
 278 0006 2023     		movs	r3, #32
 279              	.LVL26:
 280              	@ 147 "../../os/kernel/src/chmempools.c" 1
 281 0008 83F31188 		msr     BASEPRI, r3
ARM GAS  /var/folders/dt/0wfd0knj7gs46m8vwfzktm600000gn/T//ccOjTrsk.s 			page 6


 282              	@ 0 "" 2
 283              	.LVL27:
 284              		.thumb
 285              	.LBE5:
 286 000c FFF7FEFF 		bl	dbg_check_lock
 287              	.LVL28:
 288              		.loc 1 148 0
 289 0010 2846     		mov	r0, r5
 290 0012 2146     		mov	r1, r4
 291 0014 FFF7FEFF 		bl	chPoolFreeI
 292              	.LVL29:
 293              		.loc 1 149 0
 294 0018 FFF7FEFF 		bl	dbg_check_unlock
 295              	.LVL30:
 296              	.LBB6:
 297 001c 0023     		movs	r3, #0
 298              	.LVL31:
 299              	@ 149 "../../os/kernel/src/chmempools.c" 1
 300 001e 83F31188 		msr     BASEPRI, r3
 301              	@ 0 "" 2
 302              	.LVL32:
 303              		.thumb
 304 0022 38BD     		pop	{r3, r4, r5, pc}
 305              	.LBE6:
 306              		.cfi_endproc
 307              	.LFE11:
 308              		.size	chPoolFree, .-chPoolFree
 309 0024 AFF30080 		.section	.rodata.str1.4,"aMS",%progbits,1
 309      AFF30080 
 309      AFF30080 
 310              		.align	2
 311              	.LC0:
 312 0000 22636850 		.ascii	"\"chPoolInit\"()\000"
 312      6F6F6C49 
 312      6E697422 
 312      282900
 313 000f 00       		.space	1
 314              	.LC1:
 315 0010 22636850 		.ascii	"\"chPoolAllocI\"()\000"
 315      6F6F6C41 
 315      6C6C6F63 
 315      49222829 
 315      00
 316 0021 000000   		.space	3
 317              	.LC2:
 318 0024 22636850 		.ascii	"\"chPoolFreeI\"()\000"
 318      6F6F6C46 
 318      72656549 
 318      22282900 
 319              		.text
 320              	.Letext0:
 321              		.file 2 "/Users/toxygen/Applications/yagarto-4.7.2/bin/../lib/gcc/arm-none-eabi/4.7.2/include/stdd
 322              		.file 3 "/Users/toxygen/Applications/yagarto-4.7.2/bin/../lib/gcc/arm-none-eabi/4.7.2/../../../../
 323              		.file 4 "../../os/kernel/include/chmemcore.h"
 324              		.file 5 "../../os/kernel/include/chmempools.h"
 325              		.file 6 "../../os/kernel/include/chdebug.h"
 326              		.section	.debug_info,"",%progbits
ARM GAS  /var/folders/dt/0wfd0knj7gs46m8vwfzktm600000gn/T//ccOjTrsk.s 			page 7


 327              	.Ldebug_info0:
 328 0000 9B030000 		.4byte	0x39b
 329 0004 0200     		.2byte	0x2
 330 0006 00000000 		.4byte	.Ldebug_abbrev0
 331 000a 04       		.byte	0x4
 332 000b 01       		.uleb128 0x1
 333 000c 00000000 		.4byte	.LASF30
 334 0010 01       		.byte	0x1
 335 0011 9E000000 		.4byte	.LASF31
 336 0015 CD000000 		.4byte	.LASF32
 337 0019 18000000 		.4byte	.Ldebug_ranges0+0x18
 338 001d 00000000 		.4byte	0
 339 0021 00000000 		.4byte	0
 340 0025 00000000 		.4byte	.Ldebug_line0
 341 0029 02       		.uleb128 0x2
 342 002a 04       		.byte	0x4
 343 002b 05       		.byte	0x5
 344 002c 696E7400 		.ascii	"int\000"
 345 0030 03       		.uleb128 0x3
 346 0031 0C000000 		.4byte	.LASF6
 347 0035 02       		.byte	0x2
 348 0036 D5       		.byte	0xd5
 349 0037 3B000000 		.4byte	0x3b
 350 003b 04       		.uleb128 0x4
 351 003c 04       		.byte	0x4
 352 003d 07       		.byte	0x7
 353 003e 23010000 		.4byte	.LASF0
 354 0042 04       		.uleb128 0x4
 355 0043 01       		.byte	0x1
 356 0044 06       		.byte	0x6
 357 0045 B7010000 		.4byte	.LASF1
 358 0049 04       		.uleb128 0x4
 359 004a 01       		.byte	0x1
 360 004b 08       		.byte	0x8
 361 004c BF000000 		.4byte	.LASF2
 362 0050 04       		.uleb128 0x4
 363 0051 02       		.byte	0x2
 364 0052 05       		.byte	0x5
 365 0053 8F010000 		.4byte	.LASF3
 366 0057 04       		.uleb128 0x4
 367 0058 02       		.byte	0x2
 368 0059 07       		.byte	0x7
 369 005a 76000000 		.4byte	.LASF4
 370 005e 04       		.uleb128 0x4
 371 005f 04       		.byte	0x4
 372 0060 05       		.byte	0x5
 373 0061 AE010000 		.4byte	.LASF5
 374 0065 03       		.uleb128 0x3
 375 0066 A5010000 		.4byte	.LASF7
 376 006a 03       		.byte	0x3
 377 006b 50       		.byte	0x50
 378 006c 70000000 		.4byte	0x70
 379 0070 04       		.uleb128 0x4
 380 0071 04       		.byte	0x4
 381 0072 07       		.byte	0x7
 382 0073 64000000 		.4byte	.LASF8
 383 0077 04       		.uleb128 0x4
ARM GAS  /var/folders/dt/0wfd0knj7gs46m8vwfzktm600000gn/T//ccOjTrsk.s 			page 8


 384 0078 08       		.byte	0x8
 385 0079 05       		.byte	0x5
 386 007a 58010000 		.4byte	.LASF9
 387 007e 04       		.uleb128 0x4
 388 007f 08       		.byte	0x8
 389 0080 07       		.byte	0x7
 390 0081 30010000 		.4byte	.LASF10
 391 0085 05       		.uleb128 0x5
 392 0086 04       		.byte	0x4
 393 0087 04       		.uleb128 0x4
 394 0088 04       		.byte	0x4
 395 0089 07       		.byte	0x7
 396 008a 4F010000 		.4byte	.LASF11
 397 008e 03       		.uleb128 0x3
 398 008f 76010000 		.4byte	.LASF12
 399 0093 04       		.byte	0x4
 400 0094 2C       		.byte	0x2c
 401 0095 99000000 		.4byte	0x99
 402 0099 06       		.uleb128 0x6
 403 009a 04       		.byte	0x4
 404 009b 9F000000 		.4byte	0x9f
 405 009f 07       		.uleb128 0x7
 406 00a0 01       		.byte	0x1
 407 00a1 85000000 		.4byte	0x85
 408 00a5 AF000000 		.4byte	0xaf
 409 00a9 08       		.uleb128 0x8
 410 00aa 30000000 		.4byte	0x30
 411 00ae 00       		.byte	0
 412 00af 09       		.uleb128 0x9
 413 00b0 53000000 		.4byte	.LASF33
 414 00b4 04       		.byte	0x4
 415 00b5 05       		.byte	0x5
 416 00b6 2C       		.byte	0x2c
 417 00b7 CA000000 		.4byte	0xca
 418 00bb 0A       		.uleb128 0xa
 419 00bc 47010000 		.4byte	.LASF13
 420 00c0 05       		.byte	0x5
 421 00c1 2D       		.byte	0x2d
 422 00c2 CA000000 		.4byte	0xca
 423 00c6 02       		.byte	0x2
 424 00c7 23       		.byte	0x23
 425 00c8 00       		.uleb128 0
 426 00c9 00       		.byte	0
 427 00ca 06       		.uleb128 0x6
 428 00cb 04       		.byte	0x4
 429 00cc AF000000 		.4byte	0xaf
 430 00d0 0B       		.uleb128 0xb
 431 00d1 0C       		.byte	0xc
 432 00d2 05       		.byte	0x5
 433 00d3 34       		.byte	0x34
 434 00d4 03010000 		.4byte	0x103
 435 00d8 0A       		.uleb128 0xa
 436 00d9 C3010000 		.4byte	.LASF14
 437 00dd 05       		.byte	0x5
 438 00de 35       		.byte	0x35
 439 00df CA000000 		.4byte	0xca
 440 00e3 02       		.byte	0x2
ARM GAS  /var/folders/dt/0wfd0knj7gs46m8vwfzktm600000gn/T//ccOjTrsk.s 			page 9


 441 00e4 23       		.byte	0x23
 442 00e5 00       		.uleb128 0
 443 00e6 0A       		.uleb128 0xa
 444 00e7 33000000 		.4byte	.LASF15
 445 00eb 05       		.byte	0x5
 446 00ec 36       		.byte	0x36
 447 00ed 30000000 		.4byte	0x30
 448 00f1 02       		.byte	0x2
 449 00f2 23       		.byte	0x23
 450 00f3 04       		.uleb128 0x4
 451 00f4 0A       		.uleb128 0xa
 452 00f5 83010000 		.4byte	.LASF16
 453 00f9 05       		.byte	0x5
 454 00fa 38       		.byte	0x38
 455 00fb 8E000000 		.4byte	0x8e
 456 00ff 02       		.byte	0x2
 457 0100 23       		.byte	0x23
 458 0101 08       		.uleb128 0x8
 459 0102 00       		.byte	0
 460 0103 03       		.uleb128 0x3
 461 0104 06010000 		.4byte	.LASF17
 462 0108 05       		.byte	0x5
 463 0109 3A       		.byte	0x3a
 464 010a D0000000 		.4byte	0xd0
 465 010e 04       		.uleb128 0x4
 466 010f 01       		.byte	0x1
 467 0110 08       		.byte	0x8
 468 0111 66010000 		.4byte	.LASF18
 469 0115 0C       		.uleb128 0xc
 470 0116 01       		.byte	0x1
 471 0117 CB010000 		.4byte	.LASF24
 472 011b 01       		.byte	0x1
 473 011c 3D       		.byte	0x3d
 474 011d 01       		.byte	0x1
 475 011e 00000000 		.4byte	.LFB7
 476 0122 28000000 		.4byte	.LFE7
 477 0126 00000000 		.4byte	.LLST0
 478 012a 01       		.byte	0x1
 479 012b 6F010000 		.4byte	0x16f
 480 012f 0D       		.uleb128 0xd
 481 0130 6D7000   		.ascii	"mp\000"
 482 0133 01       		.byte	0x1
 483 0134 3D       		.byte	0x3d
 484 0135 6F010000 		.4byte	0x16f
 485 0139 20000000 		.4byte	.LLST1
 486 013d 0E       		.uleb128 0xe
 487 013e 5F000000 		.4byte	.LASF19
 488 0142 01       		.byte	0x1
 489 0143 3D       		.byte	0x3d
 490 0144 30000000 		.4byte	0x30
 491 0148 3E000000 		.4byte	.LLST2
 492 014c 0E       		.uleb128 0xe
 493 014d 89000000 		.4byte	.LASF20
 494 0151 01       		.byte	0x1
 495 0152 3D       		.byte	0x3d
 496 0153 8E000000 		.4byte	0x8e
 497 0157 77000000 		.4byte	.LLST3
ARM GAS  /var/folders/dt/0wfd0knj7gs46m8vwfzktm600000gn/T//ccOjTrsk.s 			page 10


 498 015b 0F       		.uleb128 0xf
 499 015c 16000000 		.4byte	.LVL2
 500 0160 66030000 		.4byte	0x366
 501 0164 10       		.uleb128 0x10
 502 0165 01       		.byte	0x1
 503 0166 50       		.byte	0x50
 504 0167 05       		.byte	0x5
 505 0168 03       		.byte	0x3
 506 0169 00000000 		.4byte	.LC0
 507 016d 00       		.byte	0
 508 016e 00       		.byte	0
 509 016f 06       		.uleb128 0x6
 510 0170 04       		.byte	0x4
 511 0171 03010000 		.4byte	0x103
 512 0175 11       		.uleb128 0x11
 513 0176 01       		.byte	0x1
 514 0177 16010000 		.4byte	.LASF21
 515 017b 01       		.byte	0x1
 516 017c 4F       		.byte	0x4f
 517 017d 01       		.byte	0x1
 518 017e 85000000 		.4byte	0x85
 519 0182 00000000 		.4byte	.LFB8
 520 0186 2C000000 		.4byte	.LFE8
 521 018a 95000000 		.4byte	.LLST4
 522 018e 01       		.byte	0x1
 523 018f CD010000 		.4byte	0x1cd
 524 0193 0D       		.uleb128 0xd
 525 0194 6D7000   		.ascii	"mp\000"
 526 0197 01       		.byte	0x1
 527 0198 4F       		.byte	0x4f
 528 0199 6F010000 		.4byte	0x16f
 529 019d B5000000 		.4byte	.LLST5
 530 01a1 12       		.uleb128 0x12
 531 01a2 11010000 		.4byte	.LASF23
 532 01a6 01       		.byte	0x1
 533 01a7 50       		.byte	0x50
 534 01a8 85000000 		.4byte	0x85
 535 01ac D3000000 		.4byte	.LLST6
 536 01b0 13       		.uleb128 0x13
 537 01b1 08000000 		.4byte	.LVL6
 538 01b5 80030000 		.4byte	0x380
 539 01b9 0F       		.uleb128 0xf
 540 01ba 24000000 		.4byte	.LVL11
 541 01be 66030000 		.4byte	0x366
 542 01c2 10       		.uleb128 0x10
 543 01c3 01       		.byte	0x1
 544 01c4 50       		.byte	0x50
 545 01c5 05       		.byte	0x5
 546 01c6 03       		.byte	0x3
 547 01c7 10000000 		.4byte	.LC1
 548 01cb 00       		.byte	0
 549 01cc 00       		.byte	0
 550 01cd 14       		.uleb128 0x14
 551 01ce 01       		.byte	0x1
 552 01cf 99010000 		.4byte	.LASF22
 553 01d3 01       		.byte	0x1
 554 01d4 65       		.byte	0x65
ARM GAS  /var/folders/dt/0wfd0knj7gs46m8vwfzktm600000gn/T//ccOjTrsk.s 			page 11


 555 01d5 01       		.byte	0x1
 556 01d6 85000000 		.4byte	0x85
 557 01da 00000000 		.4byte	.LFB9
 558 01de 24000000 		.4byte	.LFE9
 559 01e2 FD000000 		.4byte	.LLST7
 560 01e6 01       		.byte	0x1
 561 01e7 65020000 		.4byte	0x265
 562 01eb 0D       		.uleb128 0xd
 563 01ec 6D7000   		.ascii	"mp\000"
 564 01ef 01       		.byte	0x1
 565 01f0 65       		.byte	0x65
 566 01f1 6F010000 		.4byte	0x16f
 567 01f5 1D010000 		.4byte	.LLST8
 568 01f9 12       		.uleb128 0x12
 569 01fa 11010000 		.4byte	.LASF23
 570 01fe 01       		.byte	0x1
 571 01ff 66       		.byte	0x66
 572 0200 85000000 		.4byte	0x85
 573 0204 49010000 		.4byte	.LLST9
 574 0208 15       		.uleb128 0x15
 575 0209 00000000 		.4byte	.Ldebug_ranges0+0
 576 020d 21020000 		.4byte	0x221
 577 0211 16       		.uleb128 0x16
 578 0212 746D7000 		.ascii	"tmp\000"
 579 0216 01       		.byte	0x1
 580 0217 68       		.byte	0x68
 581 0218 65000000 		.4byte	0x65
 582 021c 67010000 		.4byte	.LLST10
 583 0220 00       		.byte	0
 584 0221 17       		.uleb128 0x17
 585 0222 1A000000 		.4byte	.LBB4
 586 0226 20000000 		.4byte	.LBE4
 587 022a 3E020000 		.4byte	0x23e
 588 022e 16       		.uleb128 0x16
 589 022f 746D7000 		.ascii	"tmp\000"
 590 0233 01       		.byte	0x1
 591 0234 6A       		.byte	0x6a
 592 0235 65000000 		.4byte	0x65
 593 0239 7A010000 		.4byte	.LLST11
 594 023d 00       		.byte	0
 595 023e 13       		.uleb128 0x13
 596 023f 0E000000 		.4byte	.LVL15
 597 0243 8A030000 		.4byte	0x38a
 598 0247 18       		.uleb128 0x18
 599 0248 14000000 		.4byte	.LVL16
 600 024c 75010000 		.4byte	0x175
 601 0250 5B020000 		.4byte	0x25b
 602 0254 10       		.uleb128 0x10
 603 0255 01       		.byte	0x1
 604 0256 50       		.byte	0x50
 605 0257 02       		.byte	0x2
 606 0258 74       		.byte	0x74
 607 0259 00       		.sleb128 0
 608 025a 00       		.byte	0
 609 025b 13       		.uleb128 0x13
 610 025c 1A000000 		.4byte	.LVL18
 611 0260 94030000 		.4byte	0x394
ARM GAS  /var/folders/dt/0wfd0knj7gs46m8vwfzktm600000gn/T//ccOjTrsk.s 			page 12


 612 0264 00       		.byte	0
 613 0265 0C       		.uleb128 0xc
 614 0266 01       		.byte	0x1
 615 0267 92000000 		.4byte	.LASF25
 616 026b 01       		.byte	0x1
 617 026c 7A       		.byte	0x7a
 618 026d 01       		.byte	0x1
 619 026e 00000000 		.4byte	.LFB10
 620 0272 28000000 		.4byte	.LFE10
 621 0276 8D010000 		.4byte	.LLST12
 622 027a 01       		.byte	0x1
 623 027b C8020000 		.4byte	0x2c8
 624 027f 0D       		.uleb128 0xd
 625 0280 6D7000   		.ascii	"mp\000"
 626 0283 01       		.byte	0x1
 627 0284 7A       		.byte	0x7a
 628 0285 6F010000 		.4byte	0x16f
 629 0289 AD010000 		.4byte	.LLST13
 630 028d 0E       		.uleb128 0xe
 631 028e 11010000 		.4byte	.LASF23
 632 0292 01       		.byte	0x1
 633 0293 7A       		.byte	0x7a
 634 0294 85000000 		.4byte	0x85
 635 0298 CB010000 		.4byte	.LLST14
 636 029c 16       		.uleb128 0x16
 637 029d 70687000 		.ascii	"php\000"
 638 02a1 01       		.byte	0x1
 639 02a2 7B       		.byte	0x7b
 640 02a3 CA000000 		.4byte	0xca
 641 02a7 E9010000 		.4byte	.LLST15
 642 02ab 13       		.uleb128 0x13
 643 02ac 0A000000 		.4byte	.LVL23
 644 02b0 80030000 		.4byte	0x380
 645 02b4 0F       		.uleb128 0xf
 646 02b5 1C000000 		.4byte	.LVL24
 647 02b9 66030000 		.4byte	0x366
 648 02bd 10       		.uleb128 0x10
 649 02be 01       		.byte	0x1
 650 02bf 50       		.byte	0x50
 651 02c0 05       		.byte	0x5
 652 02c1 03       		.byte	0x3
 653 02c2 24000000 		.4byte	.LC2
 654 02c6 00       		.byte	0
 655 02c7 00       		.byte	0
 656 02c8 0C       		.uleb128 0xc
 657 02c9 01       		.byte	0x1
 658 02ca FB000000 		.4byte	.LASF26
 659 02ce 01       		.byte	0x1
 660 02cf 91       		.byte	0x91
 661 02d0 01       		.byte	0x1
 662 02d1 00000000 		.4byte	.LFB11
 663 02d5 24000000 		.4byte	.LFE11
 664 02d9 07020000 		.4byte	.LLST16
 665 02dd 01       		.byte	0x1
 666 02de 66030000 		.4byte	0x366
 667 02e2 0D       		.uleb128 0xd
 668 02e3 6D7000   		.ascii	"mp\000"
ARM GAS  /var/folders/dt/0wfd0knj7gs46m8vwfzktm600000gn/T//ccOjTrsk.s 			page 13


 669 02e6 01       		.byte	0x1
 670 02e7 91       		.byte	0x91
 671 02e8 6F010000 		.4byte	0x16f
 672 02ec 27020000 		.4byte	.LLST17
 673 02f0 0E       		.uleb128 0xe
 674 02f1 11010000 		.4byte	.LASF23
 675 02f5 01       		.byte	0x1
 676 02f6 91       		.byte	0x91
 677 02f7 85000000 		.4byte	0x85
 678 02fb 45020000 		.4byte	.LLST18
 679 02ff 17       		.uleb128 0x17
 680 0300 06000000 		.4byte	.LBB5
 681 0304 0C000000 		.4byte	.LBE5
 682 0308 1C030000 		.4byte	0x31c
 683 030c 16       		.uleb128 0x16
 684 030d 746D7000 		.ascii	"tmp\000"
 685 0311 01       		.byte	0x1
 686 0312 93       		.byte	0x93
 687 0313 65000000 		.4byte	0x65
 688 0317 63020000 		.4byte	.LLST19
 689 031b 00       		.byte	0
 690 031c 17       		.uleb128 0x17
 691 031d 1C000000 		.4byte	.LBB6
 692 0321 24000000 		.4byte	.LBE6
 693 0325 39030000 		.4byte	0x339
 694 0329 16       		.uleb128 0x16
 695 032a 746D7000 		.ascii	"tmp\000"
 696 032e 01       		.byte	0x1
 697 032f 95       		.byte	0x95
 698 0330 65000000 		.4byte	0x65
 699 0334 76020000 		.4byte	.LLST20
 700 0338 00       		.byte	0
 701 0339 13       		.uleb128 0x13
 702 033a 10000000 		.4byte	.LVL28
 703 033e 8A030000 		.4byte	0x38a
 704 0342 18       		.uleb128 0x18
 705 0343 18000000 		.4byte	.LVL29
 706 0347 65020000 		.4byte	0x265
 707 034b 5C030000 		.4byte	0x35c
 708 034f 10       		.uleb128 0x10
 709 0350 01       		.byte	0x1
 710 0351 51       		.byte	0x51
 711 0352 02       		.byte	0x2
 712 0353 74       		.byte	0x74
 713 0354 00       		.sleb128 0
 714 0355 10       		.uleb128 0x10
 715 0356 01       		.byte	0x1
 716 0357 50       		.byte	0x50
 717 0358 02       		.byte	0x2
 718 0359 75       		.byte	0x75
 719 035a 00       		.sleb128 0
 720 035b 00       		.byte	0
 721 035c 13       		.uleb128 0x13
 722 035d 1C000000 		.4byte	.LVL30
 723 0361 94030000 		.4byte	0x394
 724 0365 00       		.byte	0
 725 0366 19       		.uleb128 0x19
ARM GAS  /var/folders/dt/0wfd0knj7gs46m8vwfzktm600000gn/T//ccOjTrsk.s 			page 14


 726 0367 01       		.byte	0x1
 727 0368 6B010000 		.4byte	.LASF34
 728 036c 06       		.byte	0x6
 729 036d F0       		.byte	0xf0
 730 036e 01       		.byte	0x1
 731 036f 01       		.byte	0x1
 732 0370 7A030000 		.4byte	0x37a
 733 0374 08       		.uleb128 0x8
 734 0375 7A030000 		.4byte	0x37a
 735 0379 00       		.byte	0
 736 037a 06       		.uleb128 0x6
 737 037b 04       		.byte	0x4
 738 037c 0E010000 		.4byte	0x10e
 739 0380 1A       		.uleb128 0x1a
 740 0381 01       		.byte	0x1
 741 0382 42000000 		.4byte	.LASF27
 742 0386 06       		.byte	0x6
 743 0387 E8       		.byte	0xe8
 744 0388 01       		.byte	0x1
 745 0389 01       		.byte	0x1
 746 038a 1A       		.uleb128 0x1a
 747 038b 01       		.byte	0x1
 748 038c 13000000 		.4byte	.LASF28
 749 0390 06       		.byte	0x6
 750 0391 E2       		.byte	0xe2
 751 0392 01       		.byte	0x1
 752 0393 01       		.byte	0x1
 753 0394 1A       		.uleb128 0x1a
 754 0395 01       		.byte	0x1
 755 0396 22000000 		.4byte	.LASF29
 756 039a 06       		.byte	0x6
 757 039b E3       		.byte	0xe3
 758 039c 01       		.byte	0x1
 759 039d 01       		.byte	0x1
 760 039e 00       		.byte	0
 761              		.section	.debug_abbrev,"",%progbits
 762              	.Ldebug_abbrev0:
 763 0000 01       		.uleb128 0x1
 764 0001 11       		.uleb128 0x11
 765 0002 01       		.byte	0x1
 766 0003 25       		.uleb128 0x25
 767 0004 0E       		.uleb128 0xe
 768 0005 13       		.uleb128 0x13
 769 0006 0B       		.uleb128 0xb
 770 0007 03       		.uleb128 0x3
 771 0008 0E       		.uleb128 0xe
 772 0009 1B       		.uleb128 0x1b
 773 000a 0E       		.uleb128 0xe
 774 000b 55       		.uleb128 0x55
 775 000c 06       		.uleb128 0x6
 776 000d 11       		.uleb128 0x11
 777 000e 01       		.uleb128 0x1
 778 000f 52       		.uleb128 0x52
 779 0010 01       		.uleb128 0x1
 780 0011 10       		.uleb128 0x10
 781 0012 06       		.uleb128 0x6
 782 0013 00       		.byte	0
ARM GAS  /var/folders/dt/0wfd0knj7gs46m8vwfzktm600000gn/T//ccOjTrsk.s 			page 15


 783 0014 00       		.byte	0
 784 0015 02       		.uleb128 0x2
 785 0016 24       		.uleb128 0x24
 786 0017 00       		.byte	0
 787 0018 0B       		.uleb128 0xb
 788 0019 0B       		.uleb128 0xb
 789 001a 3E       		.uleb128 0x3e
 790 001b 0B       		.uleb128 0xb
 791 001c 03       		.uleb128 0x3
 792 001d 08       		.uleb128 0x8
 793 001e 00       		.byte	0
 794 001f 00       		.byte	0
 795 0020 03       		.uleb128 0x3
 796 0021 16       		.uleb128 0x16
 797 0022 00       		.byte	0
 798 0023 03       		.uleb128 0x3
 799 0024 0E       		.uleb128 0xe
 800 0025 3A       		.uleb128 0x3a
 801 0026 0B       		.uleb128 0xb
 802 0027 3B       		.uleb128 0x3b
 803 0028 0B       		.uleb128 0xb
 804 0029 49       		.uleb128 0x49
 805 002a 13       		.uleb128 0x13
 806 002b 00       		.byte	0
 807 002c 00       		.byte	0
 808 002d 04       		.uleb128 0x4
 809 002e 24       		.uleb128 0x24
 810 002f 00       		.byte	0
 811 0030 0B       		.uleb128 0xb
 812 0031 0B       		.uleb128 0xb
 813 0032 3E       		.uleb128 0x3e
 814 0033 0B       		.uleb128 0xb
 815 0034 03       		.uleb128 0x3
 816 0035 0E       		.uleb128 0xe
 817 0036 00       		.byte	0
 818 0037 00       		.byte	0
 819 0038 05       		.uleb128 0x5
 820 0039 0F       		.uleb128 0xf
 821 003a 00       		.byte	0
 822 003b 0B       		.uleb128 0xb
 823 003c 0B       		.uleb128 0xb
 824 003d 00       		.byte	0
 825 003e 00       		.byte	0
 826 003f 06       		.uleb128 0x6
 827 0040 0F       		.uleb128 0xf
 828 0041 00       		.byte	0
 829 0042 0B       		.uleb128 0xb
 830 0043 0B       		.uleb128 0xb
 831 0044 49       		.uleb128 0x49
 832 0045 13       		.uleb128 0x13
 833 0046 00       		.byte	0
 834 0047 00       		.byte	0
 835 0048 07       		.uleb128 0x7
 836 0049 15       		.uleb128 0x15
 837 004a 01       		.byte	0x1
 838 004b 27       		.uleb128 0x27
 839 004c 0C       		.uleb128 0xc
ARM GAS  /var/folders/dt/0wfd0knj7gs46m8vwfzktm600000gn/T//ccOjTrsk.s 			page 16


 840 004d 49       		.uleb128 0x49
 841 004e 13       		.uleb128 0x13
 842 004f 01       		.uleb128 0x1
 843 0050 13       		.uleb128 0x13
 844 0051 00       		.byte	0
 845 0052 00       		.byte	0
 846 0053 08       		.uleb128 0x8
 847 0054 05       		.uleb128 0x5
 848 0055 00       		.byte	0
 849 0056 49       		.uleb128 0x49
 850 0057 13       		.uleb128 0x13
 851 0058 00       		.byte	0
 852 0059 00       		.byte	0
 853 005a 09       		.uleb128 0x9
 854 005b 13       		.uleb128 0x13
 855 005c 01       		.byte	0x1
 856 005d 03       		.uleb128 0x3
 857 005e 0E       		.uleb128 0xe
 858 005f 0B       		.uleb128 0xb
 859 0060 0B       		.uleb128 0xb
 860 0061 3A       		.uleb128 0x3a
 861 0062 0B       		.uleb128 0xb
 862 0063 3B       		.uleb128 0x3b
 863 0064 0B       		.uleb128 0xb
 864 0065 01       		.uleb128 0x1
 865 0066 13       		.uleb128 0x13
 866 0067 00       		.byte	0
 867 0068 00       		.byte	0
 868 0069 0A       		.uleb128 0xa
 869 006a 0D       		.uleb128 0xd
 870 006b 00       		.byte	0
 871 006c 03       		.uleb128 0x3
 872 006d 0E       		.uleb128 0xe
 873 006e 3A       		.uleb128 0x3a
 874 006f 0B       		.uleb128 0xb
 875 0070 3B       		.uleb128 0x3b
 876 0071 0B       		.uleb128 0xb
 877 0072 49       		.uleb128 0x49
 878 0073 13       		.uleb128 0x13
 879 0074 38       		.uleb128 0x38
 880 0075 0A       		.uleb128 0xa
 881 0076 00       		.byte	0
 882 0077 00       		.byte	0
 883 0078 0B       		.uleb128 0xb
 884 0079 13       		.uleb128 0x13
 885 007a 01       		.byte	0x1
 886 007b 0B       		.uleb128 0xb
 887 007c 0B       		.uleb128 0xb
 888 007d 3A       		.uleb128 0x3a
 889 007e 0B       		.uleb128 0xb
 890 007f 3B       		.uleb128 0x3b
 891 0080 0B       		.uleb128 0xb
 892 0081 01       		.uleb128 0x1
 893 0082 13       		.uleb128 0x13
 894 0083 00       		.byte	0
 895 0084 00       		.byte	0
 896 0085 0C       		.uleb128 0xc
ARM GAS  /var/folders/dt/0wfd0knj7gs46m8vwfzktm600000gn/T//ccOjTrsk.s 			page 17


 897 0086 2E       		.uleb128 0x2e
 898 0087 01       		.byte	0x1
 899 0088 3F       		.uleb128 0x3f
 900 0089 0C       		.uleb128 0xc
 901 008a 03       		.uleb128 0x3
 902 008b 0E       		.uleb128 0xe
 903 008c 3A       		.uleb128 0x3a
 904 008d 0B       		.uleb128 0xb
 905 008e 3B       		.uleb128 0x3b
 906 008f 0B       		.uleb128 0xb
 907 0090 27       		.uleb128 0x27
 908 0091 0C       		.uleb128 0xc
 909 0092 11       		.uleb128 0x11
 910 0093 01       		.uleb128 0x1
 911 0094 12       		.uleb128 0x12
 912 0095 01       		.uleb128 0x1
 913 0096 40       		.uleb128 0x40
 914 0097 06       		.uleb128 0x6
 915 0098 9742     		.uleb128 0x2117
 916 009a 0C       		.uleb128 0xc
 917 009b 01       		.uleb128 0x1
 918 009c 13       		.uleb128 0x13
 919 009d 00       		.byte	0
 920 009e 00       		.byte	0
 921 009f 0D       		.uleb128 0xd
 922 00a0 05       		.uleb128 0x5
 923 00a1 00       		.byte	0
 924 00a2 03       		.uleb128 0x3
 925 00a3 08       		.uleb128 0x8
 926 00a4 3A       		.uleb128 0x3a
 927 00a5 0B       		.uleb128 0xb
 928 00a6 3B       		.uleb128 0x3b
 929 00a7 0B       		.uleb128 0xb
 930 00a8 49       		.uleb128 0x49
 931 00a9 13       		.uleb128 0x13
 932 00aa 02       		.uleb128 0x2
 933 00ab 06       		.uleb128 0x6
 934 00ac 00       		.byte	0
 935 00ad 00       		.byte	0
 936 00ae 0E       		.uleb128 0xe
 937 00af 05       		.uleb128 0x5
 938 00b0 00       		.byte	0
 939 00b1 03       		.uleb128 0x3
 940 00b2 0E       		.uleb128 0xe
 941 00b3 3A       		.uleb128 0x3a
 942 00b4 0B       		.uleb128 0xb
 943 00b5 3B       		.uleb128 0x3b
 944 00b6 0B       		.uleb128 0xb
 945 00b7 49       		.uleb128 0x49
 946 00b8 13       		.uleb128 0x13
 947 00b9 02       		.uleb128 0x2
 948 00ba 06       		.uleb128 0x6
 949 00bb 00       		.byte	0
 950 00bc 00       		.byte	0
 951 00bd 0F       		.uleb128 0xf
 952 00be 898201   		.uleb128 0x4109
 953 00c1 01       		.byte	0x1
ARM GAS  /var/folders/dt/0wfd0knj7gs46m8vwfzktm600000gn/T//ccOjTrsk.s 			page 18


 954 00c2 11       		.uleb128 0x11
 955 00c3 01       		.uleb128 0x1
 956 00c4 31       		.uleb128 0x31
 957 00c5 13       		.uleb128 0x13
 958 00c6 00       		.byte	0
 959 00c7 00       		.byte	0
 960 00c8 10       		.uleb128 0x10
 961 00c9 8A8201   		.uleb128 0x410a
 962 00cc 00       		.byte	0
 963 00cd 02       		.uleb128 0x2
 964 00ce 0A       		.uleb128 0xa
 965 00cf 9142     		.uleb128 0x2111
 966 00d1 0A       		.uleb128 0xa
 967 00d2 00       		.byte	0
 968 00d3 00       		.byte	0
 969 00d4 11       		.uleb128 0x11
 970 00d5 2E       		.uleb128 0x2e
 971 00d6 01       		.byte	0x1
 972 00d7 3F       		.uleb128 0x3f
 973 00d8 0C       		.uleb128 0xc
 974 00d9 03       		.uleb128 0x3
 975 00da 0E       		.uleb128 0xe
 976 00db 3A       		.uleb128 0x3a
 977 00dc 0B       		.uleb128 0xb
 978 00dd 3B       		.uleb128 0x3b
 979 00de 0B       		.uleb128 0xb
 980 00df 27       		.uleb128 0x27
 981 00e0 0C       		.uleb128 0xc
 982 00e1 49       		.uleb128 0x49
 983 00e2 13       		.uleb128 0x13
 984 00e3 11       		.uleb128 0x11
 985 00e4 01       		.uleb128 0x1
 986 00e5 12       		.uleb128 0x12
 987 00e6 01       		.uleb128 0x1
 988 00e7 40       		.uleb128 0x40
 989 00e8 06       		.uleb128 0x6
 990 00e9 9642     		.uleb128 0x2116
 991 00eb 0C       		.uleb128 0xc
 992 00ec 01       		.uleb128 0x1
 993 00ed 13       		.uleb128 0x13
 994 00ee 00       		.byte	0
 995 00ef 00       		.byte	0
 996 00f0 12       		.uleb128 0x12
 997 00f1 34       		.uleb128 0x34
 998 00f2 00       		.byte	0
 999 00f3 03       		.uleb128 0x3
 1000 00f4 0E       		.uleb128 0xe
 1001 00f5 3A       		.uleb128 0x3a
 1002 00f6 0B       		.uleb128 0xb
 1003 00f7 3B       		.uleb128 0x3b
 1004 00f8 0B       		.uleb128 0xb
 1005 00f9 49       		.uleb128 0x49
 1006 00fa 13       		.uleb128 0x13
 1007 00fb 02       		.uleb128 0x2
 1008 00fc 06       		.uleb128 0x6
 1009 00fd 00       		.byte	0
 1010 00fe 00       		.byte	0
ARM GAS  /var/folders/dt/0wfd0knj7gs46m8vwfzktm600000gn/T//ccOjTrsk.s 			page 19


 1011 00ff 13       		.uleb128 0x13
 1012 0100 898201   		.uleb128 0x4109
 1013 0103 00       		.byte	0
 1014 0104 11       		.uleb128 0x11
 1015 0105 01       		.uleb128 0x1
 1016 0106 31       		.uleb128 0x31
 1017 0107 13       		.uleb128 0x13
 1018 0108 00       		.byte	0
 1019 0109 00       		.byte	0
 1020 010a 14       		.uleb128 0x14
 1021 010b 2E       		.uleb128 0x2e
 1022 010c 01       		.byte	0x1
 1023 010d 3F       		.uleb128 0x3f
 1024 010e 0C       		.uleb128 0xc
 1025 010f 03       		.uleb128 0x3
 1026 0110 0E       		.uleb128 0xe
 1027 0111 3A       		.uleb128 0x3a
 1028 0112 0B       		.uleb128 0xb
 1029 0113 3B       		.uleb128 0x3b
 1030 0114 0B       		.uleb128 0xb
 1031 0115 27       		.uleb128 0x27
 1032 0116 0C       		.uleb128 0xc
 1033 0117 49       		.uleb128 0x49
 1034 0118 13       		.uleb128 0x13
 1035 0119 11       		.uleb128 0x11
 1036 011a 01       		.uleb128 0x1
 1037 011b 12       		.uleb128 0x12
 1038 011c 01       		.uleb128 0x1
 1039 011d 40       		.uleb128 0x40
 1040 011e 06       		.uleb128 0x6
 1041 011f 9742     		.uleb128 0x2117
 1042 0121 0C       		.uleb128 0xc
 1043 0122 01       		.uleb128 0x1
 1044 0123 13       		.uleb128 0x13
 1045 0124 00       		.byte	0
 1046 0125 00       		.byte	0
 1047 0126 15       		.uleb128 0x15
 1048 0127 0B       		.uleb128 0xb
 1049 0128 01       		.byte	0x1
 1050 0129 55       		.uleb128 0x55
 1051 012a 06       		.uleb128 0x6
 1052 012b 01       		.uleb128 0x1
 1053 012c 13       		.uleb128 0x13
 1054 012d 00       		.byte	0
 1055 012e 00       		.byte	0
 1056 012f 16       		.uleb128 0x16
 1057 0130 34       		.uleb128 0x34
 1058 0131 00       		.byte	0
 1059 0132 03       		.uleb128 0x3
 1060 0133 08       		.uleb128 0x8
 1061 0134 3A       		.uleb128 0x3a
 1062 0135 0B       		.uleb128 0xb
 1063 0136 3B       		.uleb128 0x3b
 1064 0137 0B       		.uleb128 0xb
 1065 0138 49       		.uleb128 0x49
 1066 0139 13       		.uleb128 0x13
 1067 013a 02       		.uleb128 0x2
ARM GAS  /var/folders/dt/0wfd0knj7gs46m8vwfzktm600000gn/T//ccOjTrsk.s 			page 20


 1068 013b 06       		.uleb128 0x6
 1069 013c 00       		.byte	0
 1070 013d 00       		.byte	0
 1071 013e 17       		.uleb128 0x17
 1072 013f 0B       		.uleb128 0xb
 1073 0140 01       		.byte	0x1
 1074 0141 11       		.uleb128 0x11
 1075 0142 01       		.uleb128 0x1
 1076 0143 12       		.uleb128 0x12
 1077 0144 01       		.uleb128 0x1
 1078 0145 01       		.uleb128 0x1
 1079 0146 13       		.uleb128 0x13
 1080 0147 00       		.byte	0
 1081 0148 00       		.byte	0
 1082 0149 18       		.uleb128 0x18
 1083 014a 898201   		.uleb128 0x4109
 1084 014d 01       		.byte	0x1
 1085 014e 11       		.uleb128 0x11
 1086 014f 01       		.uleb128 0x1
 1087 0150 31       		.uleb128 0x31
 1088 0151 13       		.uleb128 0x13
 1089 0152 01       		.uleb128 0x1
 1090 0153 13       		.uleb128 0x13
 1091 0154 00       		.byte	0
 1092 0155 00       		.byte	0
 1093 0156 19       		.uleb128 0x19
 1094 0157 2E       		.uleb128 0x2e
 1095 0158 01       		.byte	0x1
 1096 0159 3F       		.uleb128 0x3f
 1097 015a 0C       		.uleb128 0xc
 1098 015b 03       		.uleb128 0x3
 1099 015c 0E       		.uleb128 0xe
 1100 015d 3A       		.uleb128 0x3a
 1101 015e 0B       		.uleb128 0xb
 1102 015f 3B       		.uleb128 0x3b
 1103 0160 0B       		.uleb128 0xb
 1104 0161 27       		.uleb128 0x27
 1105 0162 0C       		.uleb128 0xc
 1106 0163 3C       		.uleb128 0x3c
 1107 0164 0C       		.uleb128 0xc
 1108 0165 01       		.uleb128 0x1
 1109 0166 13       		.uleb128 0x13
 1110 0167 00       		.byte	0
 1111 0168 00       		.byte	0
 1112 0169 1A       		.uleb128 0x1a
 1113 016a 2E       		.uleb128 0x2e
 1114 016b 00       		.byte	0
 1115 016c 3F       		.uleb128 0x3f
 1116 016d 0C       		.uleb128 0xc
 1117 016e 03       		.uleb128 0x3
 1118 016f 0E       		.uleb128 0xe
 1119 0170 3A       		.uleb128 0x3a
 1120 0171 0B       		.uleb128 0xb
 1121 0172 3B       		.uleb128 0x3b
 1122 0173 0B       		.uleb128 0xb
 1123 0174 27       		.uleb128 0x27
 1124 0175 0C       		.uleb128 0xc
ARM GAS  /var/folders/dt/0wfd0knj7gs46m8vwfzktm600000gn/T//ccOjTrsk.s 			page 21


 1125 0176 3C       		.uleb128 0x3c
 1126 0177 0C       		.uleb128 0xc
 1127 0178 00       		.byte	0
 1128 0179 00       		.byte	0
 1129 017a 00       		.byte	0
 1130              		.section	.debug_loc,"",%progbits
 1131              	.Ldebug_loc0:
 1132              	.LLST0:
 1133 0000 00000000 		.4byte	.LFB7
 1134 0004 08000000 		.4byte	.LCFI0
 1135 0008 0200     		.2byte	0x2
 1136 000a 7D       		.byte	0x7d
 1137 000b 00       		.sleb128 0
 1138 000c 08000000 		.4byte	.LCFI0
 1139 0010 28000000 		.4byte	.LFE7
 1140 0014 0200     		.2byte	0x2
 1141 0016 7D       		.byte	0x7d
 1142 0017 10       		.sleb128 16
 1143 0018 00000000 		.4byte	0
 1144 001c 00000000 		.4byte	0
 1145              	.LLST1:
 1146 0020 00000000 		.4byte	.LVL0
 1147 0024 12000000 		.4byte	.LVL1
 1148 0028 0100     		.2byte	0x1
 1149 002a 50       		.byte	0x50
 1150 002b 12000000 		.4byte	.LVL1
 1151 002f 28000000 		.4byte	.LFE7
 1152 0033 0100     		.2byte	0x1
 1153 0035 54       		.byte	0x54
 1154 0036 00000000 		.4byte	0
 1155 003a 00000000 		.4byte	0
 1156              	.LLST2:
 1157 003e 00000000 		.4byte	.LVL0
 1158 0042 15000000 		.4byte	.LVL2-1
 1159 0046 0100     		.2byte	0x1
 1160 0048 51       		.byte	0x51
 1161 0049 15000000 		.4byte	.LVL2-1
 1162 004d 18000000 		.4byte	.LVL3
 1163 0051 0100     		.2byte	0x1
 1164 0053 55       		.byte	0x55
 1165 0054 18000000 		.4byte	.LVL3
 1166 0058 1C000000 		.4byte	.LVL4
 1167 005c 0300     		.2byte	0x3
 1168 005e 75       		.byte	0x75
 1169 005f 79       		.sleb128 -7
 1170 0060 9F       		.byte	0x9f
 1171 0061 1C000000 		.4byte	.LVL4
 1172 0065 28000000 		.4byte	.LFE7
 1173 0069 0400     		.2byte	0x4
 1174 006b F3       		.byte	0xf3
 1175 006c 01       		.uleb128 0x1
 1176 006d 51       		.byte	0x51
 1177 006e 9F       		.byte	0x9f
 1178 006f 00000000 		.4byte	0
 1179 0073 00000000 		.4byte	0
 1180              	.LLST3:
 1181 0077 00000000 		.4byte	.LVL0
ARM GAS  /var/folders/dt/0wfd0knj7gs46m8vwfzktm600000gn/T//ccOjTrsk.s 			page 22


 1182 007b 15000000 		.4byte	.LVL2-1
 1183 007f 0100     		.2byte	0x1
 1184 0081 52       		.byte	0x52
 1185 0082 15000000 		.4byte	.LVL2-1
 1186 0086 28000000 		.4byte	.LFE7
 1187 008a 0100     		.2byte	0x1
 1188 008c 56       		.byte	0x56
 1189 008d 00000000 		.4byte	0
 1190 0091 00000000 		.4byte	0
 1191              	.LLST4:
 1192 0095 00000000 		.4byte	.LFB8
 1193 0099 02000000 		.4byte	.LCFI1
 1194 009d 0200     		.2byte	0x2
 1195 009f 7D       		.byte	0x7d
 1196 00a0 00       		.sleb128 0
 1197 00a1 02000000 		.4byte	.LCFI1
 1198 00a5 2C000000 		.4byte	.LFE8
 1199 00a9 0200     		.2byte	0x2
 1200 00ab 7D       		.byte	0x7d
 1201 00ac 08       		.sleb128 8
 1202 00ad 00000000 		.4byte	0
 1203 00b1 00000000 		.4byte	0
 1204              	.LLST5:
 1205 00b5 00000000 		.4byte	.LVL5
 1206 00b9 07000000 		.4byte	.LVL6-1
 1207 00bd 0100     		.2byte	0x1
 1208 00bf 50       		.byte	0x50
 1209 00c0 07000000 		.4byte	.LVL6-1
 1210 00c4 2C000000 		.4byte	.LFE8
 1211 00c8 0100     		.2byte	0x1
 1212 00ca 54       		.byte	0x54
 1213 00cb 00000000 		.4byte	0
 1214 00cf 00000000 		.4byte	0
 1215              	.LLST6:
 1216 00d3 0C000000 		.4byte	.LVL7
 1217 00d7 1A000000 		.4byte	.LVL8
 1218 00db 0100     		.2byte	0x1
 1219 00dd 50       		.byte	0x50
 1220 00de 1A000000 		.4byte	.LVL8
 1221 00e2 1B000000 		.4byte	.LVL9-1
 1222 00e6 0200     		.2byte	0x2
 1223 00e8 74       		.byte	0x74
 1224 00e9 00       		.sleb128 0
 1225 00ea 1C000000 		.4byte	.LVL9
 1226 00ee 1E000000 		.4byte	.LVL10
 1227 00f2 0100     		.2byte	0x1
 1228 00f4 50       		.byte	0x50
 1229 00f5 00000000 		.4byte	0
 1230 00f9 00000000 		.4byte	0
 1231              	.LLST7:
 1232 00fd 00000000 		.4byte	.LFB9
 1233 0101 02000000 		.4byte	.LCFI2
 1234 0105 0200     		.2byte	0x2
 1235 0107 7D       		.byte	0x7d
 1236 0108 00       		.sleb128 0
 1237 0109 02000000 		.4byte	.LCFI2
 1238 010d 24000000 		.4byte	.LFE9
ARM GAS  /var/folders/dt/0wfd0knj7gs46m8vwfzktm600000gn/T//ccOjTrsk.s 			page 23


 1239 0111 0200     		.2byte	0x2
 1240 0113 7D       		.byte	0x7d
 1241 0114 08       		.sleb128 8
 1242 0115 00000000 		.4byte	0
 1243 0119 00000000 		.4byte	0
 1244              	.LLST8:
 1245 011d 00000000 		.4byte	.LVL12
 1246 0121 0D000000 		.4byte	.LVL15-1
 1247 0125 0100     		.2byte	0x1
 1248 0127 50       		.byte	0x50
 1249 0128 0D000000 		.4byte	.LVL15-1
 1250 012c 16000000 		.4byte	.LVL17
 1251 0130 0100     		.2byte	0x1
 1252 0132 54       		.byte	0x54
 1253 0133 16000000 		.4byte	.LVL17
 1254 0137 24000000 		.4byte	.LFE9
 1255 013b 0400     		.2byte	0x4
 1256 013d F3       		.byte	0xf3
 1257 013e 01       		.uleb128 0x1
 1258 013f 50       		.byte	0x50
 1259 0140 9F       		.byte	0x9f
 1260 0141 00000000 		.4byte	0
 1261 0145 00000000 		.4byte	0
 1262              	.LLST9:
 1263 0149 16000000 		.4byte	.LVL17
 1264 014d 19000000 		.4byte	.LVL18-1
 1265 0151 0100     		.2byte	0x1
 1266 0153 50       		.byte	0x50
 1267 0154 19000000 		.4byte	.LVL18-1
 1268 0158 24000000 		.4byte	.LFE9
 1269 015c 0100     		.2byte	0x1
 1270 015e 54       		.byte	0x54
 1271 015f 00000000 		.4byte	0
 1272 0163 00000000 		.4byte	0
 1273              	.LLST10:
 1274 0167 0A000000 		.4byte	.LVL14
 1275 016b 0D000000 		.4byte	.LVL15-1
 1276 016f 0100     		.2byte	0x1
 1277 0171 53       		.byte	0x53
 1278 0172 00000000 		.4byte	0
 1279 0176 00000000 		.4byte	0
 1280              	.LLST11:
 1281 017a 20000000 		.4byte	.LVL20
 1282 017e 24000000 		.4byte	.LFE9
 1283 0182 0100     		.2byte	0x1
 1284 0184 53       		.byte	0x53
 1285 0185 00000000 		.4byte	0
 1286 0189 00000000 		.4byte	0
 1287              	.LLST12:
 1288 018d 00000000 		.4byte	.LFB10
 1289 0191 02000000 		.4byte	.LCFI3
 1290 0195 0200     		.2byte	0x2
 1291 0197 7D       		.byte	0x7d
 1292 0198 00       		.sleb128 0
 1293 0199 02000000 		.4byte	.LCFI3
 1294 019d 28000000 		.4byte	.LFE10
 1295 01a1 0200     		.2byte	0x2
ARM GAS  /var/folders/dt/0wfd0knj7gs46m8vwfzktm600000gn/T//ccOjTrsk.s 			page 24


 1296 01a3 7D       		.byte	0x7d
 1297 01a4 10       		.sleb128 16
 1298 01a5 00000000 		.4byte	0
 1299 01a9 00000000 		.4byte	0
 1300              	.LLST13:
 1301 01ad 00000000 		.4byte	.LVL21
 1302 01b1 09000000 		.4byte	.LVL23-1
 1303 01b5 0100     		.2byte	0x1
 1304 01b7 50       		.byte	0x50
 1305 01b8 09000000 		.4byte	.LVL23-1
 1306 01bc 28000000 		.4byte	.LFE10
 1307 01c0 0100     		.2byte	0x1
 1308 01c2 55       		.byte	0x55
 1309 01c3 00000000 		.4byte	0
 1310 01c7 00000000 		.4byte	0
 1311              	.LLST14:
 1312 01cb 00000000 		.4byte	.LVL21
 1313 01cf 09000000 		.4byte	.LVL23-1
 1314 01d3 0100     		.2byte	0x1
 1315 01d5 51       		.byte	0x51
 1316 01d6 09000000 		.4byte	.LVL23-1
 1317 01da 28000000 		.4byte	.LFE10
 1318 01de 0100     		.2byte	0x1
 1319 01e0 54       		.byte	0x54
 1320 01e1 00000000 		.4byte	0
 1321 01e5 00000000 		.4byte	0
 1322              	.LLST15:
 1323 01e9 06000000 		.4byte	.LVL22
 1324 01ed 09000000 		.4byte	.LVL23-1
 1325 01f1 0100     		.2byte	0x1
 1326 01f3 51       		.byte	0x51
 1327 01f4 09000000 		.4byte	.LVL23-1
 1328 01f8 28000000 		.4byte	.LFE10
 1329 01fc 0100     		.2byte	0x1
 1330 01fe 54       		.byte	0x54
 1331 01ff 00000000 		.4byte	0
 1332 0203 00000000 		.4byte	0
 1333              	.LLST16:
 1334 0207 00000000 		.4byte	.LFB11
 1335 020b 02000000 		.4byte	.LCFI4
 1336 020f 0200     		.2byte	0x2
 1337 0211 7D       		.byte	0x7d
 1338 0212 00       		.sleb128 0
 1339 0213 02000000 		.4byte	.LCFI4
 1340 0217 24000000 		.4byte	.LFE11
 1341 021b 0200     		.2byte	0x2
 1342 021d 7D       		.byte	0x7d
 1343 021e 10       		.sleb128 16
 1344 021f 00000000 		.4byte	0
 1345 0223 00000000 		.4byte	0
 1346              	.LLST17:
 1347 0227 00000000 		.4byte	.LVL25
 1348 022b 0F000000 		.4byte	.LVL28-1
 1349 022f 0100     		.2byte	0x1
 1350 0231 50       		.byte	0x50
 1351 0232 0F000000 		.4byte	.LVL28-1
 1352 0236 24000000 		.4byte	.LFE11
ARM GAS  /var/folders/dt/0wfd0knj7gs46m8vwfzktm600000gn/T//ccOjTrsk.s 			page 25


 1353 023a 0100     		.2byte	0x1
 1354 023c 55       		.byte	0x55
 1355 023d 00000000 		.4byte	0
 1356 0241 00000000 		.4byte	0
 1357              	.LLST18:
 1358 0245 00000000 		.4byte	.LVL25
 1359 0249 0F000000 		.4byte	.LVL28-1
 1360 024d 0100     		.2byte	0x1
 1361 024f 51       		.byte	0x51
 1362 0250 0F000000 		.4byte	.LVL28-1
 1363 0254 24000000 		.4byte	.LFE11
 1364 0258 0100     		.2byte	0x1
 1365 025a 54       		.byte	0x54
 1366 025b 00000000 		.4byte	0
 1367 025f 00000000 		.4byte	0
 1368              	.LLST19:
 1369 0263 0C000000 		.4byte	.LVL27
 1370 0267 0F000000 		.4byte	.LVL28-1
 1371 026b 0100     		.2byte	0x1
 1372 026d 53       		.byte	0x53
 1373 026e 00000000 		.4byte	0
 1374 0272 00000000 		.4byte	0
 1375              	.LLST20:
 1376 0276 22000000 		.4byte	.LVL32
 1377 027a 24000000 		.4byte	.LFE11
 1378 027e 0100     		.2byte	0x1
 1379 0280 53       		.byte	0x53
 1380 0281 00000000 		.4byte	0
 1381 0285 00000000 		.4byte	0
 1382              		.section	.debug_aranges,"",%progbits
 1383 0000 3C000000 		.4byte	0x3c
 1384 0004 0200     		.2byte	0x2
 1385 0006 00000000 		.4byte	.Ldebug_info0
 1386 000a 04       		.byte	0x4
 1387 000b 00       		.byte	0
 1388 000c 0000     		.2byte	0
 1389 000e 0000     		.2byte	0
 1390 0010 00000000 		.4byte	.LFB7
 1391 0014 28000000 		.4byte	.LFE7-.LFB7
 1392 0018 00000000 		.4byte	.LFB8
 1393 001c 2C000000 		.4byte	.LFE8-.LFB8
 1394 0020 00000000 		.4byte	.LFB9
 1395 0024 24000000 		.4byte	.LFE9-.LFB9
 1396 0028 00000000 		.4byte	.LFB10
 1397 002c 28000000 		.4byte	.LFE10-.LFB10
 1398 0030 00000000 		.4byte	.LFB11
 1399 0034 24000000 		.4byte	.LFE11-.LFB11
 1400 0038 00000000 		.4byte	0
 1401 003c 00000000 		.4byte	0
 1402              		.section	.debug_ranges,"",%progbits
 1403              	.Ldebug_ranges0:
 1404 0000 02000000 		.4byte	.LBB2
 1405 0004 04000000 		.4byte	.LBE2
 1406 0008 06000000 		.4byte	.LBB3
 1407 000c 0A000000 		.4byte	.LBE3
 1408 0010 00000000 		.4byte	0
 1409 0014 00000000 		.4byte	0
ARM GAS  /var/folders/dt/0wfd0knj7gs46m8vwfzktm600000gn/T//ccOjTrsk.s 			page 26


 1410 0018 00000000 		.4byte	.LFB7
 1411 001c 28000000 		.4byte	.LFE7
 1412 0020 00000000 		.4byte	.LFB8
 1413 0024 2C000000 		.4byte	.LFE8
 1414 0028 00000000 		.4byte	.LFB9
 1415 002c 24000000 		.4byte	.LFE9
 1416 0030 00000000 		.4byte	.LFB10
 1417 0034 28000000 		.4byte	.LFE10
 1418 0038 00000000 		.4byte	.LFB11
 1419 003c 24000000 		.4byte	.LFE11
 1420 0040 00000000 		.4byte	0
 1421 0044 00000000 		.4byte	0
 1422              		.section	.debug_line,"",%progbits
 1423              	.Ldebug_line0:
 1424 0000 EA010000 		.section	.debug_str,"MS",%progbits,1
 1424      02005B01 
 1424      00000201 
 1424      FB0E0D00 
 1424      01010101 
 1425              	.LASF30:
 1426 0000 474E5520 		.ascii	"GNU C 4.7.2\000"
 1426      4320342E 
 1426      372E3200 
 1427              	.LASF6:
 1428 000c 73697A65 		.ascii	"size_t\000"
 1428      5F7400
 1429              	.LASF28:
 1430 0013 6462675F 		.ascii	"dbg_check_lock\000"
 1430      63686563 
 1430      6B5F6C6F 
 1430      636B00
 1431              	.LASF29:
 1432 0022 6462675F 		.ascii	"dbg_check_unlock\000"
 1432      63686563 
 1432      6B5F756E 
 1432      6C6F636B 
 1432      00
 1433              	.LASF15:
 1434 0033 6D705F6F 		.ascii	"mp_object_size\000"
 1434      626A6563 
 1434      745F7369 
 1434      7A6500
 1435              	.LASF27:
 1436 0042 63684462 		.ascii	"chDbgCheckClassI\000"
 1436      67436865 
 1436      636B436C 
 1436      61737349 
 1436      00
 1437              	.LASF33:
 1438 0053 706F6F6C 		.ascii	"pool_header\000"
 1438      5F686561 
 1438      64657200 
 1439              	.LASF19:
 1440 005f 73697A65 		.ascii	"size\000"
 1440      00
 1441              	.LASF8:
 1442 0064 6C6F6E67 		.ascii	"long unsigned int\000"
ARM GAS  /var/folders/dt/0wfd0knj7gs46m8vwfzktm600000gn/T//ccOjTrsk.s 			page 27


 1442      20756E73 
 1442      69676E65 
 1442      6420696E 
 1442      7400
 1443              	.LASF4:
 1444 0076 73686F72 		.ascii	"short unsigned int\000"
 1444      7420756E 
 1444      7369676E 
 1444      65642069 
 1444      6E7400
 1445              	.LASF20:
 1446 0089 70726F76 		.ascii	"provider\000"
 1446      69646572 
 1446      00
 1447              	.LASF25:
 1448 0092 6368506F 		.ascii	"chPoolFreeI\000"
 1448      6F6C4672 
 1448      65654900 
 1449              	.LASF31:
 1450 009e 2E2E2F2E 		.ascii	"../../os/kernel/src/chmempools.c\000"
 1450      2E2F6F73 
 1450      2F6B6572 
 1450      6E656C2F 
 1450      7372632F 
 1451              	.LASF2:
 1452 00bf 756E7369 		.ascii	"unsigned char\000"
 1452      676E6564 
 1452      20636861 
 1452      7200
 1453              	.LASF32:
 1454 00cd 2F746D70 		.ascii	"/tmp/mlab-chibios/demos/STM32F107-serialshell\000"
 1454      2F6D6C61 
 1454      622D6368 
 1454      6962696F 
 1454      732F6465 
 1455              	.LASF26:
 1456 00fb 6368506F 		.ascii	"chPoolFree\000"
 1456      6F6C4672 
 1456      656500
 1457              	.LASF17:
 1458 0106 4D656D6F 		.ascii	"MemoryPool\000"
 1458      7279506F 
 1458      6F6C00
 1459              	.LASF23:
 1460 0111 6F626A70 		.ascii	"objp\000"
 1460      00
 1461              	.LASF21:
 1462 0116 6368506F 		.ascii	"chPoolAllocI\000"
 1462      6F6C416C 
 1462      6C6F6349 
 1462      00
 1463              	.LASF0:
 1464 0123 756E7369 		.ascii	"unsigned int\000"
 1464      676E6564 
 1464      20696E74 
 1464      00
 1465              	.LASF10:
ARM GAS  /var/folders/dt/0wfd0knj7gs46m8vwfzktm600000gn/T//ccOjTrsk.s 			page 28


 1466 0130 6C6F6E67 		.ascii	"long long unsigned int\000"
 1466      206C6F6E 
 1466      6720756E 
 1466      7369676E 
 1466      65642069 
 1467              	.LASF13:
 1468 0147 70685F6E 		.ascii	"ph_next\000"
 1468      65787400 
 1469              	.LASF11:
 1470 014f 73697A65 		.ascii	"sizetype\000"
 1470      74797065 
 1470      00
 1471              	.LASF9:
 1472 0158 6C6F6E67 		.ascii	"long long int\000"
 1472      206C6F6E 
 1472      6720696E 
 1472      7400
 1473              	.LASF18:
 1474 0166 63686172 		.ascii	"char\000"
 1474      00
 1475              	.LASF34:
 1476 016b 63684462 		.ascii	"chDbgPanic\000"
 1476      6750616E 
 1476      696300
 1477              	.LASF12:
 1478 0176 6D656D67 		.ascii	"memgetfunc_t\000"
 1478      65746675 
 1478      6E635F74 
 1478      00
 1479              	.LASF16:
 1480 0183 6D705F70 		.ascii	"mp_provider\000"
 1480      726F7669 
 1480      64657200 
 1481              	.LASF3:
 1482 018f 73686F72 		.ascii	"short int\000"
 1482      7420696E 
 1482      7400
 1483              	.LASF22:
 1484 0199 6368506F 		.ascii	"chPoolAlloc\000"
 1484      6F6C416C 
 1484      6C6F6300 
 1485              	.LASF7:
 1486 01a5 75696E74 		.ascii	"uint32_t\000"
 1486      33325F74 
 1486      00
 1487              	.LASF5:
 1488 01ae 6C6F6E67 		.ascii	"long int\000"
 1488      20696E74 
 1488      00
 1489              	.LASF1:
 1490 01b7 7369676E 		.ascii	"signed char\000"
 1490      65642063 
 1490      68617200 
 1491              	.LASF14:
 1492 01c3 6D705F6E 		.ascii	"mp_next\000"
 1492      65787400 
 1493              	.LASF24:
ARM GAS  /var/folders/dt/0wfd0knj7gs46m8vwfzktm600000gn/T//ccOjTrsk.s 			page 29


 1494 01cb 6368506F 		.ascii	"chPoolInit\000"
 1494      6F6C496E 
 1494      697400
 1495              		.ident	"GCC: (GNU) 4.7.2"
ARM GAS  /var/folders/dt/0wfd0knj7gs46m8vwfzktm600000gn/T//ccOjTrsk.s 			page 30


DEFINED SYMBOLS
                            *ABS*:0000000000000000 chmempools.c
/var/folders/dt/0wfd0knj7gs46m8vwfzktm600000gn/T//ccOjTrsk.s:19     .text.chPoolInit:0000000000000000 $t
/var/folders/dt/0wfd0knj7gs46m8vwfzktm600000gn/T//ccOjTrsk.s:25     .text.chPoolInit:0000000000000000 chPoolInit
/var/folders/dt/0wfd0knj7gs46m8vwfzktm600000gn/T//ccOjTrsk.s:72     .text.chPoolInit:0000000000000024 $d
/var/folders/dt/0wfd0knj7gs46m8vwfzktm600000gn/T//ccOjTrsk.s:77     .text.chPoolAllocI:0000000000000000 $t
/var/folders/dt/0wfd0knj7gs46m8vwfzktm600000gn/T//ccOjTrsk.s:83     .text.chPoolAllocI:0000000000000000 chPoolAllocI
/var/folders/dt/0wfd0knj7gs46m8vwfzktm600000gn/T//ccOjTrsk.s:133    .text.chPoolAllocI:0000000000000028 $d
/var/folders/dt/0wfd0knj7gs46m8vwfzktm600000gn/T//ccOjTrsk.s:138    .text.chPoolAlloc:0000000000000000 $t
/var/folders/dt/0wfd0knj7gs46m8vwfzktm600000gn/T//ccOjTrsk.s:144    .text.chPoolAlloc:0000000000000000 chPoolAlloc
/var/folders/dt/0wfd0knj7gs46m8vwfzktm600000gn/T//ccOjTrsk.s:198    .text.chPoolFreeI:0000000000000000 $t
/var/folders/dt/0wfd0knj7gs46m8vwfzktm600000gn/T//ccOjTrsk.s:204    .text.chPoolFreeI:0000000000000000 chPoolFreeI
/var/folders/dt/0wfd0knj7gs46m8vwfzktm600000gn/T//ccOjTrsk.s:248    .text.chPoolFreeI:0000000000000024 $d
/var/folders/dt/0wfd0knj7gs46m8vwfzktm600000gn/T//ccOjTrsk.s:253    .text.chPoolFree:0000000000000000 $t
/var/folders/dt/0wfd0knj7gs46m8vwfzktm600000gn/T//ccOjTrsk.s:259    .text.chPoolFree:0000000000000000 chPoolFree
/var/folders/dt/0wfd0knj7gs46m8vwfzktm600000gn/T//ccOjTrsk.s:310    .rodata.str1.4:0000000000000000 $d
                     .debug_frame:0000000000000010 $d
/var/folders/dt/0wfd0knj7gs46m8vwfzktm600000gn/T//ccOjTrsk.s:76     .text.chPoolInit:0000000000000028 $t
/var/folders/dt/0wfd0knj7gs46m8vwfzktm600000gn/T//ccOjTrsk.s:137    .text.chPoolAllocI:000000000000002c $t
/var/folders/dt/0wfd0knj7gs46m8vwfzktm600000gn/T//ccOjTrsk.s:252    .text.chPoolFreeI:0000000000000028 $t

UNDEFINED SYMBOLS
chDbgPanic
chDbgCheckClassI
dbg_check_lock
dbg_check_unlock
