ARM GAS  /tmp/ccEQO5vb.s 			page 1


   1              		.syntax unified
   2              		.cpu cortex-m3
   3              		.fpu softvfp
   4              		.eabi_attribute 20, 1
   5              		.eabi_attribute 21, 1
   6              		.eabi_attribute 23, 3
   7              		.eabi_attribute 24, 1
   8              		.eabi_attribute 25, 1
   9              		.eabi_attribute 26, 1
  10              		.eabi_attribute 30, 2
  11              		.eabi_attribute 34, 1
  12              		.eabi_attribute 18, 4
  13              		.thumb
  14              		.file	"chmempools.c"
  15              		.text
  16              	.Ltext0:
  17              		.cfi_sections	.debug_frame
  18              		.section	.text.chPoolInit,"ax",%progbits
  19              		.align	2
  20              		.p2align 4,,15
  21              		.global	chPoolInit
  22              		.thumb
  23              		.thumb_func
  24              		.type	chPoolInit, %function
  25              	chPoolInit:
  26              	.LFB7:
  27              		.file 1 "../../os/kernel/src/chmempools.c"
  28              		.loc 1 61 0
  29              		.cfi_startproc
  30              		@ args = 0, pretend = 0, frame = 0
  31              		@ frame_needed = 0, uses_anonymous_args = 0
  32              	.LVL0:
  33 0000 70B5     		push	{r4, r5, r6, lr}
  34              	.LCFI0:
  35              		.cfi_def_cfa_offset 16
  36              		.cfi_offset 4, -16
  37              		.cfi_offset 5, -12
  38              		.cfi_offset 6, -8
  39              		.cfi_offset 14, -4
  40              		.loc 1 63 0
  41 0002 0446     		mov	r4, r0
  42              		.loc 1 61 0
  43 0004 0D46     		mov	r5, r1
  44 0006 1646     		mov	r6, r2
  45              		.loc 1 63 0
  46 0008 08B1     		cbz	r0, .L2
  47              		.loc 1 63 0 is_stmt 0 discriminator 2
  48 000a 0329     		cmp	r1, #3
  49 000c 02D8     		bhi	.L3
  50              	.L2:
  51              		.loc 1 63 0 discriminator 1
  52 000e 0548     		ldr	r0, .L8
  53              	.LVL1:
  54 0010 FFF7FEFF 		bl	chDbgPanic
  55              	.LVL2:
  56              	.L3:
  57              		.loc 1 66 0 is_stmt 1
ARM GAS  /tmp/ccEQO5vb.s 			page 2


  58 0014 E81D     		adds	r0, r5, #7
  59 0016 20F00705 		bic	r5, r0, #7
  60              	.LVL3:
  61              		.loc 1 65 0
  62 001a 0023     		movs	r3, #0
  63              		.loc 1 67 0
  64 001c 84E86800 		stmia	r4, {r3, r5, r6}
  65 0020 70BD     		pop	{r4, r5, r6, pc}
  66              	.L9:
  67 0022 00BF     		.align	2
  68              	.L8:
  69 0024 00000000 		.word	.LC0
  70              		.cfi_endproc
  71              	.LFE7:
  72              		.size	chPoolInit, .-chPoolInit
  73 0028 AFF30080 		.section	.text.chPoolAllocI,"ax",%progbits
  73      AFF30080 
  74              		.align	2
  75              		.p2align 4,,15
  76              		.global	chPoolAllocI
  77              		.thumb
  78              		.thumb_func
  79              		.type	chPoolAllocI, %function
  80              	chPoolAllocI:
  81              	.LFB8:
  82              		.loc 1 79 0
  83              		.cfi_startproc
  84              		@ args = 0, pretend = 0, frame = 0
  85              		@ frame_needed = 0, uses_anonymous_args = 0
  86              	.LVL4:
  87 0000 10B5     		push	{r4, lr}
  88              	.LCFI1:
  89              		.cfi_def_cfa_offset 8
  90              		.cfi_offset 4, -8
  91              		.cfi_offset 14, -4
  92              		.loc 1 79 0
  93 0002 0446     		mov	r4, r0
  94              		.loc 1 82 0
  95 0004 FFF7FEFF 		bl	chDbgCheckClassI
  96              	.LVL5:
  97              		.loc 1 83 0
  98 0008 4CB1     		cbz	r4, .L17
  99              	.L11:
 100              		.loc 1 85 0
 101 000a 2068     		ldr	r0, [r4, #0]
 102              	.LVL6:
 103 000c 10B1     		cbz	r0, .L12
 104              		.loc 1 86 0
 105 000e 0168     		ldr	r1, [r0, #0]
 106 0010 2160     		str	r1, [r4, #0]
 107 0012 10BD     		pop	{r4, pc}
 108              	.L12:
 109              		.loc 1 87 0
 110 0014 A368     		ldr	r3, [r4, #8]
 111 0016 0BB1     		cbz	r3, .L13
 112              		.loc 1 88 0
 113 0018 6068     		ldr	r0, [r4, #4]
ARM GAS  /tmp/ccEQO5vb.s 			page 3


 114              	.LVL7:
 115 001a 9847     		blx	r3
 116              	.LVL8:
 117              	.L13:
 118              		.loc 1 90 0
 119 001c 10BD     		pop	{r4, pc}
 120              	.LVL9:
 121              	.L17:
 122              		.loc 1 83 0 discriminator 1
 123 001e 0248     		ldr	r0, .L18
 124 0020 FFF7FEFF 		bl	chDbgPanic
 125              	.LVL10:
 126 0024 F1E7     		b	.L11
 127              	.L19:
 128 0026 00BF     		.align	2
 129              	.L18:
 130 0028 10000000 		.word	.LC1
 131              		.cfi_endproc
 132              	.LFE8:
 133              		.size	chPoolAllocI, .-chPoolAllocI
 134 002c AFF30080 		.section	.text.chPoolAlloc,"ax",%progbits
 135              		.align	2
 136              		.p2align 4,,15
 137              		.global	chPoolAlloc
 138              		.thumb
 139              		.thumb_func
 140              		.type	chPoolAlloc, %function
 141              	chPoolAlloc:
 142              	.LFB9:
 143              		.loc 1 101 0
 144              		.cfi_startproc
 145              		@ args = 0, pretend = 0, frame = 0
 146              		@ frame_needed = 0, uses_anonymous_args = 0
 147              	.LVL11:
 148 0000 10B5     		push	{r4, lr}
 149              	.LCFI2:
 150              		.cfi_def_cfa_offset 8
 151              		.cfi_offset 4, -8
 152              		.cfi_offset 14, -4
 153              	.LBB2:
 154              		.loc 1 104 0
 155 0002 2023     		movs	r3, #32
 156              	.LVL12:
 157              	.LBE2:
 158              		.loc 1 101 0
 159 0004 0446     		mov	r4, r0
 160              	.LBB3:
 161              		.loc 1 104 0
 162              	@ 104 "../../os/kernel/src/chmempools.c" 1
 163 0006 83F31188 		msr     BASEPRI, r3
 164              	@ 0 "" 2
 165              	.LVL13:
 166              		.thumb
 167              	.LBE3:
 168 000a FFF7FEFF 		bl	dbg_check_lock
 169              	.LVL14:
 170              		.loc 1 105 0
ARM GAS  /tmp/ccEQO5vb.s 			page 4


 171 000e 2046     		mov	r0, r4
 172 0010 FFF7FEFF 		bl	chPoolAllocI
 173              	.LVL15:
 174 0014 0446     		mov	r4, r0
 175              	.LVL16:
 176              		.loc 1 106 0
 177 0016 FFF7FEFF 		bl	dbg_check_unlock
 178              	.LVL17:
 179              	.LBB4:
 180 001a 0023     		movs	r3, #0
 181              	.LVL18:
 182              	@ 106 "../../os/kernel/src/chmempools.c" 1
 183 001c 83F31188 		msr     BASEPRI, r3
 184              	@ 0 "" 2
 185              	.LVL19:
 186              		.thumb
 187              	.LBE4:
 188              		.loc 1 108 0
 189 0020 2046     		mov	r0, r4
 190 0022 10BD     		pop	{r4, pc}
 191              		.cfi_endproc
 192              	.LFE9:
 193              		.size	chPoolAlloc, .-chPoolAlloc
 194 0024 AFF30080 		.section	.text.chPoolFreeI,"ax",%progbits
 194      AFF30080 
 194      AFF30080 
 195              		.align	2
 196              		.p2align 4,,15
 197              		.global	chPoolFreeI
 198              		.thumb
 199              		.thumb_func
 200              		.type	chPoolFreeI, %function
 201              	chPoolFreeI:
 202              	.LFB10:
 203              		.loc 1 122 0
 204              		.cfi_startproc
 205              		@ args = 0, pretend = 0, frame = 0
 206              		@ frame_needed = 0, uses_anonymous_args = 0
 207              	.LVL20:
 208 0000 38B5     		push	{r3, r4, r5, lr}
 209              	.LCFI3:
 210              		.cfi_def_cfa_offset 16
 211              		.cfi_offset 3, -16
 212              		.cfi_offset 4, -12
 213              		.cfi_offset 5, -8
 214              		.cfi_offset 14, -4
 215              		.loc 1 122 0
 216 0002 0546     		mov	r5, r0
 217 0004 0C46     		mov	r4, r1
 218              	.LVL21:
 219              		.loc 1 125 0
 220 0006 FFF7FEFF 		bl	chDbgCheckClassI
 221              	.LVL22:
 222              		.loc 1 126 0
 223 000a 15B1     		cbz	r5, .L22
 224              		.loc 1 126 0 is_stmt 0 discriminator 2
 225 000c 0CB1     		cbz	r4, .L22
ARM GAS  /tmp/ccEQO5vb.s 			page 5


 226              		.loc 1 126 0 discriminator 3
 227 000e 6307     		lsls	r3, r4, #29
 228 0010 02D0     		beq	.L23
 229              	.L22:
 230              		.loc 1 126 0 discriminator 1
 231 0012 0348     		ldr	r0, .L33
 232 0014 FFF7FEFF 		bl	chDbgPanic
 233              	.LVL23:
 234              	.L23:
 235              		.loc 1 129 0 is_stmt 1
 236 0018 2B68     		ldr	r3, [r5, #0]
 237 001a 2360     		str	r3, [r4, #0]
 238              		.loc 1 130 0
 239 001c 2C60     		str	r4, [r5, #0]
 240 001e 38BD     		pop	{r3, r4, r5, pc}
 241              	.L34:
 242              		.align	2
 243              	.L33:
 244 0020 24000000 		.word	.LC2
 245              		.cfi_endproc
 246              	.LFE10:
 247              		.size	chPoolFreeI, .-chPoolFreeI
 248 0024 AFF30080 		.section	.text.chPoolFree,"ax",%progbits
 248      AFF30080 
 248      AFF30080 
 249              		.align	2
 250              		.p2align 4,,15
 251              		.global	chPoolFree
 252              		.thumb
 253              		.thumb_func
 254              		.type	chPoolFree, %function
 255              	chPoolFree:
 256              	.LFB11:
 257              		.loc 1 145 0
 258              		.cfi_startproc
 259              		@ args = 0, pretend = 0, frame = 0
 260              		@ frame_needed = 0, uses_anonymous_args = 0
 261              	.LVL24:
 262 0000 38B5     		push	{r3, r4, r5, lr}
 263              	.LCFI4:
 264              		.cfi_def_cfa_offset 16
 265              		.cfi_offset 3, -16
 266              		.cfi_offset 4, -12
 267              		.cfi_offset 5, -8
 268              		.cfi_offset 14, -4
 269              		.loc 1 145 0
 270 0002 0546     		mov	r5, r0
 271 0004 0C46     		mov	r4, r1
 272              	.LBB5:
 273              		.loc 1 147 0
 274 0006 2023     		movs	r3, #32
 275              	.LVL25:
 276              	@ 147 "../../os/kernel/src/chmempools.c" 1
 277 0008 83F31188 		msr     BASEPRI, r3
 278              	@ 0 "" 2
 279              	.LVL26:
 280              		.thumb
ARM GAS  /tmp/ccEQO5vb.s 			page 6


 281              	.LBE5:
 282 000c FFF7FEFF 		bl	dbg_check_lock
 283              	.LVL27:
 284              		.loc 1 148 0
 285 0010 2846     		mov	r0, r5
 286 0012 2146     		mov	r1, r4
 287 0014 FFF7FEFF 		bl	chPoolFreeI
 288              	.LVL28:
 289              		.loc 1 149 0
 290 0018 FFF7FEFF 		bl	dbg_check_unlock
 291              	.LVL29:
 292              	.LBB6:
 293 001c 0023     		movs	r3, #0
 294              	.LVL30:
 295              	@ 149 "../../os/kernel/src/chmempools.c" 1
 296 001e 83F31188 		msr     BASEPRI, r3
 297              	@ 0 "" 2
 298              	.LVL31:
 299              		.thumb
 300 0022 38BD     		pop	{r3, r4, r5, pc}
 301              	.LBE6:
 302              		.cfi_endproc
 303              	.LFE11:
 304              		.size	chPoolFree, .-chPoolFree
 305 0024 AFF30080 		.section	.rodata.str1.4,"aMS",%progbits,1
 305      AFF30080 
 305      AFF30080 
 306              		.align	2
 307              	.LC0:
 308 0000 22636850 		.ascii	"\"chPoolInit\"()\000"
 308      6F6F6C49 
 308      6E697422 
 308      282900
 309 000f 00       		.space	1
 310              	.LC1:
 311 0010 22636850 		.ascii	"\"chPoolAllocI\"()\000"
 311      6F6F6C41 
 311      6C6C6F63 
 311      49222829 
 311      00
 312 0021 000000   		.space	3
 313              	.LC2:
 314 0024 22636850 		.ascii	"\"chPoolFreeI\"()\000"
 314      6F6F6C46 
 314      72656549 
 314      22282900 
 315              		.text
 316              	.Letext0:
 317              		.file 2 "/usr/bin/../lib/gcc/arm-none-eabi/4.7.4/include/stddef.h"
 318              		.file 3 "/usr/bin/../lib/gcc/arm-none-eabi/4.7.4/../../../../arm-none-eabi/include/stdint.h"
 319              		.file 4 "../../os/kernel/include/chmemcore.h"
 320              		.file 5 "../../os/kernel/include/chmempools.h"
 321              		.file 6 "../../os/kernel/include/chdebug.h"
 322              		.section	.debug_info,"",%progbits
 323              	.Ldebug_info0:
 324 0000 9B030000 		.4byte	0x39b
 325 0004 0200     		.2byte	0x2
ARM GAS  /tmp/ccEQO5vb.s 			page 7


 326 0006 00000000 		.4byte	.Ldebug_abbrev0
 327 000a 04       		.byte	0x4
 328 000b 01       		.uleb128 0x1
 329 000c F6000000 		.4byte	.LASF30
 330 0010 01       		.byte	0x1
 331 0011 92000000 		.4byte	.LASF31
 332 0015 B4010000 		.4byte	.LASF32
 333 0019 18000000 		.4byte	.Ldebug_ranges0+0x18
 334 001d 00000000 		.4byte	0
 335 0021 00000000 		.4byte	0
 336 0025 00000000 		.4byte	.Ldebug_line0
 337 0029 02       		.uleb128 0x2
 338 002a 04       		.byte	0x4
 339 002b 05       		.byte	0x5
 340 002c 696E7400 		.ascii	"int\000"
 341 0030 03       		.uleb128 0x3
 342 0031 00000000 		.4byte	.LASF6
 343 0035 02       		.byte	0x2
 344 0036 D5       		.byte	0xd5
 345 0037 3B000000 		.4byte	0x3b
 346 003b 04       		.uleb128 0x4
 347 003c 04       		.byte	0x4
 348 003d 07       		.byte	0x7
 349 003e E9000000 		.4byte	.LASF0
 350 0042 04       		.uleb128 0x4
 351 0043 01       		.byte	0x1
 352 0044 06       		.byte	0x6
 353 0045 00020000 		.4byte	.LASF1
 354 0049 04       		.uleb128 0x4
 355 004a 01       		.byte	0x1
 356 004b 08       		.byte	0x8
 357 004c B3000000 		.4byte	.LASF2
 358 0050 04       		.uleb128 0x4
 359 0051 02       		.byte	0x2
 360 0052 05       		.byte	0x5
 361 0053 9E010000 		.4byte	.LASF3
 362 0057 04       		.uleb128 0x4
 363 0058 02       		.byte	0x2
 364 0059 07       		.byte	0x7
 365 005a 6A000000 		.4byte	.LASF4
 366 005e 04       		.uleb128 0x4
 367 005f 04       		.byte	0x4
 368 0060 05       		.byte	0x5
 369 0061 F7010000 		.4byte	.LASF5
 370 0065 03       		.uleb128 0x3
 371 0066 EE010000 		.4byte	.LASF7
 372 006a 03       		.byte	0x3
 373 006b 50       		.byte	0x50
 374 006c 70000000 		.4byte	0x70
 375 0070 04       		.uleb128 0x4
 376 0071 04       		.byte	0x4
 377 0072 07       		.byte	0x7
 378 0073 58000000 		.4byte	.LASF8
 379 0077 04       		.uleb128 0x4
 380 0078 08       		.byte	0x8
 381 0079 05       		.byte	0x5
 382 007a 67010000 		.4byte	.LASF9
ARM GAS  /tmp/ccEQO5vb.s 			page 8


 383 007e 04       		.uleb128 0x4
 384 007f 08       		.byte	0x8
 385 0080 07       		.byte	0x7
 386 0081 3F010000 		.4byte	.LASF10
 387 0085 05       		.uleb128 0x5
 388 0086 04       		.byte	0x4
 389 0087 04       		.uleb128 0x4
 390 0088 04       		.byte	0x4
 391 0089 07       		.byte	0x7
 392 008a 5E010000 		.4byte	.LASF11
 393 008e 03       		.uleb128 0x3
 394 008f 85010000 		.4byte	.LASF12
 395 0093 04       		.byte	0x4
 396 0094 2C       		.byte	0x2c
 397 0095 99000000 		.4byte	0x99
 398 0099 06       		.uleb128 0x6
 399 009a 04       		.byte	0x4
 400 009b 9F000000 		.4byte	0x9f
 401 009f 07       		.uleb128 0x7
 402 00a0 01       		.byte	0x1
 403 00a1 85000000 		.4byte	0x85
 404 00a5 AF000000 		.4byte	0xaf
 405 00a9 08       		.uleb128 0x8
 406 00aa 30000000 		.4byte	0x30
 407 00ae 00       		.byte	0
 408 00af 09       		.uleb128 0x9
 409 00b0 47000000 		.4byte	.LASF33
 410 00b4 04       		.byte	0x4
 411 00b5 05       		.byte	0x5
 412 00b6 2C       		.byte	0x2c
 413 00b7 CA000000 		.4byte	0xca
 414 00bb 0A       		.uleb128 0xa
 415 00bc 56010000 		.4byte	.LASF13
 416 00c0 05       		.byte	0x5
 417 00c1 2D       		.byte	0x2d
 418 00c2 CA000000 		.4byte	0xca
 419 00c6 02       		.byte	0x2
 420 00c7 23       		.byte	0x23
 421 00c8 00       		.uleb128 0
 422 00c9 00       		.byte	0
 423 00ca 06       		.uleb128 0x6
 424 00cb 04       		.byte	0x4
 425 00cc AF000000 		.4byte	0xaf
 426 00d0 0B       		.uleb128 0xb
 427 00d1 0C       		.byte	0xc
 428 00d2 05       		.byte	0x5
 429 00d3 34       		.byte	0x34
 430 00d4 03010000 		.4byte	0x103
 431 00d8 0A       		.uleb128 0xa
 432 00d9 0C020000 		.4byte	.LASF14
 433 00dd 05       		.byte	0x5
 434 00de 35       		.byte	0x35
 435 00df CA000000 		.4byte	0xca
 436 00e3 02       		.byte	0x2
 437 00e4 23       		.byte	0x23
 438 00e5 00       		.uleb128 0
 439 00e6 0A       		.uleb128 0xa
ARM GAS  /tmp/ccEQO5vb.s 			page 9


 440 00e7 27000000 		.4byte	.LASF15
 441 00eb 05       		.byte	0x5
 442 00ec 36       		.byte	0x36
 443 00ed 30000000 		.4byte	0x30
 444 00f1 02       		.byte	0x2
 445 00f2 23       		.byte	0x23
 446 00f3 04       		.uleb128 0x4
 447 00f4 0A       		.uleb128 0xa
 448 00f5 92010000 		.4byte	.LASF16
 449 00f9 05       		.byte	0x5
 450 00fa 38       		.byte	0x38
 451 00fb 8E000000 		.4byte	0x8e
 452 00ff 02       		.byte	0x2
 453 0100 23       		.byte	0x23
 454 0101 08       		.uleb128 0x8
 455 0102 00       		.byte	0
 456 0103 03       		.uleb128 0x3
 457 0104 CC000000 		.4byte	.LASF17
 458 0108 05       		.byte	0x5
 459 0109 3A       		.byte	0x3a
 460 010a D0000000 		.4byte	0xd0
 461 010e 04       		.uleb128 0x4
 462 010f 01       		.byte	0x1
 463 0110 08       		.byte	0x8
 464 0111 75010000 		.4byte	.LASF18
 465 0115 0C       		.uleb128 0xc
 466 0116 01       		.byte	0x1
 467 0117 14020000 		.4byte	.LASF24
 468 011b 01       		.byte	0x1
 469 011c 3D       		.byte	0x3d
 470 011d 01       		.byte	0x1
 471 011e 00000000 		.4byte	.LFB7
 472 0122 28000000 		.4byte	.LFE7
 473 0126 00000000 		.4byte	.LLST0
 474 012a 01       		.byte	0x1
 475 012b 6F010000 		.4byte	0x16f
 476 012f 0D       		.uleb128 0xd
 477 0130 6D7000   		.ascii	"mp\000"
 478 0133 01       		.byte	0x1
 479 0134 3D       		.byte	0x3d
 480 0135 6F010000 		.4byte	0x16f
 481 0139 20000000 		.4byte	.LLST1
 482 013d 0E       		.uleb128 0xe
 483 013e 53000000 		.4byte	.LASF19
 484 0142 01       		.byte	0x1
 485 0143 3D       		.byte	0x3d
 486 0144 30000000 		.4byte	0x30
 487 0148 3E000000 		.4byte	.LLST2
 488 014c 0E       		.uleb128 0xe
 489 014d 7D000000 		.4byte	.LASF20
 490 0151 01       		.byte	0x1
 491 0152 3D       		.byte	0x3d
 492 0153 8E000000 		.4byte	0x8e
 493 0157 69000000 		.4byte	.LLST3
 494 015b 0F       		.uleb128 0xf
 495 015c 14000000 		.4byte	.LVL2
 496 0160 66030000 		.4byte	0x366
ARM GAS  /tmp/ccEQO5vb.s 			page 10


 497 0164 10       		.uleb128 0x10
 498 0165 01       		.byte	0x1
 499 0166 50       		.byte	0x50
 500 0167 05       		.byte	0x5
 501 0168 03       		.byte	0x3
 502 0169 00000000 		.4byte	.LC0
 503 016d 00       		.byte	0
 504 016e 00       		.byte	0
 505 016f 06       		.uleb128 0x6
 506 0170 04       		.byte	0x4
 507 0171 03010000 		.4byte	0x103
 508 0175 11       		.uleb128 0x11
 509 0176 01       		.byte	0x1
 510 0177 DC000000 		.4byte	.LASF21
 511 017b 01       		.byte	0x1
 512 017c 4F       		.byte	0x4f
 513 017d 01       		.byte	0x1
 514 017e 85000000 		.4byte	0x85
 515 0182 00000000 		.4byte	.LFB8
 516 0186 2C000000 		.4byte	.LFE8
 517 018a 87000000 		.4byte	.LLST4
 518 018e 01       		.byte	0x1
 519 018f CD010000 		.4byte	0x1cd
 520 0193 0D       		.uleb128 0xd
 521 0194 6D7000   		.ascii	"mp\000"
 522 0197 01       		.byte	0x1
 523 0198 4F       		.byte	0x4f
 524 0199 6F010000 		.4byte	0x16f
 525 019d A7000000 		.4byte	.LLST5
 526 01a1 12       		.uleb128 0x12
 527 01a2 D7000000 		.4byte	.LASF23
 528 01a6 01       		.byte	0x1
 529 01a7 50       		.byte	0x50
 530 01a8 85000000 		.4byte	0x85
 531 01ac C5000000 		.4byte	.LLST6
 532 01b0 13       		.uleb128 0x13
 533 01b1 08000000 		.4byte	.LVL5
 534 01b5 80030000 		.4byte	0x380
 535 01b9 0F       		.uleb128 0xf
 536 01ba 24000000 		.4byte	.LVL10
 537 01be 66030000 		.4byte	0x366
 538 01c2 10       		.uleb128 0x10
 539 01c3 01       		.byte	0x1
 540 01c4 50       		.byte	0x50
 541 01c5 05       		.byte	0x5
 542 01c6 03       		.byte	0x3
 543 01c7 10000000 		.4byte	.LC1
 544 01cb 00       		.byte	0
 545 01cc 00       		.byte	0
 546 01cd 14       		.uleb128 0x14
 547 01ce 01       		.byte	0x1
 548 01cf A8010000 		.4byte	.LASF22
 549 01d3 01       		.byte	0x1
 550 01d4 65       		.byte	0x65
 551 01d5 01       		.byte	0x1
 552 01d6 85000000 		.4byte	0x85
 553 01da 00000000 		.4byte	.LFB9
ARM GAS  /tmp/ccEQO5vb.s 			page 11


 554 01de 24000000 		.4byte	.LFE9
 555 01e2 EF000000 		.4byte	.LLST7
 556 01e6 01       		.byte	0x1
 557 01e7 65020000 		.4byte	0x265
 558 01eb 0D       		.uleb128 0xd
 559 01ec 6D7000   		.ascii	"mp\000"
 560 01ef 01       		.byte	0x1
 561 01f0 65       		.byte	0x65
 562 01f1 6F010000 		.4byte	0x16f
 563 01f5 0F010000 		.4byte	.LLST8
 564 01f9 12       		.uleb128 0x12
 565 01fa D7000000 		.4byte	.LASF23
 566 01fe 01       		.byte	0x1
 567 01ff 66       		.byte	0x66
 568 0200 85000000 		.4byte	0x85
 569 0204 3B010000 		.4byte	.LLST9
 570 0208 15       		.uleb128 0x15
 571 0209 00000000 		.4byte	.Ldebug_ranges0+0
 572 020d 21020000 		.4byte	0x221
 573 0211 16       		.uleb128 0x16
 574 0212 746D7000 		.ascii	"tmp\000"
 575 0216 01       		.byte	0x1
 576 0217 68       		.byte	0x68
 577 0218 65000000 		.4byte	0x65
 578 021c 59010000 		.4byte	.LLST10
 579 0220 00       		.byte	0
 580 0221 17       		.uleb128 0x17
 581 0222 1A000000 		.4byte	.LBB4
 582 0226 20000000 		.4byte	.LBE4
 583 022a 3E020000 		.4byte	0x23e
 584 022e 16       		.uleb128 0x16
 585 022f 746D7000 		.ascii	"tmp\000"
 586 0233 01       		.byte	0x1
 587 0234 6A       		.byte	0x6a
 588 0235 65000000 		.4byte	0x65
 589 0239 6C010000 		.4byte	.LLST11
 590 023d 00       		.byte	0
 591 023e 13       		.uleb128 0x13
 592 023f 0E000000 		.4byte	.LVL14
 593 0243 8A030000 		.4byte	0x38a
 594 0247 18       		.uleb128 0x18
 595 0248 14000000 		.4byte	.LVL15
 596 024c 75010000 		.4byte	0x175
 597 0250 5B020000 		.4byte	0x25b
 598 0254 10       		.uleb128 0x10
 599 0255 01       		.byte	0x1
 600 0256 50       		.byte	0x50
 601 0257 02       		.byte	0x2
 602 0258 74       		.byte	0x74
 603 0259 00       		.sleb128 0
 604 025a 00       		.byte	0
 605 025b 13       		.uleb128 0x13
 606 025c 1A000000 		.4byte	.LVL17
 607 0260 94030000 		.4byte	0x394
 608 0264 00       		.byte	0
 609 0265 0C       		.uleb128 0xc
 610 0266 01       		.byte	0x1
ARM GAS  /tmp/ccEQO5vb.s 			page 12


 611 0267 86000000 		.4byte	.LASF25
 612 026b 01       		.byte	0x1
 613 026c 7A       		.byte	0x7a
 614 026d 01       		.byte	0x1
 615 026e 00000000 		.4byte	.LFB10
 616 0272 24000000 		.4byte	.LFE10
 617 0276 7F010000 		.4byte	.LLST12
 618 027a 01       		.byte	0x1
 619 027b C8020000 		.4byte	0x2c8
 620 027f 0D       		.uleb128 0xd
 621 0280 6D7000   		.ascii	"mp\000"
 622 0283 01       		.byte	0x1
 623 0284 7A       		.byte	0x7a
 624 0285 6F010000 		.4byte	0x16f
 625 0289 9F010000 		.4byte	.LLST13
 626 028d 0E       		.uleb128 0xe
 627 028e D7000000 		.4byte	.LASF23
 628 0292 01       		.byte	0x1
 629 0293 7A       		.byte	0x7a
 630 0294 85000000 		.4byte	0x85
 631 0298 BD010000 		.4byte	.LLST14
 632 029c 16       		.uleb128 0x16
 633 029d 70687000 		.ascii	"php\000"
 634 02a1 01       		.byte	0x1
 635 02a2 7B       		.byte	0x7b
 636 02a3 CA000000 		.4byte	0xca
 637 02a7 DB010000 		.4byte	.LLST15
 638 02ab 13       		.uleb128 0x13
 639 02ac 0A000000 		.4byte	.LVL22
 640 02b0 80030000 		.4byte	0x380
 641 02b4 0F       		.uleb128 0xf
 642 02b5 18000000 		.4byte	.LVL23
 643 02b9 66030000 		.4byte	0x366
 644 02bd 10       		.uleb128 0x10
 645 02be 01       		.byte	0x1
 646 02bf 50       		.byte	0x50
 647 02c0 05       		.byte	0x5
 648 02c1 03       		.byte	0x3
 649 02c2 24000000 		.4byte	.LC2
 650 02c6 00       		.byte	0
 651 02c7 00       		.byte	0
 652 02c8 0C       		.uleb128 0xc
 653 02c9 01       		.byte	0x1
 654 02ca C1000000 		.4byte	.LASF26
 655 02ce 01       		.byte	0x1
 656 02cf 91       		.byte	0x91
 657 02d0 01       		.byte	0x1
 658 02d1 00000000 		.4byte	.LFB11
 659 02d5 24000000 		.4byte	.LFE11
 660 02d9 F9010000 		.4byte	.LLST16
 661 02dd 01       		.byte	0x1
 662 02de 66030000 		.4byte	0x366
 663 02e2 0D       		.uleb128 0xd
 664 02e3 6D7000   		.ascii	"mp\000"
 665 02e6 01       		.byte	0x1
 666 02e7 91       		.byte	0x91
 667 02e8 6F010000 		.4byte	0x16f
ARM GAS  /tmp/ccEQO5vb.s 			page 13


 668 02ec 19020000 		.4byte	.LLST17
 669 02f0 0E       		.uleb128 0xe
 670 02f1 D7000000 		.4byte	.LASF23
 671 02f5 01       		.byte	0x1
 672 02f6 91       		.byte	0x91
 673 02f7 85000000 		.4byte	0x85
 674 02fb 37020000 		.4byte	.LLST18
 675 02ff 17       		.uleb128 0x17
 676 0300 06000000 		.4byte	.LBB5
 677 0304 0C000000 		.4byte	.LBE5
 678 0308 1C030000 		.4byte	0x31c
 679 030c 16       		.uleb128 0x16
 680 030d 746D7000 		.ascii	"tmp\000"
 681 0311 01       		.byte	0x1
 682 0312 93       		.byte	0x93
 683 0313 65000000 		.4byte	0x65
 684 0317 55020000 		.4byte	.LLST19
 685 031b 00       		.byte	0
 686 031c 17       		.uleb128 0x17
 687 031d 1C000000 		.4byte	.LBB6
 688 0321 24000000 		.4byte	.LBE6
 689 0325 39030000 		.4byte	0x339
 690 0329 16       		.uleb128 0x16
 691 032a 746D7000 		.ascii	"tmp\000"
 692 032e 01       		.byte	0x1
 693 032f 95       		.byte	0x95
 694 0330 65000000 		.4byte	0x65
 695 0334 68020000 		.4byte	.LLST20
 696 0338 00       		.byte	0
 697 0339 13       		.uleb128 0x13
 698 033a 10000000 		.4byte	.LVL27
 699 033e 8A030000 		.4byte	0x38a
 700 0342 18       		.uleb128 0x18
 701 0343 18000000 		.4byte	.LVL28
 702 0347 65020000 		.4byte	0x265
 703 034b 5C030000 		.4byte	0x35c
 704 034f 10       		.uleb128 0x10
 705 0350 01       		.byte	0x1
 706 0351 51       		.byte	0x51
 707 0352 02       		.byte	0x2
 708 0353 74       		.byte	0x74
 709 0354 00       		.sleb128 0
 710 0355 10       		.uleb128 0x10
 711 0356 01       		.byte	0x1
 712 0357 50       		.byte	0x50
 713 0358 02       		.byte	0x2
 714 0359 75       		.byte	0x75
 715 035a 00       		.sleb128 0
 716 035b 00       		.byte	0
 717 035c 13       		.uleb128 0x13
 718 035d 1C000000 		.4byte	.LVL29
 719 0361 94030000 		.4byte	0x394
 720 0365 00       		.byte	0
 721 0366 19       		.uleb128 0x19
 722 0367 01       		.byte	0x1
 723 0368 7A010000 		.4byte	.LASF34
 724 036c 06       		.byte	0x6
ARM GAS  /tmp/ccEQO5vb.s 			page 14


 725 036d F0       		.byte	0xf0
 726 036e 01       		.byte	0x1
 727 036f 01       		.byte	0x1
 728 0370 7A030000 		.4byte	0x37a
 729 0374 08       		.uleb128 0x8
 730 0375 7A030000 		.4byte	0x37a
 731 0379 00       		.byte	0
 732 037a 06       		.uleb128 0x6
 733 037b 04       		.byte	0x4
 734 037c 0E010000 		.4byte	0x10e
 735 0380 1A       		.uleb128 0x1a
 736 0381 01       		.byte	0x1
 737 0382 36000000 		.4byte	.LASF27
 738 0386 06       		.byte	0x6
 739 0387 E8       		.byte	0xe8
 740 0388 01       		.byte	0x1
 741 0389 01       		.byte	0x1
 742 038a 1A       		.uleb128 0x1a
 743 038b 01       		.byte	0x1
 744 038c 07000000 		.4byte	.LASF28
 745 0390 06       		.byte	0x6
 746 0391 E2       		.byte	0xe2
 747 0392 01       		.byte	0x1
 748 0393 01       		.byte	0x1
 749 0394 1A       		.uleb128 0x1a
 750 0395 01       		.byte	0x1
 751 0396 16000000 		.4byte	.LASF29
 752 039a 06       		.byte	0x6
 753 039b E3       		.byte	0xe3
 754 039c 01       		.byte	0x1
 755 039d 01       		.byte	0x1
 756 039e 00       		.byte	0
 757              		.section	.debug_abbrev,"",%progbits
 758              	.Ldebug_abbrev0:
 759 0000 01       		.uleb128 0x1
 760 0001 11       		.uleb128 0x11
 761 0002 01       		.byte	0x1
 762 0003 25       		.uleb128 0x25
 763 0004 0E       		.uleb128 0xe
 764 0005 13       		.uleb128 0x13
 765 0006 0B       		.uleb128 0xb
 766 0007 03       		.uleb128 0x3
 767 0008 0E       		.uleb128 0xe
 768 0009 1B       		.uleb128 0x1b
 769 000a 0E       		.uleb128 0xe
 770 000b 55       		.uleb128 0x55
 771 000c 06       		.uleb128 0x6
 772 000d 11       		.uleb128 0x11
 773 000e 01       		.uleb128 0x1
 774 000f 52       		.uleb128 0x52
 775 0010 01       		.uleb128 0x1
 776 0011 10       		.uleb128 0x10
 777 0012 06       		.uleb128 0x6
 778 0013 00       		.byte	0
 779 0014 00       		.byte	0
 780 0015 02       		.uleb128 0x2
 781 0016 24       		.uleb128 0x24
ARM GAS  /tmp/ccEQO5vb.s 			page 15


 782 0017 00       		.byte	0
 783 0018 0B       		.uleb128 0xb
 784 0019 0B       		.uleb128 0xb
 785 001a 3E       		.uleb128 0x3e
 786 001b 0B       		.uleb128 0xb
 787 001c 03       		.uleb128 0x3
 788 001d 08       		.uleb128 0x8
 789 001e 00       		.byte	0
 790 001f 00       		.byte	0
 791 0020 03       		.uleb128 0x3
 792 0021 16       		.uleb128 0x16
 793 0022 00       		.byte	0
 794 0023 03       		.uleb128 0x3
 795 0024 0E       		.uleb128 0xe
 796 0025 3A       		.uleb128 0x3a
 797 0026 0B       		.uleb128 0xb
 798 0027 3B       		.uleb128 0x3b
 799 0028 0B       		.uleb128 0xb
 800 0029 49       		.uleb128 0x49
 801 002a 13       		.uleb128 0x13
 802 002b 00       		.byte	0
 803 002c 00       		.byte	0
 804 002d 04       		.uleb128 0x4
 805 002e 24       		.uleb128 0x24
 806 002f 00       		.byte	0
 807 0030 0B       		.uleb128 0xb
 808 0031 0B       		.uleb128 0xb
 809 0032 3E       		.uleb128 0x3e
 810 0033 0B       		.uleb128 0xb
 811 0034 03       		.uleb128 0x3
 812 0035 0E       		.uleb128 0xe
 813 0036 00       		.byte	0
 814 0037 00       		.byte	0
 815 0038 05       		.uleb128 0x5
 816 0039 0F       		.uleb128 0xf
 817 003a 00       		.byte	0
 818 003b 0B       		.uleb128 0xb
 819 003c 0B       		.uleb128 0xb
 820 003d 00       		.byte	0
 821 003e 00       		.byte	0
 822 003f 06       		.uleb128 0x6
 823 0040 0F       		.uleb128 0xf
 824 0041 00       		.byte	0
 825 0042 0B       		.uleb128 0xb
 826 0043 0B       		.uleb128 0xb
 827 0044 49       		.uleb128 0x49
 828 0045 13       		.uleb128 0x13
 829 0046 00       		.byte	0
 830 0047 00       		.byte	0
 831 0048 07       		.uleb128 0x7
 832 0049 15       		.uleb128 0x15
 833 004a 01       		.byte	0x1
 834 004b 27       		.uleb128 0x27
 835 004c 0C       		.uleb128 0xc
 836 004d 49       		.uleb128 0x49
 837 004e 13       		.uleb128 0x13
 838 004f 01       		.uleb128 0x1
ARM GAS  /tmp/ccEQO5vb.s 			page 16


 839 0050 13       		.uleb128 0x13
 840 0051 00       		.byte	0
 841 0052 00       		.byte	0
 842 0053 08       		.uleb128 0x8
 843 0054 05       		.uleb128 0x5
 844 0055 00       		.byte	0
 845 0056 49       		.uleb128 0x49
 846 0057 13       		.uleb128 0x13
 847 0058 00       		.byte	0
 848 0059 00       		.byte	0
 849 005a 09       		.uleb128 0x9
 850 005b 13       		.uleb128 0x13
 851 005c 01       		.byte	0x1
 852 005d 03       		.uleb128 0x3
 853 005e 0E       		.uleb128 0xe
 854 005f 0B       		.uleb128 0xb
 855 0060 0B       		.uleb128 0xb
 856 0061 3A       		.uleb128 0x3a
 857 0062 0B       		.uleb128 0xb
 858 0063 3B       		.uleb128 0x3b
 859 0064 0B       		.uleb128 0xb
 860 0065 01       		.uleb128 0x1
 861 0066 13       		.uleb128 0x13
 862 0067 00       		.byte	0
 863 0068 00       		.byte	0
 864 0069 0A       		.uleb128 0xa
 865 006a 0D       		.uleb128 0xd
 866 006b 00       		.byte	0
 867 006c 03       		.uleb128 0x3
 868 006d 0E       		.uleb128 0xe
 869 006e 3A       		.uleb128 0x3a
 870 006f 0B       		.uleb128 0xb
 871 0070 3B       		.uleb128 0x3b
 872 0071 0B       		.uleb128 0xb
 873 0072 49       		.uleb128 0x49
 874 0073 13       		.uleb128 0x13
 875 0074 38       		.uleb128 0x38
 876 0075 0A       		.uleb128 0xa
 877 0076 00       		.byte	0
 878 0077 00       		.byte	0
 879 0078 0B       		.uleb128 0xb
 880 0079 13       		.uleb128 0x13
 881 007a 01       		.byte	0x1
 882 007b 0B       		.uleb128 0xb
 883 007c 0B       		.uleb128 0xb
 884 007d 3A       		.uleb128 0x3a
 885 007e 0B       		.uleb128 0xb
 886 007f 3B       		.uleb128 0x3b
 887 0080 0B       		.uleb128 0xb
 888 0081 01       		.uleb128 0x1
 889 0082 13       		.uleb128 0x13
 890 0083 00       		.byte	0
 891 0084 00       		.byte	0
 892 0085 0C       		.uleb128 0xc
 893 0086 2E       		.uleb128 0x2e
 894 0087 01       		.byte	0x1
 895 0088 3F       		.uleb128 0x3f
ARM GAS  /tmp/ccEQO5vb.s 			page 17


 896 0089 0C       		.uleb128 0xc
 897 008a 03       		.uleb128 0x3
 898 008b 0E       		.uleb128 0xe
 899 008c 3A       		.uleb128 0x3a
 900 008d 0B       		.uleb128 0xb
 901 008e 3B       		.uleb128 0x3b
 902 008f 0B       		.uleb128 0xb
 903 0090 27       		.uleb128 0x27
 904 0091 0C       		.uleb128 0xc
 905 0092 11       		.uleb128 0x11
 906 0093 01       		.uleb128 0x1
 907 0094 12       		.uleb128 0x12
 908 0095 01       		.uleb128 0x1
 909 0096 40       		.uleb128 0x40
 910 0097 06       		.uleb128 0x6
 911 0098 9742     		.uleb128 0x2117
 912 009a 0C       		.uleb128 0xc
 913 009b 01       		.uleb128 0x1
 914 009c 13       		.uleb128 0x13
 915 009d 00       		.byte	0
 916 009e 00       		.byte	0
 917 009f 0D       		.uleb128 0xd
 918 00a0 05       		.uleb128 0x5
 919 00a1 00       		.byte	0
 920 00a2 03       		.uleb128 0x3
 921 00a3 08       		.uleb128 0x8
 922 00a4 3A       		.uleb128 0x3a
 923 00a5 0B       		.uleb128 0xb
 924 00a6 3B       		.uleb128 0x3b
 925 00a7 0B       		.uleb128 0xb
 926 00a8 49       		.uleb128 0x49
 927 00a9 13       		.uleb128 0x13
 928 00aa 02       		.uleb128 0x2
 929 00ab 06       		.uleb128 0x6
 930 00ac 00       		.byte	0
 931 00ad 00       		.byte	0
 932 00ae 0E       		.uleb128 0xe
 933 00af 05       		.uleb128 0x5
 934 00b0 00       		.byte	0
 935 00b1 03       		.uleb128 0x3
 936 00b2 0E       		.uleb128 0xe
 937 00b3 3A       		.uleb128 0x3a
 938 00b4 0B       		.uleb128 0xb
 939 00b5 3B       		.uleb128 0x3b
 940 00b6 0B       		.uleb128 0xb
 941 00b7 49       		.uleb128 0x49
 942 00b8 13       		.uleb128 0x13
 943 00b9 02       		.uleb128 0x2
 944 00ba 06       		.uleb128 0x6
 945 00bb 00       		.byte	0
 946 00bc 00       		.byte	0
 947 00bd 0F       		.uleb128 0xf
 948 00be 898201   		.uleb128 0x4109
 949 00c1 01       		.byte	0x1
 950 00c2 11       		.uleb128 0x11
 951 00c3 01       		.uleb128 0x1
 952 00c4 31       		.uleb128 0x31
ARM GAS  /tmp/ccEQO5vb.s 			page 18


 953 00c5 13       		.uleb128 0x13
 954 00c6 00       		.byte	0
 955 00c7 00       		.byte	0
 956 00c8 10       		.uleb128 0x10
 957 00c9 8A8201   		.uleb128 0x410a
 958 00cc 00       		.byte	0
 959 00cd 02       		.uleb128 0x2
 960 00ce 0A       		.uleb128 0xa
 961 00cf 9142     		.uleb128 0x2111
 962 00d1 0A       		.uleb128 0xa
 963 00d2 00       		.byte	0
 964 00d3 00       		.byte	0
 965 00d4 11       		.uleb128 0x11
 966 00d5 2E       		.uleb128 0x2e
 967 00d6 01       		.byte	0x1
 968 00d7 3F       		.uleb128 0x3f
 969 00d8 0C       		.uleb128 0xc
 970 00d9 03       		.uleb128 0x3
 971 00da 0E       		.uleb128 0xe
 972 00db 3A       		.uleb128 0x3a
 973 00dc 0B       		.uleb128 0xb
 974 00dd 3B       		.uleb128 0x3b
 975 00de 0B       		.uleb128 0xb
 976 00df 27       		.uleb128 0x27
 977 00e0 0C       		.uleb128 0xc
 978 00e1 49       		.uleb128 0x49
 979 00e2 13       		.uleb128 0x13
 980 00e3 11       		.uleb128 0x11
 981 00e4 01       		.uleb128 0x1
 982 00e5 12       		.uleb128 0x12
 983 00e6 01       		.uleb128 0x1
 984 00e7 40       		.uleb128 0x40
 985 00e8 06       		.uleb128 0x6
 986 00e9 9642     		.uleb128 0x2116
 987 00eb 0C       		.uleb128 0xc
 988 00ec 01       		.uleb128 0x1
 989 00ed 13       		.uleb128 0x13
 990 00ee 00       		.byte	0
 991 00ef 00       		.byte	0
 992 00f0 12       		.uleb128 0x12
 993 00f1 34       		.uleb128 0x34
 994 00f2 00       		.byte	0
 995 00f3 03       		.uleb128 0x3
 996 00f4 0E       		.uleb128 0xe
 997 00f5 3A       		.uleb128 0x3a
 998 00f6 0B       		.uleb128 0xb
 999 00f7 3B       		.uleb128 0x3b
 1000 00f8 0B       		.uleb128 0xb
 1001 00f9 49       		.uleb128 0x49
 1002 00fa 13       		.uleb128 0x13
 1003 00fb 02       		.uleb128 0x2
 1004 00fc 06       		.uleb128 0x6
 1005 00fd 00       		.byte	0
 1006 00fe 00       		.byte	0
 1007 00ff 13       		.uleb128 0x13
 1008 0100 898201   		.uleb128 0x4109
 1009 0103 00       		.byte	0
ARM GAS  /tmp/ccEQO5vb.s 			page 19


 1010 0104 11       		.uleb128 0x11
 1011 0105 01       		.uleb128 0x1
 1012 0106 31       		.uleb128 0x31
 1013 0107 13       		.uleb128 0x13
 1014 0108 00       		.byte	0
 1015 0109 00       		.byte	0
 1016 010a 14       		.uleb128 0x14
 1017 010b 2E       		.uleb128 0x2e
 1018 010c 01       		.byte	0x1
 1019 010d 3F       		.uleb128 0x3f
 1020 010e 0C       		.uleb128 0xc
 1021 010f 03       		.uleb128 0x3
 1022 0110 0E       		.uleb128 0xe
 1023 0111 3A       		.uleb128 0x3a
 1024 0112 0B       		.uleb128 0xb
 1025 0113 3B       		.uleb128 0x3b
 1026 0114 0B       		.uleb128 0xb
 1027 0115 27       		.uleb128 0x27
 1028 0116 0C       		.uleb128 0xc
 1029 0117 49       		.uleb128 0x49
 1030 0118 13       		.uleb128 0x13
 1031 0119 11       		.uleb128 0x11
 1032 011a 01       		.uleb128 0x1
 1033 011b 12       		.uleb128 0x12
 1034 011c 01       		.uleb128 0x1
 1035 011d 40       		.uleb128 0x40
 1036 011e 06       		.uleb128 0x6
 1037 011f 9742     		.uleb128 0x2117
 1038 0121 0C       		.uleb128 0xc
 1039 0122 01       		.uleb128 0x1
 1040 0123 13       		.uleb128 0x13
 1041 0124 00       		.byte	0
 1042 0125 00       		.byte	0
 1043 0126 15       		.uleb128 0x15
 1044 0127 0B       		.uleb128 0xb
 1045 0128 01       		.byte	0x1
 1046 0129 55       		.uleb128 0x55
 1047 012a 06       		.uleb128 0x6
 1048 012b 01       		.uleb128 0x1
 1049 012c 13       		.uleb128 0x13
 1050 012d 00       		.byte	0
 1051 012e 00       		.byte	0
 1052 012f 16       		.uleb128 0x16
 1053 0130 34       		.uleb128 0x34
 1054 0131 00       		.byte	0
 1055 0132 03       		.uleb128 0x3
 1056 0133 08       		.uleb128 0x8
 1057 0134 3A       		.uleb128 0x3a
 1058 0135 0B       		.uleb128 0xb
 1059 0136 3B       		.uleb128 0x3b
 1060 0137 0B       		.uleb128 0xb
 1061 0138 49       		.uleb128 0x49
 1062 0139 13       		.uleb128 0x13
 1063 013a 02       		.uleb128 0x2
 1064 013b 06       		.uleb128 0x6
 1065 013c 00       		.byte	0
 1066 013d 00       		.byte	0
ARM GAS  /tmp/ccEQO5vb.s 			page 20


 1067 013e 17       		.uleb128 0x17
 1068 013f 0B       		.uleb128 0xb
 1069 0140 01       		.byte	0x1
 1070 0141 11       		.uleb128 0x11
 1071 0142 01       		.uleb128 0x1
 1072 0143 12       		.uleb128 0x12
 1073 0144 01       		.uleb128 0x1
 1074 0145 01       		.uleb128 0x1
 1075 0146 13       		.uleb128 0x13
 1076 0147 00       		.byte	0
 1077 0148 00       		.byte	0
 1078 0149 18       		.uleb128 0x18
 1079 014a 898201   		.uleb128 0x4109
 1080 014d 01       		.byte	0x1
 1081 014e 11       		.uleb128 0x11
 1082 014f 01       		.uleb128 0x1
 1083 0150 31       		.uleb128 0x31
 1084 0151 13       		.uleb128 0x13
 1085 0152 01       		.uleb128 0x1
 1086 0153 13       		.uleb128 0x13
 1087 0154 00       		.byte	0
 1088 0155 00       		.byte	0
 1089 0156 19       		.uleb128 0x19
 1090 0157 2E       		.uleb128 0x2e
 1091 0158 01       		.byte	0x1
 1092 0159 3F       		.uleb128 0x3f
 1093 015a 0C       		.uleb128 0xc
 1094 015b 03       		.uleb128 0x3
 1095 015c 0E       		.uleb128 0xe
 1096 015d 3A       		.uleb128 0x3a
 1097 015e 0B       		.uleb128 0xb
 1098 015f 3B       		.uleb128 0x3b
 1099 0160 0B       		.uleb128 0xb
 1100 0161 27       		.uleb128 0x27
 1101 0162 0C       		.uleb128 0xc
 1102 0163 3C       		.uleb128 0x3c
 1103 0164 0C       		.uleb128 0xc
 1104 0165 01       		.uleb128 0x1
 1105 0166 13       		.uleb128 0x13
 1106 0167 00       		.byte	0
 1107 0168 00       		.byte	0
 1108 0169 1A       		.uleb128 0x1a
 1109 016a 2E       		.uleb128 0x2e
 1110 016b 00       		.byte	0
 1111 016c 3F       		.uleb128 0x3f
 1112 016d 0C       		.uleb128 0xc
 1113 016e 03       		.uleb128 0x3
 1114 016f 0E       		.uleb128 0xe
 1115 0170 3A       		.uleb128 0x3a
 1116 0171 0B       		.uleb128 0xb
 1117 0172 3B       		.uleb128 0x3b
 1118 0173 0B       		.uleb128 0xb
 1119 0174 27       		.uleb128 0x27
 1120 0175 0C       		.uleb128 0xc
 1121 0176 3C       		.uleb128 0x3c
 1122 0177 0C       		.uleb128 0xc
 1123 0178 00       		.byte	0
ARM GAS  /tmp/ccEQO5vb.s 			page 21


 1124 0179 00       		.byte	0
 1125 017a 00       		.byte	0
 1126              		.section	.debug_loc,"",%progbits
 1127              	.Ldebug_loc0:
 1128              	.LLST0:
 1129 0000 00000000 		.4byte	.LFB7
 1130 0004 02000000 		.4byte	.LCFI0
 1131 0008 0200     		.2byte	0x2
 1132 000a 7D       		.byte	0x7d
 1133 000b 00       		.sleb128 0
 1134 000c 02000000 		.4byte	.LCFI0
 1135 0010 28000000 		.4byte	.LFE7
 1136 0014 0200     		.2byte	0x2
 1137 0016 7D       		.byte	0x7d
 1138 0017 10       		.sleb128 16
 1139 0018 00000000 		.4byte	0
 1140 001c 00000000 		.4byte	0
 1141              	.LLST1:
 1142 0020 00000000 		.4byte	.LVL0
 1143 0024 10000000 		.4byte	.LVL1
 1144 0028 0100     		.2byte	0x1
 1145 002a 50       		.byte	0x50
 1146 002b 10000000 		.4byte	.LVL1
 1147 002f 28000000 		.4byte	.LFE7
 1148 0033 0100     		.2byte	0x1
 1149 0035 54       		.byte	0x54
 1150 0036 00000000 		.4byte	0
 1151 003a 00000000 		.4byte	0
 1152              	.LLST2:
 1153 003e 00000000 		.4byte	.LVL0
 1154 0042 13000000 		.4byte	.LVL2-1
 1155 0046 0100     		.2byte	0x1
 1156 0048 51       		.byte	0x51
 1157 0049 13000000 		.4byte	.LVL2-1
 1158 004d 1A000000 		.4byte	.LVL3
 1159 0051 0100     		.2byte	0x1
 1160 0053 55       		.byte	0x55
 1161 0054 1A000000 		.4byte	.LVL3
 1162 0058 28000000 		.4byte	.LFE7
 1163 005c 0300     		.2byte	0x3
 1164 005e 70       		.byte	0x70
 1165 005f 79       		.sleb128 -7
 1166 0060 9F       		.byte	0x9f
 1167 0061 00000000 		.4byte	0
 1168 0065 00000000 		.4byte	0
 1169              	.LLST3:
 1170 0069 00000000 		.4byte	.LVL0
 1171 006d 13000000 		.4byte	.LVL2-1
 1172 0071 0100     		.2byte	0x1
 1173 0073 52       		.byte	0x52
 1174 0074 13000000 		.4byte	.LVL2-1
 1175 0078 28000000 		.4byte	.LFE7
 1176 007c 0100     		.2byte	0x1
 1177 007e 56       		.byte	0x56
 1178 007f 00000000 		.4byte	0
 1179 0083 00000000 		.4byte	0
 1180              	.LLST4:
ARM GAS  /tmp/ccEQO5vb.s 			page 22


 1181 0087 00000000 		.4byte	.LFB8
 1182 008b 02000000 		.4byte	.LCFI1
 1183 008f 0200     		.2byte	0x2
 1184 0091 7D       		.byte	0x7d
 1185 0092 00       		.sleb128 0
 1186 0093 02000000 		.4byte	.LCFI1
 1187 0097 2C000000 		.4byte	.LFE8
 1188 009b 0200     		.2byte	0x2
 1189 009d 7D       		.byte	0x7d
 1190 009e 08       		.sleb128 8
 1191 009f 00000000 		.4byte	0
 1192 00a3 00000000 		.4byte	0
 1193              	.LLST5:
 1194 00a7 00000000 		.4byte	.LVL4
 1195 00ab 07000000 		.4byte	.LVL5-1
 1196 00af 0100     		.2byte	0x1
 1197 00b1 50       		.byte	0x50
 1198 00b2 07000000 		.4byte	.LVL5-1
 1199 00b6 2C000000 		.4byte	.LFE8
 1200 00ba 0100     		.2byte	0x1
 1201 00bc 54       		.byte	0x54
 1202 00bd 00000000 		.4byte	0
 1203 00c1 00000000 		.4byte	0
 1204              	.LLST6:
 1205 00c5 0C000000 		.4byte	.LVL6
 1206 00c9 1A000000 		.4byte	.LVL7
 1207 00cd 0100     		.2byte	0x1
 1208 00cf 50       		.byte	0x50
 1209 00d0 1A000000 		.4byte	.LVL7
 1210 00d4 1B000000 		.4byte	.LVL8-1
 1211 00d8 0200     		.2byte	0x2
 1212 00da 74       		.byte	0x74
 1213 00db 00       		.sleb128 0
 1214 00dc 1C000000 		.4byte	.LVL8
 1215 00e0 1E000000 		.4byte	.LVL9
 1216 00e4 0100     		.2byte	0x1
 1217 00e6 50       		.byte	0x50
 1218 00e7 00000000 		.4byte	0
 1219 00eb 00000000 		.4byte	0
 1220              	.LLST7:
 1221 00ef 00000000 		.4byte	.LFB9
 1222 00f3 02000000 		.4byte	.LCFI2
 1223 00f7 0200     		.2byte	0x2
 1224 00f9 7D       		.byte	0x7d
 1225 00fa 00       		.sleb128 0
 1226 00fb 02000000 		.4byte	.LCFI2
 1227 00ff 24000000 		.4byte	.LFE9
 1228 0103 0200     		.2byte	0x2
 1229 0105 7D       		.byte	0x7d
 1230 0106 08       		.sleb128 8
 1231 0107 00000000 		.4byte	0
 1232 010b 00000000 		.4byte	0
 1233              	.LLST8:
 1234 010f 00000000 		.4byte	.LVL11
 1235 0113 0D000000 		.4byte	.LVL14-1
 1236 0117 0100     		.2byte	0x1
 1237 0119 50       		.byte	0x50
ARM GAS  /tmp/ccEQO5vb.s 			page 23


 1238 011a 0D000000 		.4byte	.LVL14-1
 1239 011e 16000000 		.4byte	.LVL16
 1240 0122 0100     		.2byte	0x1
 1241 0124 54       		.byte	0x54
 1242 0125 16000000 		.4byte	.LVL16
 1243 0129 24000000 		.4byte	.LFE9
 1244 012d 0400     		.2byte	0x4
 1245 012f F3       		.byte	0xf3
 1246 0130 01       		.uleb128 0x1
 1247 0131 50       		.byte	0x50
 1248 0132 9F       		.byte	0x9f
 1249 0133 00000000 		.4byte	0
 1250 0137 00000000 		.4byte	0
 1251              	.LLST9:
 1252 013b 16000000 		.4byte	.LVL16
 1253 013f 19000000 		.4byte	.LVL17-1
 1254 0143 0100     		.2byte	0x1
 1255 0145 50       		.byte	0x50
 1256 0146 19000000 		.4byte	.LVL17-1
 1257 014a 24000000 		.4byte	.LFE9
 1258 014e 0100     		.2byte	0x1
 1259 0150 54       		.byte	0x54
 1260 0151 00000000 		.4byte	0
 1261 0155 00000000 		.4byte	0
 1262              	.LLST10:
 1263 0159 0A000000 		.4byte	.LVL13
 1264 015d 0D000000 		.4byte	.LVL14-1
 1265 0161 0100     		.2byte	0x1
 1266 0163 53       		.byte	0x53
 1267 0164 00000000 		.4byte	0
 1268 0168 00000000 		.4byte	0
 1269              	.LLST11:
 1270 016c 20000000 		.4byte	.LVL19
 1271 0170 24000000 		.4byte	.LFE9
 1272 0174 0100     		.2byte	0x1
 1273 0176 53       		.byte	0x53
 1274 0177 00000000 		.4byte	0
 1275 017b 00000000 		.4byte	0
 1276              	.LLST12:
 1277 017f 00000000 		.4byte	.LFB10
 1278 0183 02000000 		.4byte	.LCFI3
 1279 0187 0200     		.2byte	0x2
 1280 0189 7D       		.byte	0x7d
 1281 018a 00       		.sleb128 0
 1282 018b 02000000 		.4byte	.LCFI3
 1283 018f 24000000 		.4byte	.LFE10
 1284 0193 0200     		.2byte	0x2
 1285 0195 7D       		.byte	0x7d
 1286 0196 10       		.sleb128 16
 1287 0197 00000000 		.4byte	0
 1288 019b 00000000 		.4byte	0
 1289              	.LLST13:
 1290 019f 00000000 		.4byte	.LVL20
 1291 01a3 09000000 		.4byte	.LVL22-1
 1292 01a7 0100     		.2byte	0x1
 1293 01a9 50       		.byte	0x50
 1294 01aa 09000000 		.4byte	.LVL22-1
ARM GAS  /tmp/ccEQO5vb.s 			page 24


 1295 01ae 24000000 		.4byte	.LFE10
 1296 01b2 0100     		.2byte	0x1
 1297 01b4 55       		.byte	0x55
 1298 01b5 00000000 		.4byte	0
 1299 01b9 00000000 		.4byte	0
 1300              	.LLST14:
 1301 01bd 00000000 		.4byte	.LVL20
 1302 01c1 09000000 		.4byte	.LVL22-1
 1303 01c5 0100     		.2byte	0x1
 1304 01c7 51       		.byte	0x51
 1305 01c8 09000000 		.4byte	.LVL22-1
 1306 01cc 24000000 		.4byte	.LFE10
 1307 01d0 0100     		.2byte	0x1
 1308 01d2 54       		.byte	0x54
 1309 01d3 00000000 		.4byte	0
 1310 01d7 00000000 		.4byte	0
 1311              	.LLST15:
 1312 01db 06000000 		.4byte	.LVL21
 1313 01df 09000000 		.4byte	.LVL22-1
 1314 01e3 0100     		.2byte	0x1
 1315 01e5 51       		.byte	0x51
 1316 01e6 09000000 		.4byte	.LVL22-1
 1317 01ea 24000000 		.4byte	.LFE10
 1318 01ee 0100     		.2byte	0x1
 1319 01f0 54       		.byte	0x54
 1320 01f1 00000000 		.4byte	0
 1321 01f5 00000000 		.4byte	0
 1322              	.LLST16:
 1323 01f9 00000000 		.4byte	.LFB11
 1324 01fd 02000000 		.4byte	.LCFI4
 1325 0201 0200     		.2byte	0x2
 1326 0203 7D       		.byte	0x7d
 1327 0204 00       		.sleb128 0
 1328 0205 02000000 		.4byte	.LCFI4
 1329 0209 24000000 		.4byte	.LFE11
 1330 020d 0200     		.2byte	0x2
 1331 020f 7D       		.byte	0x7d
 1332 0210 10       		.sleb128 16
 1333 0211 00000000 		.4byte	0
 1334 0215 00000000 		.4byte	0
 1335              	.LLST17:
 1336 0219 00000000 		.4byte	.LVL24
 1337 021d 0F000000 		.4byte	.LVL27-1
 1338 0221 0100     		.2byte	0x1
 1339 0223 50       		.byte	0x50
 1340 0224 0F000000 		.4byte	.LVL27-1
 1341 0228 24000000 		.4byte	.LFE11
 1342 022c 0100     		.2byte	0x1
 1343 022e 55       		.byte	0x55
 1344 022f 00000000 		.4byte	0
 1345 0233 00000000 		.4byte	0
 1346              	.LLST18:
 1347 0237 00000000 		.4byte	.LVL24
 1348 023b 0F000000 		.4byte	.LVL27-1
 1349 023f 0100     		.2byte	0x1
 1350 0241 51       		.byte	0x51
 1351 0242 0F000000 		.4byte	.LVL27-1
ARM GAS  /tmp/ccEQO5vb.s 			page 25


 1352 0246 24000000 		.4byte	.LFE11
 1353 024a 0100     		.2byte	0x1
 1354 024c 54       		.byte	0x54
 1355 024d 00000000 		.4byte	0
 1356 0251 00000000 		.4byte	0
 1357              	.LLST19:
 1358 0255 0C000000 		.4byte	.LVL26
 1359 0259 0F000000 		.4byte	.LVL27-1
 1360 025d 0100     		.2byte	0x1
 1361 025f 53       		.byte	0x53
 1362 0260 00000000 		.4byte	0
 1363 0264 00000000 		.4byte	0
 1364              	.LLST20:
 1365 0268 22000000 		.4byte	.LVL31
 1366 026c 24000000 		.4byte	.LFE11
 1367 0270 0100     		.2byte	0x1
 1368 0272 53       		.byte	0x53
 1369 0273 00000000 		.4byte	0
 1370 0277 00000000 		.4byte	0
 1371              		.section	.debug_aranges,"",%progbits
 1372 0000 3C000000 		.4byte	0x3c
 1373 0004 0200     		.2byte	0x2
 1374 0006 00000000 		.4byte	.Ldebug_info0
 1375 000a 04       		.byte	0x4
 1376 000b 00       		.byte	0
 1377 000c 0000     		.2byte	0
 1378 000e 0000     		.2byte	0
 1379 0010 00000000 		.4byte	.LFB7
 1380 0014 28000000 		.4byte	.LFE7-.LFB7
 1381 0018 00000000 		.4byte	.LFB8
 1382 001c 2C000000 		.4byte	.LFE8-.LFB8
 1383 0020 00000000 		.4byte	.LFB9
 1384 0024 24000000 		.4byte	.LFE9-.LFB9
 1385 0028 00000000 		.4byte	.LFB10
 1386 002c 24000000 		.4byte	.LFE10-.LFB10
 1387 0030 00000000 		.4byte	.LFB11
 1388 0034 24000000 		.4byte	.LFE11-.LFB11
 1389 0038 00000000 		.4byte	0
 1390 003c 00000000 		.4byte	0
 1391              		.section	.debug_ranges,"",%progbits
 1392              	.Ldebug_ranges0:
 1393 0000 02000000 		.4byte	.LBB2
 1394 0004 04000000 		.4byte	.LBE2
 1395 0008 06000000 		.4byte	.LBB3
 1396 000c 0A000000 		.4byte	.LBE3
 1397 0010 00000000 		.4byte	0
 1398 0014 00000000 		.4byte	0
 1399 0018 00000000 		.4byte	.LFB7
 1400 001c 28000000 		.4byte	.LFE7
 1401 0020 00000000 		.4byte	.LFB8
 1402 0024 2C000000 		.4byte	.LFE8
 1403 0028 00000000 		.4byte	.LFB9
 1404 002c 24000000 		.4byte	.LFE9
 1405 0030 00000000 		.4byte	.LFB10
 1406 0034 24000000 		.4byte	.LFE10
 1407 0038 00000000 		.4byte	.LFB11
 1408 003c 24000000 		.4byte	.LFE11
ARM GAS  /tmp/ccEQO5vb.s 			page 26


 1409 0040 00000000 		.4byte	0
 1410 0044 00000000 		.4byte	0
 1411              		.section	.debug_line,"",%progbits
 1412              	.Ldebug_line0:
 1413 0000 A3010000 		.section	.debug_str,"MS",%progbits,1
 1413      02000D01 
 1413      00000201 
 1413      FB0E0D00 
 1413      01010101 
 1414              	.LASF6:
 1415 0000 73697A65 		.ascii	"size_t\000"
 1415      5F7400
 1416              	.LASF28:
 1417 0007 6462675F 		.ascii	"dbg_check_lock\000"
 1417      63686563 
 1417      6B5F6C6F 
 1417      636B00
 1418              	.LASF29:
 1419 0016 6462675F 		.ascii	"dbg_check_unlock\000"
 1419      63686563 
 1419      6B5F756E 
 1419      6C6F636B 
 1419      00
 1420              	.LASF15:
 1421 0027 6D705F6F 		.ascii	"mp_object_size\000"
 1421      626A6563 
 1421      745F7369 
 1421      7A6500
 1422              	.LASF27:
 1423 0036 63684462 		.ascii	"chDbgCheckClassI\000"
 1423      67436865 
 1423      636B436C 
 1423      61737349 
 1423      00
 1424              	.LASF33:
 1425 0047 706F6F6C 		.ascii	"pool_header\000"
 1425      5F686561 
 1425      64657200 
 1426              	.LASF19:
 1427 0053 73697A65 		.ascii	"size\000"
 1427      00
 1428              	.LASF8:
 1429 0058 6C6F6E67 		.ascii	"long unsigned int\000"
 1429      20756E73 
 1429      69676E65 
 1429      6420696E 
 1429      7400
 1430              	.LASF4:
 1431 006a 73686F72 		.ascii	"short unsigned int\000"
 1431      7420756E 
 1431      7369676E 
 1431      65642069 
 1431      6E7400
 1432              	.LASF20:
 1433 007d 70726F76 		.ascii	"provider\000"
 1433      69646572 
 1433      00
ARM GAS  /tmp/ccEQO5vb.s 			page 27


 1434              	.LASF25:
 1435 0086 6368506F 		.ascii	"chPoolFreeI\000"
 1435      6F6C4672 
 1435      65654900 
 1436              	.LASF31:
 1437 0092 2E2E2F2E 		.ascii	"../../os/kernel/src/chmempools.c\000"
 1437      2E2F6F73 
 1437      2F6B6572 
 1437      6E656C2F 
 1437      7372632F 
 1438              	.LASF2:
 1439 00b3 756E7369 		.ascii	"unsigned char\000"
 1439      676E6564 
 1439      20636861 
 1439      7200
 1440              	.LASF26:
 1441 00c1 6368506F 		.ascii	"chPoolFree\000"
 1441      6F6C4672 
 1441      656500
 1442              	.LASF17:
 1443 00cc 4D656D6F 		.ascii	"MemoryPool\000"
 1443      7279506F 
 1443      6F6C00
 1444              	.LASF23:
 1445 00d7 6F626A70 		.ascii	"objp\000"
 1445      00
 1446              	.LASF21:
 1447 00dc 6368506F 		.ascii	"chPoolAllocI\000"
 1447      6F6C416C 
 1447      6C6F6349 
 1447      00
 1448              	.LASF0:
 1449 00e9 756E7369 		.ascii	"unsigned int\000"
 1449      676E6564 
 1449      20696E74 
 1449      00
 1450              	.LASF30:
 1451 00f6 474E5520 		.ascii	"GNU C 4.7.4 20130613 (release) [ARM/embedded-4_7-br"
 1451      4320342E 
 1451      372E3420 
 1451      32303133 
 1451      30363133 
 1452 0129 616E6368 		.ascii	"anch revision 200083]\000"
 1452      20726576 
 1452      6973696F 
 1452      6E203230 
 1452      30303833 
 1453              	.LASF10:
 1454 013f 6C6F6E67 		.ascii	"long long unsigned int\000"
 1454      206C6F6E 
 1454      6720756E 
 1454      7369676E 
 1454      65642069 
 1455              	.LASF13:
 1456 0156 70685F6E 		.ascii	"ph_next\000"
 1456      65787400 
 1457              	.LASF11:
ARM GAS  /tmp/ccEQO5vb.s 			page 28


 1458 015e 73697A65 		.ascii	"sizetype\000"
 1458      74797065 
 1458      00
 1459              	.LASF9:
 1460 0167 6C6F6E67 		.ascii	"long long int\000"
 1460      206C6F6E 
 1460      6720696E 
 1460      7400
 1461              	.LASF18:
 1462 0175 63686172 		.ascii	"char\000"
 1462      00
 1463              	.LASF34:
 1464 017a 63684462 		.ascii	"chDbgPanic\000"
 1464      6750616E 
 1464      696300
 1465              	.LASF12:
 1466 0185 6D656D67 		.ascii	"memgetfunc_t\000"
 1466      65746675 
 1466      6E635F74 
 1466      00
 1467              	.LASF16:
 1468 0192 6D705F70 		.ascii	"mp_provider\000"
 1468      726F7669 
 1468      64657200 
 1469              	.LASF3:
 1470 019e 73686F72 		.ascii	"short int\000"
 1470      7420696E 
 1470      7400
 1471              	.LASF22:
 1472 01a8 6368506F 		.ascii	"chPoolAlloc\000"
 1472      6F6C416C 
 1472      6C6F6300 
 1473              	.LASF32:
 1474 01b4 2F686F6D 		.ascii	"/home/kaklik/git/mlab-chibios/demos/STM32F107-seria"
 1474      652F6B61 
 1474      6B6C696B 
 1474      2F676974 
 1474      2F6D6C61 
 1475 01e7 6C736865 		.ascii	"lshell\000"
 1475      6C6C00
 1476              	.LASF7:
 1477 01ee 75696E74 		.ascii	"uint32_t\000"
 1477      33325F74 
 1477      00
 1478              	.LASF5:
 1479 01f7 6C6F6E67 		.ascii	"long int\000"
 1479      20696E74 
 1479      00
 1480              	.LASF1:
 1481 0200 7369676E 		.ascii	"signed char\000"
 1481      65642063 
 1481      68617200 
 1482              	.LASF14:
 1483 020c 6D705F6E 		.ascii	"mp_next\000"
 1483      65787400 
 1484              	.LASF24:
 1485 0214 6368506F 		.ascii	"chPoolInit\000"
ARM GAS  /tmp/ccEQO5vb.s 			page 29


 1485      6F6C496E 
 1485      697400
 1486              		.ident	"GCC: (GNU Tools for ARM Embedded Processors) 4.7.4 20130613 (release) [ARM/embedded-4_7-br
ARM GAS  /tmp/ccEQO5vb.s 			page 30


DEFINED SYMBOLS
                            *ABS*:00000000 chmempools.c
     /tmp/ccEQO5vb.s:19     .text.chPoolInit:00000000 $t
     /tmp/ccEQO5vb.s:25     .text.chPoolInit:00000000 chPoolInit
     /tmp/ccEQO5vb.s:69     .text.chPoolInit:00000024 $d
     /tmp/ccEQO5vb.s:74     .text.chPoolAllocI:00000000 $t
     /tmp/ccEQO5vb.s:80     .text.chPoolAllocI:00000000 chPoolAllocI
     /tmp/ccEQO5vb.s:130    .text.chPoolAllocI:00000028 $d
     /tmp/ccEQO5vb.s:135    .text.chPoolAlloc:00000000 $t
     /tmp/ccEQO5vb.s:141    .text.chPoolAlloc:00000000 chPoolAlloc
     /tmp/ccEQO5vb.s:195    .text.chPoolFreeI:00000000 $t
     /tmp/ccEQO5vb.s:201    .text.chPoolFreeI:00000000 chPoolFreeI
     /tmp/ccEQO5vb.s:244    .text.chPoolFreeI:00000020 $d
     /tmp/ccEQO5vb.s:249    .text.chPoolFree:00000000 $t
     /tmp/ccEQO5vb.s:255    .text.chPoolFree:00000000 chPoolFree
     /tmp/ccEQO5vb.s:306    .rodata.str1.4:00000000 $d
                     .debug_frame:00000010 $d
     /tmp/ccEQO5vb.s:73     .text.chPoolInit:00000028 $t
     /tmp/ccEQO5vb.s:134    .text.chPoolAllocI:0000002c $t
     /tmp/ccEQO5vb.s:248    .text.chPoolFreeI:00000024 $t

UNDEFINED SYMBOLS
chDbgPanic
chDbgCheckClassI
dbg_check_lock
dbg_check_unlock
