ARM GAS  /tmp/cc3Ln6QS.s 			page 1


   1              		.syntax unified
   2              		.cpu cortex-m3
   3              		.fpu softvfp
   4              		.eabi_attribute 20, 1
   5              		.eabi_attribute 21, 1
   6              		.eabi_attribute 23, 3
   7              		.eabi_attribute 24, 1
   8              		.eabi_attribute 25, 1
   9              		.eabi_attribute 26, 1
  10              		.eabi_attribute 30, 2
  11              		.eabi_attribute 34, 1
  12              		.eabi_attribute 18, 4
  13              		.thumb
  14              		.file	"chmsg.c"
  15              		.text
  16              	.Ltext0:
  17              		.cfi_sections	.debug_frame
  18              		.section	.text.chMsgSend,"ax",%progbits
  19              		.align	2
  20              		.p2align 4,,15
  21              		.global	chMsgSend
  22              		.thumb
  23              		.thumb_func
  24              		.type	chMsgSend, %function
  25              	chMsgSend:
  26              	.LFB7:
  27              		.file 1 "../../os/kernel/src/chmsg.c"
  28              		.loc 1 75 0
  29              		.cfi_startproc
  30              		@ args = 0, pretend = 0, frame = 0
  31              		@ frame_needed = 0, uses_anonymous_args = 0
  32              	.LVL0:
  33              		.loc 1 76 0
  34 0000 154B     		ldr	r3, .L7
  35              		.loc 1 75 0
  36 0002 70B5     		push	{r4, r5, r6, lr}
  37              	.LCFI0:
  38              		.cfi_def_cfa_offset 16
  39              		.cfi_offset 4, -16
  40              		.cfi_offset 5, -12
  41              		.cfi_offset 6, -8
  42              		.cfi_offset 14, -4
  43              		.loc 1 78 0
  44 0004 0546     		mov	r5, r0
  45              		.loc 1 75 0
  46 0006 0E46     		mov	r6, r1
  47              		.loc 1 76 0
  48 0008 DC69     		ldr	r4, [r3, #28]
  49              	.LVL1:
  50              		.loc 1 78 0
  51 000a 00B3     		cbz	r0, .L5
  52              	.LVL2:
  53              	.L2:
  54              	.LBB10:
  55              		.loc 1 80 0
  56 000c 2023     		movs	r3, #32
  57              	.LVL3:
ARM GAS  /tmp/cc3Ln6QS.s 			page 2


  58              	@ 80 "../../os/kernel/src/chmsg.c" 1
  59 000e 83F31188 		msr     BASEPRI, r3
  60              	@ 0 "" 2
  61              	.LVL4:
  62              		.thumb
  63              	.LBE10:
  64 0012 FFF7FEFF 		bl	dbg_check_lock
  65              	.LVL5:
  66              		.loc 1 82 0
  67 0016 05F13002 		add	r2, r5, #48
  68 001a A262     		str	r2, [r4, #40]
  69              	.LVL6:
  70              		.loc 1 84 0
  71 001c 95F82010 		ldrb	r1, [r5, #32]	@ zero_extendqisi2
  72              	.LBB11:
  73              	.LBB12:
  74              		.file 2 "../../os/kernel/include/chinline.h"
  75              		.loc 2 55 0
  76 0020 686B     		ldr	r0, [r5, #52]
  77              	.LBE12:
  78              	.LBE11:
  79              		.loc 1 84 0
  80 0022 0C29     		cmp	r1, #12
  81              	.LBB15:
  82              	.LBB13:
  83              		.loc 2 54 0
  84 0024 2260     		str	r2, [r4, #0]
  85              	.LBE13:
  86              	.LBE15:
  87              		.loc 1 81 0
  88 0026 A663     		str	r6, [r4, #56]
  89              	.LBB16:
  90              	.LBB14:
  91              		.loc 2 55 0
  92 0028 6060     		str	r0, [r4, #4]
  93              		.loc 2 56 0
  94 002a 6C63     		str	r4, [r5, #52]
  95 002c 0460     		str	r4, [r0, #0]
  96              	.LBE14:
  97              	.LBE16:
  98              		.loc 1 84 0
  99 002e 0AD0     		beq	.L6
 100              	.LVL7:
 101              	.L3:
 102              		.loc 1 86 0
 103 0030 0A20     		movs	r0, #10
 104 0032 FFF7FEFF 		bl	chSchGoSleepS
 105              	.LVL8:
 106              		.loc 1 87 0
 107 0036 A46A     		ldr	r4, [r4, #40]
 108              	.LVL9:
 109              		.loc 1 88 0
 110 0038 FFF7FEFF 		bl	dbg_check_unlock
 111              	.LVL10:
 112              	.LBB17:
 113 003c 0023     		movs	r3, #0
 114              	.LVL11:
ARM GAS  /tmp/cc3Ln6QS.s 			page 3


 115              	@ 88 "../../os/kernel/src/chmsg.c" 1
 116 003e 83F31188 		msr     BASEPRI, r3
 117              	@ 0 "" 2
 118              	.LVL12:
 119              		.thumb
 120              	.LBE17:
 121              		.loc 1 90 0
 122 0042 2046     		mov	r0, r4
 123 0044 70BD     		pop	{r4, r5, r6, pc}
 124              	.LVL13:
 125              	.L6:
 126              		.loc 1 85 0
 127 0046 2846     		mov	r0, r5
 128 0048 FFF7FEFF 		bl	chSchReadyI
 129              	.LVL14:
 130 004c F0E7     		b	.L3
 131              	.LVL15:
 132              	.L5:
 133              		.loc 1 78 0 discriminator 1
 134 004e 0348     		ldr	r0, .L7+4
 135              	.LVL16:
 136 0050 FFF7FEFF 		bl	chDbgPanic
 137              	.LVL17:
 138 0054 DAE7     		b	.L2
 139              	.L8:
 140 0056 00BF     		.align	2
 141              	.L7:
 142 0058 00000000 		.word	rlist
 143 005c 00000000 		.word	.LC0
 144              		.cfi_endproc
 145              	.LFE7:
 146              		.size	chMsgSend, .-chMsgSend
 147              		.section	.text.chMsgWait,"ax",%progbits
 148              		.align	2
 149              		.p2align 4,,15
 150              		.global	chMsgWait
 151              		.thumb
 152              		.thumb_func
 153              		.type	chMsgWait, %function
 154              	chMsgWait:
 155              	.LFB8:
 156              		.loc 1 106 0
 157              		.cfi_startproc
 158              		@ args = 0, pretend = 0, frame = 0
 159              		@ frame_needed = 0, uses_anonymous_args = 0
 160 0000 38B5     		push	{r3, r4, r5, lr}
 161              	.LCFI1:
 162              		.cfi_def_cfa_offset 16
 163              		.cfi_offset 3, -16
 164              		.cfi_offset 4, -12
 165              		.cfi_offset 5, -8
 166              		.cfi_offset 14, -4
 167              	.LBB18:
 168              		.loc 1 109 0
 169 0002 2023     		movs	r3, #32
 170              	.LVL18:
 171              	@ 109 "../../os/kernel/src/chmsg.c" 1
ARM GAS  /tmp/cc3Ln6QS.s 			page 4


 172 0004 83F31188 		msr     BASEPRI, r3
 173              	@ 0 "" 2
 174              	.LVL19:
 175              		.thumb
 176              	.LBE18:
 177              		.loc 1 110 0
 178 0008 0E4D     		ldr	r5, .L12
 179              		.loc 1 109 0
 180 000a FFF7FEFF 		bl	dbg_check_lock
 181              	.LVL20:
 182              		.loc 1 110 0
 183 000e EA69     		ldr	r2, [r5, #28]
 184 0010 1346     		mov	r3, r2
 185 0012 53F8304F 		ldr	r4, [r3, #48]!
 186 0016 9C42     		cmp	r4, r3
 187 0018 0CD0     		beq	.L11
 188              	.L10:
 189              	.LVL21:
 190              	.LBB19:
 191              	.LBB20:
 192              		.loc 2 62 0
 193 001a 2168     		ldr	r1, [r4, #0]
 194              	.LBE20:
 195              	.LBE19:
 196              		.loc 1 113 0
 197 001c 0B20     		movs	r0, #11
 198              	.LBB22:
 199              	.LBB21:
 200              		.loc 2 62 0
 201 001e 1163     		str	r1, [r2, #48]
 202 0020 4B60     		str	r3, [r1, #4]
 203              	.LBE21:
 204              	.LBE22:
 205              		.loc 1 113 0
 206 0022 84F82000 		strb	r0, [r4, #32]
 207              		.loc 1 114 0
 208 0026 FFF7FEFF 		bl	dbg_check_unlock
 209              	.LVL22:
 210              	.LBB23:
 211 002a 0023     		movs	r3, #0
 212              	.LVL23:
 213              	@ 114 "../../os/kernel/src/chmsg.c" 1
 214 002c 83F31188 		msr     BASEPRI, r3
 215              	@ 0 "" 2
 216              	.LVL24:
 217              		.thumb
 218              	.LBE23:
 219              		.loc 1 116 0
 220 0030 2046     		mov	r0, r4
 221 0032 38BD     		pop	{r3, r4, r5, pc}
 222              	.LVL25:
 223              	.L11:
 224              		.loc 1 111 0
 225 0034 0C20     		movs	r0, #12
 226 0036 FFF7FEFF 		bl	chSchGoSleepS
 227              	.LVL26:
 228 003a EA69     		ldr	r2, [r5, #28]
ARM GAS  /tmp/cc3Ln6QS.s 			page 5


 229 003c 1346     		mov	r3, r2
 230 003e 53F8304F 		ldr	r4, [r3, #48]!
 231 0042 EAE7     		b	.L10
 232              	.L13:
 233              		.align	2
 234              	.L12:
 235 0044 00000000 		.word	rlist
 236              		.cfi_endproc
 237              	.LFE8:
 238              		.size	chMsgWait, .-chMsgWait
 239 0048 AFF30080 		.section	.text.chMsgRelease,"ax",%progbits
 239      AFF30080 
 240              		.align	2
 241              		.p2align 4,,15
 242              		.global	chMsgRelease
 243              		.thumb
 244              		.thumb_func
 245              		.type	chMsgRelease, %function
 246              	chMsgRelease:
 247              	.LFB9:
 248              		.loc 1 128 0
 249              		.cfi_startproc
 250              		@ args = 0, pretend = 0, frame = 0
 251              		@ frame_needed = 0, uses_anonymous_args = 0
 252              	.LVL27:
 253 0000 38B5     		push	{r3, r4, r5, lr}
 254              	.LCFI2:
 255              		.cfi_def_cfa_offset 16
 256              		.cfi_offset 3, -16
 257              		.cfi_offset 4, -12
 258              		.cfi_offset 5, -8
 259              		.cfi_offset 14, -4
 260              		.loc 1 128 0
 261 0002 0446     		mov	r4, r0
 262 0004 0D46     		mov	r5, r1
 263              	.LBB24:
 264              		.loc 1 130 0
 265 0006 2023     		movs	r3, #32
 266              	.LVL28:
 267              	@ 130 "../../os/kernel/src/chmsg.c" 1
 268 0008 83F31188 		msr     BASEPRI, r3
 269              	@ 0 "" 2
 270              	.LVL29:
 271              		.thumb
 272              	.LBE24:
 273 000c FFF7FEFF 		bl	dbg_check_lock
 274              	.LVL30:
 275              		.loc 1 131 0
 276 0010 94F82030 		ldrb	r3, [r4, #32]	@ zero_extendqisi2
 277 0014 0B2B     		cmp	r3, #11
 278 0016 02D0     		beq	.L15
 279              		.loc 1 131 0 is_stmt 0 discriminator 1
 280 0018 0648     		ldr	r0, .L19
 281 001a FFF7FEFF 		bl	chDbgPanic
 282              	.LVL31:
 283              	.L15:
 284              		.loc 1 133 0 is_stmt 1
ARM GAS  /tmp/cc3Ln6QS.s 			page 6


 285 001e 2046     		mov	r0, r4
 286 0020 2946     		mov	r1, r5
 287 0022 FFF7FEFF 		bl	chSchWakeupS
 288              	.LVL32:
 289              		.loc 1 134 0
 290 0026 FFF7FEFF 		bl	dbg_check_unlock
 291              	.LVL33:
 292              	.LBB25:
 293 002a 0023     		movs	r3, #0
 294              	.LVL34:
 295              	@ 134 "../../os/kernel/src/chmsg.c" 1
 296 002c 83F31188 		msr     BASEPRI, r3
 297              	@ 0 "" 2
 298              	.LVL35:
 299              		.thumb
 300 0030 38BD     		pop	{r3, r4, r5, pc}
 301              	.L20:
 302 0032 00BF     		.align	2
 303              	.L19:
 304 0034 10000000 		.word	.LC1
 305              	.LBE25:
 306              		.cfi_endproc
 307              	.LFE9:
 308              		.size	chMsgRelease, .-chMsgRelease
 309 0038 AFF30080 		.section	.rodata.str1.4,"aMS",%progbits,1
 309      AFF30080 
 310              		.align	2
 311              	.LC0:
 312 0000 2263684D 		.ascii	"\"chMsgSend\"()\000"
 312      73675365 
 312      6E642228 
 312      2900
 313 000e 0000     		.space	2
 314              	.LC1:
 315 0010 63684D73 		.ascii	"chMsgRelease(), #1\000"
 315      6752656C 
 315      65617365 
 315      28292C20 
 315      233100
 316 0023 00       		.text
 317              	.Letext0:
 318              		.file 3 "/usr/bin/../lib/gcc/arm-none-eabi/4.7.4/../../../../arm-none-eabi/include/stdint.h"
 319              		.file 4 "../../os/ports/GCC/ARMCMx/chtypes.h"
 320              		.file 5 "../../os/kernel/include/chlists.h"
 321              		.file 6 "../../os/kernel/include/chthreads.h"
 322              		.file 7 "../../os/ports/GCC/ARMCMx/chcore_v7m.h"
 323              		.file 8 "../../os/kernel/include/chschd.h"
 324              		.file 9 "../../os/kernel/include/chmtx.h"
 325              		.file 10 "../../os/kernel/include/chdebug.h"