ARM GAS  /var/folders/dt/0wfd0knj7gs46m8vwfzktm600000gn/T//cchLYT03.s 			page 1


   1              		.syntax unified
   2              		.cpu cortex-m3
   3              		.fpu softvfp
   4              		.eabi_attribute 20, 1
   5              		.eabi_attribute 21, 1
   6              		.eabi_attribute 23, 3
   7              		.eabi_attribute 24, 1
   8              		.eabi_attribute 25, 1
   9              		.eabi_attribute 26, 1
  10              		.eabi_attribute 30, 2
  11              		.eabi_attribute 34, 1
  12              		.eabi_attribute 18, 4
  13              		.thumb
  14              		.file	"chmtx.c"
  15              		.text
  16              	.Ltext0:
  17              		.cfi_sections	.debug_frame
  18              		.section	.text.chMtxInit,"ax",%progbits
  19              		.align	2
  20              		.p2align 4,,15
  21              		.global	chMtxInit
  22              		.thumb
  23              		.thumb_func
  24              		.type	chMtxInit, %function
  25              	chMtxInit:
  26              	.LFB7:
  27              		.file 1 "../../os/kernel/src/chmtx.c"
  28              		.loc 1 86 0
  29              		.cfi_startproc
  30              		@ args = 0, pretend = 0, frame = 0
  31              		@ frame_needed = 0, uses_anonymous_args = 0
  32              	.LVL0:
  33 0000 10B5     		push	{r4, lr}
  34              	.LCFI0:
  35              		.cfi_def_cfa_offset 8
  36              		.cfi_offset 4, -8
  37              		.cfi_offset 14, -4
  38              		.loc 1 88 0
  39 0002 0446     		mov	r4, r0
  40 0004 20B1     		cbz	r0, .L4
  41              	.LVL1:
  42              	.L2:
  43              		.loc 1 91 0
  44 0006 0023     		movs	r3, #0
  45              		.loc 1 90 0
  46 0008 6460     		str	r4, [r4, #4]
  47 000a 2460     		str	r4, [r4, #0]
  48              		.loc 1 91 0
  49 000c A360     		str	r3, [r4, #8]
  50 000e 10BD     		pop	{r4, pc}
  51              	.LVL2:
  52              	.L4:
  53              		.loc 1 88 0 discriminator 1
  54 0010 0148     		ldr	r0, .L5
  55              	.LVL3:
  56 0012 FFF7FEFF 		bl	chDbgPanic
  57              	.LVL4:
ARM GAS  /var/folders/dt/0wfd0knj7gs46m8vwfzktm600000gn/T//cchLYT03.s 			page 2


  58 0016 F6E7     		b	.L2
  59              	.L6:
  60              		.align	2
  61              	.L5:
  62 0018 00000000 		.word	.LC0
  63              		.cfi_endproc
  64              	.LFE7:
  65              		.size	chMtxInit, .-chMtxInit
  66 001c AFF30080 		.section	.text.chMtxLockS,"ax",%progbits
  67              		.align	2
  68              		.p2align 4,,15
  69              		.global	chMtxLockS
  70              		.thumb
  71              		.thumb_func
  72              		.type	chMtxLockS, %function
  73              	chMtxLockS:
  74              	.LFB9:
  75              		.loc 1 121 0
  76              		.cfi_startproc
  77              		@ args = 0, pretend = 0, frame = 0
  78              		@ frame_needed = 0, uses_anonymous_args = 0
  79              	.LVL5:
  80 0000 F8B5     		push	{r3, r4, r5, r6, r7, lr}
  81              	.LCFI1:
  82              		.cfi_def_cfa_offset 24
  83              		.cfi_offset 3, -24
  84              		.cfi_offset 4, -20
  85              		.cfi_offset 5, -16
  86              		.cfi_offset 6, -12
  87              		.cfi_offset 7, -8
  88              		.cfi_offset 14, -4
  89              		.loc 1 122 0
  90 0002 3B4B     		ldr	r3, .L36
  91              		.loc 1 121 0
  92 0004 0546     		mov	r5, r0
  93              		.loc 1 122 0
  94 0006 DC69     		ldr	r4, [r3, #28]
  95              	.LVL6:
  96              		.loc 1 124 0
  97 0008 FFF7FEFF 		bl	chDbgCheckClassS
  98              	.LVL7:
  99              		.loc 1 125 0
 100 000c 002D     		cmp	r5, #0
 101 000e 6BD0     		beq	.L34
 102              	.L8:
 103              		.loc 1 128 0
 104 0010 A868     		ldr	r0, [r5, #8]
 105 0012 0028     		cmp	r0, #0
 106 0014 36D0     		beq	.L9
 107              	.LVL8:
 108              	.LBB29:
 109              		.loc 1 135 0 discriminator 1
 110 0016 A268     		ldr	r2, [r4, #8]
 111 0018 8368     		ldr	r3, [r0, #8]
 112 001a 9342     		cmp	r3, r2
 113 001c 08D2     		bcs	.L11
 114              	.L29:
ARM GAS  /var/folders/dt/0wfd0knj7gs46m8vwfzktm600000gn/T//cchLYT03.s 			page 3


 115              		.loc 1 139 0
 116 001e 90F82030 		ldrb	r3, [r0, #32]	@ zero_extendqisi2
 117              		.loc 1 137 0
 118 0022 8260     		str	r2, [r0, #8]
 119              		.loc 1 139 0
 120 0024 042B     		cmp	r3, #4
 121 0026 45D0     		beq	.L13
 122 0028 052B     		cmp	r3, #5
 123 002a 30D0     		beq	.L14
 124 002c 002B     		cmp	r3, #0
 125 002e 1ED0     		beq	.L12
 126              	.LVL9:
 127              	.L11:
 128              		.file 2 "../../os/kernel/include/chinline.h"
 129              		.loc 2 43 0
 130 0030 2B46     		mov	r3, r5
 131              	.LVL10:
 132              	.L26:
 133              	.LBB30:
 134              	.LBB31:
 135              		.loc 2 45 0
 136 0032 1B68     		ldr	r3, [r3, #0]
 137              	.LVL11:
 138              		.loc 2 46 0
 139 0034 9D42     		cmp	r5, r3
 140 0036 03D0     		beq	.L27
 141 0038 9968     		ldr	r1, [r3, #8]
 142 003a A268     		ldr	r2, [r4, #8]
 143 003c 9142     		cmp	r1, r2
 144 003e F8D2     		bcs	.L26
 145              	.L27:
 146              		.loc 2 48 0
 147 0040 5A68     		ldr	r2, [r3, #4]
 148              		.loc 2 47 0
 149 0042 2360     		str	r3, [r4, #0]
 150              		.loc 2 48 0
 151 0044 6260     		str	r2, [r4, #4]
 152              	.LBE31:
 153              	.LBE30:
 154              		.loc 1 175 0
 155 0046 0420     		movs	r0, #4
 156              	.LBB33:
 157              	.LBB32:
 158              		.loc 2 49 0
 159 0048 5C60     		str	r4, [r3, #4]
 160 004a 1460     		str	r4, [r2, #0]
 161              	.LBE32:
 162              	.LBE33:
 163              		.loc 1 174 0
 164 004c A562     		str	r5, [r4, #40]
 165              		.loc 1 175 0
 166 004e FFF7FEFF 		bl	chSchGoSleepS
 167              	.LVL12:
 168              		.loc 1 178 0
 169 0052 AB68     		ldr	r3, [r5, #8]
 170 0054 A342     		cmp	r3, r4
 171 0056 02D0     		beq	.L25
ARM GAS  /var/folders/dt/0wfd0knj7gs46m8vwfzktm600000gn/T//cchLYT03.s 			page 4


 172              		.loc 1 178 0 is_stmt 0 discriminator 1
 173 0058 2648     		ldr	r0, .L36+4
 174 005a FFF7FEFF 		bl	chDbgPanic
 175              	.LVL13:
 176              	.L25:
 177              		.loc 1 179 0 is_stmt 1
 178 005e 236C     		ldr	r3, [r4, #64]
 179 0060 AB42     		cmp	r3, r5
 180 0062 13D0     		beq	.L7
 181              		.loc 1 179 0 is_stmt 0 discriminator 1
 182 0064 2448     		ldr	r0, .L36+8
 183              	.LBE29:
 184              		.loc 1 187 0 is_stmt 1 discriminator 1
 185 0066 BDE8F840 		pop	{r3, r4, r5, r6, r7, lr}
 186              	.LBB56:
 187              		.loc 1 179 0 discriminator 1
 188 006a FFF7FEBF 		b	chDbgPanic
 189              	.LVL14:
 190              	.L12:
 191              	.LBB34:
 192              	.LBB35:
 193              		.loc 2 75 0
 194 006e 90E80C00 		ldmia	r0, {r2, r3}
 195 0072 1A60     		str	r2, [r3, #0]
 196              		.loc 2 76 0
 197 0074 0268     		ldr	r2, [r0, #0]
 198              	.LBE35:
 199              	.LBE34:
 200              		.loc 1 164 0
 201 0076 0121     		movs	r1, #1
 202 0078 80F82010 		strb	r1, [r0, #32]
 203              	.LVL15:
 204              	.LBB37:
 205              	.LBB36:
 206              		.loc 2 76 0
 207 007c 5360     		str	r3, [r2, #4]
 208              	.LBE36:
 209              	.LBE37:
 210              		.loc 1 167 0
 211 007e FFF7FEFF 		bl	chSchReadyI
 212              	.LVL16:
 213              		.loc 1 168 0
 214 0082 D5E7     		b	.L11
 215              	.L9:
 216              	.LBE56:
 217              		.loc 1 184 0
 218 0084 236C     		ldr	r3, [r4, #64]
 219              		.loc 1 183 0
 220 0086 AC60     		str	r4, [r5, #8]
 221              		.loc 1 184 0
 222 0088 EB60     		str	r3, [r5, #12]
 223              		.loc 1 185 0
 224 008a 2564     		str	r5, [r4, #64]
 225              	.L7:
 226 008c F8BD     		pop	{r3, r4, r5, r6, r7, pc}
 227              	.LVL17:
 228              	.L14:
ARM GAS  /var/folders/dt/0wfd0knj7gs46m8vwfzktm600000gn/T//cchLYT03.s 			page 5


 229              	.LBB57:
 230              	.LBB38:
 231              	.LBB39:
 232              		.loc 2 75 0
 233 008e 4168     		ldr	r1, [r0, #4]
 234 0090 0368     		ldr	r3, [r0, #0]
 235              	.LBE39:
 236              	.LBE38:
 237              		.loc 1 158 0
 238 0092 866A     		ldr	r6, [r0, #40]
 239              	.LVL18:
 240              	.LBB42:
 241              	.LBB40:
 242              		.loc 2 75 0
 243 0094 0B60     		str	r3, [r1, #0]
 244              		.loc 2 76 0
 245 0096 0768     		ldr	r7, [r0, #0]
 246              	.LBE40:
 247              	.LBE42:
 248              		.loc 2 43 0
 249 0098 3346     		mov	r3, r6
 250              	.LBB43:
 251              	.LBB41:
 252              		.loc 2 76 0
 253 009a 7960     		str	r1, [r7, #4]
 254              	.LVL19:
 255              	.L21:
 256              	.LBE41:
 257              	.LBE43:
 258              	.LBB44:
 259              	.LBB45:
 260              		.loc 2 45 0
 261 009c 1B68     		ldr	r3, [r3, #0]
 262              	.LVL20:
 263              		.loc 2 46 0
 264 009e 9E42     		cmp	r6, r3
 265 00a0 02D0     		beq	.L22
 266 00a2 9968     		ldr	r1, [r3, #8]
 267 00a4 9142     		cmp	r1, r2
 268 00a6 F9D2     		bcs	.L21
 269              	.L22:
 270              		.loc 2 48 0
 271 00a8 5A68     		ldr	r2, [r3, #4]
 272              		.loc 2 47 0
 273 00aa 0360     		str	r3, [r0, #0]
 274              		.loc 2 48 0
 275 00ac 4260     		str	r2, [r0, #4]
 276              		.loc 2 49 0
 277 00ae 1060     		str	r0, [r2, #0]
 278 00b0 5860     		str	r0, [r3, #4]
 279 00b2 BDE7     		b	.L11
 280              	.LVL21:
 281              	.L13:
 282              	.LBE45:
 283              	.LBE44:
 284              	.LBB46:
 285              	.LBB47:
ARM GAS  /var/folders/dt/0wfd0knj7gs46m8vwfzktm600000gn/T//cchLYT03.s 			page 6


 286              		.loc 2 75 0
 287 00b4 4168     		ldr	r1, [r0, #4]
 288 00b6 0368     		ldr	r3, [r0, #0]
 289              	.LBE47:
 290              	.LBE46:
 291              		.loc 1 142 0
 292 00b8 866A     		ldr	r6, [r0, #40]
 293              	.LVL22:
 294              	.LBB50:
 295              	.LBB48:
 296              		.loc 2 75 0
 297 00ba 0B60     		str	r3, [r1, #0]
 298              		.loc 2 76 0
 299 00bc 0768     		ldr	r7, [r0, #0]
 300              	.LBE48:
 301              	.LBE50:
 302              		.loc 1 142 0
 303 00be 3346     		mov	r3, r6
 304              	.LBB51:
 305              	.LBB49:
 306              		.loc 2 76 0
 307 00c0 7960     		str	r1, [r7, #4]
 308              	.LVL23:
 309              	.L18:
 310              	.LBE49:
 311              	.LBE51:
 312              	.LBB52:
 313              	.LBB53:
 314              		.loc 2 45 0
 315 00c2 1B68     		ldr	r3, [r3, #0]
 316              	.LVL24:
 317              		.loc 2 46 0
 318 00c4 9E42     		cmp	r6, r3
 319 00c6 0DD0     		beq	.L35
 320 00c8 9968     		ldr	r1, [r3, #8]
 321 00ca 9142     		cmp	r1, r2
 322 00cc F9D2     		bcs	.L18
 323              	.LVL25:
 324              	.L19:
 325              		.loc 2 48 0
 326 00ce 5A68     		ldr	r2, [r3, #4]
 327              		.loc 2 47 0
 328 00d0 0360     		str	r3, [r0, #0]
 329              		.loc 2 48 0
 330 00d2 4260     		str	r2, [r0, #4]
 331              		.loc 2 49 0
 332 00d4 1060     		str	r0, [r2, #0]
 333 00d6 5860     		str	r0, [r3, #4]
 334              	.LBE53:
 335              	.LBE52:
 336              		.loc 1 143 0
 337 00d8 B068     		ldr	r0, [r6, #8]
 338              	.LVL26:
 339              		.loc 1 135 0
 340 00da A268     		ldr	r2, [r4, #8]
 341 00dc 8368     		ldr	r3, [r0, #8]
 342              	.LVL27:
ARM GAS  /var/folders/dt/0wfd0knj7gs46m8vwfzktm600000gn/T//cchLYT03.s 			page 7


 343 00de 9342     		cmp	r3, r2
 344 00e0 9DD3     		bcc	.L29
 345 00e2 A5E7     		b	.L11
 346              	.LVL28:
 347              	.L35:
 348              	.LBB55:
 349              	.LBB54:
 350              		.loc 2 46 0
 351 00e4 3346     		mov	r3, r6
 352              	.LVL29:
 353 00e6 F2E7     		b	.L19
 354              	.LVL30:
 355              	.L34:
 356              	.LBE54:
 357              	.LBE55:
 358              	.LBE57:
 359              		.loc 1 125 0 discriminator 1
 360 00e8 0448     		ldr	r0, .L36+12
 361 00ea FFF7FEFF 		bl	chDbgPanic
 362              	.LVL31:
 363 00ee 8FE7     		b	.L8
 364              	.L37:
 365              		.align	2
 366              	.L36:
 367 00f0 00000000 		.word	rlist
 368 00f4 20000000 		.word	.LC2
 369 00f8 34000000 		.word	.LC3
 370 00fc 10000000 		.word	.LC1
 371              		.cfi_endproc
 372              	.LFE9:
 373              		.size	chMtxLockS, .-chMtxLockS
 374              		.section	.text.chMtxLock,"ax",%progbits
 375              		.align	2
 376              		.p2align 4,,15
 377              		.global	chMtxLock
 378              		.thumb
 379              		.thumb_func
 380              		.type	chMtxLock, %function
 381              	chMtxLock:
 382              	.LFB8:
 383              		.loc 1 103 0
 384              		.cfi_startproc
 385              		@ args = 0, pretend = 0, frame = 0
 386              		@ frame_needed = 0, uses_anonymous_args = 0
 387              	.LVL32:
 388 0000 10B5     		push	{r4, lr}
 389              	.LCFI2:
 390              		.cfi_def_cfa_offset 8
 391              		.cfi_offset 4, -8
 392              		.cfi_offset 14, -4
 393              	.LBB58:
 394              		.loc 1 105 0
 395 0002 2023     		movs	r3, #32
 396              	.LVL33:
 397              	.LBE58:
 398              		.loc 1 103 0
 399 0004 0446     		mov	r4, r0
ARM GAS  /var/folders/dt/0wfd0knj7gs46m8vwfzktm600000gn/T//cchLYT03.s 			page 8


 400              	.LBB59:
 401              		.loc 1 105 0
 402              	@ 105 "../../os/kernel/src/chmtx.c" 1
 403 0006 83F31188 		msr     BASEPRI, r3
 404              	@ 0 "" 2
 405              	.LVL34:
 406              		.thumb
 407              	.LBE59:
 408 000a FFF7FEFF 		bl	dbg_check_lock
 409              	.LVL35:
 410              		.loc 1 107 0
 411 000e 2046     		mov	r0, r4
 412 0010 FFF7FEFF 		bl	chMtxLockS
 413              	.LVL36:
 414              		.loc 1 109 0
 415 0014 FFF7FEFF 		bl	dbg_check_unlock
 416              	.LVL37:
 417              	.LBB60:
 418 0018 0023     		movs	r3, #0
 419              	.LVL38:
 420              	@ 109 "../../os/kernel/src/chmtx.c" 1
 421 001a 83F31188 		msr     BASEPRI, r3
 422              	@ 0 "" 2
 423              	.LVL39:
 424              		.thumb
 425 001e 10BD     		pop	{r4, pc}
 426              	.LBE60:
 427              		.cfi_endproc
 428              	.LFE8:
 429              		.size	chMtxLock, .-chMtxLock
 430              		.section	.text.chMtxTryLockS,"ax",%progbits
 431              		.align	2
 432              		.p2align 4,,15
 433              		.global	chMtxTryLockS
 434              		.thumb
 435              		.thumb_func
 436              		.type	chMtxTryLockS, %function
 437              	chMtxTryLockS:
 438              	.LFB11:
 439              		.loc 1 234 0
 440              		.cfi_startproc
 441              		@ args = 0, pretend = 0, frame = 0
 442              		@ frame_needed = 0, uses_anonymous_args = 0
 443              	.LVL40:
 444 0000 10B5     		push	{r4, lr}
 445              	.LCFI3:
 446              		.cfi_def_cfa_offset 8
 447              		.cfi_offset 4, -8
 448              		.cfi_offset 14, -4
 449              		.loc 1 234 0
 450 0002 0446     		mov	r4, r0
 451              		.loc 1 236 0
 452 0004 FFF7FEFF 		bl	chDbgCheckClassS
 453              	.LVL41:
 454              		.loc 1 237 0
 455 0008 5CB1     		cbz	r4, .L43
 456              	.L40:
ARM GAS  /var/folders/dt/0wfd0knj7gs46m8vwfzktm600000gn/T//cchLYT03.s 			page 9


 457              		.loc 1 239 0
 458 000a A368     		ldr	r3, [r4, #8]
 459 000c 0BB1     		cbz	r3, .L44
 460              		.loc 1 240 0
 461 000e 0020     		movs	r0, #0
 462              		.loc 1 245 0
 463 0010 10BD     		pop	{r4, pc}
 464              	.L44:
 465              		.loc 1 241 0
 466 0012 064B     		ldr	r3, .L45
 467              		.loc 1 244 0
 468 0014 0120     		movs	r0, #1
 469              		.loc 1 241 0
 470 0016 DB69     		ldr	r3, [r3, #28]
 471              		.loc 1 242 0
 472 0018 1A6C     		ldr	r2, [r3, #64]
 473              		.loc 1 241 0
 474 001a A360     		str	r3, [r4, #8]
 475              		.loc 1 242 0
 476 001c E260     		str	r2, [r4, #12]
 477              		.loc 1 243 0
 478 001e 1C64     		str	r4, [r3, #64]
 479              		.loc 1 244 0
 480 0020 10BD     		pop	{r4, pc}
 481              	.L43:
 482              		.loc 1 237 0 discriminator 1
 483 0022 0348     		ldr	r0, .L45+4
 484 0024 FFF7FEFF 		bl	chDbgPanic
 485              	.LVL42:
 486 0028 EFE7     		b	.L40
 487              	.L46:
 488 002a 00BF     		.align	2
 489              	.L45:
 490 002c 00000000 		.word	rlist
 491 0030 48000000 		.word	.LC4
 492              		.cfi_endproc
 493              	.LFE11:
 494              		.size	chMtxTryLockS, .-chMtxTryLockS
 495 0034 AFF30080 		.section	.text.chMtxTryLock,"ax",%progbits
 495      AFF30080 
 495      AFF30080 
 496              		.align	2
 497              		.p2align 4,,15
 498              		.global	chMtxTryLock
 499              		.thumb
 500              		.thumb_func
 501              		.type	chMtxTryLock, %function
 502              	chMtxTryLock:
 503              	.LFB10:
 504              		.loc 1 206 0
 505              		.cfi_startproc
 506              		@ args = 0, pretend = 0, frame = 0
 507              		@ frame_needed = 0, uses_anonymous_args = 0
 508              	.LVL43:
 509 0000 10B5     		push	{r4, lr}
 510              	.LCFI4:
 511              		.cfi_def_cfa_offset 8
ARM GAS  /var/folders/dt/0wfd0knj7gs46m8vwfzktm600000gn/T//cchLYT03.s 			page 10


 512              		.cfi_offset 4, -8
 513              		.cfi_offset 14, -4
 514              	.LBB61:
 515              		.loc 1 209 0
 516 0002 2023     		movs	r3, #32
 517              	.LVL44:
 518              	.LBE61:
 519              		.loc 1 206 0
 520 0004 0446     		mov	r4, r0
 521              	.LBB62:
 522              		.loc 1 209 0
 523              	@ 209 "../../os/kernel/src/chmtx.c" 1
 524 0006 83F31188 		msr     BASEPRI, r3
 525              	@ 0 "" 2
 526              	.LVL45:
 527              		.thumb
 528              	.LBE62:
 529 000a FFF7FEFF 		bl	dbg_check_lock
 530              	.LVL46:
 531              		.loc 1 211 0
 532 000e 2046     		mov	r0, r4
 533 0010 FFF7FEFF 		bl	chMtxTryLockS
 534              	.LVL47:
 535 0014 0446     		mov	r4, r0
 536              	.LVL48:
 537              		.loc 1 213 0
 538 0016 FFF7FEFF 		bl	dbg_check_unlock
 539              	.LVL49:
 540              	.LBB63:
 541 001a 0023     		movs	r3, #0
 542              	.LVL50:
 543              	@ 213 "../../os/kernel/src/chmtx.c" 1
 544 001c 83F31188 		msr     BASEPRI, r3
 545              	@ 0 "" 2
 546              	.LVL51:
 547              		.thumb
 548              	.LBE63:
 549              		.loc 1 215 0
 550 0020 2046     		mov	r0, r4
 551 0022 10BD     		pop	{r4, pc}
 552              		.cfi_endproc
 553              	.LFE10:
 554              		.size	chMtxTryLock, .-chMtxTryLock
 555 0024 AFF30080 		.section	.text.chMtxUnlock,"ax",%progbits
 555      AFF30080 
 555      AFF30080 
 556              		.align	2
 557              		.p2align 4,,15
 558              		.global	chMtxUnlock
 559              		.thumb
 560              		.thumb_func
 561              		.type	chMtxUnlock, %function
 562              	chMtxUnlock:
 563              	.LFB12:
 564              		.loc 1 257 0
 565              		.cfi_startproc
 566              		@ args = 0, pretend = 0, frame = 0
ARM GAS  /var/folders/dt/0wfd0knj7gs46m8vwfzktm600000gn/T//cchLYT03.s 			page 11


 567              		@ frame_needed = 0, uses_anonymous_args = 0
 568              		.loc 1 258 0
 569 0000 1E4A     		ldr	r2, .L62
 570              		.loc 1 257 0
 571 0002 70B5     		push	{r4, r5, r6, lr}
 572              	.LCFI5:
 573              		.cfi_def_cfa_offset 16
 574              		.cfi_offset 4, -16
 575              		.cfi_offset 5, -12
 576              		.cfi_offset 6, -8
 577              		.cfi_offset 14, -4
 578              	.LBB64:
 579              		.loc 1 261 0
 580 0004 2023     		movs	r3, #32
 581              	.LVL52:
 582              	.LBE64:
 583              		.loc 1 258 0
 584 0006 D569     		ldr	r5, [r2, #28]
 585              	.LVL53:
 586              	.LBB65:
 587              		.loc 1 261 0
 588              	@ 261 "../../os/kernel/src/chmtx.c" 1
 589 0008 83F31188 		msr     BASEPRI, r3
 590              	@ 0 "" 2
 591              	.LVL54:
 592              		.thumb
 593              	.LBE65:
 594 000c FFF7FEFF 		bl	dbg_check_lock
 595              	.LVL55:
 596              		.loc 1 262 0
 597 0010 2C6C     		ldr	r4, [r5, #64]
 598 0012 002C     		cmp	r4, #0
 599 0014 2DD0     		beq	.L61
 600              	.L49:
 601              		.loc 1 265 0
 602 0016 A368     		ldr	r3, [r4, #8]
 603 0018 AB42     		cmp	r3, r5
 604 001a 03D0     		beq	.L50
 605              		.loc 1 265 0 is_stmt 0 discriminator 1
 606 001c 1848     		ldr	r0, .L62+4
 607 001e FFF7FEFF 		bl	chDbgPanic
 608              	.LVL56:
 609 0022 2C6C     		ldr	r4, [r5, #64]
 610              	.L50:
 611              	.LVL57:
 612              		.loc 1 273 0 is_stmt 1
 613 0024 2668     		ldr	r6, [r4, #0]
 614              		.loc 1 271 0
 615 0026 E368     		ldr	r3, [r4, #12]
 616              		.loc 1 273 0
 617 0028 A642     		cmp	r6, r4
 618              		.loc 1 271 0
 619 002a 2B64     		str	r3, [r5, #64]
 620              		.loc 1 273 0
 621 002c 1ED0     		beq	.L51
 622              	.LBB66:
 623              		.loc 1 278 0
ARM GAS  /var/folders/dt/0wfd0knj7gs46m8vwfzktm600000gn/T//cchLYT03.s 			page 12


 624 002e 696C     		ldr	r1, [r5, #68]
 625              	.LVL58:
 626              		.loc 1 280 0
 627 0030 4BB1     		cbz	r3, .L52
 628              	.L58:
 629              		.loc 1 284 0
 630 0032 1A68     		ldr	r2, [r3, #0]
 631 0034 9A42     		cmp	r2, r3
 632 0036 03D0     		beq	.L53
 633              		.loc 1 284 0 is_stmt 0 discriminator 1
 634 0038 9268     		ldr	r2, [r2, #8]
 635 003a 9142     		cmp	r1, r2
 636 003c 38BF     		it	cc
 637 003e 1146     		movcc	r1, r2
 638              	.LVL59:
 639              	.L53:
 640              		.loc 1 286 0 is_stmt 1
 641 0040 DB68     		ldr	r3, [r3, #12]
 642              	.LVL60:
 643              		.loc 1 280 0
 644 0042 002B     		cmp	r3, #0
 645 0044 F5D1     		bne	.L58
 646              	.L52:
 647              	.LBB67:
 648              	.LBB68:
 649              		.loc 2 62 0
 650 0046 3368     		ldr	r3, [r6, #0]
 651              	.LVL61:
 652              	.LBE68:
 653              	.LBE67:
 654              		.loc 1 295 0
 655 0048 326C     		ldr	r2, [r6, #64]
 656              		.loc 1 290 0
 657 004a A960     		str	r1, [r5, #8]
 658              	.LVL62:
 659              		.loc 1 297 0
 660 004c 3046     		mov	r0, r6
 661              	.LBB71:
 662              	.LBB69:
 663              		.loc 2 62 0
 664 004e 2360     		str	r3, [r4, #0]
 665              	.LBE69:
 666              	.LBE71:
 667              		.loc 1 297 0
 668 0050 0021     		movs	r1, #0
 669              	.LVL63:
 670              	.LBB72:
 671              	.LBB70:
 672              		.loc 2 62 0
 673 0052 5C60     		str	r4, [r3, #4]
 674              	.LBE70:
 675              	.LBE72:
 676              		.loc 1 294 0
 677 0054 A660     		str	r6, [r4, #8]
 678              		.loc 1 295 0
 679 0056 E260     		str	r2, [r4, #12]
 680              		.loc 1 296 0
ARM GAS  /var/folders/dt/0wfd0knj7gs46m8vwfzktm600000gn/T//cchLYT03.s 			page 13


 681 0058 3464     		str	r4, [r6, #64]
 682              		.loc 1 297 0
 683 005a FFF7FEFF 		bl	chSchWakeupS
 684              	.LVL64:
 685              	.L55:
 686              	.LBE66:
 687              		.loc 1 301 0
 688 005e FFF7FEFF 		bl	dbg_check_unlock
 689              	.LVL65:
 690              	.LBB73:
 691 0062 0023     		movs	r3, #0
 692              	.LVL66:
 693              	@ 301 "../../os/kernel/src/chmtx.c" 1
 694 0064 83F31188 		msr     BASEPRI, r3
 695              	@ 0 "" 2
 696              	.LVL67:
 697              		.thumb
 698              	.LBE73:
 699              		.loc 1 303 0
 700 0068 2046     		mov	r0, r4
 701 006a 70BD     		pop	{r4, r5, r6, pc}
 702              	.LVL68:
 703              	.L51:
 704              		.loc 1 300 0
 705 006c 0023     		movs	r3, #0
 706 006e A360     		str	r3, [r4, #8]
 707 0070 F5E7     		b	.L55
 708              	.LVL69:
 709              	.L61:
 710              		.loc 1 262 0 discriminator 1
 711 0072 0448     		ldr	r0, .L62+8
 712 0074 FFF7FEFF 		bl	chDbgPanic
 713              	.LVL70:
 714 0078 2C6C     		ldr	r4, [r5, #64]
 715 007a CCE7     		b	.L49
 716              	.L63:
 717              		.align	2
 718              	.L62:
 719 007c 00000000 		.word	rlist
 720 0080 70000000 		.word	.LC6
 721 0084 5C000000 		.word	.LC5
 722              		.cfi_endproc
 723              	.LFE12:
 724              		.size	chMtxUnlock, .-chMtxUnlock
 725 0088 AFF30080 		.section	.text.chMtxUnlockS,"ax",%progbits
 725      AFF30080 
 726              		.align	2
 727              		.p2align 4,,15
 728              		.global	chMtxUnlockS
 729              		.thumb
 730              		.thumb_func
 731              		.type	chMtxUnlockS, %function
 732              	chMtxUnlockS:
 733              	.LFB13:
 734              		.loc 1 317 0
 735              		.cfi_startproc
 736              		@ args = 0, pretend = 0, frame = 0
ARM GAS  /var/folders/dt/0wfd0knj7gs46m8vwfzktm600000gn/T//cchLYT03.s 			page 14


 737              		@ frame_needed = 0, uses_anonymous_args = 0
 738              		.loc 1 318 0
 739 0000 1A4B     		ldr	r3, .L78
 740              		.loc 1 317 0
 741 0002 70B5     		push	{r4, r5, r6, lr}
 742              	.LCFI6:
 743              		.cfi_def_cfa_offset 16
 744              		.cfi_offset 4, -16
 745              		.cfi_offset 5, -12
 746              		.cfi_offset 6, -8
 747              		.cfi_offset 14, -4
 748              		.loc 1 318 0
 749 0004 DD69     		ldr	r5, [r3, #28]
 750              	.LVL71:
 751              		.loc 1 321 0
 752 0006 FFF7FEFF 		bl	chDbgCheckClassS
 753              	.LVL72:
 754              		.loc 1 322 0
 755 000a 2C6C     		ldr	r4, [r5, #64]
 756 000c 002C     		cmp	r4, #0
 757 000e 28D0     		beq	.L77
 758              	.L65:
 759              		.loc 1 325 0
 760 0010 A368     		ldr	r3, [r4, #8]
 761 0012 AB42     		cmp	r3, r5
 762 0014 03D0     		beq	.L66
 763              		.loc 1 325 0 is_stmt 0 discriminator 1
 764 0016 1648     		ldr	r0, .L78+4
 765 0018 FFF7FEFF 		bl	chDbgPanic
 766              	.LVL73:
 767 001c 2C6C     		ldr	r4, [r5, #64]
 768              	.L66:
 769              	.LVL74:
 770              		.loc 1 334 0 is_stmt 1
 771 001e 2668     		ldr	r6, [r4, #0]
 772              		.loc 1 332 0
 773 0020 E368     		ldr	r3, [r4, #12]
 774              		.loc 1 334 0
 775 0022 A642     		cmp	r6, r4
 776              		.loc 1 332 0
 777 0024 2B64     		str	r3, [r5, #64]
 778              		.loc 1 334 0
 779 0026 18D0     		beq	.L67
 780              	.LBB74:
 781              		.loc 1 339 0
 782 0028 696C     		ldr	r1, [r5, #68]
 783              	.LVL75:
 784              		.loc 1 341 0
 785 002a 4BB1     		cbz	r3, .L68
 786              	.L74:
 787              		.loc 1 345 0
 788 002c 1A68     		ldr	r2, [r3, #0]
 789 002e 9A42     		cmp	r2, r3
 790 0030 03D0     		beq	.L69
 791              		.loc 1 345 0 is_stmt 0 discriminator 1
 792 0032 9268     		ldr	r2, [r2, #8]
 793 0034 9142     		cmp	r1, r2
ARM GAS  /var/folders/dt/0wfd0knj7gs46m8vwfzktm600000gn/T//cchLYT03.s 			page 15


 794 0036 38BF     		it	cc
 795 0038 1146     		movcc	r1, r2
 796              	.LVL76:
 797              	.L69:
 798              		.loc 1 347 0 is_stmt 1
 799 003a DB68     		ldr	r3, [r3, #12]
 800              	.LVL77:
 801              		.loc 1 341 0
 802 003c 002B     		cmp	r3, #0
 803 003e F5D1     		bne	.L74
 804              	.L68:
 805              	.LBB75:
 806              	.LBB76:
 807              		.loc 2 62 0
 808 0040 3368     		ldr	r3, [r6, #0]
 809              	.LVL78:
 810              	.LBE76:
 811              	.LBE75:
 812              		.loc 1 354 0
 813 0042 326C     		ldr	r2, [r6, #64]
 814              		.loc 1 349 0
 815 0044 A960     		str	r1, [r5, #8]
 816              	.LVL79:
 817              		.loc 1 356 0
 818 0046 3046     		mov	r0, r6
 819              	.LBB78:
 820              	.LBB77:
 821              		.loc 2 62 0
 822 0048 2360     		str	r3, [r4, #0]
 823 004a 5C60     		str	r4, [r3, #4]
 824              	.LBE77:
 825              	.LBE78:
 826              		.loc 1 353 0
 827 004c A660     		str	r6, [r4, #8]
 828              		.loc 1 354 0
 829 004e E260     		str	r2, [r4, #12]
 830              		.loc 1 355 0
 831 0050 3464     		str	r4, [r6, #64]
 832              		.loc 1 356 0
 833 0052 FFF7FEFF 		bl	chSchReadyI
 834              	.LVL80:
 835              	.LBE74:
 836              		.loc 1 361 0
 837 0056 2046     		mov	r0, r4
 838 0058 70BD     		pop	{r4, r5, r6, pc}
 839              	.LVL81:
 840              	.L67:
 841              		.loc 1 359 0
 842 005a 0023     		movs	r3, #0
 843 005c A360     		str	r3, [r4, #8]
 844              		.loc 1 361 0
 845 005e 2046     		mov	r0, r4
 846 0060 70BD     		pop	{r4, r5, r6, pc}
 847              	.LVL82:
 848              	.L77:
 849              		.loc 1 322 0 discriminator 1
 850 0062 0448     		ldr	r0, .L78+8
ARM GAS  /var/folders/dt/0wfd0knj7gs46m8vwfzktm600000gn/T//cchLYT03.s 			page 16


 851 0064 FFF7FEFF 		bl	chDbgPanic
 852              	.LVL83:
 853 0068 2C6C     		ldr	r4, [r5, #64]
 854 006a D1E7     		b	.L65
 855              	.L79:
 856              		.align	2
 857              	.L78:
 858 006c 00000000 		.word	rlist
 859 0070 98000000 		.word	.LC8
 860 0074 84000000 		.word	.LC7
 861              		.cfi_endproc
 862              	.LFE13:
 863              		.size	chMtxUnlockS, .-chMtxUnlockS
 864 0078 AFF30080 		.section	.text.chMtxUnlockAll,"ax",%progbits
 864      AFF30080 
 865              		.align	2
 866              		.p2align 4,,15
 867              		.global	chMtxUnlockAll
 868              		.thumb
 869              		.thumb_func
 870              		.type	chMtxUnlockAll, %function
 871              	chMtxUnlockAll:
 872              	.LFB14:
 873              		.loc 1 374 0
 874              		.cfi_startproc
 875              		@ args = 0, pretend = 0, frame = 0
 876              		@ frame_needed = 0, uses_anonymous_args = 0
 877              		.loc 1 375 0
 878 0000 144A     		ldr	r2, .L90
 879              		.loc 1 374 0
 880 0002 70B5     		push	{r4, r5, r6, lr}
 881              	.LCFI7:
 882              		.cfi_def_cfa_offset 16
 883              		.cfi_offset 4, -16
 884              		.cfi_offset 5, -12
 885              		.cfi_offset 6, -8
 886              		.cfi_offset 14, -4
 887              	.LBB79:
 888              		.loc 1 377 0
 889 0004 2023     		movs	r3, #32
 890              	.LVL84:
 891              	.LBE79:
 892              		.loc 1 375 0
 893 0006 D469     		ldr	r4, [r2, #28]
 894              	.LVL85:
 895              	.LBB80:
 896              		.loc 1 377 0
 897              	@ 377 "../../os/kernel/src/chmtx.c" 1
 898 0008 83F31188 		msr     BASEPRI, r3
 899              	@ 0 "" 2
 900              	.LVL86:
 901              		.thumb
 902              	.LBE80:
 903 000c FFF7FEFF 		bl	dbg_check_lock
 904              	.LVL87:
 905              		.loc 1 378 0
 906 0010 236C     		ldr	r3, [r4, #64]
ARM GAS  /var/folders/dt/0wfd0knj7gs46m8vwfzktm600000gn/T//cchLYT03.s 			page 17


 907 0012 C3B1     		cbz	r3, .L81
 908              	.LBB81:
 909              		.loc 1 390 0
 910 0014 0026     		movs	r6, #0
 911              	.L87:
 912              	.LVL88:
 913              		.loc 1 382 0
 914 0016 1A68     		ldr	r2, [r3, #0]
 915              	.LVL89:
 916              		.loc 1 381 0
 917 0018 D968     		ldr	r1, [r3, #12]
 918              		.loc 1 382 0
 919 001a 9A42     		cmp	r2, r3
 920              		.loc 1 381 0
 921 001c 2164     		str	r1, [r4, #64]
 922              	.LBB82:
 923              		.loc 1 387 0
 924 001e 1046     		mov	r0, r2
 925              	.LBE82:
 926              		.loc 1 390 0
 927 0020 08BF     		it	eq
 928 0022 9E60     		streq	r6, [r3, #8]
 929              		.loc 1 382 0
 930 0024 08D0     		beq	.L83
 931              	.LBB87:
 932              	.LBB83:
 933              	.LBB84:
 934              		.loc 2 62 0
 935 0026 1168     		ldr	r1, [r2, #0]
 936              	.LBE84:
 937              	.LBE83:
 938              		.loc 1 385 0
 939 0028 156C     		ldr	r5, [r2, #64]
 940              	.LBB86:
 941              	.LBB85:
 942              		.loc 2 62 0
 943 002a 1960     		str	r1, [r3, #0]
 944 002c 4B60     		str	r3, [r1, #4]
 945              	.LBE85:
 946              	.LBE86:
 947              		.loc 1 384 0
 948 002e 9A60     		str	r2, [r3, #8]
 949              		.loc 1 385 0
 950 0030 DD60     		str	r5, [r3, #12]
 951              		.loc 1 386 0
 952 0032 1364     		str	r3, [r2, #64]
 953              		.loc 1 387 0
 954 0034 FFF7FEFF 		bl	chSchReadyI
 955              	.LVL90:
 956              	.L83:
 957              	.LBE87:
 958              	.LBE81:
 959              		.loc 1 391 0
 960 0038 236C     		ldr	r3, [r4, #64]
 961 003a 002B     		cmp	r3, #0
 962 003c EBD1     		bne	.L87
 963              		.loc 1 392 0
ARM GAS  /var/folders/dt/0wfd0knj7gs46m8vwfzktm600000gn/T//cchLYT03.s 			page 18


 964 003e 636C     		ldr	r3, [r4, #68]
 965 0040 A360     		str	r3, [r4, #8]
 966              		.loc 1 393 0
 967 0042 FFF7FEFF 		bl	chSchRescheduleS
 968              	.LVL91:
 969              	.L81:
 970              		.loc 1 395 0
 971 0046 FFF7FEFF 		bl	dbg_check_unlock
 972              	.LVL92:
 973              	.LBB88:
 974 004a 0023     		movs	r3, #0
 975              	.LVL93:
 976              	@ 395 "../../os/kernel/src/chmtx.c" 1
 977 004c 83F31188 		msr     BASEPRI, r3
 978              	@ 0 "" 2
 979              	.LVL94:
 980              		.thumb
 981 0050 70BD     		pop	{r4, r5, r6, pc}
 982              	.L91:
 983 0052 00BF     		.align	2
 984              	.L90:
 985 0054 00000000 		.word	rlist
 986              	.LBE88:
 987              		.cfi_endproc
 988              	.LFE14:
 989              		.size	chMtxUnlockAll, .-chMtxUnlockAll
 990 0058 AFF30080 		.section	.rodata.str1.4,"aMS",%progbits,1
 990      AFF30080 
 991              		.align	2
 992              	.LC0:
 993 0000 2263684D 		.ascii	"\"chMtxInit\"()\000"
 993      7478496E 
 993      69742228 
 993      2900
 994 000e 0000     		.space	2
 995              	.LC1:
 996 0010 2263684D 		.ascii	"\"chMtxLockS\"()\000"
 996      74784C6F 
 996      636B5322 
 996      282900
 997 001f 00       		.space	1
 998              	.LC2:
 999 0020 63684D74 		.ascii	"chMtxLockS(), #1\000"
 999      784C6F63 
 999      6B532829 
 999      2C202331 
 999      00
 1000 0031 000000   		.space	3
 1001              	.LC3:
 1002 0034 63684D74 		.ascii	"chMtxLockS(), #2\000"
 1002      784C6F63 
 1002      6B532829 
 1002      2C202332 
 1002      00
 1003 0045 000000   		.space	3
 1004              	.LC4:
 1005 0048 2263684D 		.ascii	"\"chMtxTryLockS\"()\000"
ARM GAS  /var/folders/dt/0wfd0knj7gs46m8vwfzktm600000gn/T//cchLYT03.s 			page 19


 1005      74785472 
 1005      794C6F63 
 1005      6B532228 
 1005      2900
 1006 005a 0000     		.space	2
 1007              	.LC5:
 1008 005c 63684D74 		.ascii	"chMtxUnlock(), #1\000"
 1008      78556E6C 
 1008      6F636B28 
 1008      292C2023 
 1008      3100
 1009 006e 0000     		.space	2
 1010              	.LC6:
 1011 0070 63684D74 		.ascii	"chMtxUnlock(), #2\000"
 1011      78556E6C 
 1011      6F636B28 
 1011      292C2023 
 1011      3200
 1012 0082 0000     		.space	2
 1013              	.LC7:
 1014 0084 63684D74 		.ascii	"chMtxUnlockS(), #1\000"
 1014      78556E6C 
 1014      6F636B53 
 1014      28292C20 
 1014      233100
 1015 0097 00       		.space	1
 1016              	.LC8:
 1017 0098 63684D74 		.ascii	"chMtxUnlockS(), #2\000"
 1017      78556E6C 
 1017      6F636B53 
 1017      28292C20 
 1017      233200
 1018 00ab 00       		.text
 1019              	.Letext0:
 1020              		.file 3 "/Users/toxygen/Applications/yagarto-4.7.2/bin/../lib/gcc/arm-none-eabi/4.7.2/../../../../
 1021              		.file 4 "../../os/ports/GCC/ARMCMx/chtypes.h"
 1022              		.file 5 "../../os/kernel/include/chlists.h"
 1023              		.file 6 "../../os/kernel/include/chthreads.h"
 1024              		.file 7 "../../os/ports/GCC/ARMCMx/chcore_v7m.h"
 1025              		.file 8 "../../os/kernel/include/chschd.h"
 1026              		.file 9 "../../os/kernel/include/chmtx.h"
 1027              		.file 10 "../../os/kernel/include/chdebug.h"