ARM GAS  /var/folders/dt/0wfd0knj7gs46m8vwfzktm600000gn/T//cccdOh5l.s 			page 1


   1              		.syntax unified
   2              		.cpu cortex-m3
   3              		.fpu softvfp
   4              		.eabi_attribute 20, 1
   5              		.eabi_attribute 21, 1
   6              		.eabi_attribute 23, 3
   7              		.eabi_attribute 24, 1
   8              		.eabi_attribute 25, 1
   9              		.eabi_attribute 26, 1
  10              		.eabi_attribute 30, 2
  11              		.eabi_attribute 34, 1
  12              		.eabi_attribute 18, 4
  13              		.thumb
  14              		.file	"chqueues.c"
  15              		.text
  16              	.Ltext0:
  17              		.cfi_sections	.debug_frame
  18              		.section	.text.qwait,"ax",%progbits
  19              		.align	2
  20              		.p2align 4,,15
  21              		.thumb
  22              		.thumb_func
  23              		.type	qwait, %function
  24              	qwait:
  25              	.LFB7:
  26              		.file 1 "../../os/kernel/src/chqueues.c"
  27              		.loc 1 72 0
  28              		.cfi_startproc
  29              		@ args = 0, pretend = 0, frame = 0
  30              		@ frame_needed = 0, uses_anonymous_args = 0
  31              		@ link register save eliminated.
  32              	.LVL0:
  33 0000 10B4     		push	{r4}
  34              	.LCFI0:
  35              		.cfi_def_cfa_offset 4
  36              		.cfi_offset 4, -4
  37              		.loc 1 72 0
  38 0002 0246     		mov	r2, r0
  39              		.loc 1 74 0
  40 0004 59B1     		cbz	r1, .L2
  41              		.loc 1 76 0
  42 0006 084B     		ldr	r3, .L4
  43              		.loc 1 78 0
  44 0008 0D20     		movs	r0, #13
  45              	.LVL1:
  46              		.loc 1 76 0
  47 000a DB69     		ldr	r3, [r3, #28]
  48 000c 9A62     		str	r2, [r3, #40]
  49              	.LVL2:
  50              	.LBB12:
  51              	.LBB13:
  52              		.file 2 "../../os/kernel/include/chinline.h"
  53              		.loc 2 55 0
  54 000e 5468     		ldr	r4, [r2, #4]
  55 0010 83E81400 		stmia	r3, {r2, r4}
  56              		.loc 2 56 0
  57 0014 5360     		str	r3, [r2, #4]
ARM GAS  /var/folders/dt/0wfd0knj7gs46m8vwfzktm600000gn/T//cccdOh5l.s 			page 2


  58 0016 2360     		str	r3, [r4, #0]
  59              	.LBE13:
  60              	.LBE12:
  61              		.loc 1 79 0
  62 0018 10BC     		pop	{r4}
  63              		.loc 1 78 0
  64 001a FFF7FEBF 		b	chSchGoSleepTimeoutS
  65              	.LVL3:
  66              	.L2:
  67              		.loc 1 79 0
  68 001e 4FF0FF30 		mov	r0, #-1
  69              	.LVL4:
  70 0022 10BC     		pop	{r4}
  71 0024 7047     		bx	lr
  72              	.L5:
  73 0026 00BF     		.align	2
  74              	.L4:
  75 0028 00000000 		.word	rlist
  76              		.cfi_endproc
  77              	.LFE7:
  78              		.size	qwait, .-qwait
  79 002c AFF30080 		.section	.text.chIQInit,"ax",%progbits
  80              		.align	2
  81              		.p2align 4,,15
  82              		.global	chIQInit
  83              		.thumb
  84              		.thumb_func
  85              		.type	chIQInit, %function
  86              	chIQInit:
  87              	.LFB8:
  88              		.loc 1 96 0
  89              		.cfi_startproc
  90              		@ args = 0, pretend = 0, frame = 0
  91              		@ frame_needed = 0, uses_anonymous_args = 0
  92              		@ link register save eliminated.
  93              	.LVL5:
  94 0000 10B4     		push	{r4}
  95              	.LCFI1:
  96              		.cfi_def_cfa_offset 4
  97              		.cfi_offset 4, -4
  98              		.loc 1 101 0
  99 0002 8A18     		adds	r2, r1, r2
 100              	.LVL6:
 101              		.loc 1 99 0
 102 0004 0024     		movs	r4, #0
 103              		.loc 1 98 0
 104 0006 4060     		str	r0, [r0, #4]
 105 0008 0060     		str	r0, [r0, #0]
 106              		.loc 1 99 0
 107 000a 8460     		str	r4, [r0, #8]
 108              		.loc 1 100 0
 109 000c 4161     		str	r1, [r0, #20]
 110 000e 8161     		str	r1, [r0, #24]
 111 0010 C160     		str	r1, [r0, #12]
 112              		.loc 1 101 0
 113 0012 0261     		str	r2, [r0, #16]
 114              		.loc 1 102 0
ARM GAS  /var/folders/dt/0wfd0knj7gs46m8vwfzktm600000gn/T//cccdOh5l.s 			page 3


 115 0014 C361     		str	r3, [r0, #28]
 116              		.loc 1 103 0
 117 0016 10BC     		pop	{r4}
 118 0018 7047     		bx	lr
 119              		.cfi_endproc
 120              	.LFE8:
 121              		.size	chIQInit, .-chIQInit
 122 001a 00BFAFF3 		.section	.text.chIQResetI,"ax",%progbits
 122      0080
 123              		.align	2
 124              		.p2align 4,,15
 125              		.global	chIQResetI
 126              		.thumb
 127              		.thumb_func
 128              		.type	chIQResetI, %function
 129              	chIQResetI:
 130              	.LFB9:
 131              		.loc 1 116 0
 132              		.cfi_startproc
 133              		@ args = 0, pretend = 0, frame = 0
 134              		@ frame_needed = 0, uses_anonymous_args = 0
 135              	.LVL7:
 136 0000 38B5     		push	{r3, r4, r5, lr}
 137              	.LCFI2:
 138              		.cfi_def_cfa_offset 16
 139              		.cfi_offset 3, -16
 140              		.cfi_offset 4, -12
 141              		.cfi_offset 5, -8
 142              		.cfi_offset 14, -4
 143              		.loc 1 116 0
 144 0002 0446     		mov	r4, r0
 145              		.loc 1 118 0
 146 0004 FFF7FEFF 		bl	chDbgCheckClassI
 147              	.LVL8:
 148              		.loc 1 120 0
 149 0008 E368     		ldr	r3, [r4, #12]
 150              		.loc 1 122 0
 151 000a 2068     		ldr	r0, [r4, #0]
 152              		.loc 1 120 0
 153 000c 6361     		str	r3, [r4, #20]
 154 000e A361     		str	r3, [r4, #24]
 155              		.loc 1 121 0
 156 0010 0023     		movs	r3, #0
 157              		.loc 1 122 0
 158 0012 A042     		cmp	r0, r4
 159              		.loc 1 121 0
 160 0014 A360     		str	r3, [r4, #8]
 161              		.loc 1 122 0
 162 0016 0AD0     		beq	.L7
 163              		.loc 1 123 0
 164 0018 6FF00105 		mvn	r5, #1
 165              	.L11:
 166              	.LVL9:
 167              	.LBB14:
 168              	.LBB15:
 169              		.loc 2 62 0
 170 001c 0368     		ldr	r3, [r0, #0]
ARM GAS  /var/folders/dt/0wfd0knj7gs46m8vwfzktm600000gn/T//cccdOh5l.s 			page 4


 171 001e 2360     		str	r3, [r4, #0]
 172 0020 5C60     		str	r4, [r3, #4]
 173              	.LBE15:
 174              	.LBE14:
 175              		.loc 1 123 0
 176 0022 FFF7FEFF 		bl	chSchReadyI
 177              	.LVL10:
 178 0026 8562     		str	r5, [r0, #40]
 179              		.loc 1 122 0
 180 0028 2068     		ldr	r0, [r4, #0]
 181 002a A042     		cmp	r0, r4
 182 002c F6D1     		bne	.L11
 183              	.LVL11:
 184              	.L7:
 185 002e 38BD     		pop	{r3, r4, r5, pc}
 186              		.cfi_endproc
 187              	.LFE9:
 188              		.size	chIQResetI, .-chIQResetI
 189              		.section	.text.chIQPutI,"ax",%progbits
 190              		.align	2
 191              		.p2align 4,,15
 192              		.global	chIQPutI
 193              		.thumb
 194              		.thumb_func
 195              		.type	chIQPutI, %function
 196              	chIQPutI:
 197              	.LFB10:
 198              		.loc 1 139 0
 199              		.cfi_startproc
 200              		@ args = 0, pretend = 0, frame = 0
 201              		@ frame_needed = 0, uses_anonymous_args = 0
 202              	.LVL12:
 203 0000 38B5     		push	{r3, r4, r5, lr}
 204              	.LCFI3:
 205              		.cfi_def_cfa_offset 16
 206              		.cfi_offset 3, -16
 207              		.cfi_offset 4, -12
 208              		.cfi_offset 5, -8
 209              		.cfi_offset 14, -4
 210              		.loc 1 139 0
 211 0002 0446     		mov	r4, r0
 212 0004 0D46     		mov	r5, r1
 213              		.loc 1 141 0
 214 0006 FFF7FEFF 		bl	chDbgCheckClassI
 215              	.LVL13:
 216              		.loc 1 143 0
 217 000a A269     		ldr	r2, [r4, #24]
 218 000c 6369     		ldr	r3, [r4, #20]
 219 000e 9342     		cmp	r3, r2
 220 0010 A268     		ldr	r2, [r4, #8]
 221 0012 18D0     		beq	.L14
 222              	.L15:
 223              		.loc 1 146 0
 224 0014 0132     		adds	r2, r2, #1
 225 0016 A260     		str	r2, [r4, #8]
 226              		.loc 1 147 0
 227 0018 03F8015B 		strb	r5, [r3], #1
ARM GAS  /var/folders/dt/0wfd0knj7gs46m8vwfzktm600000gn/T//cccdOh5l.s 			page 5


 228              		.loc 1 148 0
 229 001c 2269     		ldr	r2, [r4, #16]
 230              		.loc 1 147 0
 231 001e 6361     		str	r3, [r4, #20]
 232              		.loc 1 148 0
 233 0020 9342     		cmp	r3, r2
 234              		.loc 1 149 0
 235 0022 28BF     		it	cs
 236 0024 E368     		ldrcs	r3, [r4, #12]
 237              		.loc 1 151 0
 238 0026 2068     		ldr	r0, [r4, #0]
 239              		.loc 1 149 0
 240 0028 28BF     		it	cs
 241 002a 6361     		strcs	r3, [r4, #20]
 242              		.loc 1 151 0
 243 002c A042     		cmp	r0, r4
 244 002e 08D0     		beq	.L19
 245              	.LVL14:
 246              	.LBB16:
 247              	.LBB17:
 248              		.loc 2 62 0
 249 0030 0368     		ldr	r3, [r0, #0]
 250 0032 2360     		str	r3, [r4, #0]
 251 0034 5C60     		str	r4, [r3, #4]
 252              	.LBE17:
 253              	.LBE16:
 254              		.loc 1 152 0
 255 0036 FFF7FEFF 		bl	chSchReadyI
 256              	.LVL15:
 257 003a 0023     		movs	r3, #0
 258 003c 8362     		str	r3, [r0, #40]
 259              		.loc 1 154 0
 260 003e 1846     		mov	r0, r3
 261 0040 38BD     		pop	{r3, r4, r5, pc}
 262              	.LVL16:
 263              	.L19:
 264 0042 0020     		movs	r0, #0
 265              		.loc 1 155 0
 266 0044 38BD     		pop	{r3, r4, r5, pc}
 267              	.L14:
 268              		.loc 1 143 0 discriminator 1
 269 0046 002A     		cmp	r2, #0
 270 0048 E4D0     		beq	.L15
 271              		.loc 1 144 0
 272 004a 6FF00300 		mvn	r0, #3
 273 004e 38BD     		pop	{r3, r4, r5, pc}
 274              		.cfi_endproc
 275              	.LFE10:
 276              		.size	chIQPutI, .-chIQPutI
 277              		.section	.text.chIQGetTimeout,"ax",%progbits
 278              		.align	2
 279              		.p2align 4,,15
 280              		.global	chIQGetTimeout
 281              		.thumb
 282              		.thumb_func
 283              		.type	chIQGetTimeout, %function
 284              	chIQGetTimeout:
ARM GAS  /var/folders/dt/0wfd0knj7gs46m8vwfzktm600000gn/T//cccdOh5l.s 			page 6


 285              	.LFB11:
 286              		.loc 1 177 0
 287              		.cfi_startproc
 288              		@ args = 0, pretend = 0, frame = 0
 289              		@ frame_needed = 0, uses_anonymous_args = 0
 290              	.LVL17:
 291 0000 F8B5     		push	{r3, r4, r5, r6, r7, lr}
 292              	.LCFI4:
 293              		.cfi_def_cfa_offset 24
 294              		.cfi_offset 3, -24
 295              		.cfi_offset 4, -20
 296              		.cfi_offset 5, -16
 297              		.cfi_offset 6, -12
 298              		.cfi_offset 7, -8
 299              		.cfi_offset 14, -4
 300              		.loc 1 177 0
 301 0002 0446     		mov	r4, r0
 302 0004 0E46     		mov	r6, r1
 303              	.LBB18:
 304              		.loc 1 180 0
 305 0006 2023     		movs	r3, #32
 306              	.LVL18:
 307              	@ 180 "../../os/kernel/src/chqueues.c" 1
 308 0008 83F31188 		msr     BASEPRI, r3
 309              	@ 0 "" 2
 310              	.LVL19:
 311              		.thumb
 312              	.LBE18:
 313 000c FFF7FEFF 		bl	dbg_check_lock
 314              	.LVL20:
 315              		.loc 1 181 0
 316 0010 E369     		ldr	r3, [r4, #28]
 317 0012 0BB1     		cbz	r3, .L28
 318              		.loc 1 182 0
 319 0014 2046     		mov	r0, r4
 320 0016 9847     		blx	r3
 321              	.LVL21:
 322              	.L28:
 323              		.loc 1 184 0 discriminator 1
 324 0018 A568     		ldr	r5, [r4, #8]
 325              	.LBB19:
 326              		.loc 1 186 0 discriminator 1
 327 001a 2046     		mov	r0, r4
 328 001c 3146     		mov	r1, r6
 329              	.LBE19:
 330              		.loc 1 184 0 discriminator 1
 331 001e 55B9     		cbnz	r5, .L31
 332              	.LVL22:
 333              	.LBB21:
 334              		.loc 1 186 0
 335 0020 FFF7FEFF 		bl	qwait
 336              	.LVL23:
 337 0024 071E     		subs	r7, r0, #0
 338 0026 F7DA     		bge	.L28
 339              		.loc 1 187 0
 340 0028 FFF7FEFF 		bl	dbg_check_unlock
 341              	.LVL24:
ARM GAS  /var/folders/dt/0wfd0knj7gs46m8vwfzktm600000gn/T//cccdOh5l.s 			page 7


 342              	.LBB20:
 343 002c 2B46     		mov	r3, r5
 344              	.LVL25:
 345              	@ 187 "../../os/kernel/src/chqueues.c" 1
 346 002e 83F31188 		msr     BASEPRI, r3
 347              	@ 0 "" 2
 348              	.LVL26:
 349              		.thumb
 350              	.LBE20:
 351              	.LBE21:
 352              		.loc 1 199 0
 353 0032 3846     		mov	r0, r7
 354 0034 F8BD     		pop	{r3, r4, r5, r6, r7, pc}
 355              	.LVL27:
 356              	.L31:
 357              		.loc 1 193 0
 358 0036 A369     		ldr	r3, [r4, #24]
 359              		.loc 1 192 0
 360 0038 013D     		subs	r5, r5, #1
 361 003a A560     		str	r5, [r4, #8]
 362              		.loc 1 193 0
 363 003c 13F8017B 		ldrb	r7, [r3], #1	@ zero_extendqisi2
 364              	.LVL28:
 365              		.loc 1 194 0
 366 0040 2269     		ldr	r2, [r4, #16]
 367              		.loc 1 193 0
 368 0042 A361     		str	r3, [r4, #24]
 369              		.loc 1 194 0
 370 0044 9342     		cmp	r3, r2
 371              		.loc 1 195 0
 372 0046 24BF     		itt	cs
 373 0048 E368     		ldrcs	r3, [r4, #12]
 374 004a A361     		strcs	r3, [r4, #24]
 375              		.loc 1 197 0
 376 004c FFF7FEFF 		bl	dbg_check_unlock
 377              	.LVL29:
 378              	.LBB22:
 379 0050 0023     		movs	r3, #0
 380              	.LVL30:
 381              	@ 197 "../../os/kernel/src/chqueues.c" 1
 382 0052 83F31188 		msr     BASEPRI, r3
 383              	@ 0 "" 2
 384              	.LVL31:
 385              		.thumb
 386              	.LBE22:
 387              		.loc 1 199 0
 388 0056 3846     		mov	r0, r7
 389 0058 F8BD     		pop	{r3, r4, r5, r6, r7, pc}
 390              		.cfi_endproc
 391              	.LFE11:
 392              		.size	chIQGetTimeout, .-chIQGetTimeout
 393 005a 00BFAFF3 		.section	.text.chIQReadTimeout,"ax",%progbits
 393      0080
 394              		.align	2
 395              		.p2align 4,,15
 396              		.global	chIQReadTimeout
 397              		.thumb
ARM GAS  /var/folders/dt/0wfd0knj7gs46m8vwfzktm600000gn/T//cccdOh5l.s 			page 8


 398              		.thumb_func
 399              		.type	chIQReadTimeout, %function
 400              	chIQReadTimeout:
 401              	.LFB12:
 402              		.loc 1 226 0
 403              		.cfi_startproc
 404              		@ args = 0, pretend = 0, frame = 0
 405              		@ frame_needed = 0, uses_anonymous_args = 0
 406              	.LVL32:
 407 0000 2DE9F047 		push	{r4, r5, r6, r7, r8, r9, sl, lr}
 408              	.LCFI5:
 409              		.cfi_def_cfa_offset 32
 410              		.cfi_offset 4, -32
 411              		.cfi_offset 5, -28
 412              		.cfi_offset 6, -24
 413              		.cfi_offset 7, -20
 414              		.cfi_offset 8, -16
 415              		.cfi_offset 9, -12
 416              		.cfi_offset 10, -8
 417              		.cfi_offset 14, -4
 418              		.loc 1 226 0
 419 0004 0446     		mov	r4, r0
 420              		.loc 1 230 0
 421 0006 1546     		mov	r5, r2
 422              		.loc 1 226 0
 423 0008 8846     		mov	r8, r1
 424 000a 1E46     		mov	r6, r3
 425              		.loc 1 227 0
 426 000c C769     		ldr	r7, [r0, #28]
 427              	.LVL33:
 428              		.loc 1 230 0
 429 000e 002A     		cmp	r2, #0
 430 0010 3AD0     		beq	.L48
 431              	.LVL34:
 432              	.L33:
 433              	.LBB23:
 434              		.loc 1 232 0
 435 0012 2023     		movs	r3, #32
 436              	.LVL35:
 437              	@ 232 "../../os/kernel/src/chqueues.c" 1
 438 0014 83F31188 		msr     BASEPRI, r3
 439              	@ 0 "" 2
 440              	.LVL36:
 441              		.thumb
 442              	.LBE23:
 443 0018 FFF7FEFF 		bl	dbg_check_lock
 444              	.LVL37:
 445              		.loc 1 225 0
 446 001c 08F1010A 		add	sl, r8, #1
 447              		.loc 1 228 0
 448 0020 4FF00009 		mov	r9, #0
 449              		.loc 1 225 0
 450 0024 A844     		add	r8, r8, r5
 451              	.LVL38:
 452              	.L39:
 453              		.loc 1 234 0
 454 0026 0FB1     		cbz	r7, .L44
ARM GAS  /var/folders/dt/0wfd0knj7gs46m8vwfzktm600000gn/T//cccdOh5l.s 			page 9


 455              		.loc 1 235 0
 456 0028 2046     		mov	r0, r4
 457 002a B847     		blx	r7
 458              	.LVL39:
 459              	.L44:
 460              		.loc 1 237 0 discriminator 1
 461 002c A568     		ldr	r5, [r4, #8]
 462              		.loc 1 238 0 discriminator 1
 463 002e 2046     		mov	r0, r4
 464 0030 3146     		mov	r1, r6
 465              		.loc 1 237 0 discriminator 1
 466 0032 5DB9     		cbnz	r5, .L49
 467              	.LVL40:
 468              		.loc 1 238 0
 469 0034 FFF7FEFF 		bl	qwait
 470              	.LVL41:
 471 0038 0028     		cmp	r0, #0
 472 003a F7D0     		beq	.L44
 473              		.loc 1 239 0
 474 003c FFF7FEFF 		bl	dbg_check_unlock
 475              	.LVL42:
 476              	.LBB24:
 477 0040 2B46     		mov	r3, r5
 478              	.LVL43:
 479              	@ 239 "../../os/kernel/src/chqueues.c" 1
 480 0042 83F31188 		msr     BASEPRI, r3
 481              	@ 0 "" 2
 482              	.LVL44:
 483              		.thumb
 484              	.L36:
 485              	.LBE24:
 486              		.loc 1 256 0
 487 0046 4846     		mov	r0, r9
 488 0048 BDE8F087 		pop	{r4, r5, r6, r7, r8, r9, sl, pc}
 489              	.LVL45:
 490              	.L49:
 491              		.loc 1 245 0
 492 004c A369     		ldr	r3, [r4, #24]
 493              		.loc 1 244 0
 494 004e 013D     		subs	r5, r5, #1
 495 0050 A560     		str	r5, [r4, #8]
 496              		.loc 1 245 0
 497 0052 13F8012B 		ldrb	r2, [r3], #1	@ zero_extendqisi2
 498 0056 0AF8012C 		strb	r2, [sl, #-1]
 499              		.loc 1 246 0
 500 005a 2269     		ldr	r2, [r4, #16]
 501              		.loc 1 245 0
 502 005c A361     		str	r3, [r4, #24]
 503              		.loc 1 246 0
 504 005e 9342     		cmp	r3, r2
 505              		.loc 1 247 0
 506 0060 24BF     		itt	cs
 507 0062 E368     		ldrcs	r3, [r4, #12]
 508 0064 A361     		strcs	r3, [r4, #24]
 509              		.loc 1 249 0
 510 0066 FFF7FEFF 		bl	dbg_check_unlock
 511              	.LVL46:
ARM GAS  /var/folders/dt/0wfd0knj7gs46m8vwfzktm600000gn/T//cccdOh5l.s 			page 10


 512              	.LBB25:
 513 006a 0023     		movs	r3, #0
 514              	@ 249 "../../os/kernel/src/chqueues.c" 1
 515 006c 83F31188 		msr     BASEPRI, r3
 516              	@ 0 "" 2
 517              	.LVL47:
 518              		.thumb
 519              	.LBE25:
 520              		.loc 1 251 0
 521 0070 C245     		cmp	sl, r8
 522              		.loc 1 250 0
 523 0072 09F10109 		add	r9, r9, #1
 524              	.LVL48:
 525              		.loc 1 251 0
 526 0076 E6D0     		beq	.L36
 527              	.LBB26:
 528              		.loc 1 254 0
 529 0078 2023     		movs	r3, #32
 530              	.LVL49:
 531              	@ 254 "../../os/kernel/src/chqueues.c" 1
 532 007a 83F31188 		msr     BASEPRI, r3
 533              	@ 0 "" 2
 534              	.LVL50:
 535              		.thumb
 536              	.LBE26:
 537 007e FFF7FEFF 		bl	dbg_check_lock
 538              	.LVL51:
 539 0082 0AF1010A 		add	sl, sl, #1
 540              		.loc 1 255 0
 541 0086 CEE7     		b	.L39
 542              	.LVL52:
 543              	.L48:
 544              		.loc 1 230 0 discriminator 1
 545 0088 0148     		ldr	r0, .L50
 546              	.LVL53:
 547 008a FFF7FEFF 		bl	chDbgPanic
 548              	.LVL54:
 549 008e C0E7     		b	.L33
 550              	.L51:
 551              		.align	2
 552              	.L50:
 553 0090 00000000 		.word	.LC0
 554              		.cfi_endproc
 555              	.LFE12:
 556              		.size	chIQReadTimeout, .-chIQReadTimeout
 557 0094 AFF30080 		.section	.text.chOQInit,"ax",%progbits
 557      AFF30080 
 557      AFF30080 
 558              		.align	2
 559              		.p2align 4,,15
 560              		.global	chOQInit
 561              		.thumb
 562              		.thumb_func
 563              		.type	chOQInit, %function
 564              	chOQInit:
 565              	.LFB13:
 566              		.loc 1 273 0
ARM GAS  /var/folders/dt/0wfd0knj7gs46m8vwfzktm600000gn/T//cccdOh5l.s 			page 11


 567              		.cfi_startproc
 568              		@ args = 0, pretend = 0, frame = 0
 569              		@ frame_needed = 0, uses_anonymous_args = 0
 570              		@ link register save eliminated.
 571              	.LVL55:
 572 0000 10B4     		push	{r4}
 573              	.LCFI6:
 574              		.cfi_def_cfa_offset 4
 575              		.cfi_offset 4, -4
 576              		.loc 1 278 0
 577 0002 8C18     		adds	r4, r1, r2
 578              		.loc 1 275 0
 579 0004 4060     		str	r0, [r0, #4]
 580 0006 0060     		str	r0, [r0, #0]
 581              		.loc 1 276 0
 582 0008 8260     		str	r2, [r0, #8]
 583              		.loc 1 277 0
 584 000a 4161     		str	r1, [r0, #20]
 585 000c 8161     		str	r1, [r0, #24]
 586 000e C160     		str	r1, [r0, #12]
 587              		.loc 1 278 0
 588 0010 0461     		str	r4, [r0, #16]
 589              		.loc 1 279 0
 590 0012 C361     		str	r3, [r0, #28]
 591              		.loc 1 280 0
 592 0014 10BC     		pop	{r4}
 593 0016 7047     		bx	lr
 594              		.cfi_endproc
 595              	.LFE13:
 596              		.size	chOQInit, .-chOQInit
 597 0018 AFF30080 		.section	.text.chOQResetI,"ax",%progbits
 597      AFF30080 
 598              		.align	2
 599              		.p2align 4,,15
 600              		.global	chOQResetI
 601              		.thumb
 602              		.thumb_func
 603              		.type	chOQResetI, %function
 604              	chOQResetI:
 605              	.LFB14:
 606              		.loc 1 293 0
 607              		.cfi_startproc
 608              		@ args = 0, pretend = 0, frame = 0
 609              		@ frame_needed = 0, uses_anonymous_args = 0
 610              	.LVL56:
 611 0000 38B5     		push	{r3, r4, r5, lr}
 612              	.LCFI7:
 613              		.cfi_def_cfa_offset 16
 614              		.cfi_offset 3, -16
 615              		.cfi_offset 4, -12
 616              		.cfi_offset 5, -8
 617              		.cfi_offset 14, -4
 618              		.loc 1 293 0
 619 0002 0446     		mov	r4, r0
 620              		.loc 1 295 0
 621 0004 FFF7FEFF 		bl	chDbgCheckClassI
 622              	.LVL57:
ARM GAS  /var/folders/dt/0wfd0knj7gs46m8vwfzktm600000gn/T//cccdOh5l.s 			page 12


 623              		.loc 1 297 0
 624 0008 E368     		ldr	r3, [r4, #12]
 625              		.loc 1 298 0
 626 000a 2269     		ldr	r2, [r4, #16]
 627              		.loc 1 299 0
 628 000c 2068     		ldr	r0, [r4, #0]
 629              		.loc 1 298 0
 630 000e D21A     		subs	r2, r2, r3
 631              		.loc 1 299 0
 632 0010 A042     		cmp	r0, r4
 633              		.loc 1 297 0
 634 0012 6361     		str	r3, [r4, #20]
 635 0014 A361     		str	r3, [r4, #24]
 636              		.loc 1 298 0
 637 0016 A260     		str	r2, [r4, #8]
 638              		.loc 1 299 0
 639 0018 0AD0     		beq	.L53
 640              		.loc 1 300 0
 641 001a 6FF00105 		mvn	r5, #1
 642              	.L57:
 643              	.LVL58:
 644              	.LBB27:
 645              	.LBB28:
 646              		.loc 2 62 0
 647 001e 0368     		ldr	r3, [r0, #0]
 648 0020 2360     		str	r3, [r4, #0]
 649 0022 5C60     		str	r4, [r3, #4]
 650              	.LBE28:
 651              	.LBE27:
 652              		.loc 1 300 0
 653 0024 FFF7FEFF 		bl	chSchReadyI
 654              	.LVL59:
 655 0028 8562     		str	r5, [r0, #40]
 656              		.loc 1 299 0
 657 002a 2068     		ldr	r0, [r4, #0]
 658 002c A042     		cmp	r0, r4
 659 002e F6D1     		bne	.L57
 660              	.LVL60:
 661              	.L53:
 662 0030 38BD     		pop	{r3, r4, r5, pc}
 663              		.cfi_endproc
 664              	.LFE14:
 665              		.size	chOQResetI, .-chOQResetI
 666 0032 00BFAFF3 		.section	.text.chOQPutTimeout,"ax",%progbits
 666      0080AFF3 
 666      0080AFF3 
 666      0080
 667              		.align	2
 668              		.p2align 4,,15
 669              		.global	chOQPutTimeout
 670              		.thumb
 671              		.thumb_func
 672              		.type	chOQPutTimeout, %function
 673              	chOQPutTimeout:
 674              	.LFB15:
 675              		.loc 1 325 0
 676              		.cfi_startproc
ARM GAS  /var/folders/dt/0wfd0knj7gs46m8vwfzktm600000gn/T//cccdOh5l.s 			page 13


 677              		@ args = 0, pretend = 0, frame = 0
 678              		@ frame_needed = 0, uses_anonymous_args = 0
 679              	.LVL61:
 680 0000 2DE9F041 		push	{r4, r5, r6, r7, r8, lr}
 681              	.LCFI8:
 682              		.cfi_def_cfa_offset 24
 683              		.cfi_offset 4, -24
 684              		.cfi_offset 5, -20
 685              		.cfi_offset 6, -16
 686              		.cfi_offset 7, -12
 687              		.cfi_offset 8, -8
 688              		.cfi_offset 14, -4
 689              	.LBB29:
 690              		.loc 1 327 0
 691 0004 2023     		movs	r3, #32
 692              	.LVL62:
 693              	.LBE29:
 694              		.loc 1 325 0
 695 0006 0446     		mov	r4, r0
 696 0008 8846     		mov	r8, r1
 697 000a 1646     		mov	r6, r2
 698              	.LBB30:
 699              		.loc 1 327 0
 700              	@ 327 "../../os/kernel/src/chqueues.c" 1
 701 000c 83F31188 		msr     BASEPRI, r3
 702              	@ 0 "" 2
 703              	.LVL63:
 704              		.thumb
 705              	.LBE30:
 706 0010 FFF7FEFF 		bl	dbg_check_lock
 707              	.LVL64:
 708              	.L60:
 709              		.loc 1 328 0 discriminator 1
 710 0014 A568     		ldr	r5, [r4, #8]
 711              	.LBB31:
 712              		.loc 1 331 0 discriminator 1
 713 0016 2046     		mov	r0, r4
 714 0018 3146     		mov	r1, r6
 715              	.LBE31:
 716              		.loc 1 328 0 discriminator 1
 717 001a 5DB9     		cbnz	r5, .L69
 718              	.LVL65:
 719              	.LBB33:
 720              		.loc 1 331 0
 721 001c FFF7FEFF 		bl	qwait
 722              	.LVL66:
 723 0020 071E     		subs	r7, r0, #0
 724 0022 F7DA     		bge	.L60
 725              		.loc 1 332 0
 726 0024 FFF7FEFF 		bl	dbg_check_unlock
 727              	.LVL67:
 728              	.LBB32:
 729 0028 2B46     		mov	r3, r5
 730              	.LVL68:
 731              	@ 332 "../../os/kernel/src/chqueues.c" 1
 732 002a 83F31188 		msr     BASEPRI, r3
 733              	@ 0 "" 2
ARM GAS  /var/folders/dt/0wfd0knj7gs46m8vwfzktm600000gn/T//cccdOh5l.s 			page 14


 734              	.LVL69:
 735              		.thumb
 736              	.LBE32:
 737              	.LBE33:
 738              		.loc 1 347 0
 739 002e 3846     		mov	r0, r7
 740 0030 BDE8F081 		pop	{r4, r5, r6, r7, r8, pc}
 741              	.LVL70:
 742              	.L69:
 743              		.loc 1 338 0
 744 0034 6369     		ldr	r3, [r4, #20]
 745              		.loc 1 337 0
 746 0036 013D     		subs	r5, r5, #1
 747 0038 A560     		str	r5, [r4, #8]
 748              		.loc 1 338 0
 749 003a 03F8018B 		strb	r8, [r3], #1
 750              		.loc 1 339 0
 751 003e 2269     		ldr	r2, [r4, #16]
 752              		.loc 1 338 0
 753 0040 6361     		str	r3, [r4, #20]
 754              		.loc 1 339 0
 755 0042 9342     		cmp	r3, r2
 756              		.loc 1 340 0
 757 0044 24BF     		itt	cs
 758 0046 E368     		ldrcs	r3, [r4, #12]
 759 0048 6361     		strcs	r3, [r4, #20]
 760              		.loc 1 342 0
 761 004a E369     		ldr	r3, [r4, #28]
 762 004c 0BB1     		cbz	r3, .L64
 763              		.loc 1 343 0
 764 004e 2046     		mov	r0, r4
 765              	.LVL71:
 766 0050 9847     		blx	r3
 767              	.LVL72:
 768              	.L64:
 769              		.loc 1 345 0
 770 0052 FFF7FEFF 		bl	dbg_check_unlock
 771              	.LVL73:
 772              	.LBB34:
 773 0056 0023     		movs	r3, #0
 774              	.LVL74:
 775              	@ 345 "../../os/kernel/src/chqueues.c" 1
 776 0058 83F31188 		msr     BASEPRI, r3
 777              	@ 0 "" 2
 778              	.LVL75:
 779              		.thumb
 780              	.LBE34:
 781              		.loc 1 346 0
 782 005c 1F46     		mov	r7, r3
 783              		.loc 1 347 0
 784 005e 3846     		mov	r0, r7
 785 0060 BDE8F081 		pop	{r4, r5, r6, r7, r8, pc}
 786              		.cfi_endproc
 787              	.LFE15:
 788              		.size	chOQPutTimeout, .-chOQPutTimeout
 789 0064 AFF30080 		.section	.text.chOQGetI,"ax",%progbits
 789      AFF30080 
ARM GAS  /var/folders/dt/0wfd0knj7gs46m8vwfzktm600000gn/T//cccdOh5l.s 			page 15


 789      AFF30080 
 790              		.align	2
 791              		.p2align 4,,15
 792              		.global	chOQGetI
 793              		.thumb
 794              		.thumb_func
 795              		.type	chOQGetI, %function
 796              	chOQGetI:
 797              	.LFB16:
 798              		.loc 1 359 0
 799              		.cfi_startproc
 800              		@ args = 0, pretend = 0, frame = 0
 801              		@ frame_needed = 0, uses_anonymous_args = 0
 802              	.LVL76:
 803 0000 38B5     		push	{r3, r4, r5, lr}
 804              	.LCFI9:
 805              		.cfi_def_cfa_offset 16
 806              		.cfi_offset 3, -16
 807              		.cfi_offset 4, -12
 808              		.cfi_offset 5, -8
 809              		.cfi_offset 14, -4
 810              		.loc 1 359 0
 811 0002 0446     		mov	r4, r0
 812              		.loc 1 362 0
 813 0004 FFF7FEFF 		bl	chDbgCheckClassI
 814              	.LVL77:
 815              		.loc 1 364 0
 816 0008 6269     		ldr	r2, [r4, #20]
 817 000a A369     		ldr	r3, [r4, #24]
 818 000c 9A42     		cmp	r2, r3
 819 000e A268     		ldr	r2, [r4, #8]
 820 0010 16D0     		beq	.L71
 821              	.L72:
 822              		.loc 1 367 0
 823 0012 0132     		adds	r2, r2, #1
 824 0014 A260     		str	r2, [r4, #8]
 825              		.loc 1 368 0
 826 0016 13F8015B 		ldrb	r5, [r3], #1	@ zero_extendqisi2
 827              	.LVL78:
 828              		.loc 1 369 0
 829 001a 2269     		ldr	r2, [r4, #16]
 830              		.loc 1 368 0
 831 001c A361     		str	r3, [r4, #24]
 832              		.loc 1 369 0
 833 001e 9342     		cmp	r3, r2
 834              		.loc 1 370 0
 835 0020 28BF     		it	cs
 836 0022 E368     		ldrcs	r3, [r4, #12]
 837              		.loc 1 372 0
 838 0024 2068     		ldr	r0, [r4, #0]
 839              		.loc 1 370 0
 840 0026 28BF     		it	cs
 841 0028 A361     		strcs	r3, [r4, #24]
 842              		.loc 1 372 0
 843 002a A042     		cmp	r0, r4
 844 002c 06D0     		beq	.L75
 845              	.LVL79:
ARM GAS  /var/folders/dt/0wfd0knj7gs46m8vwfzktm600000gn/T//cccdOh5l.s 			page 16


 846              	.LBB35:
 847              	.LBB36:
 848              		.loc 2 62 0
 849 002e 0368     		ldr	r3, [r0, #0]
 850 0030 2360     		str	r3, [r4, #0]
 851 0032 5C60     		str	r4, [r3, #4]
 852              	.LBE36:
 853              	.LBE35:
 854              		.loc 1 373 0
 855 0034 FFF7FEFF 		bl	chSchReadyI
 856              	.LVL80:
 857 0038 0023     		movs	r3, #0
 858 003a 8362     		str	r3, [r0, #40]
 859              	.LVL81:
 860              	.L75:
 861              		.loc 1 375 0
 862 003c 2846     		mov	r0, r5
 863 003e 38BD     		pop	{r3, r4, r5, pc}
 864              	.LVL82:
 865              	.L71:
 866              		.loc 1 364 0 discriminator 1
 867 0040 002A     		cmp	r2, #0
 868 0042 E6D0     		beq	.L72
 869              		.loc 1 365 0
 870 0044 6FF00200 		mvn	r0, #2
 871              		.loc 1 376 0
 872 0048 38BD     		pop	{r3, r4, r5, pc}
 873              		.cfi_endproc
 874              	.LFE16:
 875              		.size	chOQGetI, .-chOQGetI
 876 004a 00BFAFF3 		.section	.text.chOQWriteTimeout,"ax",%progbits
 876      0080
 877              		.align	2
 878              		.p2align 4,,15
 879              		.global	chOQWriteTimeout
 880              		.thumb
 881              		.thumb_func
 882              		.type	chOQWriteTimeout, %function
 883              	chOQWriteTimeout:
 884              	.LFB17:
 885              		.loc 1 403 0
 886              		.cfi_startproc
 887              		@ args = 0, pretend = 0, frame = 0
 888              		@ frame_needed = 0, uses_anonymous_args = 0
 889              	.LVL83:
 890 0000 2DE9F047 		push	{r4, r5, r6, r7, r8, r9, sl, lr}
 891              	.LCFI10:
 892              		.cfi_def_cfa_offset 32
 893              		.cfi_offset 4, -32
 894              		.cfi_offset 5, -28
 895              		.cfi_offset 6, -24
 896              		.cfi_offset 7, -20
 897              		.cfi_offset 8, -16
 898              		.cfi_offset 9, -12
 899              		.cfi_offset 10, -8
 900              		.cfi_offset 14, -4
 901              		.loc 1 403 0
ARM GAS  /var/folders/dt/0wfd0knj7gs46m8vwfzktm600000gn/T//cccdOh5l.s 			page 17


 902 0004 0446     		mov	r4, r0
 903              		.loc 1 407 0
 904 0006 1646     		mov	r6, r2
 905              		.loc 1 403 0
 906 0008 8846     		mov	r8, r1
 907 000a 9A46     		mov	sl, r3
 908              		.loc 1 404 0
 909 000c D0F81C90 		ldr	r9, [r0, #28]
 910              	.LVL84:
 911              		.loc 1 407 0
 912 0010 002A     		cmp	r2, #0
 913 0012 39D0     		beq	.L97
 914              	.LVL85:
 915              	.L78:
 916              	.LBB37:
 917              		.loc 1 409 0
 918 0014 2023     		movs	r3, #32
 919              	.LVL86:
 920              	@ 409 "../../os/kernel/src/chqueues.c" 1
 921 0016 83F31188 		msr     BASEPRI, r3
 922              	@ 0 "" 2
 923              	.LVL87:
 924              		.thumb
 925              	.LBE37:
 926 001a FFF7FEFF 		bl	dbg_check_lock
 927              	.LVL88:
 928              		.loc 1 405 0
 929 001e 0027     		movs	r7, #0
 930              	.LVL89:
 931              	.L96:
 932              		.loc 1 411 0 discriminator 1
 933 0020 A568     		ldr	r5, [r4, #8]
 934              		.loc 1 423 0 discriminator 1
 935 0022 2046     		mov	r0, r4
 936              		.loc 1 417 0 discriminator 1
 937 0024 6B1E     		subs	r3, r5, #1
 938              		.loc 1 411 0 discriminator 1
 939 0026 0DB3     		cbz	r5, .L82
 940              	.LVL90:
 941              	.L98:
 942              		.loc 1 417 0
 943 0028 A360     		str	r3, [r4, #8]
 944              		.loc 1 418 0
 945 002a 18F8013B 		ldrb	r3, [r8], #1	@ zero_extendqisi2
 946              	.LVL91:
 947 002e 6569     		ldr	r5, [r4, #20]
 948 0030 05F8013B 		strb	r3, [r5], #1
 949              		.loc 1 419 0
 950 0034 2369     		ldr	r3, [r4, #16]
 951              		.loc 1 418 0
 952 0036 6561     		str	r5, [r4, #20]
 953              	.LVL92:
 954              		.loc 1 419 0
 955 0038 9D42     		cmp	r5, r3
 956              		.loc 1 420 0
 957 003a 24BF     		itt	cs
 958 003c E368     		ldrcs	r3, [r4, #12]
ARM GAS  /var/folders/dt/0wfd0knj7gs46m8vwfzktm600000gn/T//cccdOh5l.s 			page 18


 959 003e 6361     		strcs	r3, [r4, #20]
 960              		.loc 1 422 0
 961 0040 B9F1000F 		cmp	r9, #0
 962 0044 00D0     		beq	.L84
 963              		.loc 1 423 0
 964 0046 C847     		blx	r9
 965              	.LVL93:
 966              	.L84:
 967              		.loc 1 425 0
 968 0048 FFF7FEFF 		bl	dbg_check_unlock
 969              	.LVL94:
 970              	.LBB38:
 971 004c 0023     		movs	r3, #0
 972              	.LVL95:
 973              	@ 425 "../../os/kernel/src/chqueues.c" 1
 974 004e 83F31188 		msr     BASEPRI, r3
 975              	@ 0 "" 2
 976              	.LVL96:
 977              		.thumb
 978              	.LBE38:
 979              		.loc 1 426 0
 980 0052 0137     		adds	r7, r7, #1
 981              	.LVL97:
 982              		.loc 1 427 0
 983 0054 013E     		subs	r6, r6, #1
 984              	.LVL98:
 985 0056 14D0     		beq	.L81
 986              	.LBB39:
 987              		.loc 1 429 0
 988 0058 2023     		movs	r3, #32
 989              	.LVL99:
 990              	@ 429 "../../os/kernel/src/chqueues.c" 1
 991 005a 83F31188 		msr     BASEPRI, r3
 992              	@ 0 "" 2
 993              	.LVL100:
 994              		.thumb
 995              	.LBE39:
 996 005e FFF7FEFF 		bl	dbg_check_lock
 997              	.LVL101:
 998              		.loc 1 411 0
 999 0062 A568     		ldr	r5, [r4, #8]
 1000              		.loc 1 423 0
 1001 0064 2046     		mov	r0, r4
 1002              		.loc 1 417 0
 1003 0066 6B1E     		subs	r3, r5, #1
 1004              		.loc 1 411 0
 1005 0068 002D     		cmp	r5, #0
 1006 006a DDD1     		bne	.L98
 1007              	.LVL102:
 1008              	.L82:
 1009              		.loc 1 412 0
 1010 006c 2046     		mov	r0, r4
 1011              	.LVL103:
 1012 006e 5146     		mov	r1, sl
 1013 0070 FFF7FEFF 		bl	qwait
 1014              	.LVL104:
 1015 0074 0028     		cmp	r0, #0
ARM GAS  /var/folders/dt/0wfd0knj7gs46m8vwfzktm600000gn/T//cccdOh5l.s 			page 19


 1016 0076 D3D0     		beq	.L96
 1017              		.loc 1 413 0
 1018 0078 FFF7FEFF 		bl	dbg_check_unlock
 1019              	.LVL105:
 1020              	.LBB40:
 1021 007c 2B46     		mov	r3, r5
 1022              	.LVL106:
 1023              	@ 413 "../../os/kernel/src/chqueues.c" 1
 1024 007e 83F31188 		msr     BASEPRI, r3
 1025              	@ 0 "" 2
 1026              	.LVL107:
 1027              		.thumb
 1028              	.L81:
 1029              	.LBE40:
 1030              		.loc 1 431 0
 1031 0082 3846     		mov	r0, r7
 1032 0084 BDE8F087 		pop	{r4, r5, r6, r7, r8, r9, sl, pc}
 1033              	.LVL108:
 1034              	.L97:
 1035              		.loc 1 407 0 discriminator 1
 1036 0088 0148     		ldr	r0, .L99
 1037              	.LVL109:
 1038 008a FFF7FEFF 		bl	chDbgPanic
 1039              	.LVL110:
 1040 008e C1E7     		b	.L78
 1041              	.L100:
 1042              		.align	2
 1043              	.L99:
 1044 0090 14000000 		.word	.LC1
 1045              		.cfi_endproc
 1046              	.LFE17:
 1047              		.size	chOQWriteTimeout, .-chOQWriteTimeout
 1048 0094 AFF30080 		.section	.rodata.str1.4,"aMS",%progbits,1
 1048      AFF30080 
 1048      AFF30080 
 1049              		.align	2
 1050              	.LC0:
 1051 0000 22636849 		.ascii	"\"chIQReadTimeout\"()\000"
 1051      51526561 
 1051      6454696D 
 1051      656F7574 
 1051      22282900 
 1052              	.LC1:
 1053 0014 2263684F 		.ascii	"\"chOQWriteTimeout\"()\000"
 1053      51577269 
 1053      74655469 
 1053      6D656F75 
 1053      74222829 
 1054 0029 000000   		.text
 1055              	.Letext0:
 1056              		.file 3 "/Users/toxygen/Applications/yagarto-4.7.2/bin/../lib/gcc/arm-none-eabi/4.7.2/include/stdd
 1057              		.file 4 "/Users/toxygen/Applications/yagarto-4.7.2/bin/../lib/gcc/arm-none-eabi/4.7.2/../../../../
 1058              		.file 5 "../../os/ports/GCC/ARMCMx/chtypes.h"
 1059              		.file 6 "../../os/kernel/include/chlists.h"
 1060              		.file 7 "../../os/kernel/include/chthreads.h"
 1061              		.file 8 "../../os/ports/GCC/ARMCMx/chcore_v7m.h"
 1062              		.file 9 "../../os/kernel/include/chschd.h"
ARM GAS  /var/folders/dt/0wfd0knj7gs46m8vwfzktm600000gn/T//cccdOh5l.s 			page 20


 1063              		.file 10 "../../os/kernel/include/chmtx.h"
 1064              		.file 11 "../../os/kernel/include/chqueues.h"
 1065              		.file 12 "../../os/kernel/include/chdebug.h"
 1066              		.section	.debug_info,"",%progbits
 1067              	.Ldebug_info0:
 1068 0000 8C0D0000 		.4byte	0xd8c
 1069 0004 0200     		.2byte	0x2
 1070 0006 00000000 		.4byte	.Ldebug_abbrev0
 1071 000a 04       		.byte	0x4
 1072 000b 01       		.uleb128 0x1
 1073 000c 63020000 		.4byte	.LASF97
 1074 0010 01       		.byte	0x1
 1075 0011 9F010000 		.4byte	.LASF98
 1076 0015 62030000 		.4byte	.LASF99
 1077 0019 48000000 		.4byte	.Ldebug_ranges0+0x48
 1078 001d 00000000 		.4byte	0
 1079 0021 00000000 		.4byte	0
 1080 0025 00000000 		.4byte	.Ldebug_line0
 1081 0029 02       		.uleb128 0x2
 1082 002a 04       		.byte	0x4
 1083 002b 05       		.byte	0x5
 1084 002c 696E7400 		.ascii	"int\000"
 1085 0030 03       		.uleb128 0x3
 1086 0031 21000000 		.4byte	.LASF2
 1087 0035 03       		.byte	0x3
 1088 0036 D5       		.byte	0xd5
 1089 0037 3B000000 		.4byte	0x3b
 1090 003b 04       		.uleb128 0x4
 1091 003c 04       		.byte	0x4
 1092 003d 07       		.byte	0x7
 1093 003e 3E010000 		.4byte	.LASF0
 1094 0042 04       		.uleb128 0x4
 1095 0043 01       		.byte	0x1
 1096 0044 06       		.byte	0x6
 1097 0045 A7000000 		.4byte	.LASF1
 1098 0049 03       		.uleb128 0x3
 1099 004a DA030000 		.4byte	.LASF3
 1100 004e 04       		.byte	0x4
 1101 004f 2A       		.byte	0x2a
 1102 0050 54000000 		.4byte	0x54
 1103 0054 04       		.uleb128 0x4
 1104 0055 01       		.byte	0x1
 1105 0056 08       		.byte	0x8
 1106 0057 B2020000 		.4byte	.LASF4
 1107 005b 04       		.uleb128 0x4
 1108 005c 02       		.byte	0x2
 1109 005d 05       		.byte	0x5
 1110 005e CA020000 		.4byte	.LASF5
 1111 0062 04       		.uleb128 0x4
 1112 0063 02       		.byte	0x2
 1113 0064 07       		.byte	0x7
 1114 0065 75010000 		.4byte	.LASF6
 1115 0069 03       		.uleb128 0x3
 1116 006a AA020000 		.4byte	.LASF7
 1117 006e 04       		.byte	0x4
 1118 006f 4F       		.byte	0x4f
 1119 0070 74000000 		.4byte	0x74
ARM GAS  /var/folders/dt/0wfd0knj7gs46m8vwfzktm600000gn/T//cccdOh5l.s 			page 21


 1120 0074 04       		.uleb128 0x4
 1121 0075 04       		.byte	0x4
 1122 0076 05       		.byte	0x5
 1123 0077 D0000000 		.4byte	.LASF8
 1124 007b 03       		.uleb128 0x3
 1125 007c 13030000 		.4byte	.LASF9
 1126 0080 04       		.byte	0x4
 1127 0081 50       		.byte	0x50
 1128 0082 86000000 		.4byte	0x86
 1129 0086 04       		.uleb128 0x4
 1130 0087 04       		.byte	0x4
 1131 0088 07       		.byte	0x7
 1132 0089 56010000 		.4byte	.LASF10
 1133 008d 04       		.uleb128 0x4
 1134 008e 08       		.byte	0x8
 1135 008f 05       		.byte	0x5
 1136 0090 99000000 		.4byte	.LASF11
 1137 0094 03       		.uleb128 0x3
 1138 0095 38000000 		.4byte	.LASF12
 1139 0099 04       		.byte	0x4
 1140 009a 78       		.byte	0x78
 1141 009b 9F000000 		.4byte	0x9f
 1142 009f 04       		.uleb128 0x4
 1143 00a0 08       		.byte	0x8
 1144 00a1 07       		.byte	0x7
 1145 00a2 5D000000 		.4byte	.LASF13
 1146 00a6 03       		.uleb128 0x3
 1147 00a7 BB000000 		.4byte	.LASF14
 1148 00ab 05       		.byte	0x5
 1149 00ac 2E       		.byte	0x2e
 1150 00ad 69000000 		.4byte	0x69
 1151 00b1 03       		.uleb128 0x3
 1152 00b2 F1020000 		.4byte	.LASF15
 1153 00b6 05       		.byte	0x5
 1154 00b7 2F       		.byte	0x2f
 1155 00b8 49000000 		.4byte	0x49
 1156 00bc 03       		.uleb128 0x3
 1157 00bd D9000000 		.4byte	.LASF16
 1158 00c1 05       		.byte	0x5
 1159 00c2 30       		.byte	0x30
 1160 00c3 49000000 		.4byte	0x49
 1161 00c7 03       		.uleb128 0x3
 1162 00c8 81020000 		.4byte	.LASF17
 1163 00cc 05       		.byte	0x5
 1164 00cd 31       		.byte	0x31
 1165 00ce 49000000 		.4byte	0x49
 1166 00d2 03       		.uleb128 0x3
 1167 00d3 9A020000 		.4byte	.LASF18
 1168 00d7 05       		.byte	0x5
 1169 00d8 32       		.byte	0x32
 1170 00d9 7B000000 		.4byte	0x7b
 1171 00dd 03       		.uleb128 0x3
 1172 00de 88010000 		.4byte	.LASF19
 1173 00e2 05       		.byte	0x5
 1174 00e3 33       		.byte	0x33
 1175 00e4 69000000 		.4byte	0x69
 1176 00e8 03       		.uleb128 0x3
ARM GAS  /var/folders/dt/0wfd0knj7gs46m8vwfzktm600000gn/T//cccdOh5l.s 			page 22


 1177 00e9 CA010000 		.4byte	.LASF20
 1178 00ed 05       		.byte	0x5
 1179 00ee 35       		.byte	0x35
 1180 00ef 7B000000 		.4byte	0x7b
 1181 00f3 03       		.uleb128 0x3
 1182 00f4 48030000 		.4byte	.LASF21
 1183 00f8 05       		.byte	0x5
 1184 00f9 36       		.byte	0x36
 1185 00fa 7B000000 		.4byte	0x7b
 1186 00fe 03       		.uleb128 0x3
 1187 00ff 2D010000 		.4byte	.LASF22
 1188 0103 05       		.byte	0x5
 1189 0104 37       		.byte	0x37
 1190 0105 69000000 		.4byte	0x69
 1191 0109 03       		.uleb128 0x3
 1192 010a 01030000 		.4byte	.LASF23
 1193 010e 06       		.byte	0x6
 1194 010f 2A       		.byte	0x2a
 1195 0110 14010000 		.4byte	0x114
 1196 0114 05       		.uleb128 0x5
 1197 0115 01030000 		.4byte	.LASF23
 1198 0119 4C       		.byte	0x4c
 1199 011a 07       		.byte	0x7
 1200 011b 5E       		.byte	0x5e
 1201 011c 39020000 		.4byte	0x239
 1202 0120 06       		.uleb128 0x6
 1203 0121 EA020000 		.4byte	.LASF24
 1204 0125 07       		.byte	0x7
 1205 0126 5F       		.byte	0x5f
 1206 0127 5E020000 		.4byte	0x25e
 1207 012b 02       		.byte	0x2
 1208 012c 23       		.byte	0x23
 1209 012d 00       		.uleb128 0
 1210 012e 06       		.uleb128 0x6
 1211 012f 93020000 		.4byte	.LASF25
 1212 0133 07       		.byte	0x7
 1213 0134 61       		.byte	0x61
 1214 0135 5E020000 		.4byte	0x25e
 1215 0139 02       		.byte	0x2
 1216 013a 23       		.byte	0x23
 1217 013b 04       		.uleb128 0x4
 1218 013c 06       		.uleb128 0x6
 1219 013d 88000000 		.4byte	.LASF26
 1220 0141 07       		.byte	0x7
 1221 0142 63       		.byte	0x63
 1222 0143 D2000000 		.4byte	0xd2
 1223 0147 02       		.byte	0x2
 1224 0148 23       		.byte	0x23
 1225 0149 08       		.uleb128 0x8
 1226 014a 06       		.uleb128 0x6
 1227 014b 17040000 		.4byte	.LASF27
 1228 014f 07       		.byte	0x7
 1229 0150 64       		.byte	0x64
 1230 0151 36030000 		.4byte	0x336
 1231 0155 02       		.byte	0x2
 1232 0156 23       		.byte	0x23
 1233 0157 0C       		.uleb128 0xc
ARM GAS  /var/folders/dt/0wfd0knj7gs46m8vwfzktm600000gn/T//cccdOh5l.s 			page 23


 1234 0158 06       		.uleb128 0x6
 1235 0159 FC000000 		.4byte	.LASF28
 1236 015d 07       		.byte	0x7
 1237 015e 66       		.byte	0x66
 1238 015f 5E020000 		.4byte	0x25e
 1239 0163 02       		.byte	0x2
 1240 0164 23       		.byte	0x23
 1241 0165 10       		.uleb128 0x10
 1242 0166 06       		.uleb128 0x6
 1243 0167 43020000 		.4byte	.LASF29
 1244 016b 07       		.byte	0x7
 1245 016c 67       		.byte	0x67
 1246 016d 5E020000 		.4byte	0x25e
 1247 0171 02       		.byte	0x2
 1248 0172 23       		.byte	0x23
 1249 0173 14       		.uleb128 0x14
 1250 0174 06       		.uleb128 0x6
 1251 0175 E9030000 		.4byte	.LASF30
 1252 0179 07       		.byte	0x7
 1253 017a 6E       		.byte	0x6e
 1254 017b 58040000 		.4byte	0x458
 1255 017f 02       		.byte	0x2
 1256 0180 23       		.byte	0x23
 1257 0181 18       		.uleb128 0x18
 1258 0182 06       		.uleb128 0x6
 1259 0183 33010000 		.4byte	.LASF31
 1260 0187 07       		.byte	0x7
 1261 0188 74       		.byte	0x74
 1262 0189 6A040000 		.4byte	0x46a
 1263 018d 02       		.byte	0x2
 1264 018e 23       		.byte	0x23
 1265 018f 1C       		.uleb128 0x1c
 1266 0190 06       		.uleb128 0x6
 1267 0191 D4020000 		.4byte	.LASF32
 1268 0195 07       		.byte	0x7
 1269 0196 79       		.byte	0x79
 1270 0197 BC000000 		.4byte	0xbc
 1271 019b 02       		.byte	0x2
 1272 019c 23       		.byte	0x23
 1273 019d 20       		.uleb128 0x20
 1274 019e 06       		.uleb128 0x6
 1275 019f F9020000 		.4byte	.LASF33
 1276 01a3 07       		.byte	0x7
 1277 01a4 7D       		.byte	0x7d
 1278 01a5 B1000000 		.4byte	0xb1
 1279 01a9 02       		.byte	0x2
 1280 01aa 23       		.byte	0x23
 1281 01ab 21       		.uleb128 0x21
 1282 01ac 06       		.uleb128 0x6
 1283 01ad BA030000 		.4byte	.LASF34
 1284 01b1 07       		.byte	0x7
 1285 01b2 82       		.byte	0x82
 1286 01b3 C7000000 		.4byte	0xc7
 1287 01b7 02       		.byte	0x2
 1288 01b8 23       		.byte	0x23
 1289 01b9 22       		.uleb128 0x22
 1290 01ba 06       		.uleb128 0x6
ARM GAS  /var/folders/dt/0wfd0knj7gs46m8vwfzktm600000gn/T//cccdOh5l.s 			page 24


 1291 01bb 9B030000 		.4byte	.LASF35
 1292 01bf 07       		.byte	0x7
 1293 01c0 89       		.byte	0x89
 1294 01c1 60030000 		.4byte	0x360
 1295 01c5 02       		.byte	0x2
 1296 01c6 23       		.byte	0x23
 1297 01c7 24       		.uleb128 0x24
 1298 01c8 07       		.uleb128 0x7
 1299 01c9 705F7500 		.ascii	"p_u\000"
 1300 01cd 07       		.byte	0x7
 1301 01ce AE       		.byte	0xae
 1302 01cf 23040000 		.4byte	0x423
 1303 01d3 02       		.byte	0x2
 1304 01d4 23       		.byte	0x23
 1305 01d5 28       		.uleb128 0x28
 1306 01d6 06       		.uleb128 0x6
 1307 01d7 1D040000 		.4byte	.LASF36
 1308 01db 07       		.byte	0x7
 1309 01dc B3       		.byte	0xb3
 1310 01dd 86020000 		.4byte	0x286
 1311 01e1 02       		.byte	0x2
 1312 01e2 23       		.byte	0x23
 1313 01e3 2C       		.uleb128 0x2c
 1314 01e4 06       		.uleb128 0x6
 1315 01e5 A9030000 		.4byte	.LASF37
 1316 01e9 07       		.byte	0x7
 1317 01ea B9       		.byte	0xb9
 1318 01eb 64020000 		.4byte	0x264
 1319 01ef 02       		.byte	0x2
 1320 01f0 23       		.byte	0x23
 1321 01f1 30       		.uleb128 0x30
 1322 01f2 06       		.uleb128 0x6
 1323 01f3 09000000 		.4byte	.LASF38
 1324 01f7 07       		.byte	0x7
 1325 01f8 BD       		.byte	0xbd
 1326 01f9 DD000000 		.4byte	0xdd
 1327 01fd 02       		.byte	0x2
 1328 01fe 23       		.byte	0x23
 1329 01ff 38       		.uleb128 0x38
 1330 0200 06       		.uleb128 0x6
 1331 0201 08030000 		.4byte	.LASF39
 1332 0205 07       		.byte	0x7
 1333 0206 C3       		.byte	0xc3
 1334 0207 E8000000 		.4byte	0xe8
 1335 020b 02       		.byte	0x2
 1336 020c 23       		.byte	0x23
 1337 020d 3C       		.uleb128 0x3c
 1338 020e 06       		.uleb128 0x6
 1339 020f C0020000 		.4byte	.LASF40
 1340 0213 07       		.byte	0x7
 1341 0214 CA       		.byte	0xca
 1342 0215 70040000 		.4byte	0x470
 1343 0219 02       		.byte	0x2
 1344 021a 23       		.byte	0x23
 1345 021b 40       		.uleb128 0x40
 1346 021c 06       		.uleb128 0x6
 1347 021d 52030000 		.4byte	.LASF41
ARM GAS  /var/folders/dt/0wfd0knj7gs46m8vwfzktm600000gn/T//cccdOh5l.s 			page 25


 1348 0221 07       		.byte	0x7
 1349 0222 CE       		.byte	0xce
 1350 0223 D2000000 		.4byte	0xd2
 1351 0227 02       		.byte	0x2
 1352 0228 23       		.byte	0x23
 1353 0229 44       		.uleb128 0x44
 1354 022a 06       		.uleb128 0x6
 1355 022b B3000000 		.4byte	.LASF42
 1356 022f 07       		.byte	0x7
 1357 0230 D4       		.byte	0xd4
 1358 0231 9C020000 		.4byte	0x29c
 1359 0235 02       		.byte	0x2
 1360 0236 23       		.byte	0x23
 1361 0237 48       		.uleb128 0x48
 1362 0238 00       		.byte	0
 1363 0239 08       		.uleb128 0x8
 1364 023a 08       		.byte	0x8
 1365 023b 06       		.byte	0x6
 1366 023c 61       		.byte	0x61
 1367 023d 5E020000 		.4byte	0x25e
 1368 0241 06       		.uleb128 0x6
 1369 0242 EA020000 		.4byte	.LASF24
 1370 0246 06       		.byte	0x6
 1371 0247 62       		.byte	0x62
 1372 0248 5E020000 		.4byte	0x25e
 1373 024c 02       		.byte	0x2
 1374 024d 23       		.byte	0x23
 1375 024e 00       		.uleb128 0
 1376 024f 06       		.uleb128 0x6
 1377 0250 93020000 		.4byte	.LASF25
 1378 0254 06       		.byte	0x6
 1379 0255 64       		.byte	0x64
 1380 0256 5E020000 		.4byte	0x25e
 1381 025a 02       		.byte	0x2
 1382 025b 23       		.byte	0x23
 1383 025c 04       		.uleb128 0x4
 1384 025d 00       		.byte	0
 1385 025e 09       		.uleb128 0x9
 1386 025f 04       		.byte	0x4
 1387 0260 09010000 		.4byte	0x109
 1388 0264 03       		.uleb128 0x3
 1389 0265 51020000 		.4byte	.LASF43
 1390 0269 06       		.byte	0x6
 1391 026a 66       		.byte	0x66
 1392 026b 39020000 		.4byte	0x239
 1393 026f 08       		.uleb128 0x8
 1394 0270 04       		.byte	0x4
 1395 0271 06       		.byte	0x6
 1396 0272 6B       		.byte	0x6b
 1397 0273 86020000 		.4byte	0x286
 1398 0277 06       		.uleb128 0x6
 1399 0278 EA020000 		.4byte	.LASF24
 1400 027c 06       		.byte	0x6
 1401 027d 6D       		.byte	0x6d
 1402 027e 5E020000 		.4byte	0x25e
 1403 0282 02       		.byte	0x2
 1404 0283 23       		.byte	0x23
ARM GAS  /var/folders/dt/0wfd0knj7gs46m8vwfzktm600000gn/T//cccdOh5l.s 			page 26


 1405 0284 00       		.uleb128 0
 1406 0285 00       		.byte	0
 1407 0286 03       		.uleb128 0x3
 1408 0287 BE010000 		.4byte	.LASF44
 1409 028b 06       		.byte	0x6
 1410 028c 70       		.byte	0x70
 1411 028d 6F020000 		.4byte	0x26f
 1412 0291 03       		.uleb128 0x3
 1413 0292 0C010000 		.4byte	.LASF45
 1414 0296 08       		.byte	0x8
 1415 0297 D7       		.byte	0xd7
 1416 0298 9C020000 		.4byte	0x29c
 1417 029c 0A       		.uleb128 0xa
 1418 029d 04       		.byte	0x4
 1419 029e 03       		.uleb128 0x3
 1420 029f F4010000 		.4byte	.LASF46
 1421 02a3 08       		.byte	0x8
 1422 02a4 DD       		.byte	0xdd
 1423 02a5 94000000 		.4byte	0x94
 1424 02a9 05       		.uleb128 0x5
 1425 02aa A2030000 		.4byte	.LASF47
 1426 02ae 24       		.byte	0x24
 1427 02af 08       		.byte	0x8
 1428 02b0 FE       		.byte	0xfe
 1429 02b1 36030000 		.4byte	0x336
 1430 02b5 0B       		.uleb128 0xb
 1431 02b6 723400   		.ascii	"r4\000"
 1432 02b9 08       		.byte	0x8
 1433 02ba 1101     		.2byte	0x111
 1434 02bc 91020000 		.4byte	0x291
 1435 02c0 02       		.byte	0x2
 1436 02c1 23       		.byte	0x23
 1437 02c2 00       		.uleb128 0
 1438 02c3 0B       		.uleb128 0xb
 1439 02c4 723500   		.ascii	"r5\000"
 1440 02c7 08       		.byte	0x8
 1441 02c8 1201     		.2byte	0x112
 1442 02ca 91020000 		.4byte	0x291
 1443 02ce 02       		.byte	0x2
 1444 02cf 23       		.byte	0x23
 1445 02d0 04       		.uleb128 0x4
 1446 02d1 0B       		.uleb128 0xb
 1447 02d2 723600   		.ascii	"r6\000"
 1448 02d5 08       		.byte	0x8
 1449 02d6 1301     		.2byte	0x113
 1450 02d8 91020000 		.4byte	0x291
 1451 02dc 02       		.byte	0x2
 1452 02dd 23       		.byte	0x23
 1453 02de 08       		.uleb128 0x8
 1454 02df 0B       		.uleb128 0xb
 1455 02e0 723700   		.ascii	"r7\000"
 1456 02e3 08       		.byte	0x8
 1457 02e4 1401     		.2byte	0x114
 1458 02e6 91020000 		.4byte	0x291
 1459 02ea 02       		.byte	0x2
 1460 02eb 23       		.byte	0x23
 1461 02ec 0C       		.uleb128 0xc
ARM GAS  /var/folders/dt/0wfd0knj7gs46m8vwfzktm600000gn/T//cccdOh5l.s 			page 27


 1462 02ed 0B       		.uleb128 0xb
 1463 02ee 723800   		.ascii	"r8\000"
 1464 02f1 08       		.byte	0x8
 1465 02f2 1501     		.2byte	0x115
 1466 02f4 91020000 		.4byte	0x291
 1467 02f8 02       		.byte	0x2
 1468 02f9 23       		.byte	0x23
 1469 02fa 10       		.uleb128 0x10
 1470 02fb 0B       		.uleb128 0xb
 1471 02fc 723900   		.ascii	"r9\000"
 1472 02ff 08       		.byte	0x8
 1473 0300 1601     		.2byte	0x116
 1474 0302 91020000 		.4byte	0x291
 1475 0306 02       		.byte	0x2
 1476 0307 23       		.byte	0x23
 1477 0308 14       		.uleb128 0x14
 1478 0309 0B       		.uleb128 0xb
 1479 030a 72313000 		.ascii	"r10\000"
 1480 030e 08       		.byte	0x8
 1481 030f 1701     		.2byte	0x117
 1482 0311 91020000 		.4byte	0x291
 1483 0315 02       		.byte	0x2
 1484 0316 23       		.byte	0x23
 1485 0317 18       		.uleb128 0x18
 1486 0318 0B       		.uleb128 0xb
 1487 0319 72313100 		.ascii	"r11\000"
 1488 031d 08       		.byte	0x8
 1489 031e 1801     		.2byte	0x118
 1490 0320 91020000 		.4byte	0x291
 1491 0324 02       		.byte	0x2
 1492 0325 23       		.byte	0x23
 1493 0326 1C       		.uleb128 0x1c
 1494 0327 0B       		.uleb128 0xb
 1495 0328 6C7200   		.ascii	"lr\000"
 1496 032b 08       		.byte	0x8
 1497 032c 1901     		.2byte	0x119
 1498 032e 91020000 		.4byte	0x291
 1499 0332 02       		.byte	0x2
 1500 0333 23       		.byte	0x23
 1501 0334 20       		.uleb128 0x20
 1502 0335 00       		.byte	0
 1503 0336 0C       		.uleb128 0xc
 1504 0337 68010000 		.4byte	.LASF48
 1505 033b 04       		.byte	0x4
 1506 033c 08       		.byte	0x8
 1507 033d 2301     		.2byte	0x123
 1508 033f 53030000 		.4byte	0x353
 1509 0343 0B       		.uleb128 0xb
 1510 0344 72313300 		.ascii	"r13\000"
 1511 0348 08       		.byte	0x8
 1512 0349 2401     		.2byte	0x124
 1513 034b 53030000 		.4byte	0x353
 1514 034f 02       		.byte	0x2
 1515 0350 23       		.byte	0x23
 1516 0351 00       		.uleb128 0
 1517 0352 00       		.byte	0
 1518 0353 09       		.uleb128 0x9
ARM GAS  /var/folders/dt/0wfd0knj7gs46m8vwfzktm600000gn/T//cccdOh5l.s 			page 28


 1519 0354 04       		.byte	0x4
 1520 0355 A9020000 		.4byte	0x2a9
 1521 0359 04       		.uleb128 0x4
 1522 035a 04       		.byte	0x4
 1523 035b 07       		.byte	0x7
 1524 035c 21020000 		.4byte	.LASF49
 1525 0360 0D       		.uleb128 0xd
 1526 0361 F3000000 		.4byte	0xf3
 1527 0365 08       		.uleb128 0x8
 1528 0366 20       		.byte	0x20
 1529 0367 09       		.byte	0x9
 1530 0368 5E       		.byte	0x5e
 1531 0369 D0030000 		.4byte	0x3d0
 1532 036d 06       		.uleb128 0x6
 1533 036e 1C030000 		.4byte	.LASF50
 1534 0372 09       		.byte	0x9
 1535 0373 5F       		.byte	0x5f
 1536 0374 64020000 		.4byte	0x264
 1537 0378 02       		.byte	0x2
 1538 0379 23       		.byte	0x23
 1539 037a 00       		.uleb128 0
 1540 037b 06       		.uleb128 0x6
 1541 037c DC020000 		.4byte	.LASF51
 1542 0380 09       		.byte	0x9
 1543 0381 60       		.byte	0x60
 1544 0382 D2000000 		.4byte	0xd2
 1545 0386 02       		.byte	0x2
 1546 0387 23       		.byte	0x23
 1547 0388 08       		.uleb128 0x8
 1548 0389 06       		.uleb128 0x6
 1549 038a 4B020000 		.4byte	.LASF52
 1550 038e 09       		.byte	0x9
 1551 038f 62       		.byte	0x62
 1552 0390 36030000 		.4byte	0x336
 1553 0394 02       		.byte	0x2
 1554 0395 23       		.byte	0x23
 1555 0396 0C       		.uleb128 0xc
 1556 0397 06       		.uleb128 0x6
 1557 0398 04010000 		.4byte	.LASF53
 1558 039c 09       		.byte	0x9
 1559 039d 65       		.byte	0x65
 1560 039e 5E020000 		.4byte	0x25e
 1561 03a2 02       		.byte	0x2
 1562 03a3 23       		.byte	0x23
 1563 03a4 10       		.uleb128 0x10
 1564 03a5 06       		.uleb128 0x6
 1565 03a6 79020000 		.4byte	.LASF54
 1566 03aa 09       		.byte	0x9
 1567 03ab 66       		.byte	0x66
 1568 03ac 5E020000 		.4byte	0x25e
 1569 03b0 02       		.byte	0x2
 1570 03b1 23       		.byte	0x23
 1571 03b2 14       		.uleb128 0x14
 1572 03b3 06       		.uleb128 0x6
 1573 03b4 05040000 		.4byte	.LASF55
 1574 03b8 09       		.byte	0x9
 1575 03b9 6A       		.byte	0x6a
ARM GAS  /var/folders/dt/0wfd0knj7gs46m8vwfzktm600000gn/T//cccdOh5l.s 			page 29


 1576 03ba FE000000 		.4byte	0xfe
 1577 03be 02       		.byte	0x2
 1578 03bf 23       		.byte	0x23
 1579 03c0 18       		.uleb128 0x18
 1580 03c1 06       		.uleb128 0x6
 1581 03c2 6F020000 		.4byte	.LASF56
 1582 03c6 09       		.byte	0x9
 1583 03c7 6C       		.byte	0x6c
 1584 03c8 5E020000 		.4byte	0x25e
 1585 03cc 02       		.byte	0x2
 1586 03cd 23       		.byte	0x23
 1587 03ce 1C       		.uleb128 0x1c
 1588 03cf 00       		.byte	0
 1589 03d0 03       		.uleb128 0x3
 1590 03d1 C1030000 		.4byte	.LASF57
 1591 03d5 09       		.byte	0x9
 1592 03d6 6E       		.byte	0x6e
 1593 03d7 65030000 		.4byte	0x365
 1594 03db 05       		.uleb128 0x5
 1595 03dc E1010000 		.4byte	.LASF58
 1596 03e0 10       		.byte	0x10
 1597 03e1 0A       		.byte	0xa
 1598 03e2 2C       		.byte	0x2c
 1599 03e3 12040000 		.4byte	0x412
 1600 03e7 06       		.uleb128 0x6
 1601 03e8 C2000000 		.4byte	.LASF59
 1602 03ec 0A       		.byte	0xa
 1603 03ed 2D       		.byte	0x2d
 1604 03ee 64020000 		.4byte	0x264
 1605 03f2 02       		.byte	0x2
 1606 03f3 23       		.byte	0x23
 1607 03f4 00       		.uleb128 0
 1608 03f5 06       		.uleb128 0x6
 1609 03f6 0F040000 		.4byte	.LASF60
 1610 03fa 0A       		.byte	0xa
 1611 03fb 2F       		.byte	0x2f
 1612 03fc 5E020000 		.4byte	0x25e
 1613 0400 02       		.byte	0x2
 1614 0401 23       		.byte	0x23
 1615 0402 08       		.uleb128 0x8
 1616 0403 06       		.uleb128 0x6
 1617 0404 41030000 		.4byte	.LASF61
 1618 0408 0A       		.byte	0xa
 1619 0409 31       		.byte	0x31
 1620 040a 12040000 		.4byte	0x412
 1621 040e 02       		.byte	0x2
 1622 040f 23       		.byte	0x23
 1623 0410 0C       		.uleb128 0xc
 1624 0411 00       		.byte	0
 1625 0412 09       		.uleb128 0x9
 1626 0413 04       		.byte	0x4
 1627 0414 DB030000 		.4byte	0x3db
 1628 0418 03       		.uleb128 0x3
 1629 0419 E1010000 		.4byte	.LASF58
 1630 041d 0A       		.byte	0xa
 1631 041e 33       		.byte	0x33
 1632 041f DB030000 		.4byte	0x3db
ARM GAS  /var/folders/dt/0wfd0knj7gs46m8vwfzktm600000gn/T//cccdOh5l.s 			page 30


 1633 0423 0E       		.uleb128 0xe
 1634 0424 04       		.byte	0x4
 1635 0425 07       		.byte	0x7
 1636 0426 90       		.byte	0x90
 1637 0427 58040000 		.4byte	0x458
 1638 042b 0F       		.uleb128 0xf
 1639 042c 28000000 		.4byte	.LASF62
 1640 0430 07       		.byte	0x7
 1641 0431 97       		.byte	0x97
 1642 0432 DD000000 		.4byte	0xdd
 1643 0436 0F       		.uleb128 0xf
 1644 0437 74000000 		.4byte	.LASF63
 1645 043b 07       		.byte	0x7
 1646 043c 9E       		.byte	0x9e
 1647 043d DD000000 		.4byte	0xdd
 1648 0441 0F       		.uleb128 0xf
 1649 0442 E2030000 		.4byte	.LASF64
 1650 0446 07       		.byte	0x7
 1651 0447 A5       		.byte	0xa5
 1652 0448 9C020000 		.4byte	0x29c
 1653 044c 0F       		.uleb128 0xf
 1654 044d E3020000 		.4byte	.LASF65
 1655 0451 07       		.byte	0x7
 1656 0452 AC       		.byte	0xac
 1657 0453 E8000000 		.4byte	0xe8
 1658 0457 00       		.byte	0
 1659 0458 09       		.uleb128 0x9
 1660 0459 04       		.byte	0x4
 1661 045a 5E040000 		.4byte	0x45e
 1662 045e 10       		.uleb128 0x10
 1663 045f 63040000 		.4byte	0x463
 1664 0463 04       		.uleb128 0x4
 1665 0464 01       		.byte	0x1
 1666 0465 08       		.byte	0x8
 1667 0466 30030000 		.4byte	.LASF66
 1668 046a 09       		.uleb128 0x9
 1669 046b 04       		.byte	0x4
 1670 046c 9E020000 		.4byte	0x29e
 1671 0470 09       		.uleb128 0x9
 1672 0471 04       		.byte	0x4
 1673 0472 18040000 		.4byte	0x418
 1674 0476 03       		.uleb128 0x3
 1675 0477 E7010000 		.4byte	.LASF67
 1676 047b 0B       		.byte	0xb
 1677 047c 37       		.byte	0x37
 1678 047d 81040000 		.4byte	0x481
 1679 0481 05       		.uleb128 0x5
 1680 0482 E7010000 		.4byte	.LASF67
 1681 0486 20       		.byte	0x20
 1682 0487 0B       		.byte	0xb
 1683 0488 45       		.byte	0x45
 1684 0489 F0040000 		.4byte	0x4f0
 1685 048d 06       		.uleb128 0x6
 1686 048e 8F000000 		.4byte	.LASF68
 1687 0492 0B       		.byte	0xb
 1688 0493 46       		.byte	0x46
 1689 0494 64020000 		.4byte	0x264
ARM GAS  /var/folders/dt/0wfd0knj7gs46m8vwfzktm600000gn/T//cccdOh5l.s 			page 31


 1690 0498 02       		.byte	0x2
 1691 0499 23       		.byte	0x23
 1692 049a 00       		.uleb128 0
 1693 049b 06       		.uleb128 0x6
 1694 049c 2A020000 		.4byte	.LASF69
 1695 04a0 0B       		.byte	0xb
 1696 04a1 47       		.byte	0x47
 1697 04a2 30000000 		.4byte	0x30
 1698 04a6 02       		.byte	0x2
 1699 04a7 23       		.byte	0x23
 1700 04a8 08       		.uleb128 0x8
 1701 04a9 06       		.uleb128 0x6
 1702 04aa EB000000 		.4byte	.LASF70
 1703 04ae 0B       		.byte	0xb
 1704 04af 48       		.byte	0x48
 1705 04b0 13050000 		.4byte	0x513
 1706 04b4 02       		.byte	0x2
 1707 04b5 23       		.byte	0x23
 1708 04b6 0C       		.uleb128 0xc
 1709 04b7 06       		.uleb128 0x6
 1710 04b8 B4030000 		.4byte	.LASF71
 1711 04bc 0B       		.byte	0xb
 1712 04bd 49       		.byte	0x49
 1713 04be 13050000 		.4byte	0x513
 1714 04c2 02       		.byte	0x2
 1715 04c3 23       		.byte	0x23
 1716 04c4 10       		.uleb128 0x10
 1717 04c5 06       		.uleb128 0x6
 1718 04c6 F4000000 		.4byte	.LASF72
 1719 04ca 0B       		.byte	0xb
 1720 04cb 4B       		.byte	0x4b
 1721 04cc 13050000 		.4byte	0x513
 1722 04d0 02       		.byte	0x2
 1723 04d1 23       		.byte	0x23
 1724 04d2 14       		.uleb128 0x14
 1725 04d3 06       		.uleb128 0x6
 1726 04d4 A2020000 		.4byte	.LASF73
 1727 04d8 0B       		.byte	0xb
 1728 04d9 4C       		.byte	0x4c
 1729 04da 13050000 		.4byte	0x513
 1730 04de 02       		.byte	0x2
 1731 04df 23       		.byte	0x23
 1732 04e0 18       		.uleb128 0x18
 1733 04e1 06       		.uleb128 0x6
 1734 04e2 CB030000 		.4byte	.LASF74
 1735 04e6 0B       		.byte	0xb
 1736 04e7 4D       		.byte	0x4d
 1737 04e8 F0040000 		.4byte	0x4f0
 1738 04ec 02       		.byte	0x2
 1739 04ed 23       		.byte	0x23
 1740 04ee 1C       		.uleb128 0x1c
 1741 04ef 00       		.byte	0
 1742 04f0 03       		.uleb128 0x3
 1743 04f1 89020000 		.4byte	.LASF75
 1744 04f5 0B       		.byte	0xb
 1745 04f6 3A       		.byte	0x3a
 1746 04f7 FB040000 		.4byte	0x4fb
ARM GAS  /var/folders/dt/0wfd0knj7gs46m8vwfzktm600000gn/T//cccdOh5l.s 			page 32


 1747 04fb 09       		.uleb128 0x9
 1748 04fc 04       		.byte	0x4
 1749 04fd 01050000 		.4byte	0x501
 1750 0501 11       		.uleb128 0x11
 1751 0502 01       		.byte	0x1
 1752 0503 0D050000 		.4byte	0x50d
 1753 0507 12       		.uleb128 0x12
 1754 0508 0D050000 		.4byte	0x50d
 1755 050c 00       		.byte	0
 1756 050d 09       		.uleb128 0x9
 1757 050e 04       		.byte	0x4
 1758 050f 76040000 		.4byte	0x476
 1759 0513 09       		.uleb128 0x9
 1760 0514 04       		.byte	0x4
 1761 0515 49000000 		.4byte	0x49
 1762 0519 03       		.uleb128 0x3
 1763 051a D6010000 		.4byte	.LASF76
 1764 051e 0B       		.byte	0xb
 1765 051f 76       		.byte	0x76
 1766 0520 76040000 		.4byte	0x476
 1767 0524 03       		.uleb128 0x3
 1768 0525 41000000 		.4byte	.LASF77
 1769 0529 0B       		.byte	0xb
 1770 052a E6       		.byte	0xe6
 1771 052b 76040000 		.4byte	0x476
 1772 052f 09       		.uleb128 0x9
 1773 0530 04       		.byte	0x4
 1774 0531 35050000 		.4byte	0x535
 1775 0535 10       		.uleb128 0x10
 1776 0536 49000000 		.4byte	0x49
 1777 053a 13       		.uleb128 0x13
 1778 053b 0F000000 		.4byte	.LASF100
 1779 053f 02       		.byte	0x2
 1780 0540 34       		.byte	0x34
 1781 0541 01       		.byte	0x1
 1782 0542 03       		.byte	0x3
 1783 0543 5D050000 		.4byte	0x55d
 1784 0547 14       		.uleb128 0x14
 1785 0548 747000   		.ascii	"tp\000"
 1786 054b 02       		.byte	0x2
 1787 054c 34       		.byte	0x34
 1788 054d 5E020000 		.4byte	0x25e
 1789 0551 14       		.uleb128 0x14
 1790 0552 74717000 		.ascii	"tqp\000"
 1791 0556 02       		.byte	0x2
 1792 0557 34       		.byte	0x34
 1793 0558 5D050000 		.4byte	0x55d
 1794 055c 00       		.byte	0
 1795 055d 09       		.uleb128 0x9
 1796 055e 04       		.byte	0x4
 1797 055f 64020000 		.4byte	0x264
 1798 0563 15       		.uleb128 0x15
 1799 0564 35030000 		.4byte	.LASF101
 1800 0568 02       		.byte	0x2
 1801 0569 3B       		.byte	0x3b
 1802 056a 01       		.byte	0x1
 1803 056b 5E020000 		.4byte	0x25e
ARM GAS  /var/folders/dt/0wfd0knj7gs46m8vwfzktm600000gn/T//cccdOh5l.s 			page 33


 1804 056f 03       		.byte	0x3
 1805 0570 8A050000 		.4byte	0x58a
 1806 0574 14       		.uleb128 0x14
 1807 0575 74717000 		.ascii	"tqp\000"
 1808 0579 02       		.byte	0x2
 1809 057a 3B       		.byte	0x3b
 1810 057b 5D050000 		.4byte	0x55d
 1811 057f 16       		.uleb128 0x16
 1812 0580 747000   		.ascii	"tp\000"
 1813 0583 02       		.byte	0x2
 1814 0584 3C       		.byte	0x3c
 1815 0585 5E020000 		.4byte	0x25e
 1816 0589 00       		.byte	0
 1817 058a 17       		.uleb128 0x17
 1818 058b CA000000 		.4byte	.LASF102
 1819 058f 01       		.byte	0x1
 1820 0590 48       		.byte	0x48
 1821 0591 01       		.byte	0x1
 1822 0592 DD000000 		.4byte	0xdd
 1823 0596 00000000 		.4byte	.LFB7
 1824 059a 2C000000 		.4byte	.LFE7
 1825 059e 00000000 		.4byte	.LLST0
 1826 05a2 01       		.byte	0x1
 1827 05a3 02060000 		.4byte	0x602
 1828 05a7 18       		.uleb128 0x18
 1829 05a8 717000   		.ascii	"qp\000"
 1830 05ab 01       		.byte	0x1
 1831 05ac 48       		.byte	0x48
 1832 05ad 0D050000 		.4byte	0x50d
 1833 05b1 20000000 		.4byte	.LLST1
 1834 05b5 19       		.uleb128 0x19
 1835 05b6 5E020000 		.4byte	.LASF78
 1836 05ba 01       		.byte	0x1
 1837 05bb 48       		.byte	0x48
 1838 05bc F3000000 		.4byte	0xf3
 1839 05c0 62000000 		.4byte	.LLST2
 1840 05c4 1A       		.uleb128 0x1a
 1841 05c5 3A050000 		.4byte	0x53a
 1842 05c9 0E000000 		.4byte	.LBB12
 1843 05cd 18000000 		.4byte	.LBE12
 1844 05d1 01       		.byte	0x1
 1845 05d2 4D       		.byte	0x4d
 1846 05d3 EA050000 		.4byte	0x5ea
 1847 05d7 1B       		.uleb128 0x1b
 1848 05d8 51050000 		.4byte	0x551
 1849 05dc 8E000000 		.4byte	.LLST3
 1850 05e0 1B       		.uleb128 0x1b
 1851 05e1 47050000 		.4byte	0x547
 1852 05e5 AF000000 		.4byte	.LLST4
 1853 05e9 00       		.byte	0
 1854 05ea 1C       		.uleb128 0x1c
 1855 05eb 1E000000 		.4byte	.LVL3
 1856 05ef 01       		.byte	0x1
 1857 05f0 220D0000 		.4byte	0xd22
 1858 05f4 1D       		.uleb128 0x1d
 1859 05f5 01       		.byte	0x1
 1860 05f6 51       		.byte	0x51
ARM GAS  /var/folders/dt/0wfd0knj7gs46m8vwfzktm600000gn/T//cccdOh5l.s 			page 34


 1861 05f7 03       		.byte	0x3
 1862 05f8 F3       		.byte	0xf3
 1863 05f9 01       		.uleb128 0x1
 1864 05fa 51       		.byte	0x51
 1865 05fb 1D       		.uleb128 0x1d
 1866 05fc 01       		.byte	0x1
 1867 05fd 50       		.byte	0x50
 1868 05fe 01       		.byte	0x1
 1869 05ff 3D       		.byte	0x3d
 1870 0600 00       		.byte	0
 1871 0601 00       		.byte	0
 1872 0602 1E       		.uleb128 0x1e
 1873 0603 01       		.byte	0x1
 1874 0604 2F000000 		.4byte	.LASF81
 1875 0608 01       		.byte	0x1
 1876 0609 60       		.byte	0x60
 1877 060a 01       		.byte	0x1
 1878 060b 00000000 		.4byte	.LFB8
 1879 060f 1A000000 		.4byte	.LFE8
 1880 0613 C2000000 		.4byte	.LLST5
 1881 0617 01       		.byte	0x1
 1882 0618 52060000 		.4byte	0x652
 1883 061c 1F       		.uleb128 0x1f
 1884 061d 69717000 		.ascii	"iqp\000"
 1885 0621 01       		.byte	0x1
 1886 0622 60       		.byte	0x60
 1887 0623 52060000 		.4byte	0x652
 1888 0627 01       		.byte	0x1
 1889 0628 50       		.byte	0x50
 1890 0629 1F       		.uleb128 0x1f
 1891 062a 627000   		.ascii	"bp\000"
 1892 062d 01       		.byte	0x1
 1893 062e 60       		.byte	0x60
 1894 062f 13050000 		.4byte	0x513
 1895 0633 01       		.byte	0x1
 1896 0634 51       		.byte	0x51
 1897 0635 19       		.uleb128 0x19
 1898 0636 70010000 		.4byte	.LASF79
 1899 063a 01       		.byte	0x1
 1900 063b 60       		.byte	0x60
 1901 063c 30000000 		.4byte	0x30
 1902 0640 E2000000 		.4byte	.LLST6
 1903 0644 20       		.uleb128 0x20
 1904 0645 5D030000 		.4byte	.LASF80
 1905 0649 01       		.byte	0x1
 1906 064a 60       		.byte	0x60
 1907 064b F0040000 		.4byte	0x4f0
 1908 064f 01       		.byte	0x1
 1909 0650 53       		.byte	0x53
 1910 0651 00       		.byte	0
 1911 0652 09       		.uleb128 0x9
 1912 0653 04       		.byte	0x4
 1913 0654 19050000 		.4byte	0x519
 1914 0658 1E       		.uleb128 0x1e
 1915 0659 01       		.byte	0x1
 1916 065a 4B010000 		.4byte	.LASF82
 1917 065e 01       		.byte	0x1
ARM GAS  /var/folders/dt/0wfd0knj7gs46m8vwfzktm600000gn/T//cccdOh5l.s 			page 35


 1918 065f 74       		.byte	0x74
 1919 0660 01       		.byte	0x1
 1920 0661 00000000 		.4byte	.LFB9
 1921 0665 30000000 		.4byte	.LFE9
 1922 0669 03010000 		.4byte	.LLST7
 1923 066d 01       		.byte	0x1
 1924 066e C4060000 		.4byte	0x6c4
 1925 0672 18       		.uleb128 0x18
 1926 0673 69717000 		.ascii	"iqp\000"
 1927 0677 01       		.byte	0x1
 1928 0678 74       		.byte	0x74
 1929 0679 52060000 		.4byte	0x652
 1930 067d 23010000 		.4byte	.LLST8
 1931 0681 1A       		.uleb128 0x1a
 1932 0682 63050000 		.4byte	0x563
 1933 0686 1C000000 		.4byte	.LBB14
 1934 068a 22000000 		.4byte	.LBE14
 1935 068e 01       		.byte	0x1
 1936 068f 7B       		.byte	0x7b
 1937 0690 B1060000 		.4byte	0x6b1
 1938 0694 1B       		.uleb128 0x1b
 1939 0695 74050000 		.4byte	0x574
 1940 0699 41010000 		.4byte	.LLST9
 1941 069d 21       		.uleb128 0x21
 1942 069e 1C000000 		.4byte	.LBB15
 1943 06a2 22000000 		.4byte	.LBE15
 1944 06a6 22       		.uleb128 0x22
 1945 06a7 7F050000 		.4byte	0x57f
 1946 06ab 54010000 		.4byte	.LLST10
 1947 06af 00       		.byte	0
 1948 06b0 00       		.byte	0
 1949 06b1 23       		.uleb128 0x23
 1950 06b2 08000000 		.4byte	.LVL8
 1951 06b6 3F0D0000 		.4byte	0xd3f
 1952 06ba 23       		.uleb128 0x23
 1953 06bb 26000000 		.4byte	.LVL10
 1954 06bf 490D0000 		.4byte	0xd49
 1955 06c3 00       		.byte	0
 1956 06c4 24       		.uleb128 0x24
 1957 06c5 01       		.byte	0x1
 1958 06c6 24010000 		.4byte	.LASF83
 1959 06ca 01       		.byte	0x1
 1960 06cb 8B       		.byte	0x8b
 1961 06cc 01       		.byte	0x1
 1962 06cd DD000000 		.4byte	0xdd
 1963 06d1 00000000 		.4byte	.LFB10
 1964 06d5 50000000 		.4byte	.LFE10
 1965 06d9 67010000 		.4byte	.LLST11
 1966 06dd 01       		.byte	0x1
 1967 06de 41070000 		.4byte	0x741
 1968 06e2 18       		.uleb128 0x18
 1969 06e3 69717000 		.ascii	"iqp\000"
 1970 06e7 01       		.byte	0x1
 1971 06e8 8B       		.byte	0x8b
 1972 06e9 52060000 		.4byte	0x652
 1973 06ed 87010000 		.4byte	.LLST12
 1974 06f1 18       		.uleb128 0x18
ARM GAS  /var/folders/dt/0wfd0knj7gs46m8vwfzktm600000gn/T//cccdOh5l.s 			page 36


 1975 06f2 6200     		.ascii	"b\000"
 1976 06f4 01       		.byte	0x1
 1977 06f5 8B       		.byte	0x8b
 1978 06f6 49000000 		.4byte	0x49
 1979 06fa A5010000 		.4byte	.LLST13
 1980 06fe 1A       		.uleb128 0x1a
 1981 06ff 63050000 		.4byte	0x563
 1982 0703 30000000 		.4byte	.LBB16
 1983 0707 36000000 		.4byte	.LBE16
 1984 070b 01       		.byte	0x1
 1985 070c 98       		.byte	0x98
 1986 070d 2E070000 		.4byte	0x72e
 1987 0711 1B       		.uleb128 0x1b
 1988 0712 74050000 		.4byte	0x574
 1989 0716 C6010000 		.4byte	.LLST14
 1990 071a 21       		.uleb128 0x21
 1991 071b 30000000 		.4byte	.LBB17
 1992 071f 36000000 		.4byte	.LBE17
 1993 0723 22       		.uleb128 0x22
 1994 0724 7F050000 		.4byte	0x57f
 1995 0728 D9010000 		.4byte	.LLST15
 1996 072c 00       		.byte	0
 1997 072d 00       		.byte	0
 1998 072e 23       		.uleb128 0x23
 1999 072f 0A000000 		.4byte	.LVL13
 2000 0733 3F0D0000 		.4byte	0xd3f
 2001 0737 23       		.uleb128 0x23
 2002 0738 3A000000 		.4byte	.LVL15
 2003 073c 490D0000 		.4byte	0xd49
 2004 0740 00       		.byte	0
 2005 0741 24       		.uleb128 0x24
 2006 0742 01       		.byte	0x1
 2007 0743 27040000 		.4byte	.LASF84
 2008 0747 01       		.byte	0x1
 2009 0748 B1       		.byte	0xb1
 2010 0749 01       		.byte	0x1
 2011 074a DD000000 		.4byte	0xdd
 2012 074e 00000000 		.4byte	.LFB11
 2013 0752 5A000000 		.4byte	.LFE11
 2014 0756 EC010000 		.4byte	.LLST16
 2015 075a 01       		.byte	0x1
 2016 075b 40080000 		.4byte	0x840
 2017 075f 18       		.uleb128 0x18
 2018 0760 69717000 		.ascii	"iqp\000"
 2019 0764 01       		.byte	0x1
 2020 0765 B1       		.byte	0xb1
 2021 0766 52060000 		.4byte	0x652
 2022 076a 0C020000 		.4byte	.LLST17
 2023 076e 19       		.uleb128 0x19
 2024 076f 5E020000 		.4byte	.LASF78
 2025 0773 01       		.byte	0x1
 2026 0774 B1       		.byte	0xb1
 2027 0775 F3000000 		.4byte	0xf3
 2028 0779 56020000 		.4byte	.LLST18
 2029 077d 25       		.uleb128 0x25
 2030 077e 6200     		.ascii	"b\000"
 2031 0780 01       		.byte	0x1
ARM GAS  /var/folders/dt/0wfd0knj7gs46m8vwfzktm600000gn/T//cccdOh5l.s 			page 37


 2032 0781 B2       		.byte	0xb2
 2033 0782 49000000 		.4byte	0x49
 2034 0786 A0020000 		.4byte	.LLST19
 2035 078a 26       		.uleb128 0x26
 2036 078b 06000000 		.4byte	.LBB18
 2037 078f 0C000000 		.4byte	.LBE18
 2038 0793 A7070000 		.4byte	0x7a7
 2039 0797 25       		.uleb128 0x25
 2040 0798 746D7000 		.ascii	"tmp\000"
 2041 079c 01       		.byte	0x1
 2042 079d B4       		.byte	0xb4
 2043 079e 7B000000 		.4byte	0x7b
 2044 07a2 C0020000 		.4byte	.LLST20
 2045 07a6 00       		.byte	0
 2046 07a7 27       		.uleb128 0x27
 2047 07a8 00000000 		.4byte	.Ldebug_ranges0+0
 2048 07ac 00080000 		.4byte	0x800
 2049 07b0 25       		.uleb128 0x25
 2050 07b1 6D736700 		.ascii	"msg\000"
 2051 07b5 01       		.byte	0x1
 2052 07b6 B9       		.byte	0xb9
 2053 07b7 DD000000 		.4byte	0xdd
 2054 07bb D3020000 		.4byte	.LLST21
 2055 07bf 26       		.uleb128 0x26
 2056 07c0 2C000000 		.4byte	.LBB20
 2057 07c4 32000000 		.4byte	.LBE20
 2058 07c8 DC070000 		.4byte	0x7dc
 2059 07cc 25       		.uleb128 0x25
 2060 07cd 746D7000 		.ascii	"tmp\000"
 2061 07d1 01       		.byte	0x1
 2062 07d2 BB       		.byte	0xbb
 2063 07d3 7B000000 		.4byte	0x7b
 2064 07d7 F1020000 		.4byte	.LLST22
 2065 07db 00       		.byte	0
 2066 07dc 28       		.uleb128 0x28
 2067 07dd 24000000 		.4byte	.LVL23
 2068 07e1 8A050000 		.4byte	0x58a
 2069 07e5 F6070000 		.4byte	0x7f6
 2070 07e9 1D       		.uleb128 0x1d
 2071 07ea 01       		.byte	0x1
 2072 07eb 51       		.byte	0x51
 2073 07ec 02       		.byte	0x2
 2074 07ed 76       		.byte	0x76
 2075 07ee 00       		.sleb128 0
 2076 07ef 1D       		.uleb128 0x1d
 2077 07f0 01       		.byte	0x1
 2078 07f1 50       		.byte	0x50
 2079 07f2 02       		.byte	0x2
 2080 07f3 74       		.byte	0x74
 2081 07f4 00       		.sleb128 0
 2082 07f5 00       		.byte	0
 2083 07f6 23       		.uleb128 0x23
 2084 07f7 2C000000 		.4byte	.LVL24
 2085 07fb 610D0000 		.4byte	0xd61
 2086 07ff 00       		.byte	0
 2087 0800 26       		.uleb128 0x26
 2088 0801 50000000 		.4byte	.LBB22
ARM GAS  /var/folders/dt/0wfd0knj7gs46m8vwfzktm600000gn/T//cccdOh5l.s 			page 38


 2089 0805 56000000 		.4byte	.LBE22
 2090 0809 1D080000 		.4byte	0x81d
 2091 080d 25       		.uleb128 0x25
 2092 080e 746D7000 		.ascii	"tmp\000"
 2093 0812 01       		.byte	0x1
 2094 0813 C5       		.byte	0xc5
 2095 0814 7B000000 		.4byte	0x7b
 2096 0818 04030000 		.4byte	.LLST23
 2097 081c 00       		.byte	0
 2098 081d 23       		.uleb128 0x23
 2099 081e 10000000 		.4byte	.LVL20
 2100 0822 6B0D0000 		.4byte	0xd6b
 2101 0826 29       		.uleb128 0x29
 2102 0827 18000000 		.4byte	.LVL21
 2103 082b 36080000 		.4byte	0x836
 2104 082f 1D       		.uleb128 0x1d
 2105 0830 01       		.byte	0x1
 2106 0831 50       		.byte	0x50
 2107 0832 02       		.byte	0x2
 2108 0833 74       		.byte	0x74
 2109 0834 00       		.sleb128 0
 2110 0835 00       		.byte	0
 2111 0836 23       		.uleb128 0x23
 2112 0837 50000000 		.4byte	.LVL29
 2113 083b 610D0000 		.4byte	0xd61
 2114 083f 00       		.byte	0
 2115 0840 24       		.uleb128 0x24
 2116 0841 01       		.byte	0x1
 2117 0842 4D000000 		.4byte	.LASF85
 2118 0846 01       		.byte	0x1
 2119 0847 E1       		.byte	0xe1
 2120 0848 01       		.byte	0x1
 2121 0849 30000000 		.4byte	0x30
 2122 084d 00000000 		.4byte	.LFB12
 2123 0851 94000000 		.4byte	.LFE12
 2124 0855 17030000 		.4byte	.LLST24
 2125 0859 01       		.byte	0x1
 2126 085a 87090000 		.4byte	0x987
 2127 085e 18       		.uleb128 0x18
 2128 085f 69717000 		.ascii	"iqp\000"
 2129 0863 01       		.byte	0x1
 2130 0864 E1       		.byte	0xe1
 2131 0865 52060000 		.4byte	0x652
 2132 0869 37030000 		.4byte	.LLST25
 2133 086d 18       		.uleb128 0x18
 2134 086e 627000   		.ascii	"bp\000"
 2135 0871 01       		.byte	0x1
 2136 0872 E1       		.byte	0xe1
 2137 0873 13050000 		.4byte	0x513
 2138 0877 97030000 		.4byte	.LLST26
 2139 087b 18       		.uleb128 0x18
 2140 087c 6E00     		.ascii	"n\000"
 2141 087e 01       		.byte	0x1
 2142 087f E2       		.byte	0xe2
 2143 0880 30000000 		.4byte	0x30
 2144 0884 CB030000 		.4byte	.LLST27
 2145 0888 19       		.uleb128 0x19
ARM GAS  /var/folders/dt/0wfd0knj7gs46m8vwfzktm600000gn/T//cccdOh5l.s 			page 39


 2146 0889 5E020000 		.4byte	.LASF78
 2147 088d 01       		.byte	0x1
 2148 088e E2       		.byte	0xe2
 2149 088f F3000000 		.4byte	0xf3
 2150 0893 FF030000 		.4byte	.LLST28
 2151 0897 2A       		.uleb128 0x2a
 2152 0898 6E667900 		.ascii	"nfy\000"
 2153 089c 01       		.byte	0x1
 2154 089d E3       		.byte	0xe3
 2155 089e F0040000 		.4byte	0x4f0
 2156 08a2 01       		.byte	0x1
 2157 08a3 57       		.byte	0x57
 2158 08a4 25       		.uleb128 0x25
 2159 08a5 7200     		.ascii	"r\000"
 2160 08a7 01       		.byte	0x1
 2161 08a8 E4       		.byte	0xe4
 2162 08a9 30000000 		.4byte	0x30
 2163 08ad 5F040000 		.4byte	.LLST29
 2164 08b1 26       		.uleb128 0x26
 2165 08b2 12000000 		.4byte	.LBB23
 2166 08b6 18000000 		.4byte	.LBE23
 2167 08ba CE080000 		.4byte	0x8ce
 2168 08be 25       		.uleb128 0x25
 2169 08bf 746D7000 		.ascii	"tmp\000"
 2170 08c3 01       		.byte	0x1
 2171 08c4 E8       		.byte	0xe8
 2172 08c5 7B000000 		.4byte	0x7b
 2173 08c9 8A040000 		.4byte	.LLST30
 2174 08cd 00       		.byte	0
 2175 08ce 26       		.uleb128 0x26
 2176 08cf 40000000 		.4byte	.LBB24
 2177 08d3 46000000 		.4byte	.LBE24
 2178 08d7 EB080000 		.4byte	0x8eb
 2179 08db 25       		.uleb128 0x25
 2180 08dc 746D7000 		.ascii	"tmp\000"
 2181 08e0 01       		.byte	0x1
 2182 08e1 EF       		.byte	0xef
 2183 08e2 7B000000 		.4byte	0x7b
 2184 08e6 9D040000 		.4byte	.LLST31
 2185 08ea 00       		.byte	0
 2186 08eb 26       		.uleb128 0x26
 2187 08ec 6A000000 		.4byte	.LBB25
 2188 08f0 70000000 		.4byte	.LBE25
 2189 08f4 08090000 		.4byte	0x908
 2190 08f8 25       		.uleb128 0x25
 2191 08f9 746D7000 		.ascii	"tmp\000"
 2192 08fd 01       		.byte	0x1
 2193 08fe F9       		.byte	0xf9
 2194 08ff 7B000000 		.4byte	0x7b
 2195 0903 B0040000 		.4byte	.LLST32
 2196 0907 00       		.byte	0
 2197 0908 26       		.uleb128 0x26
 2198 0909 78000000 		.4byte	.LBB26
 2199 090d 7E000000 		.4byte	.LBE26
 2200 0911 25090000 		.4byte	0x925
 2201 0915 25       		.uleb128 0x25
 2202 0916 746D7000 		.ascii	"tmp\000"
ARM GAS  /var/folders/dt/0wfd0knj7gs46m8vwfzktm600000gn/T//cccdOh5l.s 			page 40


 2203 091a 01       		.byte	0x1
 2204 091b FE       		.byte	0xfe
 2205 091c 7B000000 		.4byte	0x7b
 2206 0920 CE040000 		.4byte	.LLST33
 2207 0924 00       		.byte	0
 2208 0925 23       		.uleb128 0x23
 2209 0926 1C000000 		.4byte	.LVL37
 2210 092a 6B0D0000 		.4byte	0xd6b
 2211 092e 29       		.uleb128 0x29
 2212 092f 2C000000 		.4byte	.LVL39
 2213 0933 3E090000 		.4byte	0x93e
 2214 0937 1D       		.uleb128 0x1d
 2215 0938 01       		.byte	0x1
 2216 0939 50       		.byte	0x50
 2217 093a 02       		.byte	0x2
 2218 093b 74       		.byte	0x74
 2219 093c 00       		.sleb128 0
 2220 093d 00       		.byte	0
 2221 093e 28       		.uleb128 0x28
 2222 093f 38000000 		.4byte	.LVL41
 2223 0943 8A050000 		.4byte	0x58a
 2224 0947 58090000 		.4byte	0x958
 2225 094b 1D       		.uleb128 0x1d
 2226 094c 01       		.byte	0x1
 2227 094d 51       		.byte	0x51
 2228 094e 02       		.byte	0x2
 2229 094f 76       		.byte	0x76
 2230 0950 00       		.sleb128 0
 2231 0951 1D       		.uleb128 0x1d
 2232 0952 01       		.byte	0x1
 2233 0953 50       		.byte	0x50
 2234 0954 02       		.byte	0x2
 2235 0955 74       		.byte	0x74
 2236 0956 00       		.sleb128 0
 2237 0957 00       		.byte	0
 2238 0958 23       		.uleb128 0x23
 2239 0959 40000000 		.4byte	.LVL42
 2240 095d 610D0000 		.4byte	0xd61
 2241 0961 23       		.uleb128 0x23
 2242 0962 6A000000 		.4byte	.LVL46
 2243 0966 610D0000 		.4byte	0xd61
 2244 096a 23       		.uleb128 0x23
 2245 096b 82000000 		.4byte	.LVL51
 2246 096f 6B0D0000 		.4byte	0xd6b
 2247 0973 2B       		.uleb128 0x2b
 2248 0974 8E000000 		.4byte	.LVL54
 2249 0978 750D0000 		.4byte	0xd75
 2250 097c 1D       		.uleb128 0x1d
 2251 097d 01       		.byte	0x1
 2252 097e 50       		.byte	0x50
 2253 097f 05       		.byte	0x5
 2254 0980 03       		.byte	0x3
 2255 0981 00000000 		.4byte	.LC0
 2256 0985 00       		.byte	0
 2257 0986 00       		.byte	0
 2258 0987 2C       		.uleb128 0x2c
 2259 0988 01       		.byte	0x1
ARM GAS  /var/folders/dt/0wfd0knj7gs46m8vwfzktm600000gn/T//cccdOh5l.s 			page 41


 2260 0989 00000000 		.4byte	.LASF86
 2261 098d 01       		.byte	0x1
 2262 098e 1101     		.2byte	0x111
 2263 0990 01       		.byte	0x1
 2264 0991 00000000 		.4byte	.LFB13
 2265 0995 18000000 		.4byte	.LFE13
 2266 0999 E1040000 		.4byte	.LLST34
 2267 099d 01       		.byte	0x1
 2268 099e DA090000 		.4byte	0x9da
 2269 09a2 2D       		.uleb128 0x2d
 2270 09a3 6F717000 		.ascii	"oqp\000"
 2271 09a7 01       		.byte	0x1
 2272 09a8 1101     		.2byte	0x111
 2273 09aa DA090000 		.4byte	0x9da
 2274 09ae 01       		.byte	0x1
 2275 09af 50       		.byte	0x50
 2276 09b0 2D       		.uleb128 0x2d
 2277 09b1 627000   		.ascii	"bp\000"
 2278 09b4 01       		.byte	0x1
 2279 09b5 1101     		.2byte	0x111
 2280 09b7 13050000 		.4byte	0x513
 2281 09bb 01       		.byte	0x1
 2282 09bc 51       		.byte	0x51
 2283 09bd 2E       		.uleb128 0x2e
 2284 09be 70010000 		.4byte	.LASF79
 2285 09c2 01       		.byte	0x1
 2286 09c3 1101     		.2byte	0x111
 2287 09c5 30000000 		.4byte	0x30
 2288 09c9 01       		.byte	0x1
 2289 09ca 52       		.byte	0x52
 2290 09cb 2E       		.uleb128 0x2e
 2291 09cc 1C000000 		.4byte	.LASF87
 2292 09d0 01       		.byte	0x1
 2293 09d1 1101     		.2byte	0x111
 2294 09d3 F0040000 		.4byte	0x4f0
 2295 09d7 01       		.byte	0x1
 2296 09d8 53       		.byte	0x53
 2297 09d9 00       		.byte	0
 2298 09da 09       		.uleb128 0x9
 2299 09db 04       		.byte	0x4
 2300 09dc 24050000 		.4byte	0x524
 2301 09e0 2C       		.uleb128 0x2c
 2302 09e1 01       		.byte	0x1
 2303 09e2 90030000 		.4byte	.LASF88
 2304 09e6 01       		.byte	0x1
 2305 09e7 2501     		.2byte	0x125
 2306 09e9 01       		.byte	0x1
 2307 09ea 00000000 		.4byte	.LFB14
 2308 09ee 32000000 		.4byte	.LFE14
 2309 09f2 01050000 		.4byte	.LLST35
 2310 09f6 01       		.byte	0x1
 2311 09f7 4F0A0000 		.4byte	0xa4f
 2312 09fb 2F       		.uleb128 0x2f
 2313 09fc 6F717000 		.ascii	"oqp\000"
 2314 0a00 01       		.byte	0x1
 2315 0a01 2501     		.2byte	0x125
 2316 0a03 DA090000 		.4byte	0x9da
ARM GAS  /var/folders/dt/0wfd0knj7gs46m8vwfzktm600000gn/T//cccdOh5l.s 			page 42


 2317 0a07 21050000 		.4byte	.LLST36
 2318 0a0b 30       		.uleb128 0x30
 2319 0a0c 63050000 		.4byte	0x563
 2320 0a10 1E000000 		.4byte	.LBB27
 2321 0a14 24000000 		.4byte	.LBE27
 2322 0a18 01       		.byte	0x1
 2323 0a19 2C01     		.2byte	0x12c
 2324 0a1b 3C0A0000 		.4byte	0xa3c
 2325 0a1f 1B       		.uleb128 0x1b
 2326 0a20 74050000 		.4byte	0x574
 2327 0a24 3F050000 		.4byte	.LLST37
 2328 0a28 21       		.uleb128 0x21
 2329 0a29 1E000000 		.4byte	.LBB28
 2330 0a2d 24000000 		.4byte	.LBE28
 2331 0a31 22       		.uleb128 0x22
 2332 0a32 7F050000 		.4byte	0x57f
 2333 0a36 52050000 		.4byte	.LLST38
 2334 0a3a 00       		.byte	0
 2335 0a3b 00       		.byte	0
 2336 0a3c 23       		.uleb128 0x23
 2337 0a3d 08000000 		.4byte	.LVL57
 2338 0a41 3F0D0000 		.4byte	0xd3f
 2339 0a45 23       		.uleb128 0x23
 2340 0a46 28000000 		.4byte	.LVL59
 2341 0a4a 490D0000 		.4byte	0xd49
 2342 0a4e 00       		.byte	0
 2343 0a4f 31       		.uleb128 0x31
 2344 0a50 01       		.byte	0x1
 2345 0a51 15010000 		.4byte	.LASF89
 2346 0a55 01       		.byte	0x1
 2347 0a56 4501     		.2byte	0x145
 2348 0a58 01       		.byte	0x1
 2349 0a59 DD000000 		.4byte	0xdd
 2350 0a5d 00000000 		.4byte	.LFB15
 2351 0a61 64000000 		.4byte	.LFE15
 2352 0a65 65050000 		.4byte	.LLST39
 2353 0a69 01       		.byte	0x1
 2354 0a6a 520B0000 		.4byte	0xb52
 2355 0a6e 2F       		.uleb128 0x2f
 2356 0a6f 6F717000 		.ascii	"oqp\000"
 2357 0a73 01       		.byte	0x1
 2358 0a74 4501     		.2byte	0x145
 2359 0a76 DA090000 		.4byte	0x9da
 2360 0a7a 85050000 		.4byte	.LLST40
 2361 0a7e 2F       		.uleb128 0x2f
 2362 0a7f 6200     		.ascii	"b\000"
 2363 0a81 01       		.byte	0x1
 2364 0a82 4501     		.2byte	0x145
 2365 0a84 49000000 		.4byte	0x49
 2366 0a88 CF050000 		.4byte	.LLST41
 2367 0a8c 32       		.uleb128 0x32
 2368 0a8d 5E020000 		.4byte	.LASF78
 2369 0a91 01       		.byte	0x1
 2370 0a92 4501     		.2byte	0x145
 2371 0a94 F3000000 		.4byte	0xf3
 2372 0a98 F0050000 		.4byte	.LLST42
 2373 0a9c 27       		.uleb128 0x27
ARM GAS  /var/folders/dt/0wfd0knj7gs46m8vwfzktm600000gn/T//cccdOh5l.s 			page 43


 2374 0a9d 18000000 		.4byte	.Ldebug_ranges0+0x18
 2375 0aa1 B60A0000 		.4byte	0xab6
 2376 0aa5 33       		.uleb128 0x33
 2377 0aa6 746D7000 		.ascii	"tmp\000"
 2378 0aaa 01       		.byte	0x1
 2379 0aab 4701     		.2byte	0x147
 2380 0aad 7B000000 		.4byte	0x7b
 2381 0ab1 3A060000 		.4byte	.LLST43
 2382 0ab5 00       		.byte	0
 2383 0ab6 27       		.uleb128 0x27
 2384 0ab7 30000000 		.4byte	.Ldebug_ranges0+0x30
 2385 0abb 110B0000 		.4byte	0xb11
 2386 0abf 33       		.uleb128 0x33
 2387 0ac0 6D736700 		.ascii	"msg\000"
 2388 0ac4 01       		.byte	0x1
 2389 0ac5 4901     		.2byte	0x149
 2390 0ac7 DD000000 		.4byte	0xdd
 2391 0acb 4D060000 		.4byte	.LLST44
 2392 0acf 26       		.uleb128 0x26
 2393 0ad0 28000000 		.4byte	.LBB32
 2394 0ad4 2E000000 		.4byte	.LBE32
 2395 0ad8 ED0A0000 		.4byte	0xaed
 2396 0adc 33       		.uleb128 0x33
 2397 0add 746D7000 		.ascii	"tmp\000"
 2398 0ae1 01       		.byte	0x1
 2399 0ae2 4C01     		.2byte	0x14c
 2400 0ae4 7B000000 		.4byte	0x7b
 2401 0ae8 6B060000 		.4byte	.LLST45
 2402 0aec 00       		.byte	0
 2403 0aed 28       		.uleb128 0x28
 2404 0aee 20000000 		.4byte	.LVL66
 2405 0af2 8A050000 		.4byte	0x58a
 2406 0af6 070B0000 		.4byte	0xb07
 2407 0afa 1D       		.uleb128 0x1d
 2408 0afb 01       		.byte	0x1
 2409 0afc 51       		.byte	0x51
 2410 0afd 02       		.byte	0x2
 2411 0afe 76       		.byte	0x76
 2412 0aff 00       		.sleb128 0
 2413 0b00 1D       		.uleb128 0x1d
 2414 0b01 01       		.byte	0x1
 2415 0b02 50       		.byte	0x50
 2416 0b03 02       		.byte	0x2
 2417 0b04 74       		.byte	0x74
 2418 0b05 00       		.sleb128 0
 2419 0b06 00       		.byte	0
 2420 0b07 23       		.uleb128 0x23
 2421 0b08 28000000 		.4byte	.LVL67
 2422 0b0c 610D0000 		.4byte	0xd61
 2423 0b10 00       		.byte	0
 2424 0b11 26       		.uleb128 0x26
 2425 0b12 56000000 		.4byte	.LBB34
 2426 0b16 5C000000 		.4byte	.LBE34
 2427 0b1a 2F0B0000 		.4byte	0xb2f
 2428 0b1e 33       		.uleb128 0x33
 2429 0b1f 746D7000 		.ascii	"tmp\000"
 2430 0b23 01       		.byte	0x1
ARM GAS  /var/folders/dt/0wfd0knj7gs46m8vwfzktm600000gn/T//cccdOh5l.s 			page 44


 2431 0b24 5901     		.2byte	0x159
 2432 0b26 7B000000 		.4byte	0x7b
 2433 0b2a 7E060000 		.4byte	.LLST46
 2434 0b2e 00       		.byte	0
 2435 0b2f 23       		.uleb128 0x23
 2436 0b30 14000000 		.4byte	.LVL64
 2437 0b34 6B0D0000 		.4byte	0xd6b
 2438 0b38 29       		.uleb128 0x29
 2439 0b39 52000000 		.4byte	.LVL72
 2440 0b3d 480B0000 		.4byte	0xb48
 2441 0b41 1D       		.uleb128 0x1d
 2442 0b42 01       		.byte	0x1
 2443 0b43 50       		.byte	0x50
 2444 0b44 02       		.byte	0x2
 2445 0b45 74       		.byte	0x74
 2446 0b46 00       		.sleb128 0
 2447 0b47 00       		.byte	0
 2448 0b48 23       		.uleb128 0x23
 2449 0b49 56000000 		.4byte	.LVL73
 2450 0b4d 610D0000 		.4byte	0xd61
 2451 0b51 00       		.byte	0
 2452 0b52 31       		.uleb128 0x31
 2453 0b53 01       		.byte	0x1
 2454 0b54 E2000000 		.4byte	.LASF90
 2455 0b58 01       		.byte	0x1
 2456 0b59 6701     		.2byte	0x167
 2457 0b5b 01       		.byte	0x1
 2458 0b5c DD000000 		.4byte	0xdd
 2459 0b60 00000000 		.4byte	.LFB16
 2460 0b64 4A000000 		.4byte	.LFE16
 2461 0b68 91060000 		.4byte	.LLST47
 2462 0b6c 01       		.byte	0x1
 2463 0b6d D30B0000 		.4byte	0xbd3
 2464 0b71 2F       		.uleb128 0x2f
 2465 0b72 6F717000 		.ascii	"oqp\000"
 2466 0b76 01       		.byte	0x1
 2467 0b77 6701     		.2byte	0x167
 2468 0b79 DA090000 		.4byte	0x9da
 2469 0b7d B1060000 		.4byte	.LLST48
 2470 0b81 33       		.uleb128 0x33
 2471 0b82 6200     		.ascii	"b\000"
 2472 0b84 01       		.byte	0x1
 2473 0b85 6801     		.2byte	0x168
 2474 0b87 49000000 		.4byte	0x49
 2475 0b8b CF060000 		.4byte	.LLST49
 2476 0b8f 30       		.uleb128 0x30
 2477 0b90 63050000 		.4byte	0x563
 2478 0b94 2E000000 		.4byte	.LBB35
 2479 0b98 34000000 		.4byte	.LBE35
 2480 0b9c 01       		.byte	0x1
 2481 0b9d 7501     		.2byte	0x175
 2482 0b9f C00B0000 		.4byte	0xbc0
 2483 0ba3 1B       		.uleb128 0x1b
 2484 0ba4 74050000 		.4byte	0x574
 2485 0ba8 EF060000 		.4byte	.LLST50
 2486 0bac 21       		.uleb128 0x21
 2487 0bad 2E000000 		.4byte	.LBB36
ARM GAS  /var/folders/dt/0wfd0knj7gs46m8vwfzktm600000gn/T//cccdOh5l.s 			page 45


 2488 0bb1 34000000 		.4byte	.LBE36
 2489 0bb5 22       		.uleb128 0x22
 2490 0bb6 7F050000 		.4byte	0x57f
 2491 0bba 02070000 		.4byte	.LLST51
 2492 0bbe 00       		.byte	0
 2493 0bbf 00       		.byte	0
 2494 0bc0 23       		.uleb128 0x23
 2495 0bc1 08000000 		.4byte	.LVL77
 2496 0bc5 3F0D0000 		.4byte	0xd3f
 2497 0bc9 23       		.uleb128 0x23
 2498 0bca 38000000 		.4byte	.LVL80
 2499 0bce 490D0000 		.4byte	0xd49
 2500 0bd2 00       		.byte	0
 2501 0bd3 34       		.uleb128 0x34
 2502 0bd4 01       		.byte	0x1
 2503 0bd5 FF010000 		.4byte	.LASF91
 2504 0bd9 01       		.byte	0x1
 2505 0bda 9201     		.2byte	0x192
 2506 0bdc 01       		.byte	0x1
 2507 0bdd 30000000 		.4byte	0x30
 2508 0be1 00000000 		.4byte	.LFB17
 2509 0be5 94000000 		.4byte	.LFE17
 2510 0be9 15070000 		.4byte	.LLST52
 2511 0bed 01       		.byte	0x1
 2512 0bee 150D0000 		.4byte	0xd15
 2513 0bf2 2F       		.uleb128 0x2f
 2514 0bf3 6F717000 		.ascii	"oqp\000"
 2515 0bf7 01       		.byte	0x1
 2516 0bf8 9201     		.2byte	0x192
 2517 0bfa DA090000 		.4byte	0x9da
 2518 0bfe 35070000 		.4byte	.LLST53
 2519 0c02 2F       		.uleb128 0x2f
 2520 0c03 627000   		.ascii	"bp\000"
 2521 0c06 01       		.byte	0x1
 2522 0c07 9201     		.2byte	0x192
 2523 0c09 2F050000 		.4byte	0x52f
 2524 0c0d 95070000 		.4byte	.LLST54
 2525 0c11 2F       		.uleb128 0x2f
 2526 0c12 6E00     		.ascii	"n\000"
 2527 0c14 01       		.byte	0x1
 2528 0c15 9301     		.2byte	0x193
 2529 0c17 30000000 		.4byte	0x30
 2530 0c1b E1070000 		.4byte	.LLST55
 2531 0c1f 32       		.uleb128 0x32
 2532 0c20 5E020000 		.4byte	.LASF78
 2533 0c24 01       		.byte	0x1
 2534 0c25 9301     		.2byte	0x193
 2535 0c27 F3000000 		.4byte	0xf3
 2536 0c2b 2D080000 		.4byte	.LLST56
 2537 0c2f 35       		.uleb128 0x35
 2538 0c30 6E667900 		.ascii	"nfy\000"
 2539 0c34 01       		.byte	0x1
 2540 0c35 9401     		.2byte	0x194
 2541 0c37 F0040000 		.4byte	0x4f0
 2542 0c3b 01       		.byte	0x1
 2543 0c3c 59       		.byte	0x59
 2544 0c3d 33       		.uleb128 0x33
ARM GAS  /var/folders/dt/0wfd0knj7gs46m8vwfzktm600000gn/T//cccdOh5l.s 			page 46


 2545 0c3e 7700     		.ascii	"w\000"
 2546 0c40 01       		.byte	0x1
 2547 0c41 9501     		.2byte	0x195
 2548 0c43 30000000 		.4byte	0x30
 2549 0c47 61080000 		.4byte	.LLST57
 2550 0c4b 26       		.uleb128 0x26
 2551 0c4c 14000000 		.4byte	.LBB37
 2552 0c50 1A000000 		.4byte	.LBE37
 2553 0c54 690C0000 		.4byte	0xc69
 2554 0c58 33       		.uleb128 0x33
 2555 0c59 746D7000 		.ascii	"tmp\000"
 2556 0c5d 01       		.byte	0x1
 2557 0c5e 9901     		.2byte	0x199
 2558 0c60 7B000000 		.4byte	0x7b
 2559 0c64 8C080000 		.4byte	.LLST58
 2560 0c68 00       		.byte	0
 2561 0c69 26       		.uleb128 0x26
 2562 0c6a 4C000000 		.4byte	.LBB38
 2563 0c6e 52000000 		.4byte	.LBE38
 2564 0c72 870C0000 		.4byte	0xc87
 2565 0c76 33       		.uleb128 0x33
 2566 0c77 746D7000 		.ascii	"tmp\000"
 2567 0c7b 01       		.byte	0x1
 2568 0c7c A901     		.2byte	0x1a9
 2569 0c7e 7B000000 		.4byte	0x7b
 2570 0c82 9F080000 		.4byte	.LLST59
 2571 0c86 00       		.byte	0
 2572 0c87 26       		.uleb128 0x26
 2573 0c88 58000000 		.4byte	.LBB39
 2574 0c8c 5E000000 		.4byte	.LBE39
 2575 0c90 A50C0000 		.4byte	0xca5
 2576 0c94 33       		.uleb128 0x33
 2577 0c95 746D7000 		.ascii	"tmp\000"
 2578 0c99 01       		.byte	0x1
 2579 0c9a AD01     		.2byte	0x1ad
 2580 0c9c 7B000000 		.4byte	0x7b
 2581 0ca0 BD080000 		.4byte	.LLST60
 2582 0ca4 00       		.byte	0
 2583 0ca5 26       		.uleb128 0x26
 2584 0ca6 7C000000 		.4byte	.LBB40
 2585 0caa 82000000 		.4byte	.LBE40
 2586 0cae C30C0000 		.4byte	0xcc3
 2587 0cb2 33       		.uleb128 0x33
 2588 0cb3 746D7000 		.ascii	"tmp\000"
 2589 0cb7 01       		.byte	0x1
 2590 0cb8 9D01     		.2byte	0x19d
 2591 0cba 7B000000 		.4byte	0x7b
 2592 0cbe D0080000 		.4byte	.LLST61
 2593 0cc2 00       		.byte	0
 2594 0cc3 23       		.uleb128 0x23
 2595 0cc4 1E000000 		.4byte	.LVL88
 2596 0cc8 6B0D0000 		.4byte	0xd6b
 2597 0ccc 23       		.uleb128 0x23
 2598 0ccd 4C000000 		.4byte	.LVL94
 2599 0cd1 610D0000 		.4byte	0xd61
 2600 0cd5 23       		.uleb128 0x23
 2601 0cd6 62000000 		.4byte	.LVL101
ARM GAS  /var/folders/dt/0wfd0knj7gs46m8vwfzktm600000gn/T//cccdOh5l.s 			page 47


 2602 0cda 6B0D0000 		.4byte	0xd6b
 2603 0cde 28       		.uleb128 0x28
 2604 0cdf 74000000 		.4byte	.LVL104
 2605 0ce3 8A050000 		.4byte	0x58a
 2606 0ce7 F80C0000 		.4byte	0xcf8
 2607 0ceb 1D       		.uleb128 0x1d
 2608 0cec 01       		.byte	0x1
 2609 0ced 51       		.byte	0x51
 2610 0cee 02       		.byte	0x2
 2611 0cef 7A       		.byte	0x7a
 2612 0cf0 00       		.sleb128 0
 2613 0cf1 1D       		.uleb128 0x1d
 2614 0cf2 01       		.byte	0x1
 2615 0cf3 50       		.byte	0x50
 2616 0cf4 02       		.byte	0x2
 2617 0cf5 74       		.byte	0x74
 2618 0cf6 00       		.sleb128 0
 2619 0cf7 00       		.byte	0
 2620 0cf8 23       		.uleb128 0x23
 2621 0cf9 7C000000 		.4byte	.LVL105
 2622 0cfd 610D0000 		.4byte	0xd61
 2623 0d01 2B       		.uleb128 0x2b
 2624 0d02 8E000000 		.4byte	.LVL110
 2625 0d06 750D0000 		.4byte	0xd75
 2626 0d0a 1D       		.uleb128 0x1d
 2627 0d0b 01       		.byte	0x1
 2628 0d0c 50       		.byte	0x50
 2629 0d0d 05       		.byte	0x5
 2630 0d0e 03       		.byte	0x3
 2631 0d0f 14000000 		.4byte	.LC1
 2632 0d13 00       		.byte	0
 2633 0d14 00       		.byte	0
 2634 0d15 36       		.uleb128 0x36
 2635 0d16 D4030000 		.4byte	.LASF103
 2636 0d1a 09       		.byte	0x9
 2637 0d1b 72       		.byte	0x72
 2638 0d1c D0030000 		.4byte	0x3d0
 2639 0d20 01       		.byte	0x1
 2640 0d21 01       		.byte	0x1
 2641 0d22 37       		.uleb128 0x37
 2642 0d23 01       		.byte	0x1
 2643 0d24 F0030000 		.4byte	.LASF92
 2644 0d28 09       		.byte	0x9
 2645 0d29 99       		.byte	0x99
 2646 0d2a 01       		.byte	0x1
 2647 0d2b DD000000 		.4byte	0xdd
 2648 0d2f 01       		.byte	0x1
 2649 0d30 3F0D0000 		.4byte	0xd3f
 2650 0d34 12       		.uleb128 0x12
 2651 0d35 BC000000 		.4byte	0xbc
 2652 0d39 12       		.uleb128 0x12
 2653 0d3a F3000000 		.4byte	0xf3
 2654 0d3e 00       		.byte	0
 2655 0d3f 38       		.uleb128 0x38
 2656 0d40 01       		.byte	0x1
 2657 0d41 8E010000 		.4byte	.LASF94
 2658 0d45 0C       		.byte	0xc
ARM GAS  /var/folders/dt/0wfd0knj7gs46m8vwfzktm600000gn/T//cccdOh5l.s 			page 48


 2659 0d46 E8       		.byte	0xe8
 2660 0d47 01       		.byte	0x1
 2661 0d48 01       		.byte	0x1
 2662 0d49 37       		.uleb128 0x37
 2663 0d4a 01       		.byte	0x1
 2664 0d4b 24030000 		.4byte	.LASF93
 2665 0d4f 09       		.byte	0x9
 2666 0d50 93       		.byte	0x93
 2667 0d51 01       		.byte	0x1
 2668 0d52 5E020000 		.4byte	0x25e
 2669 0d56 01       		.byte	0x1
 2670 0d57 610D0000 		.4byte	0xd61
 2671 0d5b 12       		.uleb128 0x12
 2672 0d5c 5E020000 		.4byte	0x25e
 2673 0d60 00       		.byte	0
 2674 0d61 38       		.uleb128 0x38
 2675 0d62 01       		.byte	0x1
 2676 0d63 10020000 		.4byte	.LASF95
 2677 0d67 0C       		.byte	0xc
 2678 0d68 E3       		.byte	0xe3
 2679 0d69 01       		.byte	0x1
 2680 0d6a 01       		.byte	0x1
 2681 0d6b 38       		.uleb128 0x38
 2682 0d6c 01       		.byte	0x1
 2683 0d6d 34020000 		.4byte	.LASF96
 2684 0d71 0C       		.byte	0xc
 2685 0d72 E2       		.byte	0xe2
 2686 0d73 01       		.byte	0x1
 2687 0d74 01       		.byte	0x1
 2688 0d75 39       		.uleb128 0x39
 2689 0d76 01       		.byte	0x1
 2690 0d77 7D000000 		.4byte	.LASF104
 2691 0d7b 0C       		.byte	0xc
 2692 0d7c F0       		.byte	0xf0
 2693 0d7d 01       		.byte	0x1
 2694 0d7e 01       		.byte	0x1
 2695 0d7f 890D0000 		.4byte	0xd89
 2696 0d83 12       		.uleb128 0x12
 2697 0d84 890D0000 		.4byte	0xd89
 2698 0d88 00       		.byte	0
 2699 0d89 09       		.uleb128 0x9
 2700 0d8a 04       		.byte	0x4
 2701 0d8b 63040000 		.4byte	0x463
 2702 0d8f 00       		.byte	0
 2703              		.section	.debug_abbrev,"",%progbits
 2704              	.Ldebug_abbrev0:
 2705 0000 01       		.uleb128 0x1
 2706 0001 11       		.uleb128 0x11
 2707 0002 01       		.byte	0x1
 2708 0003 25       		.uleb128 0x25
 2709 0004 0E       		.uleb128 0xe
 2710 0005 13       		.uleb128 0x13
 2711 0006 0B       		.uleb128 0xb
 2712 0007 03       		.uleb128 0x3
 2713 0008 0E       		.uleb128 0xe
 2714 0009 1B       		.uleb128 0x1b
 2715 000a 0E       		.uleb128 0xe
ARM GAS  /var/folders/dt/0wfd0knj7gs46m8vwfzktm600000gn/T//cccdOh5l.s 			page 49


 2716 000b 55       		.uleb128 0x55
 2717 000c 06       		.uleb128 0x6
 2718 000d 11       		.uleb128 0x11
 2719 000e 01       		.uleb128 0x1
 2720 000f 52       		.uleb128 0x52
 2721 0010 01       		.uleb128 0x1
 2722 0011 10       		.uleb128 0x10
 2723 0012 06       		.uleb128 0x6
 2724 0013 00       		.byte	0
 2725 0014 00       		.byte	0
 2726 0015 02       		.uleb128 0x2
 2727 0016 24       		.uleb128 0x24
 2728 0017 00       		.byte	0
 2729 0018 0B       		.uleb128 0xb
 2730 0019 0B       		.uleb128 0xb
 2731 001a 3E       		.uleb128 0x3e
 2732 001b 0B       		.uleb128 0xb
 2733 001c 03       		.uleb128 0x3
 2734 001d 08       		.uleb128 0x8
 2735 001e 00       		.byte	0
 2736 001f 00       		.byte	0
 2737 0020 03       		.uleb128 0x3
 2738 0021 16       		.uleb128 0x16
 2739 0022 00       		.byte	0
 2740 0023 03       		.uleb128 0x3
 2741 0024 0E       		.uleb128 0xe
 2742 0025 3A       		.uleb128 0x3a
 2743 0026 0B       		.uleb128 0xb
 2744 0027 3B       		.uleb128 0x3b
 2745 0028 0B       		.uleb128 0xb
 2746 0029 49       		.uleb128 0x49
 2747 002a 13       		.uleb128 0x13
 2748 002b 00       		.byte	0
 2749 002c 00       		.byte	0
 2750 002d 04       		.uleb128 0x4
 2751 002e 24       		.uleb128 0x24
 2752 002f 00       		.byte	0
 2753 0030 0B       		.uleb128 0xb
 2754 0031 0B       		.uleb128 0xb
 2755 0032 3E       		.uleb128 0x3e
 2756 0033 0B       		.uleb128 0xb
 2757 0034 03       		.uleb128 0x3
 2758 0035 0E       		.uleb128 0xe
 2759 0036 00       		.byte	0
 2760 0037 00       		.byte	0
 2761 0038 05       		.uleb128 0x5
 2762 0039 13       		.uleb128 0x13
 2763 003a 01       		.byte	0x1
 2764 003b 03       		.uleb128 0x3
 2765 003c 0E       		.uleb128 0xe
 2766 003d 0B       		.uleb128 0xb
 2767 003e 0B       		.uleb128 0xb
 2768 003f 3A       		.uleb128 0x3a
 2769 0040 0B       		.uleb128 0xb
 2770 0041 3B       		.uleb128 0x3b
 2771 0042 0B       		.uleb128 0xb
 2772 0043 01       		.uleb128 0x1
ARM GAS  /var/folders/dt/0wfd0knj7gs46m8vwfzktm600000gn/T//cccdOh5l.s 			page 50


 2773 0044 13       		.uleb128 0x13
 2774 0045 00       		.byte	0
 2775 0046 00       		.byte	0
 2776 0047 06       		.uleb128 0x6
 2777 0048 0D       		.uleb128 0xd
 2778 0049 00       		.byte	0
 2779 004a 03       		.uleb128 0x3
 2780 004b 0E       		.uleb128 0xe
 2781 004c 3A       		.uleb128 0x3a
 2782 004d 0B       		.uleb128 0xb
 2783 004e 3B       		.uleb128 0x3b
 2784 004f 0B       		.uleb128 0xb
 2785 0050 49       		.uleb128 0x49
 2786 0051 13       		.uleb128 0x13
 2787 0052 38       		.uleb128 0x38
 2788 0053 0A       		.uleb128 0xa
 2789 0054 00       		.byte	0
 2790 0055 00       		.byte	0
 2791 0056 07       		.uleb128 0x7
 2792 0057 0D       		.uleb128 0xd
 2793 0058 00       		.byte	0
 2794 0059 03       		.uleb128 0x3
 2795 005a 08       		.uleb128 0x8
 2796 005b 3A       		.uleb128 0x3a
 2797 005c 0B       		.uleb128 0xb
 2798 005d 3B       		.uleb128 0x3b
 2799 005e 0B       		.uleb128 0xb
 2800 005f 49       		.uleb128 0x49
 2801 0060 13       		.uleb128 0x13
 2802 0061 38       		.uleb128 0x38
 2803 0062 0A       		.uleb128 0xa
 2804 0063 00       		.byte	0
 2805 0064 00       		.byte	0
 2806 0065 08       		.uleb128 0x8
 2807 0066 13       		.uleb128 0x13
 2808 0067 01       		.byte	0x1
 2809 0068 0B       		.uleb128 0xb
 2810 0069 0B       		.uleb128 0xb
 2811 006a 3A       		.uleb128 0x3a
 2812 006b 0B       		.uleb128 0xb
 2813 006c 3B       		.uleb128 0x3b
 2814 006d 0B       		.uleb128 0xb
 2815 006e 01       		.uleb128 0x1
 2816 006f 13       		.uleb128 0x13
 2817 0070 00       		.byte	0
 2818 0071 00       		.byte	0
 2819 0072 09       		.uleb128 0x9
 2820 0073 0F       		.uleb128 0xf
 2821 0074 00       		.byte	0
 2822 0075 0B       		.uleb128 0xb
 2823 0076 0B       		.uleb128 0xb
 2824 0077 49       		.uleb128 0x49
 2825 0078 13       		.uleb128 0x13
 2826 0079 00       		.byte	0
 2827 007a 00       		.byte	0
 2828 007b 0A       		.uleb128 0xa
 2829 007c 0F       		.uleb128 0xf
ARM GAS  /var/folders/dt/0wfd0knj7gs46m8vwfzktm600000gn/T//cccdOh5l.s 			page 51


 2830 007d 00       		.byte	0
 2831 007e 0B       		.uleb128 0xb
 2832 007f 0B       		.uleb128 0xb
 2833 0080 00       		.byte	0
 2834 0081 00       		.byte	0
 2835 0082 0B       		.uleb128 0xb
 2836 0083 0D       		.uleb128 0xd
 2837 0084 00       		.byte	0
 2838 0085 03       		.uleb128 0x3
 2839 0086 08       		.uleb128 0x8
 2840 0087 3A       		.uleb128 0x3a
 2841 0088 0B       		.uleb128 0xb
 2842 0089 3B       		.uleb128 0x3b
 2843 008a 05       		.uleb128 0x5
 2844 008b 49       		.uleb128 0x49
 2845 008c 13       		.uleb128 0x13
 2846 008d 38       		.uleb128 0x38
 2847 008e 0A       		.uleb128 0xa
 2848 008f 00       		.byte	0
 2849 0090 00       		.byte	0
 2850 0091 0C       		.uleb128 0xc
 2851 0092 13       		.uleb128 0x13
 2852 0093 01       		.byte	0x1
 2853 0094 03       		.uleb128 0x3
 2854 0095 0E       		.uleb128 0xe
 2855 0096 0B       		.uleb128 0xb
 2856 0097 0B       		.uleb128 0xb
 2857 0098 3A       		.uleb128 0x3a
 2858 0099 0B       		.uleb128 0xb
 2859 009a 3B       		.uleb128 0x3b
 2860 009b 05       		.uleb128 0x5
 2861 009c 01       		.uleb128 0x1
 2862 009d 13       		.uleb128 0x13
 2863 009e 00       		.byte	0
 2864 009f 00       		.byte	0
 2865 00a0 0D       		.uleb128 0xd
 2866 00a1 35       		.uleb128 0x35
 2867 00a2 00       		.byte	0
 2868 00a3 49       		.uleb128 0x49
 2869 00a4 13       		.uleb128 0x13
 2870 00a5 00       		.byte	0
 2871 00a6 00       		.byte	0
 2872 00a7 0E       		.uleb128 0xe
 2873 00a8 17       		.uleb128 0x17
 2874 00a9 01       		.byte	0x1
 2875 00aa 0B       		.uleb128 0xb
 2876 00ab 0B       		.uleb128 0xb
 2877 00ac 3A       		.uleb128 0x3a
 2878 00ad 0B       		.uleb128 0xb
 2879 00ae 3B       		.uleb128 0x3b
 2880 00af 0B       		.uleb128 0xb
 2881 00b0 01       		.uleb128 0x1
 2882 00b1 13       		.uleb128 0x13
 2883 00b2 00       		.byte	0
 2884 00b3 00       		.byte	0
 2885 00b4 0F       		.uleb128 0xf
 2886 00b5 0D       		.uleb128 0xd
ARM GAS  /var/folders/dt/0wfd0knj7gs46m8vwfzktm600000gn/T//cccdOh5l.s 			page 52


 2887 00b6 00       		.byte	0
 2888 00b7 03       		.uleb128 0x3
 2889 00b8 0E       		.uleb128 0xe
 2890 00b9 3A       		.uleb128 0x3a
 2891 00ba 0B       		.uleb128 0xb
 2892 00bb 3B       		.uleb128 0x3b
 2893 00bc 0B       		.uleb128 0xb
 2894 00bd 49       		.uleb128 0x49
 2895 00be 13       		.uleb128 0x13
 2896 00bf 00       		.byte	0
 2897 00c0 00       		.byte	0
 2898 00c1 10       		.uleb128 0x10
 2899 00c2 26       		.uleb128 0x26
 2900 00c3 00       		.byte	0
 2901 00c4 49       		.uleb128 0x49
 2902 00c5 13       		.uleb128 0x13
 2903 00c6 00       		.byte	0
 2904 00c7 00       		.byte	0
 2905 00c8 11       		.uleb128 0x11
 2906 00c9 15       		.uleb128 0x15
 2907 00ca 01       		.byte	0x1
 2908 00cb 27       		.uleb128 0x27
 2909 00cc 0C       		.uleb128 0xc
 2910 00cd 01       		.uleb128 0x1
 2911 00ce 13       		.uleb128 0x13
 2912 00cf 00       		.byte	0
 2913 00d0 00       		.byte	0
 2914 00d1 12       		.uleb128 0x12
 2915 00d2 05       		.uleb128 0x5
 2916 00d3 00       		.byte	0
 2917 00d4 49       		.uleb128 0x49
 2918 00d5 13       		.uleb128 0x13
 2919 00d6 00       		.byte	0
 2920 00d7 00       		.byte	0
 2921 00d8 13       		.uleb128 0x13
 2922 00d9 2E       		.uleb128 0x2e
 2923 00da 01       		.byte	0x1
 2924 00db 03       		.uleb128 0x3
 2925 00dc 0E       		.uleb128 0xe
 2926 00dd 3A       		.uleb128 0x3a
 2927 00de 0B       		.uleb128 0xb
 2928 00df 3B       		.uleb128 0x3b
 2929 00e0 0B       		.uleb128 0xb
 2930 00e1 27       		.uleb128 0x27
 2931 00e2 0C       		.uleb128 0xc
 2932 00e3 20       		.uleb128 0x20
 2933 00e4 0B       		.uleb128 0xb
 2934 00e5 01       		.uleb128 0x1
 2935 00e6 13       		.uleb128 0x13
 2936 00e7 00       		.byte	0
 2937 00e8 00       		.byte	0
 2938 00e9 14       		.uleb128 0x14
 2939 00ea 05       		.uleb128 0x5
 2940 00eb 00       		.byte	0
 2941 00ec 03       		.uleb128 0x3
 2942 00ed 08       		.uleb128 0x8
 2943 00ee 3A       		.uleb128 0x3a
ARM GAS  /var/folders/dt/0wfd0knj7gs46m8vwfzktm600000gn/T//cccdOh5l.s 			page 53


 2944 00ef 0B       		.uleb128 0xb
 2945 00f0 3B       		.uleb128 0x3b
 2946 00f1 0B       		.uleb128 0xb
 2947 00f2 49       		.uleb128 0x49
 2948 00f3 13       		.uleb128 0x13
 2949 00f4 00       		.byte	0
 2950 00f5 00       		.byte	0
 2951 00f6 15       		.uleb128 0x15
 2952 00f7 2E       		.uleb128 0x2e
 2953 00f8 01       		.byte	0x1
 2954 00f9 03       		.uleb128 0x3
 2955 00fa 0E       		.uleb128 0xe
 2956 00fb 3A       		.uleb128 0x3a
 2957 00fc 0B       		.uleb128 0xb
 2958 00fd 3B       		.uleb128 0x3b
 2959 00fe 0B       		.uleb128 0xb
 2960 00ff 27       		.uleb128 0x27
 2961 0100 0C       		.uleb128 0xc
 2962 0101 49       		.uleb128 0x49
 2963 0102 13       		.uleb128 0x13
 2964 0103 20       		.uleb128 0x20
 2965 0104 0B       		.uleb128 0xb
 2966 0105 01       		.uleb128 0x1
 2967 0106 13       		.uleb128 0x13
 2968 0107 00       		.byte	0
 2969 0108 00       		.byte	0
 2970 0109 16       		.uleb128 0x16
 2971 010a 34       		.uleb128 0x34
 2972 010b 00       		.byte	0
 2973 010c 03       		.uleb128 0x3
 2974 010d 08       		.uleb128 0x8
 2975 010e 3A       		.uleb128 0x3a
 2976 010f 0B       		.uleb128 0xb
 2977 0110 3B       		.uleb128 0x3b
 2978 0111 0B       		.uleb128 0xb
 2979 0112 49       		.uleb128 0x49
 2980 0113 13       		.uleb128 0x13
 2981 0114 00       		.byte	0
 2982 0115 00       		.byte	0
 2983 0116 17       		.uleb128 0x17
 2984 0117 2E       		.uleb128 0x2e
 2985 0118 01       		.byte	0x1
 2986 0119 03       		.uleb128 0x3
 2987 011a 0E       		.uleb128 0xe
 2988 011b 3A       		.uleb128 0x3a
 2989 011c 0B       		.uleb128 0xb
 2990 011d 3B       		.uleb128 0x3b
 2991 011e 0B       		.uleb128 0xb
 2992 011f 27       		.uleb128 0x27
 2993 0120 0C       		.uleb128 0xc
 2994 0121 49       		.uleb128 0x49
 2995 0122 13       		.uleb128 0x13
 2996 0123 11       		.uleb128 0x11
 2997 0124 01       		.uleb128 0x1
 2998 0125 12       		.uleb128 0x12
 2999 0126 01       		.uleb128 0x1
 3000 0127 40       		.uleb128 0x40
ARM GAS  /var/folders/dt/0wfd0knj7gs46m8vwfzktm600000gn/T//cccdOh5l.s 			page 54


 3001 0128 06       		.uleb128 0x6
 3002 0129 9742     		.uleb128 0x2117
 3003 012b 0C       		.uleb128 0xc
 3004 012c 01       		.uleb128 0x1
 3005 012d 13       		.uleb128 0x13
 3006 012e 00       		.byte	0
 3007 012f 00       		.byte	0
 3008 0130 18       		.uleb128 0x18
 3009 0131 05       		.uleb128 0x5
 3010 0132 00       		.byte	0
 3011 0133 03       		.uleb128 0x3
 3012 0134 08       		.uleb128 0x8
 3013 0135 3A       		.uleb128 0x3a
 3014 0136 0B       		.uleb128 0xb
 3015 0137 3B       		.uleb128 0x3b
 3016 0138 0B       		.uleb128 0xb
 3017 0139 49       		.uleb128 0x49
 3018 013a 13       		.uleb128 0x13
 3019 013b 02       		.uleb128 0x2
 3020 013c 06       		.uleb128 0x6
 3021 013d 00       		.byte	0
 3022 013e 00       		.byte	0
 3023 013f 19       		.uleb128 0x19
 3024 0140 05       		.uleb128 0x5
 3025 0141 00       		.byte	0
 3026 0142 03       		.uleb128 0x3
 3027 0143 0E       		.uleb128 0xe
 3028 0144 3A       		.uleb128 0x3a
 3029 0145 0B       		.uleb128 0xb
 3030 0146 3B       		.uleb128 0x3b
 3031 0147 0B       		.uleb128 0xb
 3032 0148 49       		.uleb128 0x49
 3033 0149 13       		.uleb128 0x13
 3034 014a 02       		.uleb128 0x2
 3035 014b 06       		.uleb128 0x6
 3036 014c 00       		.byte	0
 3037 014d 00       		.byte	0
 3038 014e 1A       		.uleb128 0x1a
 3039 014f 1D       		.uleb128 0x1d
 3040 0150 01       		.byte	0x1
 3041 0151 31       		.uleb128 0x31
 3042 0152 13       		.uleb128 0x13
 3043 0153 11       		.uleb128 0x11
 3044 0154 01       		.uleb128 0x1
 3045 0155 12       		.uleb128 0x12
 3046 0156 01       		.uleb128 0x1
 3047 0157 58       		.uleb128 0x58
 3048 0158 0B       		.uleb128 0xb
 3049 0159 59       		.uleb128 0x59
 3050 015a 0B       		.uleb128 0xb
 3051 015b 01       		.uleb128 0x1
 3052 015c 13       		.uleb128 0x13
 3053 015d 00       		.byte	0
 3054 015e 00       		.byte	0
 3055 015f 1B       		.uleb128 0x1b
 3056 0160 05       		.uleb128 0x5
 3057 0161 00       		.byte	0
ARM GAS  /var/folders/dt/0wfd0knj7gs46m8vwfzktm600000gn/T//cccdOh5l.s 			page 55


 3058 0162 31       		.uleb128 0x31
 3059 0163 13       		.uleb128 0x13
 3060 0164 02       		.uleb128 0x2
 3061 0165 06       		.uleb128 0x6
 3062 0166 00       		.byte	0
 3063 0167 00       		.byte	0
 3064 0168 1C       		.uleb128 0x1c
 3065 0169 898201   		.uleb128 0x4109
 3066 016c 01       		.byte	0x1
 3067 016d 11       		.uleb128 0x11
 3068 016e 01       		.uleb128 0x1
 3069 016f 9542     		.uleb128 0x2115
 3070 0171 0C       		.uleb128 0xc
 3071 0172 31       		.uleb128 0x31
 3072 0173 13       		.uleb128 0x13
 3073 0174 00       		.byte	0
 3074 0175 00       		.byte	0
 3075 0176 1D       		.uleb128 0x1d
 3076 0177 8A8201   		.uleb128 0x410a
 3077 017a 00       		.byte	0
 3078 017b 02       		.uleb128 0x2
 3079 017c 0A       		.uleb128 0xa
 3080 017d 9142     		.uleb128 0x2111
 3081 017f 0A       		.uleb128 0xa
 3082 0180 00       		.byte	0
 3083 0181 00       		.byte	0
 3084 0182 1E       		.uleb128 0x1e
 3085 0183 2E       		.uleb128 0x2e
 3086 0184 01       		.byte	0x1
 3087 0185 3F       		.uleb128 0x3f
 3088 0186 0C       		.uleb128 0xc
 3089 0187 03       		.uleb128 0x3
 3090 0188 0E       		.uleb128 0xe
 3091 0189 3A       		.uleb128 0x3a
 3092 018a 0B       		.uleb128 0xb
 3093 018b 3B       		.uleb128 0x3b
 3094 018c 0B       		.uleb128 0xb
 3095 018d 27       		.uleb128 0x27
 3096 018e 0C       		.uleb128 0xc
 3097 018f 11       		.uleb128 0x11
 3098 0190 01       		.uleb128 0x1
 3099 0191 12       		.uleb128 0x12
 3100 0192 01       		.uleb128 0x1
 3101 0193 40       		.uleb128 0x40
 3102 0194 06       		.uleb128 0x6
 3103 0195 9742     		.uleb128 0x2117
 3104 0197 0C       		.uleb128 0xc
 3105 0198 01       		.uleb128 0x1
 3106 0199 13       		.uleb128 0x13
 3107 019a 00       		.byte	0
 3108 019b 00       		.byte	0
 3109 019c 1F       		.uleb128 0x1f
 3110 019d 05       		.uleb128 0x5
 3111 019e 00       		.byte	0
 3112 019f 03       		.uleb128 0x3
 3113 01a0 08       		.uleb128 0x8
 3114 01a1 3A       		.uleb128 0x3a
ARM GAS  /var/folders/dt/0wfd0knj7gs46m8vwfzktm600000gn/T//cccdOh5l.s 			page 56


 3115 01a2 0B       		.uleb128 0xb
 3116 01a3 3B       		.uleb128 0x3b
 3117 01a4 0B       		.uleb128 0xb
 3118 01a5 49       		.uleb128 0x49
 3119 01a6 13       		.uleb128 0x13
 3120 01a7 02       		.uleb128 0x2
 3121 01a8 0A       		.uleb128 0xa
 3122 01a9 00       		.byte	0
 3123 01aa 00       		.byte	0
 3124 01ab 20       		.uleb128 0x20
 3125 01ac 05       		.uleb128 0x5
 3126 01ad 00       		.byte	0
 3127 01ae 03       		.uleb128 0x3
 3128 01af 0E       		.uleb128 0xe
 3129 01b0 3A       		.uleb128 0x3a
 3130 01b1 0B       		.uleb128 0xb
 3131 01b2 3B       		.uleb128 0x3b
 3132 01b3 0B       		.uleb128 0xb
 3133 01b4 49       		.uleb128 0x49
 3134 01b5 13       		.uleb128 0x13
 3135 01b6 02       		.uleb128 0x2
 3136 01b7 0A       		.uleb128 0xa
 3137 01b8 00       		.byte	0
 3138 01b9 00       		.byte	0
 3139 01ba 21       		.uleb128 0x21
 3140 01bb 0B       		.uleb128 0xb
 3141 01bc 01       		.byte	0x1
 3142 01bd 11       		.uleb128 0x11
 3143 01be 01       		.uleb128 0x1
 3144 01bf 12       		.uleb128 0x12
 3145 01c0 01       		.uleb128 0x1
 3146 01c1 00       		.byte	0
 3147 01c2 00       		.byte	0
 3148 01c3 22       		.uleb128 0x22
 3149 01c4 34       		.uleb128 0x34
 3150 01c5 00       		.byte	0
 3151 01c6 31       		.uleb128 0x31
 3152 01c7 13       		.uleb128 0x13
 3153 01c8 02       		.uleb128 0x2
 3154 01c9 06       		.uleb128 0x6
 3155 01ca 00       		.byte	0
 3156 01cb 00       		.byte	0
 3157 01cc 23       		.uleb128 0x23
 3158 01cd 898201   		.uleb128 0x4109
 3159 01d0 00       		.byte	0
 3160 01d1 11       		.uleb128 0x11
 3161 01d2 01       		.uleb128 0x1
 3162 01d3 31       		.uleb128 0x31
 3163 01d4 13       		.uleb128 0x13
 3164 01d5 00       		.byte	0
 3165 01d6 00       		.byte	0
 3166 01d7 24       		.uleb128 0x24
 3167 01d8 2E       		.uleb128 0x2e
 3168 01d9 01       		.byte	0x1
 3169 01da 3F       		.uleb128 0x3f
 3170 01db 0C       		.uleb128 0xc
 3171 01dc 03       		.uleb128 0x3
ARM GAS  /var/folders/dt/0wfd0knj7gs46m8vwfzktm600000gn/T//cccdOh5l.s 			page 57


 3172 01dd 0E       		.uleb128 0xe
 3173 01de 3A       		.uleb128 0x3a
 3174 01df 0B       		.uleb128 0xb
 3175 01e0 3B       		.uleb128 0x3b
 3176 01e1 0B       		.uleb128 0xb
 3177 01e2 27       		.uleb128 0x27
 3178 01e3 0C       		.uleb128 0xc
 3179 01e4 49       		.uleb128 0x49
 3180 01e5 13       		.uleb128 0x13
 3181 01e6 11       		.uleb128 0x11
 3182 01e7 01       		.uleb128 0x1
 3183 01e8 12       		.uleb128 0x12
 3184 01e9 01       		.uleb128 0x1
 3185 01ea 40       		.uleb128 0x40
 3186 01eb 06       		.uleb128 0x6
 3187 01ec 9742     		.uleb128 0x2117
 3188 01ee 0C       		.uleb128 0xc
 3189 01ef 01       		.uleb128 0x1
 3190 01f0 13       		.uleb128 0x13
 3191 01f1 00       		.byte	0
 3192 01f2 00       		.byte	0
 3193 01f3 25       		.uleb128 0x25
 3194 01f4 34       		.uleb128 0x34
 3195 01f5 00       		.byte	0
 3196 01f6 03       		.uleb128 0x3
 3197 01f7 08       		.uleb128 0x8
 3198 01f8 3A       		.uleb128 0x3a
 3199 01f9 0B       		.uleb128 0xb
 3200 01fa 3B       		.uleb128 0x3b
 3201 01fb 0B       		.uleb128 0xb
 3202 01fc 49       		.uleb128 0x49
 3203 01fd 13       		.uleb128 0x13
 3204 01fe 02       		.uleb128 0x2
 3205 01ff 06       		.uleb128 0x6
 3206 0200 00       		.byte	0
 3207 0201 00       		.byte	0
 3208 0202 26       		.uleb128 0x26
 3209 0203 0B       		.uleb128 0xb
 3210 0204 01       		.byte	0x1
 3211 0205 11       		.uleb128 0x11
 3212 0206 01       		.uleb128 0x1
 3213 0207 12       		.uleb128 0x12
 3214 0208 01       		.uleb128 0x1
 3215 0209 01       		.uleb128 0x1
 3216 020a 13       		.uleb128 0x13
 3217 020b 00       		.byte	0
 3218 020c 00       		.byte	0
 3219 020d 27       		.uleb128 0x27
 3220 020e 0B       		.uleb128 0xb
 3221 020f 01       		.byte	0x1
 3222 0210 55       		.uleb128 0x55
 3223 0211 06       		.uleb128 0x6
 3224 0212 01       		.uleb128 0x1
 3225 0213 13       		.uleb128 0x13
 3226 0214 00       		.byte	0
 3227 0215 00       		.byte	0
 3228 0216 28       		.uleb128 0x28
ARM GAS  /var/folders/dt/0wfd0knj7gs46m8vwfzktm600000gn/T//cccdOh5l.s 			page 58


 3229 0217 898201   		.uleb128 0x4109
 3230 021a 01       		.byte	0x1
 3231 021b 11       		.uleb128 0x11
 3232 021c 01       		.uleb128 0x1
 3233 021d 31       		.uleb128 0x31
 3234 021e 13       		.uleb128 0x13
 3235 021f 01       		.uleb128 0x1
 3236 0220 13       		.uleb128 0x13
 3237 0221 00       		.byte	0
 3238 0222 00       		.byte	0
 3239 0223 29       		.uleb128 0x29
 3240 0224 898201   		.uleb128 0x4109
 3241 0227 01       		.byte	0x1
 3242 0228 11       		.uleb128 0x11
 3243 0229 01       		.uleb128 0x1
 3244 022a 01       		.uleb128 0x1
 3245 022b 13       		.uleb128 0x13
 3246 022c 00       		.byte	0
 3247 022d 00       		.byte	0
 3248 022e 2A       		.uleb128 0x2a
 3249 022f 34       		.uleb128 0x34
 3250 0230 00       		.byte	0
 3251 0231 03       		.uleb128 0x3
 3252 0232 08       		.uleb128 0x8
 3253 0233 3A       		.uleb128 0x3a
 3254 0234 0B       		.uleb128 0xb
 3255 0235 3B       		.uleb128 0x3b
 3256 0236 0B       		.uleb128 0xb
 3257 0237 49       		.uleb128 0x49
 3258 0238 13       		.uleb128 0x13
 3259 0239 02       		.uleb128 0x2
 3260 023a 0A       		.uleb128 0xa
 3261 023b 00       		.byte	0
 3262 023c 00       		.byte	0
 3263 023d 2B       		.uleb128 0x2b
 3264 023e 898201   		.uleb128 0x4109
 3265 0241 01       		.byte	0x1
 3266 0242 11       		.uleb128 0x11
 3267 0243 01       		.uleb128 0x1
 3268 0244 31       		.uleb128 0x31
 3269 0245 13       		.uleb128 0x13
 3270 0246 00       		.byte	0
 3271 0247 00       		.byte	0
 3272 0248 2C       		.uleb128 0x2c
 3273 0249 2E       		.uleb128 0x2e
 3274 024a 01       		.byte	0x1
 3275 024b 3F       		.uleb128 0x3f
 3276 024c 0C       		.uleb128 0xc
 3277 024d 03       		.uleb128 0x3
 3278 024e 0E       		.uleb128 0xe
 3279 024f 3A       		.uleb128 0x3a
 3280 0250 0B       		.uleb128 0xb
 3281 0251 3B       		.uleb128 0x3b
 3282 0252 05       		.uleb128 0x5
 3283 0253 27       		.uleb128 0x27
 3284 0254 0C       		.uleb128 0xc
 3285 0255 11       		.uleb128 0x11
ARM GAS  /var/folders/dt/0wfd0knj7gs46m8vwfzktm600000gn/T//cccdOh5l.s 			page 59


 3286 0256 01       		.uleb128 0x1
 3287 0257 12       		.uleb128 0x12
 3288 0258 01       		.uleb128 0x1
 3289 0259 40       		.uleb128 0x40
 3290 025a 06       		.uleb128 0x6
 3291 025b 9742     		.uleb128 0x2117
 3292 025d 0C       		.uleb128 0xc
 3293 025e 01       		.uleb128 0x1
 3294 025f 13       		.uleb128 0x13
 3295 0260 00       		.byte	0
 3296 0261 00       		.byte	0
 3297 0262 2D       		.uleb128 0x2d
 3298 0263 05       		.uleb128 0x5
 3299 0264 00       		.byte	0
 3300 0265 03       		.uleb128 0x3
 3301 0266 08       		.uleb128 0x8
 3302 0267 3A       		.uleb128 0x3a
 3303 0268 0B       		.uleb128 0xb
 3304 0269 3B       		.uleb128 0x3b
 3305 026a 05       		.uleb128 0x5
 3306 026b 49       		.uleb128 0x49
 3307 026c 13       		.uleb128 0x13
 3308 026d 02       		.uleb128 0x2
 3309 026e 0A       		.uleb128 0xa
 3310 026f 00       		.byte	0
 3311 0270 00       		.byte	0
 3312 0271 2E       		.uleb128 0x2e
 3313 0272 05       		.uleb128 0x5
 3314 0273 00       		.byte	0
 3315 0274 03       		.uleb128 0x3
 3316 0275 0E       		.uleb128 0xe
 3317 0276 3A       		.uleb128 0x3a
 3318 0277 0B       		.uleb128 0xb
 3319 0278 3B       		.uleb128 0x3b
 3320 0279 05       		.uleb128 0x5
 3321 027a 49       		.uleb128 0x49
 3322 027b 13       		.uleb128 0x13
 3323 027c 02       		.uleb128 0x2
 3324 027d 0A       		.uleb128 0xa
 3325 027e 00       		.byte	0
 3326 027f 00       		.byte	0
 3327 0280 2F       		.uleb128 0x2f
 3328 0281 05       		.uleb128 0x5
 3329 0282 00       		.byte	0
 3330 0283 03       		.uleb128 0x3
 3331 0284 08       		.uleb128 0x8
 3332 0285 3A       		.uleb128 0x3a
 3333 0286 0B       		.uleb128 0xb
 3334 0287 3B       		.uleb128 0x3b
 3335 0288 05       		.uleb128 0x5
 3336 0289 49       		.uleb128 0x49
 3337 028a 13       		.uleb128 0x13
 3338 028b 02       		.uleb128 0x2
 3339 028c 06       		.uleb128 0x6
 3340 028d 00       		.byte	0
 3341 028e 00       		.byte	0
 3342 028f 30       		.uleb128 0x30
ARM GAS  /var/folders/dt/0wfd0knj7gs46m8vwfzktm600000gn/T//cccdOh5l.s 			page 60


 3343 0290 1D       		.uleb128 0x1d
 3344 0291 01       		.byte	0x1
 3345 0292 31       		.uleb128 0x31
 3346 0293 13       		.uleb128 0x13
 3347 0294 11       		.uleb128 0x11
 3348 0295 01       		.uleb128 0x1
 3349 0296 12       		.uleb128 0x12
 3350 0297 01       		.uleb128 0x1
 3351 0298 58       		.uleb128 0x58
 3352 0299 0B       		.uleb128 0xb
 3353 029a 59       		.uleb128 0x59
 3354 029b 05       		.uleb128 0x5
 3355 029c 01       		.uleb128 0x1
 3356 029d 13       		.uleb128 0x13
 3357 029e 00       		.byte	0
 3358 029f 00       		.byte	0
 3359 02a0 31       		.uleb128 0x31
 3360 02a1 2E       		.uleb128 0x2e
 3361 02a2 01       		.byte	0x1
 3362 02a3 3F       		.uleb128 0x3f
 3363 02a4 0C       		.uleb128 0xc
 3364 02a5 03       		.uleb128 0x3
 3365 02a6 0E       		.uleb128 0xe
 3366 02a7 3A       		.uleb128 0x3a
 3367 02a8 0B       		.uleb128 0xb
 3368 02a9 3B       		.uleb128 0x3b
 3369 02aa 05       		.uleb128 0x5
 3370 02ab 27       		.uleb128 0x27
 3371 02ac 0C       		.uleb128 0xc
 3372 02ad 49       		.uleb128 0x49
 3373 02ae 13       		.uleb128 0x13
 3374 02af 11       		.uleb128 0x11
 3375 02b0 01       		.uleb128 0x1
 3376 02b1 12       		.uleb128 0x12
 3377 02b2 01       		.uleb128 0x1
 3378 02b3 40       		.uleb128 0x40
 3379 02b4 06       		.uleb128 0x6
 3380 02b5 9742     		.uleb128 0x2117
 3381 02b7 0C       		.uleb128 0xc
 3382 02b8 01       		.uleb128 0x1
 3383 02b9 13       		.uleb128 0x13
 3384 02ba 00       		.byte	0
 3385 02bb 00       		.byte	0
 3386 02bc 32       		.uleb128 0x32
 3387 02bd 05       		.uleb128 0x5
 3388 02be 00       		.byte	0
 3389 02bf 03       		.uleb128 0x3
 3390 02c0 0E       		.uleb128 0xe
 3391 02c1 3A       		.uleb128 0x3a
 3392 02c2 0B       		.uleb128 0xb
 3393 02c3 3B       		.uleb128 0x3b
 3394 02c4 05       		.uleb128 0x5
 3395 02c5 49       		.uleb128 0x49
 3396 02c6 13       		.uleb128 0x13
 3397 02c7 02       		.uleb128 0x2
 3398 02c8 06       		.uleb128 0x6
 3399 02c9 00       		.byte	0
ARM GAS  /var/folders/dt/0wfd0knj7gs46m8vwfzktm600000gn/T//cccdOh5l.s 			page 61


 3400 02ca 00       		.byte	0
 3401 02cb 33       		.uleb128 0x33
 3402 02cc 34       		.uleb128 0x34
 3403 02cd 00       		.byte	0
 3404 02ce 03       		.uleb128 0x3
 3405 02cf 08       		.uleb128 0x8
 3406 02d0 3A       		.uleb128 0x3a
 3407 02d1 0B       		.uleb128 0xb
 3408 02d2 3B       		.uleb128 0x3b
 3409 02d3 05       		.uleb128 0x5
 3410 02d4 49       		.uleb128 0x49
 3411 02d5 13       		.uleb128 0x13
 3412 02d6 02       		.uleb128 0x2
 3413 02d7 06       		.uleb128 0x6
 3414 02d8 00       		.byte	0
 3415 02d9 00       		.byte	0
 3416 02da 34       		.uleb128 0x34
 3417 02db 2E       		.uleb128 0x2e
 3418 02dc 01       		.byte	0x1
 3419 02dd 3F       		.uleb128 0x3f
 3420 02de 0C       		.uleb128 0xc
 3421 02df 03       		.uleb128 0x3
 3422 02e0 0E       		.uleb128 0xe
 3423 02e1 3A       		.uleb128 0x3a
 3424 02e2 0B       		.uleb128 0xb
 3425 02e3 3B       		.uleb128 0x3b
 3426 02e4 05       		.uleb128 0x5
 3427 02e5 27       		.uleb128 0x27
 3428 02e6 0C       		.uleb128 0xc
 3429 02e7 49       		.uleb128 0x49
 3430 02e8 13       		.uleb128 0x13
 3431 02e9 11       		.uleb128 0x11
 3432 02ea 01       		.uleb128 0x1
 3433 02eb 12       		.uleb128 0x12
 3434 02ec 01       		.uleb128 0x1
 3435 02ed 40       		.uleb128 0x40
 3436 02ee 06       		.uleb128 0x6
 3437 02ef 9642     		.uleb128 0x2116
 3438 02f1 0C       		.uleb128 0xc
 3439 02f2 01       		.uleb128 0x1
 3440 02f3 13       		.uleb128 0x13
 3441 02f4 00       		.byte	0
 3442 02f5 00       		.byte	0
 3443 02f6 35       		.uleb128 0x35
 3444 02f7 34       		.uleb128 0x34
 3445 02f8 00       		.byte	0
 3446 02f9 03       		.uleb128 0x3
 3447 02fa 08       		.uleb128 0x8
 3448 02fb 3A       		.uleb128 0x3a
 3449 02fc 0B       		.uleb128 0xb
 3450 02fd 3B       		.uleb128 0x3b
 3451 02fe 05       		.uleb128 0x5
 3452 02ff 49       		.uleb128 0x49
 3453 0300 13       		.uleb128 0x13
 3454 0301 02       		.uleb128 0x2
 3455 0302 0A       		.uleb128 0xa
 3456 0303 00       		.byte	0
ARM GAS  /var/folders/dt/0wfd0knj7gs46m8vwfzktm600000gn/T//cccdOh5l.s 			page 62


 3457 0304 00       		.byte	0
 3458 0305 36       		.uleb128 0x36
 3459 0306 34       		.uleb128 0x34
 3460 0307 00       		.byte	0
 3461 0308 03       		.uleb128 0x3
 3462 0309 0E       		.uleb128 0xe
 3463 030a 3A       		.uleb128 0x3a
 3464 030b 0B       		.uleb128 0xb
 3465 030c 3B       		.uleb128 0x3b
 3466 030d 0B       		.uleb128 0xb
 3467 030e 49       		.uleb128 0x49
 3468 030f 13       		.uleb128 0x13
 3469 0310 3F       		.uleb128 0x3f
 3470 0311 0C       		.uleb128 0xc
 3471 0312 3C       		.uleb128 0x3c
 3472 0313 0C       		.uleb128 0xc
 3473 0314 00       		.byte	0
 3474 0315 00       		.byte	0
 3475 0316 37       		.uleb128 0x37
 3476 0317 2E       		.uleb128 0x2e
 3477 0318 01       		.byte	0x1
 3478 0319 3F       		.uleb128 0x3f
 3479 031a 0C       		.uleb128 0xc
 3480 031b 03       		.uleb128 0x3
 3481 031c 0E       		.uleb128 0xe
 3482 031d 3A       		.uleb128 0x3a
 3483 031e 0B       		.uleb128 0xb
 3484 031f 3B       		.uleb128 0x3b
 3485 0320 0B       		.uleb128 0xb
 3486 0321 27       		.uleb128 0x27
 3487 0322 0C       		.uleb128 0xc
 3488 0323 49       		.uleb128 0x49
 3489 0324 13       		.uleb128 0x13
 3490 0325 3C       		.uleb128 0x3c
 3491 0326 0C       		.uleb128 0xc
 3492 0327 01       		.uleb128 0x1
 3493 0328 13       		.uleb128 0x13
 3494 0329 00       		.byte	0
 3495 032a 00       		.byte	0
 3496 032b 38       		.uleb128 0x38
 3497 032c 2E       		.uleb128 0x2e
 3498 032d 00       		.byte	0
 3499 032e 3F       		.uleb128 0x3f
 3500 032f 0C       		.uleb128 0xc
 3501 0330 03       		.uleb128 0x3
 3502 0331 0E       		.uleb128 0xe
 3503 0332 3A       		.uleb128 0x3a
 3504 0333 0B       		.uleb128 0xb
 3505 0334 3B       		.uleb128 0x3b
 3506 0335 0B       		.uleb128 0xb
 3507 0336 27       		.uleb128 0x27
 3508 0337 0C       		.uleb128 0xc
 3509 0338 3C       		.uleb128 0x3c
 3510 0339 0C       		.uleb128 0xc
 3511 033a 00       		.byte	0
 3512 033b 00       		.byte	0
 3513 033c 39       		.uleb128 0x39
ARM GAS  /var/folders/dt/0wfd0knj7gs46m8vwfzktm600000gn/T//cccdOh5l.s 			page 63


 3514 033d 2E       		.uleb128 0x2e
 3515 033e 01       		.byte	0x1
 3516 033f 3F       		.uleb128 0x3f
 3517 0340 0C       		.uleb128 0xc
 3518 0341 03       		.uleb128 0x3
 3519 0342 0E       		.uleb128 0xe
 3520 0343 3A       		.uleb128 0x3a
 3521 0344 0B       		.uleb128 0xb
 3522 0345 3B       		.uleb128 0x3b
 3523 0346 0B       		.uleb128 0xb
 3524 0347 27       		.uleb128 0x27
 3525 0348 0C       		.uleb128 0xc
 3526 0349 3C       		.uleb128 0x3c
 3527 034a 0C       		.uleb128 0xc
 3528 034b 01       		.uleb128 0x1
 3529 034c 13       		.uleb128 0x13
 3530 034d 00       		.byte	0
 3531 034e 00       		.byte	0
 3532 034f 00       		.byte	0
 3533              		.section	.debug_loc,"",%progbits
 3534              	.Ldebug_loc0:
 3535              	.LLST0:
 3536 0000 00000000 		.4byte	.LFB7
 3537 0004 02000000 		.4byte	.LCFI0
 3538 0008 0200     		.2byte	0x2
 3539 000a 7D       		.byte	0x7d
 3540 000b 00       		.sleb128 0
 3541 000c 02000000 		.4byte	.LCFI0
 3542 0010 2C000000 		.4byte	.LFE7
 3543 0014 0200     		.2byte	0x2
 3544 0016 7D       		.byte	0x7d
 3545 0017 04       		.sleb128 4
 3546 0018 00000000 		.4byte	0
 3547 001c 00000000 		.4byte	0
 3548              	.LLST1:
 3549 0020 00000000 		.4byte	.LVL0
 3550 0024 0A000000 		.4byte	.LVL1
 3551 0028 0100     		.2byte	0x1
 3552 002a 50       		.byte	0x50
 3553 002b 0A000000 		.4byte	.LVL1
 3554 002f 1D000000 		.4byte	.LVL3-1
 3555 0033 0100     		.2byte	0x1
 3556 0035 52       		.byte	0x52
 3557 0036 1D000000 		.4byte	.LVL3-1
 3558 003a 1E000000 		.4byte	.LVL3
 3559 003e 0400     		.2byte	0x4
 3560 0040 F3       		.byte	0xf3
 3561 0041 01       		.uleb128 0x1
 3562 0042 50       		.byte	0x50
 3563 0043 9F       		.byte	0x9f
 3564 0044 1E000000 		.4byte	.LVL3
 3565 0048 22000000 		.4byte	.LVL4
 3566 004c 0100     		.2byte	0x1
 3567 004e 50       		.byte	0x50
 3568 004f 22000000 		.4byte	.LVL4
 3569 0053 2C000000 		.4byte	.LFE7
 3570 0057 0100     		.2byte	0x1
ARM GAS  /var/folders/dt/0wfd0knj7gs46m8vwfzktm600000gn/T//cccdOh5l.s 			page 64


 3571 0059 52       		.byte	0x52
 3572 005a 00000000 		.4byte	0
 3573 005e 00000000 		.4byte	0
 3574              	.LLST2:
 3575 0062 00000000 		.4byte	.LVL0
 3576 0066 1D000000 		.4byte	.LVL3-1
 3577 006a 0100     		.2byte	0x1
 3578 006c 51       		.byte	0x51
 3579 006d 1D000000 		.4byte	.LVL3-1
 3580 0071 1E000000 		.4byte	.LVL3
 3581 0075 0400     		.2byte	0x4
 3582 0077 F3       		.byte	0xf3
 3583 0078 01       		.uleb128 0x1
 3584 0079 51       		.byte	0x51
 3585 007a 9F       		.byte	0x9f
 3586 007b 1E000000 		.4byte	.LVL3
 3587 007f 2C000000 		.4byte	.LFE7
 3588 0083 0100     		.2byte	0x1
 3589 0085 51       		.byte	0x51
 3590 0086 00000000 		.4byte	0
 3591 008a 00000000 		.4byte	0
 3592              	.LLST3:
 3593 008e 0E000000 		.4byte	.LVL2
 3594 0092 1D000000 		.4byte	.LVL3-1
 3595 0096 0100     		.2byte	0x1
 3596 0098 52       		.byte	0x52
 3597 0099 1D000000 		.4byte	.LVL3-1
 3598 009d 1E000000 		.4byte	.LVL3
 3599 00a1 0400     		.2byte	0x4
 3600 00a3 F3       		.byte	0xf3
 3601 00a4 01       		.uleb128 0x1
 3602 00a5 50       		.byte	0x50
 3603 00a6 9F       		.byte	0x9f
 3604 00a7 00000000 		.4byte	0
 3605 00ab 00000000 		.4byte	0
 3606              	.LLST4:
 3607 00af 0E000000 		.4byte	.LVL2
 3608 00b3 1D000000 		.4byte	.LVL3-1
 3609 00b7 0100     		.2byte	0x1
 3610 00b9 53       		.byte	0x53
 3611 00ba 00000000 		.4byte	0
 3612 00be 00000000 		.4byte	0
 3613              	.LLST5:
 3614 00c2 00000000 		.4byte	.LFB8
 3615 00c6 02000000 		.4byte	.LCFI1
 3616 00ca 0200     		.2byte	0x2
 3617 00cc 7D       		.byte	0x7d
 3618 00cd 00       		.sleb128 0
 3619 00ce 02000000 		.4byte	.LCFI1
 3620 00d2 1A000000 		.4byte	.LFE8
 3621 00d6 0200     		.2byte	0x2
 3622 00d8 7D       		.byte	0x7d
 3623 00d9 04       		.sleb128 4
 3624 00da 00000000 		.4byte	0
 3625 00de 00000000 		.4byte	0
 3626              	.LLST6:
 3627 00e2 00000000 		.4byte	.LVL5
ARM GAS  /var/folders/dt/0wfd0knj7gs46m8vwfzktm600000gn/T//cccdOh5l.s 			page 65


 3628 00e6 04000000 		.4byte	.LVL6
 3629 00ea 0100     		.2byte	0x1
 3630 00ec 52       		.byte	0x52
 3631 00ed 04000000 		.4byte	.LVL6
 3632 00f1 1A000000 		.4byte	.LFE8
 3633 00f5 0400     		.2byte	0x4
 3634 00f7 F3       		.byte	0xf3
 3635 00f8 01       		.uleb128 0x1
 3636 00f9 52       		.byte	0x52
 3637 00fa 9F       		.byte	0x9f
 3638 00fb 00000000 		.4byte	0
 3639 00ff 00000000 		.4byte	0
 3640              	.LLST7:
 3641 0103 00000000 		.4byte	.LFB9
 3642 0107 02000000 		.4byte	.LCFI2
 3643 010b 0200     		.2byte	0x2
 3644 010d 7D       		.byte	0x7d
 3645 010e 00       		.sleb128 0
 3646 010f 02000000 		.4byte	.LCFI2
 3647 0113 30000000 		.4byte	.LFE9
 3648 0117 0200     		.2byte	0x2
 3649 0119 7D       		.byte	0x7d
 3650 011a 10       		.sleb128 16
 3651 011b 00000000 		.4byte	0
 3652 011f 00000000 		.4byte	0
 3653              	.LLST8:
 3654 0123 00000000 		.4byte	.LVL7
 3655 0127 07000000 		.4byte	.LVL8-1
 3656 012b 0100     		.2byte	0x1
 3657 012d 50       		.byte	0x50
 3658 012e 07000000 		.4byte	.LVL8-1
 3659 0132 30000000 		.4byte	.LFE9
 3660 0136 0100     		.2byte	0x1
 3661 0138 54       		.byte	0x54
 3662 0139 00000000 		.4byte	0
 3663 013d 00000000 		.4byte	0
 3664              	.LLST9:
 3665 0141 1C000000 		.4byte	.LVL9
 3666 0145 2E000000 		.4byte	.LVL11
 3667 0149 0100     		.2byte	0x1
 3668 014b 54       		.byte	0x54
 3669 014c 00000000 		.4byte	0
 3670 0150 00000000 		.4byte	0
 3671              	.LLST10:
 3672 0154 1C000000 		.4byte	.LVL9
 3673 0158 25000000 		.4byte	.LVL10-1
 3674 015c 0100     		.2byte	0x1
 3675 015e 50       		.byte	0x50
 3676 015f 00000000 		.4byte	0
 3677 0163 00000000 		.4byte	0
 3678              	.LLST11:
 3679 0167 00000000 		.4byte	.LFB10
 3680 016b 02000000 		.4byte	.LCFI3
 3681 016f 0200     		.2byte	0x2
 3682 0171 7D       		.byte	0x7d
 3683 0172 00       		.sleb128 0
 3684 0173 02000000 		.4byte	.LCFI3
ARM GAS  /var/folders/dt/0wfd0knj7gs46m8vwfzktm600000gn/T//cccdOh5l.s 			page 66


 3685 0177 50000000 		.4byte	.LFE10
 3686 017b 0200     		.2byte	0x2
 3687 017d 7D       		.byte	0x7d
 3688 017e 10       		.sleb128 16
 3689 017f 00000000 		.4byte	0
 3690 0183 00000000 		.4byte	0
 3691              	.LLST12:
 3692 0187 00000000 		.4byte	.LVL12
 3693 018b 09000000 		.4byte	.LVL13-1
 3694 018f 0100     		.2byte	0x1
 3695 0191 50       		.byte	0x50
 3696 0192 09000000 		.4byte	.LVL13-1
 3697 0196 50000000 		.4byte	.LFE10
 3698 019a 0100     		.2byte	0x1
 3699 019c 54       		.byte	0x54
 3700 019d 00000000 		.4byte	0
 3701 01a1 00000000 		.4byte	0
 3702              	.LLST13:
 3703 01a5 00000000 		.4byte	.LVL12
 3704 01a9 09000000 		.4byte	.LVL13-1
 3705 01ad 0100     		.2byte	0x1
 3706 01af 51       		.byte	0x51
 3707 01b0 09000000 		.4byte	.LVL13-1
 3708 01b4 50000000 		.4byte	.LFE10
 3709 01b8 0400     		.2byte	0x4
 3710 01ba F3       		.byte	0xf3
 3711 01bb 01       		.uleb128 0x1
 3712 01bc 51       		.byte	0x51
 3713 01bd 9F       		.byte	0x9f
 3714 01be 00000000 		.4byte	0
 3715 01c2 00000000 		.4byte	0
 3716              	.LLST14:
 3717 01c6 30000000 		.4byte	.LVL14
 3718 01ca 42000000 		.4byte	.LVL16
 3719 01ce 0100     		.2byte	0x1
 3720 01d0 54       		.byte	0x54
 3721 01d1 00000000 		.4byte	0
 3722 01d5 00000000 		.4byte	0
 3723              	.LLST15:
 3724 01d9 30000000 		.4byte	.LVL14
 3725 01dd 39000000 		.4byte	.LVL15-1
 3726 01e1 0100     		.2byte	0x1
 3727 01e3 50       		.byte	0x50
 3728 01e4 00000000 		.4byte	0
 3729 01e8 00000000 		.4byte	0
 3730              	.LLST16:
 3731 01ec 00000000 		.4byte	.LFB11
 3732 01f0 02000000 		.4byte	.LCFI4
 3733 01f4 0200     		.2byte	0x2
 3734 01f6 7D       		.byte	0x7d
 3735 01f7 00       		.sleb128 0
 3736 01f8 02000000 		.4byte	.LCFI4
 3737 01fc 5A000000 		.4byte	.LFE11
 3738 0200 0200     		.2byte	0x2
 3739 0202 7D       		.byte	0x7d
 3740 0203 18       		.sleb128 24
 3741 0204 00000000 		.4byte	0
ARM GAS  /var/folders/dt/0wfd0knj7gs46m8vwfzktm600000gn/T//cccdOh5l.s 			page 67


 3742 0208 00000000 		.4byte	0
 3743              	.LLST17:
 3744 020c 00000000 		.4byte	.LVL17
 3745 0210 0F000000 		.4byte	.LVL20-1
 3746 0214 0100     		.2byte	0x1
 3747 0216 50       		.byte	0x50
 3748 0217 0F000000 		.4byte	.LVL20-1
 3749 021b 20000000 		.4byte	.LVL22
 3750 021f 0100     		.2byte	0x1
 3751 0221 54       		.byte	0x54
 3752 0222 20000000 		.4byte	.LVL22
 3753 0226 23000000 		.4byte	.LVL23-1
 3754 022a 0100     		.2byte	0x1
 3755 022c 50       		.byte	0x50
 3756 022d 23000000 		.4byte	.LVL23-1
 3757 0231 36000000 		.4byte	.LVL27
 3758 0235 0100     		.2byte	0x1
 3759 0237 54       		.byte	0x54
 3760 0238 36000000 		.4byte	.LVL27
 3761 023c 4F000000 		.4byte	.LVL29-1
 3762 0240 0100     		.2byte	0x1
 3763 0242 50       		.byte	0x50
 3764 0243 4F000000 		.4byte	.LVL29-1
 3765 0247 5A000000 		.4byte	.LFE11
 3766 024b 0100     		.2byte	0x1
 3767 024d 54       		.byte	0x54
 3768 024e 00000000 		.4byte	0
 3769 0252 00000000 		.4byte	0
 3770              	.LLST18:
 3771 0256 00000000 		.4byte	.LVL17
 3772 025a 0F000000 		.4byte	.LVL20-1
 3773 025e 0100     		.2byte	0x1
 3774 0260 51       		.byte	0x51
 3775 0261 0F000000 		.4byte	.LVL20-1
 3776 0265 20000000 		.4byte	.LVL22
 3777 0269 0100     		.2byte	0x1
 3778 026b 56       		.byte	0x56
 3779 026c 20000000 		.4byte	.LVL22
 3780 0270 23000000 		.4byte	.LVL23-1
 3781 0274 0100     		.2byte	0x1
 3782 0276 51       		.byte	0x51
 3783 0277 23000000 		.4byte	.LVL23-1
 3784 027b 36000000 		.4byte	.LVL27
 3785 027f 0100     		.2byte	0x1
 3786 0281 56       		.byte	0x56
 3787 0282 36000000 		.4byte	.LVL27
 3788 0286 4F000000 		.4byte	.LVL29-1
 3789 028a 0100     		.2byte	0x1
 3790 028c 51       		.byte	0x51
 3791 028d 4F000000 		.4byte	.LVL29-1
 3792 0291 5A000000 		.4byte	.LFE11
 3793 0295 0100     		.2byte	0x1
 3794 0297 56       		.byte	0x56
 3795 0298 00000000 		.4byte	0
 3796 029c 00000000 		.4byte	0
 3797              	.LLST19:
 3798 02a0 40000000 		.4byte	.LVL28
ARM GAS  /var/folders/dt/0wfd0knj7gs46m8vwfzktm600000gn/T//cccdOh5l.s 			page 68


 3799 02a4 4F000000 		.4byte	.LVL29-1
 3800 02a8 0300     		.2byte	0x3
 3801 02aa 70       		.byte	0x70
 3802 02ab 18       		.sleb128 24
 3803 02ac 06       		.byte	0x6
 3804 02ad 4F000000 		.4byte	.LVL29-1
 3805 02b1 5A000000 		.4byte	.LFE11
 3806 02b5 0100     		.2byte	0x1
 3807 02b7 57       		.byte	0x57
 3808 02b8 00000000 		.4byte	0
 3809 02bc 00000000 		.4byte	0
 3810              	.LLST20:
 3811 02c0 0C000000 		.4byte	.LVL19
 3812 02c4 0F000000 		.4byte	.LVL20-1
 3813 02c8 0100     		.2byte	0x1
 3814 02ca 53       		.byte	0x53
 3815 02cb 00000000 		.4byte	0
 3816 02cf 00000000 		.4byte	0
 3817              	.LLST21:
 3818 02d3 24000000 		.4byte	.LVL23
 3819 02d7 2B000000 		.4byte	.LVL24-1
 3820 02db 0100     		.2byte	0x1
 3821 02dd 50       		.byte	0x50
 3822 02de 2B000000 		.4byte	.LVL24-1
 3823 02e2 36000000 		.4byte	.LVL27
 3824 02e6 0100     		.2byte	0x1
 3825 02e8 57       		.byte	0x57
 3826 02e9 00000000 		.4byte	0
 3827 02ed 00000000 		.4byte	0
 3828              	.LLST22:
 3829 02f1 32000000 		.4byte	.LVL26
 3830 02f5 36000000 		.4byte	.LVL27
 3831 02f9 0100     		.2byte	0x1
 3832 02fb 53       		.byte	0x53
 3833 02fc 00000000 		.4byte	0
 3834 0300 00000000 		.4byte	0
 3835              	.LLST23:
 3836 0304 56000000 		.4byte	.LVL31
 3837 0308 5A000000 		.4byte	.LFE11
 3838 030c 0100     		.2byte	0x1
 3839 030e 53       		.byte	0x53
 3840 030f 00000000 		.4byte	0
 3841 0313 00000000 		.4byte	0
 3842              	.LLST24:
 3843 0317 00000000 		.4byte	.LFB12
 3844 031b 04000000 		.4byte	.LCFI5
 3845 031f 0200     		.2byte	0x2
 3846 0321 7D       		.byte	0x7d
 3847 0322 00       		.sleb128 0
 3848 0323 04000000 		.4byte	.LCFI5
 3849 0327 94000000 		.4byte	.LFE12
 3850 032b 0200     		.2byte	0x2
 3851 032d 7D       		.byte	0x7d
 3852 032e 20       		.sleb128 32
 3853 032f 00000000 		.4byte	0
 3854 0333 00000000 		.4byte	0
 3855              	.LLST25:
ARM GAS  /var/folders/dt/0wfd0knj7gs46m8vwfzktm600000gn/T//cccdOh5l.s 			page 69


 3856 0337 00000000 		.4byte	.LVL32
 3857 033b 12000000 		.4byte	.LVL34
 3858 033f 0100     		.2byte	0x1
 3859 0341 50       		.byte	0x50
 3860 0342 12000000 		.4byte	.LVL34
 3861 0346 34000000 		.4byte	.LVL40
 3862 034a 0100     		.2byte	0x1
 3863 034c 54       		.byte	0x54
 3864 034d 34000000 		.4byte	.LVL40
 3865 0351 37000000 		.4byte	.LVL41-1
 3866 0355 0100     		.2byte	0x1
 3867 0357 50       		.byte	0x50
 3868 0358 37000000 		.4byte	.LVL41-1
 3869 035c 4C000000 		.4byte	.LVL45
 3870 0360 0100     		.2byte	0x1
 3871 0362 54       		.byte	0x54
 3872 0363 4C000000 		.4byte	.LVL45
 3873 0367 69000000 		.4byte	.LVL46-1
 3874 036b 0100     		.2byte	0x1
 3875 036d 50       		.byte	0x50
 3876 036e 69000000 		.4byte	.LVL46-1
 3877 0372 88000000 		.4byte	.LVL52
 3878 0376 0100     		.2byte	0x1
 3879 0378 54       		.byte	0x54
 3880 0379 88000000 		.4byte	.LVL52
 3881 037d 8A000000 		.4byte	.LVL53
 3882 0381 0100     		.2byte	0x1
 3883 0383 50       		.byte	0x50
 3884 0384 8A000000 		.4byte	.LVL53
 3885 0388 94000000 		.4byte	.LFE12
 3886 038c 0100     		.2byte	0x1
 3887 038e 54       		.byte	0x54
 3888 038f 00000000 		.4byte	0
 3889 0393 00000000 		.4byte	0
 3890              	.LLST26:
 3891 0397 00000000 		.4byte	.LVL32
 3892 039b 12000000 		.4byte	.LVL34
 3893 039f 0100     		.2byte	0x1
 3894 03a1 51       		.byte	0x51
 3895 03a2 12000000 		.4byte	.LVL34
 3896 03a6 26000000 		.4byte	.LVL38
 3897 03aa 0100     		.2byte	0x1
 3898 03ac 58       		.byte	0x58
 3899 03ad 88000000 		.4byte	.LVL52
 3900 03b1 8D000000 		.4byte	.LVL54-1
 3901 03b5 0100     		.2byte	0x1
 3902 03b7 51       		.byte	0x51
 3903 03b8 8D000000 		.4byte	.LVL54-1
 3904 03bc 94000000 		.4byte	.LFE12
 3905 03c0 0100     		.2byte	0x1
 3906 03c2 58       		.byte	0x58
 3907 03c3 00000000 		.4byte	0
 3908 03c7 00000000 		.4byte	0
 3909              	.LLST27:
 3910 03cb 00000000 		.4byte	.LVL32
 3911 03cf 12000000 		.4byte	.LVL34
 3912 03d3 0100     		.2byte	0x1
ARM GAS  /var/folders/dt/0wfd0knj7gs46m8vwfzktm600000gn/T//cccdOh5l.s 			page 70


 3913 03d5 52       		.byte	0x52
 3914 03d6 12000000 		.4byte	.LVL34
 3915 03da 26000000 		.4byte	.LVL38
 3916 03de 0100     		.2byte	0x1
 3917 03e0 55       		.byte	0x55
 3918 03e1 88000000 		.4byte	.LVL52
 3919 03e5 8D000000 		.4byte	.LVL54-1
 3920 03e9 0100     		.2byte	0x1
 3921 03eb 52       		.byte	0x52
 3922 03ec 8D000000 		.4byte	.LVL54-1
 3923 03f0 94000000 		.4byte	.LFE12
 3924 03f4 0100     		.2byte	0x1
 3925 03f6 55       		.byte	0x55
 3926 03f7 00000000 		.4byte	0
 3927 03fb 00000000 		.4byte	0
 3928              	.LLST28:
 3929 03ff 00000000 		.4byte	.LVL32
 3930 0403 12000000 		.4byte	.LVL34
 3931 0407 0100     		.2byte	0x1
 3932 0409 53       		.byte	0x53
 3933 040a 12000000 		.4byte	.LVL34
 3934 040e 34000000 		.4byte	.LVL40
 3935 0412 0100     		.2byte	0x1
 3936 0414 56       		.byte	0x56
 3937 0415 34000000 		.4byte	.LVL40
 3938 0419 37000000 		.4byte	.LVL41-1
 3939 041d 0100     		.2byte	0x1
 3940 041f 51       		.byte	0x51
 3941 0420 37000000 		.4byte	.LVL41-1
 3942 0424 4C000000 		.4byte	.LVL45
 3943 0428 0100     		.2byte	0x1
 3944 042a 56       		.byte	0x56
 3945 042b 4C000000 		.4byte	.LVL45
 3946 042f 69000000 		.4byte	.LVL46-1
 3947 0433 0100     		.2byte	0x1
 3948 0435 51       		.byte	0x51
 3949 0436 69000000 		.4byte	.LVL46-1
 3950 043a 88000000 		.4byte	.LVL52
 3951 043e 0100     		.2byte	0x1
 3952 0440 56       		.byte	0x56
 3953 0441 88000000 		.4byte	.LVL52
 3954 0445 8D000000 		.4byte	.LVL54-1
 3955 0449 0100     		.2byte	0x1
 3956 044b 53       		.byte	0x53
 3957 044c 8D000000 		.4byte	.LVL54-1
 3958 0450 94000000 		.4byte	.LFE12
 3959 0454 0100     		.2byte	0x1
 3960 0456 56       		.byte	0x56
 3961 0457 00000000 		.4byte	0
 3962 045b 00000000 		.4byte	0
 3963              	.LLST29:
 3964 045f 0E000000 		.4byte	.LVL33
 3965 0463 26000000 		.4byte	.LVL38
 3966 0467 0200     		.2byte	0x2
 3967 0469 30       		.byte	0x30
 3968 046a 9F       		.byte	0x9f
 3969 046b 26000000 		.4byte	.LVL38
ARM GAS  /var/folders/dt/0wfd0knj7gs46m8vwfzktm600000gn/T//cccdOh5l.s 			page 71


 3970 046f 88000000 		.4byte	.LVL52
 3971 0473 0100     		.2byte	0x1
 3972 0475 59       		.byte	0x59
 3973 0476 88000000 		.4byte	.LVL52
 3974 047a 94000000 		.4byte	.LFE12
 3975 047e 0200     		.2byte	0x2
 3976 0480 30       		.byte	0x30
 3977 0481 9F       		.byte	0x9f
 3978 0482 00000000 		.4byte	0
 3979 0486 00000000 		.4byte	0
 3980              	.LLST30:
 3981 048a 18000000 		.4byte	.LVL36
 3982 048e 1B000000 		.4byte	.LVL37-1
 3983 0492 0100     		.2byte	0x1
 3984 0494 53       		.byte	0x53
 3985 0495 00000000 		.4byte	0
 3986 0499 00000000 		.4byte	0
 3987              	.LLST31:
 3988 049d 46000000 		.4byte	.LVL44
 3989 04a1 4C000000 		.4byte	.LVL45
 3990 04a5 0100     		.2byte	0x1
 3991 04a7 53       		.byte	0x53
 3992 04a8 00000000 		.4byte	0
 3993 04ac 00000000 		.4byte	0
 3994              	.LLST32:
 3995 04b0 46000000 		.4byte	.LVL44
 3996 04b4 4C000000 		.4byte	.LVL45
 3997 04b8 0100     		.2byte	0x1
 3998 04ba 53       		.byte	0x53
 3999 04bb 70000000 		.4byte	.LVL47
 4000 04bf 7A000000 		.4byte	.LVL49
 4001 04c3 0100     		.2byte	0x1
 4002 04c5 53       		.byte	0x53
 4003 04c6 00000000 		.4byte	0
 4004 04ca 00000000 		.4byte	0
 4005              	.LLST33:
 4006 04ce 7E000000 		.4byte	.LVL50
 4007 04d2 81000000 		.4byte	.LVL51-1
 4008 04d6 0100     		.2byte	0x1
 4009 04d8 53       		.byte	0x53
 4010 04d9 00000000 		.4byte	0
 4011 04dd 00000000 		.4byte	0
 4012              	.LLST34:
 4013 04e1 00000000 		.4byte	.LFB13
 4014 04e5 02000000 		.4byte	.LCFI6
 4015 04e9 0200     		.2byte	0x2
 4016 04eb 7D       		.byte	0x7d
 4017 04ec 00       		.sleb128 0
 4018 04ed 02000000 		.4byte	.LCFI6
 4019 04f1 18000000 		.4byte	.LFE13
 4020 04f5 0200     		.2byte	0x2
 4021 04f7 7D       		.byte	0x7d
 4022 04f8 04       		.sleb128 4
 4023 04f9 00000000 		.4byte	0
 4024 04fd 00000000 		.4byte	0
 4025              	.LLST35:
 4026 0501 00000000 		.4byte	.LFB14
ARM GAS  /var/folders/dt/0wfd0knj7gs46m8vwfzktm600000gn/T//cccdOh5l.s 			page 72


 4027 0505 02000000 		.4byte	.LCFI7
 4028 0509 0200     		.2byte	0x2
 4029 050b 7D       		.byte	0x7d
 4030 050c 00       		.sleb128 0
 4031 050d 02000000 		.4byte	.LCFI7
 4032 0511 32000000 		.4byte	.LFE14
 4033 0515 0200     		.2byte	0x2
 4034 0517 7D       		.byte	0x7d
 4035 0518 10       		.sleb128 16
 4036 0519 00000000 		.4byte	0
 4037 051d 00000000 		.4byte	0
 4038              	.LLST36:
 4039 0521 00000000 		.4byte	.LVL56
 4040 0525 07000000 		.4byte	.LVL57-1
 4041 0529 0100     		.2byte	0x1
 4042 052b 50       		.byte	0x50
 4043 052c 07000000 		.4byte	.LVL57-1
 4044 0530 32000000 		.4byte	.LFE14
 4045 0534 0100     		.2byte	0x1
 4046 0536 54       		.byte	0x54
 4047 0537 00000000 		.4byte	0
 4048 053b 00000000 		.4byte	0
 4049              	.LLST37:
 4050 053f 1E000000 		.4byte	.LVL58
 4051 0543 30000000 		.4byte	.LVL60
 4052 0547 0100     		.2byte	0x1
 4053 0549 54       		.byte	0x54
 4054 054a 00000000 		.4byte	0
 4055 054e 00000000 		.4byte	0
 4056              	.LLST38:
 4057 0552 1E000000 		.4byte	.LVL58
 4058 0556 27000000 		.4byte	.LVL59-1
 4059 055a 0100     		.2byte	0x1
 4060 055c 50       		.byte	0x50
 4061 055d 00000000 		.4byte	0
 4062 0561 00000000 		.4byte	0
 4063              	.LLST39:
 4064 0565 00000000 		.4byte	.LFB15
 4065 0569 04000000 		.4byte	.LCFI8
 4066 056d 0200     		.2byte	0x2
 4067 056f 7D       		.byte	0x7d
 4068 0570 00       		.sleb128 0
 4069 0571 04000000 		.4byte	.LCFI8
 4070 0575 64000000 		.4byte	.LFE15
 4071 0579 0200     		.2byte	0x2
 4072 057b 7D       		.byte	0x7d
 4073 057c 18       		.sleb128 24
 4074 057d 00000000 		.4byte	0
 4075 0581 00000000 		.4byte	0
 4076              	.LLST40:
 4077 0585 00000000 		.4byte	.LVL61
 4078 0589 13000000 		.4byte	.LVL64-1
 4079 058d 0100     		.2byte	0x1
 4080 058f 50       		.byte	0x50
 4081 0590 13000000 		.4byte	.LVL64-1
 4082 0594 1C000000 		.4byte	.LVL65
 4083 0598 0100     		.2byte	0x1
ARM GAS  /var/folders/dt/0wfd0knj7gs46m8vwfzktm600000gn/T//cccdOh5l.s 			page 73


 4084 059a 54       		.byte	0x54
 4085 059b 1C000000 		.4byte	.LVL65
 4086 059f 1F000000 		.4byte	.LVL66-1
 4087 05a3 0100     		.2byte	0x1
 4088 05a5 50       		.byte	0x50
 4089 05a6 1F000000 		.4byte	.LVL66-1
 4090 05aa 34000000 		.4byte	.LVL70
 4091 05ae 0100     		.2byte	0x1
 4092 05b0 54       		.byte	0x54
 4093 05b1 34000000 		.4byte	.LVL70
 4094 05b5 50000000 		.4byte	.LVL71
 4095 05b9 0100     		.2byte	0x1
 4096 05bb 50       		.byte	0x50
 4097 05bc 50000000 		.4byte	.LVL71
 4098 05c0 64000000 		.4byte	.LFE15
 4099 05c4 0100     		.2byte	0x1
 4100 05c6 54       		.byte	0x54
 4101 05c7 00000000 		.4byte	0
 4102 05cb 00000000 		.4byte	0
 4103              	.LLST41:
 4104 05cf 00000000 		.4byte	.LVL61
 4105 05d3 13000000 		.4byte	.LVL64-1
 4106 05d7 0100     		.2byte	0x1
 4107 05d9 51       		.byte	0x51
 4108 05da 13000000 		.4byte	.LVL64-1
 4109 05de 64000000 		.4byte	.LFE15
 4110 05e2 0400     		.2byte	0x4
 4111 05e4 F3       		.byte	0xf3
 4112 05e5 01       		.uleb128 0x1
 4113 05e6 51       		.byte	0x51
 4114 05e7 9F       		.byte	0x9f
 4115 05e8 00000000 		.4byte	0
 4116 05ec 00000000 		.4byte	0
 4117              	.LLST42:
 4118 05f0 00000000 		.4byte	.LVL61
 4119 05f4 13000000 		.4byte	.LVL64-1
 4120 05f8 0100     		.2byte	0x1
 4121 05fa 52       		.byte	0x52
 4122 05fb 13000000 		.4byte	.LVL64-1
 4123 05ff 1C000000 		.4byte	.LVL65
 4124 0603 0100     		.2byte	0x1
 4125 0605 56       		.byte	0x56
 4126 0606 1C000000 		.4byte	.LVL65
 4127 060a 1F000000 		.4byte	.LVL66-1
 4128 060e 0100     		.2byte	0x1
 4129 0610 51       		.byte	0x51
 4130 0611 1F000000 		.4byte	.LVL66-1
 4131 0615 34000000 		.4byte	.LVL70
 4132 0619 0100     		.2byte	0x1
 4133 061b 56       		.byte	0x56
 4134 061c 34000000 		.4byte	.LVL70
 4135 0620 51000000 		.4byte	.LVL72-1
 4136 0624 0100     		.2byte	0x1
 4137 0626 51       		.byte	0x51
 4138 0627 51000000 		.4byte	.LVL72-1
 4139 062b 64000000 		.4byte	.LFE15
 4140 062f 0100     		.2byte	0x1
ARM GAS  /var/folders/dt/0wfd0knj7gs46m8vwfzktm600000gn/T//cccdOh5l.s 			page 74


 4141 0631 56       		.byte	0x56
 4142 0632 00000000 		.4byte	0
 4143 0636 00000000 		.4byte	0
 4144              	.LLST43:
 4145 063a 10000000 		.4byte	.LVL63
 4146 063e 13000000 		.4byte	.LVL64-1
 4147 0642 0100     		.2byte	0x1
 4148 0644 53       		.byte	0x53
 4149 0645 00000000 		.4byte	0
 4150 0649 00000000 		.4byte	0
 4151              	.LLST44:
 4152 064d 20000000 		.4byte	.LVL66
 4153 0651 27000000 		.4byte	.LVL67-1
 4154 0655 0100     		.2byte	0x1
 4155 0657 50       		.byte	0x50
 4156 0658 27000000 		.4byte	.LVL67-1
 4157 065c 34000000 		.4byte	.LVL70
 4158 0660 0100     		.2byte	0x1
 4159 0662 57       		.byte	0x57
 4160 0663 00000000 		.4byte	0
 4161 0667 00000000 		.4byte	0
 4162              	.LLST45:
 4163 066b 2E000000 		.4byte	.LVL69
 4164 066f 34000000 		.4byte	.LVL70
 4165 0673 0100     		.2byte	0x1
 4166 0675 53       		.byte	0x53
 4167 0676 00000000 		.4byte	0
 4168 067a 00000000 		.4byte	0
 4169              	.LLST46:
 4170 067e 5C000000 		.4byte	.LVL75
 4171 0682 64000000 		.4byte	.LFE15
 4172 0686 0100     		.2byte	0x1
 4173 0688 53       		.byte	0x53
 4174 0689 00000000 		.4byte	0
 4175 068d 00000000 		.4byte	0
 4176              	.LLST47:
 4177 0691 00000000 		.4byte	.LFB16
 4178 0695 02000000 		.4byte	.LCFI9
 4179 0699 0200     		.2byte	0x2
 4180 069b 7D       		.byte	0x7d
 4181 069c 00       		.sleb128 0
 4182 069d 02000000 		.4byte	.LCFI9
 4183 06a1 4A000000 		.4byte	.LFE16
 4184 06a5 0200     		.2byte	0x2
 4185 06a7 7D       		.byte	0x7d
 4186 06a8 10       		.sleb128 16
 4187 06a9 00000000 		.4byte	0
 4188 06ad 00000000 		.4byte	0
 4189              	.LLST48:
 4190 06b1 00000000 		.4byte	.LVL76
 4191 06b5 07000000 		.4byte	.LVL77-1
 4192 06b9 0100     		.2byte	0x1
 4193 06bb 50       		.byte	0x50
 4194 06bc 07000000 		.4byte	.LVL77-1
 4195 06c0 4A000000 		.4byte	.LFE16
 4196 06c4 0100     		.2byte	0x1
 4197 06c6 54       		.byte	0x54
ARM GAS  /var/folders/dt/0wfd0knj7gs46m8vwfzktm600000gn/T//cccdOh5l.s 			page 75


 4198 06c7 00000000 		.4byte	0
 4199 06cb 00000000 		.4byte	0
 4200              	.LLST49:
 4201 06cf 1A000000 		.4byte	.LVL78
 4202 06d3 37000000 		.4byte	.LVL80-1
 4203 06d7 0300     		.2byte	0x3
 4204 06d9 74       		.byte	0x74
 4205 06da 18       		.sleb128 24
 4206 06db 06       		.byte	0x6
 4207 06dc 37000000 		.4byte	.LVL80-1
 4208 06e0 40000000 		.4byte	.LVL82
 4209 06e4 0100     		.2byte	0x1
 4210 06e6 55       		.byte	0x55
 4211 06e7 00000000 		.4byte	0
 4212 06eb 00000000 		.4byte	0
 4213              	.LLST50:
 4214 06ef 2E000000 		.4byte	.LVL79
 4215 06f3 3C000000 		.4byte	.LVL81
 4216 06f7 0100     		.2byte	0x1
 4217 06f9 54       		.byte	0x54
 4218 06fa 00000000 		.4byte	0
 4219 06fe 00000000 		.4byte	0
 4220              	.LLST51:
 4221 0702 2E000000 		.4byte	.LVL79
 4222 0706 37000000 		.4byte	.LVL80-1
 4223 070a 0100     		.2byte	0x1
 4224 070c 50       		.byte	0x50
 4225 070d 00000000 		.4byte	0
 4226 0711 00000000 		.4byte	0
 4227              	.LLST52:
 4228 0715 00000000 		.4byte	.LFB17
 4229 0719 04000000 		.4byte	.LCFI10
 4230 071d 0200     		.2byte	0x2
 4231 071f 7D       		.byte	0x7d
 4232 0720 00       		.sleb128 0
 4233 0721 04000000 		.4byte	.LCFI10
 4234 0725 94000000 		.4byte	.LFE17
 4235 0729 0200     		.2byte	0x2
 4236 072b 7D       		.byte	0x7d
 4237 072c 20       		.sleb128 32
 4238 072d 00000000 		.4byte	0
 4239 0731 00000000 		.4byte	0
 4240              	.LLST53:
 4241 0735 00000000 		.4byte	.LVL83
 4242 0739 14000000 		.4byte	.LVL85
 4243 073d 0100     		.2byte	0x1
 4244 073f 50       		.byte	0x50
 4245 0740 14000000 		.4byte	.LVL85
 4246 0744 28000000 		.4byte	.LVL90
 4247 0748 0100     		.2byte	0x1
 4248 074a 54       		.byte	0x54
 4249 074b 28000000 		.4byte	.LVL90
 4250 074f 47000000 		.4byte	.LVL93-1
 4251 0753 0100     		.2byte	0x1
 4252 0755 50       		.byte	0x50
 4253 0756 47000000 		.4byte	.LVL93-1
 4254 075a 6C000000 		.4byte	.LVL102
ARM GAS  /var/folders/dt/0wfd0knj7gs46m8vwfzktm600000gn/T//cccdOh5l.s 			page 76


 4255 075e 0100     		.2byte	0x1
 4256 0760 54       		.byte	0x54
 4257 0761 6C000000 		.4byte	.LVL102
 4258 0765 6E000000 		.4byte	.LVL103
 4259 0769 0100     		.2byte	0x1
 4260 076b 50       		.byte	0x50
 4261 076c 6E000000 		.4byte	.LVL103
 4262 0770 88000000 		.4byte	.LVL108
 4263 0774 0100     		.2byte	0x1
 4264 0776 54       		.byte	0x54
 4265 0777 88000000 		.4byte	.LVL108
 4266 077b 8A000000 		.4byte	.LVL109
 4267 077f 0100     		.2byte	0x1
 4268 0781 50       		.byte	0x50
 4269 0782 8A000000 		.4byte	.LVL109
 4270 0786 94000000 		.4byte	.LFE17
 4271 078a 0100     		.2byte	0x1
 4272 078c 54       		.byte	0x54
 4273 078d 00000000 		.4byte	0
 4274 0791 00000000 		.4byte	0
 4275              	.LLST54:
 4276 0795 00000000 		.4byte	.LVL83
 4277 0799 14000000 		.4byte	.LVL85
 4278 079d 0100     		.2byte	0x1
 4279 079f 51       		.byte	0x51
 4280 07a0 14000000 		.4byte	.LVL85
 4281 07a4 2E000000 		.4byte	.LVL91
 4282 07a8 0100     		.2byte	0x1
 4283 07aa 58       		.byte	0x58
 4284 07ab 2E000000 		.4byte	.LVL91
 4285 07af 38000000 		.4byte	.LVL92
 4286 07b3 0300     		.2byte	0x3
 4287 07b5 78       		.byte	0x78
 4288 07b6 7F       		.sleb128 -1
 4289 07b7 9F       		.byte	0x9f
 4290 07b8 38000000 		.4byte	.LVL92
 4291 07bc 88000000 		.4byte	.LVL108
 4292 07c0 0100     		.2byte	0x1
 4293 07c2 58       		.byte	0x58
 4294 07c3 88000000 		.4byte	.LVL108
 4295 07c7 8D000000 		.4byte	.LVL110-1
 4296 07cb 0100     		.2byte	0x1
 4297 07cd 51       		.byte	0x51
 4298 07ce 8D000000 		.4byte	.LVL110-1
 4299 07d2 94000000 		.4byte	.LFE17
 4300 07d6 0100     		.2byte	0x1
 4301 07d8 58       		.byte	0x58
 4302 07d9 00000000 		.4byte	0
 4303 07dd 00000000 		.4byte	0
 4304              	.LLST55:
 4305 07e1 00000000 		.4byte	.LVL83
 4306 07e5 14000000 		.4byte	.LVL85
 4307 07e9 0100     		.2byte	0x1
 4308 07eb 52       		.byte	0x52
 4309 07ec 14000000 		.4byte	.LVL85
 4310 07f0 54000000 		.4byte	.LVL97
 4311 07f4 0100     		.2byte	0x1
ARM GAS  /var/folders/dt/0wfd0knj7gs46m8vwfzktm600000gn/T//cccdOh5l.s 			page 77


 4312 07f6 56       		.byte	0x56
 4313 07f7 54000000 		.4byte	.LVL97
 4314 07fb 56000000 		.4byte	.LVL98
 4315 07ff 0300     		.2byte	0x3
 4316 0801 76       		.byte	0x76
 4317 0802 7F       		.sleb128 -1
 4318 0803 9F       		.byte	0x9f
 4319 0804 56000000 		.4byte	.LVL98
 4320 0808 88000000 		.4byte	.LVL108
 4321 080c 0100     		.2byte	0x1
 4322 080e 56       		.byte	0x56
 4323 080f 88000000 		.4byte	.LVL108
 4324 0813 8D000000 		.4byte	.LVL110-1
 4325 0817 0100     		.2byte	0x1
 4326 0819 52       		.byte	0x52
 4327 081a 8D000000 		.4byte	.LVL110-1
 4328 081e 94000000 		.4byte	.LFE17
 4329 0822 0100     		.2byte	0x1
 4330 0824 56       		.byte	0x56
 4331 0825 00000000 		.4byte	0
 4332 0829 00000000 		.4byte	0
 4333              	.LLST56:
 4334 082d 00000000 		.4byte	.LVL83
 4335 0831 14000000 		.4byte	.LVL85
 4336 0835 0100     		.2byte	0x1
 4337 0837 53       		.byte	0x53
 4338 0838 14000000 		.4byte	.LVL85
 4339 083c 88000000 		.4byte	.LVL108
 4340 0840 0100     		.2byte	0x1
 4341 0842 5A       		.byte	0x5a
 4342 0843 88000000 		.4byte	.LVL108
 4343 0847 8D000000 		.4byte	.LVL110-1
 4344 084b 0100     		.2byte	0x1
 4345 084d 53       		.byte	0x53
 4346 084e 8D000000 		.4byte	.LVL110-1
 4347 0852 94000000 		.4byte	.LFE17
 4348 0856 0100     		.2byte	0x1
 4349 0858 5A       		.byte	0x5a
 4350 0859 00000000 		.4byte	0
 4351 085d 00000000 		.4byte	0
 4352              	.LLST57:
 4353 0861 10000000 		.4byte	.LVL84
 4354 0865 20000000 		.4byte	.LVL89
 4355 0869 0200     		.2byte	0x2
 4356 086b 30       		.byte	0x30
 4357 086c 9F       		.byte	0x9f
 4358 086d 20000000 		.4byte	.LVL89
 4359 0871 88000000 		.4byte	.LVL108
 4360 0875 0100     		.2byte	0x1
 4361 0877 57       		.byte	0x57
 4362 0878 88000000 		.4byte	.LVL108
 4363 087c 94000000 		.4byte	.LFE17
 4364 0880 0200     		.2byte	0x2
 4365 0882 30       		.byte	0x30
 4366 0883 9F       		.byte	0x9f
 4367 0884 00000000 		.4byte	0
 4368 0888 00000000 		.4byte	0
ARM GAS  /var/folders/dt/0wfd0knj7gs46m8vwfzktm600000gn/T//cccdOh5l.s 			page 78


 4369              	.LLST58:
 4370 088c 1A000000 		.4byte	.LVL87
 4371 0890 1D000000 		.4byte	.LVL88-1
 4372 0894 0100     		.2byte	0x1
 4373 0896 53       		.byte	0x53
 4374 0897 00000000 		.4byte	0
 4375 089b 00000000 		.4byte	0
 4376              	.LLST59:
 4377 089f 52000000 		.4byte	.LVL96
 4378 08a3 5A000000 		.4byte	.LVL99
 4379 08a7 0100     		.2byte	0x1
 4380 08a9 53       		.byte	0x53
 4381 08aa 82000000 		.4byte	.LVL107
 4382 08ae 88000000 		.4byte	.LVL108
 4383 08b2 0100     		.2byte	0x1
 4384 08b4 53       		.byte	0x53
 4385 08b5 00000000 		.4byte	0
 4386 08b9 00000000 		.4byte	0
 4387              	.LLST60:
 4388 08bd 5E000000 		.4byte	.LVL100
 4389 08c1 61000000 		.4byte	.LVL101-1
 4390 08c5 0100     		.2byte	0x1
 4391 08c7 53       		.byte	0x53
 4392 08c8 00000000 		.4byte	0
 4393 08cc 00000000 		.4byte	0
 4394              	.LLST61:
 4395 08d0 82000000 		.4byte	.LVL107
 4396 08d4 88000000 		.4byte	.LVL108
 4397 08d8 0100     		.2byte	0x1
 4398 08da 53       		.byte	0x53
 4399 08db 00000000 		.4byte	0
 4400 08df 00000000 		.4byte	0
 4401              		.section	.debug_aranges,"",%progbits
 4402 0000 6C000000 		.4byte	0x6c
 4403 0004 0200     		.2byte	0x2
 4404 0006 00000000 		.4byte	.Ldebug_info0
 4405 000a 04       		.byte	0x4
 4406 000b 00       		.byte	0
 4407 000c 0000     		.2byte	0
 4408 000e 0000     		.2byte	0
 4409 0010 00000000 		.4byte	.LFB7
 4410 0014 2C000000 		.4byte	.LFE7-.LFB7
 4411 0018 00000000 		.4byte	.LFB8
 4412 001c 1A000000 		.4byte	.LFE8-.LFB8
 4413 0020 00000000 		.4byte	.LFB9
 4414 0024 30000000 		.4byte	.LFE9-.LFB9
 4415 0028 00000000 		.4byte	.LFB10
 4416 002c 50000000 		.4byte	.LFE10-.LFB10
 4417 0030 00000000 		.4byte	.LFB11
 4418 0034 5A000000 		.4byte	.LFE11-.LFB11
 4419 0038 00000000 		.4byte	.LFB12
 4420 003c 94000000 		.4byte	.LFE12-.LFB12
 4421 0040 00000000 		.4byte	.LFB13
 4422 0044 18000000 		.4byte	.LFE13-.LFB13
 4423 0048 00000000 		.4byte	.LFB14
 4424 004c 32000000 		.4byte	.LFE14-.LFB14
 4425 0050 00000000 		.4byte	.LFB15
ARM GAS  /var/folders/dt/0wfd0knj7gs46m8vwfzktm600000gn/T//cccdOh5l.s 			page 79


 4426 0054 64000000 		.4byte	.LFE15-.LFB15
 4427 0058 00000000 		.4byte	.LFB16
 4428 005c 4A000000 		.4byte	.LFE16-.LFB16
 4429 0060 00000000 		.4byte	.LFB17
 4430 0064 94000000 		.4byte	.LFE17-.LFB17
 4431 0068 00000000 		.4byte	0
 4432 006c 00000000 		.4byte	0
 4433              		.section	.debug_ranges,"",%progbits
 4434              	.Ldebug_ranges0:
 4435 0000 1A000000 		.4byte	.LBB19
 4436 0004 1E000000 		.4byte	.LBE19
 4437 0008 20000000 		.4byte	.LBB21
 4438 000c 32000000 		.4byte	.LBE21
 4439 0010 00000000 		.4byte	0
 4440 0014 00000000 		.4byte	0
 4441 0018 04000000 		.4byte	.LBB29
 4442 001c 06000000 		.4byte	.LBE29
 4443 0020 0C000000 		.4byte	.LBB30
 4444 0024 10000000 		.4byte	.LBE30
 4445 0028 00000000 		.4byte	0
 4446 002c 00000000 		.4byte	0
 4447 0030 16000000 		.4byte	.LBB31
 4448 0034 1A000000 		.4byte	.LBE31
 4449 0038 1C000000 		.4byte	.LBB33
 4450 003c 2E000000 		.4byte	.LBE33
 4451 0040 00000000 		.4byte	0
 4452 0044 00000000 		.4byte	0
 4453 0048 00000000 		.4byte	.LFB7
 4454 004c 2C000000 		.4byte	.LFE7
 4455 0050 00000000 		.4byte	.LFB8
 4456 0054 1A000000 		.4byte	.LFE8
 4457 0058 00000000 		.4byte	.LFB9
 4458 005c 30000000 		.4byte	.LFE9
 4459 0060 00000000 		.4byte	.LFB10
 4460 0064 50000000 		.4byte	.LFE10
 4461 0068 00000000 		.4byte	.LFB11
 4462 006c 5A000000 		.4byte	.LFE11
 4463 0070 00000000 		.4byte	.LFB12
 4464 0074 94000000 		.4byte	.LFE12
 4465 0078 00000000 		.4byte	.LFB13
 4466 007c 18000000 		.4byte	.LFE13
 4467 0080 00000000 		.4byte	.LFB14
 4468 0084 32000000 		.4byte	.LFE14
 4469 0088 00000000 		.4byte	.LFB15
 4470 008c 64000000 		.4byte	.LFE15
 4471 0090 00000000 		.4byte	.LFB16
 4472 0094 4A000000 		.4byte	.LFE16
 4473 0098 00000000 		.4byte	.LFB17
 4474 009c 94000000 		.4byte	.LFE17
 4475 00a0 00000000 		.4byte	0
 4476 00a4 00000000 		.4byte	0
 4477              		.section	.debug_line,"",%progbits
 4478              	.Ldebug_line0:
 4479 0000 D0030000 		.section	.debug_str,"MS",%progbits,1
 4479      0200C001 
 4479      00000201 
 4479      FB0E0D00 
ARM GAS  /var/folders/dt/0wfd0knj7gs46m8vwfzktm600000gn/T//cccdOh5l.s 			page 80


 4479      01010101 
 4480              	.LASF86:
 4481 0000 63684F51 		.ascii	"chOQInit\000"
 4481      496E6974 
 4481      00
 4482              	.LASF38:
 4483 0009 705F6D73 		.ascii	"p_msg\000"
 4483      6700
 4484              	.LASF100:
 4485 000f 71756575 		.ascii	"queue_insert\000"
 4485      655F696E 
 4485      73657274 
 4485      00
 4486              	.LASF87:
 4487 001c 6F6E6679 		.ascii	"onfy\000"
 4487      00
 4488              	.LASF2:
 4489 0021 73697A65 		.ascii	"size_t\000"
 4489      5F7400
 4490              	.LASF62:
 4491 0028 7264796D 		.ascii	"rdymsg\000"
 4491      736700
 4492              	.LASF81:
 4493 002f 63684951 		.ascii	"chIQInit\000"
 4493      496E6974 
 4493      00
 4494              	.LASF12:
 4495 0038 75696E74 		.ascii	"uint64_t\000"
 4495      36345F74 
 4495      00
 4496              	.LASF77:
 4497 0041 4F757470 		.ascii	"OutputQueue\000"
 4497      75745175 
 4497      65756500 
 4498              	.LASF85:
 4499 004d 63684951 		.ascii	"chIQReadTimeout\000"
 4499      52656164 
 4499      54696D65 
 4499      6F757400 
 4500              	.LASF13:
 4501 005d 6C6F6E67 		.ascii	"long long unsigned int\000"
 4501      206C6F6E 
 4501      6720756E 
 4501      7369676E 
 4501      65642069 
 4502              	.LASF63:
 4503 0074 65786974 		.ascii	"exitcode\000"
 4503      636F6465 
 4503      00
 4504              	.LASF104:
 4505 007d 63684462 		.ascii	"chDbgPanic\000"
 4505      6750616E 
 4505      696300
 4506              	.LASF26:
 4507 0088 705F7072 		.ascii	"p_prio\000"
 4507      696F00
 4508              	.LASF68:
ARM GAS  /var/folders/dt/0wfd0knj7gs46m8vwfzktm600000gn/T//cccdOh5l.s 			page 81


 4509 008f 715F7761 		.ascii	"q_waiting\000"
 4509      6974696E 
 4509      6700
 4510              	.LASF11:
 4511 0099 6C6F6E67 		.ascii	"long long int\000"
 4511      206C6F6E 
 4511      6720696E 
 4511      7400
 4512              	.LASF1:
 4513 00a7 7369676E 		.ascii	"signed char\000"
 4513      65642063 
 4513      68617200 
 4514              	.LASF42:
 4515 00b3 705F6D70 		.ascii	"p_mpool\000"
 4515      6F6F6C00 
 4516              	.LASF14:
 4517 00bb 626F6F6C 		.ascii	"bool_t\000"
 4517      5F7400
 4518              	.LASF59:
 4519 00c2 6D5F7175 		.ascii	"m_queue\000"
 4519      65756500 
 4520              	.LASF102:
 4521 00ca 71776169 		.ascii	"qwait\000"
 4521      7400
 4522              	.LASF8:
 4523 00d0 6C6F6E67 		.ascii	"long int\000"
 4523      20696E74 
 4523      00
 4524              	.LASF16:
 4525 00d9 74737461 		.ascii	"tstate_t\000"
 4525      74655F74 
 4525      00
 4526              	.LASF90:
 4527 00e2 63684F51 		.ascii	"chOQGetI\000"
 4527      47657449 
 4527      00
 4528              	.LASF70:
 4529 00eb 715F6275 		.ascii	"q_buffer\000"
 4529      66666572 
 4529      00
 4530              	.LASF72:
 4531 00f4 715F7772 		.ascii	"q_wrptr\000"
 4531      70747200 
 4532              	.LASF28:
 4533 00fc 705F6E65 		.ascii	"p_newer\000"
 4533      77657200 
 4534              	.LASF53:
 4535 0104 725F6E65 		.ascii	"r_newer\000"
 4535      77657200 
 4536              	.LASF45:
 4537 010c 72656761 		.ascii	"regarm_t\000"
 4537      726D5F74 
 4537      00
 4538              	.LASF89:
 4539 0115 63684F51 		.ascii	"chOQPutTimeout\000"
 4539      50757454 
 4539      696D656F 
ARM GAS  /var/folders/dt/0wfd0knj7gs46m8vwfzktm600000gn/T//cccdOh5l.s 			page 82


 4539      757400
 4540              	.LASF83:
 4541 0124 63684951 		.ascii	"chIQPutI\000"
 4541      50757449 
 4541      00
 4542              	.LASF22:
 4543 012d 636E745F 		.ascii	"cnt_t\000"
 4543      7400
 4544              	.LASF31:
 4545 0133 705F7374 		.ascii	"p_stklimit\000"
 4545      6B6C696D 
 4545      697400
 4546              	.LASF0:
 4547 013e 756E7369 		.ascii	"unsigned int\000"
 4547      676E6564 
 4547      20696E74 
 4547      00
 4548              	.LASF82:
 4549 014b 63684951 		.ascii	"chIQResetI\000"
 4549      52657365 
 4549      744900
 4550              	.LASF10:
 4551 0156 6C6F6E67 		.ascii	"long unsigned int\000"
 4551      20756E73 
 4551      69676E65 
 4551      6420696E 
 4551      7400
 4552              	.LASF48:
 4553 0168 636F6E74 		.ascii	"context\000"
 4553      65787400 
 4554              	.LASF79:
 4555 0170 73697A65 		.ascii	"size\000"
 4555      00
 4556              	.LASF6:
 4557 0175 73686F72 		.ascii	"short unsigned int\000"
 4557      7420756E 
 4557      7369676E 
 4557      65642069 
 4557      6E7400
 4558              	.LASF19:
 4559 0188 6D73675F 		.ascii	"msg_t\000"
 4559      7400
 4560              	.LASF94:
 4561 018e 63684462 		.ascii	"chDbgCheckClassI\000"
 4561      67436865 
 4561      636B436C 
 4561      61737349 
 4561      00
 4562              	.LASF98:
 4563 019f 2E2E2F2E 		.ascii	"../../os/kernel/src/chqueues.c\000"
 4563      2E2F6F73 
 4563      2F6B6572 
 4563      6E656C2F 
 4563      7372632F 
 4564              	.LASF44:
 4565 01be 54687265 		.ascii	"ThreadsList\000"
 4565      6164734C 
ARM GAS  /var/folders/dt/0wfd0knj7gs46m8vwfzktm600000gn/T//cccdOh5l.s 			page 83


 4565      69737400 
 4566              	.LASF20:
 4567 01ca 6576656E 		.ascii	"eventmask_t\000"
 4567      746D6173 
 4567      6B5F7400 
 4568              	.LASF76:
 4569 01d6 496E7075 		.ascii	"InputQueue\000"
 4569      74517565 
 4569      756500
 4570              	.LASF58:
 4571 01e1 4D757465 		.ascii	"Mutex\000"
 4571      7800
 4572              	.LASF67:
 4573 01e7 47656E65 		.ascii	"GenericQueue\000"
 4573      72696351 
 4573      75657565 
 4573      00
 4574              	.LASF46:
 4575 01f4 73746B61 		.ascii	"stkalign_t\000"
 4575      6C69676E 
 4575      5F7400
 4576              	.LASF91:
 4577 01ff 63684F51 		.ascii	"chOQWriteTimeout\000"
 4577      57726974 
 4577      6554696D 
 4577      656F7574 
 4577      00
 4578              	.LASF95:
 4579 0210 6462675F 		.ascii	"dbg_check_unlock\000"
 4579      63686563 
 4579      6B5F756E 
 4579      6C6F636B 
 4579      00
 4580              	.LASF49:
 4581 0221 73697A65 		.ascii	"sizetype\000"
 4581      74797065 
 4581      00
 4582              	.LASF69:
 4583 022a 715F636F 		.ascii	"q_counter\000"
 4583      756E7465 
 4583      7200
 4584              	.LASF96:
 4585 0234 6462675F 		.ascii	"dbg_check_lock\000"
 4585      63686563 
 4585      6B5F6C6F 
 4585      636B00
 4586              	.LASF29:
 4587 0243 705F6F6C 		.ascii	"p_older\000"
 4587      64657200 
 4588              	.LASF52:
 4589 024b 725F6374 		.ascii	"r_ctx\000"
 4589      7800
 4590              	.LASF43:
 4591 0251 54687265 		.ascii	"ThreadsQueue\000"
 4591      61647351 
 4591      75657565 
 4591      00
ARM GAS  /var/folders/dt/0wfd0knj7gs46m8vwfzktm600000gn/T//cccdOh5l.s 			page 84


 4592              	.LASF78:
 4593 025e 74696D65 		.ascii	"time\000"
 4593      00
 4594              	.LASF97:
 4595 0263 474E5520 		.ascii	"GNU C 4.7.2\000"
 4595      4320342E 
 4595      372E3200 
 4596              	.LASF56:
 4597 026f 725F6375 		.ascii	"r_current\000"
 4597      7272656E 
 4597      7400
 4598              	.LASF54:
 4599 0279 725F6F6C 		.ascii	"r_older\000"
 4599      64657200 
 4600              	.LASF17:
 4601 0281 74726566 		.ascii	"trefs_t\000"
 4601      735F7400 
 4602              	.LASF75:
 4603 0289 716E6F74 		.ascii	"qnotify_t\000"
 4603      6966795F 
 4603      7400
 4604              	.LASF25:
 4605 0293 705F7072 		.ascii	"p_prev\000"
 4605      657600
 4606              	.LASF18:
 4607 029a 74707269 		.ascii	"tprio_t\000"
 4607      6F5F7400 
 4608              	.LASF73:
 4609 02a2 715F7264 		.ascii	"q_rdptr\000"
 4609      70747200 
 4610              	.LASF7:
 4611 02aa 696E7433 		.ascii	"int32_t\000"
 4611      325F7400 
 4612              	.LASF4:
 4613 02b2 756E7369 		.ascii	"unsigned char\000"
 4613      676E6564 
 4613      20636861 
 4613      7200
 4614              	.LASF40:
 4615 02c0 705F6D74 		.ascii	"p_mtxlist\000"
 4615      786C6973 
 4615      7400
 4616              	.LASF5:
 4617 02ca 73686F72 		.ascii	"short int\000"
 4617      7420696E 
 4617      7400
 4618              	.LASF32:
 4619 02d4 705F7374 		.ascii	"p_state\000"
 4619      61746500 
 4620              	.LASF51:
 4621 02dc 725F7072 		.ascii	"r_prio\000"
 4621      696F00
 4622              	.LASF65:
 4623 02e3 65776D61 		.ascii	"ewmask\000"
 4623      736B00
 4624              	.LASF24:
 4625 02ea 705F6E65 		.ascii	"p_next\000"
ARM GAS  /var/folders/dt/0wfd0knj7gs46m8vwfzktm600000gn/T//cccdOh5l.s 			page 85


 4625      787400
 4626              	.LASF15:
 4627 02f1 746D6F64 		.ascii	"tmode_t\000"
 4627      655F7400 
 4628              	.LASF33:
 4629 02f9 705F666C 		.ascii	"p_flags\000"
 4629      61677300 
 4630              	.LASF23:
 4631 0301 54687265 		.ascii	"Thread\000"
 4631      616400
 4632              	.LASF39:
 4633 0308 705F6570 		.ascii	"p_epending\000"
 4633      656E6469 
 4633      6E6700
 4634              	.LASF9:
 4635 0313 75696E74 		.ascii	"uint32_t\000"
 4635      33325F74 
 4635      00
 4636              	.LASF50:
 4637 031c 725F7175 		.ascii	"r_queue\000"
 4637      65756500 
 4638              	.LASF93:
 4639 0324 63685363 		.ascii	"chSchReadyI\000"
 4639      68526561 
 4639      64794900 
 4640              	.LASF66:
 4641 0330 63686172 		.ascii	"char\000"
 4641      00
 4642              	.LASF101:
 4643 0335 6669666F 		.ascii	"fifo_remove\000"
 4643      5F72656D 
 4643      6F766500 
 4644              	.LASF61:
 4645 0341 6D5F6E65 		.ascii	"m_next\000"
 4645      787400
 4646              	.LASF21:
 4647 0348 73797374 		.ascii	"systime_t\000"
 4647      696D655F 
 4647      7400
 4648              	.LASF41:
 4649 0352 705F7265 		.ascii	"p_realprio\000"
 4649      616C7072 
 4649      696F00
 4650              	.LASF80:
 4651 035d 696E6679 		.ascii	"infy\000"
 4651      00
 4652              	.LASF99:
 4653 0362 2F746D70 		.ascii	"/tmp/mlab-chibios/demos/STM32F107-serialshell\000"
 4653      2F6D6C61 
 4653      622D6368 
 4653      6962696F 
 4653      732F6465 
 4654              	.LASF88:
 4655 0390 63684F51 		.ascii	"chOQResetI\000"
 4655      52657365 
 4655      744900
 4656              	.LASF35:
ARM GAS  /var/folders/dt/0wfd0knj7gs46m8vwfzktm600000gn/T//cccdOh5l.s 			page 86


 4657 039b 705F7469 		.ascii	"p_time\000"
 4657      6D6500
 4658              	.LASF47:
 4659 03a2 696E7463 		.ascii	"intctx\000"
 4659      747800
 4660              	.LASF37:
 4661 03a9 705F6D73 		.ascii	"p_msgqueue\000"
 4661      67717565 
 4661      756500
 4662              	.LASF71:
 4663 03b4 715F746F 		.ascii	"q_top\000"
 4663      7000
 4664              	.LASF34:
 4665 03ba 705F7265 		.ascii	"p_refs\000"
 4665      667300
 4666              	.LASF57:
 4667 03c1 52656164 		.ascii	"ReadyList\000"
 4667      794C6973 
 4667      7400
 4668              	.LASF74:
 4669 03cb 715F6E6F 		.ascii	"q_notify\000"
 4669      74696679 
 4669      00
 4670              	.LASF103:
 4671 03d4 726C6973 		.ascii	"rlist\000"
 4671      7400
 4672              	.LASF3:
 4673 03da 75696E74 		.ascii	"uint8_t\000"
 4673      385F7400 
 4674              	.LASF64:
 4675 03e2 77746F62 		.ascii	"wtobjp\000"
 4675      6A7000
 4676              	.LASF30:
 4677 03e9 705F6E61 		.ascii	"p_name\000"
 4677      6D6500
 4678              	.LASF92:
 4679 03f0 63685363 		.ascii	"chSchGoSleepTimeoutS\000"
 4679      68476F53 
 4679      6C656570 
 4679      54696D65 
 4679      6F757453 
 4680              	.LASF55:
 4681 0405 725F7072 		.ascii	"r_preempt\000"
 4681      65656D70 
 4681      7400
 4682              	.LASF60:
 4683 040f 6D5F6F77 		.ascii	"m_owner\000"
 4683      6E657200 
 4684              	.LASF27:
 4685 0417 705F6374 		.ascii	"p_ctx\000"
 4685      7800
 4686              	.LASF36:
 4687 041d 705F7761 		.ascii	"p_waiting\000"
 4687      6974696E 
 4687      6700
 4688              	.LASF84:
 4689 0427 63684951 		.ascii	"chIQGetTimeout\000"
ARM GAS  /var/folders/dt/0wfd0knj7gs46m8vwfzktm600000gn/T//cccdOh5l.s 			page 87


 4689      47657454 
 4689      696D656F 
 4689      757400
 4690              		.ident	"GCC: (GNU) 4.7.2"
ARM GAS  /var/folders/dt/0wfd0knj7gs46m8vwfzktm600000gn/T//cccdOh5l.s 			page 88


DEFINED SYMBOLS
                            *ABS*:0000000000000000 chqueues.c
/var/folders/dt/0wfd0knj7gs46m8vwfzktm600000gn/T//cccdOh5l.s:19     .text.qwait:0000000000000000 $t
/var/folders/dt/0wfd0knj7gs46m8vwfzktm600000gn/T//cccdOh5l.s:24     .text.qwait:0000000000000000 qwait
/var/folders/dt/0wfd0knj7gs46m8vwfzktm600000gn/T//cccdOh5l.s:75     .text.qwait:0000000000000028 $d
/var/folders/dt/0wfd0knj7gs46m8vwfzktm600000gn/T//cccdOh5l.s:80     .text.chIQInit:0000000000000000 $t
/var/folders/dt/0wfd0knj7gs46m8vwfzktm600000gn/T//cccdOh5l.s:86     .text.chIQInit:0000000000000000 chIQInit
/var/folders/dt/0wfd0knj7gs46m8vwfzktm600000gn/T//cccdOh5l.s:123    .text.chIQResetI:0000000000000000 $t
/var/folders/dt/0wfd0knj7gs46m8vwfzktm600000gn/T//cccdOh5l.s:129    .text.chIQResetI:0000000000000000 chIQResetI
/var/folders/dt/0wfd0knj7gs46m8vwfzktm600000gn/T//cccdOh5l.s:190    .text.chIQPutI:0000000000000000 $t
/var/folders/dt/0wfd0knj7gs46m8vwfzktm600000gn/T//cccdOh5l.s:196    .text.chIQPutI:0000000000000000 chIQPutI
/var/folders/dt/0wfd0knj7gs46m8vwfzktm600000gn/T//cccdOh5l.s:278    .text.chIQGetTimeout:0000000000000000 $t
/var/folders/dt/0wfd0knj7gs46m8vwfzktm600000gn/T//cccdOh5l.s:284    .text.chIQGetTimeout:0000000000000000 chIQGetTimeout
/var/folders/dt/0wfd0knj7gs46m8vwfzktm600000gn/T//cccdOh5l.s:394    .text.chIQReadTimeout:0000000000000000 $t
/var/folders/dt/0wfd0knj7gs46m8vwfzktm600000gn/T//cccdOh5l.s:400    .text.chIQReadTimeout:0000000000000000 chIQReadTimeout
/var/folders/dt/0wfd0knj7gs46m8vwfzktm600000gn/T//cccdOh5l.s:553    .text.chIQReadTimeout:0000000000000090 $d
/var/folders/dt/0wfd0knj7gs46m8vwfzktm600000gn/T//cccdOh5l.s:558    .text.chOQInit:0000000000000000 $t
/var/folders/dt/0wfd0knj7gs46m8vwfzktm600000gn/T//cccdOh5l.s:564    .text.chOQInit:0000000000000000 chOQInit
/var/folders/dt/0wfd0knj7gs46m8vwfzktm600000gn/T//cccdOh5l.s:598    .text.chOQResetI:0000000000000000 $t
/var/folders/dt/0wfd0knj7gs46m8vwfzktm600000gn/T//cccdOh5l.s:604    .text.chOQResetI:0000000000000000 chOQResetI
/var/folders/dt/0wfd0knj7gs46m8vwfzktm600000gn/T//cccdOh5l.s:667    .text.chOQPutTimeout:0000000000000000 $t
/var/folders/dt/0wfd0knj7gs46m8vwfzktm600000gn/T//cccdOh5l.s:673    .text.chOQPutTimeout:0000000000000000 chOQPutTimeout
/var/folders/dt/0wfd0knj7gs46m8vwfzktm600000gn/T//cccdOh5l.s:790    .text.chOQGetI:0000000000000000 $t
/var/folders/dt/0wfd0knj7gs46m8vwfzktm600000gn/T//cccdOh5l.s:796    .text.chOQGetI:0000000000000000 chOQGetI
/var/folders/dt/0wfd0knj7gs46m8vwfzktm600000gn/T//cccdOh5l.s:877    .text.chOQWriteTimeout:0000000000000000 $t
/var/folders/dt/0wfd0knj7gs46m8vwfzktm600000gn/T//cccdOh5l.s:883    .text.chOQWriteTimeout:0000000000000000 chOQWriteTimeout
/var/folders/dt/0wfd0knj7gs46m8vwfzktm600000gn/T//cccdOh5l.s:1044   .text.chOQWriteTimeout:0000000000000090 $d
/var/folders/dt/0wfd0knj7gs46m8vwfzktm600000gn/T//cccdOh5l.s:1049   .rodata.str1.4:0000000000000000 $d
                     .debug_frame:0000000000000010 $d
/var/folders/dt/0wfd0knj7gs46m8vwfzktm600000gn/T//cccdOh5l.s:79     .text.qwait:000000000000002c $t
/var/folders/dt/0wfd0knj7gs46m8vwfzktm600000gn/T//cccdOh5l.s:557    .text.chIQReadTimeout:0000000000000094 $t
/var/folders/dt/0wfd0knj7gs46m8vwfzktm600000gn/T//cccdOh5l.s:1048   .text.chOQWriteTimeout:0000000000000094 $t

UNDEFINED SYMBOLS
chSchGoSleepTimeoutS
rlist
chDbgCheckClassI
chSchReadyI
dbg_check_lock
dbg_check_unlock
chDbgPanic
