ARM GAS  /tmp/ccRbkbhA.s 			page 1


   1              		.syntax unified
   2              		.cpu cortex-m3
   3              		.fpu softvfp
   4              		.eabi_attribute 20, 1
   5              		.eabi_attribute 21, 1
   6              		.eabi_attribute 23, 3
   7              		.eabi_attribute 24, 1
   8              		.eabi_attribute 25, 1
   9              		.eabi_attribute 26, 1
  10              		.eabi_attribute 30, 2
  11              		.eabi_attribute 34, 1
  12              		.eabi_attribute 18, 4
  13              		.thumb
  14              		.file	"chqueues.c"
  15              		.text
  16              	.Ltext0:
  17              		.cfi_sections	.debug_frame
  18              		.section	.text.qwait,"ax",%progbits
  19              		.align	2
  20              		.p2align 4,,15
  21              		.thumb
  22              		.thumb_func
  23              		.type	qwait, %function
  24              	qwait:
  25              	.LFB7:
  26              		.file 1 "../../os/kernel/src/chqueues.c"
  27              		.loc 1 72 0
  28              		.cfi_startproc
  29              		@ args = 0, pretend = 0, frame = 0
  30              		@ frame_needed = 0, uses_anonymous_args = 0
  31              		@ link register save eliminated.
  32              	.LVL0:
  33 0000 10B4     		push	{r4}
  34              	.LCFI0:
  35              		.cfi_def_cfa_offset 4
  36              		.cfi_offset 4, -4
  37              		.loc 1 72 0
  38 0002 0246     		mov	r2, r0
  39              		.loc 1 74 0
  40 0004 59B1     		cbz	r1, .L2
  41              		.loc 1 76 0
  42 0006 084B     		ldr	r3, .L4
  43              		.loc 1 78 0
  44 0008 0D20     		movs	r0, #13
  45              	.LVL1:
  46              		.loc 1 76 0
  47 000a DB69     		ldr	r3, [r3, #28]
  48 000c 9A62     		str	r2, [r3, #40]
  49              	.LVL2:
  50              	.LBB12:
  51              	.LBB13:
  52              		.file 2 "../../os/kernel/include/chinline.h"
  53              		.loc 2 55 0
  54 000e 5468     		ldr	r4, [r2, #4]
  55 0010 83E81400 		stmia	r3, {r2, r4}
  56              		.loc 2 56 0
  57 0014 5360     		str	r3, [r2, #4]
ARM GAS  /tmp/ccRbkbhA.s 			page 2


  58 0016 2360     		str	r3, [r4, #0]
  59              	.LBE13:
  60              	.LBE12:
  61              		.loc 1 79 0
  62 0018 10BC     		pop	{r4}
  63              		.loc 1 78 0
  64 001a FFF7FEBF 		b	chSchGoSleepTimeoutS
  65              	.LVL3:
  66              	.L2:
  67              		.loc 1 79 0
  68 001e 4FF0FF30 		mov	r0, #-1
  69              	.LVL4:
  70 0022 10BC     		pop	{r4}
  71 0024 7047     		bx	lr
  72              	.L5:
  73 0026 00BF     		.align	2
  74              	.L4:
  75 0028 00000000 		.word	rlist
  76              		.cfi_endproc
  77              	.LFE7:
  78              		.size	qwait, .-qwait
  79 002c AFF30080 		.section	.text.chIQInit,"ax",%progbits
  80              		.align	2
  81              		.p2align 4,,15
  82              		.global	chIQInit
  83              		.thumb
  84              		.thumb_func
  85              		.type	chIQInit, %function
  86              	chIQInit:
  87              	.LFB8:
  88              		.loc 1 96 0
  89              		.cfi_startproc
  90              		@ args = 0, pretend = 0, frame = 0
  91              		@ frame_needed = 0, uses_anonymous_args = 0
  92              		@ link register save eliminated.
  93              	.LVL5:
  94 0000 10B4     		push	{r4}
  95              	.LCFI1:
  96              		.cfi_def_cfa_offset 4
  97              		.cfi_offset 4, -4
  98              		.loc 1 101 0
  99 0002 8A18     		adds	r2, r1, r2
 100              	.LVL6:
 101              		.loc 1 99 0
 102 0004 0024     		movs	r4, #0
 103              		.loc 1 98 0
 104 0006 4060     		str	r0, [r0, #4]
 105 0008 0060     		str	r0, [r0, #0]
 106              		.loc 1 99 0
 107 000a 8460     		str	r4, [r0, #8]
 108              		.loc 1 100 0
 109 000c 4161     		str	r1, [r0, #20]
 110 000e 8161     		str	r1, [r0, #24]
 111 0010 C160     		str	r1, [r0, #12]
 112              		.loc 1 101 0
 113 0012 0261     		str	r2, [r0, #16]
 114              		.loc 1 102 0
ARM GAS  /tmp/ccRbkbhA.s 			page 3


 115 0014 C361     		str	r3, [r0, #28]
 116              		.loc 1 103 0
 117 0016 10BC     		pop	{r4}
 118 0018 7047     		bx	lr
 119              		.cfi_endproc
 120              	.LFE8:
 121              		.size	chIQInit, .-chIQInit
 122              		.section	.text.chIQResetI,"ax",%progbits
 123              		.align	2
 124              		.p2align 4,,15
 125              		.global	chIQResetI
 126              		.thumb
 127              		.thumb_func
 128              		.type	chIQResetI, %function
 129              	chIQResetI:
 130              	.LFB9:
 131              		.loc 1 116 0
 132              		.cfi_startproc
 133              		@ args = 0, pretend = 0, frame = 0
 134              		@ frame_needed = 0, uses_anonymous_args = 0
 135              	.LVL7:
 136 0000 38B5     		push	{r3, r4, r5, lr}
 137              	.LCFI2:
 138              		.cfi_def_cfa_offset 16
 139              		.cfi_offset 3, -16
 140              		.cfi_offset 4, -12
 141              		.cfi_offset 5, -8
 142              		.cfi_offset 14, -4
 143              		.loc 1 116 0
 144 0002 0446     		mov	r4, r0
 145              		.loc 1 118 0
 146 0004 FFF7FEFF 		bl	chDbgCheckClassI
 147              	.LVL8:
 148              		.loc 1 122 0
 149 0008 2068     		ldr	r0, [r4, #0]
 150              		.loc 1 120 0
 151 000a E368     		ldr	r3, [r4, #12]
 152              		.loc 1 121 0
 153 000c 0021     		movs	r1, #0
 154              		.loc 1 122 0
 155 000e A042     		cmp	r0, r4
 156              		.loc 1 120 0
 157 0010 6361     		str	r3, [r4, #20]
 158 0012 A361     		str	r3, [r4, #24]
 159              		.loc 1 121 0
 160 0014 A160     		str	r1, [r4, #8]
 161              		.loc 1 122 0
 162 0016 0AD0     		beq	.L7
 163              		.loc 1 123 0
 164 0018 6FF00105 		mvn	r5, #1
 165              	.L11:
 166              	.LVL9:
 167              	.LBB14:
 168              	.LBB15:
 169              		.loc 2 62 0
 170 001c 0268     		ldr	r2, [r0, #0]
 171 001e 2260     		str	r2, [r4, #0]
ARM GAS  /tmp/ccRbkbhA.s 			page 4


 172 0020 5460     		str	r4, [r2, #4]
 173              	.LBE15:
 174              	.LBE14:
 175              		.loc 1 123 0
 176 0022 FFF7FEFF 		bl	chSchReadyI
 177              	.LVL10:
 178 0026 8562     		str	r5, [r0, #40]
 179              		.loc 1 122 0
 180 0028 2068     		ldr	r0, [r4, #0]
 181 002a A042     		cmp	r0, r4
 182 002c F6D1     		bne	.L11
 183              	.LVL11:
 184              	.L7:
 185 002e 38BD     		pop	{r3, r4, r5, pc}
 186              		.cfi_endproc
 187              	.LFE9:
 188              		.size	chIQResetI, .-chIQResetI
 189              		.section	.text.chIQPutI,"ax",%progbits
 190              		.align	2
 191              		.p2align 4,,15
 192              		.global	chIQPutI
 193              		.thumb
 194              		.thumb_func
 195              		.type	chIQPutI, %function
 196              	chIQPutI:
 197              	.LFB10:
 198              		.loc 1 139 0
 199              		.cfi_startproc
 200              		@ args = 0, pretend = 0, frame = 0
 201              		@ frame_needed = 0, uses_anonymous_args = 0
 202              	.LVL12:
 203 0000 38B5     		push	{r3, r4, r5, lr}
 204              	.LCFI3:
 205              		.cfi_def_cfa_offset 16
 206              		.cfi_offset 3, -16
 207              		.cfi_offset 4, -12
 208              		.cfi_offset 5, -8
 209              		.cfi_offset 14, -4
 210              		.loc 1 139 0
 211 0002 0446     		mov	r4, r0
 212 0004 0D46     		mov	r5, r1
 213              		.loc 1 141 0
 214 0006 FFF7FEFF 		bl	chDbgCheckClassI
 215              	.LVL13:
 216              		.loc 1 143 0
 217 000a 6369     		ldr	r3, [r4, #20]
 218 000c A269     		ldr	r2, [r4, #24]
 219 000e A068     		ldr	r0, [r4, #8]
 220 0010 9342     		cmp	r3, r2
 221 0012 18D0     		beq	.L14
 222              	.L15:
 223              		.loc 1 146 0
 224 0014 411C     		adds	r1, r0, #1
 225 0016 A160     		str	r1, [r4, #8]
 226              		.loc 1 147 0
 227 0018 03F8015B 		strb	r5, [r3], #1
 228              		.loc 1 148 0
ARM GAS  /tmp/ccRbkbhA.s 			page 5


 229 001c 2269     		ldr	r2, [r4, #16]
 230              		.loc 1 147 0
 231 001e 6361     		str	r3, [r4, #20]
 232              		.loc 1 148 0
 233 0020 9342     		cmp	r3, r2
 234              		.loc 1 149 0
 235 0022 28BF     		it	cs
 236 0024 E368     		ldrcs	r3, [r4, #12]
 237              		.loc 1 151 0
 238 0026 2068     		ldr	r0, [r4, #0]
 239              		.loc 1 149 0
 240 0028 28BF     		it	cs
 241 002a 6361     		strcs	r3, [r4, #20]
 242              		.loc 1 151 0
 243 002c A042     		cmp	r0, r4
 244 002e 08D0     		beq	.L19
 245              	.LVL14:
 246              	.LBB16:
 247              	.LBB17:
 248              		.loc 2 62 0
 249 0030 0368     		ldr	r3, [r0, #0]
 250 0032 2360     		str	r3, [r4, #0]
 251 0034 5C60     		str	r4, [r3, #4]
 252              	.LBE17:
 253              	.LBE16:
 254              		.loc 1 152 0
 255 0036 FFF7FEFF 		bl	chSchReadyI
 256              	.LVL15:
 257 003a 0021     		movs	r1, #0
 258 003c 8162     		str	r1, [r0, #40]
 259              		.loc 1 154 0
 260 003e 0846     		mov	r0, r1
 261 0040 38BD     		pop	{r3, r4, r5, pc}
 262              	.LVL16:
 263              	.L19:
 264 0042 0020     		movs	r0, #0
 265              		.loc 1 155 0
 266 0044 38BD     		pop	{r3, r4, r5, pc}
 267              	.L14:
 268              		.loc 1 143 0 discriminator 1
 269 0046 0028     		cmp	r0, #0
 270 0048 E4D0     		beq	.L15
 271              		.loc 1 144 0
 272 004a 6FF00300 		mvn	r0, #3
 273 004e 38BD     		pop	{r3, r4, r5, pc}
 274              		.cfi_endproc
 275              	.LFE10:
 276              		.size	chIQPutI, .-chIQPutI
 277              		.section	.text.chIQGetTimeout,"ax",%progbits
 278              		.align	2
 279              		.p2align 4,,15
 280              		.global	chIQGetTimeout
 281              		.thumb
 282              		.thumb_func
 283              		.type	chIQGetTimeout, %function
 284              	chIQGetTimeout:
 285              	.LFB11:
ARM GAS  /tmp/ccRbkbhA.s 			page 6


 286              		.loc 1 177 0
 287              		.cfi_startproc
 288              		@ args = 0, pretend = 0, frame = 0
 289              		@ frame_needed = 0, uses_anonymous_args = 0
 290              	.LVL17:
 291 0000 F8B5     		push	{r3, r4, r5, r6, r7, lr}
 292              	.LCFI4:
 293              		.cfi_def_cfa_offset 24
 294              		.cfi_offset 3, -24
 295              		.cfi_offset 4, -20
 296              		.cfi_offset 5, -16
 297              		.cfi_offset 6, -12
 298              		.cfi_offset 7, -8
 299              		.cfi_offset 14, -4
 300              		.loc 1 177 0
 301 0002 0446     		mov	r4, r0
 302 0004 0E46     		mov	r6, r1
 303              	.LBB18:
 304              		.loc 1 180 0
 305 0006 2023     		movs	r3, #32
 306              	.LVL18:
 307              	@ 180 "../../os/kernel/src/chqueues.c" 1
 308 0008 83F31188 		msr     BASEPRI, r3
 309              	@ 0 "" 2
 310              	.LVL19:
 311              		.thumb
 312              	.LBE18:
 313 000c FFF7FEFF 		bl	dbg_check_lock
 314              	.LVL20:
 315              		.loc 1 181 0
 316 0010 E369     		ldr	r3, [r4, #28]
 317 0012 0BB1     		cbz	r3, .L28
 318              		.loc 1 182 0
 319 0014 2046     		mov	r0, r4
 320 0016 9847     		blx	r3
 321              	.LVL21:
 322              	.L28:
 323              		.loc 1 184 0 discriminator 1
 324 0018 A568     		ldr	r5, [r4, #8]
 325              	.LBB19:
 326              		.loc 1 186 0 discriminator 1
 327 001a 2046     		mov	r0, r4
 328 001c 3146     		mov	r1, r6
 329              	.LBE19:
 330              		.loc 1 184 0 discriminator 1
 331 001e 55B9     		cbnz	r5, .L31
 332              	.LVL22:
 333              	.LBB21:
 334              		.loc 1 186 0
 335 0020 FFF7FEFF 		bl	qwait
 336              	.LVL23:
 337 0024 071E     		subs	r7, r0, #0
 338 0026 F7DA     		bge	.L28
 339              		.loc 1 187 0
 340 0028 FFF7FEFF 		bl	dbg_check_unlock
 341              	.LVL24:
 342              	.LBB20:
ARM GAS  /tmp/ccRbkbhA.s 			page 7


 343 002c 2B46     		mov	r3, r5
 344              	.LVL25:
 345              	@ 187 "../../os/kernel/src/chqueues.c" 1
 346 002e 83F31188 		msr     BASEPRI, r3
 347              	@ 0 "" 2
 348              	.LVL26:
 349              		.thumb
 350              	.LBE20:
 351              	.LBE21:
 352              		.loc 1 199 0
 353 0032 3846     		mov	r0, r7
 354 0034 F8BD     		pop	{r3, r4, r5, r6, r7, pc}
 355              	.LVL27:
 356              	.L31:
 357              		.loc 1 193 0
 358 0036 A069     		ldr	r0, [r4, #24]
 359              	.LVL28:
 360              		.loc 1 192 0
 361 0038 013D     		subs	r5, r5, #1
 362 003a A560     		str	r5, [r4, #8]
 363              		.loc 1 193 0
 364 003c 10F8017B 		ldrb	r7, [r0], #1	@ zero_extendqisi2
 365              	.LVL29:
 366              		.loc 1 194 0
 367 0040 2269     		ldr	r2, [r4, #16]
 368              		.loc 1 193 0
 369 0042 A061     		str	r0, [r4, #24]
 370              		.loc 1 194 0
 371 0044 9042     		cmp	r0, r2
 372              		.loc 1 195 0
 373 0046 24BF     		itt	cs
 374 0048 E068     		ldrcs	r0, [r4, #12]
 375 004a A061     		strcs	r0, [r4, #24]
 376              		.loc 1 197 0
 377 004c FFF7FEFF 		bl	dbg_check_unlock
 378              	.LVL30:
 379              	.LBB22:
 380 0050 0023     		movs	r3, #0
 381              	.LVL31:
 382              	@ 197 "../../os/kernel/src/chqueues.c" 1
 383 0052 83F31188 		msr     BASEPRI, r3
 384              	@ 0 "" 2
 385              	.LVL32:
 386              		.thumb
 387              	.LBE22:
 388              		.loc 1 199 0
 389 0056 3846     		mov	r0, r7
 390 0058 F8BD     		pop	{r3, r4, r5, r6, r7, pc}
 391              		.cfi_endproc
 392              	.LFE11:
 393              		.size	chIQGetTimeout, .-chIQGetTimeout
 394 005a 00BFAFF3 		.section	.text.chIQReadTimeout,"ax",%progbits
 394      0080
 395              		.align	2
 396              		.p2align 4,,15
 397              		.global	chIQReadTimeout
 398              		.thumb
ARM GAS  /tmp/ccRbkbhA.s 			page 8


 399              		.thumb_func
 400              		.type	chIQReadTimeout, %function
 401              	chIQReadTimeout:
 402              	.LFB12:
 403              		.loc 1 226 0
 404              		.cfi_startproc
 405              		@ args = 0, pretend = 0, frame = 0
 406              		@ frame_needed = 0, uses_anonymous_args = 0
 407              	.LVL33:
 408 0000 2DE9F047 		push	{r4, r5, r6, r7, r8, r9, sl, lr}
 409              	.LCFI5:
 410              		.cfi_def_cfa_offset 32
 411              		.cfi_offset 4, -32
 412              		.cfi_offset 5, -28
 413              		.cfi_offset 6, -24
 414              		.cfi_offset 7, -20
 415              		.cfi_offset 8, -16
 416              		.cfi_offset 9, -12
 417              		.cfi_offset 10, -8
 418              		.cfi_offset 14, -4
 419              		.loc 1 226 0
 420 0004 0446     		mov	r4, r0
 421              		.loc 1 230 0
 422 0006 1546     		mov	r5, r2
 423              		.loc 1 226 0
 424 0008 8846     		mov	r8, r1
 425 000a 1E46     		mov	r6, r3
 426              		.loc 1 227 0
 427 000c C769     		ldr	r7, [r0, #28]
 428              	.LVL34:
 429              		.loc 1 230 0
 430 000e 002A     		cmp	r2, #0
 431 0010 3AD0     		beq	.L48
 432              	.LVL35:
 433              	.L33:
 434              	.LBB23:
 435              		.loc 1 232 0
 436 0012 2023     		movs	r3, #32
 437              	.LVL36:
 438              	@ 232 "../../os/kernel/src/chqueues.c" 1
 439 0014 83F31188 		msr     BASEPRI, r3
 440              	@ 0 "" 2
 441              	.LVL37:
 442              		.thumb
 443              	.LBE23:
 444 0018 FFF7FEFF 		bl	dbg_check_lock
 445              	.LVL38:
 446              		.loc 1 225 0
 447 001c 08F1010A 		add	sl, r8, #1
 448              		.loc 1 228 0
 449 0020 4FF00009 		mov	r9, #0
 450              		.loc 1 225 0
 451 0024 A844     		add	r8, r8, r5
 452              	.LVL39:
 453              	.L39:
 454              		.loc 1 234 0
 455 0026 0FB1     		cbz	r7, .L44
ARM GAS  /tmp/ccRbkbhA.s 			page 9


 456              		.loc 1 235 0
 457 0028 2046     		mov	r0, r4
 458 002a B847     		blx	r7
 459              	.LVL40:
 460              	.L44:
 461              		.loc 1 237 0 discriminator 1
 462 002c A568     		ldr	r5, [r4, #8]
 463              		.loc 1 238 0 discriminator 1
 464 002e 2046     		mov	r0, r4
 465 0030 3146     		mov	r1, r6
 466              		.loc 1 237 0 discriminator 1
 467 0032 5DB9     		cbnz	r5, .L49
 468              	.LVL41:
 469              		.loc 1 238 0
 470 0034 FFF7FEFF 		bl	qwait
 471              	.LVL42:
 472 0038 0028     		cmp	r0, #0
 473 003a F7D0     		beq	.L44
 474              		.loc 1 239 0
 475 003c FFF7FEFF 		bl	dbg_check_unlock
 476              	.LVL43:
 477              	.LBB24:
 478 0040 2B46     		mov	r3, r5
 479              	.LVL44:
 480              	@ 239 "../../os/kernel/src/chqueues.c" 1
 481 0042 83F31188 		msr     BASEPRI, r3
 482              	@ 0 "" 2
 483              	.LVL45:
 484              		.thumb
 485              	.L36:
 486              	.LBE24:
 487              		.loc 1 256 0
 488 0046 4846     		mov	r0, r9
 489 0048 BDE8F087 		pop	{r4, r5, r6, r7, r8, r9, sl, pc}
 490              	.LVL46:
 491              	.L49:
 492              		.loc 1 245 0
 493 004c A369     		ldr	r3, [r4, #24]
 494              		.loc 1 244 0
 495 004e 013D     		subs	r5, r5, #1
 496 0050 A560     		str	r5, [r4, #8]
 497              		.loc 1 245 0
 498 0052 13F8012B 		ldrb	r2, [r3], #1	@ zero_extendqisi2
 499 0056 0AF8012C 		strb	r2, [sl, #-1]
 500              		.loc 1 246 0
 501 005a 2069     		ldr	r0, [r4, #16]
 502              	.LVL47:
 503              		.loc 1 245 0
 504 005c A361     		str	r3, [r4, #24]
 505              		.loc 1 246 0
 506 005e 8342     		cmp	r3, r0
 507              		.loc 1 247 0
 508 0060 24BF     		itt	cs
 509 0062 E368     		ldrcs	r3, [r4, #12]
 510 0064 A361     		strcs	r3, [r4, #24]
 511              		.loc 1 249 0
 512 0066 FFF7FEFF 		bl	dbg_check_unlock
ARM GAS  /tmp/ccRbkbhA.s 			page 10


 513              	.LVL48:
 514              	.LBB25:
 515 006a 0023     		movs	r3, #0
 516              	@ 249 "../../os/kernel/src/chqueues.c" 1
 517 006c 83F31188 		msr     BASEPRI, r3
 518              	@ 0 "" 2
 519              	.LVL49:
 520              		.thumb
 521              	.LBE25:
 522              		.loc 1 251 0
 523 0070 C245     		cmp	sl, r8
 524              		.loc 1 250 0
 525 0072 09F10109 		add	r9, r9, #1
 526              	.LVL50:
 527              		.loc 1 251 0
 528 0076 E6D0     		beq	.L36
 529              	.LBB26:
 530              		.loc 1 254 0
 531 0078 2023     		movs	r3, #32
 532              	.LVL51:
 533              	@ 254 "../../os/kernel/src/chqueues.c" 1
 534 007a 83F31188 		msr     BASEPRI, r3
 535              	@ 0 "" 2
 536              	.LVL52:
 537              		.thumb
 538              	.LBE26:
 539 007e FFF7FEFF 		bl	dbg_check_lock
 540              	.LVL53:
 541 0082 0AF1010A 		add	sl, sl, #1
 542              		.loc 1 255 0
 543 0086 CEE7     		b	.L39
 544              	.LVL54:
 545              	.L48:
 546              		.loc 1 230 0 discriminator 1
 547 0088 0148     		ldr	r0, .L50
 548              	.LVL55:
 549 008a FFF7FEFF 		bl	chDbgPanic
 550              	.LVL56:
 551 008e C0E7     		b	.L33
 552              	.L51:
 553              		.align	2
 554              	.L50:
 555 0090 00000000 		.word	.LC0
 556              		.cfi_endproc
 557              	.LFE12:
 558              		.size	chIQReadTimeout, .-chIQReadTimeout
 559 0094 AFF30080 		.section	.text.chOQInit,"ax",%progbits
 559      AFF30080 
 559      AFF30080 
 560              		.align	2
 561              		.p2align 4,,15
 562              		.global	chOQInit
 563              		.thumb
 564              		.thumb_func
 565              		.type	chOQInit, %function
 566              	chOQInit:
 567              	.LFB13:
ARM GAS  /tmp/ccRbkbhA.s 			page 11


 568              		.loc 1 273 0
 569              		.cfi_startproc
 570              		@ args = 0, pretend = 0, frame = 0
 571              		@ frame_needed = 0, uses_anonymous_args = 0
 572              		@ link register save eliminated.
 573              	.LVL57:
 574 0000 10B4     		push	{r4}
 575              	.LCFI6:
 576              		.cfi_def_cfa_offset 4
 577              		.cfi_offset 4, -4
 578              		.loc 1 278 0
 579 0002 8C18     		adds	r4, r1, r2
 580              		.loc 1 275 0
 581 0004 4060     		str	r0, [r0, #4]
 582 0006 0060     		str	r0, [r0, #0]
 583              		.loc 1 276 0
 584 0008 8260     		str	r2, [r0, #8]
 585              		.loc 1 277 0
 586 000a 4161     		str	r1, [r0, #20]
 587 000c 8161     		str	r1, [r0, #24]
 588 000e C160     		str	r1, [r0, #12]
 589              		.loc 1 278 0
 590 0010 0461     		str	r4, [r0, #16]
 591              		.loc 1 279 0
 592 0012 C361     		str	r3, [r0, #28]
 593              		.loc 1 280 0
 594 0014 10BC     		pop	{r4}
 595 0016 7047     		bx	lr
 596              		.cfi_endproc
 597              	.LFE13:
 598              		.size	chOQInit, .-chOQInit
 599 0018 AFF30080 		.section	.text.chOQResetI,"ax",%progbits
 599      AFF30080 
 600              		.align	2
 601              		.p2align 4,,15
 602              		.global	chOQResetI
 603              		.thumb
 604              		.thumb_func
 605              		.type	chOQResetI, %function
 606              	chOQResetI:
 607              	.LFB14:
 608              		.loc 1 293 0
 609              		.cfi_startproc
 610              		@ args = 0, pretend = 0, frame = 0
 611              		@ frame_needed = 0, uses_anonymous_args = 0
 612              	.LVL58:
 613 0000 38B5     		push	{r3, r4, r5, lr}
 614              	.LCFI7:
 615              		.cfi_def_cfa_offset 16
 616              		.cfi_offset 3, -16
 617              		.cfi_offset 4, -12
 618              		.cfi_offset 5, -8
 619              		.cfi_offset 14, -4
 620              		.loc 1 293 0
 621 0002 0446     		mov	r4, r0
 622              		.loc 1 295 0
 623 0004 FFF7FEFF 		bl	chDbgCheckClassI
ARM GAS  /tmp/ccRbkbhA.s 			page 12


 624              	.LVL59:
 625              		.loc 1 297 0
 626 0008 E368     		ldr	r3, [r4, #12]
 627              		.loc 1 298 0
 628 000a 2269     		ldr	r2, [r4, #16]
 629              		.loc 1 299 0
 630 000c 2068     		ldr	r0, [r4, #0]
 631              		.loc 1 298 0
 632 000e D11A     		subs	r1, r2, r3
 633              		.loc 1 299 0
 634 0010 A042     		cmp	r0, r4
 635              		.loc 1 297 0
 636 0012 6361     		str	r3, [r4, #20]
 637 0014 A361     		str	r3, [r4, #24]
 638              		.loc 1 298 0
 639 0016 A160     		str	r1, [r4, #8]
 640              		.loc 1 299 0
 641 0018 0AD0     		beq	.L53
 642              		.loc 1 300 0
 643 001a 6FF00105 		mvn	r5, #1
 644              	.L57:
 645              	.LVL60:
 646              	.LBB27:
 647              	.LBB28:
 648              		.loc 2 62 0
 649 001e 0368     		ldr	r3, [r0, #0]
 650 0020 2360     		str	r3, [r4, #0]
 651 0022 5C60     		str	r4, [r3, #4]
 652              	.LBE28:
 653              	.LBE27:
 654              		.loc 1 300 0
 655 0024 FFF7FEFF 		bl	chSchReadyI
 656              	.LVL61:
 657 0028 8562     		str	r5, [r0, #40]
 658              		.loc 1 299 0
 659 002a 2068     		ldr	r0, [r4, #0]
 660 002c A042     		cmp	r0, r4
 661 002e F6D1     		bne	.L57
 662              	.LVL62:
 663              	.L53:
 664 0030 38BD     		pop	{r3, r4, r5, pc}
 665              		.cfi_endproc
 666              	.LFE14:
 667              		.size	chOQResetI, .-chOQResetI
 668 0032 00BFAFF3 		.section	.text.chOQPutTimeout,"ax",%progbits
 668      0080AFF3 
 668      0080AFF3 
 668      0080
 669              		.align	2
 670              		.p2align 4,,15
 671              		.global	chOQPutTimeout
 672              		.thumb
 673              		.thumb_func
 674              		.type	chOQPutTimeout, %function
 675              	chOQPutTimeout:
 676              	.LFB15:
 677              		.loc 1 325 0
ARM GAS  /tmp/ccRbkbhA.s 			page 13


 678              		.cfi_startproc
 679              		@ args = 0, pretend = 0, frame = 0
 680              		@ frame_needed = 0, uses_anonymous_args = 0
 681              	.LVL63:
 682 0000 2DE9F041 		push	{r4, r5, r6, r7, r8, lr}
 683              	.LCFI8:
 684              		.cfi_def_cfa_offset 24
 685              		.cfi_offset 4, -24
 686              		.cfi_offset 5, -20
 687              		.cfi_offset 6, -16
 688              		.cfi_offset 7, -12
 689              		.cfi_offset 8, -8
 690              		.cfi_offset 14, -4
 691              	.LBB29:
 692              		.loc 1 327 0
 693 0004 2023     		movs	r3, #32
 694              	.LVL64:
 695              	.LBE29:
 696              		.loc 1 325 0
 697 0006 0446     		mov	r4, r0
 698 0008 8846     		mov	r8, r1
 699 000a 1646     		mov	r6, r2
 700              	.LBB30:
 701              		.loc 1 327 0
 702              	@ 327 "../../os/kernel/src/chqueues.c" 1
 703 000c 83F31188 		msr     BASEPRI, r3
 704              	@ 0 "" 2
 705              	.LVL65:
 706              		.thumb
 707              	.LBE30:
 708 0010 FFF7FEFF 		bl	dbg_check_lock
 709              	.LVL66:
 710              	.L60:
 711              		.loc 1 328 0 discriminator 1
 712 0014 A568     		ldr	r5, [r4, #8]
 713              	.LBB31:
 714              		.loc 1 331 0 discriminator 1
 715 0016 2046     		mov	r0, r4
 716 0018 3146     		mov	r1, r6
 717              	.LBE31:
 718              		.loc 1 328 0 discriminator 1
 719 001a 5DB9     		cbnz	r5, .L69
 720              	.LVL67:
 721              	.LBB33:
 722              		.loc 1 331 0
 723 001c FFF7FEFF 		bl	qwait
 724              	.LVL68:
 725 0020 071E     		subs	r7, r0, #0
 726 0022 F7DA     		bge	.L60
 727              		.loc 1 332 0
 728 0024 FFF7FEFF 		bl	dbg_check_unlock
 729              	.LVL69:
 730              	.LBB32:
 731 0028 2B46     		mov	r3, r5
 732              	.LVL70:
 733              	@ 332 "../../os/kernel/src/chqueues.c" 1
 734 002a 83F31188 		msr     BASEPRI, r3
ARM GAS  /tmp/ccRbkbhA.s 			page 14


 735              	@ 0 "" 2
 736              	.LVL71:
 737              		.thumb
 738              	.LBE32:
 739              	.LBE33:
 740              		.loc 1 347 0
 741 002e 3846     		mov	r0, r7
 742 0030 BDE8F081 		pop	{r4, r5, r6, r7, r8, pc}
 743              	.LVL72:
 744              	.L69:
 745              		.loc 1 338 0
 746 0034 6369     		ldr	r3, [r4, #20]
 747              		.loc 1 337 0
 748 0036 013D     		subs	r5, r5, #1
 749 0038 A560     		str	r5, [r4, #8]
 750              		.loc 1 338 0
 751 003a 03F8018B 		strb	r8, [r3], #1
 752              		.loc 1 339 0
 753 003e 2269     		ldr	r2, [r4, #16]
 754              		.loc 1 338 0
 755 0040 6361     		str	r3, [r4, #20]
 756              		.loc 1 339 0
 757 0042 9342     		cmp	r3, r2
 758              		.loc 1 340 0
 759 0044 28BF     		it	cs
 760 0046 E368     		ldrcs	r3, [r4, #12]
 761              		.loc 1 342 0
 762 0048 E169     		ldr	r1, [r4, #28]
 763              	.LVL73:
 764              		.loc 1 340 0
 765 004a 28BF     		it	cs
 766 004c 6361     		strcs	r3, [r4, #20]
 767              		.loc 1 342 0
 768 004e 09B1     		cbz	r1, .L64
 769              		.loc 1 343 0
 770 0050 2046     		mov	r0, r4
 771              	.LVL74:
 772 0052 8847     		blx	r1
 773              	.LVL75:
 774              	.L64:
 775              		.loc 1 345 0
 776 0054 FFF7FEFF 		bl	dbg_check_unlock
 777              	.LVL76:
 778              	.LBB34:
 779 0058 0023     		movs	r3, #0
 780              	.LVL77:
 781              	@ 345 "../../os/kernel/src/chqueues.c" 1
 782 005a 83F31188 		msr     BASEPRI, r3
 783              	@ 0 "" 2
 784              	.LVL78:
 785              		.thumb
 786              	.LBE34:
 787              		.loc 1 346 0
 788 005e 1F46     		mov	r7, r3
 789              		.loc 1 347 0
 790 0060 3846     		mov	r0, r7
 791 0062 BDE8F081 		pop	{r4, r5, r6, r7, r8, pc}
ARM GAS  /tmp/ccRbkbhA.s 			page 15


 792              		.cfi_endproc
 793              	.LFE15:
 794              		.size	chOQPutTimeout, .-chOQPutTimeout
 795 0066 00BFAFF3 		.section	.text.chOQGetI,"ax",%progbits
 795      0080AFF3 
 795      0080
 796              		.align	2
 797              		.p2align 4,,15
 798              		.global	chOQGetI
 799              		.thumb
 800              		.thumb_func
 801              		.type	chOQGetI, %function
 802              	chOQGetI:
 803              	.LFB16:
 804              		.loc 1 359 0
 805              		.cfi_startproc
 806              		@ args = 0, pretend = 0, frame = 0
 807              		@ frame_needed = 0, uses_anonymous_args = 0
 808              	.LVL79:
 809 0000 38B5     		push	{r3, r4, r5, lr}
 810              	.LCFI9:
 811              		.cfi_def_cfa_offset 16
 812              		.cfi_offset 3, -16
 813              		.cfi_offset 4, -12
 814              		.cfi_offset 5, -8
 815              		.cfi_offset 14, -4
 816              		.loc 1 359 0
 817 0002 0446     		mov	r4, r0
 818              		.loc 1 362 0
 819 0004 FFF7FEFF 		bl	chDbgCheckClassI
 820              	.LVL80:
 821              		.loc 1 364 0
 822 0008 A369     		ldr	r3, [r4, #24]
 823 000a 6269     		ldr	r2, [r4, #20]
 824 000c A068     		ldr	r0, [r4, #8]
 825 000e 9A42     		cmp	r2, r3
 826 0010 16D0     		beq	.L71
 827              	.L72:
 828              		.loc 1 367 0
 829 0012 411C     		adds	r1, r0, #1
 830 0014 A160     		str	r1, [r4, #8]
 831              		.loc 1 368 0
 832 0016 13F8015B 		ldrb	r5, [r3], #1	@ zero_extendqisi2
 833              	.LVL81:
 834              		.loc 1 369 0
 835 001a 2269     		ldr	r2, [r4, #16]
 836              		.loc 1 368 0
 837 001c A361     		str	r3, [r4, #24]
 838              		.loc 1 369 0
 839 001e 9342     		cmp	r3, r2
 840              		.loc 1 370 0
 841 0020 28BF     		it	cs
 842 0022 E368     		ldrcs	r3, [r4, #12]
 843              		.loc 1 372 0
 844 0024 2068     		ldr	r0, [r4, #0]
 845              		.loc 1 370 0
 846 0026 28BF     		it	cs
ARM GAS  /tmp/ccRbkbhA.s 			page 16


 847 0028 A361     		strcs	r3, [r4, #24]
 848              		.loc 1 372 0
 849 002a A042     		cmp	r0, r4
 850 002c 06D0     		beq	.L75
 851              	.LVL82:
 852              	.LBB35:
 853              	.LBB36:
 854              		.loc 2 62 0
 855 002e 0368     		ldr	r3, [r0, #0]
 856 0030 2360     		str	r3, [r4, #0]
 857 0032 5C60     		str	r4, [r3, #4]
 858              	.LBE36:
 859              	.LBE35:
 860              		.loc 1 373 0
 861 0034 FFF7FEFF 		bl	chSchReadyI
 862              	.LVL83:
 863 0038 0021     		movs	r1, #0
 864 003a 8162     		str	r1, [r0, #40]
 865              	.LVL84:
 866              	.L75:
 867              		.loc 1 375 0
 868 003c 2846     		mov	r0, r5
 869 003e 38BD     		pop	{r3, r4, r5, pc}
 870              	.LVL85:
 871              	.L71:
 872              		.loc 1 364 0 discriminator 1
 873 0040 0028     		cmp	r0, #0
 874 0042 E6D0     		beq	.L72
 875              		.loc 1 365 0
 876 0044 6FF00200 		mvn	r0, #2
 877              		.loc 1 376 0
 878 0048 38BD     		pop	{r3, r4, r5, pc}
 879              		.cfi_endproc
 880              	.LFE16:
 881              		.size	chOQGetI, .-chOQGetI
 882              		.section	.text.chOQWriteTimeout,"ax",%progbits
 883              		.align	2
 884              		.p2align 4,,15
 885              		.global	chOQWriteTimeout
 886              		.thumb
 887              		.thumb_func
 888              		.type	chOQWriteTimeout, %function
 889              	chOQWriteTimeout:
 890              	.LFB17:
 891              		.loc 1 403 0
 892              		.cfi_startproc
 893              		@ args = 0, pretend = 0, frame = 0
 894              		@ frame_needed = 0, uses_anonymous_args = 0
 895              	.LVL86:
 896 0000 2DE9F047 		push	{r4, r5, r6, r7, r8, r9, sl, lr}
 897              	.LCFI10:
 898              		.cfi_def_cfa_offset 32
 899              		.cfi_offset 4, -32
 900              		.cfi_offset 5, -28
 901              		.cfi_offset 6, -24
 902              		.cfi_offset 7, -20
 903              		.cfi_offset 8, -16
ARM GAS  /tmp/ccRbkbhA.s 			page 17


 904              		.cfi_offset 9, -12
 905              		.cfi_offset 10, -8
 906              		.cfi_offset 14, -4
 907              		.loc 1 403 0
 908 0004 0446     		mov	r4, r0
 909              		.loc 1 407 0
 910 0006 1646     		mov	r6, r2
 911              		.loc 1 403 0
 912 0008 8846     		mov	r8, r1
 913 000a 9A46     		mov	sl, r3
 914              		.loc 1 404 0
 915 000c D0F81C90 		ldr	r9, [r0, #28]
 916              	.LVL87:
 917              		.loc 1 407 0
 918 0010 002A     		cmp	r2, #0
 919 0012 39D0     		beq	.L97
 920              	.LVL88:
 921              	.L78:
 922              	.LBB37:
 923              		.loc 1 409 0
 924 0014 2023     		movs	r3, #32
 925              	.LVL89:
 926              	@ 409 "../../os/kernel/src/chqueues.c" 1
 927 0016 83F31188 		msr     BASEPRI, r3
 928              	@ 0 "" 2
 929              	.LVL90:
 930              		.thumb
 931              	.LBE37:
 932 001a FFF7FEFF 		bl	dbg_check_lock
 933              	.LVL91:
 934              		.loc 1 405 0
 935 001e 0027     		movs	r7, #0
 936              	.LVL92:
 937              	.L96:
 938              		.loc 1 411 0 discriminator 1
 939 0020 A568     		ldr	r5, [r4, #8]
 940              		.loc 1 423 0 discriminator 1
 941 0022 2046     		mov	r0, r4
 942              		.loc 1 417 0 discriminator 1
 943 0024 6B1E     		subs	r3, r5, #1
 944              		.loc 1 411 0 discriminator 1
 945 0026 0DB3     		cbz	r5, .L82
 946              	.LVL93:
 947              	.L98:
 948              		.loc 1 417 0
 949 0028 A360     		str	r3, [r4, #8]
 950              		.loc 1 418 0
 951 002a 6569     		ldr	r5, [r4, #20]
 952 002c 18F8011B 		ldrb	r1, [r8], #1	@ zero_extendqisi2
 953              	.LVL94:
 954 0030 05F8011B 		strb	r1, [r5], #1
 955              		.loc 1 419 0
 956 0034 2269     		ldr	r2, [r4, #16]
 957              		.loc 1 418 0
 958 0036 6561     		str	r5, [r4, #20]
 959              	.LVL95:
 960              		.loc 1 419 0
ARM GAS  /tmp/ccRbkbhA.s 			page 18


 961 0038 9542     		cmp	r5, r2
 962              		.loc 1 420 0
 963 003a 24BF     		itt	cs
 964 003c E268     		ldrcs	r2, [r4, #12]
 965 003e 6261     		strcs	r2, [r4, #20]
 966              		.loc 1 422 0
 967 0040 B9F1000F 		cmp	r9, #0
 968 0044 00D0     		beq	.L84
 969              		.loc 1 423 0
 970 0046 C847     		blx	r9
 971              	.LVL96:
 972              	.L84:
 973              		.loc 1 425 0
 974 0048 FFF7FEFF 		bl	dbg_check_unlock
 975              	.LVL97:
 976              	.LBB38:
 977 004c 0023     		movs	r3, #0
 978              	.LVL98:
 979              	@ 425 "../../os/kernel/src/chqueues.c" 1
 980 004e 83F31188 		msr     BASEPRI, r3
 981              	@ 0 "" 2
 982              	.LVL99:
 983              		.thumb
 984              	.LBE38:
 985              		.loc 1 426 0
 986 0052 0137     		adds	r7, r7, #1
 987              	.LVL100:
 988              		.loc 1 427 0
 989 0054 013E     		subs	r6, r6, #1
 990              	.LVL101:
 991 0056 14D0     		beq	.L81
 992              	.LBB39:
 993              		.loc 1 429 0
 994 0058 2023     		movs	r3, #32
 995              	.LVL102:
 996              	@ 429 "../../os/kernel/src/chqueues.c" 1
 997 005a 83F31188 		msr     BASEPRI, r3
 998              	@ 0 "" 2
 999              	.LVL103:
 1000              		.thumb
 1001              	.LBE39:
 1002 005e FFF7FEFF 		bl	dbg_check_lock
 1003              	.LVL104:
 1004              		.loc 1 411 0
 1005 0062 A568     		ldr	r5, [r4, #8]
 1006              		.loc 1 423 0
 1007 0064 2046     		mov	r0, r4
 1008              		.loc 1 417 0
 1009 0066 6B1E     		subs	r3, r5, #1
 1010              		.loc 1 411 0
 1011 0068 002D     		cmp	r5, #0
 1012 006a DDD1     		bne	.L98
 1013              	.LVL105:
 1014              	.L82:
 1015              		.loc 1 412 0
 1016 006c 2046     		mov	r0, r4
 1017              	.LVL106:
ARM GAS  /tmp/ccRbkbhA.s 			page 19


 1018 006e 5146     		mov	r1, sl
 1019 0070 FFF7FEFF 		bl	qwait
 1020              	.LVL107:
 1021 0074 0028     		cmp	r0, #0
 1022 0076 D3D0     		beq	.L96
 1023              		.loc 1 413 0
 1024 0078 FFF7FEFF 		bl	dbg_check_unlock
 1025              	.LVL108:
 1026              	.LBB40:
 1027 007c 2B46     		mov	r3, r5
 1028              	.LVL109:
 1029              	@ 413 "../../os/kernel/src/chqueues.c" 1
 1030 007e 83F31188 		msr     BASEPRI, r3
 1031              	@ 0 "" 2
 1032              	.LVL110:
 1033              		.thumb
 1034              	.L81:
 1035              	.LBE40:
 1036              		.loc 1 431 0
 1037 0082 3846     		mov	r0, r7
 1038 0084 BDE8F087 		pop	{r4, r5, r6, r7, r8, r9, sl, pc}
 1039              	.LVL111:
 1040              	.L97:
 1041              		.loc 1 407 0 discriminator 1
 1042 0088 0148     		ldr	r0, .L99
 1043              	.LVL112:
 1044 008a FFF7FEFF 		bl	chDbgPanic
 1045              	.LVL113:
 1046 008e C1E7     		b	.L78
 1047              	.L100:
 1048              		.align	2
 1049              	.L99:
 1050 0090 14000000 		.word	.LC1
 1051              		.cfi_endproc
 1052              	.LFE17:
 1053              		.size	chOQWriteTimeout, .-chOQWriteTimeout
 1054 0094 AFF30080 		.section	.rodata.str1.4,"aMS",%progbits,1
 1054      AFF30080 
 1054      AFF30080 
 1055              		.align	2
 1056              	.LC0:
 1057 0000 22636849 		.ascii	"\"chIQReadTimeout\"()\000"
 1057      51526561 
 1057      6454696D 
 1057      656F7574 
 1057      22282900 
 1058              	.LC1:
 1059 0014 2263684F 		.ascii	"\"chOQWriteTimeout\"()\000"
 1059      51577269 
 1059      74655469 
 1059      6D656F75 
 1059      74222829 
 1060 0029 000000   		.text
 1061              	.Letext0:
 1062              		.file 3 "/usr/bin/../lib/gcc/arm-none-eabi/4.7.4/include/stddef.h"
 1063              		.file 4 "/usr/bin/../lib/gcc/arm-none-eabi/4.7.4/../../../../arm-none-eabi/include/stdint.h"
 1064              		.file 5 "../../os/ports/GCC/ARMCMx/chtypes.h"
ARM GAS  /tmp/ccRbkbhA.s 			page 20


 1065              		.file 6 "../../os/kernel/include/chlists.h"
 1066              		.file 7 "../../os/kernel/include/chthreads.h"
 1067              		.file 8 "../../os/ports/GCC/ARMCMx/chcore_v7m.h"
 1068              		.file 9 "../../os/kernel/include/chschd.h"
 1069              		.file 10 "../../os/kernel/include/chmtx.h"
 1070              		.file 11 "../../os/kernel/include/chqueues.h"
 1071              		.file 12 "../../os/kernel/include/chdebug.h"