ARM GAS  /tmp/ccRbkbhA.s 			page 1


   1              		.syntax unified
   2              		.cpu cortex-m3
   3              		.fpu softvfp
   4              		.eabi_attribute 20, 1
   5              		.eabi_attribute 21, 1
   6              		.eabi_attribute 23, 3
   7              		.eabi_attribute 24, 1
   8              		.eabi_attribute 25, 1
   9              		.eabi_attribute 26, 1
  10              		.eabi_attribute 30, 2
  11              		.eabi_attribute 34, 1
  12              		.eabi_attribute 18, 4
  13              		.thumb
  14              		.file	"chqueues.c"
  15              		.text
  16              	.Ltext0:
  17              		.cfi_sections	.debug_frame
  18              		.section	.text.qwait,"ax",%progbits
  19              		.align	2
  20              		.p2align 4,,15
  21              		.thumb
  22              		.thumb_func
  23              		.type	qwait, %function
  24              	qwait:
  25              	.LFB7:
  26              		.file 1 "../../os/kernel/src/chqueues.c"
  27              		.loc 1 72 0
  28              		.cfi_startproc
  29              		@ args = 0, pretend = 0, frame = 0
  30              		@ frame_needed = 0, uses_anonymous_args = 0
  31              		@ link register save eliminated.
  32              	.LVL0:
  33 0000 10B4     		push	{r4}
  34              	.LCFI0:
  35              		.cfi_def_cfa_offset 4
  36              		.cfi_offset 4, -4
  37              		.loc 1 72 0
  38 0002 0246     		mov	r2, r0
  39              		.loc 1 74 0
  40 0004 59B1     		cbz	r1, .L2
  41              		.loc 1 76 0
  42 0006 084B     		ldr	r3, .L4
  43              		.loc 1 78 0
  44 0008 0D20     		movs	r0, #13
  45              	.LVL1:
  46              		.loc 1 76 0
  47 000a DB69     		ldr	r3, [r3, #28]
  48 000c 9A62     		str	r2, [r3, #40]
  49              	.LVL2:
  50              	.LBB12:
  51              	.LBB13:
  52              		.file 2 "../../os/kernel/include/chinline.h"
  53              		.loc 2 55 0
  54 000e 5468     		ldr	r4, [r2, #4]
  55 0010 83E81400 		stmia	r3, {r2, r4}
  56              		.loc 2 56 0
  57 0014 5360     		str	r3, [r2, #4]
ARM GAS  /tmp/ccRbkbhA.s 			page 2


  58 0016 2360     		str	r3, [r4, #0]
  59              	.LBE13:
  60              	.LBE12:
  61              		.loc 1 79 0
  62 0018 10BC     		pop	{r4}
  63              		.loc 1 78 0
  64 001a FFF7FEBF 		b	chSchGoSleepTimeoutS
  65              	.LVL3:
  66              	.L2:
  67              		.loc 1 79 0
  68 001e 4FF0FF30 		mov	r0, #-1
  69              	.LVL4:
  70 0022 10BC     		pop	{r4}
  71 0024 7047     		bx	lr
  72              	.L5:
  73 0026 00BF     		.align	2
  74              	.L4:
  75 0028 00000000 		.word	rlist
  76              		.cfi_endproc
  77              	.LFE7:
  78              		.size	qwait, .-qwait
  79 002c AFF30080 		.section	.text.chIQInit,"ax",%progbits
  80              		.align	2
  81              		.p2align 4,,15
  82              		.global	chIQInit
  83              		.thumb
  84              		.thumb_func
  85              		.type	chIQInit, %function
  86              	chIQInit:
  87              	.LFB8:
  88              		.loc 1 96 0
  89              		.cfi_startproc
  90              		@ args = 0, pretend = 0, frame = 0
  91              		@ frame_needed = 0, uses_anonymous_args = 0
  92              		@ link register save eliminated.
  93              	.LVL5:
  94 0000 10B4     		push	{r4}
  95              	.LCFI1:
  96              		.cfi_def_cfa_offset 4
  97              		.cfi_offset 4, -4
  98              		.loc 1 101 0
  99 0002 8A18     		adds	r2, r1, r2
 100              	.LVL6:
 101              		.loc 1 99 0
 102 0004 0024     		movs	r4, #0
 103              		.loc 1 98 0
 104 0006 4060     		str	r0, [r0, #4]
 105 0008 0060     		str	r0, [r0, #0]
 106              		.loc 1 99 0
 107 000a 8460     		str	r4, [r0, #8]
 108              		.loc 1 100 0
 109 000c 4161     		str	r1, [r0, #20]
 110 000e 8161     		str	r1, [r0, #24]
 111 0010 C160     		str	r1, [r0, #12]
 112              		.loc 1 101 0
 113 0012 0261     		str	r2, [r0, #16]
 114              		.loc 1 102 0
ARM GAS  /tmp/ccRbkbhA.s 			page 3


 115 0014 C361     		str	r3, [r0, #28]
 116              		.loc 1 103 0
 117 0016 10BC     		pop	{r4}
 118 0018 7047     		bx	lr
 119              		.cfi_endproc
 120              	.LFE8:
 121              		.size	chIQInit, .-chIQInit
 122              		.section	.text.chIQResetI,"ax",%progbits
 123              		.align	2
 124              		.p2align 4,,15
 125              		.global	chIQResetI
 126              		.thumb
 127              		.thumb_func
 128              		.type	chIQResetI, %function
 129              	chIQResetI:
 130              	.LFB9:
 131              		.loc 1 116 0
 132              		.cfi_startproc
 133              		@ args = 0, pretend = 0, frame = 0
 134              		@ frame_needed = 0, uses_anonymous_args = 0
 135              	.LVL7:
 136 0000 38B5     		push	{r3, r4, r5, lr}
 137              	.LCFI2:
 138              		.cfi_def_cfa_offset 16
 139              		.cfi_offset 3, -16
 140              		.cfi_offset 4, -12
 141              		.cfi_offset 5, -8
 142              		.cfi_offset 14, -4
 143              		.loc 1 116 0
 144 0002 0446     		mov	r4, r0
 145              		.loc 1 118 0
 146 0004 FFF7FEFF 		bl	chDbgCheckClassI
 147              	.LVL8:
 148              		.loc 1 122 0
 149 0008 2068     		ldr	r0, [r4, #0]
 150              		.loc 1 120 0
 151 000a E368     		ldr	r3, [r4, #12]
 152              		.loc 1 121 0
 153 000c 0021     		movs	r1, #0
 154              		.loc 1 122 0
 155 000e A042     		cmp	r0, r4
 156              		.loc 1 120 0
 157 0010 6361     		str	r3, [r4, #20]
 158 0012 A361     		str	r3, [r4, #24]
 159              		.loc 1 121 0
 160 0014 A160     		str	r1, [r4, #8]
 161              		.loc 1 122 0
 162 0016 0AD0     		beq	.L7
 163              		.loc 1 123 0
 164 0018 6FF00105 		mvn	r5, #1
 165              	.L11:
 166              	.LVL9:
 167              	.LBB14:
 168              	.LBB15:
 169              		.loc 2 62 0
 170 001c 0268     		ldr	r2, [r0, #0]
 171 001e 2260     		str	r2, [r4, #0]
ARM GAS  /tmp/ccRbkbhA.s 			page 4


 172 0020 5460     		str	r4, [r2, #4]
 173              	.LBE15:
 174              	.LBE14:
 175              		.loc 1 123 0
 176 0022 FFF7FEFF 		bl	chSchReadyI
 177              	.LVL10:
 178 0026 8562     		str	r5, [r0, #40]
 179              		.loc 1 122 0
 180 0028 2068     		ldr	r0, [r4, #0]
 181 002a A042     		cmp	r0, r4
 182 002c F6D1     		bne	.L11
 183              	.LVL11:
 184              	.L7:
 185 002e 38BD     		pop	{r3, r4, r5, pc}
 186              		.cfi_endproc
 187              	.LFE9:
 188              		.size	chIQResetI, .-chIQResetI
 189              		.section	.text.chIQPutI,"ax",%progbits
 190              		.align	2
 191              		.p2align 4,,15
 192              		.global	chIQPutI
 193              		.thumb
 194              		.thumb_func
 195              		.type	chIQPutI, %function
 196              	chIQPutI:
 197              	.LFB10:
 198              		.loc 1 139 0
 199              		.cfi_startproc
 200              		@ args = 0, pretend = 0, frame = 0
 201              		@ frame_needed = 0, uses_anonymous_args = 0
 202              	.LVL12:
 203 0000 38B5     		push	{r3, r4, r5, lr}
 204              	.LCFI3:
 205              		.cfi_def_cfa_offset 16
 206              		.cfi_offset 3, -16
 207              		.cfi_offset 4, -12
 208              		.cfi_offset 5, -8
 209              		.cfi_offset 14, -4
 210              		.loc 1 139 0
 211 0002 0446     		mov	r4, r0
 212 0004 0D46     		mov	r5, r1
 213              		.loc 1 141 0
 214 0006 FFF7FEFF 		bl	chDbgCheckClassI
 215              	.LVL13:
 216              		.loc 1 143 0
 217 000a 6369     		ldr	r3, [r4, #20]
 218 000c A269     		ldr	r2, [r4, #24]
 219 000e A068     		ldr	r0, [r4, #8]
 220 0010 9342     		cmp	r3, r2
 221 0012 18D0     		beq	.L14
 222              	.L15:
 223              		.loc 1 146 0
 224 0014 411C     		adds	r1, r0, #1
 225 0016 A160     		str	r1, [r4, #8]
 226              		.loc 1 147 0
 227 0018 03F8015B 		strb	r5, [r3], #1
 228              		.loc 1 148 0
ARM GAS  /tmp/ccRbkbhA.s 			page 5


 229 001c 2269     		ldr	r2, [r4, #16]
 230              		.loc 1 147 0
 231 001e 6361     		str	r3, [r4, #20]
 232              		.loc 1 148 0
 233 0020 9342     		cmp	r3, r2
 234              		.loc 1 149 0
 235 0022 28BF     		it	cs
 236 0024 E368     		ldrcs	r3, [r4, #12]
 237              		.loc 1 151 0
 238 0026 2068     		ldr	r0, [r4, #0]
 239              		.loc 1 149 0
 240 0028 28BF     		it	cs
 241 002a 6361     		strcs	r3, [r4, #20]
 242              		.loc 1 151 0
 243 002c A042     		cmp	r0, r4
 244 002e 08D0     		beq	.L19
 245              	.LVL14:
 246              	.LBB16:
 247              	.LBB17:
 248              		.loc 2 62 0
 249 0030 0368     		ldr	r3, [r0, #0]
 250 0032 2360     		str	r3, [r4, #0]
 251 0034 5C60     		str	r4, [r3, #4]
 252              	.LBE17:
 253              	.LBE16:
 254              		.loc 1 152 0
 255 0036 FFF7FEFF 		bl	chSchReadyI
 256              	.LVL15:
 257 003a 0021     		movs	r1, #0
 258 003c 8162     		str	r1, [r0, #40]
 259              		.loc 1 154 0
 260 003e 0846     		mov	r0, r1
 261 0040 38BD     		pop	{r3, r4, r5, pc}
 262              	.LVL16:
 263              	.L19:
 264 0042 0020     		movs	r0, #0
 265              		.loc 1 155 0
 266 0044 38BD     		pop	{r3, r4, r5, pc}
 267              	.L14:
 268              		.loc 1 143 0 discriminator 1
 269 0046 0028     		cmp	r0, #0
 270 0048 E4D0     		beq	.L15
 271              		.loc 1 144 0
 272 004a 6FF00300 		mvn	r0, #3
 273 004e 38BD     		pop	{r3, r4, r5, pc}
 274              		.cfi_endproc
 275              	.LFE10:
 276              		.size	chIQPutI, .-chIQPutI
 277              		.section	.text.chIQGetTimeout,"ax",%progbits
 278              		.align	2
 279              		.p2align 4,,15
 280              		.global	chIQGetTimeout
 281              		.thumb
 282              		.thumb_func
 283              		.type	chIQGetTimeout, %function
 284              	chIQGetTimeout:
 285              	.LFB11:
ARM GAS  /tmp/ccRbkbhA.s 			page 6


 286              		.loc 1 177 0
 287              		.cfi_startproc
 288              		@ args = 0, pretend = 0, frame = 0
 289              		@ frame_needed = 0, uses_anonymous_args = 0
 290              	.LVL17:
 291 0000 F8B5     		push	{r3, r4, r5, r6, r7, lr}
 292              	.LCFI4:
 293              		.cfi_def_cfa_offset 24
 294              		.cfi_offset 3, -24
 295              		.cfi_offset 4, -20
 296              		.cfi_offset 5, -16
 297              		.cfi_offset 6, -12
 298              		.cfi_offset 7, -8
 299              		.cfi_offset 14, -4
 300              		.loc 1 177 0
 301 0002 0446     		mov	r4, r0
 302 0004 0E46     		mov	r6, r1
 303              	.LBB18:
 304              		.loc 1 180 0
 305 0006 2023     		movs	r3, #32
 306              	.LVL18:
 307              	@ 180 "../../os/kernel/src/chqueues.c" 1
 308 0008 83F31188 		msr     BASEPRI, r3
 309              	@ 0 "" 2
 310              	.LVL19:
 311              		.thumb
 312              	.LBE18:
 313 000c FFF7FEFF 		bl	dbg_check_lock
 314              	.LVL20:
 315              		.loc 1 181 0
 316 0010 E369     		ldr	r3, [r4, #28]
 317 0012 0BB1     		cbz	r3, .L28
 318              		.loc 1 182 0
 319 0014 2046     		mov	r0, r4
 320 0016 9847     		blx	r3
 321              	.LVL21:
 322              	.L28:
 323              		.loc 1 184 0 discriminator 1
 324 0018 A568     		ldr	r5, [r4, #8]
 325              	.LBB19:
 326              		.loc 1 186 0 discriminator 1
 327 001a 2046     		mov	r0, r4
 328 001c 3146     		mov	r1, r6
 329              	.LBE19:
 330              		.loc 1 184 0 discriminator 1
 331 001e 55B9     		cbnz	r5, .L31
 332              	.LVL22:
 333              	.LBB21:
 334              		.loc 1 186 0
 335 0020 FFF7FEFF 		bl	qwait
 336              	.LVL23:
 337 0024 071E     		subs	r7, r0, #0
 338 0026 F7DA     		bge	.L28
 339              		.loc 1 187 0
 340 0028 FFF7FEFF 		bl	dbg_check_unlock
 341              	.LVL24:
 342              	.LBB20:
ARM GAS  /tmp/ccRbkbhA.s 			page 7


 343 002c 2B46     		mov	r3, r5
 344              	.LVL25:
 345              	@ 187 "../../os/kernel/src/chqueues.c" 1
 346 002e 83F31188 		msr     BASEPRI, r3
 347              	@ 0 "" 2
 348              	.LVL26:
 349              		.thumb
 350              	.LBE20:
 351              	.LBE21:
 352              		.loc 1 199 0
 353 0032 3846     		mov	r0, r7
 354 0034 F8BD     		pop	{r3, r4, r5, r6, r7, pc}
 355              	.LVL27:
 356              	.L31:
 357              		.loc 1 193 0
 358 0036 A069     		ldr	r0, [r4, #24]
 359              	.LVL28:
 360              		.loc 1 192 0
 361 0038 013D     		subs	r5, r5, #1
 362 003a A560     		str	r5, [r4, #8]
 363              		.loc 1 193 0
 364 003c 10F8017B 		ldrb	r7, [r0], #1	@ zero_extendqisi2
 365              	.LVL29:
 366              		.loc 1 194 0
 367 0040 2269     		ldr	r2, [r4, #16]
 368              		.loc 1 193 0
 369 0042 A061     		str	r0, [r4, #24]
 370              		.loc 1 194 0
 371 0044 9042     		cmp	r0, r2
 372              		.loc 1 195 0
 373 0046 24BF     		itt	cs
 374 0048 E068     		ldrcs	r0, [r4, #12]
 375 004a A061     		strcs	r0, [r4, #24]
 376              		.loc 1 197 0
 377 004c FFF7FEFF 		bl	dbg_check_unlock
 378              	.LVL30:
 379              	.LBB22:
 380 0050 0023     		movs	r3, #0
 381              	.LVL31:
 382              	@ 197 "../../os/kernel/src/chqueues.c" 1
 383 0052 83F31188 		msr     BASEPRI, r3
 384              	@ 0 "" 2
 385              	.LVL32:
 386              		.thumb
 387              	.LBE22:
 388              		.loc 1 199 0
 389 0056 3846     		mov	r0, r7
 390 0058 F8BD     		pop	{r3, r4, r5, r6, r7, pc}
 391              		.cfi_endproc
 392              	.LFE11:
 393              		.size	chIQGetTimeout, .-chIQGetTimeout
 394 005a 00BFAFF3 		.section	.text.chIQReadTimeout,"ax",%progbits
 394      0080
 395              		.align	2
 396              		.p2align 4,,15
 397              		.global	chIQReadTimeout
 398              		.thumb
ARM GAS  /tmp/ccRbkbhA.s 			page 8


 399              		.thumb_func
 400              		.type	chIQReadTimeout, %function
 401              	chIQReadTimeout:
 402              	.LFB12:
 403              		.loc 1 226 0
 404              		.cfi_startproc
 405              		@ args = 0, pretend = 0, frame = 0
 406              		@ frame_needed = 0, uses_anonymous_args = 0
 407              	.LVL33:
 408 0000 2DE9F047 		push	{r4, r5, r6, r7, r8, r9, sl, lr}
 409              	.LCFI5:
 410              		.cfi_def_cfa_offset 32
 411              		.cfi_offset 4, -32
 412              		.cfi_offset 5, -28
 413              		.cfi_offset 6, -24
 414              		.cfi_offset 7, -20
 415              		.cfi_offset 8, -16
 416              		.cfi_offset 9, -12
 417              		.cfi_offset 10, -8
 418              		.cfi_offset 14, -4
 419              		.loc 1 226 0
 420 0004 0446     		mov	r4, r0
 421              		.loc 1 230 0
 422 0006 1546     		mov	r5, r2
 423              		.loc 1 226 0
 424 0008 8846     		mov	r8, r1
 425 000a 1E46     		mov	r6, r3
 426              		.loc 1 227 0
 427 000c C769     		ldr	r7, [r0, #28]
 428              	.LVL34:
 429              		.loc 1 230 0
 430 000e 002A     		cmp	r2, #0
 431 0010 3AD0     		beq	.L48
 432              	.LVL35:
 433              	.L33:
 434              	.LBB23:
 435              		.loc 1 232 0
 436 0012 2023     		movs	r3, #32
 437              	.LVL36:
 438              	@ 232 "../../os/kernel/src/chqueues.c" 1
 439 0014 83F31188 		msr     BASEPRI, r3
 440              	@ 0 "" 2
 441              	.LVL37:
 442              		.thumb
 443              	.LBE23:
 444 0018 FFF7FEFF 		bl	dbg_check_lock
 445              	.LVL38:
 446              		.loc 1 225 0
 447 001c 08F1010A 		add	sl, r8, #1
 448              		.loc 1 228 0
 449 0020 4FF00009 		mov	r9, #0
 450              		.loc 1 225 0
 451 0024 A844     		add	r8, r8, r5
 452              	.LVL39:
 453              	.L39:
 454              		.loc 1 234 0
 455 0026 0FB1     		cbz	r7, .L44
ARM GAS  /tmp/ccRbkbhA.s 			page 9


 456              		.loc 1 235 0
 457 0028 2046     		mov	r0, r4
 458 002a B847     		blx	r7
 459              	.LVL40:
 460              	.L44:
 461              		.loc 1 237 0 discriminator 1
 462 002c A568     		ldr	r5, [r4, #8]
 463              		.loc 1 238 0 discriminator 1
 464 002e 2046     		mov	r0, r4
 465 0030 3146     		mov	r1, r6
 466              		.loc 1 237 0 discriminator 1
 467 0032 5DB9     		cbnz	r5, .L49
 468              	.LVL41:
 469              		.loc 1 238 0
 470 0034 FFF7FEFF 		bl	qwait
 471              	.LVL42:
 472 0038 0028     		cmp	r0, #0
 473 003a F7D0     		beq	.L44
 474              		.loc 1 239 0
 475 003c FFF7FEFF 		bl	dbg_check_unlock
 476              	.LVL43:
 477              	.LBB24:
 478 0040 2B46     		mov	r3, r5
 479              	.LVL44:
 480              	@ 239 "../../os/kernel/src/chqueues.c" 1
 481 0042 83F31188 		msr     BASEPRI, r3
 482              	@ 0 "" 2
 483              	.LVL45:
 484              		.thumb
 485              	.L36:
 486              	.LBE24:
 487              		.loc 1 256 0
 488 0046 4846     		mov	r0, r9
 489 0048 BDE8F087 		pop	{r4, r5, r6, r7, r8, r9, sl, pc}
 490              	.LVL46:
 491              	.L49:
 492              		.loc 1 245 0
 493 004c A369     		ldr	r3, [r4, #24]
 494              		.loc 1 244 0
 495 004e 013D     		subs	r5, r5, #1
 496 0050 A560     		str	r5, [r4, #8]
 497              		.loc 1 245 0
 498 0052 13F8012B 		ldrb	r2, [r3], #1	@ zero_extendqisi2
 499 0056 0AF8012C 		strb	r2, [sl, #-1]
 500              		.loc 1 246 0
 501 005a 2069     		ldr	r0, [r4, #16]
 502              	.LVL47:
 503              		.loc 1 245 0
 504 005c A361     		str	r3, [r4, #24]
 505              		.loc 1 246 0
 506 005e 8342     		cmp	r3, r0
 507              		.loc 1 247 0
 508 0060 24BF     		itt	cs
 509 0062 E368     		ldrcs	r3, [r4, #12]
 510 0064 A361     		strcs	r3, [r4, #24]
 511              		.loc 1 249 0
 512 0066 FFF7FEFF 		bl	dbg_check_unlock
ARM GAS  /tmp/ccRbkbhA.s 			page 10


 513              	.LVL48:
 514              	.LBB25:
 515 006a 0023     		movs	r3, #0
 516              	@ 249 "../../os/kernel/src/chqueues.c" 1
 517 006c 83F31188 		msr     BASEPRI, r3
 518              	@ 0 "" 2
 519              	.LVL49:
 520              		.thumb
 521              	.LBE25:
 522              		.loc 1 251 0
 523 0070 C245     		cmp	sl, r8
 524              		.loc 1 250 0
 525 0072 09F10109 		add	r9, r9, #1
 526              	.LVL50:
 527              		.loc 1 251 0
 528 0076 E6D0     		beq	.L36
 529              	.LBB26:
 530              		.loc 1 254 0
 531 0078 2023     		movs	r3, #32
 532              	.LVL51:
 533              	@ 254 "../../os/kernel/src/chqueues.c" 1
 534 007a 83F31188 		msr     BASEPRI, r3
 535              	@ 0 "" 2
 536              	.LVL52:
 537              		.thumb
 538              	.LBE26:
 539 007e FFF7FEFF 		bl	dbg_check_lock
 540              	.LVL53:
 541 0082 0AF1010A 		add	sl, sl, #1
 542              		.loc 1 255 0
 543 0086 CEE7     		b	.L39
 544              	.LVL54:
 545              	.L48:
 546              		.loc 1 230 0 discriminator 1
 547 0088 0148     		ldr	r0, .L50
 548              	.LVL55:
 549 008a FFF7FEFF 		bl	chDbgPanic
 550              	.LVL56:
 551 008e C0E7     		b	.L33
 552              	.L51:
 553              		.align	2
 554              	.L50:
 555 0090 00000000 		.word	.LC0
 556              		.cfi_endproc
 557              	.LFE12:
 558              		.size	chIQReadTimeout, .-chIQReadTimeout
 559 0094 AFF30080 		.section	.text.chOQInit,"ax",%progbits
 559      AFF30080 
 559      AFF30080 
 560              		.align	2
 561              		.p2align 4,,15
 562              		.global	chOQInit
 563              		.thumb
 564              		.thumb_func
 565              		.type	chOQInit, %function
 566              	chOQInit:
 567              	.LFB13:
ARM GAS  /tmp/ccRbkbhA.s 			page 11


 568              		.loc 1 273 0
 569              		.cfi_startproc
 570              		@ args = 0, pretend = 0, frame = 0
 571              		@ frame_needed = 0, uses_anonymous_args = 0
 572              		@ link register save eliminated.
 573              	.LVL57:
 574 0000 10B4     		push	{r4}
 575              	.LCFI6:
 576              		.cfi_def_cfa_offset 4
 577              		.cfi_offset 4, -4
 578              		.loc 1 278 0
 579 0002 8C18     		adds	r4, r1, r2
 580              		.loc 1 275 0
 581 0004 4060     		str	r0, [r0, #4]
 582 0006 0060     		str	r0, [r0, #0]
 583              		.loc 1 276 0
 584 0008 8260     		str	r2, [r0, #8]
 585              		.loc 1 277 0
 586 000a 4161     		str	r1, [r0, #20]
 587 000c 8161     		str	r1, [r0, #24]
 588 000e C160     		str	r1, [r0, #12]
 589              		.loc 1 278 0
 590 0010 0461     		str	r4, [r0, #16]
 591              		.loc 1 279 0
 592 0012 C361     		str	r3, [r0, #28]
 593              		.loc 1 280 0
 594 0014 10BC     		pop	{r4}
 595 0016 7047     		bx	lr
 596              		.cfi_endproc
 597              	.LFE13:
 598              		.size	chOQInit, .-chOQInit
 599 0018 AFF30080 		.section	.text.chOQResetI,"ax",%progbits
 599      AFF30080 
 600              		.align	2
 601              		.p2align 4,,15
 602              		.global	chOQResetI
 603              		.thumb
 604              		.thumb_func
 605              		.type	chOQResetI, %function
 606              	chOQResetI:
 607              	.LFB14:
 608              		.loc 1 293 0
 609              		.cfi_startproc
 610              		@ args = 0, pretend = 0, frame = 0
 611              		@ frame_needed = 0, uses_anonymous_args = 0
 612              	.LVL58:
 613 0000 38B5     		push	{r3, r4, r5, lr}
 614              	.LCFI7:
 615              		.cfi_def_cfa_offset 16
 616              		.cfi_offset 3, -16
 617              		.cfi_offset 4, -12
 618              		.cfi_offset 5, -8
 619              		.cfi_offset 14, -4
 620              		.loc 1 293 0
 621 0002 0446     		mov	r4, r0
 622              		.loc 1 295 0
 623 0004 FFF7FEFF 		bl	chDbgCheckClassI
ARM GAS  /tmp/ccRbkbhA.s 			page 12


 624              	.LVL59:
 625              		.loc 1 297 0
 626 0008 E368     		ldr	r3, [r4, #12]
 627              		.loc 1 298 0
 628 000a 2269     		ldr	r2, [r4, #16]
 629              		.loc 1 299 0
 630 000c 2068     		ldr	r0, [r4, #0]
 631              		.loc 1 298 0
 632 000e D11A     		subs	r1, r2, r3
 633              		.loc 1 299 0
 634 0010 A042     		cmp	r0, r4
 635              		.loc 1 297 0
 636 0012 6361     		str	r3, [r4, #20]
 637 0014 A361     		str	r3, [r4, #24]
 638              		.loc 1 298 0
 639 0016 A160     		str	r1, [r4, #8]
 640              		.loc 1 299 0
 641 0018 0AD0     		beq	.L53
 642              		.loc 1 300 0
 643 001a 6FF00105 		mvn	r5, #1
 644              	.L57:
 645              	.LVL60:
 646              	.LBB27:
 647              	.LBB28:
 648              		.loc 2 62 0
 649 001e 0368     		ldr	r3, [r0, #0]
 650 0020 2360     		str	r3, [r4, #0]
 651 0022 5C60     		str	r4, [r3, #4]
 652              	.LBE28:
 653              	.LBE27:
 654              		.loc 1 300 0
 655 0024 FFF7FEFF 		bl	chSchReadyI
 656              	.LVL61:
 657 0028 8562     		str	r5, [r0, #40]
 658              		.loc 1 299 0
 659 002a 2068     		ldr	r0, [r4, #0]
 660 002c A042     		cmp	r0, r4
 661 002e F6D1     		bne	.L57
 662              	.LVL62:
 663              	.L53:
 664 0030 38BD     		pop	{r3, r4, r5, pc}
 665              		.cfi_endproc
 666              	.LFE14:
 667              		.size	chOQResetI, .-chOQResetI
 668 0032 00BFAFF3 		.section	.text.chOQPutTimeout,"ax",%progbits
 668      0080AFF3 
 668      0080AFF3 
 668      0080
 669              		.align	2
 670              		.p2align 4,,15
 671              		.global	chOQPutTimeout
 672              		.thumb
 673              		.thumb_func
 674              		.type	chOQPutTimeout, %function
 675              	chOQPutTimeout:
 676              	.LFB15:
 677              		.loc 1 325 0
ARM GAS  /tmp/ccRbkbhA.s 			page 13


 678              		.cfi_startproc
 679              		@ args = 0, pretend = 0, frame = 0
 680              		@ frame_needed = 0, uses_anonymous_args = 0
 681              	.LVL63:
 682 0000 2DE9F041 		push	{r4, r5, r6, r7, r8, lr}
 683              	.LCFI8:
 684              		.cfi_def_cfa_offset 24
 685              		.cfi_offset 4, -24
 686              		.cfi_offset 5, -20
 687              		.cfi_offset 6, -16
 688              		.cfi_offset 7, -12
 689              		.cfi_offset 8, -8
 690              		.cfi_offset 14, -4
 691              	.LBB29:
 692              		.loc 1 327 0
 693 0004 2023     		movs	r3, #32
 694              	.LVL64:
 695              	.LBE29:
 696              		.loc 1 325 0
 697 0006 0446     		mov	r4, r0
 698 0008 8846     		mov	r8, r1
 699 000a 1646     		mov	r6, r2
 700              	.LBB30:
 701              		.loc 1 327 0
 702              	@ 327 "../../os/kernel/src/chqueues.c" 1
 703 000c 83F31188 		msr     BASEPRI, r3
 704              	@ 0 "" 2
 705              	.LVL65:
 706              		.thumb
 707              	.LBE30:
 708 0010 FFF7FEFF 		bl	dbg_check_lock
 709              	.LVL66:
 710              	.L60:
 711              		.loc 1 328 0 discriminator 1
 712 0014 A568     		ldr	r5, [r4, #8]
 713              	.LBB31:
 714              		.loc 1 331 0 discriminator 1
 715 0016 2046     		mov	r0, r4
 716 0018 3146     		mov	r1, r6
 717              	.LBE31:
 718              		.loc 1 328 0 discriminator 1
 719 001a 5DB9     		cbnz	r5, .L69
 720              	.LVL67:
 721              	.LBB33:
 722              		.loc 1 331 0
 723 001c FFF7FEFF 		bl	qwait
 724              	.LVL68:
 725 0020 071E     		subs	r7, r0, #0
 726 0022 F7DA     		bge	.L60
 727              		.loc 1 332 0
 728 0024 FFF7FEFF 		bl	dbg_check_unlock
 729              	.LVL69:
 730              	.LBB32:
 731 0028 2B46     		mov	r3, r5
 732              	.LVL70:
 733              	@ 332 "../../os/kernel/src/chqueues.c" 1
 734 002a 83F31188 		msr     BASEPRI, r3
ARM GAS  /tmp/ccRbkbhA.s 			page 14


 735              	@ 0 "" 2
 736              	.LVL71:
 737              		.thumb
 738              	.LBE32:
 739              	.LBE33:
 740              		.loc 1 347 0
 741 002e 3846     		mov	r0, r7
 742 0030 BDE8F081 		pop	{r4, r5, r6, r7, r8, pc}
 743              	.LVL72:
 744              	.L69:
 745              		.loc 1 338 0
 746 0034 6369     		ldr	r3, [r4, #20]
 747              		.loc 1 337 0
 748 0036 013D     		subs	r5, r5, #1
 749 0038 A560     		str	r5, [r4, #8]
 750              		.loc 1 338 0
 751 003a 03F8018B 		strb	r8, [r3], #1
 752              		.loc 1 339 0
 753 003e 2269     		ldr	r2, [r4, #16]
 754              		.loc 1 338 0
 755 0040 6361     		str	r3, [r4, #20]
 756              		.loc 1 339 0
 757 0042 9342     		cmp	r3, r2
 758              		.loc 1 340 0
 759 0044 28BF     		it	cs
 760 0046 E368     		ldrcs	r3, [r4, #12]
 761              		.loc 1 342 0
 762 0048 E169     		ldr	r1, [r4, #28]
 763              	.LVL73:
 764              		.loc 1 340 0
 765 004a 28BF     		it	cs
 766 004c 6361     		strcs	r3, [r4, #20]
 767              		.loc 1 342 0
 768 004e 09B1     		cbz	r1, .L64
 769              		.loc 1 343 0
 770 0050 2046     		mov	r0, r4
 771              	.LVL74:
 772 0052 8847     		blx	r1
 773              	.LVL75:
 774              	.L64:
 775              		.loc 1 345 0
 776 0054 FFF7FEFF 		bl	dbg_check_unlock
 777              	.LVL76:
 778              	.LBB34:
 779 0058 0023     		movs	r3, #0
 780              	.LVL77:
 781              	@ 345 "../../os/kernel/src/chqueues.c" 1
 782 005a 83F31188 		msr     BASEPRI, r3
 783              	@ 0 "" 2
 784              	.LVL78:
 785              		.thumb
 786              	.LBE34:
 787              		.loc 1 346 0
 788 005e 1F46     		mov	r7, r3
 789              		.loc 1 347 0
 790 0060 3846     		mov	r0, r7
 791 0062 BDE8F081 		pop	{r4, r5, r6, r7, r8, pc}
ARM GAS  /tmp/ccRbkbhA.s 			page 15


 792              		.cfi_endproc
 793              	.LFE15:
 794              		.size	chOQPutTimeout, .-chOQPutTimeout
 795 0066 00BFAFF3 		.section	.text.chOQGetI,"ax",%progbits
 795      0080AFF3 
 795      0080
 796              		.align	2
 797              		.p2align 4,,15
 798              		.global	chOQGetI
 799              		.thumb
 800              		.thumb_func
 801              		.type	chOQGetI, %function
 802              	chOQGetI:
 803              	.LFB16:
 804              		.loc 1 359 0
 805              		.cfi_startproc
 806              		@ args = 0, pretend = 0, frame = 0
 807              		@ frame_needed = 0, uses_anonymous_args = 0
 808              	.LVL79:
 809 0000 38B5     		push	{r3, r4, r5, lr}
 810              	.LCFI9:
 811              		.cfi_def_cfa_offset 16
 812              		.cfi_offset 3, -16
 813              		.cfi_offset 4, -12
 814              		.cfi_offset 5, -8
 815              		.cfi_offset 14, -4
 816              		.loc 1 359 0
 817 0002 0446     		mov	r4, r0
 818              		.loc 1 362 0
 819 0004 FFF7FEFF 		bl	chDbgCheckClassI
 820              	.LVL80:
 821              		.loc 1 364 0
 822 0008 A369     		ldr	r3, [r4, #24]
 823 000a 6269     		ldr	r2, [r4, #20]
 824 000c A068     		ldr	r0, [r4, #8]
 825 000e 9A42     		cmp	r2, r3
 826 0010 16D0     		beq	.L71
 827              	.L72:
 828              		.loc 1 367 0
 829 0012 411C     		adds	r1, r0, #1
 830 0014 A160     		str	r1, [r4, #8]
 831              		.loc 1 368 0
 832 0016 13F8015B 		ldrb	r5, [r3], #1	@ zero_extendqisi2
 833              	.LVL81:
 834              		.loc 1 369 0
 835 001a 2269     		ldr	r2, [r4, #16]
 836              		.loc 1 368 0
 837 001c A361     		str	r3, [r4, #24]
 838              		.loc 1 369 0
 839 001e 9342     		cmp	r3, r2
 840              		.loc 1 370 0
 841 0020 28BF     		it	cs
 842 0022 E368     		ldrcs	r3, [r4, #12]
 843              		.loc 1 372 0
 844 0024 2068     		ldr	r0, [r4, #0]
 845              		.loc 1 370 0
 846 0026 28BF     		it	cs
ARM GAS  /tmp/ccRbkbhA.s 			page 16


 847 0028 A361     		strcs	r3, [r4, #24]
 848              		.loc 1 372 0
 849 002a A042     		cmp	r0, r4
 850 002c 06D0     		beq	.L75
 851              	.LVL82:
 852              	.LBB35:
 853              	.LBB36:
 854              		.loc 2 62 0
 855 002e 0368     		ldr	r3, [r0, #0]
 856 0030 2360     		str	r3, [r4, #0]
 857 0032 5C60     		str	r4, [r3, #4]
 858              	.LBE36:
 859              	.LBE35:
 860              		.loc 1 373 0
 861 0034 FFF7FEFF 		bl	chSchReadyI
 862              	.LVL83:
 863 0038 0021     		movs	r1, #0
 864 003a 8162     		str	r1, [r0, #40]
 865              	.LVL84:
 866              	.L75:
 867              		.loc 1 375 0
 868 003c 2846     		mov	r0, r5
 869 003e 38BD     		pop	{r3, r4, r5, pc}
 870              	.LVL85:
 871              	.L71:
 872              		.loc 1 364 0 discriminator 1
 873 0040 0028     		cmp	r0, #0
 874 0042 E6D0     		beq	.L72
 875              		.loc 1 365 0
 876 0044 6FF00200 		mvn	r0, #2
 877              		.loc 1 376 0
 878 0048 38BD     		pop	{r3, r4, r5, pc}
 879              		.cfi_endproc
 880              	.LFE16:
 881              		.size	chOQGetI, .-chOQGetI
 882              		.section	.text.chOQWriteTimeout,"ax",%progbits
 883              		.align	2
 884              		.p2align 4,,15
 885              		.global	chOQWriteTimeout
 886              		.thumb
 887              		.thumb_func
 888              		.type	chOQWriteTimeout, %function
 889              	chOQWriteTimeout:
 890              	.LFB17:
 891              		.loc 1 403 0
 892              		.cfi_startproc
 893              		@ args = 0, pretend = 0, frame = 0
 894              		@ frame_needed = 0, uses_anonymous_args = 0
 895              	.LVL86:
 896 0000 2DE9F047 		push	{r4, r5, r6, r7, r8, r9, sl, lr}
 897              	.LCFI10:
 898              		.cfi_def_cfa_offset 32
 899              		.cfi_offset 4, -32
 900              		.cfi_offset 5, -28
 901              		.cfi_offset 6, -24
 902              		.cfi_offset 7, -20
 903              		.cfi_offset 8, -16
ARM GAS  /tmp/ccRbkbhA.s 			page 17


 904              		.cfi_offset 9, -12
 905              		.cfi_offset 10, -8
 906              		.cfi_offset 14, -4
 907              		.loc 1 403 0
 908 0004 0446     		mov	r4, r0
 909              		.loc 1 407 0
 910 0006 1646     		mov	r6, r2
 911              		.loc 1 403 0
 912 0008 8846     		mov	r8, r1
 913 000a 9A46     		mov	sl, r3
 914              		.loc 1 404 0
 915 000c D0F81C90 		ldr	r9, [r0, #28]
 916              	.LVL87:
 917              		.loc 1 407 0
 918 0010 002A     		cmp	r2, #0
 919 0012 39D0     		beq	.L97
 920              	.LVL88:
 921              	.L78:
 922              	.LBB37:
 923              		.loc 1 409 0
 924 0014 2023     		movs	r3, #32
 925              	.LVL89:
 926              	@ 409 "../../os/kernel/src/chqueues.c" 1
 927 0016 83F31188 		msr     BASEPRI, r3
 928              	@ 0 "" 2
 929              	.LVL90:
 930              		.thumb
 931              	.LBE37:
 932 001a FFF7FEFF 		bl	dbg_check_lock
 933              	.LVL91:
 934              		.loc 1 405 0
 935 001e 0027     		movs	r7, #0
 936              	.LVL92:
 937              	.L96:
 938              		.loc 1 411 0 discriminator 1
 939 0020 A568     		ldr	r5, [r4, #8]
 940              		.loc 1 423 0 discriminator 1
 941 0022 2046     		mov	r0, r4
 942              		.loc 1 417 0 discriminator 1
 943 0024 6B1E     		subs	r3, r5, #1
 944              		.loc 1 411 0 discriminator 1
 945 0026 0DB3     		cbz	r5, .L82
 946              	.LVL93:
 947              	.L98:
 948              		.loc 1 417 0
 949 0028 A360     		str	r3, [r4, #8]
 950              		.loc 1 418 0
 951 002a 6569     		ldr	r5, [r4, #20]
 952 002c 18F8011B 		ldrb	r1, [r8], #1	@ zero_extendqisi2
 953              	.LVL94:
 954 0030 05F8011B 		strb	r1, [r5], #1
 955              		.loc 1 419 0
 956 0034 2269     		ldr	r2, [r4, #16]
 957              		.loc 1 418 0
 958 0036 6561     		str	r5, [r4, #20]
 959              	.LVL95:
 960              		.loc 1 419 0
ARM GAS  /tmp/ccRbkbhA.s 			page 18


 961 0038 9542     		cmp	r5, r2
 962              		.loc 1 420 0
 963 003a 24BF     		itt	cs
 964 003c E268     		ldrcs	r2, [r4, #12]
 965 003e 6261     		strcs	r2, [r4, #20]
 966              		.loc 1 422 0
 967 0040 B9F1000F 		cmp	r9, #0
 968 0044 00D0     		beq	.L84
 969              		.loc 1 423 0
 970 0046 C847     		blx	r9
 971              	.LVL96:
 972              	.L84:
 973              		.loc 1 425 0
 974 0048 FFF7FEFF 		bl	dbg_check_unlock
 975              	.LVL97:
 976              	.LBB38:
 977 004c 0023     		movs	r3, #0
 978              	.LVL98:
 979              	@ 425 "../../os/kernel/src/chqueues.c" 1
 980 004e 83F31188 		msr     BASEPRI, r3
 981              	@ 0 "" 2
 982              	.LVL99:
 983              		.thumb
 984              	.LBE38:
 985              		.loc 1 426 0
 986 0052 0137     		adds	r7, r7, #1
 987              	.LVL100:
 988              		.loc 1 427 0
 989 0054 013E     		subs	r6, r6, #1
 990              	.LVL101:
 991 0056 14D0     		beq	.L81
 992              	.LBB39:
 993              		.loc 1 429 0
 994 0058 2023     		movs	r3, #32
 995              	.LVL102:
 996              	@ 429 "../../os/kernel/src/chqueues.c" 1
 997 005a 83F31188 		msr     BASEPRI, r3
 998              	@ 0 "" 2
 999              	.LVL103:
 1000              		.thumb
 1001              	.LBE39:
 1002 005e FFF7FEFF 		bl	dbg_check_lock
 1003              	.LVL104:
 1004              		.loc 1 411 0
 1005 0062 A568     		ldr	r5, [r4, #8]
 1006              		.loc 1 423 0
 1007 0064 2046     		mov	r0, r4
 1008              		.loc 1 417 0
 1009 0066 6B1E     		subs	r3, r5, #1
 1010              		.loc 1 411 0
 1011 0068 002D     		cmp	r5, #0
 1012 006a DDD1     		bne	.L98
 1013              	.LVL105:
 1014              	.L82:
 1015              		.loc 1 412 0
 1016 006c 2046     		mov	r0, r4
 1017              	.LVL106:
ARM GAS  /tmp/ccRbkbhA.s 			page 19


 1018 006e 5146     		mov	r1, sl
 1019 0070 FFF7FEFF 		bl	qwait
 1020              	.LVL107:
 1021 0074 0028     		cmp	r0, #0
 1022 0076 D3D0     		beq	.L96
 1023              		.loc 1 413 0
 1024 0078 FFF7FEFF 		bl	dbg_check_unlock
 1025              	.LVL108:
 1026              	.LBB40:
 1027 007c 2B46     		mov	r3, r5
 1028              	.LVL109:
 1029              	@ 413 "../../os/kernel/src/chqueues.c" 1
 1030 007e 83F31188 		msr     BASEPRI, r3
 1031              	@ 0 "" 2
 1032              	.LVL110:
 1033              		.thumb
 1034              	.L81:
 1035              	.LBE40:
 1036              		.loc 1 431 0
 1037 0082 3846     		mov	r0, r7
 1038 0084 BDE8F087 		pop	{r4, r5, r6, r7, r8, r9, sl, pc}
 1039              	.LVL111:
 1040              	.L97:
 1041              		.loc 1 407 0 discriminator 1
 1042 0088 0148     		ldr	r0, .L99
 1043              	.LVL112:
 1044 008a FFF7FEFF 		bl	chDbgPanic
 1045              	.LVL113:
 1046 008e C1E7     		b	.L78
 1047              	.L100:
 1048              		.align	2
 1049              	.L99:
 1050 0090 14000000 		.word	.LC1
 1051              		.cfi_endproc
 1052              	.LFE17:
 1053              		.size	chOQWriteTimeout, .-chOQWriteTimeout
 1054 0094 AFF30080 		.section	.rodata.str1.4,"aMS",%progbits,1
 1054      AFF30080 
 1054      AFF30080 
 1055              		.align	2
 1056              	.LC0:
 1057 0000 22636849 		.ascii	"\"chIQReadTimeout\"()\000"
 1057      51526561 
 1057      6454696D 
 1057      656F7574 
 1057      22282900 
 1058              	.LC1:
 1059 0014 2263684F 		.ascii	"\"chOQWriteTimeout\"()\000"
 1059      51577269 
 1059      74655469 
 1059      6D656F75 
 1059      74222829 
 1060 0029 000000   		.text
 1061              	.Letext0:
 1062              		.file 3 "/usr/bin/../lib/gcc/arm-none-eabi/4.7.4/include/stddef.h"
 1063              		.file 4 "/usr/bin/../lib/gcc/arm-none-eabi/4.7.4/../../../../arm-none-eabi/include/stdint.h"
 1064              		.file 5 "../../os/ports/GCC/ARMCMx/chtypes.h"
ARM GAS  /tmp/ccRbkbhA.s 			page 20


 1065              		.file 6 "../../os/kernel/include/chlists.h"
 1066              		.file 7 "../../os/kernel/include/chthreads.h"
 1067              		.file 8 "../../os/ports/GCC/ARMCMx/chcore_v7m.h"
 1068              		.file 9 "../../os/kernel/include/chschd.h"
 1069              		.file 10 "../../os/kernel/include/chmtx.h"
 1070              		.file 11 "../../os/kernel/include/chqueues.h"
 1071              		.file 12 "../../os/kernel/include/chdebug.h"
 1072              		.section	.debug_info,"",%progbits
 1073              	.Ldebug_info0:
 1074 0000 8C0D0000 		.4byte	0xd8c
 1075 0004 0200     		.2byte	0x2
 1076 0006 00000000 		.4byte	.Ldebug_abbrev0
 1077 000a 04       		.byte	0x4
 1078 000b 01       		.uleb128 0x1
 1079 000c E7010000 		.4byte	.LASF97
 1080 0010 01       		.byte	0x1
 1081 0011 9F010000 		.4byte	.LASF98
 1082 0015 BE020000 		.4byte	.LASF99
 1083 0019 48000000 		.4byte	.Ldebug_ranges0+0x48
 1084 001d 00000000 		.4byte	0
 1085 0021 00000000 		.4byte	0
 1086 0025 00000000 		.4byte	.Ldebug_line0
 1087 0029 02       		.uleb128 0x2
 1088 002a 04       		.byte	0x4
 1089 002b 05       		.byte	0x5
 1090 002c 696E7400 		.ascii	"int\000"
 1091 0030 03       		.uleb128 0x3
 1092 0031 21000000 		.4byte	.LASF2
 1093 0035 03       		.byte	0x3
 1094 0036 D5       		.byte	0xd5
 1095 0037 3B000000 		.4byte	0x3b
 1096 003b 04       		.uleb128 0x4
 1097 003c 04       		.byte	0x4
 1098 003d 07       		.byte	0x7
 1099 003e 3E010000 		.4byte	.LASF0
 1100 0042 04       		.uleb128 0x4
 1101 0043 01       		.byte	0x1
 1102 0044 06       		.byte	0x6
 1103 0045 A7000000 		.4byte	.LASF1
 1104 0049 03       		.uleb128 0x3
 1105 004a 23040000 		.4byte	.LASF3
 1106 004e 04       		.byte	0x4
 1107 004f 2A       		.byte	0x2a
 1108 0050 54000000 		.4byte	0x54
 1109 0054 04       		.uleb128 0x4
 1110 0055 01       		.byte	0x1
 1111 0056 08       		.byte	0x8
 1112 0057 29030000 		.4byte	.LASF4
 1113 005b 04       		.uleb128 0x4
 1114 005c 02       		.byte	0x2
 1115 005d 05       		.byte	0x5
 1116 005e 41030000 		.4byte	.LASF5
 1117 0062 04       		.uleb128 0x4
 1118 0063 02       		.byte	0x2
 1119 0064 07       		.byte	0x7
 1120 0065 75010000 		.4byte	.LASF6
 1121 0069 03       		.uleb128 0x3
ARM GAS  /tmp/ccRbkbhA.s 			page 21


 1122 006a 21030000 		.4byte	.LASF7
 1123 006e 04       		.byte	0x4
 1124 006f 4F       		.byte	0x4f
 1125 0070 74000000 		.4byte	0x74
 1126 0074 04       		.uleb128 0x4
 1127 0075 04       		.byte	0x4
 1128 0076 05       		.byte	0x5
 1129 0077 D0000000 		.4byte	.LASF8
 1130 007b 03       		.uleb128 0x3
 1131 007c 8A030000 		.4byte	.LASF9
 1132 0080 04       		.byte	0x4
 1133 0081 50       		.byte	0x50
 1134 0082 86000000 		.4byte	0x86
 1135 0086 04       		.uleb128 0x4
 1136 0087 04       		.byte	0x4
 1137 0088 07       		.byte	0x7
 1138 0089 56010000 		.4byte	.LASF10
 1139 008d 04       		.uleb128 0x4
 1140 008e 08       		.byte	0x8
 1141 008f 05       		.byte	0x5
 1142 0090 99000000 		.4byte	.LASF11
 1143 0094 03       		.uleb128 0x3
 1144 0095 38000000 		.4byte	.LASF12
 1145 0099 04       		.byte	0x4
 1146 009a 78       		.byte	0x78
 1147 009b 9F000000 		.4byte	0x9f
 1148 009f 04       		.uleb128 0x4
 1149 00a0 08       		.byte	0x8
 1150 00a1 07       		.byte	0x7
 1151 00a2 5D000000 		.4byte	.LASF13
 1152 00a6 03       		.uleb128 0x3
 1153 00a7 BB000000 		.4byte	.LASF14
 1154 00ab 05       		.byte	0x5
 1155 00ac 2E       		.byte	0x2e
 1156 00ad 69000000 		.4byte	0x69
 1157 00b1 03       		.uleb128 0x3
 1158 00b2 68030000 		.4byte	.LASF15
 1159 00b6 05       		.byte	0x5
 1160 00b7 2F       		.byte	0x2f
 1161 00b8 49000000 		.4byte	0x49
 1162 00bc 03       		.uleb128 0x3
 1163 00bd D9000000 		.4byte	.LASF16
 1164 00c1 05       		.byte	0x5
 1165 00c2 30       		.byte	0x30
 1166 00c3 49000000 		.4byte	0x49
 1167 00c7 03       		.uleb128 0x3
 1168 00c8 F8020000 		.4byte	.LASF17
 1169 00cc 05       		.byte	0x5
 1170 00cd 31       		.byte	0x31
 1171 00ce 49000000 		.4byte	0x49
 1172 00d2 03       		.uleb128 0x3
 1173 00d3 11030000 		.4byte	.LASF18
 1174 00d7 05       		.byte	0x5
 1175 00d8 32       		.byte	0x32
 1176 00d9 7B000000 		.4byte	0x7b
 1177 00dd 03       		.uleb128 0x3
 1178 00de 88010000 		.4byte	.LASF19
ARM GAS  /tmp/ccRbkbhA.s 			page 22


 1179 00e2 05       		.byte	0x5
 1180 00e3 33       		.byte	0x33
 1181 00e4 69000000 		.4byte	0x69
 1182 00e8 03       		.uleb128 0x3
 1183 00e9 CA010000 		.4byte	.LASF20
 1184 00ed 05       		.byte	0x5
 1185 00ee 35       		.byte	0x35
 1186 00ef 7B000000 		.4byte	0x7b
 1187 00f3 03       		.uleb128 0x3
 1188 00f4 BF030000 		.4byte	.LASF21
 1189 00f8 05       		.byte	0x5
 1190 00f9 36       		.byte	0x36
 1191 00fa 7B000000 		.4byte	0x7b
 1192 00fe 03       		.uleb128 0x3
 1193 00ff 2D010000 		.4byte	.LASF22
 1194 0103 05       		.byte	0x5
 1195 0104 37       		.byte	0x37
 1196 0105 69000000 		.4byte	0x69
 1197 0109 03       		.uleb128 0x3
 1198 010a 78030000 		.4byte	.LASF23
 1199 010e 06       		.byte	0x6
 1200 010f 2A       		.byte	0x2a
 1201 0110 14010000 		.4byte	0x114
 1202 0114 05       		.uleb128 0x5
 1203 0115 78030000 		.4byte	.LASF23
 1204 0119 4C       		.byte	0x4c
 1205 011a 07       		.byte	0x7
 1206 011b 5E       		.byte	0x5e
 1207 011c 39020000 		.4byte	0x239
 1208 0120 06       		.uleb128 0x6
 1209 0121 61030000 		.4byte	.LASF24
 1210 0125 07       		.byte	0x7
 1211 0126 5F       		.byte	0x5f
 1212 0127 5E020000 		.4byte	0x25e
 1213 012b 02       		.byte	0x2
 1214 012c 23       		.byte	0x23
 1215 012d 00       		.uleb128 0
 1216 012e 06       		.uleb128 0x6
 1217 012f 0A030000 		.4byte	.LASF25
 1218 0133 07       		.byte	0x7
 1219 0134 61       		.byte	0x61
 1220 0135 5E020000 		.4byte	0x25e
 1221 0139 02       		.byte	0x2
 1222 013a 23       		.byte	0x23
 1223 013b 04       		.uleb128 0x4
 1224 013c 06       		.uleb128 0x6
 1225 013d 88000000 		.4byte	.LASF26
 1226 0141 07       		.byte	0x7
 1227 0142 63       		.byte	0x63
 1228 0143 D2000000 		.4byte	0xd2
 1229 0147 02       		.byte	0x2
 1230 0148 23       		.byte	0x23
 1231 0149 08       		.uleb128 0x8
 1232 014a 06       		.uleb128 0x6
 1233 014b 60040000 		.4byte	.LASF27
 1234 014f 07       		.byte	0x7
 1235 0150 64       		.byte	0x64
ARM GAS  /tmp/ccRbkbhA.s 			page 23


 1236 0151 36030000 		.4byte	0x336
 1237 0155 02       		.byte	0x2
 1238 0156 23       		.byte	0x23
 1239 0157 0C       		.uleb128 0xc
 1240 0158 06       		.uleb128 0x6
 1241 0159 FC000000 		.4byte	.LASF28
 1242 015d 07       		.byte	0x7
 1243 015e 66       		.byte	0x66
 1244 015f 5E020000 		.4byte	0x25e
 1245 0163 02       		.byte	0x2
 1246 0164 23       		.byte	0x23
 1247 0165 10       		.uleb128 0x10
 1248 0166 06       		.uleb128 0x6
 1249 0167 8C020000 		.4byte	.LASF29
 1250 016b 07       		.byte	0x7
 1251 016c 67       		.byte	0x67
 1252 016d 5E020000 		.4byte	0x25e
 1253 0171 02       		.byte	0x2
 1254 0172 23       		.byte	0x23
 1255 0173 14       		.uleb128 0x14
 1256 0174 06       		.uleb128 0x6
 1257 0175 32040000 		.4byte	.LASF30
 1258 0179 07       		.byte	0x7
 1259 017a 6E       		.byte	0x6e
 1260 017b 58040000 		.4byte	0x458
 1261 017f 02       		.byte	0x2
 1262 0180 23       		.byte	0x23
 1263 0181 18       		.uleb128 0x18
 1264 0182 06       		.uleb128 0x6
 1265 0183 33010000 		.4byte	.LASF31
 1266 0187 07       		.byte	0x7
 1267 0188 74       		.byte	0x74
 1268 0189 6A040000 		.4byte	0x46a
 1269 018d 02       		.byte	0x2
 1270 018e 23       		.byte	0x23
 1271 018f 1C       		.uleb128 0x1c
 1272 0190 06       		.uleb128 0x6
 1273 0191 4B030000 		.4byte	.LASF32
 1274 0195 07       		.byte	0x7
 1275 0196 79       		.byte	0x79
 1276 0197 BC000000 		.4byte	0xbc
 1277 019b 02       		.byte	0x2
 1278 019c 23       		.byte	0x23
 1279 019d 20       		.uleb128 0x20
 1280 019e 06       		.uleb128 0x6
 1281 019f 70030000 		.4byte	.LASF33
 1282 01a3 07       		.byte	0x7
 1283 01a4 7D       		.byte	0x7d
 1284 01a5 B1000000 		.4byte	0xb1
 1285 01a9 02       		.byte	0x2
 1286 01aa 23       		.byte	0x23
 1287 01ab 21       		.uleb128 0x21
 1288 01ac 06       		.uleb128 0x6
 1289 01ad 03040000 		.4byte	.LASF34
 1290 01b1 07       		.byte	0x7
 1291 01b2 82       		.byte	0x82
 1292 01b3 C7000000 		.4byte	0xc7
ARM GAS  /tmp/ccRbkbhA.s 			page 24


 1293 01b7 02       		.byte	0x2
 1294 01b8 23       		.byte	0x23
 1295 01b9 22       		.uleb128 0x22
 1296 01ba 06       		.uleb128 0x6
 1297 01bb E4030000 		.4byte	.LASF35
 1298 01bf 07       		.byte	0x7
 1299 01c0 89       		.byte	0x89
 1300 01c1 60030000 		.4byte	0x360
 1301 01c5 02       		.byte	0x2
 1302 01c6 23       		.byte	0x23
 1303 01c7 24       		.uleb128 0x24
 1304 01c8 07       		.uleb128 0x7
 1305 01c9 705F7500 		.ascii	"p_u\000"
 1306 01cd 07       		.byte	0x7
 1307 01ce AE       		.byte	0xae
 1308 01cf 23040000 		.4byte	0x423
 1309 01d3 02       		.byte	0x2
 1310 01d4 23       		.byte	0x23
 1311 01d5 28       		.uleb128 0x28
 1312 01d6 06       		.uleb128 0x6
 1313 01d7 66040000 		.4byte	.LASF36
 1314 01db 07       		.byte	0x7
 1315 01dc B3       		.byte	0xb3
 1316 01dd 86020000 		.4byte	0x286
 1317 01e1 02       		.byte	0x2
 1318 01e2 23       		.byte	0x23
 1319 01e3 2C       		.uleb128 0x2c
 1320 01e4 06       		.uleb128 0x6
 1321 01e5 F2030000 		.4byte	.LASF37
 1322 01e9 07       		.byte	0x7
 1323 01ea B9       		.byte	0xb9
 1324 01eb 64020000 		.4byte	0x264
 1325 01ef 02       		.byte	0x2
 1326 01f0 23       		.byte	0x23
 1327 01f1 30       		.uleb128 0x30
 1328 01f2 06       		.uleb128 0x6
 1329 01f3 09000000 		.4byte	.LASF38
 1330 01f7 07       		.byte	0x7
 1331 01f8 BD       		.byte	0xbd
 1332 01f9 DD000000 		.4byte	0xdd
 1333 01fd 02       		.byte	0x2
 1334 01fe 23       		.byte	0x23
 1335 01ff 38       		.uleb128 0x38
 1336 0200 06       		.uleb128 0x6
 1337 0201 7F030000 		.4byte	.LASF39
 1338 0205 07       		.byte	0x7
 1339 0206 C3       		.byte	0xc3
 1340 0207 E8000000 		.4byte	0xe8
 1341 020b 02       		.byte	0x2
 1342 020c 23       		.byte	0x23
 1343 020d 3C       		.uleb128 0x3c
 1344 020e 06       		.uleb128 0x6
 1345 020f 37030000 		.4byte	.LASF40
 1346 0213 07       		.byte	0x7
 1347 0214 CA       		.byte	0xca
 1348 0215 70040000 		.4byte	0x470
 1349 0219 02       		.byte	0x2
ARM GAS  /tmp/ccRbkbhA.s 			page 25


 1350 021a 23       		.byte	0x23
 1351 021b 40       		.uleb128 0x40
 1352 021c 06       		.uleb128 0x6
 1353 021d C9030000 		.4byte	.LASF41
 1354 0221 07       		.byte	0x7
 1355 0222 CE       		.byte	0xce
 1356 0223 D2000000 		.4byte	0xd2
 1357 0227 02       		.byte	0x2
 1358 0228 23       		.byte	0x23
 1359 0229 44       		.uleb128 0x44
 1360 022a 06       		.uleb128 0x6
 1361 022b B3000000 		.4byte	.LASF42
 1362 022f 07       		.byte	0x7
 1363 0230 D4       		.byte	0xd4
 1364 0231 9C020000 		.4byte	0x29c
 1365 0235 02       		.byte	0x2
 1366 0236 23       		.byte	0x23
 1367 0237 48       		.uleb128 0x48
 1368 0238 00       		.byte	0
 1369 0239 08       		.uleb128 0x8
 1370 023a 08       		.byte	0x8
 1371 023b 06       		.byte	0x6
 1372 023c 61       		.byte	0x61
 1373 023d 5E020000 		.4byte	0x25e
 1374 0241 06       		.uleb128 0x6
 1375 0242 61030000 		.4byte	.LASF24
 1376 0246 06       		.byte	0x6
 1377 0247 62       		.byte	0x62
 1378 0248 5E020000 		.4byte	0x25e
 1379 024c 02       		.byte	0x2
 1380 024d 23       		.byte	0x23
 1381 024e 00       		.uleb128 0
 1382 024f 06       		.uleb128 0x6
 1383 0250 0A030000 		.4byte	.LASF25
 1384 0254 06       		.byte	0x6
 1385 0255 64       		.byte	0x64
 1386 0256 5E020000 		.4byte	0x25e
 1387 025a 02       		.byte	0x2
 1388 025b 23       		.byte	0x23
 1389 025c 04       		.uleb128 0x4
 1390 025d 00       		.byte	0
 1391 025e 09       		.uleb128 0x9
 1392 025f 04       		.byte	0x4
 1393 0260 09010000 		.4byte	0x109
 1394 0264 03       		.uleb128 0x3
 1395 0265 9A020000 		.4byte	.LASF43
 1396 0269 06       		.byte	0x6
 1397 026a 66       		.byte	0x66
 1398 026b 39020000 		.4byte	0x239
 1399 026f 08       		.uleb128 0x8
 1400 0270 04       		.byte	0x4
 1401 0271 06       		.byte	0x6
 1402 0272 6B       		.byte	0x6b
 1403 0273 86020000 		.4byte	0x286
 1404 0277 06       		.uleb128 0x6
 1405 0278 61030000 		.4byte	.LASF24
 1406 027c 06       		.byte	0x6
ARM GAS  /tmp/ccRbkbhA.s 			page 26


 1407 027d 6D       		.byte	0x6d
 1408 027e 5E020000 		.4byte	0x25e
 1409 0282 02       		.byte	0x2
 1410 0283 23       		.byte	0x23
 1411 0284 00       		.uleb128 0
 1412 0285 00       		.byte	0
 1413 0286 03       		.uleb128 0x3
 1414 0287 BE010000 		.4byte	.LASF44
 1415 028b 06       		.byte	0x6
 1416 028c 70       		.byte	0x70
 1417 028d 6F020000 		.4byte	0x26f
 1418 0291 03       		.uleb128 0x3
 1419 0292 0C010000 		.4byte	.LASF45
 1420 0296 08       		.byte	0x8
 1421 0297 D7       		.byte	0xd7
 1422 0298 9C020000 		.4byte	0x29c
 1423 029c 0A       		.uleb128 0xa
 1424 029d 04       		.byte	0x4
 1425 029e 03       		.uleb128 0x3
 1426 029f 3D020000 		.4byte	.LASF46
 1427 02a3 08       		.byte	0x8
 1428 02a4 DD       		.byte	0xdd
 1429 02a5 94000000 		.4byte	0x94
 1430 02a9 05       		.uleb128 0x5
 1431 02aa EB030000 		.4byte	.LASF47
 1432 02ae 24       		.byte	0x24
 1433 02af 08       		.byte	0x8
 1434 02b0 FE       		.byte	0xfe
 1435 02b1 36030000 		.4byte	0x336
 1436 02b5 0B       		.uleb128 0xb
 1437 02b6 723400   		.ascii	"r4\000"
 1438 02b9 08       		.byte	0x8
 1439 02ba 1101     		.2byte	0x111
 1440 02bc 91020000 		.4byte	0x291
 1441 02c0 02       		.byte	0x2
 1442 02c1 23       		.byte	0x23
 1443 02c2 00       		.uleb128 0
 1444 02c3 0B       		.uleb128 0xb
 1445 02c4 723500   		.ascii	"r5\000"
 1446 02c7 08       		.byte	0x8
 1447 02c8 1201     		.2byte	0x112
 1448 02ca 91020000 		.4byte	0x291
 1449 02ce 02       		.byte	0x2
 1450 02cf 23       		.byte	0x23
 1451 02d0 04       		.uleb128 0x4
 1452 02d1 0B       		.uleb128 0xb
 1453 02d2 723600   		.ascii	"r6\000"
 1454 02d5 08       		.byte	0x8
 1455 02d6 1301     		.2byte	0x113
 1456 02d8 91020000 		.4byte	0x291
 1457 02dc 02       		.byte	0x2
 1458 02dd 23       		.byte	0x23
 1459 02de 08       		.uleb128 0x8
 1460 02df 0B       		.uleb128 0xb
 1461 02e0 723700   		.ascii	"r7\000"
 1462 02e3 08       		.byte	0x8
 1463 02e4 1401     		.2byte	0x114
ARM GAS  /tmp/ccRbkbhA.s 			page 27


 1464 02e6 91020000 		.4byte	0x291
 1465 02ea 02       		.byte	0x2
 1466 02eb 23       		.byte	0x23
 1467 02ec 0C       		.uleb128 0xc
 1468 02ed 0B       		.uleb128 0xb
 1469 02ee 723800   		.ascii	"r8\000"
 1470 02f1 08       		.byte	0x8
 1471 02f2 1501     		.2byte	0x115
 1472 02f4 91020000 		.4byte	0x291
 1473 02f8 02       		.byte	0x2
 1474 02f9 23       		.byte	0x23
 1475 02fa 10       		.uleb128 0x10
 1476 02fb 0B       		.uleb128 0xb
 1477 02fc 723900   		.ascii	"r9\000"
 1478 02ff 08       		.byte	0x8
 1479 0300 1601     		.2byte	0x116
 1480 0302 91020000 		.4byte	0x291
 1481 0306 02       		.byte	0x2
 1482 0307 23       		.byte	0x23
 1483 0308 14       		.uleb128 0x14
 1484 0309 0B       		.uleb128 0xb
 1485 030a 72313000 		.ascii	"r10\000"
 1486 030e 08       		.byte	0x8
 1487 030f 1701     		.2byte	0x117
 1488 0311 91020000 		.4byte	0x291
 1489 0315 02       		.byte	0x2
 1490 0316 23       		.byte	0x23
 1491 0317 18       		.uleb128 0x18
 1492 0318 0B       		.uleb128 0xb
 1493 0319 72313100 		.ascii	"r11\000"
 1494 031d 08       		.byte	0x8
 1495 031e 1801     		.2byte	0x118
 1496 0320 91020000 		.4byte	0x291
 1497 0324 02       		.byte	0x2
 1498 0325 23       		.byte	0x23
 1499 0326 1C       		.uleb128 0x1c
 1500 0327 0B       		.uleb128 0xb
 1501 0328 6C7200   		.ascii	"lr\000"
 1502 032b 08       		.byte	0x8
 1503 032c 1901     		.2byte	0x119
 1504 032e 91020000 		.4byte	0x291
 1505 0332 02       		.byte	0x2
 1506 0333 23       		.byte	0x23
 1507 0334 20       		.uleb128 0x20
 1508 0335 00       		.byte	0
 1509 0336 0C       		.uleb128 0xc
 1510 0337 68010000 		.4byte	.LASF48
 1511 033b 04       		.byte	0x4
 1512 033c 08       		.byte	0x8
 1513 033d 2301     		.2byte	0x123
 1514 033f 53030000 		.4byte	0x353
 1515 0343 0B       		.uleb128 0xb
 1516 0344 72313300 		.ascii	"r13\000"
 1517 0348 08       		.byte	0x8
 1518 0349 2401     		.2byte	0x124
 1519 034b 53030000 		.4byte	0x353
 1520 034f 02       		.byte	0x2
ARM GAS  /tmp/ccRbkbhA.s 			page 28


 1521 0350 23       		.byte	0x23
 1522 0351 00       		.uleb128 0
 1523 0352 00       		.byte	0
 1524 0353 09       		.uleb128 0x9
 1525 0354 04       		.byte	0x4
 1526 0355 A9020000 		.4byte	0x2a9
 1527 0359 04       		.uleb128 0x4
 1528 035a 04       		.byte	0x4
 1529 035b 07       		.byte	0x7
 1530 035c 6A020000 		.4byte	.LASF49
 1531 0360 0D       		.uleb128 0xd
 1532 0361 F3000000 		.4byte	0xf3
 1533 0365 08       		.uleb128 0x8
 1534 0366 20       		.byte	0x20
 1535 0367 09       		.byte	0x9
 1536 0368 5E       		.byte	0x5e
 1537 0369 D0030000 		.4byte	0x3d0
 1538 036d 06       		.uleb128 0x6
 1539 036e 93030000 		.4byte	.LASF50
 1540 0372 09       		.byte	0x9
 1541 0373 5F       		.byte	0x5f
 1542 0374 64020000 		.4byte	0x264
 1543 0378 02       		.byte	0x2
 1544 0379 23       		.byte	0x23
 1545 037a 00       		.uleb128 0
 1546 037b 06       		.uleb128 0x6
 1547 037c 53030000 		.4byte	.LASF51
 1548 0380 09       		.byte	0x9
 1549 0381 60       		.byte	0x60
 1550 0382 D2000000 		.4byte	0xd2
 1551 0386 02       		.byte	0x2
 1552 0387 23       		.byte	0x23
 1553 0388 08       		.uleb128 0x8
 1554 0389 06       		.uleb128 0x6
 1555 038a 94020000 		.4byte	.LASF52
 1556 038e 09       		.byte	0x9
 1557 038f 62       		.byte	0x62
 1558 0390 36030000 		.4byte	0x336
 1559 0394 02       		.byte	0x2
 1560 0395 23       		.byte	0x23
 1561 0396 0C       		.uleb128 0xc
 1562 0397 06       		.uleb128 0x6
 1563 0398 04010000 		.4byte	.LASF53
 1564 039c 09       		.byte	0x9
 1565 039d 65       		.byte	0x65
 1566 039e 5E020000 		.4byte	0x25e
 1567 03a2 02       		.byte	0x2
 1568 03a3 23       		.byte	0x23
 1569 03a4 10       		.uleb128 0x10
 1570 03a5 06       		.uleb128 0x6
 1571 03a6 B6020000 		.4byte	.LASF54
 1572 03aa 09       		.byte	0x9
 1573 03ab 66       		.byte	0x66
 1574 03ac 5E020000 		.4byte	0x25e
 1575 03b0 02       		.byte	0x2
 1576 03b1 23       		.byte	0x23
 1577 03b2 14       		.uleb128 0x14
ARM GAS  /tmp/ccRbkbhA.s 			page 29


 1578 03b3 06       		.uleb128 0x6
 1579 03b4 4E040000 		.4byte	.LASF55
 1580 03b8 09       		.byte	0x9
 1581 03b9 6A       		.byte	0x6a
 1582 03ba FE000000 		.4byte	0xfe
 1583 03be 02       		.byte	0x2
 1584 03bf 23       		.byte	0x23
 1585 03c0 18       		.uleb128 0x18
 1586 03c1 06       		.uleb128 0x6
 1587 03c2 AC020000 		.4byte	.LASF56
 1588 03c6 09       		.byte	0x9
 1589 03c7 6C       		.byte	0x6c
 1590 03c8 5E020000 		.4byte	0x25e
 1591 03cc 02       		.byte	0x2
 1592 03cd 23       		.byte	0x23
 1593 03ce 1C       		.uleb128 0x1c
 1594 03cf 00       		.byte	0
 1595 03d0 03       		.uleb128 0x3
 1596 03d1 0A040000 		.4byte	.LASF57
 1597 03d5 09       		.byte	0x9
 1598 03d6 6E       		.byte	0x6e
 1599 03d7 65030000 		.4byte	0x365
 1600 03db 05       		.uleb128 0x5
 1601 03dc E1010000 		.4byte	.LASF58
 1602 03e0 10       		.byte	0x10
 1603 03e1 0A       		.byte	0xa
 1604 03e2 2C       		.byte	0x2c
 1605 03e3 12040000 		.4byte	0x412
 1606 03e7 06       		.uleb128 0x6
 1607 03e8 C2000000 		.4byte	.LASF59
 1608 03ec 0A       		.byte	0xa
 1609 03ed 2D       		.byte	0x2d
 1610 03ee 64020000 		.4byte	0x264
 1611 03f2 02       		.byte	0x2
 1612 03f3 23       		.byte	0x23
 1613 03f4 00       		.uleb128 0
 1614 03f5 06       		.uleb128 0x6
 1615 03f6 58040000 		.4byte	.LASF60
 1616 03fa 0A       		.byte	0xa
 1617 03fb 2F       		.byte	0x2f
 1618 03fc 5E020000 		.4byte	0x25e
 1619 0400 02       		.byte	0x2
 1620 0401 23       		.byte	0x23
 1621 0402 08       		.uleb128 0x8
 1622 0403 06       		.uleb128 0x6
 1623 0404 B8030000 		.4byte	.LASF61
 1624 0408 0A       		.byte	0xa
 1625 0409 31       		.byte	0x31
 1626 040a 12040000 		.4byte	0x412
 1627 040e 02       		.byte	0x2
 1628 040f 23       		.byte	0x23
 1629 0410 0C       		.uleb128 0xc
 1630 0411 00       		.byte	0
 1631 0412 09       		.uleb128 0x9
 1632 0413 04       		.byte	0x4
 1633 0414 DB030000 		.4byte	0x3db
 1634 0418 03       		.uleb128 0x3
ARM GAS  /tmp/ccRbkbhA.s 			page 30


 1635 0419 E1010000 		.4byte	.LASF58
 1636 041d 0A       		.byte	0xa
 1637 041e 33       		.byte	0x33
 1638 041f DB030000 		.4byte	0x3db
 1639 0423 0E       		.uleb128 0xe
 1640 0424 04       		.byte	0x4
 1641 0425 07       		.byte	0x7
 1642 0426 90       		.byte	0x90
 1643 0427 58040000 		.4byte	0x458
 1644 042b 0F       		.uleb128 0xf
 1645 042c 28000000 		.4byte	.LASF62
 1646 0430 07       		.byte	0x7
 1647 0431 97       		.byte	0x97
 1648 0432 DD000000 		.4byte	0xdd
 1649 0436 0F       		.uleb128 0xf
 1650 0437 74000000 		.4byte	.LASF63
 1651 043b 07       		.byte	0x7
 1652 043c 9E       		.byte	0x9e
 1653 043d DD000000 		.4byte	0xdd
 1654 0441 0F       		.uleb128 0xf
 1655 0442 2B040000 		.4byte	.LASF64
 1656 0446 07       		.byte	0x7
 1657 0447 A5       		.byte	0xa5
 1658 0448 9C020000 		.4byte	0x29c
 1659 044c 0F       		.uleb128 0xf
 1660 044d 5A030000 		.4byte	.LASF65
 1661 0451 07       		.byte	0x7
 1662 0452 AC       		.byte	0xac
 1663 0453 E8000000 		.4byte	0xe8
 1664 0457 00       		.byte	0
 1665 0458 09       		.uleb128 0x9
 1666 0459 04       		.byte	0x4
 1667 045a 5E040000 		.4byte	0x45e
 1668 045e 10       		.uleb128 0x10
 1669 045f 63040000 		.4byte	0x463
 1670 0463 04       		.uleb128 0x4
 1671 0464 01       		.byte	0x1
 1672 0465 08       		.byte	0x8
 1673 0466 A7030000 		.4byte	.LASF66
 1674 046a 09       		.uleb128 0x9
 1675 046b 04       		.byte	0x4
 1676 046c 9E020000 		.4byte	0x29e
 1677 0470 09       		.uleb128 0x9
 1678 0471 04       		.byte	0x4
 1679 0472 18040000 		.4byte	0x418
 1680 0476 03       		.uleb128 0x3
 1681 0477 30020000 		.4byte	.LASF67
 1682 047b 0B       		.byte	0xb
 1683 047c 37       		.byte	0x37
 1684 047d 81040000 		.4byte	0x481
 1685 0481 05       		.uleb128 0x5
 1686 0482 30020000 		.4byte	.LASF67
 1687 0486 20       		.byte	0x20
 1688 0487 0B       		.byte	0xb
 1689 0488 45       		.byte	0x45
 1690 0489 F0040000 		.4byte	0x4f0
 1691 048d 06       		.uleb128 0x6
ARM GAS  /tmp/ccRbkbhA.s 			page 31


 1692 048e 8F000000 		.4byte	.LASF68
 1693 0492 0B       		.byte	0xb
 1694 0493 46       		.byte	0x46
 1695 0494 64020000 		.4byte	0x264
 1696 0498 02       		.byte	0x2
 1697 0499 23       		.byte	0x23
 1698 049a 00       		.uleb128 0
 1699 049b 06       		.uleb128 0x6
 1700 049c 73020000 		.4byte	.LASF69
 1701 04a0 0B       		.byte	0xb
 1702 04a1 47       		.byte	0x47
 1703 04a2 30000000 		.4byte	0x30
 1704 04a6 02       		.byte	0x2
 1705 04a7 23       		.byte	0x23
 1706 04a8 08       		.uleb128 0x8
 1707 04a9 06       		.uleb128 0x6
 1708 04aa EB000000 		.4byte	.LASF70
 1709 04ae 0B       		.byte	0xb
 1710 04af 48       		.byte	0x48
 1711 04b0 13050000 		.4byte	0x513
 1712 04b4 02       		.byte	0x2
 1713 04b5 23       		.byte	0x23
 1714 04b6 0C       		.uleb128 0xc
 1715 04b7 06       		.uleb128 0x6
 1716 04b8 FD030000 		.4byte	.LASF71
 1717 04bc 0B       		.byte	0xb
 1718 04bd 49       		.byte	0x49
 1719 04be 13050000 		.4byte	0x513
 1720 04c2 02       		.byte	0x2
 1721 04c3 23       		.byte	0x23
 1722 04c4 10       		.uleb128 0x10
 1723 04c5 06       		.uleb128 0x6
 1724 04c6 F4000000 		.4byte	.LASF72
 1725 04ca 0B       		.byte	0xb
 1726 04cb 4B       		.byte	0x4b
 1727 04cc 13050000 		.4byte	0x513
 1728 04d0 02       		.byte	0x2
 1729 04d1 23       		.byte	0x23
 1730 04d2 14       		.uleb128 0x14
 1731 04d3 06       		.uleb128 0x6
 1732 04d4 19030000 		.4byte	.LASF73
 1733 04d8 0B       		.byte	0xb
 1734 04d9 4C       		.byte	0x4c
 1735 04da 13050000 		.4byte	0x513
 1736 04de 02       		.byte	0x2
 1737 04df 23       		.byte	0x23
 1738 04e0 18       		.uleb128 0x18
 1739 04e1 06       		.uleb128 0x6
 1740 04e2 14040000 		.4byte	.LASF74
 1741 04e6 0B       		.byte	0xb
 1742 04e7 4D       		.byte	0x4d
 1743 04e8 F0040000 		.4byte	0x4f0
 1744 04ec 02       		.byte	0x2
 1745 04ed 23       		.byte	0x23
 1746 04ee 1C       		.uleb128 0x1c
 1747 04ef 00       		.byte	0
 1748 04f0 03       		.uleb128 0x3
ARM GAS  /tmp/ccRbkbhA.s 			page 32


 1749 04f1 00030000 		.4byte	.LASF75
 1750 04f5 0B       		.byte	0xb
 1751 04f6 3A       		.byte	0x3a
 1752 04f7 FB040000 		.4byte	0x4fb
 1753 04fb 09       		.uleb128 0x9
 1754 04fc 04       		.byte	0x4
 1755 04fd 01050000 		.4byte	0x501
 1756 0501 11       		.uleb128 0x11
 1757 0502 01       		.byte	0x1
 1758 0503 0D050000 		.4byte	0x50d
 1759 0507 12       		.uleb128 0x12
 1760 0508 0D050000 		.4byte	0x50d
 1761 050c 00       		.byte	0
 1762 050d 09       		.uleb128 0x9
 1763 050e 04       		.byte	0x4
 1764 050f 76040000 		.4byte	0x476
 1765 0513 09       		.uleb128 0x9
 1766 0514 04       		.byte	0x4
 1767 0515 49000000 		.4byte	0x49
 1768 0519 03       		.uleb128 0x3
 1769 051a D6010000 		.4byte	.LASF76
 1770 051e 0B       		.byte	0xb
 1771 051f 76       		.byte	0x76
 1772 0520 76040000 		.4byte	0x476
 1773 0524 03       		.uleb128 0x3
 1774 0525 41000000 		.4byte	.LASF77
 1775 0529 0B       		.byte	0xb
 1776 052a E6       		.byte	0xe6
 1777 052b 76040000 		.4byte	0x476
 1778 052f 09       		.uleb128 0x9
 1779 0530 04       		.byte	0x4
 1780 0531 35050000 		.4byte	0x535
 1781 0535 10       		.uleb128 0x10
 1782 0536 49000000 		.4byte	0x49
 1783 053a 13       		.uleb128 0x13
 1784 053b 0F000000 		.4byte	.LASF100
 1785 053f 02       		.byte	0x2
 1786 0540 34       		.byte	0x34
 1787 0541 01       		.byte	0x1
 1788 0542 03       		.byte	0x3
 1789 0543 5D050000 		.4byte	0x55d
 1790 0547 14       		.uleb128 0x14
 1791 0548 747000   		.ascii	"tp\000"
 1792 054b 02       		.byte	0x2
 1793 054c 34       		.byte	0x34
 1794 054d 5E020000 		.4byte	0x25e
 1795 0551 14       		.uleb128 0x14
 1796 0552 74717000 		.ascii	"tqp\000"
 1797 0556 02       		.byte	0x2
 1798 0557 34       		.byte	0x34
 1799 0558 5D050000 		.4byte	0x55d
 1800 055c 00       		.byte	0
 1801 055d 09       		.uleb128 0x9
 1802 055e 04       		.byte	0x4
 1803 055f 64020000 		.4byte	0x264
 1804 0563 15       		.uleb128 0x15
 1805 0564 AC030000 		.4byte	.LASF101
ARM GAS  /tmp/ccRbkbhA.s 			page 33


 1806 0568 02       		.byte	0x2
 1807 0569 3B       		.byte	0x3b
 1808 056a 01       		.byte	0x1
 1809 056b 5E020000 		.4byte	0x25e
 1810 056f 03       		.byte	0x3
 1811 0570 8A050000 		.4byte	0x58a
 1812 0574 14       		.uleb128 0x14
 1813 0575 74717000 		.ascii	"tqp\000"
 1814 0579 02       		.byte	0x2
 1815 057a 3B       		.byte	0x3b
 1816 057b 5D050000 		.4byte	0x55d
 1817 057f 16       		.uleb128 0x16
 1818 0580 747000   		.ascii	"tp\000"
 1819 0583 02       		.byte	0x2
 1820 0584 3C       		.byte	0x3c
 1821 0585 5E020000 		.4byte	0x25e
 1822 0589 00       		.byte	0
 1823 058a 17       		.uleb128 0x17
 1824 058b CA000000 		.4byte	.LASF102
 1825 058f 01       		.byte	0x1
 1826 0590 48       		.byte	0x48
 1827 0591 01       		.byte	0x1
 1828 0592 DD000000 		.4byte	0xdd
 1829 0596 00000000 		.4byte	.LFB7
 1830 059a 2C000000 		.4byte	.LFE7
 1831 059e 00000000 		.4byte	.LLST0
 1832 05a2 01       		.byte	0x1
 1833 05a3 02060000 		.4byte	0x602
 1834 05a7 18       		.uleb128 0x18
 1835 05a8 717000   		.ascii	"qp\000"
 1836 05ab 01       		.byte	0x1
 1837 05ac 48       		.byte	0x48
 1838 05ad 0D050000 		.4byte	0x50d
 1839 05b1 20000000 		.4byte	.LLST1
 1840 05b5 19       		.uleb128 0x19
 1841 05b6 A7020000 		.4byte	.LASF78
 1842 05ba 01       		.byte	0x1
 1843 05bb 48       		.byte	0x48
 1844 05bc F3000000 		.4byte	0xf3
 1845 05c0 62000000 		.4byte	.LLST2
 1846 05c4 1A       		.uleb128 0x1a
 1847 05c5 3A050000 		.4byte	0x53a
 1848 05c9 0E000000 		.4byte	.LBB12
 1849 05cd 18000000 		.4byte	.LBE12
 1850 05d1 01       		.byte	0x1
 1851 05d2 4D       		.byte	0x4d
 1852 05d3 EA050000 		.4byte	0x5ea
 1853 05d7 1B       		.uleb128 0x1b
 1854 05d8 51050000 		.4byte	0x551
 1855 05dc 8E000000 		.4byte	.LLST3
 1856 05e0 1B       		.uleb128 0x1b
 1857 05e1 47050000 		.4byte	0x547
 1858 05e5 AF000000 		.4byte	.LLST4
 1859 05e9 00       		.byte	0
 1860 05ea 1C       		.uleb128 0x1c
 1861 05eb 1E000000 		.4byte	.LVL3
 1862 05ef 01       		.byte	0x1
ARM GAS  /tmp/ccRbkbhA.s 			page 34


 1863 05f0 220D0000 		.4byte	0xd22
 1864 05f4 1D       		.uleb128 0x1d
 1865 05f5 01       		.byte	0x1
 1866 05f6 51       		.byte	0x51
 1867 05f7 03       		.byte	0x3
 1868 05f8 F3       		.byte	0xf3
 1869 05f9 01       		.uleb128 0x1
 1870 05fa 51       		.byte	0x51
 1871 05fb 1D       		.uleb128 0x1d
 1872 05fc 01       		.byte	0x1
 1873 05fd 50       		.byte	0x50
 1874 05fe 01       		.byte	0x1
 1875 05ff 3D       		.byte	0x3d
 1876 0600 00       		.byte	0
 1877 0601 00       		.byte	0
 1878 0602 1E       		.uleb128 0x1e
 1879 0603 01       		.byte	0x1
 1880 0604 2F000000 		.4byte	.LASF81
 1881 0608 01       		.byte	0x1
 1882 0609 60       		.byte	0x60
 1883 060a 01       		.byte	0x1
 1884 060b 00000000 		.4byte	.LFB8
 1885 060f 1A000000 		.4byte	.LFE8
 1886 0613 C2000000 		.4byte	.LLST5
 1887 0617 01       		.byte	0x1
 1888 0618 52060000 		.4byte	0x652
 1889 061c 1F       		.uleb128 0x1f
 1890 061d 69717000 		.ascii	"iqp\000"
 1891 0621 01       		.byte	0x1
 1892 0622 60       		.byte	0x60
 1893 0623 52060000 		.4byte	0x652
 1894 0627 01       		.byte	0x1
 1895 0628 50       		.byte	0x50
 1896 0629 1F       		.uleb128 0x1f
 1897 062a 627000   		.ascii	"bp\000"
 1898 062d 01       		.byte	0x1
 1899 062e 60       		.byte	0x60
 1900 062f 13050000 		.4byte	0x513
 1901 0633 01       		.byte	0x1
 1902 0634 51       		.byte	0x51
 1903 0635 19       		.uleb128 0x19
 1904 0636 70010000 		.4byte	.LASF79
 1905 063a 01       		.byte	0x1
 1906 063b 60       		.byte	0x60
 1907 063c 30000000 		.4byte	0x30
 1908 0640 E2000000 		.4byte	.LLST6
 1909 0644 20       		.uleb128 0x20
 1910 0645 D4030000 		.4byte	.LASF80
 1911 0649 01       		.byte	0x1
 1912 064a 60       		.byte	0x60
 1913 064b F0040000 		.4byte	0x4f0
 1914 064f 01       		.byte	0x1
 1915 0650 53       		.byte	0x53
 1916 0651 00       		.byte	0
 1917 0652 09       		.uleb128 0x9
 1918 0653 04       		.byte	0x4
 1919 0654 19050000 		.4byte	0x519
ARM GAS  /tmp/ccRbkbhA.s 			page 35


 1920 0658 1E       		.uleb128 0x1e
 1921 0659 01       		.byte	0x1
 1922 065a 4B010000 		.4byte	.LASF82
 1923 065e 01       		.byte	0x1
 1924 065f 74       		.byte	0x74
 1925 0660 01       		.byte	0x1
 1926 0661 00000000 		.4byte	.LFB9
 1927 0665 30000000 		.4byte	.LFE9
 1928 0669 03010000 		.4byte	.LLST7
 1929 066d 01       		.byte	0x1
 1930 066e C4060000 		.4byte	0x6c4
 1931 0672 18       		.uleb128 0x18
 1932 0673 69717000 		.ascii	"iqp\000"
 1933 0677 01       		.byte	0x1
 1934 0678 74       		.byte	0x74
 1935 0679 52060000 		.4byte	0x652
 1936 067d 23010000 		.4byte	.LLST8
 1937 0681 1A       		.uleb128 0x1a
 1938 0682 63050000 		.4byte	0x563
 1939 0686 1C000000 		.4byte	.LBB14
 1940 068a 22000000 		.4byte	.LBE14
 1941 068e 01       		.byte	0x1
 1942 068f 7B       		.byte	0x7b
 1943 0690 B1060000 		.4byte	0x6b1
 1944 0694 1B       		.uleb128 0x1b
 1945 0695 74050000 		.4byte	0x574
 1946 0699 41010000 		.4byte	.LLST9
 1947 069d 21       		.uleb128 0x21
 1948 069e 1C000000 		.4byte	.LBB15
 1949 06a2 22000000 		.4byte	.LBE15
 1950 06a6 22       		.uleb128 0x22
 1951 06a7 7F050000 		.4byte	0x57f
 1952 06ab 54010000 		.4byte	.LLST10
 1953 06af 00       		.byte	0
 1954 06b0 00       		.byte	0
 1955 06b1 23       		.uleb128 0x23
 1956 06b2 08000000 		.4byte	.LVL8
 1957 06b6 3F0D0000 		.4byte	0xd3f
 1958 06ba 23       		.uleb128 0x23
 1959 06bb 26000000 		.4byte	.LVL10
 1960 06bf 490D0000 		.4byte	0xd49
 1961 06c3 00       		.byte	0
 1962 06c4 24       		.uleb128 0x24
 1963 06c5 01       		.byte	0x1
 1964 06c6 24010000 		.4byte	.LASF83
 1965 06ca 01       		.byte	0x1
 1966 06cb 8B       		.byte	0x8b
 1967 06cc 01       		.byte	0x1
 1968 06cd DD000000 		.4byte	0xdd
 1969 06d1 00000000 		.4byte	.LFB10
 1970 06d5 50000000 		.4byte	.LFE10
 1971 06d9 67010000 		.4byte	.LLST11
 1972 06dd 01       		.byte	0x1
 1973 06de 41070000 		.4byte	0x741
 1974 06e2 18       		.uleb128 0x18
 1975 06e3 69717000 		.ascii	"iqp\000"
 1976 06e7 01       		.byte	0x1
ARM GAS  /tmp/ccRbkbhA.s 			page 36


 1977 06e8 8B       		.byte	0x8b
 1978 06e9 52060000 		.4byte	0x652
 1979 06ed 87010000 		.4byte	.LLST12
 1980 06f1 18       		.uleb128 0x18
 1981 06f2 6200     		.ascii	"b\000"
 1982 06f4 01       		.byte	0x1
 1983 06f5 8B       		.byte	0x8b
 1984 06f6 49000000 		.4byte	0x49
 1985 06fa A5010000 		.4byte	.LLST13
 1986 06fe 1A       		.uleb128 0x1a
 1987 06ff 63050000 		.4byte	0x563
 1988 0703 30000000 		.4byte	.LBB16
 1989 0707 36000000 		.4byte	.LBE16
 1990 070b 01       		.byte	0x1
 1991 070c 98       		.byte	0x98
 1992 070d 2E070000 		.4byte	0x72e
 1993 0711 1B       		.uleb128 0x1b
 1994 0712 74050000 		.4byte	0x574
 1995 0716 C6010000 		.4byte	.LLST14
 1996 071a 21       		.uleb128 0x21
 1997 071b 30000000 		.4byte	.LBB17
 1998 071f 36000000 		.4byte	.LBE17
 1999 0723 22       		.uleb128 0x22
 2000 0724 7F050000 		.4byte	0x57f
 2001 0728 D9010000 		.4byte	.LLST15
 2002 072c 00       		.byte	0
 2003 072d 00       		.byte	0
 2004 072e 23       		.uleb128 0x23
 2005 072f 0A000000 		.4byte	.LVL13
 2006 0733 3F0D0000 		.4byte	0xd3f
 2007 0737 23       		.uleb128 0x23
 2008 0738 3A000000 		.4byte	.LVL15
 2009 073c 490D0000 		.4byte	0xd49
 2010 0740 00       		.byte	0
 2011 0741 24       		.uleb128 0x24
 2012 0742 01       		.byte	0x1
 2013 0743 70040000 		.4byte	.LASF84
 2014 0747 01       		.byte	0x1
 2015 0748 B1       		.byte	0xb1
 2016 0749 01       		.byte	0x1
 2017 074a DD000000 		.4byte	0xdd
 2018 074e 00000000 		.4byte	.LFB11
 2019 0752 5A000000 		.4byte	.LFE11
 2020 0756 EC010000 		.4byte	.LLST16
 2021 075a 01       		.byte	0x1
 2022 075b 40080000 		.4byte	0x840
 2023 075f 18       		.uleb128 0x18
 2024 0760 69717000 		.ascii	"iqp\000"
 2025 0764 01       		.byte	0x1
 2026 0765 B1       		.byte	0xb1
 2027 0766 52060000 		.4byte	0x652
 2028 076a 0C020000 		.4byte	.LLST17
 2029 076e 19       		.uleb128 0x19
 2030 076f A7020000 		.4byte	.LASF78
 2031 0773 01       		.byte	0x1
 2032 0774 B1       		.byte	0xb1
 2033 0775 F3000000 		.4byte	0xf3
ARM GAS  /tmp/ccRbkbhA.s 			page 37


 2034 0779 56020000 		.4byte	.LLST18
 2035 077d 25       		.uleb128 0x25
 2036 077e 6200     		.ascii	"b\000"
 2037 0780 01       		.byte	0x1
 2038 0781 B2       		.byte	0xb2
 2039 0782 49000000 		.4byte	0x49
 2040 0786 A0020000 		.4byte	.LLST19
 2041 078a 26       		.uleb128 0x26
 2042 078b 06000000 		.4byte	.LBB18
 2043 078f 0C000000 		.4byte	.LBE18
 2044 0793 A7070000 		.4byte	0x7a7
 2045 0797 25       		.uleb128 0x25
 2046 0798 746D7000 		.ascii	"tmp\000"
 2047 079c 01       		.byte	0x1
 2048 079d B4       		.byte	0xb4
 2049 079e 7B000000 		.4byte	0x7b
 2050 07a2 C0020000 		.4byte	.LLST20
 2051 07a6 00       		.byte	0
 2052 07a7 27       		.uleb128 0x27
 2053 07a8 00000000 		.4byte	.Ldebug_ranges0+0
 2054 07ac 00080000 		.4byte	0x800
 2055 07b0 25       		.uleb128 0x25
 2056 07b1 6D736700 		.ascii	"msg\000"
 2057 07b5 01       		.byte	0x1
 2058 07b6 B9       		.byte	0xb9
 2059 07b7 DD000000 		.4byte	0xdd
 2060 07bb D3020000 		.4byte	.LLST21
 2061 07bf 26       		.uleb128 0x26
 2062 07c0 2C000000 		.4byte	.LBB20
 2063 07c4 32000000 		.4byte	.LBE20
 2064 07c8 DC070000 		.4byte	0x7dc
 2065 07cc 25       		.uleb128 0x25
 2066 07cd 746D7000 		.ascii	"tmp\000"
 2067 07d1 01       		.byte	0x1
 2068 07d2 BB       		.byte	0xbb
 2069 07d3 7B000000 		.4byte	0x7b
 2070 07d7 F1020000 		.4byte	.LLST22
 2071 07db 00       		.byte	0
 2072 07dc 28       		.uleb128 0x28
 2073 07dd 24000000 		.4byte	.LVL23
 2074 07e1 8A050000 		.4byte	0x58a
 2075 07e5 F6070000 		.4byte	0x7f6
 2076 07e9 1D       		.uleb128 0x1d
 2077 07ea 01       		.byte	0x1
 2078 07eb 51       		.byte	0x51
 2079 07ec 02       		.byte	0x2
 2080 07ed 76       		.byte	0x76
 2081 07ee 00       		.sleb128 0
 2082 07ef 1D       		.uleb128 0x1d
 2083 07f0 01       		.byte	0x1
 2084 07f1 50       		.byte	0x50
 2085 07f2 02       		.byte	0x2
 2086 07f3 74       		.byte	0x74
 2087 07f4 00       		.sleb128 0
 2088 07f5 00       		.byte	0
 2089 07f6 23       		.uleb128 0x23
 2090 07f7 2C000000 		.4byte	.LVL24
ARM GAS  /tmp/ccRbkbhA.s 			page 38


 2091 07fb 610D0000 		.4byte	0xd61
 2092 07ff 00       		.byte	0
 2093 0800 26       		.uleb128 0x26
 2094 0801 50000000 		.4byte	.LBB22
 2095 0805 56000000 		.4byte	.LBE22
 2096 0809 1D080000 		.4byte	0x81d
 2097 080d 25       		.uleb128 0x25
 2098 080e 746D7000 		.ascii	"tmp\000"
 2099 0812 01       		.byte	0x1
 2100 0813 C5       		.byte	0xc5
 2101 0814 7B000000 		.4byte	0x7b
 2102 0818 04030000 		.4byte	.LLST23
 2103 081c 00       		.byte	0
 2104 081d 23       		.uleb128 0x23
 2105 081e 10000000 		.4byte	.LVL20
 2106 0822 6B0D0000 		.4byte	0xd6b
 2107 0826 29       		.uleb128 0x29
 2108 0827 18000000 		.4byte	.LVL21
 2109 082b 36080000 		.4byte	0x836
 2110 082f 1D       		.uleb128 0x1d
 2111 0830 01       		.byte	0x1
 2112 0831 50       		.byte	0x50
 2113 0832 02       		.byte	0x2
 2114 0833 74       		.byte	0x74
 2115 0834 00       		.sleb128 0
 2116 0835 00       		.byte	0
 2117 0836 23       		.uleb128 0x23
 2118 0837 50000000 		.4byte	.LVL30
 2119 083b 610D0000 		.4byte	0xd61
 2120 083f 00       		.byte	0
 2121 0840 24       		.uleb128 0x24
 2122 0841 01       		.byte	0x1
 2123 0842 4D000000 		.4byte	.LASF85
 2124 0846 01       		.byte	0x1
 2125 0847 E1       		.byte	0xe1
 2126 0848 01       		.byte	0x1
 2127 0849 30000000 		.4byte	0x30
 2128 084d 00000000 		.4byte	.LFB12
 2129 0851 94000000 		.4byte	.LFE12
 2130 0855 17030000 		.4byte	.LLST24
 2131 0859 01       		.byte	0x1
 2132 085a 87090000 		.4byte	0x987
 2133 085e 18       		.uleb128 0x18
 2134 085f 69717000 		.ascii	"iqp\000"
 2135 0863 01       		.byte	0x1
 2136 0864 E1       		.byte	0xe1
 2137 0865 52060000 		.4byte	0x652
 2138 0869 37030000 		.4byte	.LLST25
 2139 086d 18       		.uleb128 0x18
 2140 086e 627000   		.ascii	"bp\000"
 2141 0871 01       		.byte	0x1
 2142 0872 E1       		.byte	0xe1
 2143 0873 13050000 		.4byte	0x513
 2144 0877 97030000 		.4byte	.LLST26
 2145 087b 18       		.uleb128 0x18
 2146 087c 6E00     		.ascii	"n\000"
 2147 087e 01       		.byte	0x1
ARM GAS  /tmp/ccRbkbhA.s 			page 39


 2148 087f E2       		.byte	0xe2
 2149 0880 30000000 		.4byte	0x30
 2150 0884 CB030000 		.4byte	.LLST27
 2151 0888 19       		.uleb128 0x19
 2152 0889 A7020000 		.4byte	.LASF78
 2153 088d 01       		.byte	0x1
 2154 088e E2       		.byte	0xe2
 2155 088f F3000000 		.4byte	0xf3
 2156 0893 FF030000 		.4byte	.LLST28
 2157 0897 2A       		.uleb128 0x2a
 2158 0898 6E667900 		.ascii	"nfy\000"
 2159 089c 01       		.byte	0x1
 2160 089d E3       		.byte	0xe3
 2161 089e F0040000 		.4byte	0x4f0
 2162 08a2 01       		.byte	0x1
 2163 08a3 57       		.byte	0x57
 2164 08a4 25       		.uleb128 0x25
 2165 08a5 7200     		.ascii	"r\000"
 2166 08a7 01       		.byte	0x1
 2167 08a8 E4       		.byte	0xe4
 2168 08a9 30000000 		.4byte	0x30
 2169 08ad 5F040000 		.4byte	.LLST29
 2170 08b1 26       		.uleb128 0x26
 2171 08b2 12000000 		.4byte	.LBB23
 2172 08b6 18000000 		.4byte	.LBE23
 2173 08ba CE080000 		.4byte	0x8ce
 2174 08be 25       		.uleb128 0x25
 2175 08bf 746D7000 		.ascii	"tmp\000"
 2176 08c3 01       		.byte	0x1
 2177 08c4 E8       		.byte	0xe8
 2178 08c5 7B000000 		.4byte	0x7b
 2179 08c9 8A040000 		.4byte	.LLST30
 2180 08cd 00       		.byte	0
 2181 08ce 26       		.uleb128 0x26
 2182 08cf 40000000 		.4byte	.LBB24
 2183 08d3 46000000 		.4byte	.LBE24
 2184 08d7 EB080000 		.4byte	0x8eb
 2185 08db 25       		.uleb128 0x25
 2186 08dc 746D7000 		.ascii	"tmp\000"
 2187 08e0 01       		.byte	0x1
 2188 08e1 EF       		.byte	0xef
 2189 08e2 7B000000 		.4byte	0x7b
 2190 08e6 9D040000 		.4byte	.LLST31
 2191 08ea 00       		.byte	0
 2192 08eb 26       		.uleb128 0x26
 2193 08ec 6A000000 		.4byte	.LBB25
 2194 08f0 70000000 		.4byte	.LBE25
 2195 08f4 08090000 		.4byte	0x908
 2196 08f8 25       		.uleb128 0x25
 2197 08f9 746D7000 		.ascii	"tmp\000"
 2198 08fd 01       		.byte	0x1
 2199 08fe F9       		.byte	0xf9
 2200 08ff 7B000000 		.4byte	0x7b
 2201 0903 B0040000 		.4byte	.LLST32
 2202 0907 00       		.byte	0
 2203 0908 26       		.uleb128 0x26
 2204 0909 78000000 		.4byte	.LBB26
ARM GAS  /tmp/ccRbkbhA.s 			page 40


 2205 090d 7E000000 		.4byte	.LBE26
 2206 0911 25090000 		.4byte	0x925
 2207 0915 25       		.uleb128 0x25
 2208 0916 746D7000 		.ascii	"tmp\000"
 2209 091a 01       		.byte	0x1
 2210 091b FE       		.byte	0xfe
 2211 091c 7B000000 		.4byte	0x7b
 2212 0920 CE040000 		.4byte	.LLST33
 2213 0924 00       		.byte	0
 2214 0925 23       		.uleb128 0x23
 2215 0926 1C000000 		.4byte	.LVL38
 2216 092a 6B0D0000 		.4byte	0xd6b
 2217 092e 29       		.uleb128 0x29
 2218 092f 2C000000 		.4byte	.LVL40
 2219 0933 3E090000 		.4byte	0x93e
 2220 0937 1D       		.uleb128 0x1d
 2221 0938 01       		.byte	0x1
 2222 0939 50       		.byte	0x50
 2223 093a 02       		.byte	0x2
 2224 093b 74       		.byte	0x74
 2225 093c 00       		.sleb128 0
 2226 093d 00       		.byte	0
 2227 093e 28       		.uleb128 0x28
 2228 093f 38000000 		.4byte	.LVL42
 2229 0943 8A050000 		.4byte	0x58a
 2230 0947 58090000 		.4byte	0x958
 2231 094b 1D       		.uleb128 0x1d
 2232 094c 01       		.byte	0x1
 2233 094d 51       		.byte	0x51
 2234 094e 02       		.byte	0x2
 2235 094f 76       		.byte	0x76
 2236 0950 00       		.sleb128 0
 2237 0951 1D       		.uleb128 0x1d
 2238 0952 01       		.byte	0x1
 2239 0953 50       		.byte	0x50
 2240 0954 02       		.byte	0x2
 2241 0955 74       		.byte	0x74
 2242 0956 00       		.sleb128 0
 2243 0957 00       		.byte	0
 2244 0958 23       		.uleb128 0x23
 2245 0959 40000000 		.4byte	.LVL43
 2246 095d 610D0000 		.4byte	0xd61
 2247 0961 23       		.uleb128 0x23
 2248 0962 6A000000 		.4byte	.LVL48
 2249 0966 610D0000 		.4byte	0xd61
 2250 096a 23       		.uleb128 0x23
 2251 096b 82000000 		.4byte	.LVL53
 2252 096f 6B0D0000 		.4byte	0xd6b
 2253 0973 2B       		.uleb128 0x2b
 2254 0974 8E000000 		.4byte	.LVL56
 2255 0978 750D0000 		.4byte	0xd75
 2256 097c 1D       		.uleb128 0x1d
 2257 097d 01       		.byte	0x1
 2258 097e 50       		.byte	0x50
 2259 097f 05       		.byte	0x5
 2260 0980 03       		.byte	0x3
 2261 0981 00000000 		.4byte	.LC0
ARM GAS  /tmp/ccRbkbhA.s 			page 41


 2262 0985 00       		.byte	0
 2263 0986 00       		.byte	0
 2264 0987 2C       		.uleb128 0x2c
 2265 0988 01       		.byte	0x1
 2266 0989 00000000 		.4byte	.LASF86
 2267 098d 01       		.byte	0x1
 2268 098e 1101     		.2byte	0x111
 2269 0990 01       		.byte	0x1
 2270 0991 00000000 		.4byte	.LFB13
 2271 0995 18000000 		.4byte	.LFE13
 2272 0999 E1040000 		.4byte	.LLST34
 2273 099d 01       		.byte	0x1
 2274 099e DA090000 		.4byte	0x9da
 2275 09a2 2D       		.uleb128 0x2d
 2276 09a3 6F717000 		.ascii	"oqp\000"
 2277 09a7 01       		.byte	0x1
 2278 09a8 1101     		.2byte	0x111
 2279 09aa DA090000 		.4byte	0x9da
 2280 09ae 01       		.byte	0x1
 2281 09af 50       		.byte	0x50
 2282 09b0 2D       		.uleb128 0x2d
 2283 09b1 627000   		.ascii	"bp\000"
 2284 09b4 01       		.byte	0x1
 2285 09b5 1101     		.2byte	0x111
 2286 09b7 13050000 		.4byte	0x513
 2287 09bb 01       		.byte	0x1
 2288 09bc 51       		.byte	0x51
 2289 09bd 2E       		.uleb128 0x2e
 2290 09be 70010000 		.4byte	.LASF79
 2291 09c2 01       		.byte	0x1
 2292 09c3 1101     		.2byte	0x111
 2293 09c5 30000000 		.4byte	0x30
 2294 09c9 01       		.byte	0x1
 2295 09ca 52       		.byte	0x52
 2296 09cb 2E       		.uleb128 0x2e
 2297 09cc 1C000000 		.4byte	.LASF87
 2298 09d0 01       		.byte	0x1
 2299 09d1 1101     		.2byte	0x111
 2300 09d3 F0040000 		.4byte	0x4f0
 2301 09d7 01       		.byte	0x1
 2302 09d8 53       		.byte	0x53
 2303 09d9 00       		.byte	0
 2304 09da 09       		.uleb128 0x9
 2305 09db 04       		.byte	0x4
 2306 09dc 24050000 		.4byte	0x524
 2307 09e0 2C       		.uleb128 0x2c
 2308 09e1 01       		.byte	0x1
 2309 09e2 D9030000 		.4byte	.LASF88
 2310 09e6 01       		.byte	0x1
 2311 09e7 2501     		.2byte	0x125
 2312 09e9 01       		.byte	0x1
 2313 09ea 00000000 		.4byte	.LFB14
 2314 09ee 32000000 		.4byte	.LFE14
 2315 09f2 01050000 		.4byte	.LLST35
 2316 09f6 01       		.byte	0x1
 2317 09f7 4F0A0000 		.4byte	0xa4f
 2318 09fb 2F       		.uleb128 0x2f
ARM GAS  /tmp/ccRbkbhA.s 			page 42


 2319 09fc 6F717000 		.ascii	"oqp\000"
 2320 0a00 01       		.byte	0x1
 2321 0a01 2501     		.2byte	0x125
 2322 0a03 DA090000 		.4byte	0x9da
 2323 0a07 21050000 		.4byte	.LLST36
 2324 0a0b 30       		.uleb128 0x30
 2325 0a0c 63050000 		.4byte	0x563
 2326 0a10 1E000000 		.4byte	.LBB27
 2327 0a14 24000000 		.4byte	.LBE27
 2328 0a18 01       		.byte	0x1
 2329 0a19 2C01     		.2byte	0x12c
 2330 0a1b 3C0A0000 		.4byte	0xa3c
 2331 0a1f 1B       		.uleb128 0x1b
 2332 0a20 74050000 		.4byte	0x574
 2333 0a24 3F050000 		.4byte	.LLST37
 2334 0a28 21       		.uleb128 0x21
 2335 0a29 1E000000 		.4byte	.LBB28
 2336 0a2d 24000000 		.4byte	.LBE28
 2337 0a31 22       		.uleb128 0x22
 2338 0a32 7F050000 		.4byte	0x57f
 2339 0a36 52050000 		.4byte	.LLST38
 2340 0a3a 00       		.byte	0
 2341 0a3b 00       		.byte	0
 2342 0a3c 23       		.uleb128 0x23
 2343 0a3d 08000000 		.4byte	.LVL59
 2344 0a41 3F0D0000 		.4byte	0xd3f
 2345 0a45 23       		.uleb128 0x23
 2346 0a46 28000000 		.4byte	.LVL61
 2347 0a4a 490D0000 		.4byte	0xd49
 2348 0a4e 00       		.byte	0
 2349 0a4f 31       		.uleb128 0x31
 2350 0a50 01       		.byte	0x1
 2351 0a51 15010000 		.4byte	.LASF89
 2352 0a55 01       		.byte	0x1
 2353 0a56 4501     		.2byte	0x145
 2354 0a58 01       		.byte	0x1
 2355 0a59 DD000000 		.4byte	0xdd
 2356 0a5d 00000000 		.4byte	.LFB15
 2357 0a61 66000000 		.4byte	.LFE15
 2358 0a65 65050000 		.4byte	.LLST39
 2359 0a69 01       		.byte	0x1
 2360 0a6a 520B0000 		.4byte	0xb52
 2361 0a6e 2F       		.uleb128 0x2f
 2362 0a6f 6F717000 		.ascii	"oqp\000"
 2363 0a73 01       		.byte	0x1
 2364 0a74 4501     		.2byte	0x145
 2365 0a76 DA090000 		.4byte	0x9da
 2366 0a7a 85050000 		.4byte	.LLST40
 2367 0a7e 2F       		.uleb128 0x2f
 2368 0a7f 6200     		.ascii	"b\000"
 2369 0a81 01       		.byte	0x1
 2370 0a82 4501     		.2byte	0x145
 2371 0a84 49000000 		.4byte	0x49
 2372 0a88 CF050000 		.4byte	.LLST41
 2373 0a8c 32       		.uleb128 0x32
 2374 0a8d A7020000 		.4byte	.LASF78
 2375 0a91 01       		.byte	0x1
ARM GAS  /tmp/ccRbkbhA.s 			page 43


 2376 0a92 4501     		.2byte	0x145
 2377 0a94 F3000000 		.4byte	0xf3
 2378 0a98 F0050000 		.4byte	.LLST42
 2379 0a9c 27       		.uleb128 0x27
 2380 0a9d 18000000 		.4byte	.Ldebug_ranges0+0x18
 2381 0aa1 B60A0000 		.4byte	0xab6
 2382 0aa5 33       		.uleb128 0x33
 2383 0aa6 746D7000 		.ascii	"tmp\000"
 2384 0aaa 01       		.byte	0x1
 2385 0aab 4701     		.2byte	0x147
 2386 0aad 7B000000 		.4byte	0x7b
 2387 0ab1 3A060000 		.4byte	.LLST43
 2388 0ab5 00       		.byte	0
 2389 0ab6 27       		.uleb128 0x27
 2390 0ab7 30000000 		.4byte	.Ldebug_ranges0+0x30
 2391 0abb 110B0000 		.4byte	0xb11
 2392 0abf 33       		.uleb128 0x33
 2393 0ac0 6D736700 		.ascii	"msg\000"
 2394 0ac4 01       		.byte	0x1
 2395 0ac5 4901     		.2byte	0x149
 2396 0ac7 DD000000 		.4byte	0xdd
 2397 0acb 4D060000 		.4byte	.LLST44
 2398 0acf 26       		.uleb128 0x26
 2399 0ad0 28000000 		.4byte	.LBB32
 2400 0ad4 2E000000 		.4byte	.LBE32
 2401 0ad8 ED0A0000 		.4byte	0xaed
 2402 0adc 33       		.uleb128 0x33
 2403 0add 746D7000 		.ascii	"tmp\000"
 2404 0ae1 01       		.byte	0x1
 2405 0ae2 4C01     		.2byte	0x14c
 2406 0ae4 7B000000 		.4byte	0x7b
 2407 0ae8 6B060000 		.4byte	.LLST45
 2408 0aec 00       		.byte	0
 2409 0aed 28       		.uleb128 0x28
 2410 0aee 20000000 		.4byte	.LVL68
 2411 0af2 8A050000 		.4byte	0x58a
 2412 0af6 070B0000 		.4byte	0xb07
 2413 0afa 1D       		.uleb128 0x1d
 2414 0afb 01       		.byte	0x1
 2415 0afc 51       		.byte	0x51
 2416 0afd 02       		.byte	0x2
 2417 0afe 76       		.byte	0x76
 2418 0aff 00       		.sleb128 0
 2419 0b00 1D       		.uleb128 0x1d
 2420 0b01 01       		.byte	0x1
 2421 0b02 50       		.byte	0x50
 2422 0b03 02       		.byte	0x2
 2423 0b04 74       		.byte	0x74
 2424 0b05 00       		.sleb128 0
 2425 0b06 00       		.byte	0
 2426 0b07 23       		.uleb128 0x23
 2427 0b08 28000000 		.4byte	.LVL69
 2428 0b0c 610D0000 		.4byte	0xd61
 2429 0b10 00       		.byte	0
 2430 0b11 26       		.uleb128 0x26
 2431 0b12 58000000 		.4byte	.LBB34
 2432 0b16 5E000000 		.4byte	.LBE34
ARM GAS  /tmp/ccRbkbhA.s 			page 44


 2433 0b1a 2F0B0000 		.4byte	0xb2f
 2434 0b1e 33       		.uleb128 0x33
 2435 0b1f 746D7000 		.ascii	"tmp\000"
 2436 0b23 01       		.byte	0x1
 2437 0b24 5901     		.2byte	0x159
 2438 0b26 7B000000 		.4byte	0x7b
 2439 0b2a 7E060000 		.4byte	.LLST46
 2440 0b2e 00       		.byte	0
 2441 0b2f 23       		.uleb128 0x23
 2442 0b30 14000000 		.4byte	.LVL66
 2443 0b34 6B0D0000 		.4byte	0xd6b
 2444 0b38 29       		.uleb128 0x29
 2445 0b39 54000000 		.4byte	.LVL75
 2446 0b3d 480B0000 		.4byte	0xb48
 2447 0b41 1D       		.uleb128 0x1d
 2448 0b42 01       		.byte	0x1
 2449 0b43 50       		.byte	0x50
 2450 0b44 02       		.byte	0x2
 2451 0b45 74       		.byte	0x74
 2452 0b46 00       		.sleb128 0
 2453 0b47 00       		.byte	0
 2454 0b48 23       		.uleb128 0x23
 2455 0b49 58000000 		.4byte	.LVL76
 2456 0b4d 610D0000 		.4byte	0xd61
 2457 0b51 00       		.byte	0
 2458 0b52 31       		.uleb128 0x31
 2459 0b53 01       		.byte	0x1
 2460 0b54 E2000000 		.4byte	.LASF90
 2461 0b58 01       		.byte	0x1
 2462 0b59 6701     		.2byte	0x167
 2463 0b5b 01       		.byte	0x1
 2464 0b5c DD000000 		.4byte	0xdd
 2465 0b60 00000000 		.4byte	.LFB16
 2466 0b64 4A000000 		.4byte	.LFE16
 2467 0b68 91060000 		.4byte	.LLST47
 2468 0b6c 01       		.byte	0x1
 2469 0b6d D30B0000 		.4byte	0xbd3
 2470 0b71 2F       		.uleb128 0x2f
 2471 0b72 6F717000 		.ascii	"oqp\000"
 2472 0b76 01       		.byte	0x1
 2473 0b77 6701     		.2byte	0x167
 2474 0b79 DA090000 		.4byte	0x9da
 2475 0b7d B1060000 		.4byte	.LLST48
 2476 0b81 33       		.uleb128 0x33
 2477 0b82 6200     		.ascii	"b\000"
 2478 0b84 01       		.byte	0x1
 2479 0b85 6801     		.2byte	0x168
 2480 0b87 49000000 		.4byte	0x49
 2481 0b8b CF060000 		.4byte	.LLST49
 2482 0b8f 30       		.uleb128 0x30
 2483 0b90 63050000 		.4byte	0x563
 2484 0b94 2E000000 		.4byte	.LBB35
 2485 0b98 34000000 		.4byte	.LBE35
 2486 0b9c 01       		.byte	0x1
 2487 0b9d 7501     		.2byte	0x175
 2488 0b9f C00B0000 		.4byte	0xbc0
 2489 0ba3 1B       		.uleb128 0x1b
ARM GAS  /tmp/ccRbkbhA.s 			page 45


 2490 0ba4 74050000 		.4byte	0x574
 2491 0ba8 EF060000 		.4byte	.LLST50
 2492 0bac 21       		.uleb128 0x21
 2493 0bad 2E000000 		.4byte	.LBB36
 2494 0bb1 34000000 		.4byte	.LBE36
 2495 0bb5 22       		.uleb128 0x22
 2496 0bb6 7F050000 		.4byte	0x57f
 2497 0bba 02070000 		.4byte	.LLST51
 2498 0bbe 00       		.byte	0
 2499 0bbf 00       		.byte	0
 2500 0bc0 23       		.uleb128 0x23
 2501 0bc1 08000000 		.4byte	.LVL80
 2502 0bc5 3F0D0000 		.4byte	0xd3f
 2503 0bc9 23       		.uleb128 0x23
 2504 0bca 38000000 		.4byte	.LVL83
 2505 0bce 490D0000 		.4byte	0xd49
 2506 0bd2 00       		.byte	0
 2507 0bd3 34       		.uleb128 0x34
 2508 0bd4 01       		.byte	0x1
 2509 0bd5 48020000 		.4byte	.LASF91
 2510 0bd9 01       		.byte	0x1
 2511 0bda 9201     		.2byte	0x192
 2512 0bdc 01       		.byte	0x1
 2513 0bdd 30000000 		.4byte	0x30
 2514 0be1 00000000 		.4byte	.LFB17
 2515 0be5 94000000 		.4byte	.LFE17
 2516 0be9 15070000 		.4byte	.LLST52
 2517 0bed 01       		.byte	0x1
 2518 0bee 150D0000 		.4byte	0xd15
 2519 0bf2 2F       		.uleb128 0x2f
 2520 0bf3 6F717000 		.ascii	"oqp\000"
 2521 0bf7 01       		.byte	0x1
 2522 0bf8 9201     		.2byte	0x192
 2523 0bfa DA090000 		.4byte	0x9da
 2524 0bfe 35070000 		.4byte	.LLST53
 2525 0c02 2F       		.uleb128 0x2f
 2526 0c03 627000   		.ascii	"bp\000"
 2527 0c06 01       		.byte	0x1
 2528 0c07 9201     		.2byte	0x192
 2529 0c09 2F050000 		.4byte	0x52f
 2530 0c0d 95070000 		.4byte	.LLST54
 2531 0c11 2F       		.uleb128 0x2f
 2532 0c12 6E00     		.ascii	"n\000"
 2533 0c14 01       		.byte	0x1
 2534 0c15 9301     		.2byte	0x193
 2535 0c17 30000000 		.4byte	0x30
 2536 0c1b E1070000 		.4byte	.LLST55
 2537 0c1f 32       		.uleb128 0x32
 2538 0c20 A7020000 		.4byte	.LASF78
 2539 0c24 01       		.byte	0x1
 2540 0c25 9301     		.2byte	0x193
 2541 0c27 F3000000 		.4byte	0xf3
 2542 0c2b 2D080000 		.4byte	.LLST56
 2543 0c2f 35       		.uleb128 0x35
 2544 0c30 6E667900 		.ascii	"nfy\000"
 2545 0c34 01       		.byte	0x1
 2546 0c35 9401     		.2byte	0x194
ARM GAS  /tmp/ccRbkbhA.s 			page 46


 2547 0c37 F0040000 		.4byte	0x4f0
 2548 0c3b 01       		.byte	0x1
 2549 0c3c 59       		.byte	0x59
 2550 0c3d 33       		.uleb128 0x33
 2551 0c3e 7700     		.ascii	"w\000"
 2552 0c40 01       		.byte	0x1
 2553 0c41 9501     		.2byte	0x195
 2554 0c43 30000000 		.4byte	0x30
 2555 0c47 61080000 		.4byte	.LLST57
 2556 0c4b 26       		.uleb128 0x26
 2557 0c4c 14000000 		.4byte	.LBB37
 2558 0c50 1A000000 		.4byte	.LBE37
 2559 0c54 690C0000 		.4byte	0xc69
 2560 0c58 33       		.uleb128 0x33
 2561 0c59 746D7000 		.ascii	"tmp\000"
 2562 0c5d 01       		.byte	0x1
 2563 0c5e 9901     		.2byte	0x199
 2564 0c60 7B000000 		.4byte	0x7b
 2565 0c64 8C080000 		.4byte	.LLST58
 2566 0c68 00       		.byte	0
 2567 0c69 26       		.uleb128 0x26
 2568 0c6a 4C000000 		.4byte	.LBB38
 2569 0c6e 52000000 		.4byte	.LBE38
 2570 0c72 870C0000 		.4byte	0xc87
 2571 0c76 33       		.uleb128 0x33
 2572 0c77 746D7000 		.ascii	"tmp\000"
 2573 0c7b 01       		.byte	0x1
 2574 0c7c A901     		.2byte	0x1a9
 2575 0c7e 7B000000 		.4byte	0x7b
 2576 0c82 9F080000 		.4byte	.LLST59
 2577 0c86 00       		.byte	0
 2578 0c87 26       		.uleb128 0x26
 2579 0c88 58000000 		.4byte	.LBB39
 2580 0c8c 5E000000 		.4byte	.LBE39
 2581 0c90 A50C0000 		.4byte	0xca5
 2582 0c94 33       		.uleb128 0x33
 2583 0c95 746D7000 		.ascii	"tmp\000"
 2584 0c99 01       		.byte	0x1
 2585 0c9a AD01     		.2byte	0x1ad
 2586 0c9c 7B000000 		.4byte	0x7b
 2587 0ca0 BD080000 		.4byte	.LLST60
 2588 0ca4 00       		.byte	0
 2589 0ca5 26       		.uleb128 0x26
 2590 0ca6 7C000000 		.4byte	.LBB40
 2591 0caa 82000000 		.4byte	.LBE40
 2592 0cae C30C0000 		.4byte	0xcc3
 2593 0cb2 33       		.uleb128 0x33
 2594 0cb3 746D7000 		.ascii	"tmp\000"
 2595 0cb7 01       		.byte	0x1
 2596 0cb8 9D01     		.2byte	0x19d
 2597 0cba 7B000000 		.4byte	0x7b
 2598 0cbe D0080000 		.4byte	.LLST61
 2599 0cc2 00       		.byte	0
 2600 0cc3 23       		.uleb128 0x23
 2601 0cc4 1E000000 		.4byte	.LVL91
 2602 0cc8 6B0D0000 		.4byte	0xd6b
 2603 0ccc 23       		.uleb128 0x23
ARM GAS  /tmp/ccRbkbhA.s 			page 47


 2604 0ccd 4C000000 		.4byte	.LVL97
 2605 0cd1 610D0000 		.4byte	0xd61
 2606 0cd5 23       		.uleb128 0x23
 2607 0cd6 62000000 		.4byte	.LVL104
 2608 0cda 6B0D0000 		.4byte	0xd6b
 2609 0cde 28       		.uleb128 0x28
 2610 0cdf 74000000 		.4byte	.LVL107
 2611 0ce3 8A050000 		.4byte	0x58a
 2612 0ce7 F80C0000 		.4byte	0xcf8
 2613 0ceb 1D       		.uleb128 0x1d
 2614 0cec 01       		.byte	0x1
 2615 0ced 51       		.byte	0x51
 2616 0cee 02       		.byte	0x2
 2617 0cef 7A       		.byte	0x7a
 2618 0cf0 00       		.sleb128 0
 2619 0cf1 1D       		.uleb128 0x1d
 2620 0cf2 01       		.byte	0x1
 2621 0cf3 50       		.byte	0x50
 2622 0cf4 02       		.byte	0x2
 2623 0cf5 74       		.byte	0x74
 2624 0cf6 00       		.sleb128 0
 2625 0cf7 00       		.byte	0
 2626 0cf8 23       		.uleb128 0x23
 2627 0cf9 7C000000 		.4byte	.LVL108
 2628 0cfd 610D0000 		.4byte	0xd61
 2629 0d01 2B       		.uleb128 0x2b
 2630 0d02 8E000000 		.4byte	.LVL113
 2631 0d06 750D0000 		.4byte	0xd75
 2632 0d0a 1D       		.uleb128 0x1d
 2633 0d0b 01       		.byte	0x1
 2634 0d0c 50       		.byte	0x50
 2635 0d0d 05       		.byte	0x5
 2636 0d0e 03       		.byte	0x3
 2637 0d0f 14000000 		.4byte	.LC1
 2638 0d13 00       		.byte	0
 2639 0d14 00       		.byte	0
 2640 0d15 36       		.uleb128 0x36
 2641 0d16 1D040000 		.4byte	.LASF103
 2642 0d1a 09       		.byte	0x9
 2643 0d1b 72       		.byte	0x72
 2644 0d1c D0030000 		.4byte	0x3d0
 2645 0d20 01       		.byte	0x1
 2646 0d21 01       		.byte	0x1
 2647 0d22 37       		.uleb128 0x37
 2648 0d23 01       		.byte	0x1
 2649 0d24 39040000 		.4byte	.LASF92
 2650 0d28 09       		.byte	0x9
 2651 0d29 99       		.byte	0x99
 2652 0d2a 01       		.byte	0x1
 2653 0d2b DD000000 		.4byte	0xdd
 2654 0d2f 01       		.byte	0x1
 2655 0d30 3F0D0000 		.4byte	0xd3f
 2656 0d34 12       		.uleb128 0x12
 2657 0d35 BC000000 		.4byte	0xbc
 2658 0d39 12       		.uleb128 0x12
 2659 0d3a F3000000 		.4byte	0xf3
 2660 0d3e 00       		.byte	0
ARM GAS  /tmp/ccRbkbhA.s 			page 48


 2661 0d3f 38       		.uleb128 0x38
 2662 0d40 01       		.byte	0x1
 2663 0d41 8E010000 		.4byte	.LASF94
 2664 0d45 0C       		.byte	0xc
 2665 0d46 E8       		.byte	0xe8
 2666 0d47 01       		.byte	0x1
 2667 0d48 01       		.byte	0x1
 2668 0d49 37       		.uleb128 0x37
 2669 0d4a 01       		.byte	0x1
 2670 0d4b 9B030000 		.4byte	.LASF93
 2671 0d4f 09       		.byte	0x9
 2672 0d50 93       		.byte	0x93
 2673 0d51 01       		.byte	0x1
 2674 0d52 5E020000 		.4byte	0x25e
 2675 0d56 01       		.byte	0x1
 2676 0d57 610D0000 		.4byte	0xd61
 2677 0d5b 12       		.uleb128 0x12
 2678 0d5c 5E020000 		.4byte	0x25e
 2679 0d60 00       		.byte	0
 2680 0d61 38       		.uleb128 0x38
 2681 0d62 01       		.byte	0x1
 2682 0d63 59020000 		.4byte	.LASF95
 2683 0d67 0C       		.byte	0xc
 2684 0d68 E3       		.byte	0xe3
 2685 0d69 01       		.byte	0x1
 2686 0d6a 01       		.byte	0x1
 2687 0d6b 38       		.uleb128 0x38
 2688 0d6c 01       		.byte	0x1
 2689 0d6d 7D020000 		.4byte	.LASF96
 2690 0d71 0C       		.byte	0xc
 2691 0d72 E2       		.byte	0xe2
 2692 0d73 01       		.byte	0x1
 2693 0d74 01       		.byte	0x1
 2694 0d75 39       		.uleb128 0x39
 2695 0d76 01       		.byte	0x1
 2696 0d77 7D000000 		.4byte	.LASF104
 2697 0d7b 0C       		.byte	0xc
 2698 0d7c F0       		.byte	0xf0
 2699 0d7d 01       		.byte	0x1
 2700 0d7e 01       		.byte	0x1
 2701 0d7f 890D0000 		.4byte	0xd89
 2702 0d83 12       		.uleb128 0x12
 2703 0d84 890D0000 		.4byte	0xd89
 2704 0d88 00       		.byte	0
 2705 0d89 09       		.uleb128 0x9
 2706 0d8a 04       		.byte	0x4
 2707 0d8b 63040000 		.4byte	0x463
 2708 0d8f 00       		.byte	0
 2709              		.section	.debug_abbrev,"",%progbits
 2710              	.Ldebug_abbrev0:
 2711 0000 01       		.uleb128 0x1
 2712 0001 11       		.uleb128 0x11
 2713 0002 01       		.byte	0x1
 2714 0003 25       		.uleb128 0x25
 2715 0004 0E       		.uleb128 0xe
 2716 0005 13       		.uleb128 0x13
 2717 0006 0B       		.uleb128 0xb
ARM GAS  /tmp/ccRbkbhA.s 			page 49


 2718 0007 03       		.uleb128 0x3
 2719 0008 0E       		.uleb128 0xe
 2720 0009 1B       		.uleb128 0x1b
 2721 000a 0E       		.uleb128 0xe
 2722 000b 55       		.uleb128 0x55
 2723 000c 06       		.uleb128 0x6
 2724 000d 11       		.uleb128 0x11
 2725 000e 01       		.uleb128 0x1
 2726 000f 52       		.uleb128 0x52
 2727 0010 01       		.uleb128 0x1
 2728 0011 10       		.uleb128 0x10
 2729 0012 06       		.uleb128 0x6
 2730 0013 00       		.byte	0
 2731 0014 00       		.byte	0
 2732 0015 02       		.uleb128 0x2
 2733 0016 24       		.uleb128 0x24
 2734 0017 00       		.byte	0
 2735 0018 0B       		.uleb128 0xb
 2736 0019 0B       		.uleb128 0xb
 2737 001a 3E       		.uleb128 0x3e
 2738 001b 0B       		.uleb128 0xb
 2739 001c 03       		.uleb128 0x3
 2740 001d 08       		.uleb128 0x8
 2741 001e 00       		.byte	0
 2742 001f 00       		.byte	0
 2743 0020 03       		.uleb128 0x3
 2744 0021 16       		.uleb128 0x16
 2745 0022 00       		.byte	0
 2746 0023 03       		.uleb128 0x3
 2747 0024 0E       		.uleb128 0xe
 2748 0025 3A       		.uleb128 0x3a
 2749 0026 0B       		.uleb128 0xb
 2750 0027 3B       		.uleb128 0x3b
 2751 0028 0B       		.uleb128 0xb
 2752 0029 49       		.uleb128 0x49
 2753 002a 13       		.uleb128 0x13
 2754 002b 00       		.byte	0
 2755 002c 00       		.byte	0
 2756 002d 04       		.uleb128 0x4
 2757 002e 24       		.uleb128 0x24
 2758 002f 00       		.byte	0
 2759 0030 0B       		.uleb128 0xb
 2760 0031 0B       		.uleb128 0xb
 2761 0032 3E       		.uleb128 0x3e
 2762 0033 0B       		.uleb128 0xb
 2763 0034 03       		.uleb128 0x3
 2764 0035 0E       		.uleb128 0xe
 2765 0036 00       		.byte	0
 2766 0037 00       		.byte	0
 2767 0038 05       		.uleb128 0x5
 2768 0039 13       		.uleb128 0x13
 2769 003a 01       		.byte	0x1
 2770 003b 03       		.uleb128 0x3
 2771 003c 0E       		.uleb128 0xe
 2772 003d 0B       		.uleb128 0xb
 2773 003e 0B       		.uleb128 0xb
 2774 003f 3A       		.uleb128 0x3a
ARM GAS  /tmp/ccRbkbhA.s 			page 50


 2775 0040 0B       		.uleb128 0xb
 2776 0041 3B       		.uleb128 0x3b
 2777 0042 0B       		.uleb128 0xb
 2778 0043 01       		.uleb128 0x1
 2779 0044 13       		.uleb128 0x13
 2780 0045 00       		.byte	0
 2781 0046 00       		.byte	0
 2782 0047 06       		.uleb128 0x6
 2783 0048 0D       		.uleb128 0xd
 2784 0049 00       		.byte	0
 2785 004a 03       		.uleb128 0x3
 2786 004b 0E       		.uleb128 0xe
 2787 004c 3A       		.uleb128 0x3a
 2788 004d 0B       		.uleb128 0xb
 2789 004e 3B       		.uleb128 0x3b
 2790 004f 0B       		.uleb128 0xb
 2791 0050 49       		.uleb128 0x49
 2792 0051 13       		.uleb128 0x13
 2793 0052 38       		.uleb128 0x38
 2794 0053 0A       		.uleb128 0xa
 2795 0054 00       		.byte	0
 2796 0055 00       		.byte	0
 2797 0056 07       		.uleb128 0x7
 2798 0057 0D       		.uleb128 0xd
 2799 0058 00       		.byte	0
 2800 0059 03       		.uleb128 0x3
 2801 005a 08       		.uleb128 0x8
 2802 005b 3A       		.uleb128 0x3a
 2803 005c 0B       		.uleb128 0xb
 2804 005d 3B       		.uleb128 0x3b
 2805 005e 0B       		.uleb128 0xb
 2806 005f 49       		.uleb128 0x49
 2807 0060 13       		.uleb128 0x13
 2808 0061 38       		.uleb128 0x38
 2809 0062 0A       		.uleb128 0xa
 2810 0063 00       		.byte	0
 2811 0064 00       		.byte	0
 2812 0065 08       		.uleb128 0x8
 2813 0066 13       		.uleb128 0x13
 2814 0067 01       		.byte	0x1
 2815 0068 0B       		.uleb128 0xb
 2816 0069 0B       		.uleb128 0xb
 2817 006a 3A       		.uleb128 0x3a
 2818 006b 0B       		.uleb128 0xb
 2819 006c 3B       		.uleb128 0x3b
 2820 006d 0B       		.uleb128 0xb
 2821 006e 01       		.uleb128 0x1
 2822 006f 13       		.uleb128 0x13
 2823 0070 00       		.byte	0
 2824 0071 00       		.byte	0
 2825 0072 09       		.uleb128 0x9
 2826 0073 0F       		.uleb128 0xf
 2827 0074 00       		.byte	0
 2828 0075 0B       		.uleb128 0xb
 2829 0076 0B       		.uleb128 0xb
 2830 0077 49       		.uleb128 0x49
 2831 0078 13       		.uleb128 0x13
ARM GAS  /tmp/ccRbkbhA.s 			page 51


 2832 0079 00       		.byte	0
 2833 007a 00       		.byte	0
 2834 007b 0A       		.uleb128 0xa
 2835 007c 0F       		.uleb128 0xf
 2836 007d 00       		.byte	0
 2837 007e 0B       		.uleb128 0xb
 2838 007f 0B       		.uleb128 0xb
 2839 0080 00       		.byte	0
 2840 0081 00       		.byte	0
 2841 0082 0B       		.uleb128 0xb
 2842 0083 0D       		.uleb128 0xd
 2843 0084 00       		.byte	0
 2844 0085 03       		.uleb128 0x3
 2845 0086 08       		.uleb128 0x8
 2846 0087 3A       		.uleb128 0x3a
 2847 0088 0B       		.uleb128 0xb
 2848 0089 3B       		.uleb128 0x3b
 2849 008a 05       		.uleb128 0x5
 2850 008b 49       		.uleb128 0x49
 2851 008c 13       		.uleb128 0x13
 2852 008d 38       		.uleb128 0x38
 2853 008e 0A       		.uleb128 0xa
 2854 008f 00       		.byte	0
 2855 0090 00       		.byte	0
 2856 0091 0C       		.uleb128 0xc
 2857 0092 13       		.uleb128 0x13
 2858 0093 01       		.byte	0x1
 2859 0094 03       		.uleb128 0x3
 2860 0095 0E       		.uleb128 0xe
 2861 0096 0B       		.uleb128 0xb
 2862 0097 0B       		.uleb128 0xb
 2863 0098 3A       		.uleb128 0x3a
 2864 0099 0B       		.uleb128 0xb
 2865 009a 3B       		.uleb128 0x3b
 2866 009b 05       		.uleb128 0x5
 2867 009c 01       		.uleb128 0x1
 2868 009d 13       		.uleb128 0x13
 2869 009e 00       		.byte	0
 2870 009f 00       		.byte	0
 2871 00a0 0D       		.uleb128 0xd
 2872 00a1 35       		.uleb128 0x35
 2873 00a2 00       		.byte	0
 2874 00a3 49       		.uleb128 0x49
 2875 00a4 13       		.uleb128 0x13
 2876 00a5 00       		.byte	0
 2877 00a6 00       		.byte	0
 2878 00a7 0E       		.uleb128 0xe
 2879 00a8 17       		.uleb128 0x17
 2880 00a9 01       		.byte	0x1
 2881 00aa 0B       		.uleb128 0xb
 2882 00ab 0B       		.uleb128 0xb
 2883 00ac 3A       		.uleb128 0x3a
 2884 00ad 0B       		.uleb128 0xb
 2885 00ae 3B       		.uleb128 0x3b
 2886 00af 0B       		.uleb128 0xb
 2887 00b0 01       		.uleb128 0x1
 2888 00b1 13       		.uleb128 0x13
ARM GAS  /tmp/ccRbkbhA.s 			page 52


 2889 00b2 00       		.byte	0
 2890 00b3 00       		.byte	0
 2891 00b4 0F       		.uleb128 0xf
 2892 00b5 0D       		.uleb128 0xd
 2893 00b6 00       		.byte	0
 2894 00b7 03       		.uleb128 0x3
 2895 00b8 0E       		.uleb128 0xe
 2896 00b9 3A       		.uleb128 0x3a
 2897 00ba 0B       		.uleb128 0xb
 2898 00bb 3B       		.uleb128 0x3b
 2899 00bc 0B       		.uleb128 0xb
 2900 00bd 49       		.uleb128 0x49
 2901 00be 13       		.uleb128 0x13
 2902 00bf 00       		.byte	0
 2903 00c0 00       		.byte	0
 2904 00c1 10       		.uleb128 0x10
 2905 00c2 26       		.uleb128 0x26
 2906 00c3 00       		.byte	0
 2907 00c4 49       		.uleb128 0x49
 2908 00c5 13       		.uleb128 0x13
 2909 00c6 00       		.byte	0
 2910 00c7 00       		.byte	0
 2911 00c8 11       		.uleb128 0x11
 2912 00c9 15       		.uleb128 0x15
 2913 00ca 01       		.byte	0x1
 2914 00cb 27       		.uleb128 0x27
 2915 00cc 0C       		.uleb128 0xc
 2916 00cd 01       		.uleb128 0x1
 2917 00ce 13       		.uleb128 0x13
 2918 00cf 00       		.byte	0
 2919 00d0 00       		.byte	0
 2920 00d1 12       		.uleb128 0x12
 2921 00d2 05       		.uleb128 0x5
 2922 00d3 00       		.byte	0
 2923 00d4 49       		.uleb128 0x49
 2924 00d5 13       		.uleb128 0x13
 2925 00d6 00       		.byte	0
 2926 00d7 00       		.byte	0
 2927 00d8 13       		.uleb128 0x13
 2928 00d9 2E       		.uleb128 0x2e
 2929 00da 01       		.byte	0x1
 2930 00db 03       		.uleb128 0x3
 2931 00dc 0E       		.uleb128 0xe
 2932 00dd 3A       		.uleb128 0x3a
 2933 00de 0B       		.uleb128 0xb
 2934 00df 3B       		.uleb128 0x3b
 2935 00e0 0B       		.uleb128 0xb
 2936 00e1 27       		.uleb128 0x27
 2937 00e2 0C       		.uleb128 0xc
 2938 00e3 20       		.uleb128 0x20
 2939 00e4 0B       		.uleb128 0xb
 2940 00e5 01       		.uleb128 0x1
 2941 00e6 13       		.uleb128 0x13
 2942 00e7 00       		.byte	0
 2943 00e8 00       		.byte	0
 2944 00e9 14       		.uleb128 0x14
 2945 00ea 05       		.uleb128 0x5
ARM GAS  /tmp/ccRbkbhA.s 			page 53


 2946 00eb 00       		.byte	0
 2947 00ec 03       		.uleb128 0x3
 2948 00ed 08       		.uleb128 0x8
 2949 00ee 3A       		.uleb128 0x3a
 2950 00ef 0B       		.uleb128 0xb
 2951 00f0 3B       		.uleb128 0x3b
 2952 00f1 0B       		.uleb128 0xb
 2953 00f2 49       		.uleb128 0x49
 2954 00f3 13       		.uleb128 0x13
 2955 00f4 00       		.byte	0
 2956 00f5 00       		.byte	0
 2957 00f6 15       		.uleb128 0x15
 2958 00f7 2E       		.uleb128 0x2e
 2959 00f8 01       		.byte	0x1
 2960 00f9 03       		.uleb128 0x3
 2961 00fa 0E       		.uleb128 0xe
 2962 00fb 3A       		.uleb128 0x3a
 2963 00fc 0B       		.uleb128 0xb
 2964 00fd 3B       		.uleb128 0x3b
 2965 00fe 0B       		.uleb128 0xb
 2966 00ff 27       		.uleb128 0x27
 2967 0100 0C       		.uleb128 0xc
 2968 0101 49       		.uleb128 0x49
 2969 0102 13       		.uleb128 0x13
 2970 0103 20       		.uleb128 0x20
 2971 0104 0B       		.uleb128 0xb
 2972 0105 01       		.uleb128 0x1
 2973 0106 13       		.uleb128 0x13
 2974 0107 00       		.byte	0
 2975 0108 00       		.byte	0
 2976 0109 16       		.uleb128 0x16
 2977 010a 34       		.uleb128 0x34
 2978 010b 00       		.byte	0
 2979 010c 03       		.uleb128 0x3
 2980 010d 08       		.uleb128 0x8
 2981 010e 3A       		.uleb128 0x3a
 2982 010f 0B       		.uleb128 0xb
 2983 0110 3B       		.uleb128 0x3b
 2984 0111 0B       		.uleb128 0xb
 2985 0112 49       		.uleb128 0x49
 2986 0113 13       		.uleb128 0x13
 2987 0114 00       		.byte	0
 2988 0115 00       		.byte	0
 2989 0116 17       		.uleb128 0x17
 2990 0117 2E       		.uleb128 0x2e
 2991 0118 01       		.byte	0x1
 2992 0119 03       		.uleb128 0x3
 2993 011a 0E       		.uleb128 0xe
 2994 011b 3A       		.uleb128 0x3a
 2995 011c 0B       		.uleb128 0xb
 2996 011d 3B       		.uleb128 0x3b
 2997 011e 0B       		.uleb128 0xb
 2998 011f 27       		.uleb128 0x27
 2999 0120 0C       		.uleb128 0xc
 3000 0121 49       		.uleb128 0x49
 3001 0122 13       		.uleb128 0x13
 3002 0123 11       		.uleb128 0x11
ARM GAS  /tmp/ccRbkbhA.s 			page 54


 3003 0124 01       		.uleb128 0x1
 3004 0125 12       		.uleb128 0x12
 3005 0126 01       		.uleb128 0x1
 3006 0127 40       		.uleb128 0x40
 3007 0128 06       		.uleb128 0x6
 3008 0129 9742     		.uleb128 0x2117
 3009 012b 0C       		.uleb128 0xc
 3010 012c 01       		.uleb128 0x1
 3011 012d 13       		.uleb128 0x13
 3012 012e 00       		.byte	0
 3013 012f 00       		.byte	0
 3014 0130 18       		.uleb128 0x18
 3015 0131 05       		.uleb128 0x5
 3016 0132 00       		.byte	0
 3017 0133 03       		.uleb128 0x3
 3018 0134 08       		.uleb128 0x8
 3019 0135 3A       		.uleb128 0x3a
 3020 0136 0B       		.uleb128 0xb
 3021 0137 3B       		.uleb128 0x3b
 3022 0138 0B       		.uleb128 0xb
 3023 0139 49       		.uleb128 0x49
 3024 013a 13       		.uleb128 0x13
 3025 013b 02       		.uleb128 0x2
 3026 013c 06       		.uleb128 0x6
 3027 013d 00       		.byte	0
 3028 013e 00       		.byte	0
 3029 013f 19       		.uleb128 0x19
 3030 0140 05       		.uleb128 0x5
 3031 0141 00       		.byte	0
 3032 0142 03       		.uleb128 0x3
 3033 0143 0E       		.uleb128 0xe
 3034 0144 3A       		.uleb128 0x3a
 3035 0145 0B       		.uleb128 0xb
 3036 0146 3B       		.uleb128 0x3b
 3037 0147 0B       		.uleb128 0xb
 3038 0148 49       		.uleb128 0x49
 3039 0149 13       		.uleb128 0x13
 3040 014a 02       		.uleb128 0x2
 3041 014b 06       		.uleb128 0x6
 3042 014c 00       		.byte	0
 3043 014d 00       		.byte	0
 3044 014e 1A       		.uleb128 0x1a
 3045 014f 1D       		.uleb128 0x1d
 3046 0150 01       		.byte	0x1
 3047 0151 31       		.uleb128 0x31
 3048 0152 13       		.uleb128 0x13
 3049 0153 11       		.uleb128 0x11
 3050 0154 01       		.uleb128 0x1
 3051 0155 12       		.uleb128 0x12
 3052 0156 01       		.uleb128 0x1
 3053 0157 58       		.uleb128 0x58
 3054 0158 0B       		.uleb128 0xb
 3055 0159 59       		.uleb128 0x59
 3056 015a 0B       		.uleb128 0xb
 3057 015b 01       		.uleb128 0x1
 3058 015c 13       		.uleb128 0x13
 3059 015d 00       		.byte	0
ARM GAS  /tmp/ccRbkbhA.s 			page 55


 3060 015e 00       		.byte	0
 3061 015f 1B       		.uleb128 0x1b
 3062 0160 05       		.uleb128 0x5
 3063 0161 00       		.byte	0
 3064 0162 31       		.uleb128 0x31
 3065 0163 13       		.uleb128 0x13
 3066 0164 02       		.uleb128 0x2
 3067 0165 06       		.uleb128 0x6
 3068 0166 00       		.byte	0
 3069 0167 00       		.byte	0
 3070 0168 1C       		.uleb128 0x1c
 3071 0169 898201   		.uleb128 0x4109
 3072 016c 01       		.byte	0x1
 3073 016d 11       		.uleb128 0x11
 3074 016e 01       		.uleb128 0x1
 3075 016f 9542     		.uleb128 0x2115
 3076 0171 0C       		.uleb128 0xc
 3077 0172 31       		.uleb128 0x31
 3078 0173 13       		.uleb128 0x13
 3079 0174 00       		.byte	0
 3080 0175 00       		.byte	0
 3081 0176 1D       		.uleb128 0x1d
 3082 0177 8A8201   		.uleb128 0x410a
 3083 017a 00       		.byte	0
 3084 017b 02       		.uleb128 0x2
 3085 017c 0A       		.uleb128 0xa
 3086 017d 9142     		.uleb128 0x2111
 3087 017f 0A       		.uleb128 0xa
 3088 0180 00       		.byte	0
 3089 0181 00       		.byte	0
 3090 0182 1E       		.uleb128 0x1e
 3091 0183 2E       		.uleb128 0x2e
 3092 0184 01       		.byte	0x1
 3093 0185 3F       		.uleb128 0x3f
 3094 0186 0C       		.uleb128 0xc
 3095 0187 03       		.uleb128 0x3
 3096 0188 0E       		.uleb128 0xe
 3097 0189 3A       		.uleb128 0x3a
 3098 018a 0B       		.uleb128 0xb
 3099 018b 3B       		.uleb128 0x3b
 3100 018c 0B       		.uleb128 0xb
 3101 018d 27       		.uleb128 0x27
 3102 018e 0C       		.uleb128 0xc
 3103 018f 11       		.uleb128 0x11
 3104 0190 01       		.uleb128 0x1
 3105 0191 12       		.uleb128 0x12
 3106 0192 01       		.uleb128 0x1
 3107 0193 40       		.uleb128 0x40
 3108 0194 06       		.uleb128 0x6
 3109 0195 9742     		.uleb128 0x2117
 3110 0197 0C       		.uleb128 0xc
 3111 0198 01       		.uleb128 0x1
 3112 0199 13       		.uleb128 0x13
 3113 019a 00       		.byte	0
 3114 019b 00       		.byte	0
 3115 019c 1F       		.uleb128 0x1f
 3116 019d 05       		.uleb128 0x5
ARM GAS  /tmp/ccRbkbhA.s 			page 56


 3117 019e 00       		.byte	0
 3118 019f 03       		.uleb128 0x3
 3119 01a0 08       		.uleb128 0x8
 3120 01a1 3A       		.uleb128 0x3a
 3121 01a2 0B       		.uleb128 0xb
 3122 01a3 3B       		.uleb128 0x3b
 3123 01a4 0B       		.uleb128 0xb
 3124 01a5 49       		.uleb128 0x49
 3125 01a6 13       		.uleb128 0x13
 3126 01a7 02       		.uleb128 0x2
 3127 01a8 0A       		.uleb128 0xa
 3128 01a9 00       		.byte	0
 3129 01aa 00       		.byte	0
 3130 01ab 20       		.uleb128 0x20
 3131 01ac 05       		.uleb128 0x5
 3132 01ad 00       		.byte	0
 3133 01ae 03       		.uleb128 0x3
 3134 01af 0E       		.uleb128 0xe
 3135 01b0 3A       		.uleb128 0x3a
 3136 01b1 0B       		.uleb128 0xb
 3137 01b2 3B       		.uleb128 0x3b
 3138 01b3 0B       		.uleb128 0xb
 3139 01b4 49       		.uleb128 0x49
 3140 01b5 13       		.uleb128 0x13
 3141 01b6 02       		.uleb128 0x2
 3142 01b7 0A       		.uleb128 0xa
 3143 01b8 00       		.byte	0
 3144 01b9 00       		.byte	0
 3145 01ba 21       		.uleb128 0x21
 3146 01bb 0B       		.uleb128 0xb
 3147 01bc 01       		.byte	0x1
 3148 01bd 11       		.uleb128 0x11
 3149 01be 01       		.uleb128 0x1
 3150 01bf 12       		.uleb128 0x12
 3151 01c0 01       		.uleb128 0x1
 3152 01c1 00       		.byte	0
 3153 01c2 00       		.byte	0
 3154 01c3 22       		.uleb128 0x22
 3155 01c4 34       		.uleb128 0x34
 3156 01c5 00       		.byte	0
 3157 01c6 31       		.uleb128 0x31
 3158 01c7 13       		.uleb128 0x13
 3159 01c8 02       		.uleb128 0x2
 3160 01c9 06       		.uleb128 0x6
 3161 01ca 00       		.byte	0
 3162 01cb 00       		.byte	0
 3163 01cc 23       		.uleb128 0x23
 3164 01cd 898201   		.uleb128 0x4109
 3165 01d0 00       		.byte	0
 3166 01d1 11       		.uleb128 0x11
 3167 01d2 01       		.uleb128 0x1
 3168 01d3 31       		.uleb128 0x31
 3169 01d4 13       		.uleb128 0x13
 3170 01d5 00       		.byte	0
 3171 01d6 00       		.byte	0
 3172 01d7 24       		.uleb128 0x24
 3173 01d8 2E       		.uleb128 0x2e
ARM GAS  /tmp/ccRbkbhA.s 			page 57


 3174 01d9 01       		.byte	0x1
 3175 01da 3F       		.uleb128 0x3f
 3176 01db 0C       		.uleb128 0xc
 3177 01dc 03       		.uleb128 0x3
 3178 01dd 0E       		.uleb128 0xe
 3179 01de 3A       		.uleb128 0x3a
 3180 01df 0B       		.uleb128 0xb
 3181 01e0 3B       		.uleb128 0x3b
 3182 01e1 0B       		.uleb128 0xb
 3183 01e2 27       		.uleb128 0x27
 3184 01e3 0C       		.uleb128 0xc
 3185 01e4 49       		.uleb128 0x49
 3186 01e5 13       		.uleb128 0x13
 3187 01e6 11       		.uleb128 0x11
 3188 01e7 01       		.uleb128 0x1
 3189 01e8 12       		.uleb128 0x12
 3190 01e9 01       		.uleb128 0x1
 3191 01ea 40       		.uleb128 0x40
 3192 01eb 06       		.uleb128 0x6
 3193 01ec 9742     		.uleb128 0x2117
 3194 01ee 0C       		.uleb128 0xc
 3195 01ef 01       		.uleb128 0x1
 3196 01f0 13       		.uleb128 0x13
 3197 01f1 00       		.byte	0
 3198 01f2 00       		.byte	0
 3199 01f3 25       		.uleb128 0x25
 3200 01f4 34       		.uleb128 0x34
 3201 01f5 00       		.byte	0
 3202 01f6 03       		.uleb128 0x3
 3203 01f7 08       		.uleb128 0x8
 3204 01f8 3A       		.uleb128 0x3a
 3205 01f9 0B       		.uleb128 0xb
 3206 01fa 3B       		.uleb128 0x3b
 3207 01fb 0B       		.uleb128 0xb
 3208 01fc 49       		.uleb128 0x49
 3209 01fd 13       		.uleb128 0x13
 3210 01fe 02       		.uleb128 0x2
 3211 01ff 06       		.uleb128 0x6
 3212 0200 00       		.byte	0
 3213 0201 00       		.byte	0
 3214 0202 26       		.uleb128 0x26
 3215 0203 0B       		.uleb128 0xb
 3216 0204 01       		.byte	0x1
 3217 0205 11       		.uleb128 0x11
 3218 0206 01       		.uleb128 0x1
 3219 0207 12       		.uleb128 0x12
 3220 0208 01       		.uleb128 0x1
 3221 0209 01       		.uleb128 0x1
 3222 020a 13       		.uleb128 0x13
 3223 020b 00       		.byte	0
 3224 020c 00       		.byte	0
 3225 020d 27       		.uleb128 0x27
 3226 020e 0B       		.uleb128 0xb
 3227 020f 01       		.byte	0x1
 3228 0210 55       		.uleb128 0x55
 3229 0211 06       		.uleb128 0x6
 3230 0212 01       		.uleb128 0x1
ARM GAS  /tmp/ccRbkbhA.s 			page 58


 3231 0213 13       		.uleb128 0x13
 3232 0214 00       		.byte	0
 3233 0215 00       		.byte	0
 3234 0216 28       		.uleb128 0x28
 3235 0217 898201   		.uleb128 0x4109
 3236 021a 01       		.byte	0x1
 3237 021b 11       		.uleb128 0x11
 3238 021c 01       		.uleb128 0x1
 3239 021d 31       		.uleb128 0x31
 3240 021e 13       		.uleb128 0x13
 3241 021f 01       		.uleb128 0x1
 3242 0220 13       		.uleb128 0x13
 3243 0221 00       		.byte	0
 3244 0222 00       		.byte	0
 3245 0223 29       		.uleb128 0x29
 3246 0224 898201   		.uleb128 0x4109
 3247 0227 01       		.byte	0x1
 3248 0228 11       		.uleb128 0x11
 3249 0229 01       		.uleb128 0x1
 3250 022a 01       		.uleb128 0x1
 3251 022b 13       		.uleb128 0x13
 3252 022c 00       		.byte	0
 3253 022d 00       		.byte	0
 3254 022e 2A       		.uleb128 0x2a
 3255 022f 34       		.uleb128 0x34
 3256 0230 00       		.byte	0
 3257 0231 03       		.uleb128 0x3
 3258 0232 08       		.uleb128 0x8
 3259 0233 3A       		.uleb128 0x3a
 3260 0234 0B       		.uleb128 0xb
 3261 0235 3B       		.uleb128 0x3b
 3262 0236 0B       		.uleb128 0xb
 3263 0237 49       		.uleb128 0x49
 3264 0238 13       		.uleb128 0x13
 3265 0239 02       		.uleb128 0x2
 3266 023a 0A       		.uleb128 0xa
 3267 023b 00       		.byte	0
 3268 023c 00       		.byte	0
 3269 023d 2B       		.uleb128 0x2b
 3270 023e 898201   		.uleb128 0x4109
 3271 0241 01       		.byte	0x1
 3272 0242 11       		.uleb128 0x11
 3273 0243 01       		.uleb128 0x1
 3274 0244 31       		.uleb128 0x31
 3275 0245 13       		.uleb128 0x13
 3276 0246 00       		.byte	0
 3277 0247 00       		.byte	0
 3278 0248 2C       		.uleb128 0x2c
 3279 0249 2E       		.uleb128 0x2e
 3280 024a 01       		.byte	0x1
 3281 024b 3F       		.uleb128 0x3f
 3282 024c 0C       		.uleb128 0xc
 3283 024d 03       		.uleb128 0x3
 3284 024e 0E       		.uleb128 0xe
 3285 024f 3A       		.uleb128 0x3a
 3286 0250 0B       		.uleb128 0xb
 3287 0251 3B       		.uleb128 0x3b
ARM GAS  /tmp/ccRbkbhA.s 			page 59


 3288 0252 05       		.uleb128 0x5
 3289 0253 27       		.uleb128 0x27
 3290 0254 0C       		.uleb128 0xc
 3291 0255 11       		.uleb128 0x11
 3292 0256 01       		.uleb128 0x1
 3293 0257 12       		.uleb128 0x12
 3294 0258 01       		.uleb128 0x1
 3295 0259 40       		.uleb128 0x40
 3296 025a 06       		.uleb128 0x6
 3297 025b 9742     		.uleb128 0x2117
 3298 025d 0C       		.uleb128 0xc
 3299 025e 01       		.uleb128 0x1
 3300 025f 13       		.uleb128 0x13
 3301 0260 00       		.byte	0
 3302 0261 00       		.byte	0
 3303 0262 2D       		.uleb128 0x2d
 3304 0263 05       		.uleb128 0x5
 3305 0264 00       		.byte	0
 3306 0265 03       		.uleb128 0x3
 3307 0266 08       		.uleb128 0x8
 3308 0267 3A       		.uleb128 0x3a
 3309 0268 0B       		.uleb128 0xb
 3310 0269 3B       		.uleb128 0x3b
 3311 026a 05       		.uleb128 0x5
 3312 026b 49       		.uleb128 0x49
 3313 026c 13       		.uleb128 0x13
 3314 026d 02       		.uleb128 0x2
 3315 026e 0A       		.uleb128 0xa
 3316 026f 00       		.byte	0
 3317 0270 00       		.byte	0
 3318 0271 2E       		.uleb128 0x2e
 3319 0272 05       		.uleb128 0x5
 3320 0273 00       		.byte	0
 3321 0274 03       		.uleb128 0x3
 3322 0275 0E       		.uleb128 0xe
 3323 0276 3A       		.uleb128 0x3a
 3324 0277 0B       		.uleb128 0xb
 3325 0278 3B       		.uleb128 0x3b
 3326 0279 05       		.uleb128 0x5
 3327 027a 49       		.uleb128 0x49
 3328 027b 13       		.uleb128 0x13
 3329 027c 02       		.uleb128 0x2
 3330 027d 0A       		.uleb128 0xa
 3331 027e 00       		.byte	0
 3332 027f 00       		.byte	0
 3333 0280 2F       		.uleb128 0x2f
 3334 0281 05       		.uleb128 0x5
 3335 0282 00       		.byte	0
 3336 0283 03       		.uleb128 0x3
 3337 0284 08       		.uleb128 0x8
 3338 0285 3A       		.uleb128 0x3a
 3339 0286 0B       		.uleb128 0xb
 3340 0287 3B       		.uleb128 0x3b
 3341 0288 05       		.uleb128 0x5
 3342 0289 49       		.uleb128 0x49
 3343 028a 13       		.uleb128 0x13
 3344 028b 02       		.uleb128 0x2
ARM GAS  /tmp/ccRbkbhA.s 			page 60


 3345 028c 06       		.uleb128 0x6
 3346 028d 00       		.byte	0
 3347 028e 00       		.byte	0
 3348 028f 30       		.uleb128 0x30
 3349 0290 1D       		.uleb128 0x1d
 3350 0291 01       		.byte	0x1
 3351 0292 31       		.uleb128 0x31
 3352 0293 13       		.uleb128 0x13
 3353 0294 11       		.uleb128 0x11
 3354 0295 01       		.uleb128 0x1
 3355 0296 12       		.uleb128 0x12
 3356 0297 01       		.uleb128 0x1
 3357 0298 58       		.uleb128 0x58
 3358 0299 0B       		.uleb128 0xb
 3359 029a 59       		.uleb128 0x59
 3360 029b 05       		.uleb128 0x5
 3361 029c 01       		.uleb128 0x1
 3362 029d 13       		.uleb128 0x13
 3363 029e 00       		.byte	0
 3364 029f 00       		.byte	0
 3365 02a0 31       		.uleb128 0x31
 3366 02a1 2E       		.uleb128 0x2e
 3367 02a2 01       		.byte	0x1
 3368 02a3 3F       		.uleb128 0x3f
 3369 02a4 0C       		.uleb128 0xc
 3370 02a5 03       		.uleb128 0x3
 3371 02a6 0E       		.uleb128 0xe
 3372 02a7 3A       		.uleb128 0x3a
 3373 02a8 0B       		.uleb128 0xb
 3374 02a9 3B       		.uleb128 0x3b
 3375 02aa 05       		.uleb128 0x5
 3376 02ab 27       		.uleb128 0x27
 3377 02ac 0C       		.uleb128 0xc
 3378 02ad 49       		.uleb128 0x49
 3379 02ae 13       		.uleb128 0x13
 3380 02af 11       		.uleb128 0x11
 3381 02b0 01       		.uleb128 0x1
 3382 02b1 12       		.uleb128 0x12
 3383 02b2 01       		.uleb128 0x1
 3384 02b3 40       		.uleb128 0x40
 3385 02b4 06       		.uleb128 0x6
 3386 02b5 9742     		.uleb128 0x2117
 3387 02b7 0C       		.uleb128 0xc
 3388 02b8 01       		.uleb128 0x1
 3389 02b9 13       		.uleb128 0x13
 3390 02ba 00       		.byte	0
 3391 02bb 00       		.byte	0
 3392 02bc 32       		.uleb128 0x32
 3393 02bd 05       		.uleb128 0x5
 3394 02be 00       		.byte	0
 3395 02bf 03       		.uleb128 0x3
 3396 02c0 0E       		.uleb128 0xe
 3397 02c1 3A       		.uleb128 0x3a
 3398 02c2 0B       		.uleb128 0xb
 3399 02c3 3B       		.uleb128 0x3b
 3400 02c4 05       		.uleb128 0x5
 3401 02c5 49       		.uleb128 0x49
ARM GAS  /tmp/ccRbkbhA.s 			page 61


 3402 02c6 13       		.uleb128 0x13
 3403 02c7 02       		.uleb128 0x2
 3404 02c8 06       		.uleb128 0x6
 3405 02c9 00       		.byte	0
 3406 02ca 00       		.byte	0
 3407 02cb 33       		.uleb128 0x33
 3408 02cc 34       		.uleb128 0x34
 3409 02cd 00       		.byte	0
 3410 02ce 03       		.uleb128 0x3
 3411 02cf 08       		.uleb128 0x8
 3412 02d0 3A       		.uleb128 0x3a
 3413 02d1 0B       		.uleb128 0xb
 3414 02d2 3B       		.uleb128 0x3b
 3415 02d3 05       		.uleb128 0x5
 3416 02d4 49       		.uleb128 0x49
 3417 02d5 13       		.uleb128 0x13
 3418 02d6 02       		.uleb128 0x2
 3419 02d7 06       		.uleb128 0x6
 3420 02d8 00       		.byte	0
 3421 02d9 00       		.byte	0
 3422 02da 34       		.uleb128 0x34
 3423 02db 2E       		.uleb128 0x2e
 3424 02dc 01       		.byte	0x1
 3425 02dd 3F       		.uleb128 0x3f
 3426 02de 0C       		.uleb128 0xc
 3427 02df 03       		.uleb128 0x3
 3428 02e0 0E       		.uleb128 0xe
 3429 02e1 3A       		.uleb128 0x3a
 3430 02e2 0B       		.uleb128 0xb
 3431 02e3 3B       		.uleb128 0x3b
 3432 02e4 05       		.uleb128 0x5
 3433 02e5 27       		.uleb128 0x27
 3434 02e6 0C       		.uleb128 0xc
 3435 02e7 49       		.uleb128 0x49
 3436 02e8 13       		.uleb128 0x13
 3437 02e9 11       		.uleb128 0x11
 3438 02ea 01       		.uleb128 0x1
 3439 02eb 12       		.uleb128 0x12
 3440 02ec 01       		.uleb128 0x1
 3441 02ed 40       		.uleb128 0x40
 3442 02ee 06       		.uleb128 0x6
 3443 02ef 9642     		.uleb128 0x2116
 3444 02f1 0C       		.uleb128 0xc
 3445 02f2 01       		.uleb128 0x1
 3446 02f3 13       		.uleb128 0x13
 3447 02f4 00       		.byte	0
 3448 02f5 00       		.byte	0
 3449 02f6 35       		.uleb128 0x35
 3450 02f7 34       		.uleb128 0x34
 3451 02f8 00       		.byte	0
 3452 02f9 03       		.uleb128 0x3
 3453 02fa 08       		.uleb128 0x8
 3454 02fb 3A       		.uleb128 0x3a
 3455 02fc 0B       		.uleb128 0xb
 3456 02fd 3B       		.uleb128 0x3b
 3457 02fe 05       		.uleb128 0x5
 3458 02ff 49       		.uleb128 0x49
ARM GAS  /tmp/ccRbkbhA.s 			page 62


 3459 0300 13       		.uleb128 0x13
 3460 0301 02       		.uleb128 0x2
 3461 0302 0A       		.uleb128 0xa
 3462 0303 00       		.byte	0
 3463 0304 00       		.byte	0
 3464 0305 36       		.uleb128 0x36
 3465 0306 34       		.uleb128 0x34
 3466 0307 00       		.byte	0
 3467 0308 03       		.uleb128 0x3
 3468 0309 0E       		.uleb128 0xe
 3469 030a 3A       		.uleb128 0x3a
 3470 030b 0B       		.uleb128 0xb
 3471 030c 3B       		.uleb128 0x3b
 3472 030d 0B       		.uleb128 0xb
 3473 030e 49       		.uleb128 0x49
 3474 030f 13       		.uleb128 0x13
 3475 0310 3F       		.uleb128 0x3f
 3476 0311 0C       		.uleb128 0xc
 3477 0312 3C       		.uleb128 0x3c
 3478 0313 0C       		.uleb128 0xc
 3479 0314 00       		.byte	0
 3480 0315 00       		.byte	0
 3481 0316 37       		.uleb128 0x37
 3482 0317 2E       		.uleb128 0x2e
 3483 0318 01       		.byte	0x1
 3484 0319 3F       		.uleb128 0x3f
 3485 031a 0C       		.uleb128 0xc
 3486 031b 03       		.uleb128 0x3
 3487 031c 0E       		.uleb128 0xe
 3488 031d 3A       		.uleb128 0x3a
 3489 031e 0B       		.uleb128 0xb
 3490 031f 3B       		.uleb128 0x3b
 3491 0320 0B       		.uleb128 0xb
 3492 0321 27       		.uleb128 0x27
 3493 0322 0C       		.uleb128 0xc
 3494 0323 49       		.uleb128 0x49
 3495 0324 13       		.uleb128 0x13
 3496 0325 3C       		.uleb128 0x3c
 3497 0326 0C       		.uleb128 0xc
 3498 0327 01       		.uleb128 0x1
 3499 0328 13       		.uleb128 0x13
 3500 0329 00       		.byte	0
 3501 032a 00       		.byte	0
 3502 032b 38       		.uleb128 0x38
 3503 032c 2E       		.uleb128 0x2e
 3504 032d 00       		.byte	0
 3505 032e 3F       		.uleb128 0x3f
 3506 032f 0C       		.uleb128 0xc
 3507 0330 03       		.uleb128 0x3
 3508 0331 0E       		.uleb128 0xe
 3509 0332 3A       		.uleb128 0x3a
 3510 0333 0B       		.uleb128 0xb
 3511 0334 3B       		.uleb128 0x3b
 3512 0335 0B       		.uleb128 0xb
 3513 0336 27       		.uleb128 0x27
 3514 0337 0C       		.uleb128 0xc
 3515 0338 3C       		.uleb128 0x3c
ARM GAS  /tmp/ccRbkbhA.s 			page 63


 3516 0339 0C       		.uleb128 0xc
 3517 033a 00       		.byte	0
 3518 033b 00       		.byte	0
 3519 033c 39       		.uleb128 0x39
 3520 033d 2E       		.uleb128 0x2e
 3521 033e 01       		.byte	0x1
 3522 033f 3F       		.uleb128 0x3f
 3523 0340 0C       		.uleb128 0xc
 3524 0341 03       		.uleb128 0x3
 3525 0342 0E       		.uleb128 0xe
 3526 0343 3A       		.uleb128 0x3a
 3527 0344 0B       		.uleb128 0xb
 3528 0345 3B       		.uleb128 0x3b
 3529 0346 0B       		.uleb128 0xb
 3530 0347 27       		.uleb128 0x27
 3531 0348 0C       		.uleb128 0xc
 3532 0349 3C       		.uleb128 0x3c
 3533 034a 0C       		.uleb128 0xc
 3534 034b 01       		.uleb128 0x1
 3535 034c 13       		.uleb128 0x13
 3536 034d 00       		.byte	0
 3537 034e 00       		.byte	0
 3538 034f 00       		.byte	0
 3539              		.section	.debug_loc,"",%progbits
 3540              	.Ldebug_loc0:
 3541              	.LLST0:
 3542 0000 00000000 		.4byte	.LFB7
 3543 0004 02000000 		.4byte	.LCFI0
 3544 0008 0200     		.2byte	0x2
 3545 000a 7D       		.byte	0x7d
 3546 000b 00       		.sleb128 0
 3547 000c 02000000 		.4byte	.LCFI0
 3548 0010 2C000000 		.4byte	.LFE7
 3549 0014 0200     		.2byte	0x2
 3550 0016 7D       		.byte	0x7d
 3551 0017 04       		.sleb128 4
 3552 0018 00000000 		.4byte	0
 3553 001c 00000000 		.4byte	0
 3554              	.LLST1:
 3555 0020 00000000 		.4byte	.LVL0
 3556 0024 0A000000 		.4byte	.LVL1
 3557 0028 0100     		.2byte	0x1
 3558 002a 50       		.byte	0x50
 3559 002b 0A000000 		.4byte	.LVL1
 3560 002f 1D000000 		.4byte	.LVL3-1
 3561 0033 0100     		.2byte	0x1
 3562 0035 52       		.byte	0x52
 3563 0036 1D000000 		.4byte	.LVL3-1
 3564 003a 1E000000 		.4byte	.LVL3
 3565 003e 0400     		.2byte	0x4
 3566 0040 F3       		.byte	0xf3
 3567 0041 01       		.uleb128 0x1
 3568 0042 50       		.byte	0x50
 3569 0043 9F       		.byte	0x9f
 3570 0044 1E000000 		.4byte	.LVL3
 3571 0048 22000000 		.4byte	.LVL4
 3572 004c 0100     		.2byte	0x1
ARM GAS  /tmp/ccRbkbhA.s 			page 64


 3573 004e 50       		.byte	0x50
 3574 004f 22000000 		.4byte	.LVL4
 3575 0053 2C000000 		.4byte	.LFE7
 3576 0057 0100     		.2byte	0x1
 3577 0059 52       		.byte	0x52
 3578 005a 00000000 		.4byte	0
 3579 005e 00000000 		.4byte	0
 3580              	.LLST2:
 3581 0062 00000000 		.4byte	.LVL0
 3582 0066 1D000000 		.4byte	.LVL3-1
 3583 006a 0100     		.2byte	0x1
 3584 006c 51       		.byte	0x51
 3585 006d 1D000000 		.4byte	.LVL3-1
 3586 0071 1E000000 		.4byte	.LVL3
 3587 0075 0400     		.2byte	0x4
 3588 0077 F3       		.byte	0xf3
 3589 0078 01       		.uleb128 0x1
 3590 0079 51       		.byte	0x51
 3591 007a 9F       		.byte	0x9f
 3592 007b 1E000000 		.4byte	.LVL3
 3593 007f 2C000000 		.4byte	.LFE7
 3594 0083 0100     		.2byte	0x1
 3595 0085 51       		.byte	0x51
 3596 0086 00000000 		.4byte	0
 3597 008a 00000000 		.4byte	0
 3598              	.LLST3:
 3599 008e 0E000000 		.4byte	.LVL2
 3600 0092 1D000000 		.4byte	.LVL3-1
 3601 0096 0100     		.2byte	0x1
 3602 0098 52       		.byte	0x52
 3603 0099 1D000000 		.4byte	.LVL3-1
 3604 009d 1E000000 		.4byte	.LVL3
 3605 00a1 0400     		.2byte	0x4
 3606 00a3 F3       		.byte	0xf3
 3607 00a4 01       		.uleb128 0x1
 3608 00a5 50       		.byte	0x50
 3609 00a6 9F       		.byte	0x9f
 3610 00a7 00000000 		.4byte	0
 3611 00ab 00000000 		.4byte	0
 3612              	.LLST4:
 3613 00af 0E000000 		.4byte	.LVL2
 3614 00b3 1D000000 		.4byte	.LVL3-1
 3615 00b7 0100     		.2byte	0x1
 3616 00b9 53       		.byte	0x53
 3617 00ba 00000000 		.4byte	0
 3618 00be 00000000 		.4byte	0
 3619              	.LLST5:
 3620 00c2 00000000 		.4byte	.LFB8
 3621 00c6 02000000 		.4byte	.LCFI1
 3622 00ca 0200     		.2byte	0x2
 3623 00cc 7D       		.byte	0x7d
 3624 00cd 00       		.sleb128 0
 3625 00ce 02000000 		.4byte	.LCFI1
 3626 00d2 1A000000 		.4byte	.LFE8
 3627 00d6 0200     		.2byte	0x2
 3628 00d8 7D       		.byte	0x7d
 3629 00d9 04       		.sleb128 4
ARM GAS  /tmp/ccRbkbhA.s 			page 65


 3630 00da 00000000 		.4byte	0
 3631 00de 00000000 		.4byte	0
 3632              	.LLST6:
 3633 00e2 00000000 		.4byte	.LVL5
 3634 00e6 04000000 		.4byte	.LVL6
 3635 00ea 0100     		.2byte	0x1
 3636 00ec 52       		.byte	0x52
 3637 00ed 04000000 		.4byte	.LVL6
 3638 00f1 1A000000 		.4byte	.LFE8
 3639 00f5 0400     		.2byte	0x4
 3640 00f7 F3       		.byte	0xf3
 3641 00f8 01       		.uleb128 0x1
 3642 00f9 52       		.byte	0x52
 3643 00fa 9F       		.byte	0x9f
 3644 00fb 00000000 		.4byte	0
 3645 00ff 00000000 		.4byte	0
 3646              	.LLST7:
 3647 0103 00000000 		.4byte	.LFB9
 3648 0107 02000000 		.4byte	.LCFI2
 3649 010b 0200     		.2byte	0x2
 3650 010d 7D       		.byte	0x7d
 3651 010e 00       		.sleb128 0
 3652 010f 02000000 		.4byte	.LCFI2
 3653 0113 30000000 		.4byte	.LFE9
 3654 0117 0200     		.2byte	0x2
 3655 0119 7D       		.byte	0x7d
 3656 011a 10       		.sleb128 16
 3657 011b 00000000 		.4byte	0
 3658 011f 00000000 		.4byte	0
 3659              	.LLST8:
 3660 0123 00000000 		.4byte	.LVL7
 3661 0127 07000000 		.4byte	.LVL8-1
 3662 012b 0100     		.2byte	0x1
 3663 012d 50       		.byte	0x50
 3664 012e 07000000 		.4byte	.LVL8-1
 3665 0132 30000000 		.4byte	.LFE9
 3666 0136 0100     		.2byte	0x1
 3667 0138 54       		.byte	0x54
 3668 0139 00000000 		.4byte	0
 3669 013d 00000000 		.4byte	0
 3670              	.LLST9:
 3671 0141 1C000000 		.4byte	.LVL9
 3672 0145 2E000000 		.4byte	.LVL11
 3673 0149 0100     		.2byte	0x1
 3674 014b 54       		.byte	0x54
 3675 014c 00000000 		.4byte	0
 3676 0150 00000000 		.4byte	0
 3677              	.LLST10:
 3678 0154 1C000000 		.4byte	.LVL9
 3679 0158 25000000 		.4byte	.LVL10-1
 3680 015c 0100     		.2byte	0x1
 3681 015e 50       		.byte	0x50
 3682 015f 00000000 		.4byte	0
 3683 0163 00000000 		.4byte	0
 3684              	.LLST11:
 3685 0167 00000000 		.4byte	.LFB10
 3686 016b 02000000 		.4byte	.LCFI3
ARM GAS  /tmp/ccRbkbhA.s 			page 66


 3687 016f 0200     		.2byte	0x2
 3688 0171 7D       		.byte	0x7d
 3689 0172 00       		.sleb128 0
 3690 0173 02000000 		.4byte	.LCFI3
 3691 0177 50000000 		.4byte	.LFE10
 3692 017b 0200     		.2byte	0x2
 3693 017d 7D       		.byte	0x7d
 3694 017e 10       		.sleb128 16
 3695 017f 00000000 		.4byte	0
 3696 0183 00000000 		.4byte	0
 3697              	.LLST12:
 3698 0187 00000000 		.4byte	.LVL12
 3699 018b 09000000 		.4byte	.LVL13-1
 3700 018f 0100     		.2byte	0x1
 3701 0191 50       		.byte	0x50
 3702 0192 09000000 		.4byte	.LVL13-1
 3703 0196 50000000 		.4byte	.LFE10
 3704 019a 0100     		.2byte	0x1
 3705 019c 54       		.byte	0x54
 3706 019d 00000000 		.4byte	0
 3707 01a1 00000000 		.4byte	0
 3708              	.LLST13:
 3709 01a5 00000000 		.4byte	.LVL12
 3710 01a9 09000000 		.4byte	.LVL13-1
 3711 01ad 0100     		.2byte	0x1
 3712 01af 51       		.byte	0x51
 3713 01b0 09000000 		.4byte	.LVL13-1
 3714 01b4 50000000 		.4byte	.LFE10
 3715 01b8 0400     		.2byte	0x4
 3716 01ba F3       		.byte	0xf3
 3717 01bb 01       		.uleb128 0x1
 3718 01bc 51       		.byte	0x51
 3719 01bd 9F       		.byte	0x9f
 3720 01be 00000000 		.4byte	0
 3721 01c2 00000000 		.4byte	0
 3722              	.LLST14:
 3723 01c6 30000000 		.4byte	.LVL14
 3724 01ca 42000000 		.4byte	.LVL16
 3725 01ce 0100     		.2byte	0x1
 3726 01d0 54       		.byte	0x54
 3727 01d1 00000000 		.4byte	0
 3728 01d5 00000000 		.4byte	0
 3729              	.LLST15:
 3730 01d9 30000000 		.4byte	.LVL14
 3731 01dd 39000000 		.4byte	.LVL15-1
 3732 01e1 0100     		.2byte	0x1
 3733 01e3 50       		.byte	0x50
 3734 01e4 00000000 		.4byte	0
 3735 01e8 00000000 		.4byte	0
 3736              	.LLST16:
 3737 01ec 00000000 		.4byte	.LFB11
 3738 01f0 02000000 		.4byte	.LCFI4
 3739 01f4 0200     		.2byte	0x2
 3740 01f6 7D       		.byte	0x7d
 3741 01f7 00       		.sleb128 0
 3742 01f8 02000000 		.4byte	.LCFI4
 3743 01fc 5A000000 		.4byte	.LFE11
ARM GAS  /tmp/ccRbkbhA.s 			page 67


 3744 0200 0200     		.2byte	0x2
 3745 0202 7D       		.byte	0x7d
 3746 0203 18       		.sleb128 24
 3747 0204 00000000 		.4byte	0
 3748 0208 00000000 		.4byte	0
 3749              	.LLST17:
 3750 020c 00000000 		.4byte	.LVL17
 3751 0210 0F000000 		.4byte	.LVL20-1
 3752 0214 0100     		.2byte	0x1
 3753 0216 50       		.byte	0x50
 3754 0217 0F000000 		.4byte	.LVL20-1
 3755 021b 20000000 		.4byte	.LVL22
 3756 021f 0100     		.2byte	0x1
 3757 0221 54       		.byte	0x54
 3758 0222 20000000 		.4byte	.LVL22
 3759 0226 23000000 		.4byte	.LVL23-1
 3760 022a 0100     		.2byte	0x1
 3761 022c 50       		.byte	0x50
 3762 022d 23000000 		.4byte	.LVL23-1
 3763 0231 36000000 		.4byte	.LVL27
 3764 0235 0100     		.2byte	0x1
 3765 0237 54       		.byte	0x54
 3766 0238 36000000 		.4byte	.LVL27
 3767 023c 38000000 		.4byte	.LVL28
 3768 0240 0100     		.2byte	0x1
 3769 0242 50       		.byte	0x50
 3770 0243 38000000 		.4byte	.LVL28
 3771 0247 5A000000 		.4byte	.LFE11
 3772 024b 0100     		.2byte	0x1
 3773 024d 54       		.byte	0x54
 3774 024e 00000000 		.4byte	0
 3775 0252 00000000 		.4byte	0
 3776              	.LLST18:
 3777 0256 00000000 		.4byte	.LVL17
 3778 025a 0F000000 		.4byte	.LVL20-1
 3779 025e 0100     		.2byte	0x1
 3780 0260 51       		.byte	0x51
 3781 0261 0F000000 		.4byte	.LVL20-1
 3782 0265 20000000 		.4byte	.LVL22
 3783 0269 0100     		.2byte	0x1
 3784 026b 56       		.byte	0x56
 3785 026c 20000000 		.4byte	.LVL22
 3786 0270 23000000 		.4byte	.LVL23-1
 3787 0274 0100     		.2byte	0x1
 3788 0276 51       		.byte	0x51
 3789 0277 23000000 		.4byte	.LVL23-1
 3790 027b 36000000 		.4byte	.LVL27
 3791 027f 0100     		.2byte	0x1
 3792 0281 56       		.byte	0x56
 3793 0282 36000000 		.4byte	.LVL27
 3794 0286 4F000000 		.4byte	.LVL30-1
 3795 028a 0100     		.2byte	0x1
 3796 028c 51       		.byte	0x51
 3797 028d 4F000000 		.4byte	.LVL30-1
 3798 0291 5A000000 		.4byte	.LFE11
 3799 0295 0100     		.2byte	0x1
 3800 0297 56       		.byte	0x56
ARM GAS  /tmp/ccRbkbhA.s 			page 68


 3801 0298 00000000 		.4byte	0
 3802 029c 00000000 		.4byte	0
 3803              	.LLST19:
 3804 02a0 40000000 		.4byte	.LVL29
 3805 02a4 4F000000 		.4byte	.LVL30-1
 3806 02a8 0300     		.2byte	0x3
 3807 02aa 74       		.byte	0x74
 3808 02ab 18       		.sleb128 24
 3809 02ac 06       		.byte	0x6
 3810 02ad 4F000000 		.4byte	.LVL30-1
 3811 02b1 5A000000 		.4byte	.LFE11
 3812 02b5 0100     		.2byte	0x1
 3813 02b7 57       		.byte	0x57
 3814 02b8 00000000 		.4byte	0
 3815 02bc 00000000 		.4byte	0
 3816              	.LLST20:
 3817 02c0 0C000000 		.4byte	.LVL19
 3818 02c4 0F000000 		.4byte	.LVL20-1
 3819 02c8 0100     		.2byte	0x1
 3820 02ca 53       		.byte	0x53
 3821 02cb 00000000 		.4byte	0
 3822 02cf 00000000 		.4byte	0
 3823              	.LLST21:
 3824 02d3 24000000 		.4byte	.LVL23
 3825 02d7 2B000000 		.4byte	.LVL24-1
 3826 02db 0100     		.2byte	0x1
 3827 02dd 50       		.byte	0x50
 3828 02de 2B000000 		.4byte	.LVL24-1
 3829 02e2 36000000 		.4byte	.LVL27
 3830 02e6 0100     		.2byte	0x1
 3831 02e8 57       		.byte	0x57
 3832 02e9 00000000 		.4byte	0
 3833 02ed 00000000 		.4byte	0
 3834              	.LLST22:
 3835 02f1 32000000 		.4byte	.LVL26
 3836 02f5 36000000 		.4byte	.LVL27
 3837 02f9 0100     		.2byte	0x1
 3838 02fb 53       		.byte	0x53
 3839 02fc 00000000 		.4byte	0
 3840 0300 00000000 		.4byte	0
 3841              	.LLST23:
 3842 0304 56000000 		.4byte	.LVL32
 3843 0308 5A000000 		.4byte	.LFE11
 3844 030c 0100     		.2byte	0x1
 3845 030e 53       		.byte	0x53
 3846 030f 00000000 		.4byte	0
 3847 0313 00000000 		.4byte	0
 3848              	.LLST24:
 3849 0317 00000000 		.4byte	.LFB12
 3850 031b 04000000 		.4byte	.LCFI5
 3851 031f 0200     		.2byte	0x2
 3852 0321 7D       		.byte	0x7d
 3853 0322 00       		.sleb128 0
 3854 0323 04000000 		.4byte	.LCFI5
 3855 0327 94000000 		.4byte	.LFE12
 3856 032b 0200     		.2byte	0x2
 3857 032d 7D       		.byte	0x7d
ARM GAS  /tmp/ccRbkbhA.s 			page 69


 3858 032e 20       		.sleb128 32
 3859 032f 00000000 		.4byte	0
 3860 0333 00000000 		.4byte	0
 3861              	.LLST25:
 3862 0337 00000000 		.4byte	.LVL33
 3863 033b 12000000 		.4byte	.LVL35
 3864 033f 0100     		.2byte	0x1
 3865 0341 50       		.byte	0x50
 3866 0342 12000000 		.4byte	.LVL35
 3867 0346 34000000 		.4byte	.LVL41
 3868 034a 0100     		.2byte	0x1
 3869 034c 54       		.byte	0x54
 3870 034d 34000000 		.4byte	.LVL41
 3871 0351 37000000 		.4byte	.LVL42-1
 3872 0355 0100     		.2byte	0x1
 3873 0357 50       		.byte	0x50
 3874 0358 37000000 		.4byte	.LVL42-1
 3875 035c 4C000000 		.4byte	.LVL46
 3876 0360 0100     		.2byte	0x1
 3877 0362 54       		.byte	0x54
 3878 0363 4C000000 		.4byte	.LVL46
 3879 0367 5C000000 		.4byte	.LVL47
 3880 036b 0100     		.2byte	0x1
 3881 036d 50       		.byte	0x50
 3882 036e 5C000000 		.4byte	.LVL47
 3883 0372 88000000 		.4byte	.LVL54
 3884 0376 0100     		.2byte	0x1
 3885 0378 54       		.byte	0x54
 3886 0379 88000000 		.4byte	.LVL54
 3887 037d 8A000000 		.4byte	.LVL55
 3888 0381 0100     		.2byte	0x1
 3889 0383 50       		.byte	0x50
 3890 0384 8A000000 		.4byte	.LVL55
 3891 0388 94000000 		.4byte	.LFE12
 3892 038c 0100     		.2byte	0x1
 3893 038e 54       		.byte	0x54
 3894 038f 00000000 		.4byte	0
 3895 0393 00000000 		.4byte	0
 3896              	.LLST26:
 3897 0397 00000000 		.4byte	.LVL33
 3898 039b 12000000 		.4byte	.LVL35
 3899 039f 0100     		.2byte	0x1
 3900 03a1 51       		.byte	0x51
 3901 03a2 12000000 		.4byte	.LVL35
 3902 03a6 26000000 		.4byte	.LVL39
 3903 03aa 0100     		.2byte	0x1
 3904 03ac 58       		.byte	0x58
 3905 03ad 88000000 		.4byte	.LVL54
 3906 03b1 8D000000 		.4byte	.LVL56-1
 3907 03b5 0100     		.2byte	0x1
 3908 03b7 51       		.byte	0x51
 3909 03b8 8D000000 		.4byte	.LVL56-1
 3910 03bc 94000000 		.4byte	.LFE12
 3911 03c0 0100     		.2byte	0x1
 3912 03c2 58       		.byte	0x58
 3913 03c3 00000000 		.4byte	0
 3914 03c7 00000000 		.4byte	0
ARM GAS  /tmp/ccRbkbhA.s 			page 70


 3915              	.LLST27:
 3916 03cb 00000000 		.4byte	.LVL33
 3917 03cf 12000000 		.4byte	.LVL35
 3918 03d3 0100     		.2byte	0x1
 3919 03d5 52       		.byte	0x52
 3920 03d6 12000000 		.4byte	.LVL35
 3921 03da 26000000 		.4byte	.LVL39
 3922 03de 0100     		.2byte	0x1
 3923 03e0 55       		.byte	0x55
 3924 03e1 88000000 		.4byte	.LVL54
 3925 03e5 8D000000 		.4byte	.LVL56-1
 3926 03e9 0100     		.2byte	0x1
 3927 03eb 52       		.byte	0x52
 3928 03ec 8D000000 		.4byte	.LVL56-1
 3929 03f0 94000000 		.4byte	.LFE12
 3930 03f4 0100     		.2byte	0x1
 3931 03f6 55       		.byte	0x55
 3932 03f7 00000000 		.4byte	0
 3933 03fb 00000000 		.4byte	0
 3934              	.LLST28:
 3935 03ff 00000000 		.4byte	.LVL33
 3936 0403 12000000 		.4byte	.LVL35
 3937 0407 0100     		.2byte	0x1
 3938 0409 53       		.byte	0x53
 3939 040a 12000000 		.4byte	.LVL35
 3940 040e 34000000 		.4byte	.LVL41
 3941 0412 0100     		.2byte	0x1
 3942 0414 56       		.byte	0x56
 3943 0415 34000000 		.4byte	.LVL41
 3944 0419 37000000 		.4byte	.LVL42-1
 3945 041d 0100     		.2byte	0x1
 3946 041f 51       		.byte	0x51
 3947 0420 37000000 		.4byte	.LVL42-1
 3948 0424 4C000000 		.4byte	.LVL46
 3949 0428 0100     		.2byte	0x1
 3950 042a 56       		.byte	0x56
 3951 042b 4C000000 		.4byte	.LVL46
 3952 042f 69000000 		.4byte	.LVL48-1
 3953 0433 0100     		.2byte	0x1
 3954 0435 51       		.byte	0x51
 3955 0436 69000000 		.4byte	.LVL48-1
 3956 043a 88000000 		.4byte	.LVL54
 3957 043e 0100     		.2byte	0x1
 3958 0440 56       		.byte	0x56
 3959 0441 88000000 		.4byte	.LVL54
 3960 0445 8D000000 		.4byte	.LVL56-1
 3961 0449 0100     		.2byte	0x1
 3962 044b 53       		.byte	0x53
 3963 044c 8D000000 		.4byte	.LVL56-1
 3964 0450 94000000 		.4byte	.LFE12
 3965 0454 0100     		.2byte	0x1
 3966 0456 56       		.byte	0x56
 3967 0457 00000000 		.4byte	0
 3968 045b 00000000 		.4byte	0
 3969              	.LLST29:
 3970 045f 0E000000 		.4byte	.LVL34
 3971 0463 26000000 		.4byte	.LVL39
ARM GAS  /tmp/ccRbkbhA.s 			page 71


 3972 0467 0200     		.2byte	0x2
 3973 0469 30       		.byte	0x30
 3974 046a 9F       		.byte	0x9f
 3975 046b 26000000 		.4byte	.LVL39
 3976 046f 88000000 		.4byte	.LVL54
 3977 0473 0100     		.2byte	0x1
 3978 0475 59       		.byte	0x59
 3979 0476 88000000 		.4byte	.LVL54
 3980 047a 94000000 		.4byte	.LFE12
 3981 047e 0200     		.2byte	0x2
 3982 0480 30       		.byte	0x30
 3983 0481 9F       		.byte	0x9f
 3984 0482 00000000 		.4byte	0
 3985 0486 00000000 		.4byte	0
 3986              	.LLST30:
 3987 048a 18000000 		.4byte	.LVL37
 3988 048e 1B000000 		.4byte	.LVL38-1
 3989 0492 0100     		.2byte	0x1
 3990 0494 53       		.byte	0x53
 3991 0495 00000000 		.4byte	0
 3992 0499 00000000 		.4byte	0
 3993              	.LLST31:
 3994 049d 46000000 		.4byte	.LVL45
 3995 04a1 4C000000 		.4byte	.LVL46
 3996 04a5 0100     		.2byte	0x1
 3997 04a7 53       		.byte	0x53
 3998 04a8 00000000 		.4byte	0
 3999 04ac 00000000 		.4byte	0
 4000              	.LLST32:
 4001 04b0 46000000 		.4byte	.LVL45
 4002 04b4 4C000000 		.4byte	.LVL46
 4003 04b8 0100     		.2byte	0x1
 4004 04ba 53       		.byte	0x53
 4005 04bb 70000000 		.4byte	.LVL49
 4006 04bf 7A000000 		.4byte	.LVL51
 4007 04c3 0100     		.2byte	0x1
 4008 04c5 53       		.byte	0x53
 4009 04c6 00000000 		.4byte	0
 4010 04ca 00000000 		.4byte	0
 4011              	.LLST33:
 4012 04ce 7E000000 		.4byte	.LVL52
 4013 04d2 81000000 		.4byte	.LVL53-1
 4014 04d6 0100     		.2byte	0x1
 4015 04d8 53       		.byte	0x53
 4016 04d9 00000000 		.4byte	0
 4017 04dd 00000000 		.4byte	0
 4018              	.LLST34:
 4019 04e1 00000000 		.4byte	.LFB13
 4020 04e5 02000000 		.4byte	.LCFI6
 4021 04e9 0200     		.2byte	0x2
 4022 04eb 7D       		.byte	0x7d
 4023 04ec 00       		.sleb128 0
 4024 04ed 02000000 		.4byte	.LCFI6
 4025 04f1 18000000 		.4byte	.LFE13
 4026 04f5 0200     		.2byte	0x2
 4027 04f7 7D       		.byte	0x7d
 4028 04f8 04       		.sleb128 4
ARM GAS  /tmp/ccRbkbhA.s 			page 72


 4029 04f9 00000000 		.4byte	0
 4030 04fd 00000000 		.4byte	0
 4031              	.LLST35:
 4032 0501 00000000 		.4byte	.LFB14
 4033 0505 02000000 		.4byte	.LCFI7
 4034 0509 0200     		.2byte	0x2
 4035 050b 7D       		.byte	0x7d
 4036 050c 00       		.sleb128 0
 4037 050d 02000000 		.4byte	.LCFI7
 4038 0511 32000000 		.4byte	.LFE14
 4039 0515 0200     		.2byte	0x2
 4040 0517 7D       		.byte	0x7d
 4041 0518 10       		.sleb128 16
 4042 0519 00000000 		.4byte	0
 4043 051d 00000000 		.4byte	0
 4044              	.LLST36:
 4045 0521 00000000 		.4byte	.LVL58
 4046 0525 07000000 		.4byte	.LVL59-1
 4047 0529 0100     		.2byte	0x1
 4048 052b 50       		.byte	0x50
 4049 052c 07000000 		.4byte	.LVL59-1
 4050 0530 32000000 		.4byte	.LFE14
 4051 0534 0100     		.2byte	0x1
 4052 0536 54       		.byte	0x54
 4053 0537 00000000 		.4byte	0
 4054 053b 00000000 		.4byte	0
 4055              	.LLST37:
 4056 053f 1E000000 		.4byte	.LVL60
 4057 0543 30000000 		.4byte	.LVL62
 4058 0547 0100     		.2byte	0x1
 4059 0549 54       		.byte	0x54
 4060 054a 00000000 		.4byte	0
 4061 054e 00000000 		.4byte	0
 4062              	.LLST38:
 4063 0552 1E000000 		.4byte	.LVL60
 4064 0556 27000000 		.4byte	.LVL61-1
 4065 055a 0100     		.2byte	0x1
 4066 055c 50       		.byte	0x50
 4067 055d 00000000 		.4byte	0
 4068 0561 00000000 		.4byte	0
 4069              	.LLST39:
 4070 0565 00000000 		.4byte	.LFB15
 4071 0569 04000000 		.4byte	.LCFI8
 4072 056d 0200     		.2byte	0x2
 4073 056f 7D       		.byte	0x7d
 4074 0570 00       		.sleb128 0
 4075 0571 04000000 		.4byte	.LCFI8
 4076 0575 66000000 		.4byte	.LFE15
 4077 0579 0200     		.2byte	0x2
 4078 057b 7D       		.byte	0x7d
 4079 057c 18       		.sleb128 24
 4080 057d 00000000 		.4byte	0
 4081 0581 00000000 		.4byte	0
 4082              	.LLST40:
 4083 0585 00000000 		.4byte	.LVL63
 4084 0589 13000000 		.4byte	.LVL66-1
 4085 058d 0100     		.2byte	0x1
ARM GAS  /tmp/ccRbkbhA.s 			page 73


 4086 058f 50       		.byte	0x50
 4087 0590 13000000 		.4byte	.LVL66-1
 4088 0594 1C000000 		.4byte	.LVL67
 4089 0598 0100     		.2byte	0x1
 4090 059a 54       		.byte	0x54
 4091 059b 1C000000 		.4byte	.LVL67
 4092 059f 1F000000 		.4byte	.LVL68-1
 4093 05a3 0100     		.2byte	0x1
 4094 05a5 50       		.byte	0x50
 4095 05a6 1F000000 		.4byte	.LVL68-1
 4096 05aa 34000000 		.4byte	.LVL72
 4097 05ae 0100     		.2byte	0x1
 4098 05b0 54       		.byte	0x54
 4099 05b1 34000000 		.4byte	.LVL72
 4100 05b5 52000000 		.4byte	.LVL74
 4101 05b9 0100     		.2byte	0x1
 4102 05bb 50       		.byte	0x50
 4103 05bc 52000000 		.4byte	.LVL74
 4104 05c0 66000000 		.4byte	.LFE15
 4105 05c4 0100     		.2byte	0x1
 4106 05c6 54       		.byte	0x54
 4107 05c7 00000000 		.4byte	0
 4108 05cb 00000000 		.4byte	0
 4109              	.LLST41:
 4110 05cf 00000000 		.4byte	.LVL63
 4111 05d3 13000000 		.4byte	.LVL66-1
 4112 05d7 0100     		.2byte	0x1
 4113 05d9 51       		.byte	0x51
 4114 05da 13000000 		.4byte	.LVL66-1
 4115 05de 66000000 		.4byte	.LFE15
 4116 05e2 0400     		.2byte	0x4
 4117 05e4 F3       		.byte	0xf3
 4118 05e5 01       		.uleb128 0x1
 4119 05e6 51       		.byte	0x51
 4120 05e7 9F       		.byte	0x9f
 4121 05e8 00000000 		.4byte	0
 4122 05ec 00000000 		.4byte	0
 4123              	.LLST42:
 4124 05f0 00000000 		.4byte	.LVL63
 4125 05f4 13000000 		.4byte	.LVL66-1
 4126 05f8 0100     		.2byte	0x1
 4127 05fa 52       		.byte	0x52
 4128 05fb 13000000 		.4byte	.LVL66-1
 4129 05ff 1C000000 		.4byte	.LVL67
 4130 0603 0100     		.2byte	0x1
 4131 0605 56       		.byte	0x56
 4132 0606 1C000000 		.4byte	.LVL67
 4133 060a 1F000000 		.4byte	.LVL68-1
 4134 060e 0100     		.2byte	0x1
 4135 0610 51       		.byte	0x51
 4136 0611 1F000000 		.4byte	.LVL68-1
 4137 0615 34000000 		.4byte	.LVL72
 4138 0619 0100     		.2byte	0x1
 4139 061b 56       		.byte	0x56
 4140 061c 34000000 		.4byte	.LVL72
 4141 0620 4A000000 		.4byte	.LVL73
 4142 0624 0100     		.2byte	0x1
ARM GAS  /tmp/ccRbkbhA.s 			page 74


 4143 0626 51       		.byte	0x51
 4144 0627 4A000000 		.4byte	.LVL73
 4145 062b 66000000 		.4byte	.LFE15
 4146 062f 0100     		.2byte	0x1
 4147 0631 56       		.byte	0x56
 4148 0632 00000000 		.4byte	0
 4149 0636 00000000 		.4byte	0
 4150              	.LLST43:
 4151 063a 10000000 		.4byte	.LVL65
 4152 063e 13000000 		.4byte	.LVL66-1
 4153 0642 0100     		.2byte	0x1
 4154 0644 53       		.byte	0x53
 4155 0645 00000000 		.4byte	0
 4156 0649 00000000 		.4byte	0
 4157              	.LLST44:
 4158 064d 20000000 		.4byte	.LVL68
 4159 0651 27000000 		.4byte	.LVL69-1
 4160 0655 0100     		.2byte	0x1
 4161 0657 50       		.byte	0x50
 4162 0658 27000000 		.4byte	.LVL69-1
 4163 065c 34000000 		.4byte	.LVL72
 4164 0660 0100     		.2byte	0x1
 4165 0662 57       		.byte	0x57
 4166 0663 00000000 		.4byte	0
 4167 0667 00000000 		.4byte	0
 4168              	.LLST45:
 4169 066b 2E000000 		.4byte	.LVL71
 4170 066f 34000000 		.4byte	.LVL72
 4171 0673 0100     		.2byte	0x1
 4172 0675 53       		.byte	0x53
 4173 0676 00000000 		.4byte	0
 4174 067a 00000000 		.4byte	0
 4175              	.LLST46:
 4176 067e 5E000000 		.4byte	.LVL78
 4177 0682 66000000 		.4byte	.LFE15
 4178 0686 0100     		.2byte	0x1
 4179 0688 53       		.byte	0x53
 4180 0689 00000000 		.4byte	0
 4181 068d 00000000 		.4byte	0
 4182              	.LLST47:
 4183 0691 00000000 		.4byte	.LFB16
 4184 0695 02000000 		.4byte	.LCFI9
 4185 0699 0200     		.2byte	0x2
 4186 069b 7D       		.byte	0x7d
 4187 069c 00       		.sleb128 0
 4188 069d 02000000 		.4byte	.LCFI9
 4189 06a1 4A000000 		.4byte	.LFE16
 4190 06a5 0200     		.2byte	0x2
 4191 06a7 7D       		.byte	0x7d
 4192 06a8 10       		.sleb128 16
 4193 06a9 00000000 		.4byte	0
 4194 06ad 00000000 		.4byte	0
 4195              	.LLST48:
 4196 06b1 00000000 		.4byte	.LVL79
 4197 06b5 07000000 		.4byte	.LVL80-1
 4198 06b9 0100     		.2byte	0x1
 4199 06bb 50       		.byte	0x50
ARM GAS  /tmp/ccRbkbhA.s 			page 75


 4200 06bc 07000000 		.4byte	.LVL80-1
 4201 06c0 4A000000 		.4byte	.LFE16
 4202 06c4 0100     		.2byte	0x1
 4203 06c6 54       		.byte	0x54
 4204 06c7 00000000 		.4byte	0
 4205 06cb 00000000 		.4byte	0
 4206              	.LLST49:
 4207 06cf 1A000000 		.4byte	.LVL81
 4208 06d3 37000000 		.4byte	.LVL83-1
 4209 06d7 0300     		.2byte	0x3
 4210 06d9 74       		.byte	0x74
 4211 06da 18       		.sleb128 24
 4212 06db 06       		.byte	0x6
 4213 06dc 37000000 		.4byte	.LVL83-1
 4214 06e0 40000000 		.4byte	.LVL85
 4215 06e4 0100     		.2byte	0x1
 4216 06e6 55       		.byte	0x55
 4217 06e7 00000000 		.4byte	0
 4218 06eb 00000000 		.4byte	0
 4219              	.LLST50:
 4220 06ef 2E000000 		.4byte	.LVL82
 4221 06f3 3C000000 		.4byte	.LVL84
 4222 06f7 0100     		.2byte	0x1
 4223 06f9 54       		.byte	0x54
 4224 06fa 00000000 		.4byte	0
 4225 06fe 00000000 		.4byte	0
 4226              	.LLST51:
 4227 0702 2E000000 		.4byte	.LVL82
 4228 0706 37000000 		.4byte	.LVL83-1
 4229 070a 0100     		.2byte	0x1
 4230 070c 50       		.byte	0x50
 4231 070d 00000000 		.4byte	0
 4232 0711 00000000 		.4byte	0
 4233              	.LLST52:
 4234 0715 00000000 		.4byte	.LFB17
 4235 0719 04000000 		.4byte	.LCFI10
 4236 071d 0200     		.2byte	0x2
 4237 071f 7D       		.byte	0x7d
 4238 0720 00       		.sleb128 0
 4239 0721 04000000 		.4byte	.LCFI10
 4240 0725 94000000 		.4byte	.LFE17
 4241 0729 0200     		.2byte	0x2
 4242 072b 7D       		.byte	0x7d
 4243 072c 20       		.sleb128 32
 4244 072d 00000000 		.4byte	0
 4245 0731 00000000 		.4byte	0
 4246              	.LLST53:
 4247 0735 00000000 		.4byte	.LVL86
 4248 0739 14000000 		.4byte	.LVL88
 4249 073d 0100     		.2byte	0x1
 4250 073f 50       		.byte	0x50
 4251 0740 14000000 		.4byte	.LVL88
 4252 0744 28000000 		.4byte	.LVL93
 4253 0748 0100     		.2byte	0x1
 4254 074a 54       		.byte	0x54
 4255 074b 28000000 		.4byte	.LVL93
 4256 074f 47000000 		.4byte	.LVL96-1
ARM GAS  /tmp/ccRbkbhA.s 			page 76


 4257 0753 0100     		.2byte	0x1
 4258 0755 50       		.byte	0x50
 4259 0756 47000000 		.4byte	.LVL96-1
 4260 075a 6C000000 		.4byte	.LVL105
 4261 075e 0100     		.2byte	0x1
 4262 0760 54       		.byte	0x54
 4263 0761 6C000000 		.4byte	.LVL105
 4264 0765 6E000000 		.4byte	.LVL106
 4265 0769 0100     		.2byte	0x1
 4266 076b 50       		.byte	0x50
 4267 076c 6E000000 		.4byte	.LVL106
 4268 0770 88000000 		.4byte	.LVL111
 4269 0774 0100     		.2byte	0x1
 4270 0776 54       		.byte	0x54
 4271 0777 88000000 		.4byte	.LVL111
 4272 077b 8A000000 		.4byte	.LVL112
 4273 077f 0100     		.2byte	0x1
 4274 0781 50       		.byte	0x50
 4275 0782 8A000000 		.4byte	.LVL112
 4276 0786 94000000 		.4byte	.LFE17
 4277 078a 0100     		.2byte	0x1
 4278 078c 54       		.byte	0x54
 4279 078d 00000000 		.4byte	0
 4280 0791 00000000 		.4byte	0
 4281              	.LLST54:
 4282 0795 00000000 		.4byte	.LVL86
 4283 0799 14000000 		.4byte	.LVL88
 4284 079d 0100     		.2byte	0x1
 4285 079f 51       		.byte	0x51
 4286 07a0 14000000 		.4byte	.LVL88
 4287 07a4 30000000 		.4byte	.LVL94
 4288 07a8 0100     		.2byte	0x1
 4289 07aa 58       		.byte	0x58
 4290 07ab 30000000 		.4byte	.LVL94
 4291 07af 38000000 		.4byte	.LVL95
 4292 07b3 0300     		.2byte	0x3
 4293 07b5 78       		.byte	0x78
 4294 07b6 7F       		.sleb128 -1
 4295 07b7 9F       		.byte	0x9f
 4296 07b8 38000000 		.4byte	.LVL95
 4297 07bc 88000000 		.4byte	.LVL111
 4298 07c0 0100     		.2byte	0x1
 4299 07c2 58       		.byte	0x58
 4300 07c3 88000000 		.4byte	.LVL111
 4301 07c7 8D000000 		.4byte	.LVL113-1
 4302 07cb 0100     		.2byte	0x1
 4303 07cd 51       		.byte	0x51
 4304 07ce 8D000000 		.4byte	.LVL113-1
 4305 07d2 94000000 		.4byte	.LFE17
 4306 07d6 0100     		.2byte	0x1
 4307 07d8 58       		.byte	0x58
 4308 07d9 00000000 		.4byte	0
 4309 07dd 00000000 		.4byte	0
 4310              	.LLST55:
 4311 07e1 00000000 		.4byte	.LVL86
 4312 07e5 14000000 		.4byte	.LVL88
 4313 07e9 0100     		.2byte	0x1
ARM GAS  /tmp/ccRbkbhA.s 			page 77


 4314 07eb 52       		.byte	0x52
 4315 07ec 14000000 		.4byte	.LVL88
 4316 07f0 54000000 		.4byte	.LVL100
 4317 07f4 0100     		.2byte	0x1
 4318 07f6 56       		.byte	0x56
 4319 07f7 54000000 		.4byte	.LVL100
 4320 07fb 56000000 		.4byte	.LVL101
 4321 07ff 0300     		.2byte	0x3
 4322 0801 76       		.byte	0x76
 4323 0802 7F       		.sleb128 -1
 4324 0803 9F       		.byte	0x9f
 4325 0804 56000000 		.4byte	.LVL101
 4326 0808 88000000 		.4byte	.LVL111
 4327 080c 0100     		.2byte	0x1
 4328 080e 56       		.byte	0x56
 4329 080f 88000000 		.4byte	.LVL111
 4330 0813 8D000000 		.4byte	.LVL113-1
 4331 0817 0100     		.2byte	0x1
 4332 0819 52       		.byte	0x52
 4333 081a 8D000000 		.4byte	.LVL113-1
 4334 081e 94000000 		.4byte	.LFE17
 4335 0822 0100     		.2byte	0x1
 4336 0824 56       		.byte	0x56
 4337 0825 00000000 		.4byte	0
 4338 0829 00000000 		.4byte	0
 4339              	.LLST56:
 4340 082d 00000000 		.4byte	.LVL86
 4341 0831 14000000 		.4byte	.LVL88
 4342 0835 0100     		.2byte	0x1
 4343 0837 53       		.byte	0x53
 4344 0838 14000000 		.4byte	.LVL88
 4345 083c 88000000 		.4byte	.LVL111
 4346 0840 0100     		.2byte	0x1
 4347 0842 5A       		.byte	0x5a
 4348 0843 88000000 		.4byte	.LVL111
 4349 0847 8D000000 		.4byte	.LVL113-1
 4350 084b 0100     		.2byte	0x1
 4351 084d 53       		.byte	0x53
 4352 084e 8D000000 		.4byte	.LVL113-1
 4353 0852 94000000 		.4byte	.LFE17
 4354 0856 0100     		.2byte	0x1
 4355 0858 5A       		.byte	0x5a
 4356 0859 00000000 		.4byte	0
 4357 085d 00000000 		.4byte	0
 4358              	.LLST57:
 4359 0861 10000000 		.4byte	.LVL87
 4360 0865 20000000 		.4byte	.LVL92
 4361 0869 0200     		.2byte	0x2
 4362 086b 30       		.byte	0x30
 4363 086c 9F       		.byte	0x9f
 4364 086d 20000000 		.4byte	.LVL92
 4365 0871 88000000 		.4byte	.LVL111
 4366 0875 0100     		.2byte	0x1
 4367 0877 57       		.byte	0x57
 4368 0878 88000000 		.4byte	.LVL111
 4369 087c 94000000 		.4byte	.LFE17
 4370 0880 0200     		.2byte	0x2
ARM GAS  /tmp/ccRbkbhA.s 			page 78


 4371 0882 30       		.byte	0x30
 4372 0883 9F       		.byte	0x9f
 4373 0884 00000000 		.4byte	0
 4374 0888 00000000 		.4byte	0
 4375              	.LLST58:
 4376 088c 1A000000 		.4byte	.LVL90
 4377 0890 1D000000 		.4byte	.LVL91-1
 4378 0894 0100     		.2byte	0x1
 4379 0896 53       		.byte	0x53
 4380 0897 00000000 		.4byte	0
 4381 089b 00000000 		.4byte	0
 4382              	.LLST59:
 4383 089f 52000000 		.4byte	.LVL99
 4384 08a3 5A000000 		.4byte	.LVL102
 4385 08a7 0100     		.2byte	0x1
 4386 08a9 53       		.byte	0x53
 4387 08aa 82000000 		.4byte	.LVL110
 4388 08ae 88000000 		.4byte	.LVL111
 4389 08b2 0100     		.2byte	0x1
 4390 08b4 53       		.byte	0x53
 4391 08b5 00000000 		.4byte	0
 4392 08b9 00000000 		.4byte	0
 4393              	.LLST60:
 4394 08bd 5E000000 		.4byte	.LVL103
 4395 08c1 61000000 		.4byte	.LVL104-1
 4396 08c5 0100     		.2byte	0x1
 4397 08c7 53       		.byte	0x53
 4398 08c8 00000000 		.4byte	0
 4399 08cc 00000000 		.4byte	0
 4400              	.LLST61:
 4401 08d0 82000000 		.4byte	.LVL110
 4402 08d4 88000000 		.4byte	.LVL111
 4403 08d8 0100     		.2byte	0x1
 4404 08da 53       		.byte	0x53
 4405 08db 00000000 		.4byte	0
 4406 08df 00000000 		.4byte	0
 4407              		.section	.debug_aranges,"",%progbits
 4408 0000 6C000000 		.4byte	0x6c
 4409 0004 0200     		.2byte	0x2
 4410 0006 00000000 		.4byte	.Ldebug_info0
 4411 000a 04       		.byte	0x4
 4412 000b 00       		.byte	0
 4413 000c 0000     		.2byte	0
 4414 000e 0000     		.2byte	0
 4415 0010 00000000 		.4byte	.LFB7
 4416 0014 2C000000 		.4byte	.LFE7-.LFB7
 4417 0018 00000000 		.4byte	.LFB8
 4418 001c 1A000000 		.4byte	.LFE8-.LFB8
 4419 0020 00000000 		.4byte	.LFB9
 4420 0024 30000000 		.4byte	.LFE9-.LFB9
 4421 0028 00000000 		.4byte	.LFB10
 4422 002c 50000000 		.4byte	.LFE10-.LFB10
 4423 0030 00000000 		.4byte	.LFB11
 4424 0034 5A000000 		.4byte	.LFE11-.LFB11
 4425 0038 00000000 		.4byte	.LFB12
 4426 003c 94000000 		.4byte	.LFE12-.LFB12
 4427 0040 00000000 		.4byte	.LFB13
ARM GAS  /tmp/ccRbkbhA.s 			page 79


 4428 0044 18000000 		.4byte	.LFE13-.LFB13
 4429 0048 00000000 		.4byte	.LFB14
 4430 004c 32000000 		.4byte	.LFE14-.LFB14
 4431 0050 00000000 		.4byte	.LFB15
 4432 0054 66000000 		.4byte	.LFE15-.LFB15
 4433 0058 00000000 		.4byte	.LFB16
 4434 005c 4A000000 		.4byte	.LFE16-.LFB16
 4435 0060 00000000 		.4byte	.LFB17
 4436 0064 94000000 		.4byte	.LFE17-.LFB17
 4437 0068 00000000 		.4byte	0
 4438 006c 00000000 		.4byte	0
 4439              		.section	.debug_ranges,"",%progbits
 4440              	.Ldebug_ranges0:
 4441 0000 1A000000 		.4byte	.LBB19
 4442 0004 1E000000 		.4byte	.LBE19
 4443 0008 20000000 		.4byte	.LBB21
 4444 000c 32000000 		.4byte	.LBE21
 4445 0010 00000000 		.4byte	0
 4446 0014 00000000 		.4byte	0
 4447 0018 04000000 		.4byte	.LBB29
 4448 001c 06000000 		.4byte	.LBE29
 4449 0020 0C000000 		.4byte	.LBB30
 4450 0024 10000000 		.4byte	.LBE30
 4451 0028 00000000 		.4byte	0
 4452 002c 00000000 		.4byte	0
 4453 0030 16000000 		.4byte	.LBB31
 4454 0034 1A000000 		.4byte	.LBE31
 4455 0038 1C000000 		.4byte	.LBB33
 4456 003c 2E000000 		.4byte	.LBE33
 4457 0040 00000000 		.4byte	0
 4458 0044 00000000 		.4byte	0
 4459 0048 00000000 		.4byte	.LFB7
 4460 004c 2C000000 		.4byte	.LFE7
 4461 0050 00000000 		.4byte	.LFB8
 4462 0054 1A000000 		.4byte	.LFE8
 4463 0058 00000000 		.4byte	.LFB9
 4464 005c 30000000 		.4byte	.LFE9
 4465 0060 00000000 		.4byte	.LFB10
 4466 0064 50000000 		.4byte	.LFE10
 4467 0068 00000000 		.4byte	.LFB11
 4468 006c 5A000000 		.4byte	.LFE11
 4469 0070 00000000 		.4byte	.LFB12
 4470 0074 94000000 		.4byte	.LFE12
 4471 0078 00000000 		.4byte	.LFB13
 4472 007c 18000000 		.4byte	.LFE13
 4473 0080 00000000 		.4byte	.LFB14
 4474 0084 32000000 		.4byte	.LFE14
 4475 0088 00000000 		.4byte	.LFB15
 4476 008c 66000000 		.4byte	.LFE15
 4477 0090 00000000 		.4byte	.LFB16
 4478 0094 4A000000 		.4byte	.LFE16
 4479 0098 00000000 		.4byte	.LFB17
 4480 009c 94000000 		.4byte	.LFE17
 4481 00a0 00000000 		.4byte	0
 4482 00a4 00000000 		.4byte	0
 4483              		.section	.debug_line,"",%progbits
 4484              	.Ldebug_line0:
ARM GAS  /tmp/ccRbkbhA.s 			page 80


 4485 0000 84030000 		.section	.debug_str,"MS",%progbits,1
 4485      02007201 
 4485      00000201 
 4485      FB0E0D00 
 4485      01010101 
 4486              	.LASF86:
 4487 0000 63684F51 		.ascii	"chOQInit\000"
 4487      496E6974 
 4487      00
 4488              	.LASF38:
 4489 0009 705F6D73 		.ascii	"p_msg\000"
 4489      6700
 4490              	.LASF100:
 4491 000f 71756575 		.ascii	"queue_insert\000"
 4491      655F696E 
 4491      73657274 
 4491      00
 4492              	.LASF87:
 4493 001c 6F6E6679 		.ascii	"onfy\000"
 4493      00
 4494              	.LASF2:
 4495 0021 73697A65 		.ascii	"size_t\000"
 4495      5F7400
 4496              	.LASF62:
 4497 0028 7264796D 		.ascii	"rdymsg\000"
 4497      736700
 4498              	.LASF81:
 4499 002f 63684951 		.ascii	"chIQInit\000"
 4499      496E6974 
 4499      00
 4500              	.LASF12:
 4501 0038 75696E74 		.ascii	"uint64_t\000"
 4501      36345F74 
 4501      00
 4502              	.LASF77:
 4503 0041 4F757470 		.ascii	"OutputQueue\000"
 4503      75745175 
 4503      65756500 
 4504              	.LASF85:
 4505 004d 63684951 		.ascii	"chIQReadTimeout\000"
 4505      52656164 
 4505      54696D65 
 4505      6F757400 
 4506              	.LASF13:
 4507 005d 6C6F6E67 		.ascii	"long long unsigned int\000"
 4507      206C6F6E 
 4507      6720756E 
 4507      7369676E 
 4507      65642069 
 4508              	.LASF63:
 4509 0074 65786974 		.ascii	"exitcode\000"
 4509      636F6465 
 4509      00
 4510              	.LASF104:
 4511 007d 63684462 		.ascii	"chDbgPanic\000"
 4511      6750616E 
 4511      696300
ARM GAS  /tmp/ccRbkbhA.s 			page 81


 4512              	.LASF26:
 4513 0088 705F7072 		.ascii	"p_prio\000"
 4513      696F00
 4514              	.LASF68:
 4515 008f 715F7761 		.ascii	"q_waiting\000"
 4515      6974696E 
 4515      6700
 4516              	.LASF11:
 4517 0099 6C6F6E67 		.ascii	"long long int\000"
 4517      206C6F6E 
 4517      6720696E 
 4517      7400
 4518              	.LASF1:
 4519 00a7 7369676E 		.ascii	"signed char\000"
 4519      65642063 
 4519      68617200 
 4520              	.LASF42:
 4521 00b3 705F6D70 		.ascii	"p_mpool\000"
 4521      6F6F6C00 
 4522              	.LASF14:
 4523 00bb 626F6F6C 		.ascii	"bool_t\000"
 4523      5F7400
 4524              	.LASF59:
 4525 00c2 6D5F7175 		.ascii	"m_queue\000"
 4525      65756500 
 4526              	.LASF102:
 4527 00ca 71776169 		.ascii	"qwait\000"
 4527      7400
 4528              	.LASF8:
 4529 00d0 6C6F6E67 		.ascii	"long int\000"
 4529      20696E74 
 4529      00
 4530              	.LASF16:
 4531 00d9 74737461 		.ascii	"tstate_t\000"
 4531      74655F74 
 4531      00
 4532              	.LASF90:
 4533 00e2 63684F51 		.ascii	"chOQGetI\000"
 4533      47657449 
 4533      00
 4534              	.LASF70:
 4535 00eb 715F6275 		.ascii	"q_buffer\000"
 4535      66666572 
 4535      00
 4536              	.LASF72:
 4537 00f4 715F7772 		.ascii	"q_wrptr\000"
 4537      70747200 
 4538              	.LASF28:
 4539 00fc 705F6E65 		.ascii	"p_newer\000"
 4539      77657200 
 4540              	.LASF53:
 4541 0104 725F6E65 		.ascii	"r_newer\000"
 4541      77657200 
 4542              	.LASF45:
 4543 010c 72656761 		.ascii	"regarm_t\000"
 4543      726D5F74 
 4543      00
ARM GAS  /tmp/ccRbkbhA.s 			page 82


 4544              	.LASF89:
 4545 0115 63684F51 		.ascii	"chOQPutTimeout\000"
 4545      50757454 
 4545      696D656F 
 4545      757400
 4546              	.LASF83:
 4547 0124 63684951 		.ascii	"chIQPutI\000"
 4547      50757449 
 4547      00
 4548              	.LASF22:
 4549 012d 636E745F 		.ascii	"cnt_t\000"
 4549      7400
 4550              	.LASF31:
 4551 0133 705F7374 		.ascii	"p_stklimit\000"
 4551      6B6C696D 
 4551      697400
 4552              	.LASF0:
 4553 013e 756E7369 		.ascii	"unsigned int\000"
 4553      676E6564 
 4553      20696E74 
 4553      00
 4554              	.LASF82:
 4555 014b 63684951 		.ascii	"chIQResetI\000"
 4555      52657365 
 4555      744900
 4556              	.LASF10:
 4557 0156 6C6F6E67 		.ascii	"long unsigned int\000"
 4557      20756E73 
 4557      69676E65 
 4557      6420696E 
 4557      7400
 4558              	.LASF48:
 4559 0168 636F6E74 		.ascii	"context\000"
 4559      65787400 
 4560              	.LASF79:
 4561 0170 73697A65 		.ascii	"size\000"
 4561      00
 4562              	.LASF6:
 4563 0175 73686F72 		.ascii	"short unsigned int\000"
 4563      7420756E 
 4563      7369676E 
 4563      65642069 
 4563      6E7400
 4564              	.LASF19:
 4565 0188 6D73675F 		.ascii	"msg_t\000"
 4565      7400
 4566              	.LASF94:
 4567 018e 63684462 		.ascii	"chDbgCheckClassI\000"
 4567      67436865 
 4567      636B436C 
 4567      61737349 
 4567      00
 4568              	.LASF98:
 4569 019f 2E2E2F2E 		.ascii	"../../os/kernel/src/chqueues.c\000"
 4569      2E2F6F73 
 4569      2F6B6572 
 4569      6E656C2F 
ARM GAS  /tmp/ccRbkbhA.s 			page 83


 4569      7372632F 
 4570              	.LASF44:
 4571 01be 54687265 		.ascii	"ThreadsList\000"
 4571      6164734C 
 4571      69737400 
 4572              	.LASF20:
 4573 01ca 6576656E 		.ascii	"eventmask_t\000"
 4573      746D6173 
 4573      6B5F7400 
 4574              	.LASF76:
 4575 01d6 496E7075 		.ascii	"InputQueue\000"
 4575      74517565 
 4575      756500
 4576              	.LASF58:
 4577 01e1 4D757465 		.ascii	"Mutex\000"
 4577      7800
 4578              	.LASF97:
 4579 01e7 474E5520 		.ascii	"GNU C 4.7.4 20130613 (release) [ARM/embedded-4_7-br"
 4579      4320342E 
 4579      372E3420 
 4579      32303133 
 4579      30363133 
 4580 021a 616E6368 		.ascii	"anch revision 200083]\000"
 4580      20726576 
 4580      6973696F 
 4580      6E203230 
 4580      30303833 
 4581              	.LASF67:
 4582 0230 47656E65 		.ascii	"GenericQueue\000"
 4582      72696351 
 4582      75657565 
 4582      00
 4583              	.LASF46:
 4584 023d 73746B61 		.ascii	"stkalign_t\000"
 4584      6C69676E 
 4584      5F7400
 4585              	.LASF91:
 4586 0248 63684F51 		.ascii	"chOQWriteTimeout\000"
 4586      57726974 
 4586      6554696D 
 4586      656F7574 
 4586      00
 4587              	.LASF95:
 4588 0259 6462675F 		.ascii	"dbg_check_unlock\000"
 4588      63686563 
 4588      6B5F756E 
 4588      6C6F636B 
 4588      00
 4589              	.LASF49:
 4590 026a 73697A65 		.ascii	"sizetype\000"
 4590      74797065 
 4590      00
 4591              	.LASF69:
 4592 0273 715F636F 		.ascii	"q_counter\000"
 4592      756E7465 
 4592      7200
 4593              	.LASF96:
ARM GAS  /tmp/ccRbkbhA.s 			page 84


 4594 027d 6462675F 		.ascii	"dbg_check_lock\000"
 4594      63686563 
 4594      6B5F6C6F 
 4594      636B00
 4595              	.LASF29:
 4596 028c 705F6F6C 		.ascii	"p_older\000"
 4596      64657200 
 4597              	.LASF52:
 4598 0294 725F6374 		.ascii	"r_ctx\000"
 4598      7800
 4599              	.LASF43:
 4600 029a 54687265 		.ascii	"ThreadsQueue\000"
 4600      61647351 
 4600      75657565 
 4600      00
 4601              	.LASF78:
 4602 02a7 74696D65 		.ascii	"time\000"
 4602      00
 4603              	.LASF56:
 4604 02ac 725F6375 		.ascii	"r_current\000"
 4604      7272656E 
 4604      7400
 4605              	.LASF54:
 4606 02b6 725F6F6C 		.ascii	"r_older\000"
 4606      64657200 
 4607              	.LASF99:
 4608 02be 2F686F6D 		.ascii	"/home/kaklik/git/mlab-chibios/demos/STM32F107-seria"
 4608      652F6B61 
 4608      6B6C696B 
 4608      2F676974 
 4608      2F6D6C61 
 4609 02f1 6C736865 		.ascii	"lshell\000"
 4609      6C6C00
 4610              	.LASF17:
 4611 02f8 74726566 		.ascii	"trefs_t\000"
 4611      735F7400 
 4612              	.LASF75:
 4613 0300 716E6F74 		.ascii	"qnotify_t\000"
 4613      6966795F 
 4613      7400
 4614              	.LASF25:
 4615 030a 705F7072 		.ascii	"p_prev\000"
 4615      657600
 4616              	.LASF18:
 4617 0311 74707269 		.ascii	"tprio_t\000"
 4617      6F5F7400 
 4618              	.LASF73:
 4619 0319 715F7264 		.ascii	"q_rdptr\000"
 4619      70747200 
 4620              	.LASF7:
 4621 0321 696E7433 		.ascii	"int32_t\000"
 4621      325F7400 
 4622              	.LASF4:
 4623 0329 756E7369 		.ascii	"unsigned char\000"
 4623      676E6564 
 4623      20636861 
 4623      7200
ARM GAS  /tmp/ccRbkbhA.s 			page 85


 4624              	.LASF40:
 4625 0337 705F6D74 		.ascii	"p_mtxlist\000"
 4625      786C6973 
 4625      7400
 4626              	.LASF5:
 4627 0341 73686F72 		.ascii	"short int\000"
 4627      7420696E 
 4627      7400
 4628              	.LASF32:
 4629 034b 705F7374 		.ascii	"p_state\000"
 4629      61746500 
 4630              	.LASF51:
 4631 0353 725F7072 		.ascii	"r_prio\000"
 4631      696F00
 4632              	.LASF65:
 4633 035a 65776D61 		.ascii	"ewmask\000"
 4633      736B00
 4634              	.LASF24:
 4635 0361 705F6E65 		.ascii	"p_next\000"
 4635      787400
 4636              	.LASF15:
 4637 0368 746D6F64 		.ascii	"tmode_t\000"
 4637      655F7400 
 4638              	.LASF33:
 4639 0370 705F666C 		.ascii	"p_flags\000"
 4639      61677300 
 4640              	.LASF23:
 4641 0378 54687265 		.ascii	"Thread\000"
 4641      616400
 4642              	.LASF39:
 4643 037f 705F6570 		.ascii	"p_epending\000"
 4643      656E6469 
 4643      6E6700
 4644              	.LASF9:
 4645 038a 75696E74 		.ascii	"uint32_t\000"
 4645      33325F74 
 4645      00
 4646              	.LASF50:
 4647 0393 725F7175 		.ascii	"r_queue\000"
 4647      65756500 
 4648              	.LASF93:
 4649 039b 63685363 		.ascii	"chSchReadyI\000"
 4649      68526561 
 4649      64794900 
 4650              	.LASF66:
 4651 03a7 63686172 		.ascii	"char\000"
 4651      00
 4652              	.LASF101:
 4653 03ac 6669666F 		.ascii	"fifo_remove\000"
 4653      5F72656D 
 4653      6F766500 
 4654              	.LASF61:
 4655 03b8 6D5F6E65 		.ascii	"m_next\000"
 4655      787400
 4656              	.LASF21:
 4657 03bf 73797374 		.ascii	"systime_t\000"
 4657      696D655F 
ARM GAS  /tmp/ccRbkbhA.s 			page 86


 4657      7400
 4658              	.LASF41:
 4659 03c9 705F7265 		.ascii	"p_realprio\000"
 4659      616C7072 
 4659      696F00
 4660              	.LASF80:
 4661 03d4 696E6679 		.ascii	"infy\000"
 4661      00
 4662              	.LASF88:
 4663 03d9 63684F51 		.ascii	"chOQResetI\000"
 4663      52657365 
 4663      744900
 4664              	.LASF35:
 4665 03e4 705F7469 		.ascii	"p_time\000"
 4665      6D6500
 4666              	.LASF47:
 4667 03eb 696E7463 		.ascii	"intctx\000"
 4667      747800
 4668              	.LASF37:
 4669 03f2 705F6D73 		.ascii	"p_msgqueue\000"
 4669      67717565 
 4669      756500
 4670              	.LASF71:
 4671 03fd 715F746F 		.ascii	"q_top\000"
 4671      7000
 4672              	.LASF34:
 4673 0403 705F7265 		.ascii	"p_refs\000"
 4673      667300
 4674              	.LASF57:
 4675 040a 52656164 		.ascii	"ReadyList\000"
 4675      794C6973 
 4675      7400
 4676              	.LASF74:
 4677 0414 715F6E6F 		.ascii	"q_notify\000"
 4677      74696679 
 4677      00
 4678              	.LASF103:
 4679 041d 726C6973 		.ascii	"rlist\000"
 4679      7400
 4680              	.LASF3:
 4681 0423 75696E74 		.ascii	"uint8_t\000"
 4681      385F7400 
 4682              	.LASF64:
 4683 042b 77746F62 		.ascii	"wtobjp\000"
 4683      6A7000
 4684              	.LASF30:
 4685 0432 705F6E61 		.ascii	"p_name\000"
 4685      6D6500
 4686              	.LASF92:
 4687 0439 63685363 		.ascii	"chSchGoSleepTimeoutS\000"
 4687      68476F53 
 4687      6C656570 
 4687      54696D65 
 4687      6F757453 
 4688              	.LASF55:
 4689 044e 725F7072 		.ascii	"r_preempt\000"
 4689      65656D70 
ARM GAS  /tmp/ccRbkbhA.s 			page 87


 4689      7400
 4690              	.LASF60:
 4691 0458 6D5F6F77 		.ascii	"m_owner\000"
 4691      6E657200 
 4692              	.LASF27:
 4693 0460 705F6374 		.ascii	"p_ctx\000"
 4693      7800
 4694              	.LASF36:
 4695 0466 705F7761 		.ascii	"p_waiting\000"
 4695      6974696E 
 4695      6700
 4696              	.LASF84:
 4697 0470 63684951 		.ascii	"chIQGetTimeout\000"
 4697      47657454 
 4697      696D656F 
 4697      757400
 4698              		.ident	"GCC: (GNU Tools for ARM Embedded Processors) 4.7.4 20130613 (release) [ARM/embedded-4_7-br
ARM GAS  /tmp/ccRbkbhA.s 			page 88


DEFINED SYMBOLS
                            *ABS*:00000000 chqueues.c
     /tmp/ccRbkbhA.s:19     .text.qwait:00000000 $t
     /tmp/ccRbkbhA.s:24     .text.qwait:00000000 qwait
     /tmp/ccRbkbhA.s:75     .text.qwait:00000028 $d
     /tmp/ccRbkbhA.s:80     .text.chIQInit:00000000 $t
     /tmp/ccRbkbhA.s:86     .text.chIQInit:00000000 chIQInit
     /tmp/ccRbkbhA.s:123    .text.chIQResetI:00000000 $t
     /tmp/ccRbkbhA.s:129    .text.chIQResetI:00000000 chIQResetI
     /tmp/ccRbkbhA.s:190    .text.chIQPutI:00000000 $t
     /tmp/ccRbkbhA.s:196    .text.chIQPutI:00000000 chIQPutI
     /tmp/ccRbkbhA.s:278    .text.chIQGetTimeout:00000000 $t
     /tmp/ccRbkbhA.s:284    .text.chIQGetTimeout:00000000 chIQGetTimeout
     /tmp/ccRbkbhA.s:395    .text.chIQReadTimeout:00000000 $t
     /tmp/ccRbkbhA.s:401    .text.chIQReadTimeout:00000000 chIQReadTimeout
     /tmp/ccRbkbhA.s:555    .text.chIQReadTimeout:00000090 $d
     /tmp/ccRbkbhA.s:560    .text.chOQInit:00000000 $t
     /tmp/ccRbkbhA.s:566    .text.chOQInit:00000000 chOQInit
     /tmp/ccRbkbhA.s:600    .text.chOQResetI:00000000 $t
     /tmp/ccRbkbhA.s:606    .text.chOQResetI:00000000 chOQResetI
     /tmp/ccRbkbhA.s:669    .text.chOQPutTimeout:00000000 $t
     /tmp/ccRbkbhA.s:675    .text.chOQPutTimeout:00000000 chOQPutTimeout
     /tmp/ccRbkbhA.s:796    .text.chOQGetI:00000000 $t
     /tmp/ccRbkbhA.s:802    .text.chOQGetI:00000000 chOQGetI
     /tmp/ccRbkbhA.s:883    .text.chOQWriteTimeout:00000000 $t
     /tmp/ccRbkbhA.s:889    .text.chOQWriteTimeout:00000000 chOQWriteTimeout
     /tmp/ccRbkbhA.s:1050   .text.chOQWriteTimeout:00000090 $d
     /tmp/ccRbkbhA.s:1055   .rodata.str1.4:00000000 $d
                     .debug_frame:00000010 $d
     /tmp/ccRbkbhA.s:79     .text.qwait:0000002c $t
     /tmp/ccRbkbhA.s:559    .text.chIQReadTimeout:00000094 $t
     /tmp/ccRbkbhA.s:1054   .text.chOQWriteTimeout:00000094 $t

UNDEFINED SYMBOLS
chSchGoSleepTimeoutS
rlist
chDbgCheckClassI
chSchReadyI
dbg_check_lock
dbg_check_unlock
chDbgPanic
