ARM GAS  /var/folders/dt/0wfd0knj7gs46m8vwfzktm600000gn/T//ccwB9oFb.s 			page 1


   1              		.syntax unified
   2              		.cpu cortex-m3
   3              		.fpu softvfp
   4              		.eabi_attribute 20, 1
   5              		.eabi_attribute 21, 1
   6              		.eabi_attribute 23, 3
   7              		.eabi_attribute 24, 1
   8              		.eabi_attribute 25, 1
   9              		.eabi_attribute 26, 1
  10              		.eabi_attribute 30, 2
  11              		.eabi_attribute 34, 1
  12              		.eabi_attribute 18, 4
  13              		.thumb
  14              		.file	"chregistry.c"
  15              		.text
  16              	.Ltext0:
  17              		.cfi_sections	.debug_frame
  18              		.section	.text.chRegFirstThread,"ax",%progbits
  19              		.align	2
  20              		.p2align 4,,15
  21              		.global	chRegFirstThread
  22              		.thumb
  23              		.thumb_func
  24              		.type	chRegFirstThread, %function
  25              	chRegFirstThread:
  26              	.LFB7:
  27              		.file 1 "../../os/kernel/src/chregistry.c"
  28              		.loc 1 113 0
  29              		.cfi_startproc
  30              		@ args = 0, pretend = 0, frame = 0
  31              		@ frame_needed = 0, uses_anonymous_args = 0
  32 0000 10B5     		push	{r4, lr}
  33              	.LCFI0:
  34              		.cfi_def_cfa_offset 8
  35              		.cfi_offset 4, -8
  36              		.cfi_offset 14, -4
  37              	.LBB2:
  38              		.loc 1 116 0
  39 0002 2023     		movs	r3, #32
  40              	.LVL0:
  41              	@ 116 "../../os/kernel/src/chregistry.c" 1
  42 0004 83F31188 		msr     BASEPRI, r3
  43              	@ 0 "" 2
  44              	.LVL1:
  45              		.thumb
  46              	.LBE2:
  47 0008 FFF7FEFF 		bl	dbg_check_lock
  48              	.LVL2:
  49              		.loc 1 117 0
  50 000c 40F20003 		movw	r3, #:lower16:rlist
  51 0010 C0F20003 		movt	r3, #:upper16:rlist
  52 0014 1C69     		ldr	r4, [r3, #16]
  53              	.LVL3:
  54              		.loc 1 119 0
  55 0016 94F82230 		ldrb	r3, [r4, #34]	@ zero_extendqisi2
  56 001a 0133     		adds	r3, r3, #1
  57 001c 84F82230 		strb	r3, [r4, #34]
ARM GAS  /var/folders/dt/0wfd0knj7gs46m8vwfzktm600000gn/T//ccwB9oFb.s 			page 2


  58              		.loc 1 121 0
  59 0020 FFF7FEFF 		bl	dbg_check_unlock
  60              	.LVL4:
  61              	.LBB3:
  62 0024 0023     		movs	r3, #0
  63              	.LVL5:
  64              	@ 121 "../../os/kernel/src/chregistry.c" 1
  65 0026 83F31188 		msr     BASEPRI, r3
  66              	@ 0 "" 2
  67              	.LVL6:
  68              		.thumb
  69              	.LBE3:
  70              		.loc 1 123 0
  71 002a 2046     		mov	r0, r4
  72 002c 10BD     		pop	{r4, pc}
  73              		.cfi_endproc
  74              	.LFE7:
  75              		.size	chRegFirstThread, .-chRegFirstThread
  76 002e 00BF     		.section	.text.chRegNextThread,"ax",%progbits
  77              		.align	2
  78              		.p2align 4,,15
  79              		.global	chRegNextThread
  80              		.thumb
  81              		.thumb_func
  82              		.type	chRegNextThread, %function
  83              	chRegNextThread:
  84              	.LFB8:
  85              		.loc 1 136 0
  86              		.cfi_startproc
  87              		@ args = 0, pretend = 0, frame = 0
  88              		@ frame_needed = 0, uses_anonymous_args = 0
  89              	.LVL7:
  90 0000 38B5     		push	{r3, r4, r5, lr}
  91              	.LCFI1:
  92              		.cfi_def_cfa_offset 16
  93              		.cfi_offset 3, -16
  94              		.cfi_offset 4, -12
  95              		.cfi_offset 5, -8
  96              		.cfi_offset 14, -4
  97              		.loc 1 136 0
  98 0002 0546     		mov	r5, r0
  99              	.LBB4:
 100              		.loc 1 139 0
 101 0004 2023     		movs	r3, #32
 102              	.LVL8:
 103              	@ 139 "../../os/kernel/src/chregistry.c" 1
 104 0006 83F31188 		msr     BASEPRI, r3
 105              	@ 0 "" 2
 106              	.LVL9:
 107              		.thumb
 108              	.LBE4:
 109 000a FFF7FEFF 		bl	dbg_check_lock
 110              	.LVL10:
 111              		.loc 1 140 0
 112 000e 2C69     		ldr	r4, [r5, #16]
 113              	.LVL11:
 114              		.loc 1 141 0
ARM GAS  /var/folders/dt/0wfd0knj7gs46m8vwfzktm600000gn/T//ccwB9oFb.s 			page 3


 115 0010 0D4B     		ldr	r3, .L8
 116 0012 9C42     		cmp	r4, r3
 117 0014 16D0     		beq	.L5
 118              		.loc 1 145 0
 119 0016 94F82230 		ldrb	r3, [r4, #34]	@ zero_extendqisi2
 120 001a FF2B     		cmp	r3, #255
 121 001c 0CD0     		beq	.L7
 122              	.L4:
 123              		.loc 1 147 0
 124 001e 0133     		adds	r3, r3, #1
 125 0020 84F82230 		strb	r3, [r4, #34]
 126              	.LVL12:
 127              	.L3:
 128              		.loc 1 150 0
 129 0024 FFF7FEFF 		bl	dbg_check_unlock
 130              	.LVL13:
 131              	.LBB5:
 132 0028 0023     		movs	r3, #0
 133              	.LVL14:
 134              	@ 150 "../../os/kernel/src/chregistry.c" 1
 135 002a 83F31188 		msr     BASEPRI, r3
 136              	@ 0 "" 2
 137              	.LVL15:
 138              		.thumb
 139              	.LBE5:
 140              		.loc 1 152 0
 141 002e 2846     		mov	r0, r5
 142 0030 FFF7FEFF 		bl	chThdRelease
 143              	.LVL16:
 144              		.loc 1 155 0
 145 0034 2046     		mov	r0, r4
 146 0036 38BD     		pop	{r3, r4, r5, pc}
 147              	.L7:
 148              		.loc 1 145 0 discriminator 1
 149 0038 0448     		ldr	r0, .L8+4
 150 003a FFF7FEFF 		bl	chDbgPanic
 151              	.LVL17:
 152 003e 94F82230 		ldrb	r3, [r4, #34]	@ zero_extendqisi2
 153 0042 ECE7     		b	.L4
 154              	.L5:
 155              		.loc 1 142 0
 156 0044 0024     		movs	r4, #0
 157              	.LVL18:
 158 0046 EDE7     		b	.L3
 159              	.L9:
 160              		.align	2
 161              	.L8:
 162 0048 00000000 		.word	rlist
 163 004c 00000000 		.word	.LC0
 164              		.cfi_endproc
 165              	.LFE8:
 166              		.size	chRegNextThread, .-chRegNextThread
 167              		.global	ch_debug
 168              		.section	.rodata.ch_debug,"a",%progbits
 169              		.align	2
 170              		.type	ch_debug, %object
 171              		.size	ch_debug, 22
ARM GAS  /var/folders/dt/0wfd0knj7gs46m8vwfzktm600000gn/T//ccwB9oFb.s 			page 4


 172              	ch_debug:
 173 0000 6D61696E 		.ascii	"main"
 174 0004 00       		.byte	0
 175 0005 16       		.byte	22
 176 0006 0311     		.short	4355
 177 0008 04       		.byte	4
 178 0009 04       		.byte	4
 179 000a 4C       		.byte	76
 180 000b 08       		.byte	8
 181 000c 0C       		.byte	12
 182 000d 10       		.byte	16
 183 000e 14       		.byte	20
 184 000f 18       		.byte	24
 185 0010 1C       		.byte	28
 186 0011 20       		.byte	32
 187 0012 21       		.byte	33
 188 0013 22       		.byte	34
 189 0014 00       		.byte	0
 190 0015 24       		.byte	36
 191 0016 0000     		.section	.rodata.str1.4,"aMS",%progbits,1
 192              		.align	2
 193              	.LC0:
 194 0000 63685265 		.ascii	"chRegNextThread(), #1\000"
 194      674E6578 
 194      74546872 
 194      65616428 
 194      292C2023 
 195 0016 0000     		.text
 196              	.Letext0:
 197              		.file 2 "/Users/toxygen/Applications/yagarto-4.7.2/bin/../lib/gcc/arm-none-eabi/4.7.2/include/stdd
 198              		.file 3 "/Users/toxygen/Applications/yagarto-4.7.2/bin/../lib/gcc/arm-none-eabi/4.7.2/../../../../
 199              		.file 4 "../../os/ports/GCC/ARMCMx/chtypes.h"
 200              		.file 5 "../../os/kernel/include/chlists.h"
 201              		.file 6 "../../os/kernel/include/chthreads.h"
 202              		.file 7 "../../os/ports/GCC/ARMCMx/chcore_v7m.h"
 203              		.file 8 "../../os/kernel/include/chschd.h"
 204              		.file 9 "../../os/kernel/include/chmtx.h"
 205              		.file 10 "../../os/kernel/include/chregistry.h"
 206              		.file 11 "../../os/kernel/include/chdebug.h"
 207              		.file 12 "../../os/kernel/include/chdynamic.h"
 208              		.section	.debug_info,"",%progbits
 209              	.Ldebug_info0:
 210 0000 1F070000 		.4byte	0x71f
 211 0004 0200     		.2byte	0x2
 212 0006 00000000 		.4byte	.Ldebug_abbrev0
 213 000a 04       		.byte	0x4
 214 000b 01       		.uleb128 0x1
 215 000c 0D020000 		.4byte	.LASF94
 216 0010 01       		.byte	0x1
 217 0011 89030000 		.4byte	.LASF95
 218 0015 42030000 		.4byte	.LASF96
 219 0019 00000000 		.4byte	.Ldebug_ranges0+0
 220 001d 00000000 		.4byte	0
 221 0021 00000000 		.4byte	0
 222 0025 00000000 		.4byte	.Ldebug_line0
 223 0029 02       		.uleb128 0x2
 224 002a 04       		.byte	0x4
ARM GAS  /var/folders/dt/0wfd0knj7gs46m8vwfzktm600000gn/T//ccwB9oFb.s 			page 5


 225 002b 05       		.byte	0x5
 226 002c 696E7400 		.ascii	"int\000"
 227 0030 03       		.uleb128 0x3
 228 0031 13000000 		.4byte	.LASF2
 229 0035 02       		.byte	0x2
 230 0036 D5       		.byte	0xd5
 231 0037 3B000000 		.4byte	0x3b
 232 003b 04       		.uleb128 0x4
 233 003c 04       		.byte	0x4
 234 003d 07       		.byte	0x7
 235 003e 2C010000 		.4byte	.LASF0
 236 0042 04       		.uleb128 0x4
 237 0043 01       		.byte	0x1
 238 0044 06       		.byte	0x6
 239 0045 96000000 		.4byte	.LASF1
 240 0049 03       		.uleb128 0x3
 241 004a CC030000 		.4byte	.LASF3
 242 004e 03       		.byte	0x3
 243 004f 2A       		.byte	0x2a
 244 0050 54000000 		.4byte	0x54
 245 0054 04       		.uleb128 0x4
 246 0055 01       		.byte	0x1
 247 0056 08       		.byte	0x8
 248 0057 66020000 		.4byte	.LASF4
 249 005b 04       		.uleb128 0x4
 250 005c 02       		.byte	0x2
 251 005d 05       		.byte	0x5
 252 005e 7E020000 		.4byte	.LASF5
 253 0062 03       		.uleb128 0x3
 254 0063 EF000000 		.4byte	.LASF6
 255 0067 03       		.byte	0x3
 256 0068 36       		.byte	0x36
 257 0069 6D000000 		.4byte	0x6d
 258 006d 04       		.uleb128 0x4
 259 006e 02       		.byte	0x2
 260 006f 07       		.byte	0x7
 261 0070 5C010000 		.4byte	.LASF7
 262 0074 03       		.uleb128 0x3
 263 0075 5E020000 		.4byte	.LASF8
 264 0079 03       		.byte	0x3
 265 007a 4F       		.byte	0x4f
 266 007b 7F000000 		.4byte	0x7f
 267 007f 04       		.uleb128 0x4
 268 0080 04       		.byte	0x4
 269 0081 05       		.byte	0x5
 270 0082 DD000000 		.4byte	.LASF9
 271 0086 03       		.uleb128 0x3
 272 0087 F4020000 		.4byte	.LASF10
 273 008b 03       		.byte	0x3
 274 008c 50       		.byte	0x50
 275 008d 91000000 		.4byte	0x91
 276 0091 04       		.uleb128 0x4
 277 0092 04       		.byte	0x4
 278 0093 07       		.byte	0x7
 279 0094 39010000 		.4byte	.LASF11
 280 0098 04       		.uleb128 0x4
 281 0099 08       		.byte	0x8
ARM GAS  /var/folders/dt/0wfd0knj7gs46m8vwfzktm600000gn/T//ccwB9oFb.s 			page 6


 282 009a 05       		.byte	0x5
 283 009b 88000000 		.4byte	.LASF12
 284 009f 03       		.uleb128 0x3
 285 00a0 21000000 		.4byte	.LASF13
 286 00a4 03       		.byte	0x3
 287 00a5 78       		.byte	0x78
 288 00a6 AA000000 		.4byte	0xaa
 289 00aa 04       		.uleb128 0x4
 290 00ab 08       		.byte	0x8
 291 00ac 07       		.byte	0x7
 292 00ad 2A000000 		.4byte	.LASF14
 293 00b1 03       		.uleb128 0x3
 294 00b2 75010000 		.4byte	.LASF15
 295 00b6 04       		.byte	0x4
 296 00b7 2F       		.byte	0x2f
 297 00b8 49000000 		.4byte	0x49
 298 00bc 03       		.uleb128 0x3
 299 00bd E6000000 		.4byte	.LASF16
 300 00c1 04       		.byte	0x4
 301 00c2 30       		.byte	0x30
 302 00c3 49000000 		.4byte	0x49
 303 00c7 03       		.uleb128 0x3
 304 00c8 3C020000 		.4byte	.LASF17
 305 00cc 04       		.byte	0x4
 306 00cd 31       		.byte	0x31
 307 00ce 49000000 		.4byte	0x49
 308 00d2 03       		.uleb128 0x3
 309 00d3 56020000 		.4byte	.LASF18
 310 00d7 04       		.byte	0x4
 311 00d8 32       		.byte	0x32
 312 00d9 86000000 		.4byte	0x86
 313 00dd 03       		.uleb128 0x3
 314 00de 6F010000 		.4byte	.LASF19
 315 00e2 04       		.byte	0x4
 316 00e3 33       		.byte	0x33
 317 00e4 74000000 		.4byte	0x74
 318 00e8 03       		.uleb128 0x3
 319 00e9 89010000 		.4byte	.LASF20
 320 00ed 04       		.byte	0x4
 321 00ee 35       		.byte	0x35
 322 00ef 86000000 		.4byte	0x86
 323 00f3 03       		.uleb128 0x3
 324 00f4 2D030000 		.4byte	.LASF21
 325 00f8 04       		.byte	0x4
 326 00f9 36       		.byte	0x36
 327 00fa 86000000 		.4byte	0x86
 328 00fe 03       		.uleb128 0x3
 329 00ff 1B010000 		.4byte	.LASF22
 330 0103 04       		.byte	0x4
 331 0104 37       		.byte	0x37
 332 0105 74000000 		.4byte	0x74
 333 0109 03       		.uleb128 0x3
 334 010a D5020000 		.4byte	.LASF23
 335 010e 05       		.byte	0x5
 336 010f 2A       		.byte	0x2a
 337 0110 14010000 		.4byte	0x114
 338 0114 05       		.uleb128 0x5
ARM GAS  /var/folders/dt/0wfd0knj7gs46m8vwfzktm600000gn/T//ccwB9oFb.s 			page 7


 339 0115 D5020000 		.4byte	.LASF23
 340 0119 4C       		.byte	0x4c
 341 011a 06       		.byte	0x6
 342 011b 5E       		.byte	0x5e
 343 011c 39020000 		.4byte	0x239
 344 0120 06       		.uleb128 0x6
 345 0121 AA020000 		.4byte	.LASF24
 346 0125 06       		.byte	0x6
 347 0126 5F       		.byte	0x5f
 348 0127 5E020000 		.4byte	0x25e
 349 012b 02       		.byte	0x2
 350 012c 23       		.byte	0x23
 351 012d 00       		.uleb128 0
 352 012e 06       		.uleb128 0x6
 353 012f 4F020000 		.4byte	.LASF25
 354 0133 06       		.byte	0x6
 355 0134 61       		.byte	0x61
 356 0135 5E020000 		.4byte	0x25e
 357 0139 02       		.byte	0x2
 358 013a 23       		.byte	0x23
 359 013b 04       		.uleb128 0x4
 360 013c 06       		.uleb128 0x6
 361 013d 74000000 		.4byte	.LASF26
 362 0141 06       		.byte	0x6
 363 0142 63       		.byte	0x63
 364 0143 D2000000 		.4byte	0xd2
 365 0147 02       		.byte	0x2
 366 0148 23       		.byte	0x23
 367 0149 08       		.uleb128 0x8
 368 014a 06       		.uleb128 0x6
 369 014b FF030000 		.4byte	.LASF27
 370 014f 06       		.byte	0x6
 371 0150 64       		.byte	0x64
 372 0151 36030000 		.4byte	0x336
 373 0155 02       		.byte	0x2
 374 0156 23       		.byte	0x23
 375 0157 0C       		.uleb128 0xc
 376 0158 06       		.uleb128 0x6
 377 0159 02010000 		.4byte	.LASF28
 378 015d 06       		.byte	0x6
 379 015e 66       		.byte	0x66
 380 015f 5E020000 		.4byte	0x25e
 381 0163 02       		.byte	0x2
 382 0164 23       		.byte	0x23
 383 0165 10       		.uleb128 0x10
 384 0166 06       		.uleb128 0x6
 385 0167 EA010000 		.4byte	.LASF29
 386 016b 06       		.byte	0x6
 387 016c 67       		.byte	0x67
 388 016d 5E020000 		.4byte	0x25e
 389 0171 02       		.byte	0x2
 390 0172 23       		.byte	0x23
 391 0173 14       		.uleb128 0x14
 392 0174 06       		.uleb128 0x6
 393 0175 DB030000 		.4byte	.LASF30
 394 0179 06       		.byte	0x6
 395 017a 6E       		.byte	0x6e
ARM GAS  /var/folders/dt/0wfd0knj7gs46m8vwfzktm600000gn/T//ccwB9oFb.s 			page 8


 396 017b 58040000 		.4byte	0x458
 397 017f 02       		.byte	0x2
 398 0180 23       		.byte	0x23
 399 0181 18       		.uleb128 0x18
 400 0182 06       		.uleb128 0x6
 401 0183 21010000 		.4byte	.LASF31
 402 0187 06       		.byte	0x6
 403 0188 74       		.byte	0x74
 404 0189 6A040000 		.4byte	0x46a
 405 018d 02       		.byte	0x2
 406 018e 23       		.byte	0x23
 407 018f 1C       		.uleb128 0x1c
 408 0190 06       		.uleb128 0x6
 409 0191 88020000 		.4byte	.LASF32
 410 0195 06       		.byte	0x6
 411 0196 79       		.byte	0x79
 412 0197 BC000000 		.4byte	0xbc
 413 019b 02       		.byte	0x2
 414 019c 23       		.byte	0x23
 415 019d 20       		.uleb128 0x20
 416 019e 06       		.uleb128 0x6
 417 019f C0020000 		.4byte	.LASF33
 418 01a3 06       		.byte	0x6
 419 01a4 7D       		.byte	0x7d
 420 01a5 B1000000 		.4byte	0xb1
 421 01a9 02       		.byte	0x2
 422 01aa 23       		.byte	0x23
 423 01ab 21       		.uleb128 0x21
 424 01ac 06       		.uleb128 0x6
 425 01ad B5030000 		.4byte	.LASF34
 426 01b1 06       		.byte	0x6
 427 01b2 82       		.byte	0x82
 428 01b3 C7000000 		.4byte	0xc7
 429 01b7 02       		.byte	0x2
 430 01b8 23       		.byte	0x23
 431 01b9 22       		.uleb128 0x22
 432 01ba 06       		.uleb128 0x6
 433 01bb 70030000 		.4byte	.LASF35
 434 01bf 06       		.byte	0x6
 435 01c0 89       		.byte	0x89
 436 01c1 60030000 		.4byte	0x360
 437 01c5 02       		.byte	0x2
 438 01c6 23       		.byte	0x23
 439 01c7 24       		.uleb128 0x24
 440 01c8 07       		.uleb128 0x7
 441 01c9 705F7500 		.ascii	"p_u\000"
 442 01cd 06       		.byte	0x6
 443 01ce AE       		.byte	0xae
 444 01cf 23040000 		.4byte	0x423
 445 01d3 02       		.byte	0x2
 446 01d4 23       		.byte	0x23
 447 01d5 28       		.uleb128 0x28
 448 01d6 06       		.uleb128 0x6
 449 01d7 05040000 		.4byte	.LASF36
 450 01db 06       		.byte	0x6
 451 01dc B3       		.byte	0xb3
 452 01dd 86020000 		.4byte	0x286
ARM GAS  /var/folders/dt/0wfd0knj7gs46m8vwfzktm600000gn/T//ccwB9oFb.s 			page 9


 453 01e1 02       		.byte	0x2
 454 01e2 23       		.byte	0x23
 455 01e3 2C       		.uleb128 0x2c
 456 01e4 06       		.uleb128 0x6
 457 01e5 7E030000 		.4byte	.LASF37
 458 01e9 06       		.byte	0x6
 459 01ea B9       		.byte	0xb9
 460 01eb 64020000 		.4byte	0x264
 461 01ef 02       		.byte	0x2
 462 01f0 23       		.byte	0x23
 463 01f1 30       		.uleb128 0x30
 464 01f2 06       		.uleb128 0x6
 465 01f3 0D000000 		.4byte	.LASF38
 466 01f7 06       		.byte	0x6
 467 01f8 BD       		.byte	0xbd
 468 01f9 DD000000 		.4byte	0xdd
 469 01fd 02       		.byte	0x2
 470 01fe 23       		.byte	0x23
 471 01ff 38       		.uleb128 0x38
 472 0200 06       		.uleb128 0x6
 473 0201 E9020000 		.4byte	.LASF39
 474 0205 06       		.byte	0x6
 475 0206 C3       		.byte	0xc3
 476 0207 E8000000 		.4byte	0xe8
 477 020b 02       		.byte	0x2
 478 020c 23       		.byte	0x23
 479 020d 3C       		.uleb128 0x3c
 480 020e 06       		.uleb128 0x6
 481 020f 74020000 		.4byte	.LASF40
 482 0213 06       		.byte	0x6
 483 0214 CA       		.byte	0xca
 484 0215 70040000 		.4byte	0x470
 485 0219 02       		.byte	0x2
 486 021a 23       		.byte	0x23
 487 021b 40       		.uleb128 0x40
 488 021c 06       		.uleb128 0x6
 489 021d 37030000 		.4byte	.LASF41
 490 0221 06       		.byte	0x6
 491 0222 CE       		.byte	0xce
 492 0223 D2000000 		.4byte	0xd2
 493 0227 02       		.byte	0x2
 494 0228 23       		.byte	0x23
 495 0229 44       		.uleb128 0x44
 496 022a 06       		.uleb128 0x6
 497 022b BF000000 		.4byte	.LASF42
 498 022f 06       		.byte	0x6
 499 0230 D4       		.byte	0xd4
 500 0231 9C020000 		.4byte	0x29c
 501 0235 02       		.byte	0x2
 502 0236 23       		.byte	0x23
 503 0237 48       		.uleb128 0x48
 504 0238 00       		.byte	0
 505 0239 08       		.uleb128 0x8
 506 023a 08       		.byte	0x8
 507 023b 05       		.byte	0x5
 508 023c 61       		.byte	0x61
 509 023d 5E020000 		.4byte	0x25e
ARM GAS  /var/folders/dt/0wfd0knj7gs46m8vwfzktm600000gn/T//ccwB9oFb.s 			page 10


 510 0241 06       		.uleb128 0x6
 511 0242 AA020000 		.4byte	.LASF24
 512 0246 05       		.byte	0x5
 513 0247 62       		.byte	0x62
 514 0248 5E020000 		.4byte	0x25e
 515 024c 02       		.byte	0x2
 516 024d 23       		.byte	0x23
 517 024e 00       		.uleb128 0
 518 024f 06       		.uleb128 0x6
 519 0250 4F020000 		.4byte	.LASF25
 520 0254 05       		.byte	0x5
 521 0255 64       		.byte	0x64
 522 0256 5E020000 		.4byte	0x25e
 523 025a 02       		.byte	0x2
 524 025b 23       		.byte	0x23
 525 025c 04       		.uleb128 0x4
 526 025d 00       		.byte	0
 527 025e 09       		.uleb128 0x9
 528 025f 04       		.byte	0x4
 529 0260 09010000 		.4byte	0x109
 530 0264 03       		.uleb128 0x3
 531 0265 F8010000 		.4byte	.LASF43
 532 0269 05       		.byte	0x5
 533 026a 66       		.byte	0x66
 534 026b 39020000 		.4byte	0x239
 535 026f 08       		.uleb128 0x8
 536 0270 04       		.byte	0x4
 537 0271 05       		.byte	0x5
 538 0272 6B       		.byte	0x6b
 539 0273 86020000 		.4byte	0x286
 540 0277 06       		.uleb128 0x6
 541 0278 AA020000 		.4byte	.LASF24
 542 027c 05       		.byte	0x5
 543 027d 6D       		.byte	0x6d
 544 027e 5E020000 		.4byte	0x25e
 545 0282 02       		.byte	0x2
 546 0283 23       		.byte	0x23
 547 0284 00       		.uleb128 0
 548 0285 00       		.byte	0
 549 0286 03       		.uleb128 0x3
 550 0287 7D010000 		.4byte	.LASF44
 551 028b 05       		.byte	0x5
 552 028c 70       		.byte	0x70
 553 028d 6F020000 		.4byte	0x26f
 554 0291 03       		.uleb128 0x3
 555 0292 12010000 		.4byte	.LASF45
 556 0296 07       		.byte	0x7
 557 0297 D7       		.byte	0xd7
 558 0298 9C020000 		.4byte	0x29c
 559 029c 0A       		.uleb128 0xa
 560 029d 04       		.byte	0x4
 561 029e 03       		.uleb128 0x3
 562 029f 9B010000 		.4byte	.LASF46
 563 02a3 07       		.byte	0x7
 564 02a4 DD       		.byte	0xdd
 565 02a5 9F000000 		.4byte	0x9f
 566 02a9 05       		.uleb128 0x5
ARM GAS  /var/folders/dt/0wfd0knj7gs46m8vwfzktm600000gn/T//ccwB9oFb.s 			page 11


 567 02aa 77030000 		.4byte	.LASF47
 568 02ae 24       		.byte	0x24
 569 02af 07       		.byte	0x7
 570 02b0 FE       		.byte	0xfe
 571 02b1 36030000 		.4byte	0x336
 572 02b5 0B       		.uleb128 0xb
 573 02b6 723400   		.ascii	"r4\000"
 574 02b9 07       		.byte	0x7
 575 02ba 1101     		.2byte	0x111
 576 02bc 91020000 		.4byte	0x291
 577 02c0 02       		.byte	0x2
 578 02c1 23       		.byte	0x23
 579 02c2 00       		.uleb128 0
 580 02c3 0B       		.uleb128 0xb
 581 02c4 723500   		.ascii	"r5\000"
 582 02c7 07       		.byte	0x7
 583 02c8 1201     		.2byte	0x112
 584 02ca 91020000 		.4byte	0x291
 585 02ce 02       		.byte	0x2
 586 02cf 23       		.byte	0x23
 587 02d0 04       		.uleb128 0x4
 588 02d1 0B       		.uleb128 0xb
 589 02d2 723600   		.ascii	"r6\000"
 590 02d5 07       		.byte	0x7
 591 02d6 1301     		.2byte	0x113
 592 02d8 91020000 		.4byte	0x291
 593 02dc 02       		.byte	0x2
 594 02dd 23       		.byte	0x23
 595 02de 08       		.uleb128 0x8
 596 02df 0B       		.uleb128 0xb
 597 02e0 723700   		.ascii	"r7\000"
 598 02e3 07       		.byte	0x7
 599 02e4 1401     		.2byte	0x114
 600 02e6 91020000 		.4byte	0x291
 601 02ea 02       		.byte	0x2
 602 02eb 23       		.byte	0x23
 603 02ec 0C       		.uleb128 0xc
 604 02ed 0B       		.uleb128 0xb
 605 02ee 723800   		.ascii	"r8\000"
 606 02f1 07       		.byte	0x7
 607 02f2 1501     		.2byte	0x115
 608 02f4 91020000 		.4byte	0x291
 609 02f8 02       		.byte	0x2
 610 02f9 23       		.byte	0x23
 611 02fa 10       		.uleb128 0x10
 612 02fb 0B       		.uleb128 0xb
 613 02fc 723900   		.ascii	"r9\000"
 614 02ff 07       		.byte	0x7
 615 0300 1601     		.2byte	0x116
 616 0302 91020000 		.4byte	0x291
 617 0306 02       		.byte	0x2
 618 0307 23       		.byte	0x23
 619 0308 14       		.uleb128 0x14
 620 0309 0B       		.uleb128 0xb
 621 030a 72313000 		.ascii	"r10\000"
 622 030e 07       		.byte	0x7
 623 030f 1701     		.2byte	0x117
ARM GAS  /var/folders/dt/0wfd0knj7gs46m8vwfzktm600000gn/T//ccwB9oFb.s 			page 12


 624 0311 91020000 		.4byte	0x291
 625 0315 02       		.byte	0x2
 626 0316 23       		.byte	0x23
 627 0317 18       		.uleb128 0x18
 628 0318 0B       		.uleb128 0xb
 629 0319 72313100 		.ascii	"r11\000"
 630 031d 07       		.byte	0x7
 631 031e 1801     		.2byte	0x118
 632 0320 91020000 		.4byte	0x291
 633 0324 02       		.byte	0x2
 634 0325 23       		.byte	0x23
 635 0326 1C       		.uleb128 0x1c
 636 0327 0B       		.uleb128 0xb
 637 0328 6C7200   		.ascii	"lr\000"
 638 032b 07       		.byte	0x7
 639 032c 1901     		.2byte	0x119
 640 032e 91020000 		.4byte	0x291
 641 0332 02       		.byte	0x2
 642 0333 23       		.byte	0x23
 643 0334 20       		.uleb128 0x20
 644 0335 00       		.byte	0
 645 0336 0C       		.uleb128 0xc
 646 0337 54010000 		.4byte	.LASF48
 647 033b 04       		.byte	0x4
 648 033c 07       		.byte	0x7
 649 033d 2301     		.2byte	0x123
 650 033f 53030000 		.4byte	0x353
 651 0343 0B       		.uleb128 0xb
 652 0344 72313300 		.ascii	"r13\000"
 653 0348 07       		.byte	0x7
 654 0349 2401     		.2byte	0x124
 655 034b 53030000 		.4byte	0x353
 656 034f 02       		.byte	0x2
 657 0350 23       		.byte	0x23
 658 0351 00       		.uleb128 0
 659 0352 00       		.byte	0
 660 0353 09       		.uleb128 0x9
 661 0354 04       		.byte	0x4
 662 0355 A9020000 		.4byte	0x2a9
 663 0359 04       		.uleb128 0x4
 664 035a 04       		.byte	0x4
 665 035b 07       		.byte	0x7
 666 035c BA010000 		.4byte	.LASF49
 667 0360 0D       		.uleb128 0xd
 668 0361 F3000000 		.4byte	0xf3
 669 0365 08       		.uleb128 0x8
 670 0366 20       		.byte	0x20
 671 0367 08       		.byte	0x8
 672 0368 5E       		.byte	0x5e
 673 0369 D0030000 		.4byte	0x3d0
 674 036d 06       		.uleb128 0x6
 675 036e 09030000 		.4byte	.LASF50
 676 0372 08       		.byte	0x8
 677 0373 5F       		.byte	0x5f
 678 0374 64020000 		.4byte	0x264
 679 0378 02       		.byte	0x2
 680 0379 23       		.byte	0x23
ARM GAS  /var/folders/dt/0wfd0knj7gs46m8vwfzktm600000gn/T//ccwB9oFb.s 			page 13


 681 037a 00       		.uleb128 0
 682 037b 06       		.uleb128 0x6
 683 037c 9C020000 		.4byte	.LASF51
 684 0380 08       		.byte	0x8
 685 0381 60       		.byte	0x60
 686 0382 D2000000 		.4byte	0xd2
 687 0386 02       		.byte	0x2
 688 0387 23       		.byte	0x23
 689 0388 08       		.uleb128 0x8
 690 0389 06       		.uleb128 0x6
 691 038a F2010000 		.4byte	.LASF52
 692 038e 08       		.byte	0x8
 693 038f 62       		.byte	0x62
 694 0390 36030000 		.4byte	0x336
 695 0394 02       		.byte	0x2
 696 0395 23       		.byte	0x23
 697 0396 0C       		.uleb128 0xc
 698 0397 06       		.uleb128 0x6
 699 0398 0A010000 		.4byte	.LASF53
 700 039c 08       		.byte	0x8
 701 039d 65       		.byte	0x65
 702 039e 5E020000 		.4byte	0x25e
 703 03a2 02       		.byte	0x2
 704 03a3 23       		.byte	0x23
 705 03a4 10       		.uleb128 0x10
 706 03a5 06       		.uleb128 0x6
 707 03a6 23020000 		.4byte	.LASF54
 708 03aa 08       		.byte	0x8
 709 03ab 66       		.byte	0x66
 710 03ac 5E020000 		.4byte	0x25e
 711 03b0 02       		.byte	0x2
 712 03b1 23       		.byte	0x23
 713 03b2 14       		.uleb128 0x14
 714 03b3 06       		.uleb128 0x6
 715 03b4 ED030000 		.4byte	.LASF55
 716 03b8 08       		.byte	0x8
 717 03b9 6A       		.byte	0x6a
 718 03ba FE000000 		.4byte	0xfe
 719 03be 02       		.byte	0x2
 720 03bf 23       		.byte	0x23
 721 03c0 18       		.uleb128 0x18
 722 03c1 06       		.uleb128 0x6
 723 03c2 19020000 		.4byte	.LASF56
 724 03c6 08       		.byte	0x8
 725 03c7 6C       		.byte	0x6c
 726 03c8 5E020000 		.4byte	0x25e
 727 03cc 02       		.byte	0x2
 728 03cd 23       		.byte	0x23
 729 03ce 1C       		.uleb128 0x1c
 730 03cf 00       		.byte	0
 731 03d0 03       		.uleb128 0x3
 732 03d1 BC030000 		.4byte	.LASF57
 733 03d5 08       		.byte	0x8
 734 03d6 6E       		.byte	0x6e
 735 03d7 65030000 		.4byte	0x365
 736 03db 05       		.uleb128 0x5
 737 03dc 95010000 		.4byte	.LASF58
ARM GAS  /var/folders/dt/0wfd0knj7gs46m8vwfzktm600000gn/T//ccwB9oFb.s 			page 14


 738 03e0 10       		.byte	0x10
 739 03e1 09       		.byte	0x9
 740 03e2 2C       		.byte	0x2c
 741 03e3 12040000 		.4byte	0x412
 742 03e7 06       		.uleb128 0x6
 743 03e8 C7000000 		.4byte	.LASF59
 744 03ec 09       		.byte	0x9
 745 03ed 2D       		.byte	0x2d
 746 03ee 64020000 		.4byte	0x264
 747 03f2 02       		.byte	0x2
 748 03f3 23       		.byte	0x23
 749 03f4 00       		.uleb128 0
 750 03f5 06       		.uleb128 0x6
 751 03f6 F7030000 		.4byte	.LASF60
 752 03fa 09       		.byte	0x9
 753 03fb 2F       		.byte	0x2f
 754 03fc 5E020000 		.4byte	0x25e
 755 0400 02       		.byte	0x2
 756 0401 23       		.byte	0x23
 757 0402 08       		.uleb128 0x8
 758 0403 06       		.uleb128 0x6
 759 0404 26030000 		.4byte	.LASF61
 760 0408 09       		.byte	0x9
 761 0409 31       		.byte	0x31
 762 040a 12040000 		.4byte	0x412
 763 040e 02       		.byte	0x2
 764 040f 23       		.byte	0x23
 765 0410 0C       		.uleb128 0xc
 766 0411 00       		.byte	0
 767 0412 09       		.uleb128 0x9
 768 0413 04       		.byte	0x4
 769 0414 DB030000 		.4byte	0x3db
 770 0418 03       		.uleb128 0x3
 771 0419 95010000 		.4byte	.LASF58
 772 041d 09       		.byte	0x9
 773 041e 33       		.byte	0x33
 774 041f DB030000 		.4byte	0x3db
 775 0423 0E       		.uleb128 0xe
 776 0424 04       		.byte	0x4
 777 0425 06       		.byte	0x6
 778 0426 90       		.byte	0x90
 779 0427 58040000 		.4byte	0x458
 780 042b 0F       		.uleb128 0xf
 781 042c 1A000000 		.4byte	.LASF62
 782 0430 06       		.byte	0x6
 783 0431 97       		.byte	0x97
 784 0432 DD000000 		.4byte	0xdd
 785 0436 0F       		.uleb128 0xf
 786 0437 4F000000 		.4byte	.LASF63
 787 043b 06       		.byte	0x6
 788 043c 9E       		.byte	0x9e
 789 043d DD000000 		.4byte	0xdd
 790 0441 0F       		.uleb128 0xf
 791 0442 D4030000 		.4byte	.LASF64
 792 0446 06       		.byte	0x6
 793 0447 A5       		.byte	0xa5
 794 0448 9C020000 		.4byte	0x29c
ARM GAS  /var/folders/dt/0wfd0knj7gs46m8vwfzktm600000gn/T//ccwB9oFb.s 			page 15


 795 044c 0F       		.uleb128 0xf
 796 044d A3020000 		.4byte	.LASF65
 797 0451 06       		.byte	0x6
 798 0452 AC       		.byte	0xac
 799 0453 E8000000 		.4byte	0xe8
 800 0457 00       		.byte	0
 801 0458 09       		.uleb128 0x9
 802 0459 04       		.byte	0x4
 803 045a 5E040000 		.4byte	0x45e
 804 045e 10       		.uleb128 0x10
 805 045f 63040000 		.4byte	0x463
 806 0463 04       		.uleb128 0x4
 807 0464 01       		.byte	0x1
 808 0465 08       		.byte	0x8
 809 0466 11030000 		.4byte	.LASF66
 810 046a 09       		.uleb128 0x9
 811 046b 04       		.byte	0x4
 812 046c 9E020000 		.4byte	0x29e
 813 0470 09       		.uleb128 0x9
 814 0471 04       		.byte	0x4
 815 0472 18040000 		.4byte	0x418
 816 0476 08       		.uleb128 0x8
 817 0477 16       		.byte	0x16
 818 0478 0A       		.byte	0xa
 819 0479 2C       		.byte	0x2c
 820 047a 7B050000 		.4byte	0x57b
 821 047e 06       		.uleb128 0x6
 822 047f CF000000 		.4byte	.LASF67
 823 0483 0A       		.byte	0xa
 824 0484 2D       		.byte	0x2d
 825 0485 7B050000 		.4byte	0x57b
 826 0489 02       		.byte	0x2
 827 048a 23       		.byte	0x23
 828 048b 00       		.uleb128 0
 829 048c 06       		.uleb128 0x6
 830 048d A6010000 		.4byte	.LASF68
 831 0491 0A       		.byte	0xa
 832 0492 2E       		.byte	0x2e
 833 0493 49000000 		.4byte	0x49
 834 0497 02       		.byte	0x2
 835 0498 23       		.byte	0x23
 836 0499 04       		.uleb128 0x4
 837 049a 06       		.uleb128 0x6
 838 049b 05020000 		.4byte	.LASF69
 839 049f 0A       		.byte	0xa
 840 04a0 2F       		.byte	0x2f
 841 04a1 49000000 		.4byte	0x49
 842 04a5 02       		.byte	0x2
 843 04a6 23       		.byte	0x23
 844 04a7 05       		.uleb128 0x5
 845 04a8 06       		.uleb128 0x6
 846 04a9 E2030000 		.4byte	.LASF70
 847 04ad 0A       		.byte	0xa
 848 04ae 30       		.byte	0x30
 849 04af 62000000 		.4byte	0x62
 850 04b3 02       		.byte	0x2
 851 04b4 23       		.byte	0x23
ARM GAS  /var/folders/dt/0wfd0knj7gs46m8vwfzktm600000gn/T//ccwB9oFb.s 			page 16


 852 04b5 06       		.uleb128 0x6
 853 04b6 06       		.uleb128 0x6
 854 04b7 44020000 		.4byte	.LASF71
 855 04bb 0A       		.byte	0xa
 856 04bc 31       		.byte	0x31
 857 04bd 49000000 		.4byte	0x49
 858 04c1 02       		.byte	0x2
 859 04c2 23       		.byte	0x23
 860 04c3 08       		.uleb128 0x8
 861 04c4 06       		.uleb128 0x6
 862 04c5 D2010000 		.4byte	.LASF72
 863 04c9 0A       		.byte	0xa
 864 04ca 32       		.byte	0x32
 865 04cb 49000000 		.4byte	0x49
 866 04cf 02       		.byte	0x2
 867 04d0 23       		.byte	0x23
 868 04d1 09       		.uleb128 0x9
 869 04d2 06       		.uleb128 0x6
 870 04d3 41000000 		.4byte	.LASF73
 871 04d7 0A       		.byte	0xa
 872 04d8 33       		.byte	0x33
 873 04d9 49000000 		.4byte	0x49
 874 04dd 02       		.byte	0x2
 875 04de 23       		.byte	0x23
 876 04df 0A       		.uleb128 0xa
 877 04e0 06       		.uleb128 0x6
 878 04e1 FD020000 		.4byte	.LASF74
 879 04e5 0A       		.byte	0xa
 880 04e6 34       		.byte	0x34
 881 04e7 49000000 		.4byte	0x49
 882 04eb 02       		.byte	0x2
 883 04ec 23       		.byte	0x23
 884 04ed 0B       		.uleb128 0xb
 885 04ee 06       		.uleb128 0x6
 886 04ef AA030000 		.4byte	.LASF75
 887 04f3 0A       		.byte	0xa
 888 04f4 35       		.byte	0x35
 889 04f5 49000000 		.4byte	0x49
 890 04f9 02       		.byte	0x2
 891 04fa 23       		.byte	0x23
 892 04fb 0C       		.uleb128 0xc
 893 04fc 06       		.uleb128 0x6
 894 04fd DC020000 		.4byte	.LASF76
 895 0501 0A       		.byte	0xa
 896 0502 36       		.byte	0x36
 897 0503 49000000 		.4byte	0x49
 898 0507 02       		.byte	0x2
 899 0508 23       		.byte	0x23
 900 0509 0D       		.uleb128 0xd
 901 050a 06       		.uleb128 0x6
 902 050b 00000000 		.4byte	.LASF77
 903 050f 0A       		.byte	0xa
 904 0510 37       		.byte	0x37
 905 0511 49000000 		.4byte	0x49
 906 0515 02       		.byte	0x2
 907 0516 23       		.byte	0x23
 908 0517 0E       		.uleb128 0xe
ARM GAS  /var/folders/dt/0wfd0knj7gs46m8vwfzktm600000gn/T//ccwB9oFb.s 			page 17


 909 0518 06       		.uleb128 0x6
 910 0519 DE010000 		.4byte	.LASF78
 911 051d 0A       		.byte	0xa
 912 051e 38       		.byte	0x38
 913 051f 49000000 		.4byte	0x49
 914 0523 02       		.byte	0x2
 915 0524 23       		.byte	0x23
 916 0525 0F       		.uleb128 0xf
 917 0526 06       		.uleb128 0x6
 918 0527 A2000000 		.4byte	.LASF79
 919 052b 0A       		.byte	0xa
 920 052c 39       		.byte	0x39
 921 052d 49000000 		.4byte	0x49
 922 0531 02       		.byte	0x2
 923 0532 23       		.byte	0x23
 924 0533 10       		.uleb128 0x10
 925 0534 06       		.uleb128 0x6
 926 0535 7B000000 		.4byte	.LASF80
 927 0539 0A       		.byte	0xa
 928 053a 3B       		.byte	0x3b
 929 053b 49000000 		.4byte	0x49
 930 053f 02       		.byte	0x2
 931 0540 23       		.byte	0x23
 932 0541 11       		.uleb128 0x11
 933 0542 06       		.uleb128 0x6
 934 0543 B2000000 		.4byte	.LASF81
 935 0547 0A       		.byte	0xa
 936 0548 3C       		.byte	0x3c
 937 0549 49000000 		.4byte	0x49
 938 054d 02       		.byte	0x2
 939 054e 23       		.byte	0x23
 940 054f 12       		.uleb128 0x12
 941 0550 06       		.uleb128 0x6
 942 0551 AE010000 		.4byte	.LASF82
 943 0555 0A       		.byte	0xa
 944 0556 3D       		.byte	0x3d
 945 0557 49000000 		.4byte	0x49
 946 055b 02       		.byte	0x2
 947 055c 23       		.byte	0x23
 948 055d 13       		.uleb128 0x13
 949 055e 06       		.uleb128 0x6
 950 055f B1020000 		.4byte	.LASF83
 951 0563 0A       		.byte	0xa
 952 0564 3E       		.byte	0x3e
 953 0565 49000000 		.4byte	0x49
 954 0569 02       		.byte	0x2
 955 056a 23       		.byte	0x23
 956 056b 14       		.uleb128 0x14
 957 056c 06       		.uleb128 0x6
 958 056d 90020000 		.4byte	.LASF84
 959 0571 0A       		.byte	0xa
 960 0572 40       		.byte	0x40
 961 0573 49000000 		.4byte	0x49
 962 0577 02       		.byte	0x2
 963 0578 23       		.byte	0x23
 964 0579 15       		.uleb128 0x15
 965 057a 00       		.byte	0
ARM GAS  /var/folders/dt/0wfd0knj7gs46m8vwfzktm600000gn/T//ccwB9oFb.s 			page 18


 966 057b 11       		.uleb128 0x11
 967 057c 63040000 		.4byte	0x463
 968 0580 8B050000 		.4byte	0x58b
 969 0584 12       		.uleb128 0x12
 970 0585 59030000 		.4byte	0x359
 971 0589 03       		.byte	0x3
 972 058a 00       		.byte	0
 973 058b 03       		.uleb128 0x3
 974 058c F8000000 		.4byte	.LASF85
 975 0590 0A       		.byte	0xa
 976 0591 41       		.byte	0x41
 977 0592 76040000 		.4byte	0x476
 978 0596 13       		.uleb128 0x13
 979 0597 01       		.byte	0x1
 980 0598 63000000 		.4byte	.LASF86
 981 059c 01       		.byte	0x1
 982 059d 71       		.byte	0x71
 983 059e 01       		.byte	0x1
 984 059f 5E020000 		.4byte	0x25e
 985 05a3 00000000 		.4byte	.LFB7
 986 05a7 2E000000 		.4byte	.LFE7
 987 05ab 00000000 		.4byte	.LLST0
 988 05af 01       		.byte	0x1
 989 05b0 0D060000 		.4byte	0x60d
 990 05b4 14       		.uleb128 0x14
 991 05b5 747000   		.ascii	"tp\000"
 992 05b8 01       		.byte	0x1
 993 05b9 72       		.byte	0x72
 994 05ba 5E020000 		.4byte	0x25e
 995 05be 01       		.byte	0x1
 996 05bf 54       		.byte	0x54
 997 05c0 15       		.uleb128 0x15
 998 05c1 02000000 		.4byte	.LBB2
 999 05c5 08000000 		.4byte	.LBE2
 1000 05c9 DD050000 		.4byte	0x5dd
 1001 05cd 16       		.uleb128 0x16
 1002 05ce 746D7000 		.ascii	"tmp\000"
 1003 05d2 01       		.byte	0x1
 1004 05d3 74       		.byte	0x74
 1005 05d4 86000000 		.4byte	0x86
 1006 05d8 20000000 		.4byte	.LLST1
 1007 05dc 00       		.byte	0
 1008 05dd 15       		.uleb128 0x15
 1009 05de 24000000 		.4byte	.LBB3
 1010 05e2 2A000000 		.4byte	.LBE3
 1011 05e6 FA050000 		.4byte	0x5fa
 1012 05ea 16       		.uleb128 0x16
 1013 05eb 746D7000 		.ascii	"tmp\000"
 1014 05ef 01       		.byte	0x1
 1015 05f0 79       		.byte	0x79
 1016 05f1 86000000 		.4byte	0x86
 1017 05f5 33000000 		.4byte	.LLST2
 1018 05f9 00       		.byte	0
 1019 05fa 17       		.uleb128 0x17
 1020 05fb 0C000000 		.4byte	.LVL2
 1021 05ff E0060000 		.4byte	0x6e0
 1022 0603 17       		.uleb128 0x17
ARM GAS  /var/folders/dt/0wfd0knj7gs46m8vwfzktm600000gn/T//ccwB9oFb.s 			page 19


 1023 0604 24000000 		.4byte	.LVL4
 1024 0608 EA060000 		.4byte	0x6ea
 1025 060c 00       		.byte	0
 1026 060d 13       		.uleb128 0x13
 1027 060e 01       		.byte	0x1
 1028 060f 16030000 		.4byte	.LASF87
 1029 0613 01       		.byte	0x1
 1030 0614 88       		.byte	0x88
 1031 0615 01       		.byte	0x1
 1032 0616 5E020000 		.4byte	0x25e
 1033 061a 00000000 		.4byte	.LFB8
 1034 061e 50000000 		.4byte	.LFE8
 1035 0622 46000000 		.4byte	.LLST3
 1036 0626 01       		.byte	0x1
 1037 0627 BC060000 		.4byte	0x6bc
 1038 062b 18       		.uleb128 0x18
 1039 062c 747000   		.ascii	"tp\000"
 1040 062f 01       		.byte	0x1
 1041 0630 88       		.byte	0x88
 1042 0631 5E020000 		.4byte	0x25e
 1043 0635 66000000 		.4byte	.LLST4
 1044 0639 16       		.uleb128 0x16
 1045 063a 6E747000 		.ascii	"ntp\000"
 1046 063e 01       		.byte	0x1
 1047 063f 89       		.byte	0x89
 1048 0640 5E020000 		.4byte	0x25e
 1049 0644 84000000 		.4byte	.LLST5
 1050 0648 15       		.uleb128 0x15
 1051 0649 04000000 		.4byte	.LBB4
 1052 064d 0A000000 		.4byte	.LBE4
 1053 0651 65060000 		.4byte	0x665
 1054 0655 16       		.uleb128 0x16
 1055 0656 746D7000 		.ascii	"tmp\000"
 1056 065a 01       		.byte	0x1
 1057 065b 8B       		.byte	0x8b
 1058 065c 86000000 		.4byte	0x86
 1059 0660 A3000000 		.4byte	.LLST6
 1060 0664 00       		.byte	0
 1061 0665 15       		.uleb128 0x15
 1062 0666 28000000 		.4byte	.LBB5
 1063 066a 2E000000 		.4byte	.LBE5
 1064 066e 82060000 		.4byte	0x682
 1065 0672 16       		.uleb128 0x16
 1066 0673 746D7000 		.ascii	"tmp\000"
 1067 0677 01       		.byte	0x1
 1068 0678 96       		.byte	0x96
 1069 0679 86000000 		.4byte	0x86
 1070 067d B6000000 		.4byte	.LLST7
 1071 0681 00       		.byte	0
 1072 0682 17       		.uleb128 0x17
 1073 0683 0E000000 		.4byte	.LVL10
 1074 0687 E0060000 		.4byte	0x6e0
 1075 068b 17       		.uleb128 0x17
 1076 068c 28000000 		.4byte	.LVL13
 1077 0690 EA060000 		.4byte	0x6ea
 1078 0694 19       		.uleb128 0x19
 1079 0695 34000000 		.4byte	.LVL16
ARM GAS  /var/folders/dt/0wfd0knj7gs46m8vwfzktm600000gn/T//ccwB9oFb.s 			page 20


 1080 0699 F4060000 		.4byte	0x6f4
 1081 069d A8060000 		.4byte	0x6a8
 1082 06a1 1A       		.uleb128 0x1a
 1083 06a2 01       		.byte	0x1
 1084 06a3 50       		.byte	0x50
 1085 06a4 02       		.byte	0x2
 1086 06a5 75       		.byte	0x75
 1087 06a6 00       		.sleb128 0
 1088 06a7 00       		.byte	0
 1089 06a8 1B       		.uleb128 0x1b
 1090 06a9 3E000000 		.4byte	.LVL17
 1091 06ad 08070000 		.4byte	0x708
 1092 06b1 1A       		.uleb128 0x1a
 1093 06b2 01       		.byte	0x1
 1094 06b3 50       		.byte	0x50
 1095 06b4 05       		.byte	0x5
 1096 06b5 03       		.byte	0x3
 1097 06b6 00000000 		.4byte	.LC0
 1098 06ba 00       		.byte	0
 1099 06bb 00       		.byte	0
 1100 06bc 1C       		.uleb128 0x1c
 1101 06bd C6030000 		.4byte	.LASF88
 1102 06c1 08       		.byte	0x8
 1103 06c2 72       		.byte	0x72
 1104 06c3 D0030000 		.4byte	0x3d0
 1105 06c7 01       		.byte	0x1
 1106 06c8 01       		.byte	0x1
 1107 06c9 1D       		.uleb128 0x1d
 1108 06ca 4B010000 		.4byte	.LASF89
 1109 06ce 01       		.byte	0x1
 1110 06cf 42       		.byte	0x42
 1111 06d0 DB060000 		.4byte	0x6db
 1112 06d4 01       		.byte	0x1
 1113 06d5 05       		.byte	0x5
 1114 06d6 03       		.byte	0x3
 1115 06d7 00000000 		.4byte	ch_debug
 1116 06db 10       		.uleb128 0x10
 1117 06dc 8B050000 		.4byte	0x58b
 1118 06e0 1E       		.uleb128 0x1e
 1119 06e1 01       		.byte	0x1
 1120 06e2 C3010000 		.4byte	.LASF90
 1121 06e6 0B       		.byte	0xb
 1122 06e7 E2       		.byte	0xe2
 1123 06e8 01       		.byte	0x1
 1124 06e9 01       		.byte	0x1
 1125 06ea 1E       		.uleb128 0x1e
 1126 06eb 01       		.byte	0x1
 1127 06ec 2B020000 		.4byte	.LASF91
 1128 06f0 0B       		.byte	0xb
 1129 06f1 E3       		.byte	0xe3
 1130 06f2 01       		.byte	0x1
 1131 06f3 01       		.byte	0x1
 1132 06f4 1F       		.uleb128 0x1f
 1133 06f5 01       		.byte	0x1
 1134 06f6 C8020000 		.4byte	.LASF92
 1135 06fa 0C       		.byte	0xc
 1136 06fb 3A       		.byte	0x3a
ARM GAS  /var/folders/dt/0wfd0knj7gs46m8vwfzktm600000gn/T//ccwB9oFb.s 			page 21


 1137 06fc 01       		.byte	0x1
 1138 06fd 01       		.byte	0x1
 1139 06fe 08070000 		.4byte	0x708
 1140 0702 20       		.uleb128 0x20
 1141 0703 5E020000 		.4byte	0x25e
 1142 0707 00       		.byte	0
 1143 0708 1F       		.uleb128 0x1f
 1144 0709 01       		.byte	0x1
 1145 070a 58000000 		.4byte	.LASF93
 1146 070e 0B       		.byte	0xb
 1147 070f F0       		.byte	0xf0
 1148 0710 01       		.byte	0x1
 1149 0711 01       		.byte	0x1
 1150 0712 1C070000 		.4byte	0x71c
 1151 0716 20       		.uleb128 0x20
 1152 0717 1C070000 		.4byte	0x71c
 1153 071b 00       		.byte	0
 1154 071c 09       		.uleb128 0x9
 1155 071d 04       		.byte	0x4
 1156 071e 63040000 		.4byte	0x463
 1157 0722 00       		.byte	0
 1158              		.section	.debug_abbrev,"",%progbits
 1159              	.Ldebug_abbrev0:
 1160 0000 01       		.uleb128 0x1
 1161 0001 11       		.uleb128 0x11
 1162 0002 01       		.byte	0x1
 1163 0003 25       		.uleb128 0x25
 1164 0004 0E       		.uleb128 0xe
 1165 0005 13       		.uleb128 0x13
 1166 0006 0B       		.uleb128 0xb
 1167 0007 03       		.uleb128 0x3
 1168 0008 0E       		.uleb128 0xe
 1169 0009 1B       		.uleb128 0x1b
 1170 000a 0E       		.uleb128 0xe
 1171 000b 55       		.uleb128 0x55
 1172 000c 06       		.uleb128 0x6
 1173 000d 11       		.uleb128 0x11
 1174 000e 01       		.uleb128 0x1
 1175 000f 52       		.uleb128 0x52
 1176 0010 01       		.uleb128 0x1
 1177 0011 10       		.uleb128 0x10
 1178 0012 06       		.uleb128 0x6
 1179 0013 00       		.byte	0
 1180 0014 00       		.byte	0
 1181 0015 02       		.uleb128 0x2
 1182 0016 24       		.uleb128 0x24
 1183 0017 00       		.byte	0
 1184 0018 0B       		.uleb128 0xb
 1185 0019 0B       		.uleb128 0xb
 1186 001a 3E       		.uleb128 0x3e
 1187 001b 0B       		.uleb128 0xb
 1188 001c 03       		.uleb128 0x3
 1189 001d 08       		.uleb128 0x8
 1190 001e 00       		.byte	0
 1191 001f 00       		.byte	0
 1192 0020 03       		.uleb128 0x3
 1193 0021 16       		.uleb128 0x16
ARM GAS  /var/folders/dt/0wfd0knj7gs46m8vwfzktm600000gn/T//ccwB9oFb.s 			page 22


 1194 0022 00       		.byte	0
 1195 0023 03       		.uleb128 0x3
 1196 0024 0E       		.uleb128 0xe
 1197 0025 3A       		.uleb128 0x3a
 1198 0026 0B       		.uleb128 0xb
 1199 0027 3B       		.uleb128 0x3b
 1200 0028 0B       		.uleb128 0xb
 1201 0029 49       		.uleb128 0x49
 1202 002a 13       		.uleb128 0x13
 1203 002b 00       		.byte	0
 1204 002c 00       		.byte	0
 1205 002d 04       		.uleb128 0x4
 1206 002e 24       		.uleb128 0x24
 1207 002f 00       		.byte	0
 1208 0030 0B       		.uleb128 0xb
 1209 0031 0B       		.uleb128 0xb
 1210 0032 3E       		.uleb128 0x3e
 1211 0033 0B       		.uleb128 0xb
 1212 0034 03       		.uleb128 0x3
 1213 0035 0E       		.uleb128 0xe
 1214 0036 00       		.byte	0
 1215 0037 00       		.byte	0
 1216 0038 05       		.uleb128 0x5
 1217 0039 13       		.uleb128 0x13
 1218 003a 01       		.byte	0x1
 1219 003b 03       		.uleb128 0x3
 1220 003c 0E       		.uleb128 0xe
 1221 003d 0B       		.uleb128 0xb
 1222 003e 0B       		.uleb128 0xb
 1223 003f 3A       		.uleb128 0x3a
 1224 0040 0B       		.uleb128 0xb
 1225 0041 3B       		.uleb128 0x3b
 1226 0042 0B       		.uleb128 0xb
 1227 0043 01       		.uleb128 0x1
 1228 0044 13       		.uleb128 0x13
 1229 0045 00       		.byte	0
 1230 0046 00       		.byte	0
 1231 0047 06       		.uleb128 0x6
 1232 0048 0D       		.uleb128 0xd
 1233 0049 00       		.byte	0
 1234 004a 03       		.uleb128 0x3
 1235 004b 0E       		.uleb128 0xe
 1236 004c 3A       		.uleb128 0x3a
 1237 004d 0B       		.uleb128 0xb
 1238 004e 3B       		.uleb128 0x3b
 1239 004f 0B       		.uleb128 0xb
 1240 0050 49       		.uleb128 0x49
 1241 0051 13       		.uleb128 0x13
 1242 0052 38       		.uleb128 0x38
 1243 0053 0A       		.uleb128 0xa
 1244 0054 00       		.byte	0
 1245 0055 00       		.byte	0
 1246 0056 07       		.uleb128 0x7
 1247 0057 0D       		.uleb128 0xd
 1248 0058 00       		.byte	0
 1249 0059 03       		.uleb128 0x3
 1250 005a 08       		.uleb128 0x8
ARM GAS  /var/folders/dt/0wfd0knj7gs46m8vwfzktm600000gn/T//ccwB9oFb.s 			page 23


 1251 005b 3A       		.uleb128 0x3a
 1252 005c 0B       		.uleb128 0xb
 1253 005d 3B       		.uleb128 0x3b
 1254 005e 0B       		.uleb128 0xb
 1255 005f 49       		.uleb128 0x49
 1256 0060 13       		.uleb128 0x13
 1257 0061 38       		.uleb128 0x38
 1258 0062 0A       		.uleb128 0xa
 1259 0063 00       		.byte	0
 1260 0064 00       		.byte	0
 1261 0065 08       		.uleb128 0x8
 1262 0066 13       		.uleb128 0x13
 1263 0067 01       		.byte	0x1
 1264 0068 0B       		.uleb128 0xb
 1265 0069 0B       		.uleb128 0xb
 1266 006a 3A       		.uleb128 0x3a
 1267 006b 0B       		.uleb128 0xb
 1268 006c 3B       		.uleb128 0x3b
 1269 006d 0B       		.uleb128 0xb
 1270 006e 01       		.uleb128 0x1
 1271 006f 13       		.uleb128 0x13
 1272 0070 00       		.byte	0
 1273 0071 00       		.byte	0
 1274 0072 09       		.uleb128 0x9
 1275 0073 0F       		.uleb128 0xf
 1276 0074 00       		.byte	0
 1277 0075 0B       		.uleb128 0xb
 1278 0076 0B       		.uleb128 0xb
 1279 0077 49       		.uleb128 0x49
 1280 0078 13       		.uleb128 0x13
 1281 0079 00       		.byte	0
 1282 007a 00       		.byte	0
 1283 007b 0A       		.uleb128 0xa
 1284 007c 0F       		.uleb128 0xf
 1285 007d 00       		.byte	0
 1286 007e 0B       		.uleb128 0xb
 1287 007f 0B       		.uleb128 0xb
 1288 0080 00       		.byte	0
 1289 0081 00       		.byte	0
 1290 0082 0B       		.uleb128 0xb
 1291 0083 0D       		.uleb128 0xd
 1292 0084 00       		.byte	0
 1293 0085 03       		.uleb128 0x3
 1294 0086 08       		.uleb128 0x8
 1295 0087 3A       		.uleb128 0x3a
 1296 0088 0B       		.uleb128 0xb
 1297 0089 3B       		.uleb128 0x3b
 1298 008a 05       		.uleb128 0x5
 1299 008b 49       		.uleb128 0x49
 1300 008c 13       		.uleb128 0x13
 1301 008d 38       		.uleb128 0x38
 1302 008e 0A       		.uleb128 0xa
 1303 008f 00       		.byte	0
 1304 0090 00       		.byte	0
 1305 0091 0C       		.uleb128 0xc
 1306 0092 13       		.uleb128 0x13
 1307 0093 01       		.byte	0x1
ARM GAS  /var/folders/dt/0wfd0knj7gs46m8vwfzktm600000gn/T//ccwB9oFb.s 			page 24


 1308 0094 03       		.uleb128 0x3
 1309 0095 0E       		.uleb128 0xe
 1310 0096 0B       		.uleb128 0xb
 1311 0097 0B       		.uleb128 0xb
 1312 0098 3A       		.uleb128 0x3a
 1313 0099 0B       		.uleb128 0xb
 1314 009a 3B       		.uleb128 0x3b
 1315 009b 05       		.uleb128 0x5
 1316 009c 01       		.uleb128 0x1
 1317 009d 13       		.uleb128 0x13
 1318 009e 00       		.byte	0
 1319 009f 00       		.byte	0
 1320 00a0 0D       		.uleb128 0xd
 1321 00a1 35       		.uleb128 0x35
 1322 00a2 00       		.byte	0
 1323 00a3 49       		.uleb128 0x49
 1324 00a4 13       		.uleb128 0x13
 1325 00a5 00       		.byte	0
 1326 00a6 00       		.byte	0
 1327 00a7 0E       		.uleb128 0xe
 1328 00a8 17       		.uleb128 0x17
 1329 00a9 01       		.byte	0x1
 1330 00aa 0B       		.uleb128 0xb
 1331 00ab 0B       		.uleb128 0xb
 1332 00ac 3A       		.uleb128 0x3a
 1333 00ad 0B       		.uleb128 0xb
 1334 00ae 3B       		.uleb128 0x3b
 1335 00af 0B       		.uleb128 0xb
 1336 00b0 01       		.uleb128 0x1
 1337 00b1 13       		.uleb128 0x13
 1338 00b2 00       		.byte	0
 1339 00b3 00       		.byte	0
 1340 00b4 0F       		.uleb128 0xf
 1341 00b5 0D       		.uleb128 0xd
 1342 00b6 00       		.byte	0
 1343 00b7 03       		.uleb128 0x3
 1344 00b8 0E       		.uleb128 0xe
 1345 00b9 3A       		.uleb128 0x3a
 1346 00ba 0B       		.uleb128 0xb
 1347 00bb 3B       		.uleb128 0x3b
 1348 00bc 0B       		.uleb128 0xb
 1349 00bd 49       		.uleb128 0x49
 1350 00be 13       		.uleb128 0x13
 1351 00bf 00       		.byte	0
 1352 00c0 00       		.byte	0
 1353 00c1 10       		.uleb128 0x10
 1354 00c2 26       		.uleb128 0x26
 1355 00c3 00       		.byte	0
 1356 00c4 49       		.uleb128 0x49
 1357 00c5 13       		.uleb128 0x13
 1358 00c6 00       		.byte	0
 1359 00c7 00       		.byte	0
 1360 00c8 11       		.uleb128 0x11
 1361 00c9 01       		.uleb128 0x1
 1362 00ca 01       		.byte	0x1
 1363 00cb 49       		.uleb128 0x49
 1364 00cc 13       		.uleb128 0x13
ARM GAS  /var/folders/dt/0wfd0knj7gs46m8vwfzktm600000gn/T//ccwB9oFb.s 			page 25


 1365 00cd 01       		.uleb128 0x1
 1366 00ce 13       		.uleb128 0x13
 1367 00cf 00       		.byte	0
 1368 00d0 00       		.byte	0
 1369 00d1 12       		.uleb128 0x12
 1370 00d2 21       		.uleb128 0x21
 1371 00d3 00       		.byte	0
 1372 00d4 49       		.uleb128 0x49
 1373 00d5 13       		.uleb128 0x13
 1374 00d6 2F       		.uleb128 0x2f
 1375 00d7 0B       		.uleb128 0xb
 1376 00d8 00       		.byte	0
 1377 00d9 00       		.byte	0
 1378 00da 13       		.uleb128 0x13
 1379 00db 2E       		.uleb128 0x2e
 1380 00dc 01       		.byte	0x1
 1381 00dd 3F       		.uleb128 0x3f
 1382 00de 0C       		.uleb128 0xc
 1383 00df 03       		.uleb128 0x3
 1384 00e0 0E       		.uleb128 0xe
 1385 00e1 3A       		.uleb128 0x3a
 1386 00e2 0B       		.uleb128 0xb
 1387 00e3 3B       		.uleb128 0x3b
 1388 00e4 0B       		.uleb128 0xb
 1389 00e5 27       		.uleb128 0x27
 1390 00e6 0C       		.uleb128 0xc
 1391 00e7 49       		.uleb128 0x49
 1392 00e8 13       		.uleb128 0x13
 1393 00e9 11       		.uleb128 0x11
 1394 00ea 01       		.uleb128 0x1
 1395 00eb 12       		.uleb128 0x12
 1396 00ec 01       		.uleb128 0x1
 1397 00ed 40       		.uleb128 0x40
 1398 00ee 06       		.uleb128 0x6
 1399 00ef 9742     		.uleb128 0x2117
 1400 00f1 0C       		.uleb128 0xc
 1401 00f2 01       		.uleb128 0x1
 1402 00f3 13       		.uleb128 0x13
 1403 00f4 00       		.byte	0
 1404 00f5 00       		.byte	0
 1405 00f6 14       		.uleb128 0x14
 1406 00f7 34       		.uleb128 0x34
 1407 00f8 00       		.byte	0
 1408 00f9 03       		.uleb128 0x3
 1409 00fa 08       		.uleb128 0x8
 1410 00fb 3A       		.uleb128 0x3a
 1411 00fc 0B       		.uleb128 0xb
 1412 00fd 3B       		.uleb128 0x3b
 1413 00fe 0B       		.uleb128 0xb
 1414 00ff 49       		.uleb128 0x49
 1415 0100 13       		.uleb128 0x13
 1416 0101 02       		.uleb128 0x2
 1417 0102 0A       		.uleb128 0xa
 1418 0103 00       		.byte	0
 1419 0104 00       		.byte	0
 1420 0105 15       		.uleb128 0x15
 1421 0106 0B       		.uleb128 0xb
ARM GAS  /var/folders/dt/0wfd0knj7gs46m8vwfzktm600000gn/T//ccwB9oFb.s 			page 26


 1422 0107 01       		.byte	0x1
 1423 0108 11       		.uleb128 0x11
 1424 0109 01       		.uleb128 0x1
 1425 010a 12       		.uleb128 0x12
 1426 010b 01       		.uleb128 0x1
 1427 010c 01       		.uleb128 0x1
 1428 010d 13       		.uleb128 0x13
 1429 010e 00       		.byte	0
 1430 010f 00       		.byte	0
 1431 0110 16       		.uleb128 0x16
 1432 0111 34       		.uleb128 0x34
 1433 0112 00       		.byte	0
 1434 0113 03       		.uleb128 0x3
 1435 0114 08       		.uleb128 0x8
 1436 0115 3A       		.uleb128 0x3a
 1437 0116 0B       		.uleb128 0xb
 1438 0117 3B       		.uleb128 0x3b
 1439 0118 0B       		.uleb128 0xb
 1440 0119 49       		.uleb128 0x49
 1441 011a 13       		.uleb128 0x13
 1442 011b 02       		.uleb128 0x2
 1443 011c 06       		.uleb128 0x6
 1444 011d 00       		.byte	0
 1445 011e 00       		.byte	0
 1446 011f 17       		.uleb128 0x17
 1447 0120 898201   		.uleb128 0x4109
 1448 0123 00       		.byte	0
 1449 0124 11       		.uleb128 0x11
 1450 0125 01       		.uleb128 0x1
 1451 0126 31       		.uleb128 0x31
 1452 0127 13       		.uleb128 0x13
 1453 0128 00       		.byte	0
 1454 0129 00       		.byte	0
 1455 012a 18       		.uleb128 0x18
 1456 012b 05       		.uleb128 0x5
 1457 012c 00       		.byte	0
 1458 012d 03       		.uleb128 0x3
 1459 012e 08       		.uleb128 0x8
 1460 012f 3A       		.uleb128 0x3a
 1461 0130 0B       		.uleb128 0xb
 1462 0131 3B       		.uleb128 0x3b
 1463 0132 0B       		.uleb128 0xb
 1464 0133 49       		.uleb128 0x49
 1465 0134 13       		.uleb128 0x13
 1466 0135 02       		.uleb128 0x2
 1467 0136 06       		.uleb128 0x6
 1468 0137 00       		.byte	0
 1469 0138 00       		.byte	0
 1470 0139 19       		.uleb128 0x19
 1471 013a 898201   		.uleb128 0x4109
 1472 013d 01       		.byte	0x1
 1473 013e 11       		.uleb128 0x11
 1474 013f 01       		.uleb128 0x1
 1475 0140 31       		.uleb128 0x31
 1476 0141 13       		.uleb128 0x13
 1477 0142 01       		.uleb128 0x1
 1478 0143 13       		.uleb128 0x13
ARM GAS  /var/folders/dt/0wfd0knj7gs46m8vwfzktm600000gn/T//ccwB9oFb.s 			page 27


 1479 0144 00       		.byte	0
 1480 0145 00       		.byte	0
 1481 0146 1A       		.uleb128 0x1a
 1482 0147 8A8201   		.uleb128 0x410a
 1483 014a 00       		.byte	0
 1484 014b 02       		.uleb128 0x2
 1485 014c 0A       		.uleb128 0xa
 1486 014d 9142     		.uleb128 0x2111
 1487 014f 0A       		.uleb128 0xa
 1488 0150 00       		.byte	0
 1489 0151 00       		.byte	0
 1490 0152 1B       		.uleb128 0x1b
 1491 0153 898201   		.uleb128 0x4109
 1492 0156 01       		.byte	0x1
 1493 0157 11       		.uleb128 0x11
 1494 0158 01       		.uleb128 0x1
 1495 0159 31       		.uleb128 0x31
 1496 015a 13       		.uleb128 0x13
 1497 015b 00       		.byte	0
 1498 015c 00       		.byte	0
 1499 015d 1C       		.uleb128 0x1c
 1500 015e 34       		.uleb128 0x34
 1501 015f 00       		.byte	0
 1502 0160 03       		.uleb128 0x3
 1503 0161 0E       		.uleb128 0xe
 1504 0162 3A       		.uleb128 0x3a
 1505 0163 0B       		.uleb128 0xb
 1506 0164 3B       		.uleb128 0x3b
 1507 0165 0B       		.uleb128 0xb
 1508 0166 49       		.uleb128 0x49
 1509 0167 13       		.uleb128 0x13
 1510 0168 3F       		.uleb128 0x3f
 1511 0169 0C       		.uleb128 0xc
 1512 016a 3C       		.uleb128 0x3c
 1513 016b 0C       		.uleb128 0xc
 1514 016c 00       		.byte	0
 1515 016d 00       		.byte	0
 1516 016e 1D       		.uleb128 0x1d
 1517 016f 34       		.uleb128 0x34
 1518 0170 00       		.byte	0
 1519 0171 03       		.uleb128 0x3
 1520 0172 0E       		.uleb128 0xe
 1521 0173 3A       		.uleb128 0x3a
 1522 0174 0B       		.uleb128 0xb
 1523 0175 3B       		.uleb128 0x3b
 1524 0176 0B       		.uleb128 0xb
 1525 0177 49       		.uleb128 0x49
 1526 0178 13       		.uleb128 0x13
 1527 0179 3F       		.uleb128 0x3f
 1528 017a 0C       		.uleb128 0xc
 1529 017b 02       		.uleb128 0x2
 1530 017c 0A       		.uleb128 0xa
 1531 017d 00       		.byte	0
 1532 017e 00       		.byte	0
 1533 017f 1E       		.uleb128 0x1e
 1534 0180 2E       		.uleb128 0x2e
 1535 0181 00       		.byte	0
ARM GAS  /var/folders/dt/0wfd0knj7gs46m8vwfzktm600000gn/T//ccwB9oFb.s 			page 28


 1536 0182 3F       		.uleb128 0x3f
 1537 0183 0C       		.uleb128 0xc
 1538 0184 03       		.uleb128 0x3
 1539 0185 0E       		.uleb128 0xe
 1540 0186 3A       		.uleb128 0x3a
 1541 0187 0B       		.uleb128 0xb
 1542 0188 3B       		.uleb128 0x3b
 1543 0189 0B       		.uleb128 0xb
 1544 018a 27       		.uleb128 0x27
 1545 018b 0C       		.uleb128 0xc
 1546 018c 3C       		.uleb128 0x3c
 1547 018d 0C       		.uleb128 0xc
 1548 018e 00       		.byte	0
 1549 018f 00       		.byte	0
 1550 0190 1F       		.uleb128 0x1f
 1551 0191 2E       		.uleb128 0x2e
 1552 0192 01       		.byte	0x1
 1553 0193 3F       		.uleb128 0x3f
 1554 0194 0C       		.uleb128 0xc
 1555 0195 03       		.uleb128 0x3
 1556 0196 0E       		.uleb128 0xe
 1557 0197 3A       		.uleb128 0x3a
 1558 0198 0B       		.uleb128 0xb
 1559 0199 3B       		.uleb128 0x3b
 1560 019a 0B       		.uleb128 0xb
 1561 019b 27       		.uleb128 0x27
 1562 019c 0C       		.uleb128 0xc
 1563 019d 3C       		.uleb128 0x3c
 1564 019e 0C       		.uleb128 0xc
 1565 019f 01       		.uleb128 0x1
 1566 01a0 13       		.uleb128 0x13
 1567 01a1 00       		.byte	0
 1568 01a2 00       		.byte	0
 1569 01a3 20       		.uleb128 0x20
 1570 01a4 05       		.uleb128 0x5
 1571 01a5 00       		.byte	0
 1572 01a6 49       		.uleb128 0x49
 1573 01a7 13       		.uleb128 0x13
 1574 01a8 00       		.byte	0
 1575 01a9 00       		.byte	0
 1576 01aa 00       		.byte	0
 1577              		.section	.debug_loc,"",%progbits
 1578              	.Ldebug_loc0:
 1579              	.LLST0:
 1580 0000 00000000 		.4byte	.LFB7
 1581 0004 02000000 		.4byte	.LCFI0
 1582 0008 0200     		.2byte	0x2
 1583 000a 7D       		.byte	0x7d
 1584 000b 00       		.sleb128 0
 1585 000c 02000000 		.4byte	.LCFI0
 1586 0010 2E000000 		.4byte	.LFE7
 1587 0014 0200     		.2byte	0x2
 1588 0016 7D       		.byte	0x7d
 1589 0017 08       		.sleb128 8
 1590 0018 00000000 		.4byte	0
 1591 001c 00000000 		.4byte	0
 1592              	.LLST1:
ARM GAS  /var/folders/dt/0wfd0knj7gs46m8vwfzktm600000gn/T//ccwB9oFb.s 			page 29


 1593 0020 08000000 		.4byte	.LVL1
 1594 0024 0B000000 		.4byte	.LVL2-1
 1595 0028 0100     		.2byte	0x1
 1596 002a 53       		.byte	0x53
 1597 002b 00000000 		.4byte	0
 1598 002f 00000000 		.4byte	0
 1599              	.LLST2:
 1600 0033 2A000000 		.4byte	.LVL6
 1601 0037 2E000000 		.4byte	.LFE7
 1602 003b 0100     		.2byte	0x1
 1603 003d 53       		.byte	0x53
 1604 003e 00000000 		.4byte	0
 1605 0042 00000000 		.4byte	0
 1606              	.LLST3:
 1607 0046 00000000 		.4byte	.LFB8
 1608 004a 02000000 		.4byte	.LCFI1
 1609 004e 0200     		.2byte	0x2
 1610 0050 7D       		.byte	0x7d
 1611 0051 00       		.sleb128 0
 1612 0052 02000000 		.4byte	.LCFI1
 1613 0056 50000000 		.4byte	.LFE8
 1614 005a 0200     		.2byte	0x2
 1615 005c 7D       		.byte	0x7d
 1616 005d 10       		.sleb128 16
 1617 005e 00000000 		.4byte	0
 1618 0062 00000000 		.4byte	0
 1619              	.LLST4:
 1620 0066 00000000 		.4byte	.LVL7
 1621 006a 0D000000 		.4byte	.LVL10-1
 1622 006e 0100     		.2byte	0x1
 1623 0070 50       		.byte	0x50
 1624 0071 0D000000 		.4byte	.LVL10-1
 1625 0075 50000000 		.4byte	.LFE8
 1626 0079 0100     		.2byte	0x1
 1627 007b 55       		.byte	0x55
 1628 007c 00000000 		.4byte	0
 1629 0080 00000000 		.4byte	0
 1630              	.LLST5:
 1631 0084 10000000 		.4byte	.LVL11
 1632 0088 46000000 		.4byte	.LVL18
 1633 008c 0100     		.2byte	0x1
 1634 008e 54       		.byte	0x54
 1635 008f 46000000 		.4byte	.LVL18
 1636 0093 50000000 		.4byte	.LFE8
 1637 0097 0200     		.2byte	0x2
 1638 0099 75       		.byte	0x75
 1639 009a 10       		.sleb128 16
 1640 009b 00000000 		.4byte	0
 1641 009f 00000000 		.4byte	0
 1642              	.LLST6:
 1643 00a3 0A000000 		.4byte	.LVL9
 1644 00a7 0D000000 		.4byte	.LVL10-1
 1645 00ab 0100     		.2byte	0x1
 1646 00ad 53       		.byte	0x53
 1647 00ae 00000000 		.4byte	0
 1648 00b2 00000000 		.4byte	0
 1649              	.LLST7:
ARM GAS  /var/folders/dt/0wfd0knj7gs46m8vwfzktm600000gn/T//ccwB9oFb.s 			page 30


 1650 00b6 2E000000 		.4byte	.LVL15
 1651 00ba 33000000 		.4byte	.LVL16-1
 1652 00be 0100     		.2byte	0x1
 1653 00c0 53       		.byte	0x53
 1654 00c1 00000000 		.4byte	0
 1655 00c5 00000000 		.4byte	0
 1656              		.section	.debug_aranges,"",%progbits
 1657 0000 24000000 		.4byte	0x24
 1658 0004 0200     		.2byte	0x2
 1659 0006 00000000 		.4byte	.Ldebug_info0
 1660 000a 04       		.byte	0x4
 1661 000b 00       		.byte	0
 1662 000c 0000     		.2byte	0
 1663 000e 0000     		.2byte	0
 1664 0010 00000000 		.4byte	.LFB7
 1665 0014 2E000000 		.4byte	.LFE7-.LFB7
 1666 0018 00000000 		.4byte	.LFB8
 1667 001c 50000000 		.4byte	.LFE8-.LFB8
 1668 0020 00000000 		.4byte	0
 1669 0024 00000000 		.4byte	0
 1670              		.section	.debug_ranges,"",%progbits
 1671              	.Ldebug_ranges0:
 1672 0000 00000000 		.4byte	.LFB7
 1673 0004 2E000000 		.4byte	.LFE7
 1674 0008 00000000 		.4byte	.LFB8
 1675 000c 50000000 		.4byte	.LFE8
 1676 0010 00000000 		.4byte	0
 1677 0014 00000000 		.4byte	0
 1678              		.section	.debug_line,"",%progbits
 1679              	.Ldebug_line0:
 1680 0000 01020000 		.section	.debug_str,"MS",%progbits,1
 1680      0200C501 
 1680      00000201 
 1680      FB0E0D00 
 1680      01010101 
 1681              	.LASF77:
 1682 0000 63665F6F 		.ascii	"cf_off_older\000"
 1682      66665F6F 
 1682      6C646572 
 1682      00
 1683              	.LASF38:
 1684 000d 705F6D73 		.ascii	"p_msg\000"
 1684      6700
 1685              	.LASF2:
 1686 0013 73697A65 		.ascii	"size_t\000"
 1686      5F7400
 1687              	.LASF62:
 1688 001a 7264796D 		.ascii	"rdymsg\000"
 1688      736700
 1689              	.LASF13:
 1690 0021 75696E74 		.ascii	"uint64_t\000"
 1690      36345F74 
 1690      00
 1691              	.LASF14:
 1692 002a 6C6F6E67 		.ascii	"long long unsigned int\000"
 1692      206C6F6E 
 1692      6720756E 
ARM GAS  /var/folders/dt/0wfd0knj7gs46m8vwfzktm600000gn/T//ccwB9oFb.s 			page 31


 1692      7369676E 
 1692      65642069 
 1693              	.LASF73:
 1694 0041 63685F74 		.ascii	"ch_threadsize\000"
 1694      68726561 
 1694      6473697A 
 1694      6500
 1695              	.LASF63:
 1696 004f 65786974 		.ascii	"exitcode\000"
 1696      636F6465 
 1696      00
 1697              	.LASF93:
 1698 0058 63684462 		.ascii	"chDbgPanic\000"
 1698      6750616E 
 1698      696300
 1699              	.LASF86:
 1700 0063 63685265 		.ascii	"chRegFirstThread\000"
 1700      67466972 
 1700      73745468 
 1700      72656164 
 1700      00
 1701              	.LASF26:
 1702 0074 705F7072 		.ascii	"p_prio\000"
 1702      696F00
 1703              	.LASF80:
 1704 007b 63665F6F 		.ascii	"cf_off_state\000"
 1704      66665F73 
 1704      74617465 
 1704      00
 1705              	.LASF12:
 1706 0088 6C6F6E67 		.ascii	"long long int\000"
 1706      206C6F6E 
 1706      6720696E 
 1706      7400
 1707              	.LASF1:
 1708 0096 7369676E 		.ascii	"signed char\000"
 1708      65642063 
 1708      68617200 
 1709              	.LASF79:
 1710 00a2 63665F6F 		.ascii	"cf_off_stklimit\000"
 1710      66665F73 
 1710      746B6C69 
 1710      6D697400 
 1711              	.LASF81:
 1712 00b2 63665F6F 		.ascii	"cf_off_flags\000"
 1712      66665F66 
 1712      6C616773 
 1712      00
 1713              	.LASF42:
 1714 00bf 705F6D70 		.ascii	"p_mpool\000"
 1714      6F6F6C00 
 1715              	.LASF59:
 1716 00c7 6D5F7175 		.ascii	"m_queue\000"
 1716      65756500 
 1717              	.LASF67:
 1718 00cf 63685F69 		.ascii	"ch_identifier\000"
 1718      64656E74 
ARM GAS  /var/folders/dt/0wfd0knj7gs46m8vwfzktm600000gn/T//ccwB9oFb.s 			page 32


 1718      69666965 
 1718      7200
 1719              	.LASF9:
 1720 00dd 6C6F6E67 		.ascii	"long int\000"
 1720      20696E74 
 1720      00
 1721              	.LASF16:
 1722 00e6 74737461 		.ascii	"tstate_t\000"
 1722      74655F74 
 1722      00
 1723              	.LASF6:
 1724 00ef 75696E74 		.ascii	"uint16_t\000"
 1724      31365F74 
 1724      00
 1725              	.LASF85:
 1726 00f8 63686465 		.ascii	"chdebug_t\000"
 1726      6275675F 
 1726      7400
 1727              	.LASF28:
 1728 0102 705F6E65 		.ascii	"p_newer\000"
 1728      77657200 
 1729              	.LASF53:
 1730 010a 725F6E65 		.ascii	"r_newer\000"
 1730      77657200 
 1731              	.LASF45:
 1732 0112 72656761 		.ascii	"regarm_t\000"
 1732      726D5F74 
 1732      00
 1733              	.LASF22:
 1734 011b 636E745F 		.ascii	"cnt_t\000"
 1734      7400
 1735              	.LASF31:
 1736 0121 705F7374 		.ascii	"p_stklimit\000"
 1736      6B6C696D 
 1736      697400
 1737              	.LASF0:
 1738 012c 756E7369 		.ascii	"unsigned int\000"
 1738      676E6564 
 1738      20696E74 
 1738      00
 1739              	.LASF11:
 1740 0139 6C6F6E67 		.ascii	"long unsigned int\000"
 1740      20756E73 
 1740      69676E65 
 1740      6420696E 
 1740      7400
 1741              	.LASF89:
 1742 014b 63685F64 		.ascii	"ch_debug\000"
 1742      65627567 
 1742      00
 1743              	.LASF48:
 1744 0154 636F6E74 		.ascii	"context\000"
 1744      65787400 
 1745              	.LASF7:
 1746 015c 73686F72 		.ascii	"short unsigned int\000"
 1746      7420756E 
 1746      7369676E 
ARM GAS  /var/folders/dt/0wfd0knj7gs46m8vwfzktm600000gn/T//ccwB9oFb.s 			page 33


 1746      65642069 
 1746      6E7400
 1747              	.LASF19:
 1748 016f 6D73675F 		.ascii	"msg_t\000"
 1748      7400
 1749              	.LASF15:
 1750 0175 746D6F64 		.ascii	"tmode_t\000"
 1750      655F7400 
 1751              	.LASF44:
 1752 017d 54687265 		.ascii	"ThreadsList\000"
 1752      6164734C 
 1752      69737400 
 1753              	.LASF20:
 1754 0189 6576656E 		.ascii	"eventmask_t\000"
 1754      746D6173 
 1754      6B5F7400 
 1755              	.LASF58:
 1756 0195 4D757465 		.ascii	"Mutex\000"
 1756      7800
 1757              	.LASF46:
 1758 019b 73746B61 		.ascii	"stkalign_t\000"
 1758      6C69676E 
 1758      5F7400
 1759              	.LASF68:
 1760 01a6 63685F7A 		.ascii	"ch_zero\000"
 1760      65726F00 
 1761              	.LASF82:
 1762 01ae 63665F6F 		.ascii	"cf_off_refs\000"
 1762      66665F72 
 1762      65667300 
 1763              	.LASF49:
 1764 01ba 73697A65 		.ascii	"sizetype\000"
 1764      74797065 
 1764      00
 1765              	.LASF90:
 1766 01c3 6462675F 		.ascii	"dbg_check_lock\000"
 1766      63686563 
 1766      6B5F6C6F 
 1766      636B00
 1767              	.LASF72:
 1768 01d2 63685F74 		.ascii	"ch_timesize\000"
 1768      696D6573 
 1768      697A6500 
 1769              	.LASF78:
 1770 01de 63665F6F 		.ascii	"cf_off_name\000"
 1770      66665F6E 
 1770      616D6500 
 1771              	.LASF29:
 1772 01ea 705F6F6C 		.ascii	"p_older\000"
 1772      64657200 
 1773              	.LASF52:
 1774 01f2 725F6374 		.ascii	"r_ctx\000"
 1774      7800
 1775              	.LASF43:
 1776 01f8 54687265 		.ascii	"ThreadsQueue\000"
 1776      61647351 
 1776      75657565 
ARM GAS  /var/folders/dt/0wfd0knj7gs46m8vwfzktm600000gn/T//ccwB9oFb.s 			page 34


 1776      00
 1777              	.LASF69:
 1778 0205 63685F73 		.ascii	"ch_size\000"
 1778      697A6500 
 1779              	.LASF94:
 1780 020d 474E5520 		.ascii	"GNU C 4.7.2\000"
 1780      4320342E 
 1780      372E3200 
 1781              	.LASF56:
 1782 0219 725F6375 		.ascii	"r_current\000"
 1782      7272656E 
 1782      7400
 1783              	.LASF54:
 1784 0223 725F6F6C 		.ascii	"r_older\000"
 1784      64657200 
 1785              	.LASF91:
 1786 022b 6462675F 		.ascii	"dbg_check_unlock\000"
 1786      63686563 
 1786      6B5F756E 
 1786      6C6F636B 
 1786      00
 1787              	.LASF17:
 1788 023c 74726566 		.ascii	"trefs_t\000"
 1788      735F7400 
 1789              	.LASF71:
 1790 0244 63685F70 		.ascii	"ch_ptrsize\000"
 1790      74727369 
 1790      7A6500
 1791              	.LASF25:
 1792 024f 705F7072 		.ascii	"p_prev\000"
 1792      657600
 1793              	.LASF18:
 1794 0256 74707269 		.ascii	"tprio_t\000"
 1794      6F5F7400 
 1795              	.LASF8:
 1796 025e 696E7433 		.ascii	"int32_t\000"
 1796      325F7400 
 1797              	.LASF4:
 1798 0266 756E7369 		.ascii	"unsigned char\000"
 1798      676E6564 
 1798      20636861 
 1798      7200
 1799              	.LASF40:
 1800 0274 705F6D74 		.ascii	"p_mtxlist\000"
 1800      786C6973 
 1800      7400
 1801              	.LASF5:
 1802 027e 73686F72 		.ascii	"short int\000"
 1802      7420696E 
 1802      7400
 1803              	.LASF32:
 1804 0288 705F7374 		.ascii	"p_state\000"
 1804      61746500 
 1805              	.LASF84:
 1806 0290 63665F6F 		.ascii	"cf_off_time\000"
 1806      66665F74 
 1806      696D6500 
ARM GAS  /var/folders/dt/0wfd0knj7gs46m8vwfzktm600000gn/T//ccwB9oFb.s 			page 35


 1807              	.LASF51:
 1808 029c 725F7072 		.ascii	"r_prio\000"
 1808      696F00
 1809              	.LASF65:
 1810 02a3 65776D61 		.ascii	"ewmask\000"
 1810      736B00
 1811              	.LASF24:
 1812 02aa 705F6E65 		.ascii	"p_next\000"
 1812      787400
 1813              	.LASF83:
 1814 02b1 63665F6F 		.ascii	"cf_off_preempt\000"
 1814      66665F70 
 1814      7265656D 
 1814      707400
 1815              	.LASF33:
 1816 02c0 705F666C 		.ascii	"p_flags\000"
 1816      61677300 
 1817              	.LASF92:
 1818 02c8 63685468 		.ascii	"chThdRelease\000"
 1818      6452656C 
 1818      65617365 
 1818      00
 1819              	.LASF23:
 1820 02d5 54687265 		.ascii	"Thread\000"
 1820      616400
 1821              	.LASF76:
 1822 02dc 63665F6F 		.ascii	"cf_off_newer\000"
 1822      66665F6E 
 1822      65776572 
 1822      00
 1823              	.LASF39:
 1824 02e9 705F6570 		.ascii	"p_epending\000"
 1824      656E6469 
 1824      6E6700
 1825              	.LASF10:
 1826 02f4 75696E74 		.ascii	"uint32_t\000"
 1826      33325F74 
 1826      00
 1827              	.LASF74:
 1828 02fd 63665F6F 		.ascii	"cf_off_prio\000"
 1828      66665F70 
 1828      72696F00 
 1829              	.LASF50:
 1830 0309 725F7175 		.ascii	"r_queue\000"
 1830      65756500 
 1831              	.LASF66:
 1832 0311 63686172 		.ascii	"char\000"
 1832      00
 1833              	.LASF87:
 1834 0316 63685265 		.ascii	"chRegNextThread\000"
 1834      674E6578 
 1834      74546872 
 1834      65616400 
 1835              	.LASF61:
 1836 0326 6D5F6E65 		.ascii	"m_next\000"
 1836      787400
 1837              	.LASF21:
ARM GAS  /var/folders/dt/0wfd0knj7gs46m8vwfzktm600000gn/T//ccwB9oFb.s 			page 36


 1838 032d 73797374 		.ascii	"systime_t\000"
 1838      696D655F 
 1838      7400
 1839              	.LASF41:
 1840 0337 705F7265 		.ascii	"p_realprio\000"
 1840      616C7072 
 1840      696F00
 1841              	.LASF96:
 1842 0342 2F746D70 		.ascii	"/tmp/mlab-chibios/demos/STM32F107-serialshell\000"
 1842      2F6D6C61 
 1842      622D6368 
 1842      6962696F 
 1842      732F6465 
 1843              	.LASF35:
 1844 0370 705F7469 		.ascii	"p_time\000"
 1844      6D6500
 1845              	.LASF47:
 1846 0377 696E7463 		.ascii	"intctx\000"
 1846      747800
 1847              	.LASF37:
 1848 037e 705F6D73 		.ascii	"p_msgqueue\000"
 1848      67717565 
 1848      756500
 1849              	.LASF95:
 1850 0389 2E2E2F2E 		.ascii	"../../os/kernel/src/chregistry.c\000"
 1850      2E2F6F73 
 1850      2F6B6572 
 1850      6E656C2F 
 1850      7372632F 
 1851              	.LASF75:
 1852 03aa 63665F6F 		.ascii	"cf_off_ctx\000"
 1852      66665F63 
 1852      747800
 1853              	.LASF34:
 1854 03b5 705F7265 		.ascii	"p_refs\000"
 1854      667300
 1855              	.LASF57:
 1856 03bc 52656164 		.ascii	"ReadyList\000"
 1856      794C6973 
 1856      7400
 1857              	.LASF88:
 1858 03c6 726C6973 		.ascii	"rlist\000"
 1858      7400
 1859              	.LASF3:
 1860 03cc 75696E74 		.ascii	"uint8_t\000"
 1860      385F7400 
 1861              	.LASF64:
 1862 03d4 77746F62 		.ascii	"wtobjp\000"
 1862      6A7000
 1863              	.LASF30:
 1864 03db 705F6E61 		.ascii	"p_name\000"
 1864      6D6500
 1865              	.LASF70:
 1866 03e2 63685F76 		.ascii	"ch_version\000"
 1866      65727369 
 1866      6F6E00
 1867              	.LASF55:
ARM GAS  /var/folders/dt/0wfd0knj7gs46m8vwfzktm600000gn/T//ccwB9oFb.s 			page 37


 1868 03ed 725F7072 		.ascii	"r_preempt\000"
 1868      65656D70 
 1868      7400
 1869              	.LASF60:
 1870 03f7 6D5F6F77 		.ascii	"m_owner\000"
 1870      6E657200 
 1871              	.LASF27:
 1872 03ff 705F6374 		.ascii	"p_ctx\000"
 1872      7800
 1873              	.LASF36:
 1874 0405 705F7761 		.ascii	"p_waiting\000"
 1874      6974696E 
 1874      6700
 1875              		.ident	"GCC: (GNU) 4.7.2"
ARM GAS  /var/folders/dt/0wfd0knj7gs46m8vwfzktm600000gn/T//ccwB9oFb.s 			page 38


DEFINED SYMBOLS
                            *ABS*:0000000000000000 chregistry.c
/var/folders/dt/0wfd0knj7gs46m8vwfzktm600000gn/T//ccwB9oFb.s:19     .text.chRegFirstThread:0000000000000000 $t
/var/folders/dt/0wfd0knj7gs46m8vwfzktm600000gn/T//ccwB9oFb.s:25     .text.chRegFirstThread:0000000000000000 chRegFirstThread
/var/folders/dt/0wfd0knj7gs46m8vwfzktm600000gn/T//ccwB9oFb.s:77     .text.chRegNextThread:0000000000000000 $t
/var/folders/dt/0wfd0knj7gs46m8vwfzktm600000gn/T//ccwB9oFb.s:83     .text.chRegNextThread:0000000000000000 chRegNextThread
/var/folders/dt/0wfd0knj7gs46m8vwfzktm600000gn/T//ccwB9oFb.s:162    .text.chRegNextThread:0000000000000048 $d
/var/folders/dt/0wfd0knj7gs46m8vwfzktm600000gn/T//ccwB9oFb.s:172    .rodata.ch_debug:0000000000000000 ch_debug
/var/folders/dt/0wfd0knj7gs46m8vwfzktm600000gn/T//ccwB9oFb.s:169    .rodata.ch_debug:0000000000000000 $d
/var/folders/dt/0wfd0knj7gs46m8vwfzktm600000gn/T//ccwB9oFb.s:192    .rodata.str1.4:0000000000000000 $d
                     .debug_frame:0000000000000010 $d

UNDEFINED SYMBOLS
dbg_check_lock
rlist
dbg_check_unlock
chThdRelease
chDbgPanic
