ARM GAS  /var/folders/dt/0wfd0knj7gs46m8vwfzktm600000gn/T//ccmnLkkv.s 			page 1


   1              		.syntax unified
   2              		.cpu cortex-m3
   3              		.fpu softvfp
   4              		.eabi_attribute 20, 1
   5              		.eabi_attribute 21, 1
   6              		.eabi_attribute 23, 3
   7              		.eabi_attribute 24, 1
   8              		.eabi_attribute 25, 1
   9              		.eabi_attribute 26, 1
  10              		.eabi_attribute 30, 2
  11              		.eabi_attribute 34, 1
  12              		.eabi_attribute 18, 4
  13              		.thumb
  14              		.file	"chschd.c"
  15              		.text
  16              	.Ltext0:
  17              		.cfi_sections	.debug_frame
  18              		.section	.text._scheduler_init,"ax",%progbits
  19              		.align	2
  20              		.p2align 4,,15
  21              		.global	_scheduler_init
  22              		.thumb
  23              		.thumb_func
  24              		.type	_scheduler_init, %function
  25              	_scheduler_init:
  26              	.LFB7:
  27              		.file 1 "../../os/kernel/src/chschd.c"
  28              		.loc 1 55 0
  29              		.cfi_startproc
  30              		@ args = 0, pretend = 0, frame = 0
  31              		@ frame_needed = 0, uses_anonymous_args = 0
  32              		@ link register save eliminated.
  33              		.loc 1 57 0
  34 0000 40F20003 		movw	r3, #:lower16:.LANCHOR0
  35 0004 C0F20003 		movt	r3, #:upper16:.LANCHOR0
  36              		.loc 1 58 0
  37 0008 0022     		movs	r2, #0
  38 000a 9A60     		str	r2, [r3, #8]
  39              		.loc 1 60 0
  40 000c 1422     		movs	r2, #20
  41              		.loc 1 57 0
  42 000e 5B60     		str	r3, [r3, #4]
  43 0010 1B60     		str	r3, [r3, #0]
  44              		.loc 1 60 0
  45 0012 9A61     		str	r2, [r3, #24]
  46              		.loc 1 63 0
  47 0014 5B61     		str	r3, [r3, #20]
  48 0016 1B61     		str	r3, [r3, #16]
  49 0018 7047     		bx	lr
  50              		.cfi_endproc
  51              	.LFE7:
  52              		.size	_scheduler_init, .-_scheduler_init
  53 001a 00BFAFF3 		.section	.text.chSchReadyI,"ax",%progbits
  53      0080
  54              		.align	2
  55              		.p2align 4,,15
  56              		.global	chSchReadyI
ARM GAS  /var/folders/dt/0wfd0knj7gs46m8vwfzktm600000gn/T//ccmnLkkv.s 			page 2


  57              		.thumb
  58              		.thumb_func
  59              		.type	chSchReadyI, %function
  60              	chSchReadyI:
  61              	.LFB8:
  62              		.loc 1 82 0
  63              		.cfi_startproc
  64              		@ args = 0, pretend = 0, frame = 0
  65              		@ frame_needed = 0, uses_anonymous_args = 0
  66              	.LVL0:
  67 0000 10B5     		push	{r4, lr}
  68              	.LCFI0:
  69              		.cfi_def_cfa_offset 8
  70              		.cfi_offset 4, -8
  71              		.cfi_offset 14, -4
  72              		.loc 1 86 0
  73 0002 90F82030 		ldrb	r3, [r0, #32]	@ zero_extendqisi2
  74              		.loc 1 82 0
  75 0006 0446     		mov	r4, r0
  76              		.loc 1 86 0
  77 0008 002B     		cmp	r3, #0
  78 000a 18BF     		it	ne
  79 000c 0E2B     		cmpne	r3, #14
  80 000e 0FD0     		beq	.L10
  81              	.LVL1:
  82              	.L3:
  83              		.loc 1 91 0
  84 0010 0022     		movs	r2, #0
  85 0012 A168     		ldr	r1, [r4, #8]
  86              		.loc 1 92 0
  87 0014 084B     		ldr	r3, .L11
  88              		.loc 1 91 0
  89 0016 84F82020 		strb	r2, [r4, #32]
  90              	.LVL2:
  91              	.L4:
  92              		.loc 1 94 0 discriminator 1
  93 001a 1B68     		ldr	r3, [r3, #0]
  94              	.LVL3:
  95              		.loc 1 95 0 discriminator 1
  96 001c 9A68     		ldr	r2, [r3, #8]
  97 001e 8A42     		cmp	r2, r1
  98 0020 FBD2     		bcs	.L4
  99              		.loc 1 98 0
 100 0022 5A68     		ldr	r2, [r3, #4]
 101              		.loc 1 97 0
 102 0024 2360     		str	r3, [r4, #0]
 103              		.loc 1 98 0
 104 0026 6260     		str	r2, [r4, #4]
 105              		.loc 1 99 0
 106 0028 1460     		str	r4, [r2, #0]
 107 002a 5C60     		str	r4, [r3, #4]
 108              		.loc 1 101 0
 109 002c 2046     		mov	r0, r4
 110 002e 10BD     		pop	{r4, pc}
 111              	.LVL4:
 112              	.L10:
 113              		.loc 1 86 0 discriminator 1
ARM GAS  /var/folders/dt/0wfd0knj7gs46m8vwfzktm600000gn/T//ccmnLkkv.s 			page 3


 114 0030 0248     		ldr	r0, .L11+4
 115              	.LVL5:
 116 0032 FFF7FEFF 		bl	chDbgPanic
 117              	.LVL6:
 118 0036 EBE7     		b	.L3
 119              	.L12:
 120              		.align	2
 121              	.L11:
 122 0038 00000000 		.word	.LANCHOR0
 123 003c 00000000 		.word	.LC0
 124              		.cfi_endproc
 125              	.LFE8:
 126              		.size	chSchReadyI, .-chSchReadyI
 127              		.section	.text.wakeup,"ax",%progbits
 128              		.align	2
 129              		.p2align 4,,15
 130              		.thumb
 131              		.thumb_func
 132              		.type	wakeup, %function
 133              	wakeup:
 134              	.LFB10:
 135              		.loc 1 133 0
 136              		.cfi_startproc
 137              		@ args = 0, pretend = 0, frame = 0
 138              		@ frame_needed = 0, uses_anonymous_args = 0
 139              		@ link register save eliminated.
 140              	.LVL7:
 141              		.loc 1 136 0
 142 0000 90F82030 		ldrb	r3, [r0, #32]	@ zero_extendqisi2
 143 0004 0D2B     		cmp	r3, #13
 144 0006 11D8     		bhi	.L14
 145 0008 DFE803F0 		tbb	[pc, r3]
 146              	.L18:
 147 000c 15       		.byte	(.L13-.L18)/2
 148 000d 10       		.byte	(.L14-.L18)/2
 149 000e 10       		.byte	(.L14-.L18)/2
 150 000f 07       		.byte	(.L16-.L18)/2
 151 0010 10       		.byte	(.L14-.L18)/2
 152 0011 0B       		.byte	(.L17-.L18)/2
 153 0012 10       		.byte	(.L14-.L18)/2
 154 0013 10       		.byte	(.L14-.L18)/2
 155 0014 10       		.byte	(.L14-.L18)/2
 156 0015 10       		.byte	(.L14-.L18)/2
 157 0016 10       		.byte	(.L14-.L18)/2
 158 0017 10       		.byte	(.L14-.L18)/2
 159 0018 10       		.byte	(.L14-.L18)/2
 160 0019 0B       		.byte	(.L17-.L18)/2
 161              		.align	1
 162              	.L16:
 163              		.loc 1 145 0
 164 001a 836A     		ldr	r3, [r0, #40]
 165 001c 9A68     		ldr	r2, [r3, #8]
 166 001e 0132     		adds	r2, r2, #1
 167 0020 9A60     		str	r2, [r3, #8]
 168              	.L17:
 169              	.LVL8:
 170              	.LBB10:
ARM GAS  /var/folders/dt/0wfd0knj7gs46m8vwfzktm600000gn/T//ccmnLkkv.s 			page 4


 171              	.LBB11:
 172              		.file 2 "../../os/kernel/include/chinline.h"
 173              		.loc 2 75 0
 174 0022 90E80C00 		ldmia	r0, {r2, r3}
 175 0026 1A60     		str	r2, [r3, #0]
 176              		.loc 2 76 0
 177 0028 0268     		ldr	r2, [r0, #0]
 178 002a 5360     		str	r3, [r2, #4]
 179              	.LVL9:
 180              	.L14:
 181              	.LBE11:
 182              	.LBE10:
 183              		.loc 1 158 0
 184 002c 4FF0FF33 		mov	r3, #-1
 185 0030 8362     		str	r3, [r0, #40]
 186              		.loc 1 160 0
 187              		.loc 1 159 0
 188 0032 FFF7FEBF 		b	chSchReadyI
 189              	.LVL10:
 190              	.L13:
 191 0036 7047     		bx	lr
 192              		.cfi_endproc
 193              	.LFE10:
 194              		.size	wakeup, .-wakeup
 195 0038 AFF30080 		.section	.text.chSchGoSleepS,"ax",%progbits
 195      AFF30080 
 196              		.align	2
 197              		.p2align 4,,15
 198              		.global	chSchGoSleepS
 199              		.thumb
 200              		.thumb_func
 201              		.type	chSchGoSleepS, %function
 202              	chSchGoSleepS:
 203              	.LFB9:
 204              		.loc 1 114 0
 205              		.cfi_startproc
 206              		@ args = 0, pretend = 0, frame = 0
 207              		@ frame_needed = 0, uses_anonymous_args = 0
 208              	.LVL11:
 209 0000 70B5     		push	{r4, r5, r6, lr}
 210              	.LCFI1:
 211              		.cfi_def_cfa_offset 16
 212              		.cfi_offset 4, -16
 213              		.cfi_offset 5, -12
 214              		.cfi_offset 6, -8
 215              		.cfi_offset 14, -4
 216              		.loc 1 119 0
 217 0002 114C     		ldr	r4, .L21
 218              		.loc 1 114 0
 219 0004 0646     		mov	r6, r0
 220              		.loc 1 117 0
 221 0006 FFF7FEFF 		bl	chDbgCheckClassS
 222              	.LVL12:
 223              	.LBB12:
 224              	.LBB13:
 225              		.loc 2 60 0
 226 000a 2368     		ldr	r3, [r4, #0]
ARM GAS  /var/folders/dt/0wfd0knj7gs46m8vwfzktm600000gn/T//ccmnLkkv.s 			page 5


 227              	.LBE13:
 228              	.LBE12:
 229              		.loc 1 119 0
 230 000c E569     		ldr	r5, [r4, #28]
 231              	.LVL13:
 232              	.LBB17:
 233              	.LBB14:
 234              		.loc 2 62 0
 235 000e 1A68     		ldr	r2, [r3, #0]
 236              	.LBE14:
 237              	.LBE17:
 238              		.loc 1 121 0
 239 0010 1421     		movs	r1, #20
 240 0012 A161     		str	r1, [r4, #24]
 241              	.LVL14:
 242              		.loc 1 124 0
 243 0014 0121     		movs	r1, #1
 244              	.LBB18:
 245              	.LBB15:
 246              		.loc 2 62 0
 247 0016 5460     		str	r4, [r2, #4]
 248              	.LBE15:
 249              	.LBE18:
 250              		.loc 1 119 0
 251 0018 85F82060 		strb	r6, [r5, #32]
 252              		.loc 1 125 0
 253 001c 2846     		mov	r0, r5
 254              		.loc 1 124 0
 255 001e 83F82010 		strb	r1, [r3, #32]
 256              	.LBB19:
 257              	.LBB16:
 258              		.loc 2 62 0
 259 0022 2260     		str	r2, [r4, #0]
 260              	.LBE16:
 261              	.LBE19:
 262              		.loc 1 123 0
 263 0024 E361     		str	r3, [r4, #28]
 264              		.loc 1 125 0
 265 0026 FFF7FEFF 		bl	dbg_trace
 266              	.LVL15:
 267              	.LBB20:
 268 002a EB69     		ldr	r3, [r5, #28]
 269 002c ADF12402 		sub	r2, sp, #36
 270 0030 9342     		cmp	r3, r2
 271 0032 02D9     		bls	.L20
 272              		.loc 1 125 0 is_stmt 0 discriminator 1
 273 0034 0548     		ldr	r0, .L21+4
 274 0036 FFF7FEFF 		bl	chDbgPanic
 275              	.LVL16:
 276              	.L20:
 277              		.loc 1 125 0 discriminator 2
 278 003a E069     		ldr	r0, [r4, #28]
 279 003c 2946     		mov	r1, r5
 280              	.LBE20:
 281              		.loc 1 126 0 is_stmt 1 discriminator 2
 282 003e BDE87040 		pop	{r4, r5, r6, lr}
 283              	.LBB21:
ARM GAS  /var/folders/dt/0wfd0knj7gs46m8vwfzktm600000gn/T//ccmnLkkv.s 			page 6


 284              		.loc 1 125 0 discriminator 2
 285 0042 FFF7FEBF 		b	_port_switch
 286              	.LVL17:
 287              	.L22:
 288 0046 00BF     		.align	2
 289              	.L21:
 290 0048 00000000 		.word	.LANCHOR0
 291 004c 14000000 		.word	.LC1
 292              	.LBE21:
 293              		.cfi_endproc
 294              	.LFE9:
 295              		.size	chSchGoSleepS, .-chSchGoSleepS
 296              		.section	.text.chSchGoSleepTimeoutS,"ax",%progbits
 297              		.align	2
 298              		.p2align 4,,15
 299              		.global	chSchGoSleepTimeoutS
 300              		.thumb
 301              		.thumb_func
 302              		.type	chSchGoSleepTimeoutS, %function
 303              	chSchGoSleepTimeoutS:
 304              	.LFB11:
 305              		.loc 1 183 0
 306              		.cfi_startproc
 307              		@ args = 0, pretend = 0, frame = 24
 308              		@ frame_needed = 0, uses_anonymous_args = 0
 309              	.LVL18:
 310 0000 70B5     		push	{r4, r5, r6, lr}
 311              	.LCFI2:
 312              		.cfi_def_cfa_offset 16
 313              		.cfi_offset 4, -16
 314              		.cfi_offset 5, -12
 315              		.cfi_offset 6, -8
 316              		.cfi_offset 14, -4
 317 0002 0C46     		mov	r4, r1
 318 0004 86B0     		sub	sp, sp, #24
 319              	.LCFI3:
 320              		.cfi_def_cfa_offset 40
 321              		.loc 1 183 0
 322 0006 0646     		mov	r6, r0
 323              		.loc 1 185 0
 324 0008 FFF7FEFF 		bl	chDbgCheckClassS
 325              	.LVL19:
 326              		.loc 1 187 0
 327 000c 631C     		adds	r3, r4, #1
 328 000e 12D0     		beq	.L24
 329              	.LBB22:
 330              		.loc 1 190 0
 331 0010 0B4D     		ldr	r5, .L30
 332 0012 2146     		mov	r1, r4
 333 0014 EB69     		ldr	r3, [r5, #28]
 334 0016 0B4A     		ldr	r2, .L30+4
 335 0018 01A8     		add	r0, sp, #4
 336 001a FFF7FEFF 		bl	chVTSetI
 337              	.LVL20:
 338              		.loc 1 191 0
 339 001e 3046     		mov	r0, r6
 340 0020 FFF7FEFF 		bl	chSchGoSleepS
ARM GAS  /var/folders/dt/0wfd0knj7gs46m8vwfzktm600000gn/T//ccmnLkkv.s 			page 7


 341              	.LVL21:
 342              		.loc 1 192 0
 343 0024 049B     		ldr	r3, [sp, #16]
 344 0026 13B1     		cbz	r3, .L26
 345              		.loc 1 193 0
 346 0028 01A8     		add	r0, sp, #4
 347 002a FFF7FEFF 		bl	chVTResetI
 348              	.LVL22:
 349              	.L26:
 350              	.LBE22:
 351              		.loc 1 197 0
 352 002e EB69     		ldr	r3, [r5, #28]
 353              		.loc 1 198 0
 354 0030 986A     		ldr	r0, [r3, #40]
 355 0032 06B0     		add	sp, sp, #24
 356 0034 70BD     		pop	{r4, r5, r6, pc}
 357              	.L24:
 358              		.loc 1 196 0
 359 0036 3046     		mov	r0, r6
 360 0038 FFF7FEFF 		bl	chSchGoSleepS
 361              	.LVL23:
 362 003c 004D     		ldr	r5, .L30
 363 003e F6E7     		b	.L26
 364              	.L31:
 365              		.align	2
 366              	.L30:
 367 0040 00000000 		.word	.LANCHOR0
 368 0044 00000000 		.word	wakeup
 369              		.cfi_endproc
 370              	.LFE11:
 371              		.size	chSchGoSleepTimeoutS, .-chSchGoSleepTimeoutS
 372 0048 AFF30080 		.section	.text.chSchWakeupS,"ax",%progbits
 372      AFF30080 
 373              		.align	2
 374              		.p2align 4,,15
 375              		.global	chSchWakeupS
 376              		.thumb
 377              		.thumb_func
 378              		.type	chSchWakeupS, %function
 379              	chSchWakeupS:
 380              	.LFB12:
 381              		.loc 1 219 0
 382              		.cfi_startproc
 383              		@ args = 0, pretend = 0, frame = 0
 384              		@ frame_needed = 0, uses_anonymous_args = 0
 385              	.LVL24:
 386 0000 70B5     		push	{r4, r5, r6, lr}
 387              	.LCFI4:
 388              		.cfi_def_cfa_offset 16
 389              		.cfi_offset 4, -16
 390              		.cfi_offset 5, -12
 391              		.cfi_offset 6, -8
 392              		.cfi_offset 14, -4
 393              		.loc 1 228 0
 394 0002 154D     		ldr	r5, .L37
 395              		.loc 1 219 0
 396 0004 0446     		mov	r4, r0
ARM GAS  /var/folders/dt/0wfd0knj7gs46m8vwfzktm600000gn/T//ccmnLkkv.s 			page 8


 397 0006 0E46     		mov	r6, r1
 398              		.loc 1 221 0
 399 0008 FFF7FEFF 		bl	chDbgCheckClassS
 400              	.LVL25:
 401              		.loc 1 228 0
 402 000c E869     		ldr	r0, [r5, #28]
 403 000e A268     		ldr	r2, [r4, #8]
 404 0010 8368     		ldr	r3, [r0, #8]
 405              		.loc 1 223 0
 406 0012 A662     		str	r6, [r4, #40]
 407              		.loc 1 228 0
 408 0014 9A42     		cmp	r2, r3
 409 0016 15D9     		bls	.L35
 410              	.LBB23:
 411              		.loc 1 231 0
 412 0018 FFF7FEFF 		bl	chSchReadyI
 413              	.LVL26:
 414              		.loc 1 236 0
 415 001c 0123     		movs	r3, #1
 416              		.loc 1 231 0
 417 001e 0646     		mov	r6, r0
 418              	.LVL27:
 419              		.loc 1 236 0
 420 0020 84F82030 		strb	r3, [r4, #32]
 421              		.loc 1 233 0
 422 0024 1423     		movs	r3, #20
 423 0026 AB61     		str	r3, [r5, #24]
 424              		.loc 1 235 0
 425 0028 EC61     		str	r4, [r5, #28]
 426              		.loc 1 237 0
 427 002a FFF7FEFF 		bl	dbg_trace
 428              	.LVL28:
 429              	.LBB24:
 430 002e F369     		ldr	r3, [r6, #28]
 431 0030 ADF12402 		sub	r2, sp, #36
 432 0034 9342     		cmp	r3, r2
 433 0036 0AD8     		bhi	.L36
 434              	.L34:
 435              		.loc 1 237 0 is_stmt 0 discriminator 2
 436 0038 2046     		mov	r0, r4
 437 003a 3146     		mov	r1, r6
 438              	.LBE24:
 439              	.LBE23:
 440              		.loc 1 239 0 is_stmt 1 discriminator 2
 441 003c BDE87040 		pop	{r4, r5, r6, lr}
 442              	.LBB27:
 443              	.LBB25:
 444              		.loc 1 237 0 discriminator 2
 445 0040 FFF7FEBF 		b	_port_switch
 446              	.LVL29:
 447              	.L35:
 448              	.LBE25:
 449              	.LBE27:
 450              		.loc 1 229 0
 451 0044 2046     		mov	r0, r4
 452              		.loc 1 239 0
 453 0046 BDE87040 		pop	{r4, r5, r6, lr}
ARM GAS  /var/folders/dt/0wfd0knj7gs46m8vwfzktm600000gn/T//ccmnLkkv.s 			page 9


 454              		.loc 1 229 0
 455 004a FFF7FEBF 		b	chSchReadyI
 456              	.LVL30:
 457              	.L36:
 458              	.LBB28:
 459              	.LBB26:
 460              		.loc 1 237 0 discriminator 1
 461 004e 0348     		ldr	r0, .L37+4
 462 0050 FFF7FEFF 		bl	chDbgPanic
 463              	.LVL31:
 464 0054 F0E7     		b	.L34
 465              	.L38:
 466 0056 00BF     		.align	2
 467              	.L37:
 468 0058 00000000 		.word	.LANCHOR0
 469 005c 14000000 		.word	.LC1
 470              	.LBE26:
 471              	.LBE28:
 472              		.cfi_endproc
 473              	.LFE12:
 474              		.size	chSchWakeupS, .-chSchWakeupS
 475              		.section	.text.chSchDoReschedule,"ax",%progbits
 476              		.align	2
 477              		.p2align 4,,15
 478              		.global	chSchDoReschedule
 479              		.thumb
 480              		.thumb_func
 481              		.type	chSchDoReschedule, %function
 482              	chSchDoReschedule:
 483              	.LFB14:
 484              		.loc 1 298 0
 485              		.cfi_startproc
 486              		@ args = 0, pretend = 0, frame = 0
 487              		@ frame_needed = 0, uses_anonymous_args = 0
 488 0000 38B5     		push	{r3, r4, r5, lr}
 489              	.LCFI5:
 490              		.cfi_def_cfa_offset 16
 491              		.cfi_offset 3, -16
 492              		.cfi_offset 4, -12
 493              		.cfi_offset 5, -8
 494              		.cfi_offset 14, -4
 495              		.loc 1 302 0
 496 0002 104C     		ldr	r4, .L41
 497 0004 1421     		movs	r1, #20
 498              	.LBB29:
 499              	.LBB30:
 500              		.loc 2 60 0
 501 0006 2368     		ldr	r3, [r4, #0]
 502              	.LBE30:
 503              	.LBE29:
 504              		.loc 1 304 0
 505 0008 E569     		ldr	r5, [r4, #28]
 506              	.LVL32:
 507              	.LBB34:
 508              	.LBB31:
 509              		.loc 2 62 0
 510 000a 1A68     		ldr	r2, [r3, #0]
ARM GAS  /var/folders/dt/0wfd0knj7gs46m8vwfzktm600000gn/T//ccmnLkkv.s 			page 10


 511              	.LBE31:
 512              	.LBE34:
 513              		.loc 1 302 0
 514 000c A161     		str	r1, [r4, #24]
 515              		.loc 1 307 0
 516 000e 0121     		movs	r1, #1
 517              	.LBB35:
 518              	.LBB32:
 519              		.loc 2 62 0
 520 0010 5460     		str	r4, [r2, #4]
 521              	.LBE32:
 522              	.LBE35:
 523              		.loc 1 307 0
 524 0012 83F82010 		strb	r1, [r3, #32]
 525              		.loc 1 308 0
 526 0016 2846     		mov	r0, r5
 527              	.LBB36:
 528              	.LBB33:
 529              		.loc 2 62 0
 530 0018 2260     		str	r2, [r4, #0]
 531              	.LBE33:
 532              	.LBE36:
 533              		.loc 1 306 0
 534 001a E361     		str	r3, [r4, #28]
 535              		.loc 1 308 0
 536 001c FFF7FEFF 		bl	chSchReadyI
 537              	.LVL33:
 538              		.loc 1 309 0
 539 0020 2846     		mov	r0, r5
 540 0022 FFF7FEFF 		bl	dbg_trace
 541              	.LVL34:
 542              	.LBB37:
 543 0026 EB69     		ldr	r3, [r5, #28]
 544 0028 ADF12402 		sub	r2, sp, #36
 545 002c 9342     		cmp	r3, r2
 546 002e 02D9     		bls	.L40
 547              		.loc 1 309 0 is_stmt 0 discriminator 1
 548 0030 0548     		ldr	r0, .L41+4
 549 0032 FFF7FEFF 		bl	chDbgPanic
 550              	.LVL35:
 551              	.L40:
 552              		.loc 1 309 0 discriminator 2
 553 0036 E069     		ldr	r0, [r4, #28]
 554 0038 2946     		mov	r1, r5
 555              	.LBE37:
 556              		.loc 1 310 0 is_stmt 1 discriminator 2
 557 003a BDE83840 		pop	{r3, r4, r5, lr}
 558              	.LBB38:
 559              		.loc 1 309 0 discriminator 2
 560 003e FFF7FEBF 		b	_port_switch
 561              	.LVL36:
 562              	.L42:
 563 0042 00BF     		.align	2
 564              	.L41:
 565 0044 00000000 		.word	.LANCHOR0
 566 0048 14000000 		.word	.LC1
 567              	.LBE38:
ARM GAS  /var/folders/dt/0wfd0knj7gs46m8vwfzktm600000gn/T//ccmnLkkv.s 			page 11


 568              		.cfi_endproc
 569              	.LFE14:
 570              		.size	chSchDoReschedule, .-chSchDoReschedule
 571 004c AFF30080 		.section	.text.chSchRescheduleS,"ax",%progbits
 572              		.align	2
 573              		.p2align 4,,15
 574              		.global	chSchRescheduleS
 575              		.thumb
 576              		.thumb_func
 577              		.type	chSchRescheduleS, %function
 578              	chSchRescheduleS:
 579              	.LFB13:
 580              		.loc 1 250 0
 581              		.cfi_startproc
 582              		@ args = 0, pretend = 0, frame = 0
 583              		@ frame_needed = 0, uses_anonymous_args = 0
 584 0000 08B5     		push	{r3, lr}
 585              	.LCFI6:
 586              		.cfi_def_cfa_offset 8
 587              		.cfi_offset 3, -8
 588              		.cfi_offset 14, -4
 589              		.loc 1 252 0
 590 0002 FFF7FEFF 		bl	chDbgCheckClassS
 591              	.LVL37:
 592              		.loc 1 254 0
 593 0006 064B     		ldr	r3, .L46
 594 0008 1A68     		ldr	r2, [r3, #0]
 595 000a DB69     		ldr	r3, [r3, #28]
 596 000c 9268     		ldr	r2, [r2, #8]
 597 000e 9B68     		ldr	r3, [r3, #8]
 598 0010 9A42     		cmp	r2, r3
 599 0012 00D8     		bhi	.L45
 600 0014 08BD     		pop	{r3, pc}
 601              	.L45:
 602              		.loc 1 256 0
 603 0016 BDE80840 		pop	{r3, lr}
 604              		.loc 1 255 0
 605 001a FFF7FEBF 		b	chSchDoReschedule
 606              	.LVL38:
 607              	.L47:
 608 001e 00BF     		.align	2
 609              	.L46:
 610 0020 00000000 		.word	.LANCHOR0
 611              		.cfi_endproc
 612              	.LFE13:
 613              		.size	chSchRescheduleS, .-chSchRescheduleS
 614              		.global	rlist
 615 0024 AFF30080 		.section	.rodata.str1.4,"aMS",%progbits,1
 615      AFF30080 
 615      AFF30080 
 616              		.align	2
 617              	.LC0:
 618 0000 63685363 		.ascii	"chSchReadyI(), #1\000"
 618      68526561 
 618      64794928 
 618      292C2023 
 618      3100
ARM GAS  /var/folders/dt/0wfd0knj7gs46m8vwfzktm600000gn/T//ccmnLkkv.s 			page 12


 619 0012 0000     		.space	2
 620              	.LC1:
 621 0014 73746163 		.ascii	"stack overflow\000"
 621      6B206F76 
 621      6572666C 
 621      6F7700
 622 0023 00       		.section	.bss.rlist,"aw",%nobits
 623              		.align	2
 624              		.set	.LANCHOR0,. + 0
 625              		.type	rlist, %object
 626              		.size	rlist, 32
 627              	rlist:
 628 0000 00000000 		.space	32
 628      00000000 
 628      00000000 
 628      00000000 
 628      00000000 
 629              		.text
 630              	.Letext0:
 631              		.file 3 "/Users/toxygen/Applications/yagarto-4.7.2/bin/../lib/gcc/arm-none-eabi/4.7.2/../../../../
 632              		.file 4 "../../os/ports/GCC/ARMCMx/chtypes.h"
 633              		.file 5 "../../os/kernel/include/chlists.h"
 634              		.file 6 "../../os/kernel/include/chthreads.h"
 635              		.file 7 "../../os/ports/GCC/ARMCMx/chcore_v7m.h"
 636              		.file 8 "../../os/kernel/include/chvt.h"
 637              		.file 9 "../../os/kernel/include/chschd.h"
 638              		.file 10 "../../os/kernel/include/chsem.h"
 639              		.file 11 "../../os/kernel/include/chmtx.h"
 640              		.file 12 "../../os/kernel/include/chdebug.h"