ARM GAS  /var/folders/dt/0wfd0knj7gs46m8vwfzktm600000gn/T//ccmnLkkv.s 			page 1


   1              		.syntax unified
   2              		.cpu cortex-m3
   3              		.fpu softvfp
   4              		.eabi_attribute 20, 1
   5              		.eabi_attribute 21, 1
   6              		.eabi_attribute 23, 3
   7              		.eabi_attribute 24, 1
   8              		.eabi_attribute 25, 1
   9              		.eabi_attribute 26, 1
  10              		.eabi_attribute 30, 2
  11              		.eabi_attribute 34, 1
  12              		.eabi_attribute 18, 4
  13              		.thumb
  14              		.file	"chschd.c"
  15              		.text
  16              	.Ltext0:
  17              		.cfi_sections	.debug_frame
  18              		.section	.text._scheduler_init,"ax",%progbits
  19              		.align	2
  20              		.p2align 4,,15
  21              		.global	_scheduler_init
  22              		.thumb
  23              		.thumb_func
  24              		.type	_scheduler_init, %function
  25              	_scheduler_init:
  26              	.LFB7:
  27              		.file 1 "../../os/kernel/src/chschd.c"
  28              		.loc 1 55 0
  29              		.cfi_startproc
  30              		@ args = 0, pretend = 0, frame = 0
  31              		@ frame_needed = 0, uses_anonymous_args = 0
  32              		@ link register save eliminated.
  33              		.loc 1 57 0
  34 0000 40F20003 		movw	r3, #:lower16:.LANCHOR0
  35 0004 C0F20003 		movt	r3, #:upper16:.LANCHOR0
  36              		.loc 1 58 0
  37 0008 0022     		movs	r2, #0
  38 000a 9A60     		str	r2, [r3, #8]
  39              		.loc 1 60 0
  40 000c 1422     		movs	r2, #20
  41              		.loc 1 57 0
  42 000e 5B60     		str	r3, [r3, #4]
  43 0010 1B60     		str	r3, [r3, #0]
  44              		.loc 1 60 0
  45 0012 9A61     		str	r2, [r3, #24]
  46              		.loc 1 63 0
  47 0014 5B61     		str	r3, [r3, #20]
  48 0016 1B61     		str	r3, [r3, #16]
  49 0018 7047     		bx	lr
  50              		.cfi_endproc
  51              	.LFE7:
  52              		.size	_scheduler_init, .-_scheduler_init
  53 001a 00BFAFF3 		.section	.text.chSchReadyI,"ax",%progbits
  53      0080
  54              		.align	2
  55              		.p2align 4,,15
  56              		.global	chSchReadyI
ARM GAS  /var/folders/dt/0wfd0knj7gs46m8vwfzktm600000gn/T//ccmnLkkv.s 			page 2


  57              		.thumb
  58              		.thumb_func
  59              		.type	chSchReadyI, %function
  60              	chSchReadyI:
  61              	.LFB8:
  62              		.loc 1 82 0
  63              		.cfi_startproc
  64              		@ args = 0, pretend = 0, frame = 0
  65              		@ frame_needed = 0, uses_anonymous_args = 0
  66              	.LVL0:
  67 0000 10B5     		push	{r4, lr}
  68              	.LCFI0:
  69              		.cfi_def_cfa_offset 8
  70              		.cfi_offset 4, -8
  71              		.cfi_offset 14, -4
  72              		.loc 1 86 0
  73 0002 90F82030 		ldrb	r3, [r0, #32]	@ zero_extendqisi2
  74              		.loc 1 82 0
  75 0006 0446     		mov	r4, r0
  76              		.loc 1 86 0
  77 0008 002B     		cmp	r3, #0
  78 000a 18BF     		it	ne
  79 000c 0E2B     		cmpne	r3, #14
  80 000e 0FD0     		beq	.L10
  81              	.LVL1:
  82              	.L3:
  83              		.loc 1 91 0
  84 0010 0022     		movs	r2, #0
  85 0012 A168     		ldr	r1, [r4, #8]
  86              		.loc 1 92 0
  87 0014 084B     		ldr	r3, .L11
  88              		.loc 1 91 0
  89 0016 84F82020 		strb	r2, [r4, #32]
  90              	.LVL2:
  91              	.L4:
  92              		.loc 1 94 0 discriminator 1
  93 001a 1B68     		ldr	r3, [r3, #0]
  94              	.LVL3:
  95              		.loc 1 95 0 discriminator 1
  96 001c 9A68     		ldr	r2, [r3, #8]
  97 001e 8A42     		cmp	r2, r1
  98 0020 FBD2     		bcs	.L4
  99              		.loc 1 98 0
 100 0022 5A68     		ldr	r2, [r3, #4]
 101              		.loc 1 97 0
 102 0024 2360     		str	r3, [r4, #0]
 103              		.loc 1 98 0
 104 0026 6260     		str	r2, [r4, #4]
 105              		.loc 1 99 0
 106 0028 1460     		str	r4, [r2, #0]
 107 002a 5C60     		str	r4, [r3, #4]
 108              		.loc 1 101 0
 109 002c 2046     		mov	r0, r4
 110 002e 10BD     		pop	{r4, pc}
 111              	.LVL4:
 112              	.L10:
 113              		.loc 1 86 0 discriminator 1
ARM GAS  /var/folders/dt/0wfd0knj7gs46m8vwfzktm600000gn/T//ccmnLkkv.s 			page 3


 114 0030 0248     		ldr	r0, .L11+4
 115              	.LVL5:
 116 0032 FFF7FEFF 		bl	chDbgPanic
 117              	.LVL6:
 118 0036 EBE7     		b	.L3
 119              	.L12:
 120              		.align	2
 121              	.L11:
 122 0038 00000000 		.word	.LANCHOR0
 123 003c 00000000 		.word	.LC0
 124              		.cfi_endproc
 125              	.LFE8:
 126              		.size	chSchReadyI, .-chSchReadyI
 127              		.section	.text.wakeup,"ax",%progbits
 128              		.align	2
 129              		.p2align 4,,15
 130              		.thumb
 131              		.thumb_func
 132              		.type	wakeup, %function
 133              	wakeup:
 134              	.LFB10:
 135              		.loc 1 133 0
 136              		.cfi_startproc
 137              		@ args = 0, pretend = 0, frame = 0
 138              		@ frame_needed = 0, uses_anonymous_args = 0
 139              		@ link register save eliminated.
 140              	.LVL7:
 141              		.loc 1 136 0
 142 0000 90F82030 		ldrb	r3, [r0, #32]	@ zero_extendqisi2
 143 0004 0D2B     		cmp	r3, #13
 144 0006 11D8     		bhi	.L14
 145 0008 DFE803F0 		tbb	[pc, r3]
 146              	.L18:
 147 000c 15       		.byte	(.L13-.L18)/2
 148 000d 10       		.byte	(.L14-.L18)/2
 149 000e 10       		.byte	(.L14-.L18)/2
 150 000f 07       		.byte	(.L16-.L18)/2
 151 0010 10       		.byte	(.L14-.L18)/2
 152 0011 0B       		.byte	(.L17-.L18)/2
 153 0012 10       		.byte	(.L14-.L18)/2
 154 0013 10       		.byte	(.L14-.L18)/2
 155 0014 10       		.byte	(.L14-.L18)/2
 156 0015 10       		.byte	(.L14-.L18)/2
 157 0016 10       		.byte	(.L14-.L18)/2
 158 0017 10       		.byte	(.L14-.L18)/2
 159 0018 10       		.byte	(.L14-.L18)/2
 160 0019 0B       		.byte	(.L17-.L18)/2
 161              		.align	1
 162              	.L16:
 163              		.loc 1 145 0
 164 001a 836A     		ldr	r3, [r0, #40]
 165 001c 9A68     		ldr	r2, [r3, #8]
 166 001e 0132     		adds	r2, r2, #1
 167 0020 9A60     		str	r2, [r3, #8]
 168              	.L17:
 169              	.LVL8:
 170              	.LBB10:
ARM GAS  /var/folders/dt/0wfd0knj7gs46m8vwfzktm600000gn/T//ccmnLkkv.s 			page 4


 171              	.LBB11:
 172              		.file 2 "../../os/kernel/include/chinline.h"
 173              		.loc 2 75 0
 174 0022 90E80C00 		ldmia	r0, {r2, r3}
 175 0026 1A60     		str	r2, [r3, #0]
 176              		.loc 2 76 0
 177 0028 0268     		ldr	r2, [r0, #0]
 178 002a 5360     		str	r3, [r2, #4]
 179              	.LVL9:
 180              	.L14:
 181              	.LBE11:
 182              	.LBE10:
 183              		.loc 1 158 0
 184 002c 4FF0FF33 		mov	r3, #-1
 185 0030 8362     		str	r3, [r0, #40]
 186              		.loc 1 160 0
 187              		.loc 1 159 0
 188 0032 FFF7FEBF 		b	chSchReadyI
 189              	.LVL10:
 190              	.L13:
 191 0036 7047     		bx	lr
 192              		.cfi_endproc
 193              	.LFE10:
 194              		.size	wakeup, .-wakeup
 195 0038 AFF30080 		.section	.text.chSchGoSleepS,"ax",%progbits
 195      AFF30080 
 196              		.align	2
 197              		.p2align 4,,15
 198              		.global	chSchGoSleepS
 199              		.thumb
 200              		.thumb_func
 201              		.type	chSchGoSleepS, %function
 202              	chSchGoSleepS:
 203              	.LFB9:
 204              		.loc 1 114 0
 205              		.cfi_startproc
 206              		@ args = 0, pretend = 0, frame = 0
 207              		@ frame_needed = 0, uses_anonymous_args = 0
 208              	.LVL11:
 209 0000 70B5     		push	{r4, r5, r6, lr}
 210              	.LCFI1:
 211              		.cfi_def_cfa_offset 16
 212              		.cfi_offset 4, -16
 213              		.cfi_offset 5, -12
 214              		.cfi_offset 6, -8
 215              		.cfi_offset 14, -4
 216              		.loc 1 119 0
 217 0002 114C     		ldr	r4, .L21
 218              		.loc 1 114 0
 219 0004 0646     		mov	r6, r0
 220              		.loc 1 117 0
 221 0006 FFF7FEFF 		bl	chDbgCheckClassS
 222              	.LVL12:
 223              	.LBB12:
 224              	.LBB13:
 225              		.loc 2 60 0
 226 000a 2368     		ldr	r3, [r4, #0]
ARM GAS  /var/folders/dt/0wfd0knj7gs46m8vwfzktm600000gn/T//ccmnLkkv.s 			page 5


 227              	.LBE13:
 228              	.LBE12:
 229              		.loc 1 119 0
 230 000c E569     		ldr	r5, [r4, #28]
 231              	.LVL13:
 232              	.LBB17:
 233              	.LBB14:
 234              		.loc 2 62 0
 235 000e 1A68     		ldr	r2, [r3, #0]
 236              	.LBE14:
 237              	.LBE17:
 238              		.loc 1 121 0
 239 0010 1421     		movs	r1, #20
 240 0012 A161     		str	r1, [r4, #24]
 241              	.LVL14:
 242              		.loc 1 124 0
 243 0014 0121     		movs	r1, #1
 244              	.LBB18:
 245              	.LBB15:
 246              		.loc 2 62 0
 247 0016 5460     		str	r4, [r2, #4]
 248              	.LBE15:
 249              	.LBE18:
 250              		.loc 1 119 0
 251 0018 85F82060 		strb	r6, [r5, #32]
 252              		.loc 1 125 0
 253 001c 2846     		mov	r0, r5
 254              		.loc 1 124 0
 255 001e 83F82010 		strb	r1, [r3, #32]
 256              	.LBB19:
 257              	.LBB16:
 258              		.loc 2 62 0
 259 0022 2260     		str	r2, [r4, #0]
 260              	.LBE16:
 261              	.LBE19:
 262              		.loc 1 123 0
 263 0024 E361     		str	r3, [r4, #28]
 264              		.loc 1 125 0
 265 0026 FFF7FEFF 		bl	dbg_trace
 266              	.LVL15:
 267              	.LBB20:
 268 002a EB69     		ldr	r3, [r5, #28]
 269 002c ADF12402 		sub	r2, sp, #36
 270 0030 9342     		cmp	r3, r2
 271 0032 02D9     		bls	.L20
 272              		.loc 1 125 0 is_stmt 0 discriminator 1
 273 0034 0548     		ldr	r0, .L21+4
 274 0036 FFF7FEFF 		bl	chDbgPanic
 275              	.LVL16:
 276              	.L20:
 277              		.loc 1 125 0 discriminator 2
 278 003a E069     		ldr	r0, [r4, #28]
 279 003c 2946     		mov	r1, r5
 280              	.LBE20:
 281              		.loc 1 126 0 is_stmt 1 discriminator 2
 282 003e BDE87040 		pop	{r4, r5, r6, lr}
 283              	.LBB21:
ARM GAS  /var/folders/dt/0wfd0knj7gs46m8vwfzktm600000gn/T//ccmnLkkv.s 			page 6


 284              		.loc 1 125 0 discriminator 2
 285 0042 FFF7FEBF 		b	_port_switch
 286              	.LVL17:
 287              	.L22:
 288 0046 00BF     		.align	2
 289              	.L21:
 290 0048 00000000 		.word	.LANCHOR0
 291 004c 14000000 		.word	.LC1
 292              	.LBE21:
 293              		.cfi_endproc
 294              	.LFE9:
 295              		.size	chSchGoSleepS, .-chSchGoSleepS
 296              		.section	.text.chSchGoSleepTimeoutS,"ax",%progbits
 297              		.align	2
 298              		.p2align 4,,15
 299              		.global	chSchGoSleepTimeoutS
 300              		.thumb
 301              		.thumb_func
 302              		.type	chSchGoSleepTimeoutS, %function
 303              	chSchGoSleepTimeoutS:
 304              	.LFB11:
 305              		.loc 1 183 0
 306              		.cfi_startproc
 307              		@ args = 0, pretend = 0, frame = 24
 308              		@ frame_needed = 0, uses_anonymous_args = 0
 309              	.LVL18:
 310 0000 70B5     		push	{r4, r5, r6, lr}
 311              	.LCFI2:
 312              		.cfi_def_cfa_offset 16
 313              		.cfi_offset 4, -16
 314              		.cfi_offset 5, -12
 315              		.cfi_offset 6, -8
 316              		.cfi_offset 14, -4
 317 0002 0C46     		mov	r4, r1
 318 0004 86B0     		sub	sp, sp, #24
 319              	.LCFI3:
 320              		.cfi_def_cfa_offset 40
 321              		.loc 1 183 0
 322 0006 0646     		mov	r6, r0
 323              		.loc 1 185 0
 324 0008 FFF7FEFF 		bl	chDbgCheckClassS
 325              	.LVL19:
 326              		.loc 1 187 0
 327 000c 631C     		adds	r3, r4, #1
 328 000e 12D0     		beq	.L24
 329              	.LBB22:
 330              		.loc 1 190 0
 331 0010 0B4D     		ldr	r5, .L30
 332 0012 2146     		mov	r1, r4
 333 0014 EB69     		ldr	r3, [r5, #28]
 334 0016 0B4A     		ldr	r2, .L30+4
 335 0018 01A8     		add	r0, sp, #4
 336 001a FFF7FEFF 		bl	chVTSetI
 337              	.LVL20:
 338              		.loc 1 191 0
 339 001e 3046     		mov	r0, r6
 340 0020 FFF7FEFF 		bl	chSchGoSleepS
ARM GAS  /var/folders/dt/0wfd0knj7gs46m8vwfzktm600000gn/T//ccmnLkkv.s 			page 7


 341              	.LVL21:
 342              		.loc 1 192 0
 343 0024 049B     		ldr	r3, [sp, #16]
 344 0026 13B1     		cbz	r3, .L26
 345              		.loc 1 193 0
 346 0028 01A8     		add	r0, sp, #4
 347 002a FFF7FEFF 		bl	chVTResetI
 348              	.LVL22:
 349              	.L26:
 350              	.LBE22:
 351              		.loc 1 197 0
 352 002e EB69     		ldr	r3, [r5, #28]
 353              		.loc 1 198 0
 354 0030 986A     		ldr	r0, [r3, #40]
 355 0032 06B0     		add	sp, sp, #24
 356 0034 70BD     		pop	{r4, r5, r6, pc}
 357              	.L24:
 358              		.loc 1 196 0
 359 0036 3046     		mov	r0, r6
 360 0038 FFF7FEFF 		bl	chSchGoSleepS
 361              	.LVL23:
 362 003c 004D     		ldr	r5, .L30
 363 003e F6E7     		b	.L26
 364              	.L31:
 365              		.align	2
 366              	.L30:
 367 0040 00000000 		.word	.LANCHOR0
 368 0044 00000000 		.word	wakeup
 369              		.cfi_endproc
 370              	.LFE11:
 371              		.size	chSchGoSleepTimeoutS, .-chSchGoSleepTimeoutS
 372 0048 AFF30080 		.section	.text.chSchWakeupS,"ax",%progbits
 372      AFF30080 
 373              		.align	2
 374              		.p2align 4,,15
 375              		.global	chSchWakeupS
 376              		.thumb
 377              		.thumb_func
 378              		.type	chSchWakeupS, %function
 379              	chSchWakeupS:
 380              	.LFB12:
 381              		.loc 1 219 0
 382              		.cfi_startproc
 383              		@ args = 0, pretend = 0, frame = 0
 384              		@ frame_needed = 0, uses_anonymous_args = 0
 385              	.LVL24:
 386 0000 70B5     		push	{r4, r5, r6, lr}
 387              	.LCFI4:
 388              		.cfi_def_cfa_offset 16
 389              		.cfi_offset 4, -16
 390              		.cfi_offset 5, -12
 391              		.cfi_offset 6, -8
 392              		.cfi_offset 14, -4
 393              		.loc 1 228 0
 394 0002 154D     		ldr	r5, .L37
 395              		.loc 1 219 0
 396 0004 0446     		mov	r4, r0
ARM GAS  /var/folders/dt/0wfd0knj7gs46m8vwfzktm600000gn/T//ccmnLkkv.s 			page 8


 397 0006 0E46     		mov	r6, r1
 398              		.loc 1 221 0
 399 0008 FFF7FEFF 		bl	chDbgCheckClassS
 400              	.LVL25:
 401              		.loc 1 228 0
 402 000c E869     		ldr	r0, [r5, #28]
 403 000e A268     		ldr	r2, [r4, #8]
 404 0010 8368     		ldr	r3, [r0, #8]
 405              		.loc 1 223 0
 406 0012 A662     		str	r6, [r4, #40]
 407              		.loc 1 228 0
 408 0014 9A42     		cmp	r2, r3
 409 0016 15D9     		bls	.L35
 410              	.LBB23:
 411              		.loc 1 231 0
 412 0018 FFF7FEFF 		bl	chSchReadyI
 413              	.LVL26:
 414              		.loc 1 236 0
 415 001c 0123     		movs	r3, #1
 416              		.loc 1 231 0
 417 001e 0646     		mov	r6, r0
 418              	.LVL27:
 419              		.loc 1 236 0
 420 0020 84F82030 		strb	r3, [r4, #32]
 421              		.loc 1 233 0
 422 0024 1423     		movs	r3, #20
 423 0026 AB61     		str	r3, [r5, #24]
 424              		.loc 1 235 0
 425 0028 EC61     		str	r4, [r5, #28]
 426              		.loc 1 237 0
 427 002a FFF7FEFF 		bl	dbg_trace
 428              	.LVL28:
 429              	.LBB24:
 430 002e F369     		ldr	r3, [r6, #28]
 431 0030 ADF12402 		sub	r2, sp, #36
 432 0034 9342     		cmp	r3, r2
 433 0036 0AD8     		bhi	.L36
 434              	.L34:
 435              		.loc 1 237 0 is_stmt 0 discriminator 2
 436 0038 2046     		mov	r0, r4
 437 003a 3146     		mov	r1, r6
 438              	.LBE24:
 439              	.LBE23:
 440              		.loc 1 239 0 is_stmt 1 discriminator 2
 441 003c BDE87040 		pop	{r4, r5, r6, lr}
 442              	.LBB27:
 443              	.LBB25:
 444              		.loc 1 237 0 discriminator 2
 445 0040 FFF7FEBF 		b	_port_switch
 446              	.LVL29:
 447              	.L35:
 448              	.LBE25:
 449              	.LBE27:
 450              		.loc 1 229 0
 451 0044 2046     		mov	r0, r4
 452              		.loc 1 239 0
 453 0046 BDE87040 		pop	{r4, r5, r6, lr}
ARM GAS  /var/folders/dt/0wfd0knj7gs46m8vwfzktm600000gn/T//ccmnLkkv.s 			page 9


 454              		.loc 1 229 0
 455 004a FFF7FEBF 		b	chSchReadyI
 456              	.LVL30:
 457              	.L36:
 458              	.LBB28:
 459              	.LBB26:
 460              		.loc 1 237 0 discriminator 1
 461 004e 0348     		ldr	r0, .L37+4
 462 0050 FFF7FEFF 		bl	chDbgPanic
 463              	.LVL31:
 464 0054 F0E7     		b	.L34
 465              	.L38:
 466 0056 00BF     		.align	2
 467              	.L37:
 468 0058 00000000 		.word	.LANCHOR0
 469 005c 14000000 		.word	.LC1
 470              	.LBE26:
 471              	.LBE28:
 472              		.cfi_endproc
 473              	.LFE12:
 474              		.size	chSchWakeupS, .-chSchWakeupS
 475              		.section	.text.chSchDoReschedule,"ax",%progbits
 476              		.align	2
 477              		.p2align 4,,15
 478              		.global	chSchDoReschedule
 479              		.thumb
 480              		.thumb_func
 481              		.type	chSchDoReschedule, %function
 482              	chSchDoReschedule:
 483              	.LFB14:
 484              		.loc 1 298 0
 485              		.cfi_startproc
 486              		@ args = 0, pretend = 0, frame = 0
 487              		@ frame_needed = 0, uses_anonymous_args = 0
 488 0000 38B5     		push	{r3, r4, r5, lr}
 489              	.LCFI5:
 490              		.cfi_def_cfa_offset 16
 491              		.cfi_offset 3, -16
 492              		.cfi_offset 4, -12
 493              		.cfi_offset 5, -8
 494              		.cfi_offset 14, -4
 495              		.loc 1 302 0
 496 0002 104C     		ldr	r4, .L41
 497 0004 1421     		movs	r1, #20
 498              	.LBB29:
 499              	.LBB30:
 500              		.loc 2 60 0
 501 0006 2368     		ldr	r3, [r4, #0]
 502              	.LBE30:
 503              	.LBE29:
 504              		.loc 1 304 0
 505 0008 E569     		ldr	r5, [r4, #28]
 506              	.LVL32:
 507              	.LBB34:
 508              	.LBB31:
 509              		.loc 2 62 0
 510 000a 1A68     		ldr	r2, [r3, #0]
ARM GAS  /var/folders/dt/0wfd0knj7gs46m8vwfzktm600000gn/T//ccmnLkkv.s 			page 10


 511              	.LBE31:
 512              	.LBE34:
 513              		.loc 1 302 0
 514 000c A161     		str	r1, [r4, #24]
 515              		.loc 1 307 0
 516 000e 0121     		movs	r1, #1
 517              	.LBB35:
 518              	.LBB32:
 519              		.loc 2 62 0
 520 0010 5460     		str	r4, [r2, #4]
 521              	.LBE32:
 522              	.LBE35:
 523              		.loc 1 307 0
 524 0012 83F82010 		strb	r1, [r3, #32]
 525              		.loc 1 308 0
 526 0016 2846     		mov	r0, r5
 527              	.LBB36:
 528              	.LBB33:
 529              		.loc 2 62 0
 530 0018 2260     		str	r2, [r4, #0]
 531              	.LBE33:
 532              	.LBE36:
 533              		.loc 1 306 0
 534 001a E361     		str	r3, [r4, #28]
 535              		.loc 1 308 0
 536 001c FFF7FEFF 		bl	chSchReadyI
 537              	.LVL33:
 538              		.loc 1 309 0
 539 0020 2846     		mov	r0, r5
 540 0022 FFF7FEFF 		bl	dbg_trace
 541              	.LVL34:
 542              	.LBB37:
 543 0026 EB69     		ldr	r3, [r5, #28]
 544 0028 ADF12402 		sub	r2, sp, #36
 545 002c 9342     		cmp	r3, r2
 546 002e 02D9     		bls	.L40
 547              		.loc 1 309 0 is_stmt 0 discriminator 1
 548 0030 0548     		ldr	r0, .L41+4
 549 0032 FFF7FEFF 		bl	chDbgPanic
 550              	.LVL35:
 551              	.L40:
 552              		.loc 1 309 0 discriminator 2
 553 0036 E069     		ldr	r0, [r4, #28]
 554 0038 2946     		mov	r1, r5
 555              	.LBE37:
 556              		.loc 1 310 0 is_stmt 1 discriminator 2
 557 003a BDE83840 		pop	{r3, r4, r5, lr}
 558              	.LBB38:
 559              		.loc 1 309 0 discriminator 2
 560 003e FFF7FEBF 		b	_port_switch
 561              	.LVL36:
 562              	.L42:
 563 0042 00BF     		.align	2
 564              	.L41:
 565 0044 00000000 		.word	.LANCHOR0
 566 0048 14000000 		.word	.LC1
 567              	.LBE38:
ARM GAS  /var/folders/dt/0wfd0knj7gs46m8vwfzktm600000gn/T//ccmnLkkv.s 			page 11


 568              		.cfi_endproc
 569              	.LFE14:
 570              		.size	chSchDoReschedule, .-chSchDoReschedule
 571 004c AFF30080 		.section	.text.chSchRescheduleS,"ax",%progbits
 572              		.align	2
 573              		.p2align 4,,15
 574              		.global	chSchRescheduleS
 575              		.thumb
 576              		.thumb_func
 577              		.type	chSchRescheduleS, %function
 578              	chSchRescheduleS:
 579              	.LFB13:
 580              		.loc 1 250 0
 581              		.cfi_startproc
 582              		@ args = 0, pretend = 0, frame = 0
 583              		@ frame_needed = 0, uses_anonymous_args = 0
 584 0000 08B5     		push	{r3, lr}
 585              	.LCFI6:
 586              		.cfi_def_cfa_offset 8
 587              		.cfi_offset 3, -8
 588              		.cfi_offset 14, -4
 589              		.loc 1 252 0
 590 0002 FFF7FEFF 		bl	chDbgCheckClassS
 591              	.LVL37:
 592              		.loc 1 254 0
 593 0006 064B     		ldr	r3, .L46
 594 0008 1A68     		ldr	r2, [r3, #0]
 595 000a DB69     		ldr	r3, [r3, #28]
 596 000c 9268     		ldr	r2, [r2, #8]
 597 000e 9B68     		ldr	r3, [r3, #8]
 598 0010 9A42     		cmp	r2, r3
 599 0012 00D8     		bhi	.L45
 600 0014 08BD     		pop	{r3, pc}
 601              	.L45:
 602              		.loc 1 256 0
 603 0016 BDE80840 		pop	{r3, lr}
 604              		.loc 1 255 0
 605 001a FFF7FEBF 		b	chSchDoReschedule
 606              	.LVL38:
 607              	.L47:
 608 001e 00BF     		.align	2
 609              	.L46:
 610 0020 00000000 		.word	.LANCHOR0
 611              		.cfi_endproc
 612              	.LFE13:
 613              		.size	chSchRescheduleS, .-chSchRescheduleS
 614              		.global	rlist
 615 0024 AFF30080 		.section	.rodata.str1.4,"aMS",%progbits,1
 615      AFF30080 
 615      AFF30080 
 616              		.align	2
 617              	.LC0:
 618 0000 63685363 		.ascii	"chSchReadyI(), #1\000"
 618      68526561 
 618      64794928 
 618      292C2023 
 618      3100
ARM GAS  /var/folders/dt/0wfd0knj7gs46m8vwfzktm600000gn/T//ccmnLkkv.s 			page 12


 619 0012 0000     		.space	2
 620              	.LC1:
 621 0014 73746163 		.ascii	"stack overflow\000"
 621      6B206F76 
 621      6572666C 
 621      6F7700
 622 0023 00       		.section	.bss.rlist,"aw",%nobits
 623              		.align	2
 624              		.set	.LANCHOR0,. + 0
 625              		.type	rlist, %object
 626              		.size	rlist, 32
 627              	rlist:
 628 0000 00000000 		.space	32
 628      00000000 
 628      00000000 
 628      00000000 
 628      00000000 
 629              		.text
 630              	.Letext0:
 631              		.file 3 "/Users/toxygen/Applications/yagarto-4.7.2/bin/../lib/gcc/arm-none-eabi/4.7.2/../../../../
 632              		.file 4 "../../os/ports/GCC/ARMCMx/chtypes.h"
 633              		.file 5 "../../os/kernel/include/chlists.h"
 634              		.file 6 "../../os/kernel/include/chthreads.h"
 635              		.file 7 "../../os/ports/GCC/ARMCMx/chcore_v7m.h"
 636              		.file 8 "../../os/kernel/include/chvt.h"
 637              		.file 9 "../../os/kernel/include/chschd.h"
 638              		.file 10 "../../os/kernel/include/chsem.h"
 639              		.file 11 "../../os/kernel/include/chmtx.h"
 640              		.file 12 "../../os/kernel/include/chdebug.h"
 641              		.section	.debug_info,"",%progbits
 642              	.Ldebug_info0:
 643 0000 E4090000 		.4byte	0x9e4
 644 0004 0200     		.2byte	0x2
 645 0006 00000000 		.4byte	.Ldebug_abbrev0
 646 000a 04       		.byte	0x4
 647 000b 01       		.uleb128 0x1
 648 000c F1010000 		.4byte	.LASF89
 649 0010 01       		.byte	0x1
 650 0011 77030000 		.4byte	.LASF90
 651 0015 09030000 		.4byte	.LASF91
 652 0019 10010000 		.4byte	.Ldebug_ranges0+0x110
 653 001d 00000000 		.4byte	0
 654 0021 00000000 		.4byte	0
 655 0025 00000000 		.4byte	.Ldebug_line0
 656 0029 02       		.uleb128 0x2
 657 002a 04       		.byte	0x4
 658 002b 05       		.byte	0x5
 659 002c 696E7400 		.ascii	"int\000"
 660 0030 03       		.uleb128 0x3
 661 0031 04       		.byte	0x4
 662 0032 07       		.byte	0x7
 663 0033 F1000000 		.4byte	.LASF0
 664 0037 03       		.uleb128 0x3
 665 0038 01       		.byte	0x1
 666 0039 06       		.byte	0x6
 667 003a 66000000 		.4byte	.LASF1
 668 003e 04       		.uleb128 0x4
ARM GAS  /var/folders/dt/0wfd0knj7gs46m8vwfzktm600000gn/T//ccmnLkkv.s 			page 13


 669 003f 9A030000 		.4byte	.LASF5
 670 0043 03       		.byte	0x3
 671 0044 2A       		.byte	0x2a
 672 0045 49000000 		.4byte	0x49
 673 0049 03       		.uleb128 0x3
 674 004a 01       		.byte	0x1
 675 004b 08       		.byte	0x8
 676 004c 2E020000 		.4byte	.LASF2
 677 0050 03       		.uleb128 0x3
 678 0051 02       		.byte	0x2
 679 0052 05       		.byte	0x5
 680 0053 4F020000 		.4byte	.LASF3
 681 0057 03       		.uleb128 0x3
 682 0058 02       		.byte	0x2
 683 0059 07       		.byte	0x7
 684 005a 44010000 		.4byte	.LASF4
 685 005e 04       		.uleb128 0x4
 686 005f 26020000 		.4byte	.LASF6
 687 0063 03       		.byte	0x3
 688 0064 4F       		.byte	0x4f
 689 0065 69000000 		.4byte	0x69
 690 0069 03       		.uleb128 0x3
 691 006a 04       		.byte	0x4
 692 006b 05       		.byte	0x5
 693 006c 82000000 		.4byte	.LASF7
 694 0070 04       		.uleb128 0x4
 695 0071 A9020000 		.4byte	.LASF8
 696 0075 03       		.byte	0x3
 697 0076 50       		.byte	0x50
 698 0077 7B000000 		.4byte	0x7b
 699 007b 03       		.uleb128 0x3
 700 007c 04       		.byte	0x4
 701 007d 07       		.byte	0x7
 702 007e 24010000 		.4byte	.LASF9
 703 0082 03       		.uleb128 0x3
 704 0083 08       		.byte	0x8
 705 0084 05       		.byte	0x5
 706 0085 58000000 		.4byte	.LASF10
 707 0089 04       		.uleb128 0x4
 708 008a 18000000 		.4byte	.LASF11
 709 008e 03       		.byte	0x3
 710 008f 78       		.byte	0x78
 711 0090 94000000 		.4byte	0x94
 712 0094 03       		.uleb128 0x3
 713 0095 08       		.byte	0x8
 714 0096 07       		.byte	0x7
 715 0097 21000000 		.4byte	.LASF12
 716 009b 04       		.uleb128 0x4
 717 009c 6A010000 		.4byte	.LASF13
 718 00a0 04       		.byte	0x4
 719 00a1 2F       		.byte	0x2f
 720 00a2 3E000000 		.4byte	0x3e
 721 00a6 04       		.uleb128 0x4
 722 00a7 8B000000 		.4byte	.LASF14
 723 00ab 04       		.byte	0x4
 724 00ac 30       		.byte	0x30
 725 00ad 3E000000 		.4byte	0x3e
ARM GAS  /var/folders/dt/0wfd0knj7gs46m8vwfzktm600000gn/T//ccmnLkkv.s 			page 14


 726 00b1 04       		.uleb128 0x4
 727 00b2 0F020000 		.4byte	.LASF15
 728 00b6 04       		.byte	0x4
 729 00b7 31       		.byte	0x31
 730 00b8 3E000000 		.4byte	0x3e
 731 00bc 04       		.uleb128 0x4
 732 00bd 1E020000 		.4byte	.LASF16
 733 00c1 04       		.byte	0x4
 734 00c2 32       		.byte	0x32
 735 00c3 70000000 		.4byte	0x70
 736 00c7 04       		.uleb128 0x4
 737 00c8 64010000 		.4byte	.LASF17
 738 00cc 04       		.byte	0x4
 739 00cd 33       		.byte	0x33
 740 00ce 5E000000 		.4byte	0x5e
 741 00d2 04       		.uleb128 0x4
 742 00d3 8F010000 		.4byte	.LASF18
 743 00d7 04       		.byte	0x4
 744 00d8 35       		.byte	0x35
 745 00d9 70000000 		.4byte	0x70
 746 00dd 04       		.uleb128 0x4
 747 00de EB020000 		.4byte	.LASF19
 748 00e2 04       		.byte	0x4
 749 00e3 36       		.byte	0x36
 750 00e4 70000000 		.4byte	0x70
 751 00e8 04       		.uleb128 0x4
 752 00e9 E0000000 		.4byte	.LASF20
 753 00ed 04       		.byte	0x4
 754 00ee 37       		.byte	0x37
 755 00ef 5E000000 		.4byte	0x5e
 756 00f3 04       		.uleb128 0x4
 757 00f4 7E020000 		.4byte	.LASF21
 758 00f8 05       		.byte	0x5
 759 00f9 2A       		.byte	0x2a
 760 00fa FE000000 		.4byte	0xfe
 761 00fe 05       		.uleb128 0x5
 762 00ff 7E020000 		.4byte	.LASF21
 763 0103 4C       		.byte	0x4c
 764 0104 06       		.byte	0x6
 765 0105 5E       		.byte	0x5e
 766 0106 23020000 		.4byte	0x223
 767 010a 06       		.uleb128 0x6
 768 010b 6F020000 		.4byte	.LASF22
 769 010f 06       		.byte	0x6
 770 0110 5F       		.byte	0x5f
 771 0111 48020000 		.4byte	0x248
 772 0115 02       		.byte	0x2
 773 0116 23       		.byte	0x23
 774 0117 00       		.uleb128 0
 775 0118 06       		.uleb128 0x6
 776 0119 17020000 		.4byte	.LASF23
 777 011d 06       		.byte	0x6
 778 011e 61       		.byte	0x61
 779 011f 48020000 		.4byte	0x248
 780 0123 02       		.byte	0x2
 781 0124 23       		.byte	0x23
 782 0125 04       		.uleb128 0x4
ARM GAS  /var/folders/dt/0wfd0knj7gs46m8vwfzktm600000gn/T//ccmnLkkv.s 			page 15


 783 0126 06       		.uleb128 0x6
 784 0127 41000000 		.4byte	.LASF24
 785 012b 06       		.byte	0x6
 786 012c 63       		.byte	0x63
 787 012d BC000000 		.4byte	0xbc
 788 0131 02       		.byte	0x2
 789 0132 23       		.byte	0x23
 790 0133 08       		.uleb128 0x8
 791 0134 06       		.uleb128 0x6
 792 0135 D7030000 		.4byte	.LASF25
 793 0139 06       		.byte	0x6
 794 013a 64       		.byte	0x64
 795 013b 20030000 		.4byte	0x320
 796 013f 02       		.byte	0x2
 797 0140 23       		.byte	0x23
 798 0141 0C       		.uleb128 0xc
 799 0142 06       		.uleb128 0x6
 800 0143 94000000 		.4byte	.LASF26
 801 0147 06       		.byte	0x6
 802 0148 66       		.byte	0x66
 803 0149 48020000 		.4byte	0x248
 804 014d 02       		.byte	0x2
 805 014e 23       		.byte	0x23
 806 014f 10       		.uleb128 0x10
 807 0150 06       		.uleb128 0x6
 808 0151 CE010000 		.4byte	.LASF27
 809 0155 06       		.byte	0x6
 810 0156 67       		.byte	0x67
 811 0157 48020000 		.4byte	0x248
 812 015b 02       		.byte	0x2
 813 015c 23       		.byte	0x23
 814 015d 14       		.uleb128 0x14
 815 015e 06       		.uleb128 0x6
 816 015f A9030000 		.4byte	.LASF28
 817 0163 06       		.byte	0x6
 818 0164 6E       		.byte	0x6e
 819 0165 F7040000 		.4byte	0x4f7
 820 0169 02       		.byte	0x2
 821 016a 23       		.byte	0x23
 822 016b 18       		.uleb128 0x18
 823 016c 06       		.uleb128 0x6
 824 016d E6000000 		.4byte	.LASF29
 825 0171 06       		.byte	0x6
 826 0172 74       		.byte	0x74
 827 0173 09050000 		.4byte	0x509
 828 0177 02       		.byte	0x2
 829 0178 23       		.byte	0x23
 830 0179 1C       		.uleb128 0x1c
 831 017a 06       		.uleb128 0x6
 832 017b 59020000 		.4byte	.LASF30
 833 017f 06       		.byte	0x6
 834 0180 79       		.byte	0x79
 835 0181 A6000000 		.4byte	0xa6
 836 0185 02       		.byte	0x2
 837 0186 23       		.byte	0x23
 838 0187 20       		.uleb128 0x20
 839 0188 06       		.uleb128 0x6
ARM GAS  /var/folders/dt/0wfd0knj7gs46m8vwfzktm600000gn/T//ccmnLkkv.s 			page 16


 840 0189 76020000 		.4byte	.LASF31
 841 018d 06       		.byte	0x6
 842 018e 7D       		.byte	0x7d
 843 018f 9B000000 		.4byte	0x9b
 844 0193 02       		.byte	0x2
 845 0194 23       		.byte	0x23
 846 0195 21       		.uleb128 0x21
 847 0196 06       		.uleb128 0x6
 848 0197 66030000 		.4byte	.LASF32
 849 019b 06       		.byte	0x6
 850 019c 82       		.byte	0x82
 851 019d B1000000 		.4byte	0xb1
 852 01a1 02       		.byte	0x2
 853 01a2 23       		.byte	0x23
 854 01a3 22       		.uleb128 0x22
 855 01a4 06       		.uleb128 0x6
 856 01a5 37030000 		.4byte	.LASF33
 857 01a9 06       		.byte	0x6
 858 01aa 89       		.byte	0x89
 859 01ab CB030000 		.4byte	0x3cb
 860 01af 02       		.byte	0x2
 861 01b0 23       		.byte	0x23
 862 01b1 24       		.uleb128 0x24
 863 01b2 07       		.uleb128 0x7
 864 01b3 705F7500 		.ascii	"p_u\000"
 865 01b7 06       		.byte	0x6
 866 01b8 AE       		.byte	0xae
 867 01b9 C2040000 		.4byte	0x4c2
 868 01bd 02       		.byte	0x2
 869 01be 23       		.byte	0x23
 870 01bf 28       		.uleb128 0x28
 871 01c0 06       		.uleb128 0x6
 872 01c1 DD030000 		.4byte	.LASF34
 873 01c5 06       		.byte	0x6
 874 01c6 B3       		.byte	0xb3
 875 01c7 70020000 		.4byte	0x270
 876 01cb 02       		.byte	0x2
 877 01cc 23       		.byte	0x23
 878 01cd 2C       		.uleb128 0x2c
 879 01ce 06       		.uleb128 0x6
 880 01cf 45030000 		.4byte	.LASF35
 881 01d3 06       		.byte	0x6
 882 01d4 B9       		.byte	0xb9
 883 01d5 4E020000 		.4byte	0x24e
 884 01d9 02       		.byte	0x2
 885 01da 23       		.byte	0x23
 886 01db 30       		.uleb128 0x30
 887 01dc 06       		.uleb128 0x6
 888 01dd 00000000 		.4byte	.LASF36
 889 01e1 06       		.byte	0x6
 890 01e2 BD       		.byte	0xbd
 891 01e3 C7000000 		.4byte	0xc7
 892 01e7 02       		.byte	0x2
 893 01e8 23       		.byte	0x23
 894 01e9 38       		.uleb128 0x38
 895 01ea 06       		.uleb128 0x6
 896 01eb 9E020000 		.4byte	.LASF37
ARM GAS  /var/folders/dt/0wfd0knj7gs46m8vwfzktm600000gn/T//ccmnLkkv.s 			page 17


 897 01ef 06       		.byte	0x6
 898 01f0 C3       		.byte	0xc3
 899 01f1 D2000000 		.4byte	0xd2
 900 01f5 02       		.byte	0x2
 901 01f6 23       		.byte	0x23
 902 01f7 3C       		.uleb128 0x3c
 903 01f8 06       		.uleb128 0x6
 904 01f9 45020000 		.4byte	.LASF38
 905 01fd 06       		.byte	0x6
 906 01fe CA       		.byte	0xca
 907 01ff 0F050000 		.4byte	0x50f
 908 0203 02       		.byte	0x2
 909 0204 23       		.byte	0x23
 910 0205 40       		.uleb128 0x40
 911 0206 06       		.uleb128 0x6
 912 0207 F5020000 		.4byte	.LASF39
 913 020b 06       		.byte	0x6
 914 020c CE       		.byte	0xce
 915 020d BC000000 		.4byte	0xbc
 916 0211 02       		.byte	0x2
 917 0212 23       		.byte	0x23
 918 0213 44       		.uleb128 0x44
 919 0214 06       		.uleb128 0x6
 920 0215 72000000 		.4byte	.LASF40
 921 0219 06       		.byte	0x6
 922 021a D4       		.byte	0xd4
 923 021b 86020000 		.4byte	0x286
 924 021f 02       		.byte	0x2
 925 0220 23       		.byte	0x23
 926 0221 48       		.uleb128 0x48
 927 0222 00       		.byte	0
 928 0223 08       		.uleb128 0x8
 929 0224 08       		.byte	0x8
 930 0225 05       		.byte	0x5
 931 0226 61       		.byte	0x61
 932 0227 48020000 		.4byte	0x248
 933 022b 06       		.uleb128 0x6
 934 022c 6F020000 		.4byte	.LASF22
 935 0230 05       		.byte	0x5
 936 0231 62       		.byte	0x62
 937 0232 48020000 		.4byte	0x248
 938 0236 02       		.byte	0x2
 939 0237 23       		.byte	0x23
 940 0238 00       		.uleb128 0
 941 0239 06       		.uleb128 0x6
 942 023a 17020000 		.4byte	.LASF23
 943 023e 05       		.byte	0x5
 944 023f 64       		.byte	0x64
 945 0240 48020000 		.4byte	0x248
 946 0244 02       		.byte	0x2
 947 0245 23       		.byte	0x23
 948 0246 04       		.uleb128 0x4
 949 0247 00       		.byte	0
 950 0248 09       		.uleb128 0x9
 951 0249 04       		.byte	0x4
 952 024a F3000000 		.4byte	0xf3
 953 024e 04       		.uleb128 0x4
ARM GAS  /var/folders/dt/0wfd0knj7gs46m8vwfzktm600000gn/T//ccmnLkkv.s 			page 18


 954 024f DC010000 		.4byte	.LASF41
 955 0253 05       		.byte	0x5
 956 0254 66       		.byte	0x66
 957 0255 23020000 		.4byte	0x223
 958 0259 08       		.uleb128 0x8
 959 025a 04       		.byte	0x4
 960 025b 05       		.byte	0x5
 961 025c 6B       		.byte	0x6b
 962 025d 70020000 		.4byte	0x270
 963 0261 06       		.uleb128 0x6
 964 0262 6F020000 		.4byte	.LASF22
 965 0266 05       		.byte	0x5
 966 0267 6D       		.byte	0x6d
 967 0268 48020000 		.4byte	0x248
 968 026c 02       		.byte	0x2
 969 026d 23       		.byte	0x23
 970 026e 00       		.uleb128 0
 971 026f 00       		.byte	0
 972 0270 04       		.uleb128 0x4
 973 0271 83010000 		.4byte	.LASF42
 974 0275 05       		.byte	0x5
 975 0276 70       		.byte	0x70
 976 0277 59020000 		.4byte	0x259
 977 027b 04       		.uleb128 0x4
 978 027c BD000000 		.4byte	.LASF43
 979 0280 07       		.byte	0x7
 980 0281 D7       		.byte	0xd7
 981 0282 86020000 		.4byte	0x286
 982 0286 0A       		.uleb128 0xa
 983 0287 04       		.byte	0x4
 984 0288 04       		.uleb128 0x4
 985 0289 A1010000 		.4byte	.LASF44
 986 028d 07       		.byte	0x7
 987 028e DD       		.byte	0xdd
 988 028f 89000000 		.4byte	0x89
 989 0293 05       		.uleb128 0x5
 990 0294 3E030000 		.4byte	.LASF45
 991 0298 24       		.byte	0x24
 992 0299 07       		.byte	0x7
 993 029a FE       		.byte	0xfe
 994 029b 20030000 		.4byte	0x320
 995 029f 0B       		.uleb128 0xb
 996 02a0 723400   		.ascii	"r4\000"
 997 02a3 07       		.byte	0x7
 998 02a4 1101     		.2byte	0x111
 999 02a6 7B020000 		.4byte	0x27b
 1000 02aa 02       		.byte	0x2
 1001 02ab 23       		.byte	0x23
 1002 02ac 00       		.uleb128 0
 1003 02ad 0B       		.uleb128 0xb
 1004 02ae 723500   		.ascii	"r5\000"
 1005 02b1 07       		.byte	0x7
 1006 02b2 1201     		.2byte	0x112
 1007 02b4 7B020000 		.4byte	0x27b
 1008 02b8 02       		.byte	0x2
 1009 02b9 23       		.byte	0x23
 1010 02ba 04       		.uleb128 0x4
ARM GAS  /var/folders/dt/0wfd0knj7gs46m8vwfzktm600000gn/T//ccmnLkkv.s 			page 19


 1011 02bb 0B       		.uleb128 0xb
 1012 02bc 723600   		.ascii	"r6\000"
 1013 02bf 07       		.byte	0x7
 1014 02c0 1301     		.2byte	0x113
 1015 02c2 7B020000 		.4byte	0x27b
 1016 02c6 02       		.byte	0x2
 1017 02c7 23       		.byte	0x23
 1018 02c8 08       		.uleb128 0x8
 1019 02c9 0B       		.uleb128 0xb
 1020 02ca 723700   		.ascii	"r7\000"
 1021 02cd 07       		.byte	0x7
 1022 02ce 1401     		.2byte	0x114
 1023 02d0 7B020000 		.4byte	0x27b
 1024 02d4 02       		.byte	0x2
 1025 02d5 23       		.byte	0x23
 1026 02d6 0C       		.uleb128 0xc
 1027 02d7 0B       		.uleb128 0xb
 1028 02d8 723800   		.ascii	"r8\000"
 1029 02db 07       		.byte	0x7
 1030 02dc 1501     		.2byte	0x115
 1031 02de 7B020000 		.4byte	0x27b
 1032 02e2 02       		.byte	0x2
 1033 02e3 23       		.byte	0x23
 1034 02e4 10       		.uleb128 0x10
 1035 02e5 0B       		.uleb128 0xb
 1036 02e6 723900   		.ascii	"r9\000"
 1037 02e9 07       		.byte	0x7
 1038 02ea 1601     		.2byte	0x116
 1039 02ec 7B020000 		.4byte	0x27b
 1040 02f0 02       		.byte	0x2
 1041 02f1 23       		.byte	0x23
 1042 02f2 14       		.uleb128 0x14
 1043 02f3 0B       		.uleb128 0xb
 1044 02f4 72313000 		.ascii	"r10\000"
 1045 02f8 07       		.byte	0x7
 1046 02f9 1701     		.2byte	0x117
 1047 02fb 7B020000 		.4byte	0x27b
 1048 02ff 02       		.byte	0x2
 1049 0300 23       		.byte	0x23
 1050 0301 18       		.uleb128 0x18
 1051 0302 0B       		.uleb128 0xb
 1052 0303 72313100 		.ascii	"r11\000"
 1053 0307 07       		.byte	0x7
 1054 0308 1801     		.2byte	0x118
 1055 030a 7B020000 		.4byte	0x27b
 1056 030e 02       		.byte	0x2
 1057 030f 23       		.byte	0x23
 1058 0310 1C       		.uleb128 0x1c
 1059 0311 0B       		.uleb128 0xb
 1060 0312 6C7200   		.ascii	"lr\000"
 1061 0315 07       		.byte	0x7
 1062 0316 1901     		.2byte	0x119
 1063 0318 7B020000 		.4byte	0x27b
 1064 031c 02       		.byte	0x2
 1065 031d 23       		.byte	0x23
 1066 031e 20       		.uleb128 0x20
 1067 031f 00       		.byte	0
ARM GAS  /var/folders/dt/0wfd0knj7gs46m8vwfzktm600000gn/T//ccmnLkkv.s 			page 20


 1068 0320 0C       		.uleb128 0xc
 1069 0321 3C010000 		.4byte	.LASF46
 1070 0325 04       		.byte	0x4
 1071 0326 07       		.byte	0x7
 1072 0327 2301     		.2byte	0x123
 1073 0329 3D030000 		.4byte	0x33d
 1074 032d 0B       		.uleb128 0xb
 1075 032e 72313300 		.ascii	"r13\000"
 1076 0332 07       		.byte	0x7
 1077 0333 2401     		.2byte	0x124
 1078 0335 3D030000 		.4byte	0x33d
 1079 0339 02       		.byte	0x2
 1080 033a 23       		.byte	0x23
 1081 033b 00       		.uleb128 0
 1082 033c 00       		.byte	0
 1083 033d 09       		.uleb128 0x9
 1084 033e 04       		.byte	0x4
 1085 033f 93020000 		.4byte	0x293
 1086 0343 03       		.uleb128 0x3
 1087 0344 04       		.byte	0x4
 1088 0345 07       		.byte	0x7
 1089 0346 B4010000 		.4byte	.LASF47
 1090 034a 04       		.uleb128 0x4
 1091 034b 00030000 		.4byte	.LASF48
 1092 034f 08       		.byte	0x8
 1093 0350 53       		.byte	0x53
 1094 0351 55030000 		.4byte	0x355
 1095 0355 09       		.uleb128 0x9
 1096 0356 04       		.byte	0x4
 1097 0357 5B030000 		.4byte	0x35b
 1098 035b 0D       		.uleb128 0xd
 1099 035c 01       		.byte	0x1
 1100 035d 67030000 		.4byte	0x367
 1101 0361 0E       		.uleb128 0xe
 1102 0362 86020000 		.4byte	0x286
 1103 0366 00       		.byte	0
 1104 0367 04       		.uleb128 0x4
 1105 0368 BA020000 		.4byte	.LASF49
 1106 036c 08       		.byte	0x8
 1107 036d 58       		.byte	0x58
 1108 036e 72030000 		.4byte	0x372
 1109 0372 05       		.uleb128 0x5
 1110 0373 BA020000 		.4byte	.LASF49
 1111 0377 14       		.byte	0x14
 1112 0378 08       		.byte	0x8
 1113 0379 5F       		.byte	0x5f
 1114 037a C5030000 		.4byte	0x3c5
 1115 037e 06       		.uleb128 0x6
 1116 037f 05010000 		.4byte	.LASF50
 1117 0383 08       		.byte	0x8
 1118 0384 60       		.byte	0x60
 1119 0385 C5030000 		.4byte	0x3c5
 1120 0389 02       		.byte	0x2
 1121 038a 23       		.byte	0x23
 1122 038b 00       		.uleb128 0
 1123 038c 06       		.uleb128 0x6
 1124 038d C6000000 		.4byte	.LASF51
ARM GAS  /var/folders/dt/0wfd0knj7gs46m8vwfzktm600000gn/T//ccmnLkkv.s 			page 21


 1125 0391 08       		.byte	0x8
 1126 0392 62       		.byte	0x62
 1127 0393 C5030000 		.4byte	0x3c5
 1128 0397 02       		.byte	0x2
 1129 0398 23       		.byte	0x23
 1130 0399 04       		.uleb128 0x4
 1131 039a 06       		.uleb128 0x6
 1132 039b AC010000 		.4byte	.LASF52
 1133 039f 08       		.byte	0x8
 1134 03a0 64       		.byte	0x64
 1135 03a1 DD000000 		.4byte	0xdd
 1136 03a5 02       		.byte	0x2
 1137 03a6 23       		.byte	0x23
 1138 03a7 08       		.uleb128 0x8
 1139 03a8 06       		.uleb128 0x6
 1140 03a9 BD010000 		.4byte	.LASF53
 1141 03ad 08       		.byte	0x8
 1142 03ae 65       		.byte	0x65
 1143 03af 4A030000 		.4byte	0x34a
 1144 03b3 02       		.byte	0x2
 1145 03b4 23       		.byte	0x23
 1146 03b5 0C       		.uleb128 0xc
 1147 03b6 06       		.uleb128 0x6
 1148 03b7 55030000 		.4byte	.LASF54
 1149 03bb 08       		.byte	0x8
 1150 03bc 67       		.byte	0x67
 1151 03bd 86020000 		.4byte	0x286
 1152 03c1 02       		.byte	0x2
 1153 03c2 23       		.byte	0x23
 1154 03c3 10       		.uleb128 0x10
 1155 03c4 00       		.byte	0
 1156 03c5 09       		.uleb128 0x9
 1157 03c6 04       		.byte	0x4
 1158 03c7 67030000 		.4byte	0x367
 1159 03cb 0F       		.uleb128 0xf
 1160 03cc DD000000 		.4byte	0xdd
 1161 03d0 08       		.uleb128 0x8
 1162 03d1 20       		.byte	0x20
 1163 03d2 09       		.byte	0x9
 1164 03d3 5E       		.byte	0x5e
 1165 03d4 3B040000 		.4byte	0x43b
 1166 03d8 06       		.uleb128 0x6
 1167 03d9 B2020000 		.4byte	.LASF55
 1168 03dd 09       		.byte	0x9
 1169 03de 5F       		.byte	0x5f
 1170 03df 4E020000 		.4byte	0x24e
 1171 03e3 02       		.byte	0x2
 1172 03e4 23       		.byte	0x23
 1173 03e5 00       		.uleb128 0
 1174 03e6 06       		.uleb128 0x6
 1175 03e7 61020000 		.4byte	.LASF56
 1176 03eb 09       		.byte	0x9
 1177 03ec 60       		.byte	0x60
 1178 03ed BC000000 		.4byte	0xbc
 1179 03f1 02       		.byte	0x2
 1180 03f2 23       		.byte	0x23
 1181 03f3 08       		.uleb128 0x8
ARM GAS  /var/folders/dt/0wfd0knj7gs46m8vwfzktm600000gn/T//ccmnLkkv.s 			page 22


 1182 03f4 06       		.uleb128 0x6
 1183 03f5 D6010000 		.4byte	.LASF57
 1184 03f9 09       		.byte	0x9
 1185 03fa 62       		.byte	0x62
 1186 03fb 20030000 		.4byte	0x320
 1187 03ff 02       		.byte	0x2
 1188 0400 23       		.byte	0x23
 1189 0401 0C       		.uleb128 0xc
 1190 0402 06       		.uleb128 0x6
 1191 0403 B5000000 		.4byte	.LASF58
 1192 0407 09       		.byte	0x9
 1193 0408 65       		.byte	0x65
 1194 0409 48020000 		.4byte	0x248
 1195 040d 02       		.byte	0x2
 1196 040e 23       		.byte	0x23
 1197 040f 10       		.uleb128 0x10
 1198 0410 06       		.uleb128 0x6
 1199 0411 07020000 		.4byte	.LASF59
 1200 0415 09       		.byte	0x9
 1201 0416 66       		.byte	0x66
 1202 0417 48020000 		.4byte	0x248
 1203 041b 02       		.byte	0x2
 1204 041c 23       		.byte	0x23
 1205 041d 14       		.uleb128 0x14
 1206 041e 06       		.uleb128 0x6
 1207 041f C5030000 		.4byte	.LASF60
 1208 0423 09       		.byte	0x9
 1209 0424 6A       		.byte	0x6a
 1210 0425 E8000000 		.4byte	0xe8
 1211 0429 02       		.byte	0x2
 1212 042a 23       		.byte	0x23
 1213 042b 18       		.uleb128 0x18
 1214 042c 06       		.uleb128 0x6
 1215 042d FD010000 		.4byte	.LASF61
 1216 0431 09       		.byte	0x9
 1217 0432 6C       		.byte	0x6c
 1218 0433 48020000 		.4byte	0x248
 1219 0437 02       		.byte	0x2
 1220 0438 23       		.byte	0x23
 1221 0439 1C       		.uleb128 0x1c
 1222 043a 00       		.byte	0
 1223 043b 04       		.uleb128 0x4
 1224 043c 6D030000 		.4byte	.LASF62
 1225 0440 09       		.byte	0x9
 1226 0441 6E       		.byte	0x6e
 1227 0442 D0030000 		.4byte	0x3d0
 1228 0446 05       		.uleb128 0x5
 1229 0447 5C030000 		.4byte	.LASF63
 1230 044b 0C       		.byte	0xc
 1231 044c 0A       		.byte	0xa
 1232 044d 2C       		.byte	0x2c
 1233 044e 6F040000 		.4byte	0x46f
 1234 0452 06       		.uleb128 0x6
 1235 0453 9C000000 		.4byte	.LASF64
 1236 0457 0A       		.byte	0xa
 1237 0458 2D       		.byte	0x2d
 1238 0459 4E020000 		.4byte	0x24e
ARM GAS  /var/folders/dt/0wfd0knj7gs46m8vwfzktm600000gn/T//ccmnLkkv.s 			page 23


 1239 045d 02       		.byte	0x2
 1240 045e 23       		.byte	0x23
 1241 045f 00       		.uleb128 0
 1242 0460 06       		.uleb128 0x6
 1243 0461 36010000 		.4byte	.LASF65
 1244 0465 0A       		.byte	0xa
 1245 0466 2F       		.byte	0x2f
 1246 0467 E8000000 		.4byte	0xe8
 1247 046b 02       		.byte	0x2
 1248 046c 23       		.byte	0x23
 1249 046d 08       		.uleb128 0x8
 1250 046e 00       		.byte	0
 1251 046f 04       		.uleb128 0x4
 1252 0470 5C030000 		.4byte	.LASF63
 1253 0474 0A       		.byte	0xa
 1254 0475 30       		.byte	0x30
 1255 0476 46040000 		.4byte	0x446
 1256 047a 05       		.uleb128 0x5
 1257 047b 9B010000 		.4byte	.LASF66
 1258 047f 10       		.byte	0x10
 1259 0480 0B       		.byte	0xb
 1260 0481 2C       		.byte	0x2c
 1261 0482 B1040000 		.4byte	0x4b1
 1262 0486 06       		.uleb128 0x6
 1263 0487 7A000000 		.4byte	.LASF67
 1264 048b 0B       		.byte	0xb
 1265 048c 2D       		.byte	0x2d
 1266 048d 4E020000 		.4byte	0x24e
 1267 0491 02       		.byte	0x2
 1268 0492 23       		.byte	0x23
 1269 0493 00       		.uleb128 0
 1270 0494 06       		.uleb128 0x6
 1271 0495 CF030000 		.4byte	.LASF68
 1272 0499 0B       		.byte	0xb
 1273 049a 2F       		.byte	0x2f
 1274 049b 48020000 		.4byte	0x248
 1275 049f 02       		.byte	0x2
 1276 04a0 23       		.byte	0x23
 1277 04a1 08       		.uleb128 0x8
 1278 04a2 06       		.uleb128 0x6
 1279 04a3 E4020000 		.4byte	.LASF69
 1280 04a7 0B       		.byte	0xb
 1281 04a8 31       		.byte	0x31
 1282 04a9 B1040000 		.4byte	0x4b1
 1283 04ad 02       		.byte	0x2
 1284 04ae 23       		.byte	0x23
 1285 04af 0C       		.uleb128 0xc
 1286 04b0 00       		.byte	0
 1287 04b1 09       		.uleb128 0x9
 1288 04b2 04       		.byte	0x4
 1289 04b3 7A040000 		.4byte	0x47a
 1290 04b7 04       		.uleb128 0x4
 1291 04b8 9B010000 		.4byte	.LASF66
 1292 04bc 0B       		.byte	0xb
 1293 04bd 33       		.byte	0x33
 1294 04be 7A040000 		.4byte	0x47a
 1295 04c2 10       		.uleb128 0x10
ARM GAS  /var/folders/dt/0wfd0knj7gs46m8vwfzktm600000gn/T//ccmnLkkv.s 			page 24


 1296 04c3 04       		.byte	0x4
 1297 04c4 06       		.byte	0x6
 1298 04c5 90       		.byte	0x90
 1299 04c6 F7040000 		.4byte	0x4f7
 1300 04ca 11       		.uleb128 0x11
 1301 04cb 11000000 		.4byte	.LASF70
 1302 04cf 06       		.byte	0x6
 1303 04d0 97       		.byte	0x97
 1304 04d1 C7000000 		.4byte	0xc7
 1305 04d5 11       		.uleb128 0x11
 1306 04d6 38000000 		.4byte	.LASF71
 1307 04da 06       		.byte	0x6
 1308 04db 9E       		.byte	0x9e
 1309 04dc C7000000 		.4byte	0xc7
 1310 04e0 11       		.uleb128 0x11
 1311 04e1 A2030000 		.4byte	.LASF72
 1312 04e5 06       		.byte	0x6
 1313 04e6 A5       		.byte	0xa5
 1314 04e7 86020000 		.4byte	0x286
 1315 04eb 11       		.uleb128 0x11
 1316 04ec 68020000 		.4byte	.LASF73
 1317 04f0 06       		.byte	0x6
 1318 04f1 AC       		.byte	0xac
 1319 04f2 D2000000 		.4byte	0xd2
 1320 04f6 00       		.byte	0
 1321 04f7 09       		.uleb128 0x9
 1322 04f8 04       		.byte	0x4
 1323 04f9 FD040000 		.4byte	0x4fd
 1324 04fd 12       		.uleb128 0x12
 1325 04fe 02050000 		.4byte	0x502
 1326 0502 03       		.uleb128 0x3
 1327 0503 01       		.byte	0x1
 1328 0504 08       		.byte	0x8
 1329 0505 C7020000 		.4byte	.LASF74
 1330 0509 09       		.uleb128 0x9
 1331 050a 04       		.byte	0x4
 1332 050b 88020000 		.4byte	0x288
 1333 050f 09       		.uleb128 0x9
 1334 0510 04       		.byte	0x4
 1335 0511 B7040000 		.4byte	0x4b7
 1336 0515 13       		.uleb128 0x13
 1337 0516 E9010000 		.4byte	.LASF75
 1338 051a 02       		.byte	0x2
 1339 051b 49       		.byte	0x49
 1340 051c 01       		.byte	0x1
 1341 051d 48020000 		.4byte	0x248
 1342 0521 03       		.byte	0x3
 1343 0522 31050000 		.4byte	0x531
 1344 0526 14       		.uleb128 0x14
 1345 0527 747000   		.ascii	"tp\000"
 1346 052a 02       		.byte	0x2
 1347 052b 49       		.byte	0x49
 1348 052c 48020000 		.4byte	0x248
 1349 0530 00       		.byte	0
 1350 0531 13       		.uleb128 0x13
 1351 0532 CC020000 		.4byte	.LASF76
 1352 0536 02       		.byte	0x2
ARM GAS  /var/folders/dt/0wfd0knj7gs46m8vwfzktm600000gn/T//ccmnLkkv.s 			page 25


 1353 0537 3B       		.byte	0x3b
 1354 0538 01       		.byte	0x1
 1355 0539 48020000 		.4byte	0x248
 1356 053d 03       		.byte	0x3
 1357 053e 58050000 		.4byte	0x558
 1358 0542 14       		.uleb128 0x14
 1359 0543 74717000 		.ascii	"tqp\000"
 1360 0547 02       		.byte	0x2
 1361 0548 3B       		.byte	0x3b
 1362 0549 58050000 		.4byte	0x558
 1363 054d 15       		.uleb128 0x15
 1364 054e 747000   		.ascii	"tp\000"
 1365 0551 02       		.byte	0x2
 1366 0552 3C       		.byte	0x3c
 1367 0553 48020000 		.4byte	0x248
 1368 0557 00       		.byte	0
 1369 0558 09       		.uleb128 0x9
 1370 0559 04       		.byte	0x4
 1371 055a 4E020000 		.4byte	0x24e
 1372 055e 16       		.uleb128 0x16
 1373 055f 01       		.byte	0x1
 1374 0560 48000000 		.4byte	.LASF92
 1375 0564 01       		.byte	0x1
 1376 0565 37       		.byte	0x37
 1377 0566 01       		.byte	0x1
 1378 0567 00000000 		.4byte	.LFB7
 1379 056b 1A000000 		.4byte	.LFE7
 1380 056f 02       		.byte	0x2
 1381 0570 7D       		.byte	0x7d
 1382 0571 00       		.sleb128 0
 1383 0572 01       		.byte	0x1
 1384 0573 17       		.uleb128 0x17
 1385 0574 01       		.byte	0x1
 1386 0575 D8020000 		.4byte	.LASF78
 1387 0579 01       		.byte	0x1
 1388 057a 52       		.byte	0x52
 1389 057b 01       		.byte	0x1
 1390 057c 48020000 		.4byte	0x248
 1391 0580 00000000 		.4byte	.LFB8
 1392 0584 40000000 		.4byte	.LFE8
 1393 0588 00000000 		.4byte	.LLST0
 1394 058c 01       		.byte	0x1
 1395 058d C1050000 		.4byte	0x5c1
 1396 0591 18       		.uleb128 0x18
 1397 0592 747000   		.ascii	"tp\000"
 1398 0595 01       		.byte	0x1
 1399 0596 52       		.byte	0x52
 1400 0597 48020000 		.4byte	0x248
 1401 059b 20000000 		.4byte	.LLST1
 1402 059f 19       		.uleb128 0x19
 1403 05a0 637000   		.ascii	"cp\000"
 1404 05a3 01       		.byte	0x1
 1405 05a4 53       		.byte	0x53
 1406 05a5 48020000 		.4byte	0x248
 1407 05a9 54000000 		.4byte	.LLST2
 1408 05ad 1A       		.uleb128 0x1a
 1409 05ae 36000000 		.4byte	.LVL6
ARM GAS  /var/folders/dt/0wfd0knj7gs46m8vwfzktm600000gn/T//ccmnLkkv.s 			page 26


 1410 05b2 62090000 		.4byte	0x962
 1411 05b6 1B       		.uleb128 0x1b
 1412 05b7 01       		.byte	0x1
 1413 05b8 50       		.byte	0x50
 1414 05b9 05       		.byte	0x5
 1415 05ba 03       		.byte	0x3
 1416 05bb 00000000 		.4byte	.LC0
 1417 05bf 00       		.byte	0
 1418 05c0 00       		.byte	0
 1419 05c1 1C       		.uleb128 0x1c
 1420 05c2 FE000000 		.4byte	.LASF93
 1421 05c6 01       		.byte	0x1
 1422 05c7 85       		.byte	0x85
 1423 05c8 01       		.byte	0x1
 1424 05c9 00000000 		.4byte	.LFB10
 1425 05cd 38000000 		.4byte	.LFE10
 1426 05d1 02       		.byte	0x2
 1427 05d2 7D       		.byte	0x7d
 1428 05d3 00       		.sleb128 0
 1429 05d4 01       		.byte	0x1
 1430 05d5 24060000 		.4byte	0x624
 1431 05d9 18       		.uleb128 0x18
 1432 05da 7000     		.ascii	"p\000"
 1433 05dc 01       		.byte	0x1
 1434 05dd 85       		.byte	0x85
 1435 05de 86020000 		.4byte	0x286
 1436 05e2 67000000 		.4byte	.LLST3
 1437 05e6 19       		.uleb128 0x19
 1438 05e7 747000   		.ascii	"tp\000"
 1439 05ea 01       		.byte	0x1
 1440 05eb 86       		.byte	0x86
 1441 05ec 48020000 		.4byte	0x248
 1442 05f0 67000000 		.4byte	.LLST3
 1443 05f4 1D       		.uleb128 0x1d
 1444 05f5 15050000 		.4byte	0x515
 1445 05f9 22000000 		.4byte	.LBB10
 1446 05fd 2C000000 		.4byte	.LBE10
 1447 0601 01       		.byte	0x1
 1448 0602 9B       		.byte	0x9b
 1449 0603 11060000 		.4byte	0x611
 1450 0607 1E       		.uleb128 0x1e
 1451 0608 26050000 		.4byte	0x526
 1452 060c 93000000 		.4byte	.LLST5
 1453 0610 00       		.byte	0
 1454 0611 1F       		.uleb128 0x1f
 1455 0612 36000000 		.4byte	.LVL10
 1456 0616 01       		.byte	0x1
 1457 0617 73050000 		.4byte	0x573
 1458 061b 1B       		.uleb128 0x1b
 1459 061c 01       		.byte	0x1
 1460 061d 50       		.byte	0x50
 1461 061e 03       		.byte	0x3
 1462 061f F3       		.byte	0xf3
 1463 0620 01       		.uleb128 0x1
 1464 0621 50       		.byte	0x50
 1465 0622 00       		.byte	0
 1466 0623 00       		.byte	0
ARM GAS  /var/folders/dt/0wfd0knj7gs46m8vwfzktm600000gn/T//ccmnLkkv.s 			page 27


 1467 0624 20       		.uleb128 0x20
 1468 0625 01       		.byte	0x1
 1469 0626 90020000 		.4byte	.LASF81
 1470 062a 01       		.byte	0x1
 1471 062b 72       		.byte	0x72
 1472 062c 01       		.byte	0x1
 1473 062d 00000000 		.4byte	.LFB9
 1474 0631 50000000 		.4byte	.LFE9
 1475 0635 A6000000 		.4byte	.LLST6
 1476 0639 01       		.byte	0x1
 1477 063a E2060000 		.4byte	0x6e2
 1478 063e 21       		.uleb128 0x21
 1479 063f 3C020000 		.4byte	.LASF77
 1480 0643 01       		.byte	0x1
 1481 0644 72       		.byte	0x72
 1482 0645 A6000000 		.4byte	0xa6
 1483 0649 C6000000 		.4byte	.LLST7
 1484 064d 22       		.uleb128 0x22
 1485 064e 6F747000 		.ascii	"otp\000"
 1486 0652 01       		.byte	0x1
 1487 0653 73       		.byte	0x73
 1488 0654 48020000 		.4byte	0x248
 1489 0658 01       		.byte	0x1
 1490 0659 55       		.byte	0x55
 1491 065a 23       		.uleb128 0x23
 1492 065b 31050000 		.4byte	0x531
 1493 065f 0A000000 		.4byte	.LBB12
 1494 0663 00000000 		.4byte	.Ldebug_ranges0+0
 1495 0667 01       		.byte	0x1
 1496 0668 7B       		.byte	0x7b
 1497 0669 89060000 		.4byte	0x689
 1498 066d 24       		.uleb128 0x24
 1499 066e 42050000 		.4byte	0x542
 1500 0672 06       		.byte	0x6
 1501 0673 03       		.byte	0x3
 1502 0674 00000000 		.4byte	rlist
 1503 0678 9F       		.byte	0x9f
 1504 0679 25       		.uleb128 0x25
 1505 067a 28000000 		.4byte	.Ldebug_ranges0+0x28
 1506 067e 26       		.uleb128 0x26
 1507 067f 4D050000 		.4byte	0x54d
 1508 0683 E7000000 		.4byte	.LLST8
 1509 0687 00       		.byte	0
 1510 0688 00       		.byte	0
 1511 0689 27       		.uleb128 0x27
 1512 068a 50000000 		.4byte	.Ldebug_ranges0+0x50
 1513 068e C8060000 		.4byte	0x6c8
 1514 0692 22       		.uleb128 0x22
 1515 0693 72313300 		.ascii	"r13\000"
 1516 0697 01       		.byte	0x1
 1517 0698 7D       		.byte	0x7d
 1518 0699 3D030000 		.4byte	0x33d
 1519 069d 01       		.byte	0x1
 1520 069e 5D       		.byte	0x5d
 1521 069f 28       		.uleb128 0x28
 1522 06a0 3A000000 		.4byte	.LVL16
 1523 06a4 62090000 		.4byte	0x962
ARM GAS  /var/folders/dt/0wfd0knj7gs46m8vwfzktm600000gn/T//ccmnLkkv.s 			page 28


 1524 06a8 B6060000 		.4byte	0x6b6
 1525 06ac 1B       		.uleb128 0x1b
 1526 06ad 01       		.byte	0x1
 1527 06ae 50       		.byte	0x50
 1528 06af 05       		.byte	0x5
 1529 06b0 03       		.byte	0x3
 1530 06b1 14000000 		.4byte	.LC1
 1531 06b5 00       		.byte	0
 1532 06b6 1F       		.uleb128 0x1f
 1533 06b7 46000000 		.4byte	.LVL17
 1534 06bb 01       		.byte	0x1
 1535 06bc 7C090000 		.4byte	0x97c
 1536 06c0 1B       		.uleb128 0x1b
 1537 06c1 01       		.byte	0x1
 1538 06c2 51       		.byte	0x51
 1539 06c3 02       		.byte	0x2
 1540 06c4 75       		.byte	0x75
 1541 06c5 00       		.sleb128 0
 1542 06c6 00       		.byte	0
 1543 06c7 00       		.byte	0
 1544 06c8 29       		.uleb128 0x29
 1545 06c9 0A000000 		.4byte	.LVL12
 1546 06cd 96090000 		.4byte	0x996
 1547 06d1 1A       		.uleb128 0x1a
 1548 06d2 2A000000 		.4byte	.LVL15
 1549 06d6 A0090000 		.4byte	0x9a0
 1550 06da 1B       		.uleb128 0x1b
 1551 06db 01       		.byte	0x1
 1552 06dc 50       		.byte	0x50
 1553 06dd 02       		.byte	0x2
 1554 06de 75       		.byte	0x75
 1555 06df 00       		.sleb128 0
 1556 06e0 00       		.byte	0
 1557 06e1 00       		.byte	0
 1558 06e2 17       		.uleb128 0x17
 1559 06e3 01       		.byte	0x1
 1560 06e4 B0030000 		.4byte	.LASF79
 1561 06e8 01       		.byte	0x1
 1562 06e9 B7       		.byte	0xb7
 1563 06ea 01       		.byte	0x1
 1564 06eb C7000000 		.4byte	0xc7
 1565 06ef 00000000 		.4byte	.LFB11
 1566 06f3 48000000 		.4byte	.LFE11
 1567 06f7 FA000000 		.4byte	.LLST9
 1568 06fb 01       		.byte	0x1
 1569 06fc 9A070000 		.4byte	0x79a
 1570 0700 21       		.uleb128 0x21
 1571 0701 3C020000 		.4byte	.LASF77
 1572 0705 01       		.byte	0x1
 1573 0706 B7       		.byte	0xb7
 1574 0707 A6000000 		.4byte	0xa6
 1575 070b 26010000 		.4byte	.LLST10
 1576 070f 21       		.uleb128 0x21
 1577 0710 50030000 		.4byte	.LASF80
 1578 0714 01       		.byte	0x1
 1579 0715 B7       		.byte	0xb7
 1580 0716 DD000000 		.4byte	0xdd
ARM GAS  /var/folders/dt/0wfd0knj7gs46m8vwfzktm600000gn/T//ccmnLkkv.s 			page 29


 1581 071a 47010000 		.4byte	.LLST11
 1582 071e 2A       		.uleb128 0x2a
 1583 071f 10000000 		.4byte	.LBB22
 1584 0723 2E000000 		.4byte	.LBE22
 1585 0727 80070000 		.4byte	0x780
 1586 072b 22       		.uleb128 0x22
 1587 072c 767400   		.ascii	"vt\000"
 1588 072f 01       		.byte	0x1
 1589 0730 BC       		.byte	0xbc
 1590 0731 67030000 		.4byte	0x367
 1591 0735 02       		.byte	0x2
 1592 0736 91       		.byte	0x91
 1593 0737 5C       		.sleb128 -36
 1594 0738 28       		.uleb128 0x28
 1595 0739 1E000000 		.4byte	.LVL20
 1596 073d B4090000 		.4byte	0x9b4
 1597 0741 5B070000 		.4byte	0x75b
 1598 0745 1B       		.uleb128 0x1b
 1599 0746 01       		.byte	0x1
 1600 0747 52       		.byte	0x52
 1601 0748 05       		.byte	0x5
 1602 0749 03       		.byte	0x3
 1603 074a 00000000 		.4byte	wakeup
 1604 074e 1B       		.uleb128 0x1b
 1605 074f 01       		.byte	0x1
 1606 0750 51       		.byte	0x51
 1607 0751 02       		.byte	0x2
 1608 0752 74       		.byte	0x74
 1609 0753 00       		.sleb128 0
 1610 0754 1B       		.uleb128 0x1b
 1611 0755 01       		.byte	0x1
 1612 0756 50       		.byte	0x50
 1613 0757 02       		.byte	0x2
 1614 0758 91       		.byte	0x91
 1615 0759 5C       		.sleb128 -36
 1616 075a 00       		.byte	0
 1617 075b 28       		.uleb128 0x28
 1618 075c 24000000 		.4byte	.LVL21
 1619 0760 24060000 		.4byte	0x624
 1620 0764 6F070000 		.4byte	0x76f
 1621 0768 1B       		.uleb128 0x1b
 1622 0769 01       		.byte	0x1
 1623 076a 50       		.byte	0x50
 1624 076b 02       		.byte	0x2
 1625 076c 76       		.byte	0x76
 1626 076d 00       		.sleb128 0
 1627 076e 00       		.byte	0
 1628 076f 1A       		.uleb128 0x1a
 1629 0770 2E000000 		.4byte	.LVL22
 1630 0774 D7090000 		.4byte	0x9d7
 1631 0778 1B       		.uleb128 0x1b
 1632 0779 01       		.byte	0x1
 1633 077a 50       		.byte	0x50
 1634 077b 02       		.byte	0x2
 1635 077c 91       		.byte	0x91
 1636 077d 5C       		.sleb128 -36
 1637 077e 00       		.byte	0
ARM GAS  /var/folders/dt/0wfd0knj7gs46m8vwfzktm600000gn/T//ccmnLkkv.s 			page 30


 1638 077f 00       		.byte	0
 1639 0780 29       		.uleb128 0x29
 1640 0781 0C000000 		.4byte	.LVL19
 1641 0785 96090000 		.4byte	0x996
 1642 0789 1A       		.uleb128 0x1a
 1643 078a 3C000000 		.4byte	.LVL23
 1644 078e 24060000 		.4byte	0x624
 1645 0792 1B       		.uleb128 0x1b
 1646 0793 01       		.byte	0x1
 1647 0794 50       		.byte	0x50
 1648 0795 02       		.byte	0x2
 1649 0796 76       		.byte	0x76
 1650 0797 00       		.sleb128 0
 1651 0798 00       		.byte	0
 1652 0799 00       		.byte	0
 1653 079a 20       		.uleb128 0x20
 1654 079b 01       		.byte	0x1
 1655 079c 57010000 		.4byte	.LASF82
 1656 07a0 01       		.byte	0x1
 1657 07a1 DB       		.byte	0xdb
 1658 07a2 01       		.byte	0x1
 1659 07a3 00000000 		.4byte	.LFB12
 1660 07a7 60000000 		.4byte	.LFE12
 1661 07ab 65010000 		.4byte	.LLST12
 1662 07af 01       		.byte	0x1
 1663 07b0 64080000 		.4byte	0x864
 1664 07b4 18       		.uleb128 0x18
 1665 07b5 6E747000 		.ascii	"ntp\000"
 1666 07b9 01       		.byte	0x1
 1667 07ba DB       		.byte	0xdb
 1668 07bb 48020000 		.4byte	0x248
 1669 07bf 85010000 		.4byte	.LLST13
 1670 07c3 18       		.uleb128 0x18
 1671 07c4 6D736700 		.ascii	"msg\000"
 1672 07c8 01       		.byte	0x1
 1673 07c9 DB       		.byte	0xdb
 1674 07ca C7000000 		.4byte	0xc7
 1675 07ce A3010000 		.4byte	.LLST14
 1676 07d2 27       		.uleb128 0x27
 1677 07d3 68000000 		.4byte	.Ldebug_ranges0+0x68
 1678 07d7 49080000 		.4byte	0x849
 1679 07db 19       		.uleb128 0x19
 1680 07dc 6F747000 		.ascii	"otp\000"
 1681 07e0 01       		.byte	0x1
 1682 07e1 E7       		.byte	0xe7
 1683 07e2 48020000 		.4byte	0x248
 1684 07e6 E8010000 		.4byte	.LLST15
 1685 07ea 27       		.uleb128 0x27
 1686 07eb 88000000 		.4byte	.Ldebug_ranges0+0x88
 1687 07ef 2F080000 		.4byte	0x82f
 1688 07f3 22       		.uleb128 0x22
 1689 07f4 72313300 		.ascii	"r13\000"
 1690 07f8 01       		.byte	0x1
 1691 07f9 ED       		.byte	0xed
 1692 07fa 3D030000 		.4byte	0x33d
 1693 07fe 01       		.byte	0x1
 1694 07ff 5D       		.byte	0x5d
ARM GAS  /var/folders/dt/0wfd0knj7gs46m8vwfzktm600000gn/T//ccmnLkkv.s 			page 31


 1695 0800 2B       		.uleb128 0x2b
 1696 0801 44000000 		.4byte	.LVL29
 1697 0805 01       		.byte	0x1
 1698 0806 7C090000 		.4byte	0x97c
 1699 080a 1B080000 		.4byte	0x81b
 1700 080e 1B       		.uleb128 0x1b
 1701 080f 01       		.byte	0x1
 1702 0810 51       		.byte	0x51
 1703 0811 02       		.byte	0x2
 1704 0812 76       		.byte	0x76
 1705 0813 00       		.sleb128 0
 1706 0814 1B       		.uleb128 0x1b
 1707 0815 01       		.byte	0x1
 1708 0816 50       		.byte	0x50
 1709 0817 02       		.byte	0x2
 1710 0818 74       		.byte	0x74
 1711 0819 00       		.sleb128 0
 1712 081a 00       		.byte	0
 1713 081b 1A       		.uleb128 0x1a
 1714 081c 54000000 		.4byte	.LVL31
 1715 0820 62090000 		.4byte	0x962
 1716 0824 1B       		.uleb128 0x1b
 1717 0825 01       		.byte	0x1
 1718 0826 50       		.byte	0x50
 1719 0827 05       		.byte	0x5
 1720 0828 03       		.byte	0x3
 1721 0829 14000000 		.4byte	.LC1
 1722 082d 00       		.byte	0
 1723 082e 00       		.byte	0
 1724 082f 29       		.uleb128 0x29
 1725 0830 1C000000 		.4byte	.LVL26
 1726 0834 73050000 		.4byte	0x573
 1727 0838 1A       		.uleb128 0x1a
 1728 0839 2E000000 		.4byte	.LVL28
 1729 083d A0090000 		.4byte	0x9a0
 1730 0841 1B       		.uleb128 0x1b
 1731 0842 01       		.byte	0x1
 1732 0843 50       		.byte	0x50
 1733 0844 02       		.byte	0x2
 1734 0845 76       		.byte	0x76
 1735 0846 00       		.sleb128 0
 1736 0847 00       		.byte	0
 1737 0848 00       		.byte	0
 1738 0849 29       		.uleb128 0x29
 1739 084a 0C000000 		.4byte	.LVL25
 1740 084e 96090000 		.4byte	0x996
 1741 0852 1F       		.uleb128 0x1f
 1742 0853 4E000000 		.4byte	.LVL30
 1743 0857 01       		.byte	0x1
 1744 0858 73050000 		.4byte	0x573
 1745 085c 1B       		.uleb128 0x1b
 1746 085d 01       		.byte	0x1
 1747 085e 50       		.byte	0x50
 1748 085f 02       		.byte	0x2
 1749 0860 74       		.byte	0x74
 1750 0861 00       		.sleb128 0
 1751 0862 00       		.byte	0
ARM GAS  /var/folders/dt/0wfd0knj7gs46m8vwfzktm600000gn/T//ccmnLkkv.s 			page 32


 1752 0863 00       		.byte	0
 1753 0864 2C       		.uleb128 0x2c
 1754 0865 01       		.byte	0x1
 1755 0866 CE000000 		.4byte	.LASF83
 1756 086a 01       		.byte	0x1
 1757 086b 2A01     		.2byte	0x12a
 1758 086d 01       		.byte	0x1
 1759 086e 00000000 		.4byte	.LFB14
 1760 0872 4C000000 		.4byte	.LFE14
 1761 0876 11020000 		.4byte	.LLST16
 1762 087a 01       		.byte	0x1
 1763 087b 22090000 		.4byte	0x922
 1764 087f 2D       		.uleb128 0x2d
 1765 0880 6F747000 		.ascii	"otp\000"
 1766 0884 01       		.byte	0x1
 1767 0885 2B01     		.2byte	0x12b
 1768 0887 48020000 		.4byte	0x248
 1769 088b 01       		.byte	0x1
 1770 088c 55       		.byte	0x55
 1771 088d 2E       		.uleb128 0x2e
 1772 088e 31050000 		.4byte	0x531
 1773 0892 06000000 		.4byte	.LBB29
 1774 0896 A8000000 		.4byte	.Ldebug_ranges0+0xa8
 1775 089a 01       		.byte	0x1
 1776 089b 3201     		.2byte	0x132
 1777 089d BD080000 		.4byte	0x8bd
 1778 08a1 24       		.uleb128 0x24
 1779 08a2 42050000 		.4byte	0x542
 1780 08a6 06       		.byte	0x6
 1781 08a7 03       		.byte	0x3
 1782 08a8 00000000 		.4byte	rlist
 1783 08ac 9F       		.byte	0x9f
 1784 08ad 25       		.uleb128 0x25
 1785 08ae D0000000 		.4byte	.Ldebug_ranges0+0xd0
 1786 08b2 26       		.uleb128 0x26
 1787 08b3 4D050000 		.4byte	0x54d
 1788 08b7 31020000 		.4byte	.LLST17
 1789 08bb 00       		.byte	0
 1790 08bc 00       		.byte	0
 1791 08bd 27       		.uleb128 0x27
 1792 08be F8000000 		.4byte	.Ldebug_ranges0+0xf8
 1793 08c2 FD080000 		.4byte	0x8fd
 1794 08c6 2D       		.uleb128 0x2d
 1795 08c7 72313300 		.ascii	"r13\000"
 1796 08cb 01       		.byte	0x1
 1797 08cc 3501     		.2byte	0x135
 1798 08ce 3D030000 		.4byte	0x33d
 1799 08d2 01       		.byte	0x1
 1800 08d3 5D       		.byte	0x5d
 1801 08d4 28       		.uleb128 0x28
 1802 08d5 36000000 		.4byte	.LVL35
 1803 08d9 62090000 		.4byte	0x962
 1804 08dd EB080000 		.4byte	0x8eb
 1805 08e1 1B       		.uleb128 0x1b
 1806 08e2 01       		.byte	0x1
 1807 08e3 50       		.byte	0x50
 1808 08e4 05       		.byte	0x5
ARM GAS  /var/folders/dt/0wfd0knj7gs46m8vwfzktm600000gn/T//ccmnLkkv.s 			page 33


 1809 08e5 03       		.byte	0x3
 1810 08e6 14000000 		.4byte	.LC1
 1811 08ea 00       		.byte	0
 1812 08eb 1F       		.uleb128 0x1f
 1813 08ec 42000000 		.4byte	.LVL36
 1814 08f0 01       		.byte	0x1
 1815 08f1 7C090000 		.4byte	0x97c
 1816 08f5 1B       		.uleb128 0x1b
 1817 08f6 01       		.byte	0x1
 1818 08f7 51       		.byte	0x51
 1819 08f8 02       		.byte	0x2
 1820 08f9 75       		.byte	0x75
 1821 08fa 00       		.sleb128 0
 1822 08fb 00       		.byte	0
 1823 08fc 00       		.byte	0
 1824 08fd 28       		.uleb128 0x28
 1825 08fe 20000000 		.4byte	.LVL33
 1826 0902 73050000 		.4byte	0x573
 1827 0906 11090000 		.4byte	0x911
 1828 090a 1B       		.uleb128 0x1b
 1829 090b 01       		.byte	0x1
 1830 090c 50       		.byte	0x50
 1831 090d 02       		.byte	0x2
 1832 090e 75       		.byte	0x75
 1833 090f 00       		.sleb128 0
 1834 0910 00       		.byte	0
 1835 0911 1A       		.uleb128 0x1a
 1836 0912 26000000 		.4byte	.LVL34
 1837 0916 A0090000 		.4byte	0x9a0
 1838 091a 1B       		.uleb128 0x1b
 1839 091b 01       		.byte	0x1
 1840 091c 50       		.byte	0x50
 1841 091d 02       		.byte	0x2
 1842 091e 75       		.byte	0x75
 1843 091f 00       		.sleb128 0
 1844 0920 00       		.byte	0
 1845 0921 00       		.byte	0
 1846 0922 20       		.uleb128 0x20
 1847 0923 01       		.byte	0x1
 1848 0924 A4000000 		.4byte	.LASF84
 1849 0928 01       		.byte	0x1
 1850 0929 FA       		.byte	0xfa
 1851 092a 01       		.byte	0x1
 1852 092b 00000000 		.4byte	.LFB13
 1853 092f 24000000 		.4byte	.LFE13
 1854 0933 44020000 		.4byte	.LLST18
 1855 0937 01       		.byte	0x1
 1856 0938 50090000 		.4byte	0x950
 1857 093c 29       		.uleb128 0x29
 1858 093d 06000000 		.4byte	.LVL37
 1859 0941 96090000 		.4byte	0x996
 1860 0945 2F       		.uleb128 0x2f
 1861 0946 1E000000 		.4byte	.LVL38
 1862 094a 01       		.byte	0x1
 1863 094b 64080000 		.4byte	0x864
 1864 094f 00       		.byte	0
 1865 0950 30       		.uleb128 0x30
ARM GAS  /var/folders/dt/0wfd0knj7gs46m8vwfzktm600000gn/T//ccmnLkkv.s 			page 34


 1866 0951 94030000 		.4byte	.LASF94
 1867 0955 01       		.byte	0x1
 1868 0956 2F       		.byte	0x2f
 1869 0957 3B040000 		.4byte	0x43b
 1870 095b 01       		.byte	0x1
 1871 095c 05       		.byte	0x5
 1872 095d 03       		.byte	0x3
 1873 095e 00000000 		.4byte	rlist
 1874 0962 31       		.uleb128 0x31
 1875 0963 01       		.byte	0x1
 1876 0964 06000000 		.4byte	.LASF85
 1877 0968 0C       		.byte	0xc
 1878 0969 F0       		.byte	0xf0
 1879 096a 01       		.byte	0x1
 1880 096b 01       		.byte	0x1
 1881 096c 76090000 		.4byte	0x976
 1882 0970 0E       		.uleb128 0xe
 1883 0971 76090000 		.4byte	0x976
 1884 0975 00       		.byte	0
 1885 0976 09       		.uleb128 0x9
 1886 0977 04       		.byte	0x4
 1887 0978 02050000 		.4byte	0x502
 1888 097c 32       		.uleb128 0x32
 1889 097d 01       		.byte	0x1
 1890 097e 17010000 		.4byte	.LASF86
 1891 0982 07       		.byte	0x7
 1892 0983 F801     		.2byte	0x1f8
 1893 0985 01       		.byte	0x1
 1894 0986 01       		.byte	0x1
 1895 0987 96090000 		.4byte	0x996
 1896 098b 0E       		.uleb128 0xe
 1897 098c 48020000 		.4byte	0x248
 1898 0990 0E       		.uleb128 0xe
 1899 0991 48020000 		.4byte	0x248
 1900 0995 00       		.byte	0
 1901 0996 33       		.uleb128 0x33
 1902 0997 01       		.byte	0x1
 1903 0998 72010000 		.4byte	.LASF95
 1904 099c 0C       		.byte	0xc
 1905 099d E9       		.byte	0xe9
 1906 099e 01       		.byte	0x1
 1907 099f 01       		.byte	0x1
 1908 09a0 31       		.uleb128 0x31
 1909 09a1 01       		.byte	0x1
 1910 09a2 0D010000 		.4byte	.LASF87
 1911 09a6 0C       		.byte	0xc
 1912 09a7 ED       		.byte	0xed
 1913 09a8 01       		.byte	0x1
 1914 09a9 01       		.byte	0x1
 1915 09aa B4090000 		.4byte	0x9b4
 1916 09ae 0E       		.uleb128 0xe
 1917 09af 48020000 		.4byte	0x248
 1918 09b3 00       		.byte	0
 1919 09b4 31       		.uleb128 0x31
 1920 09b5 01       		.byte	0x1
 1921 09b6 C5010000 		.4byte	.LASF88
 1922 09ba 08       		.byte	0x8
ARM GAS  /var/folders/dt/0wfd0knj7gs46m8vwfzktm600000gn/T//ccmnLkkv.s 			page 35


 1923 09bb B1       		.byte	0xb1
 1924 09bc 01       		.byte	0x1
 1925 09bd 01       		.byte	0x1
 1926 09be D7090000 		.4byte	0x9d7
 1927 09c2 0E       		.uleb128 0xe
 1928 09c3 C5030000 		.4byte	0x3c5
 1929 09c7 0E       		.uleb128 0xe
 1930 09c8 DD000000 		.4byte	0xdd
 1931 09cc 0E       		.uleb128 0xe
 1932 09cd 4A030000 		.4byte	0x34a
 1933 09d1 0E       		.uleb128 0xe
 1934 09d2 86020000 		.4byte	0x286
 1935 09d6 00       		.byte	0
 1936 09d7 34       		.uleb128 0x34
 1937 09d8 01       		.byte	0x1
 1938 09d9 85020000 		.4byte	.LASF96
 1939 09dd 08       		.byte	0x8
 1940 09de B2       		.byte	0xb2
 1941 09df 01       		.byte	0x1
 1942 09e0 01       		.byte	0x1
 1943 09e1 0E       		.uleb128 0xe
 1944 09e2 C5030000 		.4byte	0x3c5
 1945 09e6 00       		.byte	0
 1946 09e7 00       		.byte	0
 1947              		.section	.debug_abbrev,"",%progbits
 1948              	.Ldebug_abbrev0:
 1949 0000 01       		.uleb128 0x1
 1950 0001 11       		.uleb128 0x11
 1951 0002 01       		.byte	0x1
 1952 0003 25       		.uleb128 0x25
 1953 0004 0E       		.uleb128 0xe
 1954 0005 13       		.uleb128 0x13
 1955 0006 0B       		.uleb128 0xb
 1956 0007 03       		.uleb128 0x3
 1957 0008 0E       		.uleb128 0xe
 1958 0009 1B       		.uleb128 0x1b
 1959 000a 0E       		.uleb128 0xe
 1960 000b 55       		.uleb128 0x55
 1961 000c 06       		.uleb128 0x6
 1962 000d 11       		.uleb128 0x11
 1963 000e 01       		.uleb128 0x1
 1964 000f 52       		.uleb128 0x52
 1965 0010 01       		.uleb128 0x1
 1966 0011 10       		.uleb128 0x10
 1967 0012 06       		.uleb128 0x6
 1968 0013 00       		.byte	0
 1969 0014 00       		.byte	0
 1970 0015 02       		.uleb128 0x2
 1971 0016 24       		.uleb128 0x24
 1972 0017 00       		.byte	0
 1973 0018 0B       		.uleb128 0xb
 1974 0019 0B       		.uleb128 0xb
 1975 001a 3E       		.uleb128 0x3e
 1976 001b 0B       		.uleb128 0xb
 1977 001c 03       		.uleb128 0x3
 1978 001d 08       		.uleb128 0x8
 1979 001e 00       		.byte	0
ARM GAS  /var/folders/dt/0wfd0knj7gs46m8vwfzktm600000gn/T//ccmnLkkv.s 			page 36


 1980 001f 00       		.byte	0
 1981 0020 03       		.uleb128 0x3
 1982 0021 24       		.uleb128 0x24
 1983 0022 00       		.byte	0
 1984 0023 0B       		.uleb128 0xb
 1985 0024 0B       		.uleb128 0xb
 1986 0025 3E       		.uleb128 0x3e
 1987 0026 0B       		.uleb128 0xb
 1988 0027 03       		.uleb128 0x3
 1989 0028 0E       		.uleb128 0xe
 1990 0029 00       		.byte	0
 1991 002a 00       		.byte	0
 1992 002b 04       		.uleb128 0x4
 1993 002c 16       		.uleb128 0x16
 1994 002d 00       		.byte	0
 1995 002e 03       		.uleb128 0x3
 1996 002f 0E       		.uleb128 0xe
 1997 0030 3A       		.uleb128 0x3a
 1998 0031 0B       		.uleb128 0xb
 1999 0032 3B       		.uleb128 0x3b
 2000 0033 0B       		.uleb128 0xb
 2001 0034 49       		.uleb128 0x49
 2002 0035 13       		.uleb128 0x13
 2003 0036 00       		.byte	0
 2004 0037 00       		.byte	0
 2005 0038 05       		.uleb128 0x5
 2006 0039 13       		.uleb128 0x13
 2007 003a 01       		.byte	0x1
 2008 003b 03       		.uleb128 0x3
 2009 003c 0E       		.uleb128 0xe
 2010 003d 0B       		.uleb128 0xb
 2011 003e 0B       		.uleb128 0xb
 2012 003f 3A       		.uleb128 0x3a
 2013 0040 0B       		.uleb128 0xb
 2014 0041 3B       		.uleb128 0x3b
 2015 0042 0B       		.uleb128 0xb
 2016 0043 01       		.uleb128 0x1
 2017 0044 13       		.uleb128 0x13
 2018 0045 00       		.byte	0
 2019 0046 00       		.byte	0
 2020 0047 06       		.uleb128 0x6
 2021 0048 0D       		.uleb128 0xd
 2022 0049 00       		.byte	0
 2023 004a 03       		.uleb128 0x3
 2024 004b 0E       		.uleb128 0xe
 2025 004c 3A       		.uleb128 0x3a
 2026 004d 0B       		.uleb128 0xb
 2027 004e 3B       		.uleb128 0x3b
 2028 004f 0B       		.uleb128 0xb
 2029 0050 49       		.uleb128 0x49
 2030 0051 13       		.uleb128 0x13
 2031 0052 38       		.uleb128 0x38
 2032 0053 0A       		.uleb128 0xa
 2033 0054 00       		.byte	0
 2034 0055 00       		.byte	0
 2035 0056 07       		.uleb128 0x7
 2036 0057 0D       		.uleb128 0xd
ARM GAS  /var/folders/dt/0wfd0knj7gs46m8vwfzktm600000gn/T//ccmnLkkv.s 			page 37


 2037 0058 00       		.byte	0
 2038 0059 03       		.uleb128 0x3
 2039 005a 08       		.uleb128 0x8
 2040 005b 3A       		.uleb128 0x3a
 2041 005c 0B       		.uleb128 0xb
 2042 005d 3B       		.uleb128 0x3b
 2043 005e 0B       		.uleb128 0xb
 2044 005f 49       		.uleb128 0x49
 2045 0060 13       		.uleb128 0x13
 2046 0061 38       		.uleb128 0x38
 2047 0062 0A       		.uleb128 0xa
 2048 0063 00       		.byte	0
 2049 0064 00       		.byte	0
 2050 0065 08       		.uleb128 0x8
 2051 0066 13       		.uleb128 0x13
 2052 0067 01       		.byte	0x1
 2053 0068 0B       		.uleb128 0xb
 2054 0069 0B       		.uleb128 0xb
 2055 006a 3A       		.uleb128 0x3a
 2056 006b 0B       		.uleb128 0xb
 2057 006c 3B       		.uleb128 0x3b
 2058 006d 0B       		.uleb128 0xb
 2059 006e 01       		.uleb128 0x1
 2060 006f 13       		.uleb128 0x13
 2061 0070 00       		.byte	0
 2062 0071 00       		.byte	0
 2063 0072 09       		.uleb128 0x9
 2064 0073 0F       		.uleb128 0xf
 2065 0074 00       		.byte	0
 2066 0075 0B       		.uleb128 0xb
 2067 0076 0B       		.uleb128 0xb
 2068 0077 49       		.uleb128 0x49
 2069 0078 13       		.uleb128 0x13
 2070 0079 00       		.byte	0
 2071 007a 00       		.byte	0
 2072 007b 0A       		.uleb128 0xa
 2073 007c 0F       		.uleb128 0xf
 2074 007d 00       		.byte	0
 2075 007e 0B       		.uleb128 0xb
 2076 007f 0B       		.uleb128 0xb
 2077 0080 00       		.byte	0
 2078 0081 00       		.byte	0
 2079 0082 0B       		.uleb128 0xb
 2080 0083 0D       		.uleb128 0xd
 2081 0084 00       		.byte	0
 2082 0085 03       		.uleb128 0x3
 2083 0086 08       		.uleb128 0x8
 2084 0087 3A       		.uleb128 0x3a
 2085 0088 0B       		.uleb128 0xb
 2086 0089 3B       		.uleb128 0x3b
 2087 008a 05       		.uleb128 0x5
 2088 008b 49       		.uleb128 0x49
 2089 008c 13       		.uleb128 0x13
 2090 008d 38       		.uleb128 0x38
 2091 008e 0A       		.uleb128 0xa
 2092 008f 00       		.byte	0
 2093 0090 00       		.byte	0
ARM GAS  /var/folders/dt/0wfd0knj7gs46m8vwfzktm600000gn/T//ccmnLkkv.s 			page 38


 2094 0091 0C       		.uleb128 0xc
 2095 0092 13       		.uleb128 0x13
 2096 0093 01       		.byte	0x1
 2097 0094 03       		.uleb128 0x3
 2098 0095 0E       		.uleb128 0xe
 2099 0096 0B       		.uleb128 0xb
 2100 0097 0B       		.uleb128 0xb
 2101 0098 3A       		.uleb128 0x3a
 2102 0099 0B       		.uleb128 0xb
 2103 009a 3B       		.uleb128 0x3b
 2104 009b 05       		.uleb128 0x5
 2105 009c 01       		.uleb128 0x1
 2106 009d 13       		.uleb128 0x13
 2107 009e 00       		.byte	0
 2108 009f 00       		.byte	0
 2109 00a0 0D       		.uleb128 0xd
 2110 00a1 15       		.uleb128 0x15
 2111 00a2 01       		.byte	0x1
 2112 00a3 27       		.uleb128 0x27
 2113 00a4 0C       		.uleb128 0xc
 2114 00a5 01       		.uleb128 0x1
 2115 00a6 13       		.uleb128 0x13
 2116 00a7 00       		.byte	0
 2117 00a8 00       		.byte	0
 2118 00a9 0E       		.uleb128 0xe
 2119 00aa 05       		.uleb128 0x5
 2120 00ab 00       		.byte	0
 2121 00ac 49       		.uleb128 0x49
 2122 00ad 13       		.uleb128 0x13
 2123 00ae 00       		.byte	0
 2124 00af 00       		.byte	0
 2125 00b0 0F       		.uleb128 0xf
 2126 00b1 35       		.uleb128 0x35
 2127 00b2 00       		.byte	0
 2128 00b3 49       		.uleb128 0x49
 2129 00b4 13       		.uleb128 0x13
 2130 00b5 00       		.byte	0
 2131 00b6 00       		.byte	0
 2132 00b7 10       		.uleb128 0x10
 2133 00b8 17       		.uleb128 0x17
 2134 00b9 01       		.byte	0x1
 2135 00ba 0B       		.uleb128 0xb
 2136 00bb 0B       		.uleb128 0xb
 2137 00bc 3A       		.uleb128 0x3a
 2138 00bd 0B       		.uleb128 0xb
 2139 00be 3B       		.uleb128 0x3b
 2140 00bf 0B       		.uleb128 0xb
 2141 00c0 01       		.uleb128 0x1
 2142 00c1 13       		.uleb128 0x13
 2143 00c2 00       		.byte	0
 2144 00c3 00       		.byte	0
 2145 00c4 11       		.uleb128 0x11
 2146 00c5 0D       		.uleb128 0xd
 2147 00c6 00       		.byte	0
 2148 00c7 03       		.uleb128 0x3
 2149 00c8 0E       		.uleb128 0xe
 2150 00c9 3A       		.uleb128 0x3a
ARM GAS  /var/folders/dt/0wfd0knj7gs46m8vwfzktm600000gn/T//ccmnLkkv.s 			page 39


 2151 00ca 0B       		.uleb128 0xb
 2152 00cb 3B       		.uleb128 0x3b
 2153 00cc 0B       		.uleb128 0xb
 2154 00cd 49       		.uleb128 0x49
 2155 00ce 13       		.uleb128 0x13
 2156 00cf 00       		.byte	0
 2157 00d0 00       		.byte	0
 2158 00d1 12       		.uleb128 0x12
 2159 00d2 26       		.uleb128 0x26
 2160 00d3 00       		.byte	0
 2161 00d4 49       		.uleb128 0x49
 2162 00d5 13       		.uleb128 0x13
 2163 00d6 00       		.byte	0
 2164 00d7 00       		.byte	0
 2165 00d8 13       		.uleb128 0x13
 2166 00d9 2E       		.uleb128 0x2e
 2167 00da 01       		.byte	0x1
 2168 00db 03       		.uleb128 0x3
 2169 00dc 0E       		.uleb128 0xe
 2170 00dd 3A       		.uleb128 0x3a
 2171 00de 0B       		.uleb128 0xb
 2172 00df 3B       		.uleb128 0x3b
 2173 00e0 0B       		.uleb128 0xb
 2174 00e1 27       		.uleb128 0x27
 2175 00e2 0C       		.uleb128 0xc
 2176 00e3 49       		.uleb128 0x49
 2177 00e4 13       		.uleb128 0x13
 2178 00e5 20       		.uleb128 0x20
 2179 00e6 0B       		.uleb128 0xb
 2180 00e7 01       		.uleb128 0x1
 2181 00e8 13       		.uleb128 0x13
 2182 00e9 00       		.byte	0
 2183 00ea 00       		.byte	0
 2184 00eb 14       		.uleb128 0x14
 2185 00ec 05       		.uleb128 0x5
 2186 00ed 00       		.byte	0
 2187 00ee 03       		.uleb128 0x3
 2188 00ef 08       		.uleb128 0x8
 2189 00f0 3A       		.uleb128 0x3a
 2190 00f1 0B       		.uleb128 0xb
 2191 00f2 3B       		.uleb128 0x3b
 2192 00f3 0B       		.uleb128 0xb
 2193 00f4 49       		.uleb128 0x49
 2194 00f5 13       		.uleb128 0x13
 2195 00f6 00       		.byte	0
 2196 00f7 00       		.byte	0
 2197 00f8 15       		.uleb128 0x15
 2198 00f9 34       		.uleb128 0x34
 2199 00fa 00       		.byte	0
 2200 00fb 03       		.uleb128 0x3
 2201 00fc 08       		.uleb128 0x8
 2202 00fd 3A       		.uleb128 0x3a
 2203 00fe 0B       		.uleb128 0xb
 2204 00ff 3B       		.uleb128 0x3b
 2205 0100 0B       		.uleb128 0xb
 2206 0101 49       		.uleb128 0x49
 2207 0102 13       		.uleb128 0x13
ARM GAS  /var/folders/dt/0wfd0knj7gs46m8vwfzktm600000gn/T//ccmnLkkv.s 			page 40


 2208 0103 00       		.byte	0
 2209 0104 00       		.byte	0
 2210 0105 16       		.uleb128 0x16
 2211 0106 2E       		.uleb128 0x2e
 2212 0107 00       		.byte	0
 2213 0108 3F       		.uleb128 0x3f
 2214 0109 0C       		.uleb128 0xc
 2215 010a 03       		.uleb128 0x3
 2216 010b 0E       		.uleb128 0xe
 2217 010c 3A       		.uleb128 0x3a
 2218 010d 0B       		.uleb128 0xb
 2219 010e 3B       		.uleb128 0x3b
 2220 010f 0B       		.uleb128 0xb
 2221 0110 27       		.uleb128 0x27
 2222 0111 0C       		.uleb128 0xc
 2223 0112 11       		.uleb128 0x11
 2224 0113 01       		.uleb128 0x1
 2225 0114 12       		.uleb128 0x12
 2226 0115 01       		.uleb128 0x1
 2227 0116 40       		.uleb128 0x40
 2228 0117 0A       		.uleb128 0xa
 2229 0118 9742     		.uleb128 0x2117
 2230 011a 0C       		.uleb128 0xc
 2231 011b 00       		.byte	0
 2232 011c 00       		.byte	0
 2233 011d 17       		.uleb128 0x17
 2234 011e 2E       		.uleb128 0x2e
 2235 011f 01       		.byte	0x1
 2236 0120 3F       		.uleb128 0x3f
 2237 0121 0C       		.uleb128 0xc
 2238 0122 03       		.uleb128 0x3
 2239 0123 0E       		.uleb128 0xe
 2240 0124 3A       		.uleb128 0x3a
 2241 0125 0B       		.uleb128 0xb
 2242 0126 3B       		.uleb128 0x3b
 2243 0127 0B       		.uleb128 0xb
 2244 0128 27       		.uleb128 0x27
 2245 0129 0C       		.uleb128 0xc
 2246 012a 49       		.uleb128 0x49
 2247 012b 13       		.uleb128 0x13
 2248 012c 11       		.uleb128 0x11
 2249 012d 01       		.uleb128 0x1
 2250 012e 12       		.uleb128 0x12
 2251 012f 01       		.uleb128 0x1
 2252 0130 40       		.uleb128 0x40
 2253 0131 06       		.uleb128 0x6
 2254 0132 9742     		.uleb128 0x2117
 2255 0134 0C       		.uleb128 0xc
 2256 0135 01       		.uleb128 0x1
 2257 0136 13       		.uleb128 0x13
 2258 0137 00       		.byte	0
 2259 0138 00       		.byte	0
 2260 0139 18       		.uleb128 0x18
 2261 013a 05       		.uleb128 0x5
 2262 013b 00       		.byte	0
 2263 013c 03       		.uleb128 0x3
 2264 013d 08       		.uleb128 0x8
ARM GAS  /var/folders/dt/0wfd0knj7gs46m8vwfzktm600000gn/T//ccmnLkkv.s 			page 41


 2265 013e 3A       		.uleb128 0x3a
 2266 013f 0B       		.uleb128 0xb
 2267 0140 3B       		.uleb128 0x3b
 2268 0141 0B       		.uleb128 0xb
 2269 0142 49       		.uleb128 0x49
 2270 0143 13       		.uleb128 0x13
 2271 0144 02       		.uleb128 0x2
 2272 0145 06       		.uleb128 0x6
 2273 0146 00       		.byte	0
 2274 0147 00       		.byte	0
 2275 0148 19       		.uleb128 0x19
 2276 0149 34       		.uleb128 0x34
 2277 014a 00       		.byte	0
 2278 014b 03       		.uleb128 0x3
 2279 014c 08       		.uleb128 0x8
 2280 014d 3A       		.uleb128 0x3a
 2281 014e 0B       		.uleb128 0xb
 2282 014f 3B       		.uleb128 0x3b
 2283 0150 0B       		.uleb128 0xb
 2284 0151 49       		.uleb128 0x49
 2285 0152 13       		.uleb128 0x13
 2286 0153 02       		.uleb128 0x2
 2287 0154 06       		.uleb128 0x6
 2288 0155 00       		.byte	0
 2289 0156 00       		.byte	0
 2290 0157 1A       		.uleb128 0x1a
 2291 0158 898201   		.uleb128 0x4109
 2292 015b 01       		.byte	0x1
 2293 015c 11       		.uleb128 0x11
 2294 015d 01       		.uleb128 0x1
 2295 015e 31       		.uleb128 0x31
 2296 015f 13       		.uleb128 0x13
 2297 0160 00       		.byte	0
 2298 0161 00       		.byte	0
 2299 0162 1B       		.uleb128 0x1b
 2300 0163 8A8201   		.uleb128 0x410a
 2301 0166 00       		.byte	0
 2302 0167 02       		.uleb128 0x2
 2303 0168 0A       		.uleb128 0xa
 2304 0169 9142     		.uleb128 0x2111
 2305 016b 0A       		.uleb128 0xa
 2306 016c 00       		.byte	0
 2307 016d 00       		.byte	0
 2308 016e 1C       		.uleb128 0x1c
 2309 016f 2E       		.uleb128 0x2e
 2310 0170 01       		.byte	0x1
 2311 0171 03       		.uleb128 0x3
 2312 0172 0E       		.uleb128 0xe
 2313 0173 3A       		.uleb128 0x3a
 2314 0174 0B       		.uleb128 0xb
 2315 0175 3B       		.uleb128 0x3b
 2316 0176 0B       		.uleb128 0xb
 2317 0177 27       		.uleb128 0x27
 2318 0178 0C       		.uleb128 0xc
 2319 0179 11       		.uleb128 0x11
 2320 017a 01       		.uleb128 0x1
 2321 017b 12       		.uleb128 0x12
ARM GAS  /var/folders/dt/0wfd0knj7gs46m8vwfzktm600000gn/T//ccmnLkkv.s 			page 42


 2322 017c 01       		.uleb128 0x1
 2323 017d 40       		.uleb128 0x40
 2324 017e 0A       		.uleb128 0xa
 2325 017f 9742     		.uleb128 0x2117
 2326 0181 0C       		.uleb128 0xc
 2327 0182 01       		.uleb128 0x1
 2328 0183 13       		.uleb128 0x13
 2329 0184 00       		.byte	0
 2330 0185 00       		.byte	0
 2331 0186 1D       		.uleb128 0x1d
 2332 0187 1D       		.uleb128 0x1d
 2333 0188 01       		.byte	0x1
 2334 0189 31       		.uleb128 0x31
 2335 018a 13       		.uleb128 0x13
 2336 018b 11       		.uleb128 0x11
 2337 018c 01       		.uleb128 0x1
 2338 018d 12       		.uleb128 0x12
 2339 018e 01       		.uleb128 0x1
 2340 018f 58       		.uleb128 0x58
 2341 0190 0B       		.uleb128 0xb
 2342 0191 59       		.uleb128 0x59
 2343 0192 0B       		.uleb128 0xb
 2344 0193 01       		.uleb128 0x1
 2345 0194 13       		.uleb128 0x13
 2346 0195 00       		.byte	0
 2347 0196 00       		.byte	0
 2348 0197 1E       		.uleb128 0x1e
 2349 0198 05       		.uleb128 0x5
 2350 0199 00       		.byte	0
 2351 019a 31       		.uleb128 0x31
 2352 019b 13       		.uleb128 0x13
 2353 019c 02       		.uleb128 0x2
 2354 019d 06       		.uleb128 0x6
 2355 019e 00       		.byte	0
 2356 019f 00       		.byte	0
 2357 01a0 1F       		.uleb128 0x1f
 2358 01a1 898201   		.uleb128 0x4109
 2359 01a4 01       		.byte	0x1
 2360 01a5 11       		.uleb128 0x11
 2361 01a6 01       		.uleb128 0x1
 2362 01a7 9542     		.uleb128 0x2115
 2363 01a9 0C       		.uleb128 0xc
 2364 01aa 31       		.uleb128 0x31
 2365 01ab 13       		.uleb128 0x13
 2366 01ac 00       		.byte	0
 2367 01ad 00       		.byte	0
 2368 01ae 20       		.uleb128 0x20
 2369 01af 2E       		.uleb128 0x2e
 2370 01b0 01       		.byte	0x1
 2371 01b1 3F       		.uleb128 0x3f
 2372 01b2 0C       		.uleb128 0xc
 2373 01b3 03       		.uleb128 0x3
 2374 01b4 0E       		.uleb128 0xe
 2375 01b5 3A       		.uleb128 0x3a
 2376 01b6 0B       		.uleb128 0xb
 2377 01b7 3B       		.uleb128 0x3b
 2378 01b8 0B       		.uleb128 0xb
ARM GAS  /var/folders/dt/0wfd0knj7gs46m8vwfzktm600000gn/T//ccmnLkkv.s 			page 43


 2379 01b9 27       		.uleb128 0x27
 2380 01ba 0C       		.uleb128 0xc
 2381 01bb 11       		.uleb128 0x11
 2382 01bc 01       		.uleb128 0x1
 2383 01bd 12       		.uleb128 0x12
 2384 01be 01       		.uleb128 0x1
 2385 01bf 40       		.uleb128 0x40
 2386 01c0 06       		.uleb128 0x6
 2387 01c1 9742     		.uleb128 0x2117
 2388 01c3 0C       		.uleb128 0xc
 2389 01c4 01       		.uleb128 0x1
 2390 01c5 13       		.uleb128 0x13
 2391 01c6 00       		.byte	0
 2392 01c7 00       		.byte	0
 2393 01c8 21       		.uleb128 0x21
 2394 01c9 05       		.uleb128 0x5
 2395 01ca 00       		.byte	0
 2396 01cb 03       		.uleb128 0x3
 2397 01cc 0E       		.uleb128 0xe
 2398 01cd 3A       		.uleb128 0x3a
 2399 01ce 0B       		.uleb128 0xb
 2400 01cf 3B       		.uleb128 0x3b
 2401 01d0 0B       		.uleb128 0xb
 2402 01d1 49       		.uleb128 0x49
 2403 01d2 13       		.uleb128 0x13
 2404 01d3 02       		.uleb128 0x2
 2405 01d4 06       		.uleb128 0x6
 2406 01d5 00       		.byte	0
 2407 01d6 00       		.byte	0
 2408 01d7 22       		.uleb128 0x22
 2409 01d8 34       		.uleb128 0x34
 2410 01d9 00       		.byte	0
 2411 01da 03       		.uleb128 0x3
 2412 01db 08       		.uleb128 0x8
 2413 01dc 3A       		.uleb128 0x3a
 2414 01dd 0B       		.uleb128 0xb
 2415 01de 3B       		.uleb128 0x3b
 2416 01df 0B       		.uleb128 0xb
 2417 01e0 49       		.uleb128 0x49
 2418 01e1 13       		.uleb128 0x13
 2419 01e2 02       		.uleb128 0x2
 2420 01e3 0A       		.uleb128 0xa
 2421 01e4 00       		.byte	0
 2422 01e5 00       		.byte	0
 2423 01e6 23       		.uleb128 0x23
 2424 01e7 1D       		.uleb128 0x1d
 2425 01e8 01       		.byte	0x1
 2426 01e9 31       		.uleb128 0x31
 2427 01ea 13       		.uleb128 0x13
 2428 01eb 52       		.uleb128 0x52
 2429 01ec 01       		.uleb128 0x1
 2430 01ed 55       		.uleb128 0x55
 2431 01ee 06       		.uleb128 0x6
 2432 01ef 58       		.uleb128 0x58
 2433 01f0 0B       		.uleb128 0xb
 2434 01f1 59       		.uleb128 0x59
 2435 01f2 0B       		.uleb128 0xb
ARM GAS  /var/folders/dt/0wfd0knj7gs46m8vwfzktm600000gn/T//ccmnLkkv.s 			page 44


 2436 01f3 01       		.uleb128 0x1
 2437 01f4 13       		.uleb128 0x13
 2438 01f5 00       		.byte	0
 2439 01f6 00       		.byte	0
 2440 01f7 24       		.uleb128 0x24
 2441 01f8 05       		.uleb128 0x5
 2442 01f9 00       		.byte	0
 2443 01fa 31       		.uleb128 0x31
 2444 01fb 13       		.uleb128 0x13
 2445 01fc 02       		.uleb128 0x2
 2446 01fd 0A       		.uleb128 0xa
 2447 01fe 00       		.byte	0
 2448 01ff 00       		.byte	0
 2449 0200 25       		.uleb128 0x25
 2450 0201 0B       		.uleb128 0xb
 2451 0202 01       		.byte	0x1
 2452 0203 55       		.uleb128 0x55
 2453 0204 06       		.uleb128 0x6
 2454 0205 00       		.byte	0
 2455 0206 00       		.byte	0
 2456 0207 26       		.uleb128 0x26
 2457 0208 34       		.uleb128 0x34
 2458 0209 00       		.byte	0
 2459 020a 31       		.uleb128 0x31
 2460 020b 13       		.uleb128 0x13
 2461 020c 02       		.uleb128 0x2
 2462 020d 06       		.uleb128 0x6
 2463 020e 00       		.byte	0
 2464 020f 00       		.byte	0
 2465 0210 27       		.uleb128 0x27
 2466 0211 0B       		.uleb128 0xb
 2467 0212 01       		.byte	0x1
 2468 0213 55       		.uleb128 0x55
 2469 0214 06       		.uleb128 0x6
 2470 0215 01       		.uleb128 0x1
 2471 0216 13       		.uleb128 0x13
 2472 0217 00       		.byte	0
 2473 0218 00       		.byte	0
 2474 0219 28       		.uleb128 0x28
 2475 021a 898201   		.uleb128 0x4109
 2476 021d 01       		.byte	0x1
 2477 021e 11       		.uleb128 0x11
 2478 021f 01       		.uleb128 0x1
 2479 0220 31       		.uleb128 0x31
 2480 0221 13       		.uleb128 0x13
 2481 0222 01       		.uleb128 0x1
 2482 0223 13       		.uleb128 0x13
 2483 0224 00       		.byte	0
 2484 0225 00       		.byte	0
 2485 0226 29       		.uleb128 0x29
 2486 0227 898201   		.uleb128 0x4109
 2487 022a 00       		.byte	0
 2488 022b 11       		.uleb128 0x11
 2489 022c 01       		.uleb128 0x1
 2490 022d 31       		.uleb128 0x31
 2491 022e 13       		.uleb128 0x13
 2492 022f 00       		.byte	0
ARM GAS  /var/folders/dt/0wfd0knj7gs46m8vwfzktm600000gn/T//ccmnLkkv.s 			page 45


 2493 0230 00       		.byte	0
 2494 0231 2A       		.uleb128 0x2a
 2495 0232 0B       		.uleb128 0xb
 2496 0233 01       		.byte	0x1
 2497 0234 11       		.uleb128 0x11
 2498 0235 01       		.uleb128 0x1
 2499 0236 12       		.uleb128 0x12
 2500 0237 01       		.uleb128 0x1
 2501 0238 01       		.uleb128 0x1
 2502 0239 13       		.uleb128 0x13
 2503 023a 00       		.byte	0
 2504 023b 00       		.byte	0
 2505 023c 2B       		.uleb128 0x2b
 2506 023d 898201   		.uleb128 0x4109
 2507 0240 01       		.byte	0x1
 2508 0241 11       		.uleb128 0x11
 2509 0242 01       		.uleb128 0x1
 2510 0243 9542     		.uleb128 0x2115
 2511 0245 0C       		.uleb128 0xc
 2512 0246 31       		.uleb128 0x31
 2513 0247 13       		.uleb128 0x13
 2514 0248 01       		.uleb128 0x1
 2515 0249 13       		.uleb128 0x13
 2516 024a 00       		.byte	0
 2517 024b 00       		.byte	0
 2518 024c 2C       		.uleb128 0x2c
 2519 024d 2E       		.uleb128 0x2e
 2520 024e 01       		.byte	0x1
 2521 024f 3F       		.uleb128 0x3f
 2522 0250 0C       		.uleb128 0xc
 2523 0251 03       		.uleb128 0x3
 2524 0252 0E       		.uleb128 0xe
 2525 0253 3A       		.uleb128 0x3a
 2526 0254 0B       		.uleb128 0xb
 2527 0255 3B       		.uleb128 0x3b
 2528 0256 05       		.uleb128 0x5
 2529 0257 27       		.uleb128 0x27
 2530 0258 0C       		.uleb128 0xc
 2531 0259 11       		.uleb128 0x11
 2532 025a 01       		.uleb128 0x1
 2533 025b 12       		.uleb128 0x12
 2534 025c 01       		.uleb128 0x1
 2535 025d 40       		.uleb128 0x40
 2536 025e 06       		.uleb128 0x6
 2537 025f 9742     		.uleb128 0x2117
 2538 0261 0C       		.uleb128 0xc
 2539 0262 01       		.uleb128 0x1
 2540 0263 13       		.uleb128 0x13
 2541 0264 00       		.byte	0
 2542 0265 00       		.byte	0
 2543 0266 2D       		.uleb128 0x2d
 2544 0267 34       		.uleb128 0x34
 2545 0268 00       		.byte	0
 2546 0269 03       		.uleb128 0x3
 2547 026a 08       		.uleb128 0x8
 2548 026b 3A       		.uleb128 0x3a
 2549 026c 0B       		.uleb128 0xb
ARM GAS  /var/folders/dt/0wfd0knj7gs46m8vwfzktm600000gn/T//ccmnLkkv.s 			page 46


 2550 026d 3B       		.uleb128 0x3b
 2551 026e 05       		.uleb128 0x5
 2552 026f 49       		.uleb128 0x49
 2553 0270 13       		.uleb128 0x13
 2554 0271 02       		.uleb128 0x2
 2555 0272 0A       		.uleb128 0xa
 2556 0273 00       		.byte	0
 2557 0274 00       		.byte	0
 2558 0275 2E       		.uleb128 0x2e
 2559 0276 1D       		.uleb128 0x1d
 2560 0277 01       		.byte	0x1
 2561 0278 31       		.uleb128 0x31
 2562 0279 13       		.uleb128 0x13
 2563 027a 52       		.uleb128 0x52
 2564 027b 01       		.uleb128 0x1
 2565 027c 55       		.uleb128 0x55
 2566 027d 06       		.uleb128 0x6
 2567 027e 58       		.uleb128 0x58
 2568 027f 0B       		.uleb128 0xb
 2569 0280 59       		.uleb128 0x59
 2570 0281 05       		.uleb128 0x5
 2571 0282 01       		.uleb128 0x1
 2572 0283 13       		.uleb128 0x13
 2573 0284 00       		.byte	0
 2574 0285 00       		.byte	0
 2575 0286 2F       		.uleb128 0x2f
 2576 0287 898201   		.uleb128 0x4109
 2577 028a 00       		.byte	0
 2578 028b 11       		.uleb128 0x11
 2579 028c 01       		.uleb128 0x1
 2580 028d 9542     		.uleb128 0x2115
 2581 028f 0C       		.uleb128 0xc
 2582 0290 31       		.uleb128 0x31
 2583 0291 13       		.uleb128 0x13
 2584 0292 00       		.byte	0
 2585 0293 00       		.byte	0
 2586 0294 30       		.uleb128 0x30
 2587 0295 34       		.uleb128 0x34
 2588 0296 00       		.byte	0
 2589 0297 03       		.uleb128 0x3
 2590 0298 0E       		.uleb128 0xe
 2591 0299 3A       		.uleb128 0x3a
 2592 029a 0B       		.uleb128 0xb
 2593 029b 3B       		.uleb128 0x3b
 2594 029c 0B       		.uleb128 0xb
 2595 029d 49       		.uleb128 0x49
 2596 029e 13       		.uleb128 0x13
 2597 029f 3F       		.uleb128 0x3f
 2598 02a0 0C       		.uleb128 0xc
 2599 02a1 02       		.uleb128 0x2
 2600 02a2 0A       		.uleb128 0xa
 2601 02a3 00       		.byte	0
 2602 02a4 00       		.byte	0
 2603 02a5 31       		.uleb128 0x31
 2604 02a6 2E       		.uleb128 0x2e
 2605 02a7 01       		.byte	0x1
 2606 02a8 3F       		.uleb128 0x3f
ARM GAS  /var/folders/dt/0wfd0knj7gs46m8vwfzktm600000gn/T//ccmnLkkv.s 			page 47


 2607 02a9 0C       		.uleb128 0xc
 2608 02aa 03       		.uleb128 0x3
 2609 02ab 0E       		.uleb128 0xe
 2610 02ac 3A       		.uleb128 0x3a
 2611 02ad 0B       		.uleb128 0xb
 2612 02ae 3B       		.uleb128 0x3b
 2613 02af 0B       		.uleb128 0xb
 2614 02b0 27       		.uleb128 0x27
 2615 02b1 0C       		.uleb128 0xc
 2616 02b2 3C       		.uleb128 0x3c
 2617 02b3 0C       		.uleb128 0xc
 2618 02b4 01       		.uleb128 0x1
 2619 02b5 13       		.uleb128 0x13
 2620 02b6 00       		.byte	0
 2621 02b7 00       		.byte	0
 2622 02b8 32       		.uleb128 0x32
 2623 02b9 2E       		.uleb128 0x2e
 2624 02ba 01       		.byte	0x1
 2625 02bb 3F       		.uleb128 0x3f
 2626 02bc 0C       		.uleb128 0xc
 2627 02bd 03       		.uleb128 0x3
 2628 02be 0E       		.uleb128 0xe
 2629 02bf 3A       		.uleb128 0x3a
 2630 02c0 0B       		.uleb128 0xb
 2631 02c1 3B       		.uleb128 0x3b
 2632 02c2 05       		.uleb128 0x5
 2633 02c3 27       		.uleb128 0x27
 2634 02c4 0C       		.uleb128 0xc
 2635 02c5 3C       		.uleb128 0x3c
 2636 02c6 0C       		.uleb128 0xc
 2637 02c7 01       		.uleb128 0x1
 2638 02c8 13       		.uleb128 0x13
 2639 02c9 00       		.byte	0
 2640 02ca 00       		.byte	0
 2641 02cb 33       		.uleb128 0x33
 2642 02cc 2E       		.uleb128 0x2e
 2643 02cd 00       		.byte	0
 2644 02ce 3F       		.uleb128 0x3f
 2645 02cf 0C       		.uleb128 0xc
 2646 02d0 03       		.uleb128 0x3
 2647 02d1 0E       		.uleb128 0xe
 2648 02d2 3A       		.uleb128 0x3a
 2649 02d3 0B       		.uleb128 0xb
 2650 02d4 3B       		.uleb128 0x3b
 2651 02d5 0B       		.uleb128 0xb
 2652 02d6 27       		.uleb128 0x27
 2653 02d7 0C       		.uleb128 0xc
 2654 02d8 3C       		.uleb128 0x3c
 2655 02d9 0C       		.uleb128 0xc
 2656 02da 00       		.byte	0
 2657 02db 00       		.byte	0
 2658 02dc 34       		.uleb128 0x34
 2659 02dd 2E       		.uleb128 0x2e
 2660 02de 01       		.byte	0x1
 2661 02df 3F       		.uleb128 0x3f
 2662 02e0 0C       		.uleb128 0xc
 2663 02e1 03       		.uleb128 0x3
ARM GAS  /var/folders/dt/0wfd0knj7gs46m8vwfzktm600000gn/T//ccmnLkkv.s 			page 48


 2664 02e2 0E       		.uleb128 0xe
 2665 02e3 3A       		.uleb128 0x3a
 2666 02e4 0B       		.uleb128 0xb
 2667 02e5 3B       		.uleb128 0x3b
 2668 02e6 0B       		.uleb128 0xb
 2669 02e7 27       		.uleb128 0x27
 2670 02e8 0C       		.uleb128 0xc
 2671 02e9 3C       		.uleb128 0x3c
 2672 02ea 0C       		.uleb128 0xc
 2673 02eb 00       		.byte	0
 2674 02ec 00       		.byte	0
 2675 02ed 00       		.byte	0
 2676              		.section	.debug_loc,"",%progbits
 2677              	.Ldebug_loc0:
 2678              	.LLST0:
 2679 0000 00000000 		.4byte	.LFB8
 2680 0004 02000000 		.4byte	.LCFI0
 2681 0008 0200     		.2byte	0x2
 2682 000a 7D       		.byte	0x7d
 2683 000b 00       		.sleb128 0
 2684 000c 02000000 		.4byte	.LCFI0
 2685 0010 40000000 		.4byte	.LFE8
 2686 0014 0200     		.2byte	0x2
 2687 0016 7D       		.byte	0x7d
 2688 0017 08       		.sleb128 8
 2689 0018 00000000 		.4byte	0
 2690 001c 00000000 		.4byte	0
 2691              	.LLST1:
 2692 0020 00000000 		.4byte	.LVL0
 2693 0024 10000000 		.4byte	.LVL1
 2694 0028 0100     		.2byte	0x1
 2695 002a 50       		.byte	0x50
 2696 002b 10000000 		.4byte	.LVL1
 2697 002f 30000000 		.4byte	.LVL4
 2698 0033 0100     		.2byte	0x1
 2699 0035 54       		.byte	0x54
 2700 0036 30000000 		.4byte	.LVL4
 2701 003a 32000000 		.4byte	.LVL5
 2702 003e 0100     		.2byte	0x1
 2703 0040 50       		.byte	0x50
 2704 0041 32000000 		.4byte	.LVL5
 2705 0045 40000000 		.4byte	.LFE8
 2706 0049 0100     		.2byte	0x1
 2707 004b 54       		.byte	0x54
 2708 004c 00000000 		.4byte	0
 2709 0050 00000000 		.4byte	0
 2710              	.LLST2:
 2711 0054 1A000000 		.4byte	.LVL2
 2712 0058 30000000 		.4byte	.LVL4
 2713 005c 0100     		.2byte	0x1
 2714 005e 53       		.byte	0x53
 2715 005f 00000000 		.4byte	0
 2716 0063 00000000 		.4byte	0
 2717              	.LLST3:
 2718 0067 00000000 		.4byte	.LVL7
 2719 006b 35000000 		.4byte	.LVL10-1
 2720 006f 0100     		.2byte	0x1
ARM GAS  /var/folders/dt/0wfd0knj7gs46m8vwfzktm600000gn/T//ccmnLkkv.s 			page 49


 2721 0071 50       		.byte	0x50
 2722 0072 35000000 		.4byte	.LVL10-1
 2723 0076 36000000 		.4byte	.LVL10
 2724 007a 0400     		.2byte	0x4
 2725 007c F3       		.byte	0xf3
 2726 007d 01       		.uleb128 0x1
 2727 007e 50       		.byte	0x50
 2728 007f 9F       		.byte	0x9f
 2729 0080 36000000 		.4byte	.LVL10
 2730 0084 38000000 		.4byte	.LFE10
 2731 0088 0100     		.2byte	0x1
 2732 008a 50       		.byte	0x50
 2733 008b 00000000 		.4byte	0
 2734 008f 00000000 		.4byte	0
 2735              	.LLST5:
 2736 0093 22000000 		.4byte	.LVL8
 2737 0097 2C000000 		.4byte	.LVL9
 2738 009b 0100     		.2byte	0x1
 2739 009d 50       		.byte	0x50
 2740 009e 00000000 		.4byte	0
 2741 00a2 00000000 		.4byte	0
 2742              	.LLST6:
 2743 00a6 00000000 		.4byte	.LFB9
 2744 00aa 02000000 		.4byte	.LCFI1
 2745 00ae 0200     		.2byte	0x2
 2746 00b0 7D       		.byte	0x7d
 2747 00b1 00       		.sleb128 0
 2748 00b2 02000000 		.4byte	.LCFI1
 2749 00b6 50000000 		.4byte	.LFE9
 2750 00ba 0200     		.2byte	0x2
 2751 00bc 7D       		.byte	0x7d
 2752 00bd 10       		.sleb128 16
 2753 00be 00000000 		.4byte	0
 2754 00c2 00000000 		.4byte	0
 2755              	.LLST7:
 2756 00c6 00000000 		.4byte	.LVL11
 2757 00ca 09000000 		.4byte	.LVL12-1
 2758 00ce 0100     		.2byte	0x1
 2759 00d0 50       		.byte	0x50
 2760 00d1 09000000 		.4byte	.LVL12-1
 2761 00d5 50000000 		.4byte	.LFE9
 2762 00d9 0400     		.2byte	0x4
 2763 00db F3       		.byte	0xf3
 2764 00dc 01       		.uleb128 0x1
 2765 00dd 50       		.byte	0x50
 2766 00de 9F       		.byte	0x9f
 2767 00df 00000000 		.4byte	0
 2768 00e3 00000000 		.4byte	0
 2769              	.LLST8:
 2770 00e7 14000000 		.4byte	.LVL14
 2771 00eb 29000000 		.4byte	.LVL15-1
 2772 00ef 0100     		.2byte	0x1
 2773 00f1 53       		.byte	0x53
 2774 00f2 00000000 		.4byte	0
 2775 00f6 00000000 		.4byte	0
 2776              	.LLST9:
 2777 00fa 00000000 		.4byte	.LFB11
ARM GAS  /var/folders/dt/0wfd0knj7gs46m8vwfzktm600000gn/T//ccmnLkkv.s 			page 50


 2778 00fe 02000000 		.4byte	.LCFI2
 2779 0102 0200     		.2byte	0x2
 2780 0104 7D       		.byte	0x7d
 2781 0105 00       		.sleb128 0
 2782 0106 02000000 		.4byte	.LCFI2
 2783 010a 06000000 		.4byte	.LCFI3
 2784 010e 0200     		.2byte	0x2
 2785 0110 7D       		.byte	0x7d
 2786 0111 10       		.sleb128 16
 2787 0112 06000000 		.4byte	.LCFI3
 2788 0116 48000000 		.4byte	.LFE11
 2789 011a 0200     		.2byte	0x2
 2790 011c 7D       		.byte	0x7d
 2791 011d 28       		.sleb128 40
 2792 011e 00000000 		.4byte	0
 2793 0122 00000000 		.4byte	0
 2794              	.LLST10:
 2795 0126 00000000 		.4byte	.LVL18
 2796 012a 0B000000 		.4byte	.LVL19-1
 2797 012e 0100     		.2byte	0x1
 2798 0130 50       		.byte	0x50
 2799 0131 0B000000 		.4byte	.LVL19-1
 2800 0135 48000000 		.4byte	.LFE11
 2801 0139 0400     		.2byte	0x4
 2802 013b F3       		.byte	0xf3
 2803 013c 01       		.uleb128 0x1
 2804 013d 50       		.byte	0x50
 2805 013e 9F       		.byte	0x9f
 2806 013f 00000000 		.4byte	0
 2807 0143 00000000 		.4byte	0
 2808              	.LLST11:
 2809 0147 00000000 		.4byte	.LVL18
 2810 014b 0B000000 		.4byte	.LVL19-1
 2811 014f 0100     		.2byte	0x1
 2812 0151 51       		.byte	0x51
 2813 0152 0B000000 		.4byte	.LVL19-1
 2814 0156 48000000 		.4byte	.LFE11
 2815 015a 0100     		.2byte	0x1
 2816 015c 54       		.byte	0x54
 2817 015d 00000000 		.4byte	0
 2818 0161 00000000 		.4byte	0
 2819              	.LLST12:
 2820 0165 00000000 		.4byte	.LFB12
 2821 0169 02000000 		.4byte	.LCFI4
 2822 016d 0200     		.2byte	0x2
 2823 016f 7D       		.byte	0x7d
 2824 0170 00       		.sleb128 0
 2825 0171 02000000 		.4byte	.LCFI4
 2826 0175 60000000 		.4byte	.LFE12
 2827 0179 0200     		.2byte	0x2
 2828 017b 7D       		.byte	0x7d
 2829 017c 10       		.sleb128 16
 2830 017d 00000000 		.4byte	0
 2831 0181 00000000 		.4byte	0
 2832              	.LLST13:
 2833 0185 00000000 		.4byte	.LVL24
 2834 0189 0B000000 		.4byte	.LVL25-1
ARM GAS  /var/folders/dt/0wfd0knj7gs46m8vwfzktm600000gn/T//ccmnLkkv.s 			page 51


 2835 018d 0100     		.2byte	0x1
 2836 018f 50       		.byte	0x50
 2837 0190 0B000000 		.4byte	.LVL25-1
 2838 0194 60000000 		.4byte	.LFE12
 2839 0198 0100     		.2byte	0x1
 2840 019a 54       		.byte	0x54
 2841 019b 00000000 		.4byte	0
 2842 019f 00000000 		.4byte	0
 2843              	.LLST14:
 2844 01a3 00000000 		.4byte	.LVL24
 2845 01a7 0B000000 		.4byte	.LVL25-1
 2846 01ab 0100     		.2byte	0x1
 2847 01ad 51       		.byte	0x51
 2848 01ae 0B000000 		.4byte	.LVL25-1
 2849 01b2 20000000 		.4byte	.LVL27
 2850 01b6 0100     		.2byte	0x1
 2851 01b8 56       		.byte	0x56
 2852 01b9 20000000 		.4byte	.LVL27
 2853 01bd 44000000 		.4byte	.LVL29
 2854 01c1 0400     		.2byte	0x4
 2855 01c3 F3       		.byte	0xf3
 2856 01c4 01       		.uleb128 0x1
 2857 01c5 51       		.byte	0x51
 2858 01c6 9F       		.byte	0x9f
 2859 01c7 44000000 		.4byte	.LVL29
 2860 01cb 4E000000 		.4byte	.LVL30
 2861 01cf 0100     		.2byte	0x1
 2862 01d1 56       		.byte	0x56
 2863 01d2 4E000000 		.4byte	.LVL30
 2864 01d6 60000000 		.4byte	.LFE12
 2865 01da 0400     		.2byte	0x4
 2866 01dc F3       		.byte	0xf3
 2867 01dd 01       		.uleb128 0x1
 2868 01de 51       		.byte	0x51
 2869 01df 9F       		.byte	0x9f
 2870 01e0 00000000 		.4byte	0
 2871 01e4 00000000 		.4byte	0
 2872              	.LLST15:
 2873 01e8 20000000 		.4byte	.LVL27
 2874 01ec 2D000000 		.4byte	.LVL28-1
 2875 01f0 0100     		.2byte	0x1
 2876 01f2 50       		.byte	0x50
 2877 01f3 2D000000 		.4byte	.LVL28-1
 2878 01f7 44000000 		.4byte	.LVL29
 2879 01fb 0100     		.2byte	0x1
 2880 01fd 56       		.byte	0x56
 2881 01fe 4E000000 		.4byte	.LVL30
 2882 0202 60000000 		.4byte	.LFE12
 2883 0206 0100     		.2byte	0x1
 2884 0208 56       		.byte	0x56
 2885 0209 00000000 		.4byte	0
 2886 020d 00000000 		.4byte	0
 2887              	.LLST16:
 2888 0211 00000000 		.4byte	.LFB14
 2889 0215 02000000 		.4byte	.LCFI5
 2890 0219 0200     		.2byte	0x2
 2891 021b 7D       		.byte	0x7d
ARM GAS  /var/folders/dt/0wfd0knj7gs46m8vwfzktm600000gn/T//ccmnLkkv.s 			page 52


 2892 021c 00       		.sleb128 0
 2893 021d 02000000 		.4byte	.LCFI5
 2894 0221 4C000000 		.4byte	.LFE14
 2895 0225 0200     		.2byte	0x2
 2896 0227 7D       		.byte	0x7d
 2897 0228 10       		.sleb128 16
 2898 0229 00000000 		.4byte	0
 2899 022d 00000000 		.4byte	0
 2900              	.LLST17:
 2901 0231 0A000000 		.4byte	.LVL32
 2902 0235 1F000000 		.4byte	.LVL33-1
 2903 0239 0100     		.2byte	0x1
 2904 023b 53       		.byte	0x53
 2905 023c 00000000 		.4byte	0
 2906 0240 00000000 		.4byte	0
 2907              	.LLST18:
 2908 0244 00000000 		.4byte	.LFB13
 2909 0248 02000000 		.4byte	.LCFI6
 2910 024c 0200     		.2byte	0x2
 2911 024e 7D       		.byte	0x7d
 2912 024f 00       		.sleb128 0
 2913 0250 02000000 		.4byte	.LCFI6
 2914 0254 24000000 		.4byte	.LFE13
 2915 0258 0200     		.2byte	0x2
 2916 025a 7D       		.byte	0x7d
 2917 025b 08       		.sleb128 8
 2918 025c 00000000 		.4byte	0
 2919 0260 00000000 		.4byte	0
 2920              		.section	.debug_aranges,"",%progbits
 2921 0000 54000000 		.4byte	0x54
 2922 0004 0200     		.2byte	0x2
 2923 0006 00000000 		.4byte	.Ldebug_info0
 2924 000a 04       		.byte	0x4
 2925 000b 00       		.byte	0
 2926 000c 0000     		.2byte	0
 2927 000e 0000     		.2byte	0
 2928 0010 00000000 		.4byte	.LFB7
 2929 0014 1A000000 		.4byte	.LFE7-.LFB7
 2930 0018 00000000 		.4byte	.LFB8
 2931 001c 40000000 		.4byte	.LFE8-.LFB8
 2932 0020 00000000 		.4byte	.LFB10
 2933 0024 38000000 		.4byte	.LFE10-.LFB10
 2934 0028 00000000 		.4byte	.LFB9
 2935 002c 50000000 		.4byte	.LFE9-.LFB9
 2936 0030 00000000 		.4byte	.LFB11
 2937 0034 48000000 		.4byte	.LFE11-.LFB11
 2938 0038 00000000 		.4byte	.LFB12
 2939 003c 60000000 		.4byte	.LFE12-.LFB12
 2940 0040 00000000 		.4byte	.LFB14
 2941 0044 4C000000 		.4byte	.LFE14-.LFB14
 2942 0048 00000000 		.4byte	.LFB13
 2943 004c 24000000 		.4byte	.LFE13-.LFB13
 2944 0050 00000000 		.4byte	0
 2945 0054 00000000 		.4byte	0
 2946              		.section	.debug_ranges,"",%progbits
 2947              	.Ldebug_ranges0:
 2948 0000 0A000000 		.4byte	.LBB12
ARM GAS  /var/folders/dt/0wfd0knj7gs46m8vwfzktm600000gn/T//ccmnLkkv.s 			page 53


 2949 0004 0C000000 		.4byte	.LBE12
 2950 0008 0E000000 		.4byte	.LBB17
 2951 000c 10000000 		.4byte	.LBE17
 2952 0010 16000000 		.4byte	.LBB18
 2953 0014 18000000 		.4byte	.LBE18
 2954 0018 22000000 		.4byte	.LBB19
 2955 001c 24000000 		.4byte	.LBE19
 2956 0020 00000000 		.4byte	0
 2957 0024 00000000 		.4byte	0
 2958 0028 0A000000 		.4byte	.LBB13
 2959 002c 0C000000 		.4byte	.LBE13
 2960 0030 0E000000 		.4byte	.LBB14
 2961 0034 10000000 		.4byte	.LBE14
 2962 0038 16000000 		.4byte	.LBB15
 2963 003c 18000000 		.4byte	.LBE15
 2964 0040 22000000 		.4byte	.LBB16
 2965 0044 24000000 		.4byte	.LBE16
 2966 0048 00000000 		.4byte	0
 2967 004c 00000000 		.4byte	0
 2968 0050 2A000000 		.4byte	.LBB20
 2969 0054 3E000000 		.4byte	.LBE20
 2970 0058 42000000 		.4byte	.LBB21
 2971 005c 50000000 		.4byte	.LBE21
 2972 0060 00000000 		.4byte	0
 2973 0064 00000000 		.4byte	0
 2974 0068 18000000 		.4byte	.LBB23
 2975 006c 3C000000 		.4byte	.LBE23
 2976 0070 40000000 		.4byte	.LBB27
 2977 0074 44000000 		.4byte	.LBE27
 2978 0078 4E000000 		.4byte	.LBB28
 2979 007c 60000000 		.4byte	.LBE28
 2980 0080 00000000 		.4byte	0
 2981 0084 00000000 		.4byte	0
 2982 0088 2E000000 		.4byte	.LBB24
 2983 008c 3C000000 		.4byte	.LBE24
 2984 0090 40000000 		.4byte	.LBB25
 2985 0094 44000000 		.4byte	.LBE25
 2986 0098 4E000000 		.4byte	.LBB26
 2987 009c 60000000 		.4byte	.LBE26
 2988 00a0 00000000 		.4byte	0
 2989 00a4 00000000 		.4byte	0
 2990 00a8 06000000 		.4byte	.LBB29
 2991 00ac 08000000 		.4byte	.LBE29
 2992 00b0 0A000000 		.4byte	.LBB34
 2993 00b4 0C000000 		.4byte	.LBE34
 2994 00b8 10000000 		.4byte	.LBB35
 2995 00bc 12000000 		.4byte	.LBE35
 2996 00c0 18000000 		.4byte	.LBB36
 2997 00c4 1A000000 		.4byte	.LBE36
 2998 00c8 00000000 		.4byte	0
 2999 00cc 00000000 		.4byte	0
 3000 00d0 06000000 		.4byte	.LBB30
 3001 00d4 08000000 		.4byte	.LBE30
 3002 00d8 0A000000 		.4byte	.LBB31
 3003 00dc 0C000000 		.4byte	.LBE31
 3004 00e0 10000000 		.4byte	.LBB32
 3005 00e4 12000000 		.4byte	.LBE32
ARM GAS  /var/folders/dt/0wfd0knj7gs46m8vwfzktm600000gn/T//ccmnLkkv.s 			page 54


 3006 00e8 18000000 		.4byte	.LBB33
 3007 00ec 1A000000 		.4byte	.LBE33
 3008 00f0 00000000 		.4byte	0
 3009 00f4 00000000 		.4byte	0
 3010 00f8 26000000 		.4byte	.LBB37
 3011 00fc 3A000000 		.4byte	.LBE37
 3012 0100 3E000000 		.4byte	.LBB38
 3013 0104 4C000000 		.4byte	.LBE38
 3014 0108 00000000 		.4byte	0
 3015 010c 00000000 		.4byte	0
 3016 0110 00000000 		.4byte	.LFB7
 3017 0114 1A000000 		.4byte	.LFE7
 3018 0118 00000000 		.4byte	.LFB8
 3019 011c 40000000 		.4byte	.LFE8
 3020 0120 00000000 		.4byte	.LFB10
 3021 0124 38000000 		.4byte	.LFE10
 3022 0128 00000000 		.4byte	.LFB9
 3023 012c 50000000 		.4byte	.LFE9
 3024 0130 00000000 		.4byte	.LFB11
 3025 0134 48000000 		.4byte	.LFE11
 3026 0138 00000000 		.4byte	.LFB12
 3027 013c 60000000 		.4byte	.LFE12
 3028 0140 00000000 		.4byte	.LFB14
 3029 0144 4C000000 		.4byte	.LFE14
 3030 0148 00000000 		.4byte	.LFB13
 3031 014c 24000000 		.4byte	.LFE13
 3032 0150 00000000 		.4byte	0
 3033 0154 00000000 		.4byte	0
 3034              		.section	.debug_line,"",%progbits
 3035              	.Ldebug_line0:
 3036 0000 EC020000 		.section	.debug_str,"MS",%progbits,1
 3036      02006401 
 3036      00000201 
 3036      FB0E0D00 
 3036      01010101 
 3037              	.LASF36:
 3038 0000 705F6D73 		.ascii	"p_msg\000"
 3038      6700
 3039              	.LASF85:
 3040 0006 63684462 		.ascii	"chDbgPanic\000"
 3040      6750616E 
 3040      696300
 3041              	.LASF70:
 3042 0011 7264796D 		.ascii	"rdymsg\000"
 3042      736700
 3043              	.LASF11:
 3044 0018 75696E74 		.ascii	"uint64_t\000"
 3044      36345F74 
 3044      00
 3045              	.LASF12:
 3046 0021 6C6F6E67 		.ascii	"long long unsigned int\000"
 3046      206C6F6E 
 3046      6720756E 
 3046      7369676E 
 3046      65642069 
 3047              	.LASF71:
 3048 0038 65786974 		.ascii	"exitcode\000"
ARM GAS  /var/folders/dt/0wfd0knj7gs46m8vwfzktm600000gn/T//ccmnLkkv.s 			page 55


 3048      636F6465 
 3048      00
 3049              	.LASF24:
 3050 0041 705F7072 		.ascii	"p_prio\000"
 3050      696F00
 3051              	.LASF92:
 3052 0048 5F736368 		.ascii	"_scheduler_init\000"
 3052      6564756C 
 3052      65725F69 
 3052      6E697400 
 3053              	.LASF10:
 3054 0058 6C6F6E67 		.ascii	"long long int\000"
 3054      206C6F6E 
 3054      6720696E 
 3054      7400
 3055              	.LASF1:
 3056 0066 7369676E 		.ascii	"signed char\000"
 3056      65642063 
 3056      68617200 
 3057              	.LASF40:
 3058 0072 705F6D70 		.ascii	"p_mpool\000"
 3058      6F6F6C00 
 3059              	.LASF67:
 3060 007a 6D5F7175 		.ascii	"m_queue\000"
 3060      65756500 
 3061              	.LASF7:
 3062 0082 6C6F6E67 		.ascii	"long int\000"
 3062      20696E74 
 3062      00
 3063              	.LASF14:
 3064 008b 74737461 		.ascii	"tstate_t\000"
 3064      74655F74 
 3064      00
 3065              	.LASF26:
 3066 0094 705F6E65 		.ascii	"p_newer\000"
 3066      77657200 
 3067              	.LASF64:
 3068 009c 735F7175 		.ascii	"s_queue\000"
 3068      65756500 
 3069              	.LASF84:
 3070 00a4 63685363 		.ascii	"chSchRescheduleS\000"
 3070      68526573 
 3070      63686564 
 3070      756C6553 
 3070      00
 3071              	.LASF58:
 3072 00b5 725F6E65 		.ascii	"r_newer\000"
 3072      77657200 
 3073              	.LASF43:
 3074 00bd 72656761 		.ascii	"regarm_t\000"
 3074      726D5F74 
 3074      00
 3075              	.LASF51:
 3076 00c6 76745F70 		.ascii	"vt_prev\000"
 3076      72657600 
 3077              	.LASF83:
 3078 00ce 63685363 		.ascii	"chSchDoReschedule\000"
ARM GAS  /var/folders/dt/0wfd0knj7gs46m8vwfzktm600000gn/T//ccmnLkkv.s 			page 56


 3078      68446F52 
 3078      65736368 
 3078      6564756C 
 3078      6500
 3079              	.LASF20:
 3080 00e0 636E745F 		.ascii	"cnt_t\000"
 3080      7400
 3081              	.LASF29:
 3082 00e6 705F7374 		.ascii	"p_stklimit\000"
 3082      6B6C696D 
 3082      697400
 3083              	.LASF0:
 3084 00f1 756E7369 		.ascii	"unsigned int\000"
 3084      676E6564 
 3084      20696E74 
 3084      00
 3085              	.LASF93:
 3086 00fe 77616B65 		.ascii	"wakeup\000"
 3086      757000
 3087              	.LASF50:
 3088 0105 76745F6E 		.ascii	"vt_next\000"
 3088      65787400 
 3089              	.LASF87:
 3090 010d 6462675F 		.ascii	"dbg_trace\000"
 3090      74726163 
 3090      6500
 3091              	.LASF86:
 3092 0117 5F706F72 		.ascii	"_port_switch\000"
 3092      745F7377 
 3092      69746368 
 3092      00
 3093              	.LASF9:
 3094 0124 6C6F6E67 		.ascii	"long unsigned int\000"
 3094      20756E73 
 3094      69676E65 
 3094      6420696E 
 3094      7400
 3095              	.LASF65:
 3096 0136 735F636E 		.ascii	"s_cnt\000"
 3096      7400
 3097              	.LASF46:
 3098 013c 636F6E74 		.ascii	"context\000"
 3098      65787400 
 3099              	.LASF4:
 3100 0144 73686F72 		.ascii	"short unsigned int\000"
 3100      7420756E 
 3100      7369676E 
 3100      65642069 
 3100      6E7400
 3101              	.LASF82:
 3102 0157 63685363 		.ascii	"chSchWakeupS\000"
 3102      6857616B 
 3102      65757053 
 3102      00
 3103              	.LASF17:
 3104 0164 6D73675F 		.ascii	"msg_t\000"
 3104      7400
ARM GAS  /var/folders/dt/0wfd0knj7gs46m8vwfzktm600000gn/T//ccmnLkkv.s 			page 57


 3105              	.LASF13:
 3106 016a 746D6F64 		.ascii	"tmode_t\000"
 3106      655F7400 
 3107              	.LASF95:
 3108 0172 63684462 		.ascii	"chDbgCheckClassS\000"
 3108      67436865 
 3108      636B436C 
 3108      61737353 
 3108      00
 3109              	.LASF42:
 3110 0183 54687265 		.ascii	"ThreadsList\000"
 3110      6164734C 
 3110      69737400 
 3111              	.LASF18:
 3112 018f 6576656E 		.ascii	"eventmask_t\000"
 3112      746D6173 
 3112      6B5F7400 
 3113              	.LASF66:
 3114 019b 4D757465 		.ascii	"Mutex\000"
 3114      7800
 3115              	.LASF44:
 3116 01a1 73746B61 		.ascii	"stkalign_t\000"
 3116      6C69676E 
 3116      5F7400
 3117              	.LASF52:
 3118 01ac 76745F74 		.ascii	"vt_time\000"
 3118      696D6500 
 3119              	.LASF47:
 3120 01b4 73697A65 		.ascii	"sizetype\000"
 3120      74797065 
 3120      00
 3121              	.LASF53:
 3122 01bd 76745F66 		.ascii	"vt_func\000"
 3122      756E6300 
 3123              	.LASF88:
 3124 01c5 63685654 		.ascii	"chVTSetI\000"
 3124      53657449 
 3124      00
 3125              	.LASF27:
 3126 01ce 705F6F6C 		.ascii	"p_older\000"
 3126      64657200 
 3127              	.LASF57:
 3128 01d6 725F6374 		.ascii	"r_ctx\000"
 3128      7800
 3129              	.LASF41:
 3130 01dc 54687265 		.ascii	"ThreadsQueue\000"
 3130      61647351 
 3130      75657565 
 3130      00
 3131              	.LASF75:
 3132 01e9 64657175 		.ascii	"dequeue\000"
 3132      65756500 
 3133              	.LASF89:
 3134 01f1 474E5520 		.ascii	"GNU C 4.7.2\000"
 3134      4320342E 
 3134      372E3200 
 3135              	.LASF61:
ARM GAS  /var/folders/dt/0wfd0knj7gs46m8vwfzktm600000gn/T//ccmnLkkv.s 			page 58


 3136 01fd 725F6375 		.ascii	"r_current\000"
 3136      7272656E 
 3136      7400
 3137              	.LASF59:
 3138 0207 725F6F6C 		.ascii	"r_older\000"
 3138      64657200 
 3139              	.LASF15:
 3140 020f 74726566 		.ascii	"trefs_t\000"
 3140      735F7400 
 3141              	.LASF23:
 3142 0217 705F7072 		.ascii	"p_prev\000"
 3142      657600
 3143              	.LASF16:
 3144 021e 74707269 		.ascii	"tprio_t\000"
 3144      6F5F7400 
 3145              	.LASF6:
 3146 0226 696E7433 		.ascii	"int32_t\000"
 3146      325F7400 
 3147              	.LASF2:
 3148 022e 756E7369 		.ascii	"unsigned char\000"
 3148      676E6564 
 3148      20636861 
 3148      7200
 3149              	.LASF77:
 3150 023c 6E657773 		.ascii	"newstate\000"
 3150      74617465 
 3150      00
 3151              	.LASF38:
 3152 0245 705F6D74 		.ascii	"p_mtxlist\000"
 3152      786C6973 
 3152      7400
 3153              	.LASF3:
 3154 024f 73686F72 		.ascii	"short int\000"
 3154      7420696E 
 3154      7400
 3155              	.LASF30:
 3156 0259 705F7374 		.ascii	"p_state\000"
 3156      61746500 
 3157              	.LASF56:
 3158 0261 725F7072 		.ascii	"r_prio\000"
 3158      696F00
 3159              	.LASF73:
 3160 0268 65776D61 		.ascii	"ewmask\000"
 3160      736B00
 3161              	.LASF22:
 3162 026f 705F6E65 		.ascii	"p_next\000"
 3162      787400
 3163              	.LASF31:
 3164 0276 705F666C 		.ascii	"p_flags\000"
 3164      61677300 
 3165              	.LASF21:
 3166 027e 54687265 		.ascii	"Thread\000"
 3166      616400
 3167              	.LASF96:
 3168 0285 63685654 		.ascii	"chVTResetI\000"
 3168      52657365 
 3168      744900
ARM GAS  /var/folders/dt/0wfd0knj7gs46m8vwfzktm600000gn/T//ccmnLkkv.s 			page 59


 3169              	.LASF81:
 3170 0290 63685363 		.ascii	"chSchGoSleepS\000"
 3170      68476F53 
 3170      6C656570 
 3170      5300
 3171              	.LASF37:
 3172 029e 705F6570 		.ascii	"p_epending\000"
 3172      656E6469 
 3172      6E6700
 3173              	.LASF8:
 3174 02a9 75696E74 		.ascii	"uint32_t\000"
 3174      33325F74 
 3174      00
 3175              	.LASF55:
 3176 02b2 725F7175 		.ascii	"r_queue\000"
 3176      65756500 
 3177              	.LASF49:
 3178 02ba 56697274 		.ascii	"VirtualTimer\000"
 3178      75616C54 
 3178      696D6572 
 3178      00
 3179              	.LASF74:
 3180 02c7 63686172 		.ascii	"char\000"
 3180      00
 3181              	.LASF76:
 3182 02cc 6669666F 		.ascii	"fifo_remove\000"
 3182      5F72656D 
 3182      6F766500 
 3183              	.LASF78:
 3184 02d8 63685363 		.ascii	"chSchReadyI\000"
 3184      68526561 
 3184      64794900 
 3185              	.LASF69:
 3186 02e4 6D5F6E65 		.ascii	"m_next\000"
 3186      787400
 3187              	.LASF19:
 3188 02eb 73797374 		.ascii	"systime_t\000"
 3188      696D655F 
 3188      7400
 3189              	.LASF39:
 3190 02f5 705F7265 		.ascii	"p_realprio\000"
 3190      616C7072 
 3190      696F00
 3191              	.LASF48:
 3192 0300 76746675 		.ascii	"vtfunc_t\000"
 3192      6E635F74 
 3192      00
 3193              	.LASF91:
 3194 0309 2F746D70 		.ascii	"/tmp/mlab-chibios/demos/STM32F107-serialshell\000"
 3194      2F6D6C61 
 3194      622D6368 
 3194      6962696F 
 3194      732F6465 
 3195              	.LASF33:
 3196 0337 705F7469 		.ascii	"p_time\000"
 3196      6D6500
 3197              	.LASF45:
ARM GAS  /var/folders/dt/0wfd0knj7gs46m8vwfzktm600000gn/T//ccmnLkkv.s 			page 60


 3198 033e 696E7463 		.ascii	"intctx\000"
 3198      747800
 3199              	.LASF35:
 3200 0345 705F6D73 		.ascii	"p_msgqueue\000"
 3200      67717565 
 3200      756500
 3201              	.LASF80:
 3202 0350 74696D65 		.ascii	"time\000"
 3202      00
 3203              	.LASF54:
 3204 0355 76745F70 		.ascii	"vt_par\000"
 3204      617200
 3205              	.LASF63:
 3206 035c 53656D61 		.ascii	"Semaphore\000"
 3206      70686F72 
 3206      6500
 3207              	.LASF32:
 3208 0366 705F7265 		.ascii	"p_refs\000"
 3208      667300
 3209              	.LASF62:
 3210 036d 52656164 		.ascii	"ReadyList\000"
 3210      794C6973 
 3210      7400
 3211              	.LASF90:
 3212 0377 2E2E2F2E 		.ascii	"../../os/kernel/src/chschd.c\000"
 3212      2E2F6F73 
 3212      2F6B6572 
 3212      6E656C2F 
 3212      7372632F 
 3213              	.LASF94:
 3214 0394 726C6973 		.ascii	"rlist\000"
 3214      7400
 3215              	.LASF5:
 3216 039a 75696E74 		.ascii	"uint8_t\000"
 3216      385F7400 
 3217              	.LASF72:
 3218 03a2 77746F62 		.ascii	"wtobjp\000"
 3218      6A7000
 3219              	.LASF28:
 3220 03a9 705F6E61 		.ascii	"p_name\000"
 3220      6D6500
 3221              	.LASF79:
 3222 03b0 63685363 		.ascii	"chSchGoSleepTimeoutS\000"
 3222      68476F53 
 3222      6C656570 
 3222      54696D65 
 3222      6F757453 
 3223              	.LASF60:
 3224 03c5 725F7072 		.ascii	"r_preempt\000"
 3224      65656D70 
 3224      7400
 3225              	.LASF68:
 3226 03cf 6D5F6F77 		.ascii	"m_owner\000"
 3226      6E657200 
 3227              	.LASF25:
 3228 03d7 705F6374 		.ascii	"p_ctx\000"
 3228      7800
ARM GAS  /var/folders/dt/0wfd0knj7gs46m8vwfzktm600000gn/T//ccmnLkkv.s 			page 61


 3229              	.LASF34:
 3230 03dd 705F7761 		.ascii	"p_waiting\000"
 3230      6974696E 
 3230      6700
 3231              		.ident	"GCC: (GNU) 4.7.2"
ARM GAS  /var/folders/dt/0wfd0knj7gs46m8vwfzktm600000gn/T//ccmnLkkv.s 			page 62


DEFINED SYMBOLS
                            *ABS*:0000000000000000 chschd.c
/var/folders/dt/0wfd0knj7gs46m8vwfzktm600000gn/T//ccmnLkkv.s:19     .text._scheduler_init:0000000000000000 $t
/var/folders/dt/0wfd0knj7gs46m8vwfzktm600000gn/T//ccmnLkkv.s:25     .text._scheduler_init:0000000000000000 _scheduler_init
/var/folders/dt/0wfd0knj7gs46m8vwfzktm600000gn/T//ccmnLkkv.s:624    .bss.rlist:0000000000000000 .LANCHOR0
/var/folders/dt/0wfd0knj7gs46m8vwfzktm600000gn/T//ccmnLkkv.s:54     .text.chSchReadyI:0000000000000000 $t
/var/folders/dt/0wfd0knj7gs46m8vwfzktm600000gn/T//ccmnLkkv.s:60     .text.chSchReadyI:0000000000000000 chSchReadyI
/var/folders/dt/0wfd0knj7gs46m8vwfzktm600000gn/T//ccmnLkkv.s:122    .text.chSchReadyI:0000000000000038 $d
/var/folders/dt/0wfd0knj7gs46m8vwfzktm600000gn/T//ccmnLkkv.s:128    .text.wakeup:0000000000000000 $t
/var/folders/dt/0wfd0knj7gs46m8vwfzktm600000gn/T//ccmnLkkv.s:133    .text.wakeup:0000000000000000 wakeup
/var/folders/dt/0wfd0knj7gs46m8vwfzktm600000gn/T//ccmnLkkv.s:147    .text.wakeup:000000000000000c $d
/var/folders/dt/0wfd0knj7gs46m8vwfzktm600000gn/T//ccmnLkkv.s:161    .text.wakeup:000000000000001a $t
/var/folders/dt/0wfd0knj7gs46m8vwfzktm600000gn/T//ccmnLkkv.s:196    .text.chSchGoSleepS:0000000000000000 $t
/var/folders/dt/0wfd0knj7gs46m8vwfzktm600000gn/T//ccmnLkkv.s:202    .text.chSchGoSleepS:0000000000000000 chSchGoSleepS
/var/folders/dt/0wfd0knj7gs46m8vwfzktm600000gn/T//ccmnLkkv.s:290    .text.chSchGoSleepS:0000000000000048 $d
/var/folders/dt/0wfd0knj7gs46m8vwfzktm600000gn/T//ccmnLkkv.s:297    .text.chSchGoSleepTimeoutS:0000000000000000 $t
/var/folders/dt/0wfd0knj7gs46m8vwfzktm600000gn/T//ccmnLkkv.s:303    .text.chSchGoSleepTimeoutS:0000000000000000 chSchGoSleepTimeoutS
/var/folders/dt/0wfd0knj7gs46m8vwfzktm600000gn/T//ccmnLkkv.s:367    .text.chSchGoSleepTimeoutS:0000000000000040 $d
/var/folders/dt/0wfd0knj7gs46m8vwfzktm600000gn/T//ccmnLkkv.s:373    .text.chSchWakeupS:0000000000000000 $t
/var/folders/dt/0wfd0knj7gs46m8vwfzktm600000gn/T//ccmnLkkv.s:379    .text.chSchWakeupS:0000000000000000 chSchWakeupS
/var/folders/dt/0wfd0knj7gs46m8vwfzktm600000gn/T//ccmnLkkv.s:468    .text.chSchWakeupS:0000000000000058 $d
/var/folders/dt/0wfd0knj7gs46m8vwfzktm600000gn/T//ccmnLkkv.s:476    .text.chSchDoReschedule:0000000000000000 $t
/var/folders/dt/0wfd0knj7gs46m8vwfzktm600000gn/T//ccmnLkkv.s:482    .text.chSchDoReschedule:0000000000000000 chSchDoReschedule
/var/folders/dt/0wfd0knj7gs46m8vwfzktm600000gn/T//ccmnLkkv.s:565    .text.chSchDoReschedule:0000000000000044 $d
/var/folders/dt/0wfd0knj7gs46m8vwfzktm600000gn/T//ccmnLkkv.s:572    .text.chSchRescheduleS:0000000000000000 $t
/var/folders/dt/0wfd0knj7gs46m8vwfzktm600000gn/T//ccmnLkkv.s:578    .text.chSchRescheduleS:0000000000000000 chSchRescheduleS
/var/folders/dt/0wfd0knj7gs46m8vwfzktm600000gn/T//ccmnLkkv.s:610    .text.chSchRescheduleS:0000000000000020 $d
/var/folders/dt/0wfd0knj7gs46m8vwfzktm600000gn/T//ccmnLkkv.s:627    .bss.rlist:0000000000000000 rlist
/var/folders/dt/0wfd0knj7gs46m8vwfzktm600000gn/T//ccmnLkkv.s:616    .rodata.str1.4:0000000000000000 $d
/var/folders/dt/0wfd0knj7gs46m8vwfzktm600000gn/T//ccmnLkkv.s:623    .bss.rlist:0000000000000000 $d
                     .debug_frame:0000000000000010 $d
/var/folders/dt/0wfd0knj7gs46m8vwfzktm600000gn/T//ccmnLkkv.s:372    .text.chSchGoSleepTimeoutS:0000000000000048 $t
/var/folders/dt/0wfd0knj7gs46m8vwfzktm600000gn/T//ccmnLkkv.s:571    .text.chSchDoReschedule:000000000000004c $t
/var/folders/dt/0wfd0knj7gs46m8vwfzktm600000gn/T//ccmnLkkv.s:615    .text.chSchRescheduleS:0000000000000024 $t

UNDEFINED SYMBOLS
chDbgPanic
chDbgCheckClassS
dbg_trace
_port_switch
chVTSetI
chVTResetI
