ARM GAS  /var/folders/dt/0wfd0knj7gs46m8vwfzktm600000gn/T//ccBlwGZX.s 			page 1


   1              		.syntax unified
   2              		.cpu cortex-m3
   3              		.fpu softvfp
   4              		.eabi_attribute 20, 1
   5              		.eabi_attribute 21, 1
   6              		.eabi_attribute 23, 3
   7              		.eabi_attribute 24, 1
   8              		.eabi_attribute 25, 1
   9              		.eabi_attribute 26, 1
  10              		.eabi_attribute 30, 2
  11              		.eabi_attribute 34, 1
  12              		.eabi_attribute 18, 4
  13              		.thumb
  14              		.file	"chsem.c"
  15              		.text
  16              	.Ltext0:
  17              		.cfi_sections	.debug_frame
  18              		.section	.text.chSemInit,"ax",%progbits
  19              		.align	2
  20              		.p2align 4,,15
  21              		.global	chSemInit
  22              		.thumb
  23              		.thumb_func
  24              		.type	chSemInit, %function
  25              	chSemInit:
  26              	.LFB7:
  27              		.file 1 "../../os/kernel/src/chsem.c"
  28              		.loc 1 86 0
  29              		.cfi_startproc
  30              		@ args = 0, pretend = 0, frame = 0
  31              		@ frame_needed = 0, uses_anonymous_args = 0
  32              	.LVL0:
  33 0000 38B5     		push	{r3, r4, r5, lr}
  34              	.LCFI0:
  35              		.cfi_def_cfa_offset 16
  36              		.cfi_offset 3, -16
  37              		.cfi_offset 4, -12
  38              		.cfi_offset 5, -8
  39              		.cfi_offset 14, -4
  40              		.loc 1 88 0
  41 0002 D0F10103 		rsbs	r3, r0, #1
  42 0006 38BF     		it	cc
  43 0008 0023     		movcc	r3, #0
  44 000a 53EAD173 		orrs	r3, r3, r1, lsr #31
  45 000e 0446     		mov	r4, r0
  46              		.loc 1 86 0
  47 0010 0D46     		mov	r5, r1
  48              		.loc 1 88 0
  49 0012 02D0     		beq	.L2
  50              		.loc 1 88 0 is_stmt 0 discriminator 1
  51 0014 0348     		ldr	r0, .L7
  52              	.LVL1:
  53 0016 FFF7FEFF 		bl	chDbgPanic
  54              	.LVL2:
  55              	.L2:
  56              		.loc 1 90 0 is_stmt 1
  57 001a 6460     		str	r4, [r4, #4]
ARM GAS  /var/folders/dt/0wfd0knj7gs46m8vwfzktm600000gn/T//ccBlwGZX.s 			page 2


  58 001c 2460     		str	r4, [r4, #0]
  59              		.loc 1 91 0
  60 001e A560     		str	r5, [r4, #8]
  61 0020 38BD     		pop	{r3, r4, r5, pc}
  62              	.L8:
  63 0022 00BF     		.align	2
  64              	.L7:
  65 0024 00000000 		.word	.LC0
  66              		.cfi_endproc
  67              	.LFE7:
  68              		.size	chSemInit, .-chSemInit
  69 0028 AFF30080 		.section	.text.chSemResetI,"ax",%progbits
  69      AFF30080 
  70              		.align	2
  71              		.p2align 4,,15
  72              		.global	chSemResetI
  73              		.thumb
  74              		.thumb_func
  75              		.type	chSemResetI, %function
  76              	chSemResetI:
  77              	.LFB9:
  78              		.loc 1 136 0
  79              		.cfi_startproc
  80              		@ args = 0, pretend = 0, frame = 0
  81              		@ frame_needed = 0, uses_anonymous_args = 0
  82              	.LVL3:
  83 0000 70B5     		push	{r4, r5, r6, lr}
  84              	.LCFI1:
  85              		.cfi_def_cfa_offset 16
  86              		.cfi_offset 4, -16
  87              		.cfi_offset 5, -12
  88              		.cfi_offset 6, -8
  89              		.cfi_offset 14, -4
  90              		.loc 1 136 0
  91 0002 0446     		mov	r4, r0
  92 0004 0E46     		mov	r6, r1
  93              		.loc 1 139 0
  94 0006 FFF7FEFF 		bl	chDbgCheckClassI
  95              	.LVL4:
  96              		.loc 1 140 0
  97 000a D4F10103 		rsbs	r3, r4, #1
  98 000e 38BF     		it	cc
  99 0010 0023     		movcc	r3, #0
 100 0012 53EAD673 		orrs	r3, r3, r6, lsr #31
 101 0016 1DD1     		bne	.L22
 102              	.L10:
 103              		.loc 1 141 0
 104 0018 A568     		ldr	r5, [r4, #8]
 105 001a 2368     		ldr	r3, [r4, #0]
 106 001c 002D     		cmp	r5, #0
 107 001e 16DB     		blt	.L11
 108              		.loc 1 141 0 is_stmt 0 discriminator 2
 109 0020 A342     		cmp	r3, r4
 110 0022 03D0     		beq	.L13
 111              	.L12:
 112              		.loc 1 141 0 discriminator 3
 113 0024 0D48     		ldr	r0, .L23
ARM GAS  /var/folders/dt/0wfd0knj7gs46m8vwfzktm600000gn/T//ccBlwGZX.s 			page 3


 114 0026 FFF7FEFF 		bl	chDbgPanic
 115              	.LVL5:
 116 002a A568     		ldr	r5, [r4, #8]
 117              	.L13:
 118              	.LVL6:
 119              		.loc 1 148 0 is_stmt 1
 120 002c 0135     		adds	r5, r5, #1
 121              	.LVL7:
 122 002e 002D     		cmp	r5, #0
 123              		.loc 1 147 0
 124 0030 A660     		str	r6, [r4, #8]
 125              	.LVL8:
 126              		.loc 1 148 0
 127 0032 0BDC     		bgt	.L9
 128              		.loc 1 149 0
 129 0034 6FF00106 		mvn	r6, #1
 130              	.LVL9:
 131              	.L19:
 132              	.LBB24:
 133              	.LBB25:
 134              		.file 2 "../../os/kernel/include/chinline.h"
 135              		.loc 2 67 0
 136 0038 6068     		ldr	r0, [r4, #4]
 137              	.LVL10:
 138              	.LBE25:
 139              	.LBE24:
 140              		.loc 1 148 0
 141 003a 0135     		adds	r5, r5, #1
 142              	.LVL11:
 143              	.LBB27:
 144              	.LBB26:
 145              		.loc 2 69 0
 146 003c 4368     		ldr	r3, [r0, #4]
 147 003e 6360     		str	r3, [r4, #4]
 148 0040 1C60     		str	r4, [r3, #0]
 149              	.LBE26:
 150              	.LBE27:
 151              		.loc 1 149 0
 152 0042 FFF7FEFF 		bl	chSchReadyI
 153              	.LVL12:
 154              		.loc 1 148 0
 155 0046 012D     		cmp	r5, #1
 156              		.loc 1 149 0
 157 0048 8662     		str	r6, [r0, #40]
 158              	.LVL13:
 159              		.loc 1 148 0
 160 004a F5D1     		bne	.L19
 161              	.LVL14:
 162              	.L9:
 163 004c 70BD     		pop	{r4, r5, r6, pc}
 164              	.LVL15:
 165              	.L11:
 166              		.loc 1 141 0 discriminator 4
 167 004e A342     		cmp	r3, r4
 168 0050 ECD1     		bne	.L13
 169 0052 E7E7     		b	.L12
 170              	.L22:
ARM GAS  /var/folders/dt/0wfd0knj7gs46m8vwfzktm600000gn/T//ccBlwGZX.s 			page 4


 171              		.loc 1 140 0 discriminator 1
 172 0054 0248     		ldr	r0, .L23+4
 173 0056 FFF7FEFF 		bl	chDbgPanic
 174              	.LVL16:
 175 005a DDE7     		b	.L10
 176              	.L24:
 177              		.align	2
 178              	.L23:
 179 005c 20000000 		.word	.LC2
 180 0060 10000000 		.word	.LC1
 181              		.cfi_endproc
 182              	.LFE9:
 183              		.size	chSemResetI, .-chSemResetI
 184 0064 AFF30080 		.section	.text.chSemReset,"ax",%progbits
 184      AFF30080 
 184      AFF30080 
 185              		.align	2
 186              		.p2align 4,,15
 187              		.global	chSemReset
 188              		.thumb
 189              		.thumb_func
 190              		.type	chSemReset, %function
 191              	chSemReset:
 192              	.LFB8:
 193              		.loc 1 109 0
 194              		.cfi_startproc
 195              		@ args = 0, pretend = 0, frame = 0
 196              		@ frame_needed = 0, uses_anonymous_args = 0
 197              	.LVL17:
 198 0000 38B5     		push	{r3, r4, r5, lr}
 199              	.LCFI2:
 200              		.cfi_def_cfa_offset 16
 201              		.cfi_offset 3, -16
 202              		.cfi_offset 4, -12
 203              		.cfi_offset 5, -8
 204              		.cfi_offset 14, -4
 205              		.loc 1 109 0
 206 0002 0546     		mov	r5, r0
 207 0004 0C46     		mov	r4, r1
 208              	.LBB28:
 209              		.loc 1 111 0
 210 0006 2023     		movs	r3, #32
 211              	.LVL18:
 212              	@ 111 "../../os/kernel/src/chsem.c" 1
 213 0008 83F31188 		msr     BASEPRI, r3
 214              	@ 0 "" 2
 215              	.LVL19:
 216              		.thumb
 217              	.LBE28:
 218 000c FFF7FEFF 		bl	dbg_check_lock
 219              	.LVL20:
 220              		.loc 1 112 0
 221 0010 2846     		mov	r0, r5
 222 0012 2146     		mov	r1, r4
 223 0014 FFF7FEFF 		bl	chSemResetI
 224              	.LVL21:
 225              		.loc 1 113 0
ARM GAS  /var/folders/dt/0wfd0knj7gs46m8vwfzktm600000gn/T//ccBlwGZX.s 			page 5


 226 0018 FFF7FEFF 		bl	chSchRescheduleS
 227              	.LVL22:
 228              		.loc 1 114 0
 229 001c FFF7FEFF 		bl	dbg_check_unlock
 230              	.LVL23:
 231              	.LBB29:
 232 0020 0023     		movs	r3, #0
 233              	.LVL24:
 234              	@ 114 "../../os/kernel/src/chsem.c" 1
 235 0022 83F31188 		msr     BASEPRI, r3
 236              	@ 0 "" 2
 237              	.LVL25:
 238              		.thumb
 239 0026 38BD     		pop	{r3, r4, r5, pc}
 240              	.LBE29:
 241              		.cfi_endproc
 242              	.LFE8:
 243              		.size	chSemReset, .-chSemReset
 244 0028 AFF30080 		.section	.text.chSemWaitS,"ax",%progbits
 244      AFF30080 
 245              		.align	2
 246              		.p2align 4,,15
 247              		.global	chSemWaitS
 248              		.thumb
 249              		.thumb_func
 250              		.type	chSemWaitS, %function
 251              	chSemWaitS:
 252              	.LFB11:
 253              		.loc 1 185 0
 254              		.cfi_startproc
 255              		@ args = 0, pretend = 0, frame = 0
 256              		@ frame_needed = 0, uses_anonymous_args = 0
 257              	.LVL26:
 258 0000 38B5     		push	{r3, r4, r5, lr}
 259              	.LCFI3:
 260              		.cfi_def_cfa_offset 16
 261              		.cfi_offset 3, -16
 262              		.cfi_offset 4, -12
 263              		.cfi_offset 5, -8
 264              		.cfi_offset 14, -4
 265              		.loc 1 185 0
 266 0002 0446     		mov	r4, r0
 267              		.loc 1 187 0
 268 0004 FFF7FEFF 		bl	chDbgCheckClassS
 269              	.LVL27:
 270              		.loc 1 188 0
 271 0008 1CB3     		cbz	r4, .L34
 272              	.L27:
 273              		.loc 1 189 0
 274 000a A368     		ldr	r3, [r4, #8]
 275 000c 2268     		ldr	r2, [r4, #0]
 276 000e 002B     		cmp	r3, #0
 277 0010 0BDB     		blt	.L28
 278              		.loc 1 189 0 is_stmt 0 discriminator 2
 279 0012 A242     		cmp	r2, r4
 280 0014 03D0     		beq	.L30
 281              	.L29:
ARM GAS  /var/folders/dt/0wfd0knj7gs46m8vwfzktm600000gn/T//ccBlwGZX.s 			page 6


 282              		.loc 1 189 0 discriminator 3
 283 0016 1148     		ldr	r0, .L36
 284 0018 FFF7FEFF 		bl	chDbgPanic
 285              	.LVL28:
 286 001c A368     		ldr	r3, [r4, #8]
 287              	.L30:
 288              		.loc 1 194 0 is_stmt 1
 289 001e 013B     		subs	r3, r3, #1
 290 0020 002B     		cmp	r3, #0
 291 0022 A360     		str	r3, [r4, #8]
 292 0024 07DB     		blt	.L35
 293              	.L32:
 294              		.loc 1 200 0
 295 0026 0020     		movs	r0, #0
 296              		.loc 1 201 0
 297 0028 38BD     		pop	{r3, r4, r5, pc}
 298              	.L28:
 299              		.loc 1 189 0 discriminator 4
 300 002a A242     		cmp	r2, r4
 301 002c F3D0     		beq	.L29
 302              		.loc 1 194 0
 303 002e 013B     		subs	r3, r3, #1
 304 0030 002B     		cmp	r3, #0
 305 0032 A360     		str	r3, [r4, #8]
 306 0034 F7DA     		bge	.L32
 307              	.L35:
 308              		.loc 1 195 0
 309 0036 0A4D     		ldr	r5, .L36+4
 310              		.loc 1 197 0
 311 0038 0320     		movs	r0, #3
 312              		.loc 1 195 0
 313 003a EB69     		ldr	r3, [r5, #28]
 314 003c 9C62     		str	r4, [r3, #40]
 315              	.LVL29:
 316              	.LBB30:
 317              	.LBB31:
 318              		.loc 2 55 0
 319 003e 6268     		ldr	r2, [r4, #4]
 320              		.loc 2 54 0
 321 0040 1C60     		str	r4, [r3, #0]
 322              		.loc 2 55 0
 323 0042 5A60     		str	r2, [r3, #4]
 324              		.loc 2 56 0
 325 0044 6360     		str	r3, [r4, #4]
 326 0046 1360     		str	r3, [r2, #0]
 327              	.LBE31:
 328              	.LBE30:
 329              		.loc 1 197 0
 330 0048 FFF7FEFF 		bl	chSchGoSleepS
 331              	.LVL30:
 332              		.loc 1 198 0
 333 004c EB69     		ldr	r3, [r5, #28]
 334 004e 986A     		ldr	r0, [r3, #40]
 335 0050 38BD     		pop	{r3, r4, r5, pc}
 336              	.LVL31:
 337              	.L34:
 338              		.loc 1 188 0 discriminator 1
ARM GAS  /var/folders/dt/0wfd0knj7gs46m8vwfzktm600000gn/T//ccBlwGZX.s 			page 7


 339 0052 0448     		ldr	r0, .L36+8
 340 0054 FFF7FEFF 		bl	chDbgPanic
 341              	.LVL32:
 342 0058 D7E7     		b	.L27
 343              	.L37:
 344 005a 00BF     		.align	2
 345              	.L36:
 346 005c 44000000 		.word	.LC4
 347 0060 00000000 		.word	rlist
 348 0064 34000000 		.word	.LC3
 349              		.cfi_endproc
 350              	.LFE11:
 351              		.size	chSemWaitS, .-chSemWaitS
 352 0068 AFF30080 		.section	.text.chSemWait,"ax",%progbits
 352      AFF30080 
 353              		.align	2
 354              		.p2align 4,,15
 355              		.global	chSemWait
 356              		.thumb
 357              		.thumb_func
 358              		.type	chSemWait, %function
 359              	chSemWait:
 360              	.LFB10:
 361              		.loc 1 164 0
 362              		.cfi_startproc
 363              		@ args = 0, pretend = 0, frame = 0
 364              		@ frame_needed = 0, uses_anonymous_args = 0
 365              	.LVL33:
 366 0000 10B5     		push	{r4, lr}
 367              	.LCFI4:
 368              		.cfi_def_cfa_offset 8
 369              		.cfi_offset 4, -8
 370              		.cfi_offset 14, -4
 371              	.LBB32:
 372              		.loc 1 167 0
 373 0002 2023     		movs	r3, #32
 374              	.LVL34:
 375              	.LBE32:
 376              		.loc 1 164 0
 377 0004 0446     		mov	r4, r0
 378              	.LBB33:
 379              		.loc 1 167 0
 380              	@ 167 "../../os/kernel/src/chsem.c" 1
 381 0006 83F31188 		msr     BASEPRI, r3
 382              	@ 0 "" 2
 383              	.LVL35:
 384              		.thumb
 385              	.LBE33:
 386 000a FFF7FEFF 		bl	dbg_check_lock
 387              	.LVL36:
 388              		.loc 1 168 0
 389 000e 2046     		mov	r0, r4
 390 0010 FFF7FEFF 		bl	chSemWaitS
 391              	.LVL37:
 392 0014 0446     		mov	r4, r0
 393              	.LVL38:
 394              		.loc 1 169 0
ARM GAS  /var/folders/dt/0wfd0knj7gs46m8vwfzktm600000gn/T//ccBlwGZX.s 			page 8


 395 0016 FFF7FEFF 		bl	dbg_check_unlock
 396              	.LVL39:
 397              	.LBB34:
 398 001a 0023     		movs	r3, #0
 399              	.LVL40:
 400              	@ 169 "../../os/kernel/src/chsem.c" 1
 401 001c 83F31188 		msr     BASEPRI, r3
 402              	@ 0 "" 2
 403              	.LVL41:
 404              		.thumb
 405              	.LBE34:
 406              		.loc 1 171 0
 407 0020 2046     		mov	r0, r4
 408 0022 10BD     		pop	{r4, pc}
 409              		.cfi_endproc
 410              	.LFE10:
 411              		.size	chSemWait, .-chSemWait
 412 0024 AFF30080 		.section	.text.chSemWaitTimeoutS,"ax",%progbits
 412      AFF30080 
 412      AFF30080 
 413              		.align	2
 414              		.p2align 4,,15
 415              		.global	chSemWaitTimeoutS
 416              		.thumb
 417              		.thumb_func
 418              		.type	chSemWaitTimeoutS, %function
 419              	chSemWaitTimeoutS:
 420              	.LFB13:
 421              		.loc 1 250 0
 422              		.cfi_startproc
 423              		@ args = 0, pretend = 0, frame = 0
 424              		@ frame_needed = 0, uses_anonymous_args = 0
 425              	.LVL42:
 426 0000 38B5     		push	{r3, r4, r5, lr}
 427              	.LCFI5:
 428              		.cfi_def_cfa_offset 16
 429              		.cfi_offset 3, -16
 430              		.cfi_offset 4, -12
 431              		.cfi_offset 5, -8
 432              		.cfi_offset 14, -4
 433              		.loc 1 250 0
 434 0002 0446     		mov	r4, r0
 435 0004 0D46     		mov	r5, r1
 436              		.loc 1 252 0
 437 0006 FFF7FEFF 		bl	chDbgCheckClassS
 438              	.LVL43:
 439              		.loc 1 253 0
 440 000a 002C     		cmp	r4, #0
 441 000c 24D0     		beq	.L48
 442              	.L40:
 443              		.loc 1 254 0
 444 000e A368     		ldr	r3, [r4, #8]
 445 0010 2268     		ldr	r2, [r4, #0]
 446 0012 002B     		cmp	r3, #0
 447 0014 0BDB     		blt	.L41
 448              		.loc 1 254 0 is_stmt 0 discriminator 2
 449 0016 A242     		cmp	r2, r4
ARM GAS  /var/folders/dt/0wfd0knj7gs46m8vwfzktm600000gn/T//ccBlwGZX.s 			page 9


 450 0018 03D0     		beq	.L43
 451              	.L42:
 452              		.loc 1 254 0 discriminator 3
 453 001a 1348     		ldr	r0, .L51
 454 001c FFF7FEFF 		bl	chDbgPanic
 455              	.LVL44:
 456 0020 A368     		ldr	r3, [r4, #8]
 457              	.L43:
 458              		.loc 1 259 0 is_stmt 1
 459 0022 5A1E     		subs	r2, r3, #1
 460 0024 002A     		cmp	r2, #0
 461 0026 A260     		str	r2, [r4, #8]
 462 0028 07DB     		blt	.L49
 463              	.L46:
 464              		.loc 1 268 0
 465 002a 0020     		movs	r0, #0
 466              		.loc 1 269 0
 467 002c 38BD     		pop	{r3, r4, r5, pc}
 468              	.L41:
 469              		.loc 1 254 0 discriminator 4
 470 002e A242     		cmp	r2, r4
 471 0030 F3D0     		beq	.L42
 472              		.loc 1 259 0
 473 0032 5A1E     		subs	r2, r3, #1
 474 0034 002A     		cmp	r2, #0
 475 0036 A260     		str	r2, [r4, #8]
 476 0038 F7DA     		bge	.L46
 477              	.L49:
 478              		.loc 1 260 0
 479 003a 8DB1     		cbz	r5, .L50
 480              		.loc 1 264 0
 481 003c 0B4B     		ldr	r3, .L51+4
 482              		.loc 1 266 0
 483 003e 0320     		movs	r0, #3
 484              		.loc 1 264 0
 485 0040 DB69     		ldr	r3, [r3, #28]
 486              		.loc 1 266 0
 487 0042 2946     		mov	r1, r5
 488              		.loc 1 264 0
 489 0044 9C62     		str	r4, [r3, #40]
 490              	.LVL45:
 491              	.LBB35:
 492              	.LBB36:
 493              		.loc 2 55 0
 494 0046 6268     		ldr	r2, [r4, #4]
 495              		.loc 2 54 0
 496 0048 1C60     		str	r4, [r3, #0]
 497              		.loc 2 55 0
 498 004a 5A60     		str	r2, [r3, #4]
 499              		.loc 2 56 0
 500 004c 6360     		str	r3, [r4, #4]
 501 004e 1360     		str	r3, [r2, #0]
 502              	.LBE36:
 503              	.LBE35:
 504              		.loc 1 269 0
 505 0050 BDE83840 		pop	{r3, r4, r5, lr}
 506              		.loc 1 266 0
ARM GAS  /var/folders/dt/0wfd0knj7gs46m8vwfzktm600000gn/T//ccBlwGZX.s 			page 10


 507 0054 FFF7FEBF 		b	chSchGoSleepTimeoutS
 508              	.LVL46:
 509              	.L48:
 510              		.loc 1 253 0 discriminator 1
 511 0058 0548     		ldr	r0, .L51+8
 512 005a FFF7FEFF 		bl	chDbgPanic
 513              	.LVL47:
 514 005e D6E7     		b	.L40
 515              	.L50:
 516              		.loc 1 261 0
 517 0060 A360     		str	r3, [r4, #8]
 518              		.loc 1 262 0
 519 0062 4FF0FF30 		mov	r0, #-1
 520 0066 38BD     		pop	{r3, r4, r5, pc}
 521              	.L52:
 522              		.align	2
 523              	.L51:
 524 0068 70000000 		.word	.LC6
 525 006c 00000000 		.word	rlist
 526 0070 58000000 		.word	.LC5
 527              		.cfi_endproc
 528              	.LFE13:
 529              		.size	chSemWaitTimeoutS, .-chSemWaitTimeoutS
 530 0074 AFF30080 		.section	.text.chSemWaitTimeout,"ax",%progbits
 530      AFF30080 
 530      AFF30080 
 531              		.align	2
 532              		.p2align 4,,15
 533              		.global	chSemWaitTimeout
 534              		.thumb
 535              		.thumb_func
 536              		.type	chSemWaitTimeout, %function
 537              	chSemWaitTimeout:
 538              	.LFB12:
 539              		.loc 1 222 0
 540              		.cfi_startproc
 541              		@ args = 0, pretend = 0, frame = 0
 542              		@ frame_needed = 0, uses_anonymous_args = 0
 543              	.LVL48:
 544 0000 38B5     		push	{r3, r4, r5, lr}
 545              	.LCFI6:
 546              		.cfi_def_cfa_offset 16
 547              		.cfi_offset 3, -16
 548              		.cfi_offset 4, -12
 549              		.cfi_offset 5, -8
 550              		.cfi_offset 14, -4
 551              		.loc 1 222 0
 552 0002 0546     		mov	r5, r0
 553 0004 0C46     		mov	r4, r1
 554              	.LBB37:
 555              		.loc 1 225 0
 556 0006 2023     		movs	r3, #32
 557              	.LVL49:
 558              	@ 225 "../../os/kernel/src/chsem.c" 1
 559 0008 83F31188 		msr     BASEPRI, r3
 560              	@ 0 "" 2
 561              	.LVL50:
ARM GAS  /var/folders/dt/0wfd0knj7gs46m8vwfzktm600000gn/T//ccBlwGZX.s 			page 11


 562              		.thumb
 563              	.LBE37:
 564 000c FFF7FEFF 		bl	dbg_check_lock
 565              	.LVL51:
 566              		.loc 1 226 0
 567 0010 2146     		mov	r1, r4
 568 0012 2846     		mov	r0, r5
 569 0014 FFF7FEFF 		bl	chSemWaitTimeoutS
 570              	.LVL52:
 571 0018 0446     		mov	r4, r0
 572              	.LVL53:
 573              		.loc 1 227 0
 574 001a FFF7FEFF 		bl	dbg_check_unlock
 575              	.LVL54:
 576              	.LBB38:
 577 001e 0023     		movs	r3, #0
 578              	.LVL55:
 579              	@ 227 "../../os/kernel/src/chsem.c" 1
 580 0020 83F31188 		msr     BASEPRI, r3
 581              	@ 0 "" 2
 582              	.LVL56:
 583              		.thumb
 584              	.LBE38:
 585              		.loc 1 229 0
 586 0024 2046     		mov	r0, r4
 587 0026 38BD     		pop	{r3, r4, r5, pc}
 588              		.cfi_endproc
 589              	.LFE12:
 590              		.size	chSemWaitTimeout, .-chSemWaitTimeout
 591 0028 AFF30080 		.section	.text.chSemSignal,"ax",%progbits
 591      AFF30080 
 592              		.align	2
 593              		.p2align 4,,15
 594              		.global	chSemSignal
 595              		.thumb
 596              		.thumb_func
 597              		.type	chSemSignal, %function
 598              	chSemSignal:
 599              	.LFB14:
 600              		.loc 1 278 0
 601              		.cfi_startproc
 602              		@ args = 0, pretend = 0, frame = 0
 603              		@ frame_needed = 0, uses_anonymous_args = 0
 604              	.LVL57:
 605 0000 10B5     		push	{r4, lr}
 606              	.LCFI7:
 607              		.cfi_def_cfa_offset 8
 608              		.cfi_offset 4, -8
 609              		.cfi_offset 14, -4
 610              		.loc 1 280 0
 611 0002 0446     		mov	r4, r0
 612 0004 18B3     		cbz	r0, .L60
 613              	.LVL58:
 614              	.L55:
 615              		.loc 1 281 0
 616 0006 A368     		ldr	r3, [r4, #8]
 617 0008 002B     		cmp	r3, #0
ARM GAS  /var/folders/dt/0wfd0knj7gs46m8vwfzktm600000gn/T//ccBlwGZX.s 			page 12


 618 000a 2368     		ldr	r3, [r4, #0]
 619 000c 14DB     		blt	.L56
 620              		.loc 1 281 0 is_stmt 0 discriminator 2
 621 000e A342     		cmp	r3, r4
 622 0010 02D0     		beq	.L58
 623              	.L57:
 624              		.loc 1 281 0 discriminator 3
 625 0012 1148     		ldr	r0, .L62
 626 0014 FFF7FEFF 		bl	chDbgPanic
 627              	.LVL59:
 628              	.L58:
 629              	.LBB39:
 630              		.loc 1 286 0 is_stmt 1
 631 0018 2023     		movs	r3, #32
 632              	.LVL60:
 633              	@ 286 "../../os/kernel/src/chsem.c" 1
 634 001a 83F31188 		msr     BASEPRI, r3
 635              	@ 0 "" 2
 636              	.LVL61:
 637              		.thumb
 638              	.LBE39:
 639 001e FFF7FEFF 		bl	dbg_check_lock
 640              	.LVL62:
 641              		.loc 1 287 0
 642 0022 A368     		ldr	r3, [r4, #8]
 643 0024 0133     		adds	r3, r3, #1
 644 0026 002B     		cmp	r3, #0
 645 0028 A360     		str	r3, [r4, #8]
 646 002a 08DD     		ble	.L61
 647              	.L59:
 648              		.loc 1 289 0
 649 002c FFF7FEFF 		bl	dbg_check_unlock
 650              	.LVL63:
 651              	.LBB40:
 652 0030 0023     		movs	r3, #0
 653              	.LVL64:
 654              	@ 289 "../../os/kernel/src/chsem.c" 1
 655 0032 83F31188 		msr     BASEPRI, r3
 656              	@ 0 "" 2
 657              	.LVL65:
 658              		.thumb
 659 0036 10BD     		pop	{r4, pc}
 660              	.LVL66:
 661              	.L56:
 662              	.LBE40:
 663              		.loc 1 281 0 discriminator 4
 664 0038 A342     		cmp	r3, r4
 665 003a EDD1     		bne	.L58
 666 003c E9E7     		b	.L57
 667              	.L61:
 668              	.LVL67:
 669              	.LBB41:
 670              	.LBB42:
 671              		.loc 2 60 0
 672 003e 2068     		ldr	r0, [r4, #0]
 673              	.LVL68:
 674              	.LBE42:
ARM GAS  /var/folders/dt/0wfd0knj7gs46m8vwfzktm600000gn/T//ccBlwGZX.s 			page 13


 675              	.LBE41:
 676              		.loc 1 288 0
 677 0040 0021     		movs	r1, #0
 678              	.LBB44:
 679              	.LBB43:
 680              		.loc 2 62 0
 681 0042 0368     		ldr	r3, [r0, #0]
 682 0044 2360     		str	r3, [r4, #0]
 683 0046 5C60     		str	r4, [r3, #4]
 684              	.LBE43:
 685              	.LBE44:
 686              		.loc 1 288 0
 687 0048 FFF7FEFF 		bl	chSchWakeupS
 688              	.LVL69:
 689 004c EEE7     		b	.L59
 690              	.LVL70:
 691              	.L60:
 692              		.loc 1 280 0 discriminator 1
 693 004e 0348     		ldr	r0, .L62+4
 694              	.LVL71:
 695 0050 FFF7FEFF 		bl	chDbgPanic
 696              	.LVL72:
 697 0054 D7E7     		b	.L55
 698              	.L63:
 699 0056 00BF     		.align	2
 700              	.L62:
 701 0058 98000000 		.word	.LC8
 702 005c 88000000 		.word	.LC7
 703              		.cfi_endproc
 704              	.LFE14:
 705              		.size	chSemSignal, .-chSemSignal
 706              		.section	.text.chSemSignalI,"ax",%progbits
 707              		.align	2
 708              		.p2align 4,,15
 709              		.global	chSemSignalI
 710              		.thumb
 711              		.thumb_func
 712              		.type	chSemSignalI, %function
 713              	chSemSignalI:
 714              	.LFB15:
 715              		.loc 1 303 0
 716              		.cfi_startproc
 717              		@ args = 0, pretend = 0, frame = 0
 718              		@ frame_needed = 0, uses_anonymous_args = 0
 719              	.LVL73:
 720 0000 10B5     		push	{r4, lr}
 721              	.LCFI8:
 722              		.cfi_def_cfa_offset 8
 723              		.cfi_offset 4, -8
 724              		.cfi_offset 14, -4
 725              		.loc 1 303 0
 726 0002 0446     		mov	r4, r0
 727              		.loc 1 305 0
 728 0004 FFF7FEFF 		bl	chDbgCheckClassI
 729              	.LVL74:
 730              		.loc 1 306 0
 731 0008 002C     		cmp	r4, #0
ARM GAS  /var/folders/dt/0wfd0knj7gs46m8vwfzktm600000gn/T//ccBlwGZX.s 			page 14


 732 000a 1FD0     		beq	.L71
 733              	.L65:
 734              		.loc 1 307 0
 735 000c A368     		ldr	r3, [r4, #8]
 736 000e 2268     		ldr	r2, [r4, #0]
 737 0010 002B     		cmp	r3, #0
 738 0012 0ADB     		blt	.L66
 739              		.loc 1 307 0 is_stmt 0 discriminator 2
 740 0014 A242     		cmp	r2, r4
 741 0016 03D0     		beq	.L68
 742              	.L67:
 743              		.loc 1 307 0 discriminator 3
 744 0018 0E48     		ldr	r0, .L73
 745 001a FFF7FEFF 		bl	chDbgPanic
 746              	.LVL75:
 747 001e A368     		ldr	r3, [r4, #8]
 748              	.L68:
 749              		.loc 1 312 0 is_stmt 1
 750 0020 0133     		adds	r3, r3, #1
 751 0022 002B     		cmp	r3, #0
 752 0024 A360     		str	r3, [r4, #8]
 753 0026 06DD     		ble	.L72
 754              	.L64:
 755 0028 10BD     		pop	{r4, pc}
 756              	.L66:
 757              		.loc 1 307 0 discriminator 4
 758 002a A242     		cmp	r2, r4
 759 002c F4D0     		beq	.L67
 760              		.loc 1 312 0
 761 002e 0133     		adds	r3, r3, #1
 762 0030 002B     		cmp	r3, #0
 763 0032 A360     		str	r3, [r4, #8]
 764 0034 F8DC     		bgt	.L64
 765              	.L72:
 766              	.LVL76:
 767              	.LBB45:
 768              	.LBB46:
 769              	.LBB47:
 770              		.loc 2 60 0
 771 0036 2368     		ldr	r3, [r4, #0]
 772              	.LVL77:
 773              		.loc 2 62 0
 774 0038 1A68     		ldr	r2, [r3, #0]
 775              	.LBE47:
 776              	.LBE46:
 777              		.loc 1 317 0
 778 003a 1846     		mov	r0, r3
 779              	.LBB49:
 780              	.LBB48:
 781              		.loc 2 62 0
 782 003c 2260     		str	r2, [r4, #0]
 783 003e 5460     		str	r4, [r2, #4]
 784              	.LBE48:
 785              	.LBE49:
 786              		.loc 1 316 0
 787 0040 0022     		movs	r2, #0
 788 0042 9A62     		str	r2, [r3, #40]
ARM GAS  /var/folders/dt/0wfd0knj7gs46m8vwfzktm600000gn/T//ccBlwGZX.s 			page 15


 789              	.LBE45:
 790              		.loc 1 319 0
 791 0044 BDE81040 		pop	{r4, lr}
 792              	.LBB50:
 793              		.loc 1 317 0
 794 0048 FFF7FEBF 		b	chSchReadyI
 795              	.LVL78:
 796              	.L71:
 797              	.LBE50:
 798              		.loc 1 306 0 discriminator 1
 799 004c 0248     		ldr	r0, .L73+4
 800 004e FFF7FEFF 		bl	chDbgPanic
 801              	.LVL79:
 802 0052 DBE7     		b	.L65
 803              	.L74:
 804              		.align	2
 805              	.L73:
 806 0054 C0000000 		.word	.LC10
 807 0058 AC000000 		.word	.LC9
 808              		.cfi_endproc
 809              	.LFE15:
 810              		.size	chSemSignalI, .-chSemSignalI
 811 005c AFF30080 		.section	.text.chSemAddCounterI,"ax",%progbits
 812              		.align	2
 813              		.p2align 4,,15
 814              		.global	chSemAddCounterI
 815              		.thumb
 816              		.thumb_func
 817              		.type	chSemAddCounterI, %function
 818              	chSemAddCounterI:
 819              	.LFB16:
 820              		.loc 1 334 0
 821              		.cfi_startproc
 822              		@ args = 0, pretend = 0, frame = 0
 823              		@ frame_needed = 0, uses_anonymous_args = 0
 824              	.LVL80:
 825 0000 70B5     		push	{r4, r5, r6, lr}
 826              	.LCFI9:
 827              		.cfi_def_cfa_offset 16
 828              		.cfi_offset 4, -16
 829              		.cfi_offset 5, -12
 830              		.cfi_offset 6, -8
 831              		.cfi_offset 14, -4
 832              		.loc 1 334 0
 833 0002 0546     		mov	r5, r0
 834 0004 0C46     		mov	r4, r1
 835              		.loc 1 336 0
 836 0006 FFF7FEFF 		bl	chDbgCheckClassI
 837              	.LVL81:
 838              		.loc 1 337 0
 839 000a 002D     		cmp	r5, #0
 840 000c 18BF     		it	ne
 841 000e 002C     		cmpne	r4, #0
 842 0010 20DD     		ble	.L89
 843              	.L76:
 844              		.loc 1 338 0
 845 0012 AB68     		ldr	r3, [r5, #8]
ARM GAS  /var/folders/dt/0wfd0knj7gs46m8vwfzktm600000gn/T//ccBlwGZX.s 			page 16


 846 0014 002B     		cmp	r3, #0
 847 0016 2B68     		ldr	r3, [r5, #0]
 848 0018 19DB     		blt	.L77
 849              		.loc 1 338 0 is_stmt 0 discriminator 2
 850 001a AB42     		cmp	r3, r5
 851 001c 02D0     		beq	.L79
 852              	.L78:
 853              		.loc 1 338 0 discriminator 3
 854 001e 0F48     		ldr	r0, .L90
 855 0020 FFF7FEFF 		bl	chDbgPanic
 856              	.LVL82:
 857              	.L79:
 858              		.loc 1 343 0 is_stmt 1 discriminator 1
 859 0024 002C     		cmp	r4, #0
 860 0026 11DD     		ble	.L75
 861              		.loc 1 345 0
 862 0028 0026     		movs	r6, #0
 863 002a 01E0     		b	.L86
 864              	.LVL83:
 865              	.L81:
 866              		.loc 1 343 0
 867 002c 013C     		subs	r4, r4, #1
 868              	.LVL84:
 869 002e 0DD0     		beq	.L75
 870              	.LVL85:
 871              	.L86:
 872              		.loc 1 344 0
 873 0030 AB68     		ldr	r3, [r5, #8]
 874 0032 0133     		adds	r3, r3, #1
 875 0034 002B     		cmp	r3, #0
 876 0036 AB60     		str	r3, [r5, #8]
 877 0038 F8DC     		bgt	.L81
 878              	.LVL86:
 879              	.LBB51:
 880              	.LBB52:
 881              		.loc 2 60 0
 882 003a 2868     		ldr	r0, [r5, #0]
 883              	.LVL87:
 884              		.loc 2 62 0
 885 003c 0368     		ldr	r3, [r0, #0]
 886 003e 2B60     		str	r3, [r5, #0]
 887 0040 5D60     		str	r5, [r3, #4]
 888              	.LBE52:
 889              	.LBE51:
 890              		.loc 1 345 0
 891 0042 FFF7FEFF 		bl	chSchReadyI
 892              	.LVL88:
 893              		.loc 1 343 0
 894 0046 013C     		subs	r4, r4, #1
 895              		.loc 1 345 0
 896 0048 8662     		str	r6, [r0, #40]
 897              		.loc 1 343 0
 898 004a F1D1     		bne	.L86
 899              	.LVL89:
 900              	.L75:
 901 004c 70BD     		pop	{r4, r5, r6, pc}
 902              	.LVL90:
ARM GAS  /var/folders/dt/0wfd0knj7gs46m8vwfzktm600000gn/T//ccBlwGZX.s 			page 17


 903              	.L77:
 904              		.loc 1 338 0 discriminator 4
 905 004e AB42     		cmp	r3, r5
 906 0050 E8D1     		bne	.L79
 907 0052 E4E7     		b	.L78
 908              	.L89:
 909              		.loc 1 337 0 discriminator 1
 910 0054 0248     		ldr	r0, .L90+4
 911 0056 FFF7FEFF 		bl	chDbgPanic
 912              	.LVL91:
 913 005a DAE7     		b	.L76
 914              	.L91:
 915              		.align	2
 916              	.L90:
 917 005c EC000000 		.word	.LC12
 918 0060 D4000000 		.word	.LC11
 919              		.cfi_endproc
 920              	.LFE16:
 921              		.size	chSemAddCounterI, .-chSemAddCounterI
 922 0064 AFF30080 		.section	.text.chSemSignalWait,"ax",%progbits
 922      AFF30080 
 922      AFF30080 
 923              		.align	2
 924              		.p2align 4,,15
 925              		.global	chSemSignalWait
 926              		.thumb
 927              		.thumb_func
 928              		.type	chSemSignalWait, %function
 929              	chSemSignalWait:
 930              	.LFB17:
 931              		.loc 1 366 0
 932              		.cfi_startproc
 933              		@ args = 0, pretend = 0, frame = 0
 934              		@ frame_needed = 0, uses_anonymous_args = 0
 935              	.LVL92:
 936              		.loc 1 369 0
 937 0000 0028     		cmp	r0, #0
 938 0002 18BF     		it	ne
 939 0004 0029     		cmpne	r1, #0
 940              		.loc 1 366 0
 941 0006 38B5     		push	{r3, r4, r5, lr}
 942              	.LCFI10:
 943              		.cfi_def_cfa_offset 16
 944              		.cfi_offset 3, -16
 945              		.cfi_offset 4, -12
 946              		.cfi_offset 5, -8
 947              		.cfi_offset 14, -4
 948              		.loc 1 369 0
 949 0008 0C46     		mov	r4, r1
 950 000a 0546     		mov	r5, r0
 951 000c 33D0     		beq	.L107
 952              	.LVL93:
 953              	.L93:
 954              		.loc 1 370 0
 955 000e AB68     		ldr	r3, [r5, #8]
 956 0010 002B     		cmp	r3, #0
 957 0012 2B68     		ldr	r3, [r5, #0]
ARM GAS  /var/folders/dt/0wfd0knj7gs46m8vwfzktm600000gn/T//ccBlwGZX.s 			page 18


 958 0014 26DB     		blt	.L94
 959              		.loc 1 370 0 is_stmt 0 discriminator 2
 960 0016 AB42     		cmp	r3, r5
 961 0018 02D0     		beq	.L96
 962              	.L95:
 963              		.loc 1 370 0 discriminator 3
 964 001a 2448     		ldr	r0, .L111
 965 001c FFF7FEFF 		bl	chDbgPanic
 966              	.LVL94:
 967              	.L96:
 968              		.loc 1 374 0 is_stmt 1
 969 0020 A368     		ldr	r3, [r4, #8]
 970 0022 002B     		cmp	r3, #0
 971 0024 2368     		ldr	r3, [r4, #0]
 972 0026 23DB     		blt	.L97
 973              	.L110:
 974              		.loc 1 374 0 is_stmt 0 discriminator 2
 975 0028 A342     		cmp	r3, r4
 976 002a 02D0     		beq	.L99
 977              	.L98:
 978              		.loc 1 374 0 discriminator 3
 979 002c 2048     		ldr	r0, .L111+4
 980 002e FFF7FEFF 		bl	chDbgPanic
 981              	.LVL95:
 982              	.L99:
 983              	.LBB53:
 984              		.loc 1 379 0 is_stmt 1
 985 0032 2023     		movs	r3, #32
 986              	.LVL96:
 987              	@ 379 "../../os/kernel/src/chsem.c" 1
 988 0034 83F31188 		msr     BASEPRI, r3
 989              	@ 0 "" 2
 990              	.LVL97:
 991              		.thumb
 992              	.LBE53:
 993 0038 FFF7FEFF 		bl	dbg_check_lock
 994              	.LVL98:
 995              		.loc 1 380 0
 996 003c AB68     		ldr	r3, [r5, #8]
 997 003e 0133     		adds	r3, r3, #1
 998 0040 002B     		cmp	r3, #0
 999 0042 AB60     		str	r3, [r5, #8]
 1000 0044 28DD     		ble	.L108
 1001              	.L100:
 1002              		.loc 1 382 0
 1003 0046 A368     		ldr	r3, [r4, #8]
 1004 0048 013B     		subs	r3, r3, #1
 1005 004a 002B     		cmp	r3, #0
 1006 004c A360     		str	r3, [r4, #8]
 1007 004e 16DB     		blt	.L109
 1008              		.loc 1 390 0
 1009 0050 FFF7FEFF 		bl	chSchRescheduleS
 1010              	.LVL99:
 1011              		.loc 1 391 0
 1012 0054 0024     		movs	r4, #0
 1013              	.LVL100:
 1014              	.L102:
ARM GAS  /var/folders/dt/0wfd0knj7gs46m8vwfzktm600000gn/T//ccBlwGZX.s 			page 19


 1015              		.loc 1 393 0
 1016 0056 FFF7FEFF 		bl	dbg_check_unlock
 1017              	.LVL101:
 1018              	.LBB54:
 1019 005a 0023     		movs	r3, #0
 1020              	.LVL102:
 1021              	@ 393 "../../os/kernel/src/chsem.c" 1
 1022 005c 83F31188 		msr     BASEPRI, r3
 1023              	@ 0 "" 2
 1024              	.LVL103:
 1025              		.thumb
 1026              	.LBE54:
 1027              		.loc 1 395 0
 1028 0060 2046     		mov	r0, r4
 1029 0062 38BD     		pop	{r3, r4, r5, pc}
 1030              	.LVL104:
 1031              	.L94:
 1032              		.loc 1 370 0 discriminator 4
 1033 0064 AB42     		cmp	r3, r5
 1034 0066 D8D0     		beq	.L95
 1035              		.loc 1 374 0
 1036 0068 A368     		ldr	r3, [r4, #8]
 1037 006a 002B     		cmp	r3, #0
 1038 006c 2368     		ldr	r3, [r4, #0]
 1039 006e DBDA     		bge	.L110
 1040              	.L97:
 1041              		.loc 1 374 0 is_stmt 0 discriminator 4
 1042 0070 A342     		cmp	r3, r4
 1043 0072 DED1     		bne	.L99
 1044 0074 DAE7     		b	.L98
 1045              	.LVL105:
 1046              	.L107:
 1047              		.loc 1 369 0 is_stmt 1 discriminator 1
 1048 0076 0F48     		ldr	r0, .L111+8
 1049              	.LVL106:
 1050 0078 FFF7FEFF 		bl	chDbgPanic
 1051              	.LVL107:
 1052 007c C7E7     		b	.L93
 1053              	.L109:
 1054              	.LBB55:
 1055              		.loc 1 383 0
 1056 007e 0E4A     		ldr	r2, .L111+12
 1057              	.LBB56:
 1058              	.LBB57:
 1059              		.loc 2 55 0
 1060 0080 6368     		ldr	r3, [r4, #4]
 1061              	.LBE57:
 1062              	.LBE56:
 1063              		.loc 1 383 0
 1064 0082 D569     		ldr	r5, [r2, #28]
 1065              	.LVL108:
 1066              		.loc 1 386 0
 1067 0084 0320     		movs	r0, #3
 1068              	.LBB60:
 1069              	.LBB58:
 1070              		.loc 2 54 0
 1071 0086 2C60     		str	r4, [r5, #0]
ARM GAS  /var/folders/dt/0wfd0knj7gs46m8vwfzktm600000gn/T//ccBlwGZX.s 			page 20


 1072              		.loc 2 55 0
 1073 0088 6B60     		str	r3, [r5, #4]
 1074              		.loc 2 56 0
 1075 008a 6560     		str	r5, [r4, #4]
 1076              	.LBE58:
 1077              	.LBE60:
 1078              		.loc 1 385 0
 1079 008c AC62     		str	r4, [r5, #40]
 1080              	.LBB61:
 1081              	.LBB59:
 1082              		.loc 2 56 0
 1083 008e 1D60     		str	r5, [r3, #0]
 1084              	.LBE59:
 1085              	.LBE61:
 1086              		.loc 1 386 0
 1087 0090 FFF7FEFF 		bl	chSchGoSleepS
 1088              	.LVL109:
 1089              		.loc 1 387 0
 1090 0094 AC6A     		ldr	r4, [r5, #40]
 1091              	.LVL110:
 1092 0096 DEE7     		b	.L102
 1093              	.LVL111:
 1094              	.L108:
 1095              	.LBE55:
 1096              	.LBB62:
 1097              	.LBB63:
 1098              		.loc 2 60 0
 1099 0098 2868     		ldr	r0, [r5, #0]
 1100              	.LVL112:
 1101              		.loc 2 62 0
 1102 009a 0368     		ldr	r3, [r0, #0]
 1103 009c 2B60     		str	r3, [r5, #0]
 1104 009e 5D60     		str	r5, [r3, #4]
 1105              	.LBE63:
 1106              	.LBE62:
 1107              		.loc 1 381 0
 1108 00a0 FFF7FEFF 		bl	chSchReadyI
 1109              	.LVL113:
 1110 00a4 0023     		movs	r3, #0
 1111 00a6 8362     		str	r3, [r0, #40]
 1112 00a8 CDE7     		b	.L100
 1113              	.L112:
 1114 00aa 00BF     		.align	2
 1115              	.L111:
 1116 00ac 18010000 		.word	.LC14
 1117 00b0 30010000 		.word	.LC15
 1118 00b4 04010000 		.word	.LC13
 1119 00b8 00000000 		.word	rlist
 1120              		.cfi_endproc
 1121              	.LFE17:
 1122              		.size	chSemSignalWait, .-chSemSignalWait
 1123 00bc AFF30080 		.section	.rodata.str1.4,"aMS",%progbits,1
 1124              		.align	2
 1125              	.LC0:
 1126 0000 22636853 		.ascii	"\"chSemInit\"()\000"
 1126      656D496E 
 1126      69742228 
ARM GAS  /var/folders/dt/0wfd0knj7gs46m8vwfzktm600000gn/T//ccBlwGZX.s 			page 21


 1126      2900
 1127 000e 0000     		.space	2
 1128              	.LC1:
 1129 0010 22636853 		.ascii	"\"chSemResetI\"()\000"
 1129      656D5265 
 1129      73657449 
 1129      22282900 
 1130              	.LC2:
 1131 0020 63685365 		.ascii	"chSemResetI(), #1\000"
 1131      6D526573 
 1131      65744928 
 1131      292C2023 
 1131      3100
 1132 0032 0000     		.space	2
 1133              	.LC3:
 1134 0034 22636853 		.ascii	"\"chSemWaitS\"()\000"
 1134      656D5761 
 1134      69745322 
 1134      282900
 1135 0043 00       		.space	1
 1136              	.LC4:
 1137 0044 63685365 		.ascii	"chSemWaitS(), #1\000"
 1137      6D576169 
 1137      74532829 
 1137      2C202331 
 1137      00
 1138 0055 000000   		.space	3
 1139              	.LC5:
 1140 0058 22636853 		.ascii	"\"chSemWaitTimeoutS\"()\000"
 1140      656D5761 
 1140      69745469 
 1140      6D656F75 
 1140      74532228 
 1141 006e 0000     		.space	2
 1142              	.LC6:
 1143 0070 63685365 		.ascii	"chSemWaitTimeoutS(), #1\000"
 1143      6D576169 
 1143      7454696D 
 1143      656F7574 
 1143      5328292C 
 1144              	.LC7:
 1145 0088 22636853 		.ascii	"\"chSemSignal\"()\000"
 1145      656D5369 
 1145      676E616C 
 1145      22282900 
 1146              	.LC8:
 1147 0098 63685365 		.ascii	"chSemSignal(), #1\000"
 1147      6D536967 
 1147      6E616C28 
 1147      292C2023 
 1147      3100
 1148 00aa 0000     		.space	2
 1149              	.LC9:
 1150 00ac 22636853 		.ascii	"\"chSemSignalI\"()\000"
 1150      656D5369 
 1150      676E616C 
 1150      49222829 
ARM GAS  /var/folders/dt/0wfd0knj7gs46m8vwfzktm600000gn/T//ccBlwGZX.s 			page 22


 1150      00
 1151 00bd 000000   		.space	3
 1152              	.LC10:
 1153 00c0 63685365 		.ascii	"chSemSignalI(), #1\000"
 1153      6D536967 
 1153      6E616C49 
 1153      28292C20 
 1153      233100
 1154 00d3 00       		.space	1
 1155              	.LC11:
 1156 00d4 22636853 		.ascii	"\"chSemAddCounterI\"()\000"
 1156      656D4164 
 1156      64436F75 
 1156      6E746572 
 1156      49222829 
 1157 00e9 000000   		.space	3
 1158              	.LC12:
 1159 00ec 63685365 		.ascii	"chSemAddCounterI(), #1\000"
 1159      6D416464 
 1159      436F756E 
 1159      74657249 
 1159      28292C20 
 1160 0103 00       		.space	1
 1161              	.LC13:
 1162 0104 22636853 		.ascii	"\"chSemSignalWait\"()\000"
 1162      656D5369 
 1162      676E616C 
 1162      57616974 
 1162      22282900 
 1163              	.LC14:
 1164 0118 63685365 		.ascii	"chSemSignalWait(), #1\000"
 1164      6D536967 
 1164      6E616C57 
 1164      61697428 
 1164      292C2023 
 1165 012e 0000     		.space	2
 1166              	.LC15:
 1167 0130 63685365 		.ascii	"chSemSignalWait(), #2\000"
 1167      6D536967 
 1167      6E616C57 
 1167      61697428 
 1167      292C2023 
 1168 0146 0000     		.text
 1169              	.Letext0:
 1170              		.file 3 "/Users/toxygen/Applications/yagarto-4.7.2/bin/../lib/gcc/arm-none-eabi/4.7.2/../../../../
 1171              		.file 4 "../../os/ports/GCC/ARMCMx/chtypes.h"
 1172              		.file 5 "../../os/kernel/include/chlists.h"
 1173              		.file 6 "../../os/kernel/include/chthreads.h"
 1174              		.file 7 "../../os/ports/GCC/ARMCMx/chcore_v7m.h"
 1175              		.file 8 "../../os/kernel/include/chschd.h"
 1176              		.file 9 "../../os/kernel/include/chsem.h"
 1177              		.file 10 "../../os/kernel/include/chmtx.h"
 1178              		.file 11 "../../os/kernel/include/chdebug.h"