ARM GAS  /var/folders/dt/0wfd0knj7gs46m8vwfzktm600000gn/T//ccBlwGZX.s 			page 1


   1              		.syntax unified
   2              		.cpu cortex-m3
   3              		.fpu softvfp
   4              		.eabi_attribute 20, 1
   5              		.eabi_attribute 21, 1
   6              		.eabi_attribute 23, 3
   7              		.eabi_attribute 24, 1
   8              		.eabi_attribute 25, 1
   9              		.eabi_attribute 26, 1
  10              		.eabi_attribute 30, 2
  11              		.eabi_attribute 34, 1
  12              		.eabi_attribute 18, 4
  13              		.thumb
  14              		.file	"chsem.c"
  15              		.text
  16              	.Ltext0:
  17              		.cfi_sections	.debug_frame
  18              		.section	.text.chSemInit,"ax",%progbits
  19              		.align	2
  20              		.p2align 4,,15
  21              		.global	chSemInit
  22              		.thumb
  23              		.thumb_func
  24              		.type	chSemInit, %function
  25              	chSemInit:
  26              	.LFB7:
  27              		.file 1 "../../os/kernel/src/chsem.c"
  28              		.loc 1 86 0
  29              		.cfi_startproc
  30              		@ args = 0, pretend = 0, frame = 0
  31              		@ frame_needed = 0, uses_anonymous_args = 0
  32              	.LVL0:
  33 0000 38B5     		push	{r3, r4, r5, lr}
  34              	.LCFI0:
  35              		.cfi_def_cfa_offset 16
  36              		.cfi_offset 3, -16
  37              		.cfi_offset 4, -12
  38              		.cfi_offset 5, -8
  39              		.cfi_offset 14, -4
  40              		.loc 1 88 0
  41 0002 D0F10103 		rsbs	r3, r0, #1
  42 0006 38BF     		it	cc
  43 0008 0023     		movcc	r3, #0
  44 000a 53EAD173 		orrs	r3, r3, r1, lsr #31
  45 000e 0446     		mov	r4, r0
  46              		.loc 1 86 0
  47 0010 0D46     		mov	r5, r1
  48              		.loc 1 88 0
  49 0012 02D0     		beq	.L2
  50              		.loc 1 88 0 is_stmt 0 discriminator 1
  51 0014 0348     		ldr	r0, .L7
  52              	.LVL1:
  53 0016 FFF7FEFF 		bl	chDbgPanic
  54              	.LVL2:
  55              	.L2:
  56              		.loc 1 90 0 is_stmt 1
  57 001a 6460     		str	r4, [r4, #4]
ARM GAS  /var/folders/dt/0wfd0knj7gs46m8vwfzktm600000gn/T//ccBlwGZX.s 			page 2


  58 001c 2460     		str	r4, [r4, #0]
  59              		.loc 1 91 0
  60 001e A560     		str	r5, [r4, #8]
  61 0020 38BD     		pop	{r3, r4, r5, pc}
  62              	.L8:
  63 0022 00BF     		.align	2
  64              	.L7:
  65 0024 00000000 		.word	.LC0
  66              		.cfi_endproc
  67              	.LFE7:
  68              		.size	chSemInit, .-chSemInit
  69 0028 AFF30080 		.section	.text.chSemResetI,"ax",%progbits
  69      AFF30080 
  70              		.align	2
  71              		.p2align 4,,15
  72              		.global	chSemResetI
  73              		.thumb
  74              		.thumb_func
  75              		.type	chSemResetI, %function
  76              	chSemResetI:
  77              	.LFB9:
  78              		.loc 1 136 0
  79              		.cfi_startproc
  80              		@ args = 0, pretend = 0, frame = 0
  81              		@ frame_needed = 0, uses_anonymous_args = 0
  82              	.LVL3:
  83 0000 70B5     		push	{r4, r5, r6, lr}
  84              	.LCFI1:
  85              		.cfi_def_cfa_offset 16
  86              		.cfi_offset 4, -16
  87              		.cfi_offset 5, -12
  88              		.cfi_offset 6, -8
  89              		.cfi_offset 14, -4
  90              		.loc 1 136 0
  91 0002 0446     		mov	r4, r0
  92 0004 0E46     		mov	r6, r1
  93              		.loc 1 139 0
  94 0006 FFF7FEFF 		bl	chDbgCheckClassI
  95              	.LVL4:
  96              		.loc 1 140 0
  97 000a D4F10103 		rsbs	r3, r4, #1
  98 000e 38BF     		it	cc
  99 0010 0023     		movcc	r3, #0
 100 0012 53EAD673 		orrs	r3, r3, r6, lsr #31
 101 0016 1DD1     		bne	.L22
 102              	.L10:
 103              		.loc 1 141 0
 104 0018 A568     		ldr	r5, [r4, #8]
 105 001a 2368     		ldr	r3, [r4, #0]
 106 001c 002D     		cmp	r5, #0
 107 001e 16DB     		blt	.L11
 108              		.loc 1 141 0 is_stmt 0 discriminator 2
 109 0020 A342     		cmp	r3, r4
 110 0022 03D0     		beq	.L13
 111              	.L12:
 112              		.loc 1 141 0 discriminator 3
 113 0024 0D48     		ldr	r0, .L23
ARM GAS  /var/folders/dt/0wfd0knj7gs46m8vwfzktm600000gn/T//ccBlwGZX.s 			page 3


 114 0026 FFF7FEFF 		bl	chDbgPanic
 115              	.LVL5:
 116 002a A568     		ldr	r5, [r4, #8]
 117              	.L13:
 118              	.LVL6:
 119              		.loc 1 148 0 is_stmt 1
 120 002c 0135     		adds	r5, r5, #1
 121              	.LVL7:
 122 002e 002D     		cmp	r5, #0
 123              		.loc 1 147 0
 124 0030 A660     		str	r6, [r4, #8]
 125              	.LVL8:
 126              		.loc 1 148 0
 127 0032 0BDC     		bgt	.L9
 128              		.loc 1 149 0
 129 0034 6FF00106 		mvn	r6, #1
 130              	.LVL9:
 131              	.L19:
 132              	.LBB24:
 133              	.LBB25:
 134              		.file 2 "../../os/kernel/include/chinline.h"
 135              		.loc 2 67 0
 136 0038 6068     		ldr	r0, [r4, #4]
 137              	.LVL10:
 138              	.LBE25:
 139              	.LBE24:
 140              		.loc 1 148 0
 141 003a 0135     		adds	r5, r5, #1
 142              	.LVL11:
 143              	.LBB27:
 144              	.LBB26:
 145              		.loc 2 69 0
 146 003c 4368     		ldr	r3, [r0, #4]
 147 003e 6360     		str	r3, [r4, #4]
 148 0040 1C60     		str	r4, [r3, #0]
 149              	.LBE26:
 150              	.LBE27:
 151              		.loc 1 149 0
 152 0042 FFF7FEFF 		bl	chSchReadyI
 153              	.LVL12:
 154              		.loc 1 148 0
 155 0046 012D     		cmp	r5, #1
 156              		.loc 1 149 0
 157 0048 8662     		str	r6, [r0, #40]
 158              	.LVL13:
 159              		.loc 1 148 0
 160 004a F5D1     		bne	.L19
 161              	.LVL14:
 162              	.L9:
 163 004c 70BD     		pop	{r4, r5, r6, pc}
 164              	.LVL15:
 165              	.L11:
 166              		.loc 1 141 0 discriminator 4
 167 004e A342     		cmp	r3, r4
 168 0050 ECD1     		bne	.L13
 169 0052 E7E7     		b	.L12
 170              	.L22:
ARM GAS  /var/folders/dt/0wfd0knj7gs46m8vwfzktm600000gn/T//ccBlwGZX.s 			page 4


 171              		.loc 1 140 0 discriminator 1
 172 0054 0248     		ldr	r0, .L23+4
 173 0056 FFF7FEFF 		bl	chDbgPanic
 174              	.LVL16:
 175 005a DDE7     		b	.L10
 176              	.L24:
 177              		.align	2
 178              	.L23:
 179 005c 20000000 		.word	.LC2
 180 0060 10000000 		.word	.LC1
 181              		.cfi_endproc
 182              	.LFE9:
 183              		.size	chSemResetI, .-chSemResetI
 184 0064 AFF30080 		.section	.text.chSemReset,"ax",%progbits
 184      AFF30080 
 184      AFF30080 
 185              		.align	2
 186              		.p2align 4,,15
 187              		.global	chSemReset
 188              		.thumb
 189              		.thumb_func
 190              		.type	chSemReset, %function
 191              	chSemReset:
 192              	.LFB8:
 193              		.loc 1 109 0
 194              		.cfi_startproc
 195              		@ args = 0, pretend = 0, frame = 0
 196              		@ frame_needed = 0, uses_anonymous_args = 0
 197              	.LVL17:
 198 0000 38B5     		push	{r3, r4, r5, lr}
 199              	.LCFI2:
 200              		.cfi_def_cfa_offset 16
 201              		.cfi_offset 3, -16
 202              		.cfi_offset 4, -12
 203              		.cfi_offset 5, -8
 204              		.cfi_offset 14, -4
 205              		.loc 1 109 0
 206 0002 0546     		mov	r5, r0
 207 0004 0C46     		mov	r4, r1
 208              	.LBB28:
 209              		.loc 1 111 0
 210 0006 2023     		movs	r3, #32
 211              	.LVL18:
 212              	@ 111 "../../os/kernel/src/chsem.c" 1
 213 0008 83F31188 		msr     BASEPRI, r3
 214              	@ 0 "" 2
 215              	.LVL19:
 216              		.thumb
 217              	.LBE28:
 218 000c FFF7FEFF 		bl	dbg_check_lock
 219              	.LVL20:
 220              		.loc 1 112 0
 221 0010 2846     		mov	r0, r5
 222 0012 2146     		mov	r1, r4
 223 0014 FFF7FEFF 		bl	chSemResetI
 224              	.LVL21:
 225              		.loc 1 113 0
ARM GAS  /var/folders/dt/0wfd0knj7gs46m8vwfzktm600000gn/T//ccBlwGZX.s 			page 5


 226 0018 FFF7FEFF 		bl	chSchRescheduleS
 227              	.LVL22:
 228              		.loc 1 114 0
 229 001c FFF7FEFF 		bl	dbg_check_unlock
 230              	.LVL23:
 231              	.LBB29:
 232 0020 0023     		movs	r3, #0
 233              	.LVL24:
 234              	@ 114 "../../os/kernel/src/chsem.c" 1
 235 0022 83F31188 		msr     BASEPRI, r3
 236              	@ 0 "" 2
 237              	.LVL25:
 238              		.thumb
 239 0026 38BD     		pop	{r3, r4, r5, pc}
 240              	.LBE29:
 241              		.cfi_endproc
 242              	.LFE8:
 243              		.size	chSemReset, .-chSemReset
 244 0028 AFF30080 		.section	.text.chSemWaitS,"ax",%progbits
 244      AFF30080 
 245              		.align	2
 246              		.p2align 4,,15
 247              		.global	chSemWaitS
 248              		.thumb
 249              		.thumb_func
 250              		.type	chSemWaitS, %function
 251              	chSemWaitS:
 252              	.LFB11:
 253              		.loc 1 185 0
 254              		.cfi_startproc
 255              		@ args = 0, pretend = 0, frame = 0
 256              		@ frame_needed = 0, uses_anonymous_args = 0
 257              	.LVL26:
 258 0000 38B5     		push	{r3, r4, r5, lr}
 259              	.LCFI3:
 260              		.cfi_def_cfa_offset 16
 261              		.cfi_offset 3, -16
 262              		.cfi_offset 4, -12
 263              		.cfi_offset 5, -8
 264              		.cfi_offset 14, -4
 265              		.loc 1 185 0
 266 0002 0446     		mov	r4, r0
 267              		.loc 1 187 0
 268 0004 FFF7FEFF 		bl	chDbgCheckClassS
 269              	.LVL27:
 270              		.loc 1 188 0
 271 0008 1CB3     		cbz	r4, .L34
 272              	.L27:
 273              		.loc 1 189 0
 274 000a A368     		ldr	r3, [r4, #8]
 275 000c 2268     		ldr	r2, [r4, #0]
 276 000e 002B     		cmp	r3, #0
 277 0010 0BDB     		blt	.L28
 278              		.loc 1 189 0 is_stmt 0 discriminator 2
 279 0012 A242     		cmp	r2, r4
 280 0014 03D0     		beq	.L30
 281              	.L29:
ARM GAS  /var/folders/dt/0wfd0knj7gs46m8vwfzktm600000gn/T//ccBlwGZX.s 			page 6


 282              		.loc 1 189 0 discriminator 3
 283 0016 1148     		ldr	r0, .L36
 284 0018 FFF7FEFF 		bl	chDbgPanic
 285              	.LVL28:
 286 001c A368     		ldr	r3, [r4, #8]
 287              	.L30:
 288              		.loc 1 194 0 is_stmt 1
 289 001e 013B     		subs	r3, r3, #1
 290 0020 002B     		cmp	r3, #0
 291 0022 A360     		str	r3, [r4, #8]
 292 0024 07DB     		blt	.L35
 293              	.L32:
 294              		.loc 1 200 0
 295 0026 0020     		movs	r0, #0
 296              		.loc 1 201 0
 297 0028 38BD     		pop	{r3, r4, r5, pc}
 298              	.L28:
 299              		.loc 1 189 0 discriminator 4
 300 002a A242     		cmp	r2, r4
 301 002c F3D0     		beq	.L29
 302              		.loc 1 194 0
 303 002e 013B     		subs	r3, r3, #1
 304 0030 002B     		cmp	r3, #0
 305 0032 A360     		str	r3, [r4, #8]
 306 0034 F7DA     		bge	.L32
 307              	.L35:
 308              		.loc 1 195 0
 309 0036 0A4D     		ldr	r5, .L36+4
 310              		.loc 1 197 0
 311 0038 0320     		movs	r0, #3
 312              		.loc 1 195 0
 313 003a EB69     		ldr	r3, [r5, #28]
 314 003c 9C62     		str	r4, [r3, #40]
 315              	.LVL29:
 316              	.LBB30:
 317              	.LBB31:
 318              		.loc 2 55 0
 319 003e 6268     		ldr	r2, [r4, #4]
 320              		.loc 2 54 0
 321 0040 1C60     		str	r4, [r3, #0]
 322              		.loc 2 55 0
 323 0042 5A60     		str	r2, [r3, #4]
 324              		.loc 2 56 0
 325 0044 6360     		str	r3, [r4, #4]
 326 0046 1360     		str	r3, [r2, #0]
 327              	.LBE31:
 328              	.LBE30:
 329              		.loc 1 197 0
 330 0048 FFF7FEFF 		bl	chSchGoSleepS
 331              	.LVL30:
 332              		.loc 1 198 0
 333 004c EB69     		ldr	r3, [r5, #28]
 334 004e 986A     		ldr	r0, [r3, #40]
 335 0050 38BD     		pop	{r3, r4, r5, pc}
 336              	.LVL31:
 337              	.L34:
 338              		.loc 1 188 0 discriminator 1
ARM GAS  /var/folders/dt/0wfd0knj7gs46m8vwfzktm600000gn/T//ccBlwGZX.s 			page 7


 339 0052 0448     		ldr	r0, .L36+8
 340 0054 FFF7FEFF 		bl	chDbgPanic
 341              	.LVL32:
 342 0058 D7E7     		b	.L27
 343              	.L37:
 344 005a 00BF     		.align	2
 345              	.L36:
 346 005c 44000000 		.word	.LC4
 347 0060 00000000 		.word	rlist
 348 0064 34000000 		.word	.LC3
 349              		.cfi_endproc
 350              	.LFE11:
 351              		.size	chSemWaitS, .-chSemWaitS
 352 0068 AFF30080 		.section	.text.chSemWait,"ax",%progbits
 352      AFF30080 
 353              		.align	2
 354              		.p2align 4,,15
 355              		.global	chSemWait
 356              		.thumb
 357              		.thumb_func
 358              		.type	chSemWait, %function
 359              	chSemWait:
 360              	.LFB10:
 361              		.loc 1 164 0
 362              		.cfi_startproc
 363              		@ args = 0, pretend = 0, frame = 0
 364              		@ frame_needed = 0, uses_anonymous_args = 0
 365              	.LVL33:
 366 0000 10B5     		push	{r4, lr}
 367              	.LCFI4:
 368              		.cfi_def_cfa_offset 8
 369              		.cfi_offset 4, -8
 370              		.cfi_offset 14, -4
 371              	.LBB32:
 372              		.loc 1 167 0
 373 0002 2023     		movs	r3, #32
 374              	.LVL34:
 375              	.LBE32:
 376              		.loc 1 164 0
 377 0004 0446     		mov	r4, r0
 378              	.LBB33:
 379              		.loc 1 167 0
 380              	@ 167 "../../os/kernel/src/chsem.c" 1
 381 0006 83F31188 		msr     BASEPRI, r3
 382              	@ 0 "" 2
 383              	.LVL35:
 384              		.thumb
 385              	.LBE33:
 386 000a FFF7FEFF 		bl	dbg_check_lock
 387              	.LVL36:
 388              		.loc 1 168 0
 389 000e 2046     		mov	r0, r4
 390 0010 FFF7FEFF 		bl	chSemWaitS
 391              	.LVL37:
 392 0014 0446     		mov	r4, r0
 393              	.LVL38:
 394              		.loc 1 169 0
ARM GAS  /var/folders/dt/0wfd0knj7gs46m8vwfzktm600000gn/T//ccBlwGZX.s 			page 8


 395 0016 FFF7FEFF 		bl	dbg_check_unlock
 396              	.LVL39:
 397              	.LBB34:
 398 001a 0023     		movs	r3, #0
 399              	.LVL40:
 400              	@ 169 "../../os/kernel/src/chsem.c" 1
 401 001c 83F31188 		msr     BASEPRI, r3
 402              	@ 0 "" 2
 403              	.LVL41:
 404              		.thumb
 405              	.LBE34:
 406              		.loc 1 171 0
 407 0020 2046     		mov	r0, r4
 408 0022 10BD     		pop	{r4, pc}
 409              		.cfi_endproc
 410              	.LFE10:
 411              		.size	chSemWait, .-chSemWait
 412 0024 AFF30080 		.section	.text.chSemWaitTimeoutS,"ax",%progbits
 412      AFF30080 
 412      AFF30080 
 413              		.align	2
 414              		.p2align 4,,15
 415              		.global	chSemWaitTimeoutS
 416              		.thumb
 417              		.thumb_func
 418              		.type	chSemWaitTimeoutS, %function
 419              	chSemWaitTimeoutS:
 420              	.LFB13:
 421              		.loc 1 250 0
 422              		.cfi_startproc
 423              		@ args = 0, pretend = 0, frame = 0
 424              		@ frame_needed = 0, uses_anonymous_args = 0
 425              	.LVL42:
 426 0000 38B5     		push	{r3, r4, r5, lr}
 427              	.LCFI5:
 428              		.cfi_def_cfa_offset 16
 429              		.cfi_offset 3, -16
 430              		.cfi_offset 4, -12
 431              		.cfi_offset 5, -8
 432              		.cfi_offset 14, -4
 433              		.loc 1 250 0
 434 0002 0446     		mov	r4, r0
 435 0004 0D46     		mov	r5, r1
 436              		.loc 1 252 0
 437 0006 FFF7FEFF 		bl	chDbgCheckClassS
 438              	.LVL43:
 439              		.loc 1 253 0
 440 000a 002C     		cmp	r4, #0
 441 000c 24D0     		beq	.L48
 442              	.L40:
 443              		.loc 1 254 0
 444 000e A368     		ldr	r3, [r4, #8]
 445 0010 2268     		ldr	r2, [r4, #0]
 446 0012 002B     		cmp	r3, #0
 447 0014 0BDB     		blt	.L41
 448              		.loc 1 254 0 is_stmt 0 discriminator 2
 449 0016 A242     		cmp	r2, r4
ARM GAS  /var/folders/dt/0wfd0knj7gs46m8vwfzktm600000gn/T//ccBlwGZX.s 			page 9


 450 0018 03D0     		beq	.L43
 451              	.L42:
 452              		.loc 1 254 0 discriminator 3
 453 001a 1348     		ldr	r0, .L51
 454 001c FFF7FEFF 		bl	chDbgPanic
 455              	.LVL44:
 456 0020 A368     		ldr	r3, [r4, #8]
 457              	.L43:
 458              		.loc 1 259 0 is_stmt 1
 459 0022 5A1E     		subs	r2, r3, #1
 460 0024 002A     		cmp	r2, #0
 461 0026 A260     		str	r2, [r4, #8]
 462 0028 07DB     		blt	.L49
 463              	.L46:
 464              		.loc 1 268 0
 465 002a 0020     		movs	r0, #0
 466              		.loc 1 269 0
 467 002c 38BD     		pop	{r3, r4, r5, pc}
 468              	.L41:
 469              		.loc 1 254 0 discriminator 4
 470 002e A242     		cmp	r2, r4
 471 0030 F3D0     		beq	.L42
 472              		.loc 1 259 0
 473 0032 5A1E     		subs	r2, r3, #1
 474 0034 002A     		cmp	r2, #0
 475 0036 A260     		str	r2, [r4, #8]
 476 0038 F7DA     		bge	.L46
 477              	.L49:
 478              		.loc 1 260 0
 479 003a 8DB1     		cbz	r5, .L50
 480              		.loc 1 264 0
 481 003c 0B4B     		ldr	r3, .L51+4
 482              		.loc 1 266 0
 483 003e 0320     		movs	r0, #3
 484              		.loc 1 264 0
 485 0040 DB69     		ldr	r3, [r3, #28]
 486              		.loc 1 266 0
 487 0042 2946     		mov	r1, r5
 488              		.loc 1 264 0
 489 0044 9C62     		str	r4, [r3, #40]
 490              	.LVL45:
 491              	.LBB35:
 492              	.LBB36:
 493              		.loc 2 55 0
 494 0046 6268     		ldr	r2, [r4, #4]
 495              		.loc 2 54 0
 496 0048 1C60     		str	r4, [r3, #0]
 497              		.loc 2 55 0
 498 004a 5A60     		str	r2, [r3, #4]
 499              		.loc 2 56 0
 500 004c 6360     		str	r3, [r4, #4]
 501 004e 1360     		str	r3, [r2, #0]
 502              	.LBE36:
 503              	.LBE35:
 504              		.loc 1 269 0
 505 0050 BDE83840 		pop	{r3, r4, r5, lr}
 506              		.loc 1 266 0
ARM GAS  /var/folders/dt/0wfd0knj7gs46m8vwfzktm600000gn/T//ccBlwGZX.s 			page 10


 507 0054 FFF7FEBF 		b	chSchGoSleepTimeoutS
 508              	.LVL46:
 509              	.L48:
 510              		.loc 1 253 0 discriminator 1
 511 0058 0548     		ldr	r0, .L51+8
 512 005a FFF7FEFF 		bl	chDbgPanic
 513              	.LVL47:
 514 005e D6E7     		b	.L40
 515              	.L50:
 516              		.loc 1 261 0
 517 0060 A360     		str	r3, [r4, #8]
 518              		.loc 1 262 0
 519 0062 4FF0FF30 		mov	r0, #-1
 520 0066 38BD     		pop	{r3, r4, r5, pc}
 521              	.L52:
 522              		.align	2
 523              	.L51:
 524 0068 70000000 		.word	.LC6
 525 006c 00000000 		.word	rlist
 526 0070 58000000 		.word	.LC5
 527              		.cfi_endproc
 528              	.LFE13:
 529              		.size	chSemWaitTimeoutS, .-chSemWaitTimeoutS
 530 0074 AFF30080 		.section	.text.chSemWaitTimeout,"ax",%progbits
 530      AFF30080 
 530      AFF30080 
 531              		.align	2
 532              		.p2align 4,,15
 533              		.global	chSemWaitTimeout
 534              		.thumb
 535              		.thumb_func
 536              		.type	chSemWaitTimeout, %function
 537              	chSemWaitTimeout:
 538              	.LFB12:
 539              		.loc 1 222 0
 540              		.cfi_startproc
 541              		@ args = 0, pretend = 0, frame = 0
 542              		@ frame_needed = 0, uses_anonymous_args = 0
 543              	.LVL48:
 544 0000 38B5     		push	{r3, r4, r5, lr}
 545              	.LCFI6:
 546              		.cfi_def_cfa_offset 16
 547              		.cfi_offset 3, -16
 548              		.cfi_offset 4, -12
 549              		.cfi_offset 5, -8
 550              		.cfi_offset 14, -4
 551              		.loc 1 222 0
 552 0002 0546     		mov	r5, r0
 553 0004 0C46     		mov	r4, r1
 554              	.LBB37:
 555              		.loc 1 225 0
 556 0006 2023     		movs	r3, #32
 557              	.LVL49:
 558              	@ 225 "../../os/kernel/src/chsem.c" 1
 559 0008 83F31188 		msr     BASEPRI, r3
 560              	@ 0 "" 2
 561              	.LVL50:
ARM GAS  /var/folders/dt/0wfd0knj7gs46m8vwfzktm600000gn/T//ccBlwGZX.s 			page 11


 562              		.thumb
 563              	.LBE37:
 564 000c FFF7FEFF 		bl	dbg_check_lock
 565              	.LVL51:
 566              		.loc 1 226 0
 567 0010 2146     		mov	r1, r4
 568 0012 2846     		mov	r0, r5
 569 0014 FFF7FEFF 		bl	chSemWaitTimeoutS
 570              	.LVL52:
 571 0018 0446     		mov	r4, r0
 572              	.LVL53:
 573              		.loc 1 227 0
 574 001a FFF7FEFF 		bl	dbg_check_unlock
 575              	.LVL54:
 576              	.LBB38:
 577 001e 0023     		movs	r3, #0
 578              	.LVL55:
 579              	@ 227 "../../os/kernel/src/chsem.c" 1
 580 0020 83F31188 		msr     BASEPRI, r3
 581              	@ 0 "" 2
 582              	.LVL56:
 583              		.thumb
 584              	.LBE38:
 585              		.loc 1 229 0
 586 0024 2046     		mov	r0, r4
 587 0026 38BD     		pop	{r3, r4, r5, pc}
 588              		.cfi_endproc
 589              	.LFE12:
 590              		.size	chSemWaitTimeout, .-chSemWaitTimeout
 591 0028 AFF30080 		.section	.text.chSemSignal,"ax",%progbits
 591      AFF30080 
 592              		.align	2
 593              		.p2align 4,,15
 594              		.global	chSemSignal
 595              		.thumb
 596              		.thumb_func
 597              		.type	chSemSignal, %function
 598              	chSemSignal:
 599              	.LFB14:
 600              		.loc 1 278 0
 601              		.cfi_startproc
 602              		@ args = 0, pretend = 0, frame = 0
 603              		@ frame_needed = 0, uses_anonymous_args = 0
 604              	.LVL57:
 605 0000 10B5     		push	{r4, lr}
 606              	.LCFI7:
 607              		.cfi_def_cfa_offset 8
 608              		.cfi_offset 4, -8
 609              		.cfi_offset 14, -4
 610              		.loc 1 280 0
 611 0002 0446     		mov	r4, r0
 612 0004 18B3     		cbz	r0, .L60
 613              	.LVL58:
 614              	.L55:
 615              		.loc 1 281 0
 616 0006 A368     		ldr	r3, [r4, #8]
 617 0008 002B     		cmp	r3, #0
ARM GAS  /var/folders/dt/0wfd0knj7gs46m8vwfzktm600000gn/T//ccBlwGZX.s 			page 12


 618 000a 2368     		ldr	r3, [r4, #0]
 619 000c 14DB     		blt	.L56
 620              		.loc 1 281 0 is_stmt 0 discriminator 2
 621 000e A342     		cmp	r3, r4
 622 0010 02D0     		beq	.L58
 623              	.L57:
 624              		.loc 1 281 0 discriminator 3
 625 0012 1148     		ldr	r0, .L62
 626 0014 FFF7FEFF 		bl	chDbgPanic
 627              	.LVL59:
 628              	.L58:
 629              	.LBB39:
 630              		.loc 1 286 0 is_stmt 1
 631 0018 2023     		movs	r3, #32
 632              	.LVL60:
 633              	@ 286 "../../os/kernel/src/chsem.c" 1
 634 001a 83F31188 		msr     BASEPRI, r3
 635              	@ 0 "" 2
 636              	.LVL61:
 637              		.thumb
 638              	.LBE39:
 639 001e FFF7FEFF 		bl	dbg_check_lock
 640              	.LVL62:
 641              		.loc 1 287 0
 642 0022 A368     		ldr	r3, [r4, #8]
 643 0024 0133     		adds	r3, r3, #1
 644 0026 002B     		cmp	r3, #0
 645 0028 A360     		str	r3, [r4, #8]
 646 002a 08DD     		ble	.L61
 647              	.L59:
 648              		.loc 1 289 0
 649 002c FFF7FEFF 		bl	dbg_check_unlock
 650              	.LVL63:
 651              	.LBB40:
 652 0030 0023     		movs	r3, #0
 653              	.LVL64:
 654              	@ 289 "../../os/kernel/src/chsem.c" 1
 655 0032 83F31188 		msr     BASEPRI, r3
 656              	@ 0 "" 2
 657              	.LVL65:
 658              		.thumb
 659 0036 10BD     		pop	{r4, pc}
 660              	.LVL66:
 661              	.L56:
 662              	.LBE40:
 663              		.loc 1 281 0 discriminator 4
 664 0038 A342     		cmp	r3, r4
 665 003a EDD1     		bne	.L58
 666 003c E9E7     		b	.L57
 667              	.L61:
 668              	.LVL67:
 669              	.LBB41:
 670              	.LBB42:
 671              		.loc 2 60 0
 672 003e 2068     		ldr	r0, [r4, #0]
 673              	.LVL68:
 674              	.LBE42:
ARM GAS  /var/folders/dt/0wfd0knj7gs46m8vwfzktm600000gn/T//ccBlwGZX.s 			page 13


 675              	.LBE41:
 676              		.loc 1 288 0
 677 0040 0021     		movs	r1, #0
 678              	.LBB44:
 679              	.LBB43:
 680              		.loc 2 62 0
 681 0042 0368     		ldr	r3, [r0, #0]
 682 0044 2360     		str	r3, [r4, #0]
 683 0046 5C60     		str	r4, [r3, #4]
 684              	.LBE43:
 685              	.LBE44:
 686              		.loc 1 288 0
 687 0048 FFF7FEFF 		bl	chSchWakeupS
 688              	.LVL69:
 689 004c EEE7     		b	.L59
 690              	.LVL70:
 691              	.L60:
 692              		.loc 1 280 0 discriminator 1
 693 004e 0348     		ldr	r0, .L62+4
 694              	.LVL71:
 695 0050 FFF7FEFF 		bl	chDbgPanic
 696              	.LVL72:
 697 0054 D7E7     		b	.L55
 698              	.L63:
 699 0056 00BF     		.align	2
 700              	.L62:
 701 0058 98000000 		.word	.LC8
 702 005c 88000000 		.word	.LC7
 703              		.cfi_endproc
 704              	.LFE14:
 705              		.size	chSemSignal, .-chSemSignal
 706              		.section	.text.chSemSignalI,"ax",%progbits
 707              		.align	2
 708              		.p2align 4,,15
 709              		.global	chSemSignalI
 710              		.thumb
 711              		.thumb_func
 712              		.type	chSemSignalI, %function
 713              	chSemSignalI:
 714              	.LFB15:
 715              		.loc 1 303 0
 716              		.cfi_startproc
 717              		@ args = 0, pretend = 0, frame = 0
 718              		@ frame_needed = 0, uses_anonymous_args = 0
 719              	.LVL73:
 720 0000 10B5     		push	{r4, lr}
 721              	.LCFI8:
 722              		.cfi_def_cfa_offset 8
 723              		.cfi_offset 4, -8
 724              		.cfi_offset 14, -4
 725              		.loc 1 303 0
 726 0002 0446     		mov	r4, r0
 727              		.loc 1 305 0
 728 0004 FFF7FEFF 		bl	chDbgCheckClassI
 729              	.LVL74:
 730              		.loc 1 306 0
 731 0008 002C     		cmp	r4, #0
ARM GAS  /var/folders/dt/0wfd0knj7gs46m8vwfzktm600000gn/T//ccBlwGZX.s 			page 14


 732 000a 1FD0     		beq	.L71
 733              	.L65:
 734              		.loc 1 307 0
 735 000c A368     		ldr	r3, [r4, #8]
 736 000e 2268     		ldr	r2, [r4, #0]
 737 0010 002B     		cmp	r3, #0
 738 0012 0ADB     		blt	.L66
 739              		.loc 1 307 0 is_stmt 0 discriminator 2
 740 0014 A242     		cmp	r2, r4
 741 0016 03D0     		beq	.L68
 742              	.L67:
 743              		.loc 1 307 0 discriminator 3
 744 0018 0E48     		ldr	r0, .L73
 745 001a FFF7FEFF 		bl	chDbgPanic
 746              	.LVL75:
 747 001e A368     		ldr	r3, [r4, #8]
 748              	.L68:
 749              		.loc 1 312 0 is_stmt 1
 750 0020 0133     		adds	r3, r3, #1
 751 0022 002B     		cmp	r3, #0
 752 0024 A360     		str	r3, [r4, #8]
 753 0026 06DD     		ble	.L72
 754              	.L64:
 755 0028 10BD     		pop	{r4, pc}
 756              	.L66:
 757              		.loc 1 307 0 discriminator 4
 758 002a A242     		cmp	r2, r4
 759 002c F4D0     		beq	.L67
 760              		.loc 1 312 0
 761 002e 0133     		adds	r3, r3, #1
 762 0030 002B     		cmp	r3, #0
 763 0032 A360     		str	r3, [r4, #8]
 764 0034 F8DC     		bgt	.L64
 765              	.L72:
 766              	.LVL76:
 767              	.LBB45:
 768              	.LBB46:
 769              	.LBB47:
 770              		.loc 2 60 0
 771 0036 2368     		ldr	r3, [r4, #0]
 772              	.LVL77:
 773              		.loc 2 62 0
 774 0038 1A68     		ldr	r2, [r3, #0]
 775              	.LBE47:
 776              	.LBE46:
 777              		.loc 1 317 0
 778 003a 1846     		mov	r0, r3
 779              	.LBB49:
 780              	.LBB48:
 781              		.loc 2 62 0
 782 003c 2260     		str	r2, [r4, #0]
 783 003e 5460     		str	r4, [r2, #4]
 784              	.LBE48:
 785              	.LBE49:
 786              		.loc 1 316 0
 787 0040 0022     		movs	r2, #0
 788 0042 9A62     		str	r2, [r3, #40]
ARM GAS  /var/folders/dt/0wfd0knj7gs46m8vwfzktm600000gn/T//ccBlwGZX.s 			page 15


 789              	.LBE45:
 790              		.loc 1 319 0
 791 0044 BDE81040 		pop	{r4, lr}
 792              	.LBB50:
 793              		.loc 1 317 0
 794 0048 FFF7FEBF 		b	chSchReadyI
 795              	.LVL78:
 796              	.L71:
 797              	.LBE50:
 798              		.loc 1 306 0 discriminator 1
 799 004c 0248     		ldr	r0, .L73+4
 800 004e FFF7FEFF 		bl	chDbgPanic
 801              	.LVL79:
 802 0052 DBE7     		b	.L65
 803              	.L74:
 804              		.align	2
 805              	.L73:
 806 0054 C0000000 		.word	.LC10
 807 0058 AC000000 		.word	.LC9
 808              		.cfi_endproc
 809              	.LFE15:
 810              		.size	chSemSignalI, .-chSemSignalI
 811 005c AFF30080 		.section	.text.chSemAddCounterI,"ax",%progbits
 812              		.align	2
 813              		.p2align 4,,15
 814              		.global	chSemAddCounterI
 815              		.thumb
 816              		.thumb_func
 817              		.type	chSemAddCounterI, %function
 818              	chSemAddCounterI:
 819              	.LFB16:
 820              		.loc 1 334 0
 821              		.cfi_startproc
 822              		@ args = 0, pretend = 0, frame = 0
 823              		@ frame_needed = 0, uses_anonymous_args = 0
 824              	.LVL80:
 825 0000 70B5     		push	{r4, r5, r6, lr}
 826              	.LCFI9:
 827              		.cfi_def_cfa_offset 16
 828              		.cfi_offset 4, -16
 829              		.cfi_offset 5, -12
 830              		.cfi_offset 6, -8
 831              		.cfi_offset 14, -4
 832              		.loc 1 334 0
 833 0002 0546     		mov	r5, r0
 834 0004 0C46     		mov	r4, r1
 835              		.loc 1 336 0
 836 0006 FFF7FEFF 		bl	chDbgCheckClassI
 837              	.LVL81:
 838              		.loc 1 337 0
 839 000a 002D     		cmp	r5, #0
 840 000c 18BF     		it	ne
 841 000e 002C     		cmpne	r4, #0
 842 0010 20DD     		ble	.L89
 843              	.L76:
 844              		.loc 1 338 0
 845 0012 AB68     		ldr	r3, [r5, #8]
ARM GAS  /var/folders/dt/0wfd0knj7gs46m8vwfzktm600000gn/T//ccBlwGZX.s 			page 16


 846 0014 002B     		cmp	r3, #0
 847 0016 2B68     		ldr	r3, [r5, #0]
 848 0018 19DB     		blt	.L77
 849              		.loc 1 338 0 is_stmt 0 discriminator 2
 850 001a AB42     		cmp	r3, r5
 851 001c 02D0     		beq	.L79
 852              	.L78:
 853              		.loc 1 338 0 discriminator 3
 854 001e 0F48     		ldr	r0, .L90
 855 0020 FFF7FEFF 		bl	chDbgPanic
 856              	.LVL82:
 857              	.L79:
 858              		.loc 1 343 0 is_stmt 1 discriminator 1
 859 0024 002C     		cmp	r4, #0
 860 0026 11DD     		ble	.L75
 861              		.loc 1 345 0
 862 0028 0026     		movs	r6, #0
 863 002a 01E0     		b	.L86
 864              	.LVL83:
 865              	.L81:
 866              		.loc 1 343 0
 867 002c 013C     		subs	r4, r4, #1
 868              	.LVL84:
 869 002e 0DD0     		beq	.L75
 870              	.LVL85:
 871              	.L86:
 872              		.loc 1 344 0
 873 0030 AB68     		ldr	r3, [r5, #8]
 874 0032 0133     		adds	r3, r3, #1
 875 0034 002B     		cmp	r3, #0
 876 0036 AB60     		str	r3, [r5, #8]
 877 0038 F8DC     		bgt	.L81
 878              	.LVL86:
 879              	.LBB51:
 880              	.LBB52:
 881              		.loc 2 60 0
 882 003a 2868     		ldr	r0, [r5, #0]
 883              	.LVL87:
 884              		.loc 2 62 0
 885 003c 0368     		ldr	r3, [r0, #0]
 886 003e 2B60     		str	r3, [r5, #0]
 887 0040 5D60     		str	r5, [r3, #4]
 888              	.LBE52:
 889              	.LBE51:
 890              		.loc 1 345 0
 891 0042 FFF7FEFF 		bl	chSchReadyI
 892              	.LVL88:
 893              		.loc 1 343 0
 894 0046 013C     		subs	r4, r4, #1
 895              		.loc 1 345 0
 896 0048 8662     		str	r6, [r0, #40]
 897              		.loc 1 343 0
 898 004a F1D1     		bne	.L86
 899              	.LVL89:
 900              	.L75:
 901 004c 70BD     		pop	{r4, r5, r6, pc}
 902              	.LVL90:
ARM GAS  /var/folders/dt/0wfd0knj7gs46m8vwfzktm600000gn/T//ccBlwGZX.s 			page 17


 903              	.L77:
 904              		.loc 1 338 0 discriminator 4
 905 004e AB42     		cmp	r3, r5
 906 0050 E8D1     		bne	.L79
 907 0052 E4E7     		b	.L78
 908              	.L89:
 909              		.loc 1 337 0 discriminator 1
 910 0054 0248     		ldr	r0, .L90+4
 911 0056 FFF7FEFF 		bl	chDbgPanic
 912              	.LVL91:
 913 005a DAE7     		b	.L76
 914              	.L91:
 915              		.align	2
 916              	.L90:
 917 005c EC000000 		.word	.LC12
 918 0060 D4000000 		.word	.LC11
 919              		.cfi_endproc
 920              	.LFE16:
 921              		.size	chSemAddCounterI, .-chSemAddCounterI
 922 0064 AFF30080 		.section	.text.chSemSignalWait,"ax",%progbits
 922      AFF30080 
 922      AFF30080 
 923              		.align	2
 924              		.p2align 4,,15
 925              		.global	chSemSignalWait
 926              		.thumb
 927              		.thumb_func
 928              		.type	chSemSignalWait, %function
 929              	chSemSignalWait:
 930              	.LFB17:
 931              		.loc 1 366 0
 932              		.cfi_startproc
 933              		@ args = 0, pretend = 0, frame = 0
 934              		@ frame_needed = 0, uses_anonymous_args = 0
 935              	.LVL92:
 936              		.loc 1 369 0
 937 0000 0028     		cmp	r0, #0
 938 0002 18BF     		it	ne
 939 0004 0029     		cmpne	r1, #0
 940              		.loc 1 366 0
 941 0006 38B5     		push	{r3, r4, r5, lr}
 942              	.LCFI10:
 943              		.cfi_def_cfa_offset 16
 944              		.cfi_offset 3, -16
 945              		.cfi_offset 4, -12
 946              		.cfi_offset 5, -8
 947              		.cfi_offset 14, -4
 948              		.loc 1 369 0
 949 0008 0C46     		mov	r4, r1
 950 000a 0546     		mov	r5, r0
 951 000c 33D0     		beq	.L107
 952              	.LVL93:
 953              	.L93:
 954              		.loc 1 370 0
 955 000e AB68     		ldr	r3, [r5, #8]
 956 0010 002B     		cmp	r3, #0
 957 0012 2B68     		ldr	r3, [r5, #0]
ARM GAS  /var/folders/dt/0wfd0knj7gs46m8vwfzktm600000gn/T//ccBlwGZX.s 			page 18


 958 0014 26DB     		blt	.L94
 959              		.loc 1 370 0 is_stmt 0 discriminator 2
 960 0016 AB42     		cmp	r3, r5
 961 0018 02D0     		beq	.L96
 962              	.L95:
 963              		.loc 1 370 0 discriminator 3
 964 001a 2448     		ldr	r0, .L111
 965 001c FFF7FEFF 		bl	chDbgPanic
 966              	.LVL94:
 967              	.L96:
 968              		.loc 1 374 0 is_stmt 1
 969 0020 A368     		ldr	r3, [r4, #8]
 970 0022 002B     		cmp	r3, #0
 971 0024 2368     		ldr	r3, [r4, #0]
 972 0026 23DB     		blt	.L97
 973              	.L110:
 974              		.loc 1 374 0 is_stmt 0 discriminator 2
 975 0028 A342     		cmp	r3, r4
 976 002a 02D0     		beq	.L99
 977              	.L98:
 978              		.loc 1 374 0 discriminator 3
 979 002c 2048     		ldr	r0, .L111+4
 980 002e FFF7FEFF 		bl	chDbgPanic
 981              	.LVL95:
 982              	.L99:
 983              	.LBB53:
 984              		.loc 1 379 0 is_stmt 1
 985 0032 2023     		movs	r3, #32
 986              	.LVL96:
 987              	@ 379 "../../os/kernel/src/chsem.c" 1
 988 0034 83F31188 		msr     BASEPRI, r3
 989              	@ 0 "" 2
 990              	.LVL97:
 991              		.thumb
 992              	.LBE53:
 993 0038 FFF7FEFF 		bl	dbg_check_lock
 994              	.LVL98:
 995              		.loc 1 380 0
 996 003c AB68     		ldr	r3, [r5, #8]
 997 003e 0133     		adds	r3, r3, #1
 998 0040 002B     		cmp	r3, #0
 999 0042 AB60     		str	r3, [r5, #8]
 1000 0044 28DD     		ble	.L108
 1001              	.L100:
 1002              		.loc 1 382 0
 1003 0046 A368     		ldr	r3, [r4, #8]
 1004 0048 013B     		subs	r3, r3, #1
 1005 004a 002B     		cmp	r3, #0
 1006 004c A360     		str	r3, [r4, #8]
 1007 004e 16DB     		blt	.L109
 1008              		.loc 1 390 0
 1009 0050 FFF7FEFF 		bl	chSchRescheduleS
 1010              	.LVL99:
 1011              		.loc 1 391 0
 1012 0054 0024     		movs	r4, #0
 1013              	.LVL100:
 1014              	.L102:
ARM GAS  /var/folders/dt/0wfd0knj7gs46m8vwfzktm600000gn/T//ccBlwGZX.s 			page 19


 1015              		.loc 1 393 0
 1016 0056 FFF7FEFF 		bl	dbg_check_unlock
 1017              	.LVL101:
 1018              	.LBB54:
 1019 005a 0023     		movs	r3, #0
 1020              	.LVL102:
 1021              	@ 393 "../../os/kernel/src/chsem.c" 1
 1022 005c 83F31188 		msr     BASEPRI, r3
 1023              	@ 0 "" 2
 1024              	.LVL103:
 1025              		.thumb
 1026              	.LBE54:
 1027              		.loc 1 395 0
 1028 0060 2046     		mov	r0, r4
 1029 0062 38BD     		pop	{r3, r4, r5, pc}
 1030              	.LVL104:
 1031              	.L94:
 1032              		.loc 1 370 0 discriminator 4
 1033 0064 AB42     		cmp	r3, r5
 1034 0066 D8D0     		beq	.L95
 1035              		.loc 1 374 0
 1036 0068 A368     		ldr	r3, [r4, #8]
 1037 006a 002B     		cmp	r3, #0
 1038 006c 2368     		ldr	r3, [r4, #0]
 1039 006e DBDA     		bge	.L110
 1040              	.L97:
 1041              		.loc 1 374 0 is_stmt 0 discriminator 4
 1042 0070 A342     		cmp	r3, r4
 1043 0072 DED1     		bne	.L99
 1044 0074 DAE7     		b	.L98
 1045              	.LVL105:
 1046              	.L107:
 1047              		.loc 1 369 0 is_stmt 1 discriminator 1
 1048 0076 0F48     		ldr	r0, .L111+8
 1049              	.LVL106:
 1050 0078 FFF7FEFF 		bl	chDbgPanic
 1051              	.LVL107:
 1052 007c C7E7     		b	.L93
 1053              	.L109:
 1054              	.LBB55:
 1055              		.loc 1 383 0
 1056 007e 0E4A     		ldr	r2, .L111+12
 1057              	.LBB56:
 1058              	.LBB57:
 1059              		.loc 2 55 0
 1060 0080 6368     		ldr	r3, [r4, #4]
 1061              	.LBE57:
 1062              	.LBE56:
 1063              		.loc 1 383 0
 1064 0082 D569     		ldr	r5, [r2, #28]
 1065              	.LVL108:
 1066              		.loc 1 386 0
 1067 0084 0320     		movs	r0, #3
 1068              	.LBB60:
 1069              	.LBB58:
 1070              		.loc 2 54 0
 1071 0086 2C60     		str	r4, [r5, #0]
ARM GAS  /var/folders/dt/0wfd0knj7gs46m8vwfzktm600000gn/T//ccBlwGZX.s 			page 20


 1072              		.loc 2 55 0
 1073 0088 6B60     		str	r3, [r5, #4]
 1074              		.loc 2 56 0
 1075 008a 6560     		str	r5, [r4, #4]
 1076              	.LBE58:
 1077              	.LBE60:
 1078              		.loc 1 385 0
 1079 008c AC62     		str	r4, [r5, #40]
 1080              	.LBB61:
 1081              	.LBB59:
 1082              		.loc 2 56 0
 1083 008e 1D60     		str	r5, [r3, #0]
 1084              	.LBE59:
 1085              	.LBE61:
 1086              		.loc 1 386 0
 1087 0090 FFF7FEFF 		bl	chSchGoSleepS
 1088              	.LVL109:
 1089              		.loc 1 387 0
 1090 0094 AC6A     		ldr	r4, [r5, #40]
 1091              	.LVL110:
 1092 0096 DEE7     		b	.L102
 1093              	.LVL111:
 1094              	.L108:
 1095              	.LBE55:
 1096              	.LBB62:
 1097              	.LBB63:
 1098              		.loc 2 60 0
 1099 0098 2868     		ldr	r0, [r5, #0]
 1100              	.LVL112:
 1101              		.loc 2 62 0
 1102 009a 0368     		ldr	r3, [r0, #0]
 1103 009c 2B60     		str	r3, [r5, #0]
 1104 009e 5D60     		str	r5, [r3, #4]
 1105              	.LBE63:
 1106              	.LBE62:
 1107              		.loc 1 381 0
 1108 00a0 FFF7FEFF 		bl	chSchReadyI
 1109              	.LVL113:
 1110 00a4 0023     		movs	r3, #0
 1111 00a6 8362     		str	r3, [r0, #40]
 1112 00a8 CDE7     		b	.L100
 1113              	.L112:
 1114 00aa 00BF     		.align	2
 1115              	.L111:
 1116 00ac 18010000 		.word	.LC14
 1117 00b0 30010000 		.word	.LC15
 1118 00b4 04010000 		.word	.LC13
 1119 00b8 00000000 		.word	rlist
 1120              		.cfi_endproc
 1121              	.LFE17:
 1122              		.size	chSemSignalWait, .-chSemSignalWait
 1123 00bc AFF30080 		.section	.rodata.str1.4,"aMS",%progbits,1
 1124              		.align	2
 1125              	.LC0:
 1126 0000 22636853 		.ascii	"\"chSemInit\"()\000"
 1126      656D496E 
 1126      69742228 
ARM GAS  /var/folders/dt/0wfd0knj7gs46m8vwfzktm600000gn/T//ccBlwGZX.s 			page 21


 1126      2900
 1127 000e 0000     		.space	2
 1128              	.LC1:
 1129 0010 22636853 		.ascii	"\"chSemResetI\"()\000"
 1129      656D5265 
 1129      73657449 
 1129      22282900 
 1130              	.LC2:
 1131 0020 63685365 		.ascii	"chSemResetI(), #1\000"
 1131      6D526573 
 1131      65744928 
 1131      292C2023 
 1131      3100
 1132 0032 0000     		.space	2
 1133              	.LC3:
 1134 0034 22636853 		.ascii	"\"chSemWaitS\"()\000"
 1134      656D5761 
 1134      69745322 
 1134      282900
 1135 0043 00       		.space	1
 1136              	.LC4:
 1137 0044 63685365 		.ascii	"chSemWaitS(), #1\000"
 1137      6D576169 
 1137      74532829 
 1137      2C202331 
 1137      00
 1138 0055 000000   		.space	3
 1139              	.LC5:
 1140 0058 22636853 		.ascii	"\"chSemWaitTimeoutS\"()\000"
 1140      656D5761 
 1140      69745469 
 1140      6D656F75 
 1140      74532228 
 1141 006e 0000     		.space	2
 1142              	.LC6:
 1143 0070 63685365 		.ascii	"chSemWaitTimeoutS(), #1\000"
 1143      6D576169 
 1143      7454696D 
 1143      656F7574 
 1143      5328292C 
 1144              	.LC7:
 1145 0088 22636853 		.ascii	"\"chSemSignal\"()\000"
 1145      656D5369 
 1145      676E616C 
 1145      22282900 
 1146              	.LC8:
 1147 0098 63685365 		.ascii	"chSemSignal(), #1\000"
 1147      6D536967 
 1147      6E616C28 
 1147      292C2023 
 1147      3100
 1148 00aa 0000     		.space	2
 1149              	.LC9:
 1150 00ac 22636853 		.ascii	"\"chSemSignalI\"()\000"
 1150      656D5369 
 1150      676E616C 
 1150      49222829 
ARM GAS  /var/folders/dt/0wfd0knj7gs46m8vwfzktm600000gn/T//ccBlwGZX.s 			page 22


 1150      00
 1151 00bd 000000   		.space	3
 1152              	.LC10:
 1153 00c0 63685365 		.ascii	"chSemSignalI(), #1\000"
 1153      6D536967 
 1153      6E616C49 
 1153      28292C20 
 1153      233100
 1154 00d3 00       		.space	1
 1155              	.LC11:
 1156 00d4 22636853 		.ascii	"\"chSemAddCounterI\"()\000"
 1156      656D4164 
 1156      64436F75 
 1156      6E746572 
 1156      49222829 
 1157 00e9 000000   		.space	3
 1158              	.LC12:
 1159 00ec 63685365 		.ascii	"chSemAddCounterI(), #1\000"
 1159      6D416464 
 1159      436F756E 
 1159      74657249 
 1159      28292C20 
 1160 0103 00       		.space	1
 1161              	.LC13:
 1162 0104 22636853 		.ascii	"\"chSemSignalWait\"()\000"
 1162      656D5369 
 1162      676E616C 
 1162      57616974 
 1162      22282900 
 1163              	.LC14:
 1164 0118 63685365 		.ascii	"chSemSignalWait(), #1\000"
 1164      6D536967 
 1164      6E616C57 
 1164      61697428 
 1164      292C2023 
 1165 012e 0000     		.space	2
 1166              	.LC15:
 1167 0130 63685365 		.ascii	"chSemSignalWait(), #2\000"
 1167      6D536967 
 1167      6E616C57 
 1167      61697428 
 1167      292C2023 
 1168 0146 0000     		.text
 1169              	.Letext0:
 1170              		.file 3 "/Users/toxygen/Applications/yagarto-4.7.2/bin/../lib/gcc/arm-none-eabi/4.7.2/../../../../
 1171              		.file 4 "../../os/ports/GCC/ARMCMx/chtypes.h"
 1172              		.file 5 "../../os/kernel/include/chlists.h"
 1173              		.file 6 "../../os/kernel/include/chthreads.h"
 1174              		.file 7 "../../os/ports/GCC/ARMCMx/chcore_v7m.h"
 1175              		.file 8 "../../os/kernel/include/chschd.h"
 1176              		.file 9 "../../os/kernel/include/chsem.h"
 1177              		.file 10 "../../os/kernel/include/chmtx.h"
 1178              		.file 11 "../../os/kernel/include/chdebug.h"
 1179              		.section	.debug_info,"",%progbits
 1180              	.Ldebug_info0:
 1181 0000 9F0D0000 		.4byte	0xd9f
 1182 0004 0200     		.2byte	0x2
ARM GAS  /var/folders/dt/0wfd0knj7gs46m8vwfzktm600000gn/T//ccBlwGZX.s 			page 23


 1183 0006 00000000 		.4byte	.Ldebug_abbrev0
 1184 000a 04       		.byte	0x4
 1185 000b 01       		.uleb128 0x1
 1186 000c 28020000 		.4byte	.LASF91
 1187 0010 01       		.byte	0x1
 1188 0011 AD000000 		.4byte	.LASF92
 1189 0015 3D030000 		.4byte	.LASF93
 1190 0019 E0000000 		.4byte	.Ldebug_ranges0+0xe0
 1191 001d 00000000 		.4byte	0
 1192 0021 00000000 		.4byte	0
 1193 0025 00000000 		.4byte	.Ldebug_line0
 1194 0029 02       		.uleb128 0x2
 1195 002a 04       		.byte	0x4
 1196 002b 05       		.byte	0x5
 1197 002c 696E7400 		.ascii	"int\000"
 1198 0030 03       		.uleb128 0x3
 1199 0031 04       		.byte	0x4
 1200 0032 07       		.byte	0x7
 1201 0033 2A010000 		.4byte	.LASF0
 1202 0037 03       		.uleb128 0x3
 1203 0038 01       		.byte	0x1
 1204 0039 06       		.byte	0x6
 1205 003a 81000000 		.4byte	.LASF1
 1206 003e 04       		.uleb128 0x4
 1207 003f CA030000 		.4byte	.LASF5
 1208 0043 03       		.byte	0x3
 1209 0044 2A       		.byte	0x2a
 1210 0045 49000000 		.4byte	0x49
 1211 0049 03       		.uleb128 0x3
 1212 004a 01       		.byte	0x1
 1213 004b 08       		.byte	0x8
 1214 004c 65020000 		.4byte	.LASF2
 1215 0050 03       		.uleb128 0x3
 1216 0051 02       		.byte	0x2
 1217 0052 05       		.byte	0x5
 1218 0053 7D020000 		.4byte	.LASF3
 1219 0057 03       		.uleb128 0x3
 1220 0058 02       		.byte	0x2
 1221 0059 07       		.byte	0x7
 1222 005a 68010000 		.4byte	.LASF4
 1223 005e 04       		.uleb128 0x4
 1224 005f 5D020000 		.4byte	.LASF6
 1225 0063 03       		.byte	0x3
 1226 0064 4F       		.byte	0x4f
 1227 0065 69000000 		.4byte	0x69
 1228 0069 03       		.uleb128 0x3
 1229 006a 04       		.byte	0x4
 1230 006b 05       		.byte	0x5
 1231 006c C9000000 		.4byte	.LASF7
 1232 0070 04       		.uleb128 0x4
 1233 0071 D7020000 		.4byte	.LASF8
 1234 0075 03       		.byte	0x3
 1235 0076 50       		.byte	0x50
 1236 0077 7B000000 		.4byte	0x7b
 1237 007b 03       		.uleb128 0x3
 1238 007c 04       		.byte	0x4
 1239 007d 07       		.byte	0x7
ARM GAS  /var/folders/dt/0wfd0knj7gs46m8vwfzktm600000gn/T//ccBlwGZX.s 			page 24


 1240 007e 48010000 		.4byte	.LASF9
 1241 0082 03       		.uleb128 0x3
 1242 0083 08       		.byte	0x8
 1243 0084 05       		.byte	0x5
 1244 0085 73000000 		.4byte	.LASF10
 1245 0089 04       		.uleb128 0x4
 1246 008a 32000000 		.4byte	.LASF11
 1247 008e 03       		.byte	0x3
 1248 008f 78       		.byte	0x78
 1249 0090 94000000 		.4byte	0x94
 1250 0094 03       		.uleb128 0x3
 1251 0095 08       		.byte	0x8
 1252 0096 07       		.byte	0x7
 1253 0097 3B000000 		.4byte	.LASF12
 1254 009b 04       		.uleb128 0x4
 1255 009c 9D010000 		.4byte	.LASF13
 1256 00a0 04       		.byte	0x4
 1257 00a1 2F       		.byte	0x2f
 1258 00a2 3E000000 		.4byte	0x3e
 1259 00a6 04       		.uleb128 0x4
 1260 00a7 D2000000 		.4byte	.LASF14
 1261 00ab 04       		.byte	0x4
 1262 00ac 30       		.byte	0x30
 1263 00ad 3E000000 		.4byte	0x3e
 1264 00b1 04       		.uleb128 0x4
 1265 00b2 46020000 		.4byte	.LASF15
 1266 00b6 04       		.byte	0x4
 1267 00b7 31       		.byte	0x31
 1268 00b8 3E000000 		.4byte	0x3e
 1269 00bc 04       		.uleb128 0x4
 1270 00bd 55020000 		.4byte	.LASF16
 1271 00c1 04       		.byte	0x4
 1272 00c2 32       		.byte	0x32
 1273 00c3 70000000 		.4byte	0x70
 1274 00c7 04       		.uleb128 0x4
 1275 00c8 86010000 		.4byte	.LASF17
 1276 00cc 04       		.byte	0x4
 1277 00cd 33       		.byte	0x33
 1278 00ce 5E000000 		.4byte	0x5e
 1279 00d2 04       		.uleb128 0x4
 1280 00d3 C2010000 		.4byte	.LASF18
 1281 00d7 04       		.byte	0x4
 1282 00d8 35       		.byte	0x35
 1283 00d9 70000000 		.4byte	0x70
 1284 00dd 04       		.uleb128 0x4
 1285 00de 1E030000 		.4byte	.LASF19
 1286 00e2 04       		.byte	0x4
 1287 00e3 36       		.byte	0x36
 1288 00e4 70000000 		.4byte	0x70
 1289 00e8 04       		.uleb128 0x4
 1290 00e9 19010000 		.4byte	.LASF20
 1291 00ed 04       		.byte	0x4
 1292 00ee 37       		.byte	0x37
 1293 00ef 5E000000 		.4byte	0x5e
 1294 00f3 04       		.uleb128 0x4
 1295 00f4 B7020000 		.4byte	.LASF21
 1296 00f8 05       		.byte	0x5
ARM GAS  /var/folders/dt/0wfd0knj7gs46m8vwfzktm600000gn/T//ccBlwGZX.s 			page 25


 1297 00f9 2A       		.byte	0x2a
 1298 00fa FE000000 		.4byte	0xfe
 1299 00fe 05       		.uleb128 0x5
 1300 00ff B7020000 		.4byte	.LASF21
 1301 0103 4C       		.byte	0x4c
 1302 0104 06       		.byte	0x6
 1303 0105 5E       		.byte	0x5e
 1304 0106 23020000 		.4byte	0x223
 1305 010a 06       		.uleb128 0x6
 1306 010b 9D020000 		.4byte	.LASF22
 1307 010f 06       		.byte	0x6
 1308 0110 5F       		.byte	0x5f
 1309 0111 48020000 		.4byte	0x248
 1310 0115 02       		.byte	0x2
 1311 0116 23       		.byte	0x23
 1312 0117 00       		.uleb128 0
 1313 0118 06       		.uleb128 0x6
 1314 0119 4E020000 		.4byte	.LASF23
 1315 011d 06       		.byte	0x6
 1316 011e 61       		.byte	0x61
 1317 011f 48020000 		.4byte	0x248
 1318 0123 02       		.byte	0x2
 1319 0124 23       		.byte	0x23
 1320 0125 04       		.uleb128 0x4
 1321 0126 06       		.uleb128 0x6
 1322 0127 6C000000 		.4byte	.LASF24
 1323 012b 06       		.byte	0x6
 1324 012c 63       		.byte	0x63
 1325 012d BC000000 		.4byte	0xbc
 1326 0131 02       		.byte	0x2
 1327 0132 23       		.byte	0x23
 1328 0133 08       		.uleb128 0x8
 1329 0134 06       		.uleb128 0x6
 1330 0135 07040000 		.4byte	.LASF25
 1331 0139 06       		.byte	0x6
 1332 013a 64       		.byte	0x64
 1333 013b 20030000 		.4byte	0x320
 1334 013f 02       		.byte	0x2
 1335 0140 23       		.byte	0x23
 1336 0141 0C       		.uleb128 0xc
 1337 0142 06       		.uleb128 0x6
 1338 0143 E7000000 		.4byte	.LASF26
 1339 0147 06       		.byte	0x6
 1340 0148 66       		.byte	0x66
 1341 0149 48020000 		.4byte	0x248
 1342 014d 02       		.byte	0x2
 1343 014e 23       		.byte	0x23
 1344 014f 10       		.uleb128 0x10
 1345 0150 06       		.uleb128 0x6
 1346 0151 08020000 		.4byte	.LASF27
 1347 0155 06       		.byte	0x6
 1348 0156 67       		.byte	0x67
 1349 0157 48020000 		.4byte	0x248
 1350 015b 02       		.byte	0x2
 1351 015c 23       		.byte	0x23
 1352 015d 14       		.uleb128 0x14
 1353 015e 06       		.uleb128 0x6
ARM GAS  /var/folders/dt/0wfd0knj7gs46m8vwfzktm600000gn/T//ccBlwGZX.s 			page 26


 1354 015f D9030000 		.4byte	.LASF28
 1355 0163 06       		.byte	0x6
 1356 0164 6E       		.byte	0x6e
 1357 0165 76040000 		.4byte	0x476
 1358 0169 02       		.byte	0x2
 1359 016a 23       		.byte	0x23
 1360 016b 18       		.uleb128 0x18
 1361 016c 06       		.uleb128 0x6
 1362 016d 1F010000 		.4byte	.LASF29
 1363 0171 06       		.byte	0x6
 1364 0172 74       		.byte	0x74
 1365 0173 88040000 		.4byte	0x488
 1366 0177 02       		.byte	0x2
 1367 0178 23       		.byte	0x23
 1368 0179 1C       		.uleb128 0x1c
 1369 017a 06       		.uleb128 0x6
 1370 017b 87020000 		.4byte	.LASF30
 1371 017f 06       		.byte	0x6
 1372 0180 79       		.byte	0x79
 1373 0181 A6000000 		.4byte	0xa6
 1374 0185 02       		.byte	0x2
 1375 0186 23       		.byte	0x23
 1376 0187 20       		.uleb128 0x20
 1377 0188 06       		.uleb128 0x6
 1378 0189 A4020000 		.4byte	.LASF31
 1379 018d 06       		.byte	0x6
 1380 018e 7D       		.byte	0x7d
 1381 018f 9B000000 		.4byte	0x9b
 1382 0193 02       		.byte	0x2
 1383 0194 23       		.byte	0x23
 1384 0195 21       		.uleb128 0x21
 1385 0196 06       		.uleb128 0x6
 1386 0197 A7030000 		.4byte	.LASF32
 1387 019b 06       		.byte	0x6
 1388 019c 82       		.byte	0x82
 1389 019d B1000000 		.4byte	0xb1
 1390 01a1 02       		.byte	0x2
 1391 01a2 23       		.byte	0x23
 1392 01a3 22       		.uleb128 0x22
 1393 01a4 06       		.uleb128 0x6
 1394 01a5 6B030000 		.4byte	.LASF33
 1395 01a9 06       		.byte	0x6
 1396 01aa 89       		.byte	0x89
 1397 01ab 4A030000 		.4byte	0x34a
 1398 01af 02       		.byte	0x2
 1399 01b0 23       		.byte	0x23
 1400 01b1 24       		.uleb128 0x24
 1401 01b2 07       		.uleb128 0x7
 1402 01b3 705F7500 		.ascii	"p_u\000"
 1403 01b7 06       		.byte	0x6
 1404 01b8 AE       		.byte	0xae
 1405 01b9 41040000 		.4byte	0x441
 1406 01bd 02       		.byte	0x2
 1407 01be 23       		.byte	0x23
 1408 01bf 28       		.uleb128 0x28
 1409 01c0 06       		.uleb128 0x6
 1410 01c1 0D040000 		.4byte	.LASF34
ARM GAS  /var/folders/dt/0wfd0knj7gs46m8vwfzktm600000gn/T//ccBlwGZX.s 			page 27


 1411 01c5 06       		.byte	0x6
 1412 01c6 B3       		.byte	0xb3
 1413 01c7 70020000 		.4byte	0x270
 1414 01cb 02       		.byte	0x2
 1415 01cc 23       		.byte	0x23
 1416 01cd 2C       		.uleb128 0x2c
 1417 01ce 06       		.uleb128 0x6
 1418 01cf 85030000 		.4byte	.LASF35
 1419 01d3 06       		.byte	0x6
 1420 01d4 B9       		.byte	0xb9
 1421 01d5 4E020000 		.4byte	0x24e
 1422 01d9 02       		.byte	0x2
 1423 01da 23       		.byte	0x23
 1424 01db 30       		.uleb128 0x30
 1425 01dc 06       		.uleb128 0x6
 1426 01dd 00000000 		.4byte	.LASF36
 1427 01e1 06       		.byte	0x6
 1428 01e2 BD       		.byte	0xbd
 1429 01e3 C7000000 		.4byte	0xc7
 1430 01e7 02       		.byte	0x2
 1431 01e8 23       		.byte	0x23
 1432 01e9 38       		.uleb128 0x38
 1433 01ea 06       		.uleb128 0x6
 1434 01eb CC020000 		.4byte	.LASF37
 1435 01ef 06       		.byte	0x6
 1436 01f0 C3       		.byte	0xc3
 1437 01f1 D2000000 		.4byte	0xd2
 1438 01f5 02       		.byte	0x2
 1439 01f6 23       		.byte	0x23
 1440 01f7 3C       		.uleb128 0x3c
 1441 01f8 06       		.uleb128 0x6
 1442 01f9 73020000 		.4byte	.LASF38
 1443 01fd 06       		.byte	0x6
 1444 01fe CA       		.byte	0xca
 1445 01ff 8E040000 		.4byte	0x48e
 1446 0203 02       		.byte	0x2
 1447 0204 23       		.byte	0x23
 1448 0205 40       		.uleb128 0x40
 1449 0206 06       		.uleb128 0x6
 1450 0207 28030000 		.4byte	.LASF39
 1451 020b 06       		.byte	0x6
 1452 020c CE       		.byte	0xce
 1453 020d BC000000 		.4byte	0xbc
 1454 0211 02       		.byte	0x2
 1455 0212 23       		.byte	0x23
 1456 0213 44       		.uleb128 0x44
 1457 0214 06       		.uleb128 0x6
 1458 0215 9D000000 		.4byte	.LASF40
 1459 0219 06       		.byte	0x6
 1460 021a D4       		.byte	0xd4
 1461 021b 86020000 		.4byte	0x286
 1462 021f 02       		.byte	0x2
 1463 0220 23       		.byte	0x23
 1464 0221 48       		.uleb128 0x48
 1465 0222 00       		.byte	0
 1466 0223 08       		.uleb128 0x8
 1467 0224 08       		.byte	0x8
ARM GAS  /var/folders/dt/0wfd0knj7gs46m8vwfzktm600000gn/T//ccBlwGZX.s 			page 28


 1468 0225 05       		.byte	0x5
 1469 0226 61       		.byte	0x61
 1470 0227 48020000 		.4byte	0x248
 1471 022b 06       		.uleb128 0x6
 1472 022c 9D020000 		.4byte	.LASF22
 1473 0230 05       		.byte	0x5
 1474 0231 62       		.byte	0x62
 1475 0232 48020000 		.4byte	0x248
 1476 0236 02       		.byte	0x2
 1477 0237 23       		.byte	0x23
 1478 0238 00       		.uleb128 0
 1479 0239 06       		.uleb128 0x6
 1480 023a 4E020000 		.4byte	.LASF23
 1481 023e 05       		.byte	0x5
 1482 023f 64       		.byte	0x64
 1483 0240 48020000 		.4byte	0x248
 1484 0244 02       		.byte	0x2
 1485 0245 23       		.byte	0x23
 1486 0246 04       		.uleb128 0x4
 1487 0247 00       		.byte	0
 1488 0248 09       		.uleb128 0x9
 1489 0249 04       		.byte	0x4
 1490 024a F3000000 		.4byte	0xf3
 1491 024e 04       		.uleb128 0x4
 1492 024f 16020000 		.4byte	.LASF41
 1493 0253 05       		.byte	0x5
 1494 0254 66       		.byte	0x66
 1495 0255 23020000 		.4byte	0x223
 1496 0259 08       		.uleb128 0x8
 1497 025a 04       		.byte	0x4
 1498 025b 05       		.byte	0x5
 1499 025c 6B       		.byte	0x6b
 1500 025d 70020000 		.4byte	0x270
 1501 0261 06       		.uleb128 0x6
 1502 0262 9D020000 		.4byte	.LASF22
 1503 0266 05       		.byte	0x5
 1504 0267 6D       		.byte	0x6d
 1505 0268 48020000 		.4byte	0x248
 1506 026c 02       		.byte	0x2
 1507 026d 23       		.byte	0x23
 1508 026e 00       		.uleb128 0
 1509 026f 00       		.byte	0
 1510 0270 04       		.uleb128 0x4
 1511 0271 B6010000 		.4byte	.LASF42
 1512 0275 05       		.byte	0x5
 1513 0276 70       		.byte	0x70
 1514 0277 59020000 		.4byte	0x259
 1515 027b 04       		.uleb128 0x4
 1516 027c 10010000 		.4byte	.LASF43
 1517 0280 07       		.byte	0x7
 1518 0281 D7       		.byte	0xd7
 1519 0282 86020000 		.4byte	0x286
 1520 0286 0A       		.uleb128 0xa
 1521 0287 04       		.byte	0x4
 1522 0288 04       		.uleb128 0x4
 1523 0289 D4010000 		.4byte	.LASF44
 1524 028d 07       		.byte	0x7
ARM GAS  /var/folders/dt/0wfd0knj7gs46m8vwfzktm600000gn/T//ccBlwGZX.s 			page 29


 1525 028e DD       		.byte	0xdd
 1526 028f 89000000 		.4byte	0x89
 1527 0293 05       		.uleb128 0x5
 1528 0294 7E030000 		.4byte	.LASF45
 1529 0298 24       		.byte	0x24
 1530 0299 07       		.byte	0x7
 1531 029a FE       		.byte	0xfe
 1532 029b 20030000 		.4byte	0x320
 1533 029f 0B       		.uleb128 0xb
 1534 02a0 723400   		.ascii	"r4\000"
 1535 02a3 07       		.byte	0x7
 1536 02a4 1101     		.2byte	0x111
 1537 02a6 7B020000 		.4byte	0x27b
 1538 02aa 02       		.byte	0x2
 1539 02ab 23       		.byte	0x23
 1540 02ac 00       		.uleb128 0
 1541 02ad 0B       		.uleb128 0xb
 1542 02ae 723500   		.ascii	"r5\000"
 1543 02b1 07       		.byte	0x7
 1544 02b2 1201     		.2byte	0x112
 1545 02b4 7B020000 		.4byte	0x27b
 1546 02b8 02       		.byte	0x2
 1547 02b9 23       		.byte	0x23
 1548 02ba 04       		.uleb128 0x4
 1549 02bb 0B       		.uleb128 0xb
 1550 02bc 723600   		.ascii	"r6\000"
 1551 02bf 07       		.byte	0x7
 1552 02c0 1301     		.2byte	0x113
 1553 02c2 7B020000 		.4byte	0x27b
 1554 02c6 02       		.byte	0x2
 1555 02c7 23       		.byte	0x23
 1556 02c8 08       		.uleb128 0x8
 1557 02c9 0B       		.uleb128 0xb
 1558 02ca 723700   		.ascii	"r7\000"
 1559 02cd 07       		.byte	0x7
 1560 02ce 1401     		.2byte	0x114
 1561 02d0 7B020000 		.4byte	0x27b
 1562 02d4 02       		.byte	0x2
 1563 02d5 23       		.byte	0x23
 1564 02d6 0C       		.uleb128 0xc
 1565 02d7 0B       		.uleb128 0xb
 1566 02d8 723800   		.ascii	"r8\000"
 1567 02db 07       		.byte	0x7
 1568 02dc 1501     		.2byte	0x115
 1569 02de 7B020000 		.4byte	0x27b
 1570 02e2 02       		.byte	0x2
 1571 02e3 23       		.byte	0x23
 1572 02e4 10       		.uleb128 0x10
 1573 02e5 0B       		.uleb128 0xb
 1574 02e6 723900   		.ascii	"r9\000"
 1575 02e9 07       		.byte	0x7
 1576 02ea 1601     		.2byte	0x116
 1577 02ec 7B020000 		.4byte	0x27b
 1578 02f0 02       		.byte	0x2
 1579 02f1 23       		.byte	0x23
 1580 02f2 14       		.uleb128 0x14
 1581 02f3 0B       		.uleb128 0xb
ARM GAS  /var/folders/dt/0wfd0knj7gs46m8vwfzktm600000gn/T//ccBlwGZX.s 			page 30


 1582 02f4 72313000 		.ascii	"r10\000"
 1583 02f8 07       		.byte	0x7
 1584 02f9 1701     		.2byte	0x117
 1585 02fb 7B020000 		.4byte	0x27b
 1586 02ff 02       		.byte	0x2
 1587 0300 23       		.byte	0x23
 1588 0301 18       		.uleb128 0x18
 1589 0302 0B       		.uleb128 0xb
 1590 0303 72313100 		.ascii	"r11\000"
 1591 0307 07       		.byte	0x7
 1592 0308 1801     		.2byte	0x118
 1593 030a 7B020000 		.4byte	0x27b
 1594 030e 02       		.byte	0x2
 1595 030f 23       		.byte	0x23
 1596 0310 1C       		.uleb128 0x1c
 1597 0311 0B       		.uleb128 0xb
 1598 0312 6C7200   		.ascii	"lr\000"
 1599 0315 07       		.byte	0x7
 1600 0316 1901     		.2byte	0x119
 1601 0318 7B020000 		.4byte	0x27b
 1602 031c 02       		.byte	0x2
 1603 031d 23       		.byte	0x23
 1604 031e 20       		.uleb128 0x20
 1605 031f 00       		.byte	0
 1606 0320 0C       		.uleb128 0xc
 1607 0321 60010000 		.4byte	.LASF46
 1608 0325 04       		.byte	0x4
 1609 0326 07       		.byte	0x7
 1610 0327 2301     		.2byte	0x123
 1611 0329 3D030000 		.4byte	0x33d
 1612 032d 0B       		.uleb128 0xb
 1613 032e 72313300 		.ascii	"r13\000"
 1614 0332 07       		.byte	0x7
 1615 0333 2401     		.2byte	0x124
 1616 0335 3D030000 		.4byte	0x33d
 1617 0339 02       		.byte	0x2
 1618 033a 23       		.byte	0x23
 1619 033b 00       		.uleb128 0
 1620 033c 00       		.byte	0
 1621 033d 09       		.uleb128 0x9
 1622 033e 04       		.byte	0x4
 1623 033f 93020000 		.4byte	0x293
 1624 0343 03       		.uleb128 0x3
 1625 0344 04       		.byte	0x4
 1626 0345 07       		.byte	0x7
 1627 0346 F0010000 		.4byte	.LASF47
 1628 034a 0D       		.uleb128 0xd
 1629 034b DD000000 		.4byte	0xdd
 1630 034f 08       		.uleb128 0x8
 1631 0350 20       		.byte	0x20
 1632 0351 08       		.byte	0x8
 1633 0352 5E       		.byte	0x5e
 1634 0353 BA030000 		.4byte	0x3ba
 1635 0357 06       		.uleb128 0x6
 1636 0358 E0020000 		.4byte	.LASF48
 1637 035c 08       		.byte	0x8
 1638 035d 5F       		.byte	0x5f
ARM GAS  /var/folders/dt/0wfd0knj7gs46m8vwfzktm600000gn/T//ccBlwGZX.s 			page 31


 1639 035e 4E020000 		.4byte	0x24e
 1640 0362 02       		.byte	0x2
 1641 0363 23       		.byte	0x23
 1642 0364 00       		.uleb128 0
 1643 0365 06       		.uleb128 0x6
 1644 0366 8F020000 		.4byte	.LASF49
 1645 036a 08       		.byte	0x8
 1646 036b 60       		.byte	0x60
 1647 036c BC000000 		.4byte	0xbc
 1648 0370 02       		.byte	0x2
 1649 0371 23       		.byte	0x23
 1650 0372 08       		.uleb128 0x8
 1651 0373 06       		.uleb128 0x6
 1652 0374 10020000 		.4byte	.LASF50
 1653 0378 08       		.byte	0x8
 1654 0379 62       		.byte	0x62
 1655 037a 20030000 		.4byte	0x320
 1656 037e 02       		.byte	0x2
 1657 037f 23       		.byte	0x23
 1658 0380 0C       		.uleb128 0xc
 1659 0381 06       		.uleb128 0x6
 1660 0382 08010000 		.4byte	.LASF51
 1661 0386 08       		.byte	0x8
 1662 0387 65       		.byte	0x65
 1663 0388 48020000 		.4byte	0x248
 1664 038c 02       		.byte	0x2
 1665 038d 23       		.byte	0x23
 1666 038e 10       		.uleb128 0x10
 1667 038f 06       		.uleb128 0x6
 1668 0390 3E020000 		.4byte	.LASF52
 1669 0394 08       		.byte	0x8
 1670 0395 66       		.byte	0x66
 1671 0396 48020000 		.4byte	0x248
 1672 039a 02       		.byte	0x2
 1673 039b 23       		.byte	0x23
 1674 039c 14       		.uleb128 0x14
 1675 039d 06       		.uleb128 0x6
 1676 039e F5030000 		.4byte	.LASF53
 1677 03a2 08       		.byte	0x8
 1678 03a3 6A       		.byte	0x6a
 1679 03a4 E8000000 		.4byte	0xe8
 1680 03a8 02       		.byte	0x2
 1681 03a9 23       		.byte	0x23
 1682 03aa 18       		.uleb128 0x18
 1683 03ab 06       		.uleb128 0x6
 1684 03ac 34020000 		.4byte	.LASF54
 1685 03b0 08       		.byte	0x8
 1686 03b1 6C       		.byte	0x6c
 1687 03b2 48020000 		.4byte	0x248
 1688 03b6 02       		.byte	0x2
 1689 03b7 23       		.byte	0x23
 1690 03b8 1C       		.uleb128 0x1c
 1691 03b9 00       		.byte	0
 1692 03ba 04       		.uleb128 0x4
 1693 03bb AE030000 		.4byte	.LASF55
 1694 03bf 08       		.byte	0x8
 1695 03c0 6E       		.byte	0x6e
ARM GAS  /var/folders/dt/0wfd0knj7gs46m8vwfzktm600000gn/T//ccBlwGZX.s 			page 32


 1696 03c1 4F030000 		.4byte	0x34f
 1697 03c5 05       		.uleb128 0x5
 1698 03c6 9D030000 		.4byte	.LASF56
 1699 03ca 0C       		.byte	0xc
 1700 03cb 09       		.byte	0x9
 1701 03cc 2C       		.byte	0x2c
 1702 03cd EE030000 		.4byte	0x3ee
 1703 03d1 06       		.uleb128 0x6
 1704 03d2 EF000000 		.4byte	.LASF57
 1705 03d6 09       		.byte	0x9
 1706 03d7 2D       		.byte	0x2d
 1707 03d8 4E020000 		.4byte	0x24e
 1708 03dc 02       		.byte	0x2
 1709 03dd 23       		.byte	0x23
 1710 03de 00       		.uleb128 0
 1711 03df 06       		.uleb128 0x6
 1712 03e0 5A010000 		.4byte	.LASF58
 1713 03e4 09       		.byte	0x9
 1714 03e5 2F       		.byte	0x2f
 1715 03e6 E8000000 		.4byte	0xe8
 1716 03ea 02       		.byte	0x2
 1717 03eb 23       		.byte	0x23
 1718 03ec 08       		.uleb128 0x8
 1719 03ed 00       		.byte	0
 1720 03ee 04       		.uleb128 0x4
 1721 03ef 9D030000 		.4byte	.LASF56
 1722 03f3 09       		.byte	0x9
 1723 03f4 30       		.byte	0x30
 1724 03f5 C5030000 		.4byte	0x3c5
 1725 03f9 05       		.uleb128 0x5
 1726 03fa CE010000 		.4byte	.LASF59
 1727 03fe 10       		.byte	0x10
 1728 03ff 0A       		.byte	0xa
 1729 0400 2C       		.byte	0x2c
 1730 0401 30040000 		.4byte	0x430
 1731 0405 06       		.uleb128 0x6
 1732 0406 A5000000 		.4byte	.LASF60
 1733 040a 0A       		.byte	0xa
 1734 040b 2D       		.byte	0x2d
 1735 040c 4E020000 		.4byte	0x24e
 1736 0410 02       		.byte	0x2
 1737 0411 23       		.byte	0x23
 1738 0412 00       		.uleb128 0
 1739 0413 06       		.uleb128 0x6
 1740 0414 FF030000 		.4byte	.LASF61
 1741 0418 0A       		.byte	0xa
 1742 0419 2F       		.byte	0x2f
 1743 041a 48020000 		.4byte	0x248
 1744 041e 02       		.byte	0x2
 1745 041f 23       		.byte	0x23
 1746 0420 08       		.uleb128 0x8
 1747 0421 06       		.uleb128 0x6
 1748 0422 17030000 		.4byte	.LASF62
 1749 0426 0A       		.byte	0xa
 1750 0427 31       		.byte	0x31
 1751 0428 30040000 		.4byte	0x430
 1752 042c 02       		.byte	0x2
ARM GAS  /var/folders/dt/0wfd0knj7gs46m8vwfzktm600000gn/T//ccBlwGZX.s 			page 33


 1753 042d 23       		.byte	0x23
 1754 042e 0C       		.uleb128 0xc
 1755 042f 00       		.byte	0
 1756 0430 09       		.uleb128 0x9
 1757 0431 04       		.byte	0x4
 1758 0432 F9030000 		.4byte	0x3f9
 1759 0436 04       		.uleb128 0x4
 1760 0437 CE010000 		.4byte	.LASF59
 1761 043b 0A       		.byte	0xa
 1762 043c 33       		.byte	0x33
 1763 043d F9030000 		.4byte	0x3f9
 1764 0441 0E       		.uleb128 0xe
 1765 0442 04       		.byte	0x4
 1766 0443 06       		.byte	0x6
 1767 0444 90       		.byte	0x90
 1768 0445 76040000 		.4byte	0x476
 1769 0449 0F       		.uleb128 0xf
 1770 044a 2B000000 		.4byte	.LASF63
 1771 044e 06       		.byte	0x6
 1772 044f 97       		.byte	0x97
 1773 0450 C7000000 		.4byte	0xc7
 1774 0454 0F       		.uleb128 0xf
 1775 0455 52000000 		.4byte	.LASF64
 1776 0459 06       		.byte	0x6
 1777 045a 9E       		.byte	0x9e
 1778 045b C7000000 		.4byte	0xc7
 1779 045f 0F       		.uleb128 0xf
 1780 0460 D2030000 		.4byte	.LASF65
 1781 0464 06       		.byte	0x6
 1782 0465 A5       		.byte	0xa5
 1783 0466 86020000 		.4byte	0x286
 1784 046a 0F       		.uleb128 0xf
 1785 046b 96020000 		.4byte	.LASF66
 1786 046f 06       		.byte	0x6
 1787 0470 AC       		.byte	0xac
 1788 0471 D2000000 		.4byte	0xd2
 1789 0475 00       		.byte	0
 1790 0476 09       		.uleb128 0x9
 1791 0477 04       		.byte	0x4
 1792 0478 7C040000 		.4byte	0x47c
 1793 047c 10       		.uleb128 0x10
 1794 047d 81040000 		.4byte	0x481
 1795 0481 03       		.uleb128 0x3
 1796 0482 01       		.byte	0x1
 1797 0483 08       		.byte	0x8
 1798 0484 F4020000 		.4byte	.LASF67
 1799 0488 09       		.uleb128 0x9
 1800 0489 04       		.byte	0x4
 1801 048a 88020000 		.4byte	0x288
 1802 048e 09       		.uleb128 0x9
 1803 048f 04       		.byte	0x4
 1804 0490 36040000 		.4byte	0x436
 1805 0494 11       		.uleb128 0x11
 1806 0495 72030000 		.4byte	.LASF68
 1807 0499 02       		.byte	0x2
 1808 049a 42       		.byte	0x42
 1809 049b 01       		.byte	0x1
ARM GAS  /var/folders/dt/0wfd0knj7gs46m8vwfzktm600000gn/T//ccBlwGZX.s 			page 34


 1810 049c 48020000 		.4byte	0x248
 1811 04a0 03       		.byte	0x3
 1812 04a1 BB040000 		.4byte	0x4bb
 1813 04a5 12       		.uleb128 0x12
 1814 04a6 74717000 		.ascii	"tqp\000"
 1815 04aa 02       		.byte	0x2
 1816 04ab 42       		.byte	0x42
 1817 04ac BB040000 		.4byte	0x4bb
 1818 04b0 13       		.uleb128 0x13
 1819 04b1 747000   		.ascii	"tp\000"
 1820 04b4 02       		.byte	0x2
 1821 04b5 43       		.byte	0x43
 1822 04b6 48020000 		.4byte	0x248
 1823 04ba 00       		.byte	0
 1824 04bb 09       		.uleb128 0x9
 1825 04bc 04       		.byte	0x4
 1826 04bd 4E020000 		.4byte	0x24e
 1827 04c1 14       		.uleb128 0x14
 1828 04c2 06000000 		.4byte	.LASF94
 1829 04c6 02       		.byte	0x2
 1830 04c7 34       		.byte	0x34
 1831 04c8 01       		.byte	0x1
 1832 04c9 03       		.byte	0x3
 1833 04ca E4040000 		.4byte	0x4e4
 1834 04ce 12       		.uleb128 0x12
 1835 04cf 747000   		.ascii	"tp\000"
 1836 04d2 02       		.byte	0x2
 1837 04d3 34       		.byte	0x34
 1838 04d4 48020000 		.4byte	0x248
 1839 04d8 12       		.uleb128 0x12
 1840 04d9 74717000 		.ascii	"tqp\000"
 1841 04dd 02       		.byte	0x2
 1842 04de 34       		.byte	0x34
 1843 04df BB040000 		.4byte	0x4bb
 1844 04e3 00       		.byte	0
 1845 04e4 11       		.uleb128 0x11
 1846 04e5 F9020000 		.4byte	.LASF69
 1847 04e9 02       		.byte	0x2
 1848 04ea 3B       		.byte	0x3b
 1849 04eb 01       		.byte	0x1
 1850 04ec 48020000 		.4byte	0x248
 1851 04f0 03       		.byte	0x3
 1852 04f1 0B050000 		.4byte	0x50b
 1853 04f5 12       		.uleb128 0x12
 1854 04f6 74717000 		.ascii	"tqp\000"
 1855 04fa 02       		.byte	0x2
 1856 04fb 3B       		.byte	0x3b
 1857 04fc BB040000 		.4byte	0x4bb
 1858 0500 13       		.uleb128 0x13
 1859 0501 747000   		.ascii	"tp\000"
 1860 0504 02       		.byte	0x2
 1861 0505 3C       		.byte	0x3c
 1862 0506 48020000 		.4byte	0x248
 1863 050a 00       		.byte	0
 1864 050b 15       		.uleb128 0x15
 1865 050c 01       		.byte	0x1
 1866 050d 17040000 		.4byte	.LASF70
ARM GAS  /var/folders/dt/0wfd0knj7gs46m8vwfzktm600000gn/T//ccBlwGZX.s 			page 35


 1867 0511 01       		.byte	0x1
 1868 0512 56       		.byte	0x56
 1869 0513 01       		.byte	0x1
 1870 0514 00000000 		.4byte	.LFB7
 1871 0518 28000000 		.4byte	.LFE7
 1872 051c 00000000 		.4byte	.LLST0
 1873 0520 01       		.byte	0x1
 1874 0521 54050000 		.4byte	0x554
 1875 0525 16       		.uleb128 0x16
 1876 0526 737000   		.ascii	"sp\000"
 1877 0529 01       		.byte	0x1
 1878 052a 56       		.byte	0x56
 1879 052b 54050000 		.4byte	0x554
 1880 052f 20000000 		.4byte	.LLST1
 1881 0533 16       		.uleb128 0x16
 1882 0534 6E00     		.ascii	"n\000"
 1883 0536 01       		.byte	0x1
 1884 0537 56       		.byte	0x56
 1885 0538 E8000000 		.4byte	0xe8
 1886 053c 3E000000 		.4byte	.LLST2
 1887 0540 17       		.uleb128 0x17
 1888 0541 1A000000 		.4byte	.LVL2
 1889 0545 F80C0000 		.4byte	0xcf8
 1890 0549 18       		.uleb128 0x18
 1891 054a 01       		.byte	0x1
 1892 054b 50       		.byte	0x50
 1893 054c 05       		.byte	0x5
 1894 054d 03       		.byte	0x3
 1895 054e 00000000 		.4byte	.LC0
 1896 0552 00       		.byte	0
 1897 0553 00       		.byte	0
 1898 0554 09       		.uleb128 0x9
 1899 0555 04       		.byte	0x4
 1900 0556 EE030000 		.4byte	0x3ee
 1901 055a 15       		.uleb128 0x15
 1902 055b 01       		.byte	0x1
 1903 055c B8030000 		.4byte	.LASF71
 1904 0560 01       		.byte	0x1
 1905 0561 88       		.byte	0x88
 1906 0562 01       		.byte	0x1
 1907 0563 00000000 		.4byte	.LFB9
 1908 0567 64000000 		.4byte	.LFE9
 1909 056b 5C000000 		.4byte	.LLST3
 1910 056f 01       		.byte	0x1
 1911 0570 07060000 		.4byte	0x607
 1912 0574 16       		.uleb128 0x16
 1913 0575 737000   		.ascii	"sp\000"
 1914 0578 01       		.byte	0x1
 1915 0579 88       		.byte	0x88
 1916 057a 54050000 		.4byte	0x554
 1917 057e 7C000000 		.4byte	.LLST4
 1918 0582 16       		.uleb128 0x16
 1919 0583 6E00     		.ascii	"n\000"
 1920 0585 01       		.byte	0x1
 1921 0586 88       		.byte	0x88
 1922 0587 E8000000 		.4byte	0xe8
 1923 058b 9A000000 		.4byte	.LLST5
ARM GAS  /var/folders/dt/0wfd0knj7gs46m8vwfzktm600000gn/T//ccBlwGZX.s 			page 36


 1924 058f 19       		.uleb128 0x19
 1925 0590 636E7400 		.ascii	"cnt\000"
 1926 0594 01       		.byte	0x1
 1927 0595 89       		.byte	0x89
 1928 0596 E8000000 		.4byte	0xe8
 1929 059a D1000000 		.4byte	.LLST6
 1930 059e 1A       		.uleb128 0x1a
 1931 059f 94040000 		.4byte	0x494
 1932 05a3 38000000 		.4byte	.LBB24
 1933 05a7 00000000 		.4byte	.Ldebug_ranges0+0
 1934 05ab 01       		.byte	0x1
 1935 05ac 95       		.byte	0x95
 1936 05ad CA050000 		.4byte	0x5ca
 1937 05b1 1B       		.uleb128 0x1b
 1938 05b2 A5040000 		.4byte	0x4a5
 1939 05b6 14010000 		.4byte	.LLST7
 1940 05ba 1C       		.uleb128 0x1c
 1941 05bb 18000000 		.4byte	.Ldebug_ranges0+0x18
 1942 05bf 1D       		.uleb128 0x1d
 1943 05c0 B0040000 		.4byte	0x4b0
 1944 05c4 27010000 		.4byte	.LLST8
 1945 05c8 00       		.byte	0
 1946 05c9 00       		.byte	0
 1947 05ca 1E       		.uleb128 0x1e
 1948 05cb 0A000000 		.4byte	.LVL4
 1949 05cf 120D0000 		.4byte	0xd12
 1950 05d3 1F       		.uleb128 0x1f
 1951 05d4 2A000000 		.4byte	.LVL5
 1952 05d8 F80C0000 		.4byte	0xcf8
 1953 05dc EA050000 		.4byte	0x5ea
 1954 05e0 18       		.uleb128 0x18
 1955 05e1 01       		.byte	0x1
 1956 05e2 50       		.byte	0x50
 1957 05e3 05       		.byte	0x5
 1958 05e4 03       		.byte	0x3
 1959 05e5 20000000 		.4byte	.LC2
 1960 05e9 00       		.byte	0
 1961 05ea 1E       		.uleb128 0x1e
 1962 05eb 46000000 		.4byte	.LVL12
 1963 05ef 1C0D0000 		.4byte	0xd1c
 1964 05f3 17       		.uleb128 0x17
 1965 05f4 5A000000 		.4byte	.LVL16
 1966 05f8 F80C0000 		.4byte	0xcf8
 1967 05fc 18       		.uleb128 0x18
 1968 05fd 01       		.byte	0x1
 1969 05fe 50       		.byte	0x50
 1970 05ff 05       		.byte	0x5
 1971 0600 03       		.byte	0x3
 1972 0601 10000000 		.4byte	.LC1
 1973 0605 00       		.byte	0
 1974 0606 00       		.byte	0
 1975 0607 15       		.uleb128 0x15
 1976 0608 01       		.byte	0x1
 1977 0609 7B010000 		.4byte	.LASF72
 1978 060d 01       		.byte	0x1
 1979 060e 6D       		.byte	0x6d
 1980 060f 01       		.byte	0x1
ARM GAS  /var/folders/dt/0wfd0knj7gs46m8vwfzktm600000gn/T//ccBlwGZX.s 			page 37


 1981 0610 00000000 		.4byte	.LFB8
 1982 0614 28000000 		.4byte	.LFE8
 1983 0618 3A010000 		.4byte	.LLST9
 1984 061c 01       		.byte	0x1
 1985 061d AC060000 		.4byte	0x6ac
 1986 0621 16       		.uleb128 0x16
 1987 0622 737000   		.ascii	"sp\000"
 1988 0625 01       		.byte	0x1
 1989 0626 6D       		.byte	0x6d
 1990 0627 54050000 		.4byte	0x554
 1991 062b 5A010000 		.4byte	.LLST10
 1992 062f 16       		.uleb128 0x16
 1993 0630 6E00     		.ascii	"n\000"
 1994 0632 01       		.byte	0x1
 1995 0633 6D       		.byte	0x6d
 1996 0634 E8000000 		.4byte	0xe8
 1997 0638 78010000 		.4byte	.LLST11
 1998 063c 20       		.uleb128 0x20
 1999 063d 06000000 		.4byte	.LBB28
 2000 0641 0C000000 		.4byte	.LBE28
 2001 0645 59060000 		.4byte	0x659
 2002 0649 19       		.uleb128 0x19
 2003 064a 746D7000 		.ascii	"tmp\000"
 2004 064e 01       		.byte	0x1
 2005 064f 6F       		.byte	0x6f
 2006 0650 70000000 		.4byte	0x70
 2007 0654 96010000 		.4byte	.LLST12
 2008 0658 00       		.byte	0
 2009 0659 20       		.uleb128 0x20
 2010 065a 20000000 		.4byte	.LBB29
 2011 065e 28000000 		.4byte	.LBE29
 2012 0662 76060000 		.4byte	0x676
 2013 0666 19       		.uleb128 0x19
 2014 0667 746D7000 		.ascii	"tmp\000"
 2015 066b 01       		.byte	0x1
 2016 066c 72       		.byte	0x72
 2017 066d 70000000 		.4byte	0x70
 2018 0671 A9010000 		.4byte	.LLST13
 2019 0675 00       		.byte	0
 2020 0676 1E       		.uleb128 0x1e
 2021 0677 10000000 		.4byte	.LVL20
 2022 067b 340D0000 		.4byte	0xd34
 2023 067f 1F       		.uleb128 0x1f
 2024 0680 18000000 		.4byte	.LVL21
 2025 0684 5A050000 		.4byte	0x55a
 2026 0688 99060000 		.4byte	0x699
 2027 068c 18       		.uleb128 0x18
 2028 068d 01       		.byte	0x1
 2029 068e 51       		.byte	0x51
 2030 068f 02       		.byte	0x2
 2031 0690 74       		.byte	0x74
 2032 0691 00       		.sleb128 0
 2033 0692 18       		.uleb128 0x18
 2034 0693 01       		.byte	0x1
 2035 0694 50       		.byte	0x50
 2036 0695 02       		.byte	0x2
 2037 0696 75       		.byte	0x75
ARM GAS  /var/folders/dt/0wfd0knj7gs46m8vwfzktm600000gn/T//ccBlwGZX.s 			page 38


 2038 0697 00       		.sleb128 0
 2039 0698 00       		.byte	0
 2040 0699 1E       		.uleb128 0x1e
 2041 069a 1C000000 		.4byte	.LVL22
 2042 069e 3E0D0000 		.4byte	0xd3e
 2043 06a2 1E       		.uleb128 0x1e
 2044 06a3 20000000 		.4byte	.LVL23
 2045 06a7 480D0000 		.4byte	0xd48
 2046 06ab 00       		.byte	0
 2047 06ac 21       		.uleb128 0x21
 2048 06ad 01       		.byte	0x1
 2049 06ae AC020000 		.4byte	.LASF73
 2050 06b2 01       		.byte	0x1
 2051 06b3 B9       		.byte	0xb9
 2052 06b4 01       		.byte	0x1
 2053 06b5 C7000000 		.4byte	0xc7
 2054 06b9 00000000 		.4byte	.LFB11
 2055 06bd 68000000 		.4byte	.LFE11
 2056 06c1 BC010000 		.4byte	.LLST14
 2057 06c5 01       		.byte	0x1
 2058 06c6 45070000 		.4byte	0x745
 2059 06ca 16       		.uleb128 0x16
 2060 06cb 737000   		.ascii	"sp\000"
 2061 06ce 01       		.byte	0x1
 2062 06cf B9       		.byte	0xb9
 2063 06d0 54050000 		.4byte	0x554
 2064 06d4 DC010000 		.4byte	.LLST15
 2065 06d8 22       		.uleb128 0x22
 2066 06d9 C1040000 		.4byte	0x4c1
 2067 06dd 3E000000 		.4byte	.LBB30
 2068 06e1 48000000 		.4byte	.LBE30
 2069 06e5 01       		.byte	0x1
 2070 06e6 C4       		.byte	0xc4
 2071 06e7 FE060000 		.4byte	0x6fe
 2072 06eb 1B       		.uleb128 0x1b
 2073 06ec D8040000 		.4byte	0x4d8
 2074 06f0 FA010000 		.4byte	.LLST16
 2075 06f4 1B       		.uleb128 0x1b
 2076 06f5 CE040000 		.4byte	0x4ce
 2077 06f9 19020000 		.4byte	.LLST17
 2078 06fd 00       		.byte	0
 2079 06fe 1E       		.uleb128 0x1e
 2080 06ff 08000000 		.4byte	.LVL27
 2081 0703 520D0000 		.4byte	0xd52
 2082 0707 1F       		.uleb128 0x1f
 2083 0708 1C000000 		.4byte	.LVL28
 2084 070c F80C0000 		.4byte	0xcf8
 2085 0710 1E070000 		.4byte	0x71e
 2086 0714 18       		.uleb128 0x18
 2087 0715 01       		.byte	0x1
 2088 0716 50       		.byte	0x50
 2089 0717 05       		.byte	0x5
 2090 0718 03       		.byte	0x3
 2091 0719 44000000 		.4byte	.LC4
 2092 071d 00       		.byte	0
 2093 071e 1F       		.uleb128 0x1f
 2094 071f 4C000000 		.4byte	.LVL30
ARM GAS  /var/folders/dt/0wfd0knj7gs46m8vwfzktm600000gn/T//ccBlwGZX.s 			page 39


 2095 0723 5C0D0000 		.4byte	0xd5c
 2096 0727 31070000 		.4byte	0x731
 2097 072b 18       		.uleb128 0x18
 2098 072c 01       		.byte	0x1
 2099 072d 50       		.byte	0x50
 2100 072e 01       		.byte	0x1
 2101 072f 33       		.byte	0x33
 2102 0730 00       		.byte	0
 2103 0731 17       		.uleb128 0x17
 2104 0732 58000000 		.4byte	.LVL32
 2105 0736 F80C0000 		.4byte	0xcf8
 2106 073a 18       		.uleb128 0x18
 2107 073b 01       		.byte	0x1
 2108 073c 50       		.byte	0x50
 2109 073d 05       		.byte	0x5
 2110 073e 03       		.byte	0x3
 2111 073f 34000000 		.4byte	.LC3
 2112 0743 00       		.byte	0
 2113 0744 00       		.byte	0
 2114 0745 21       		.uleb128 0x21
 2115 0746 01       		.byte	0x1
 2116 0747 33030000 		.4byte	.LASF74
 2117 074b 01       		.byte	0x1
 2118 074c A4       		.byte	0xa4
 2119 074d 01       		.byte	0x1
 2120 074e C7000000 		.4byte	0xc7
 2121 0752 00000000 		.4byte	.LFB10
 2122 0756 24000000 		.4byte	.LFE10
 2123 075a 2C020000 		.4byte	.LLST18
 2124 075e 01       		.byte	0x1
 2125 075f DD070000 		.4byte	0x7dd
 2126 0763 16       		.uleb128 0x16
 2127 0764 737000   		.ascii	"sp\000"
 2128 0767 01       		.byte	0x1
 2129 0768 A4       		.byte	0xa4
 2130 0769 54050000 		.4byte	0x554
 2131 076d 4C020000 		.4byte	.LLST19
 2132 0771 19       		.uleb128 0x19
 2133 0772 6D736700 		.ascii	"msg\000"
 2134 0776 01       		.byte	0x1
 2135 0777 A5       		.byte	0xa5
 2136 0778 C7000000 		.4byte	0xc7
 2137 077c 78020000 		.4byte	.LLST20
 2138 0780 23       		.uleb128 0x23
 2139 0781 30000000 		.4byte	.Ldebug_ranges0+0x30
 2140 0785 99070000 		.4byte	0x799
 2141 0789 19       		.uleb128 0x19
 2142 078a 746D7000 		.ascii	"tmp\000"
 2143 078e 01       		.byte	0x1
 2144 078f A7       		.byte	0xa7
 2145 0790 70000000 		.4byte	0x70
 2146 0794 96020000 		.4byte	.LLST21
 2147 0798 00       		.byte	0
 2148 0799 20       		.uleb128 0x20
 2149 079a 1A000000 		.4byte	.LBB34
 2150 079e 20000000 		.4byte	.LBE34
 2151 07a2 B6070000 		.4byte	0x7b6
ARM GAS  /var/folders/dt/0wfd0knj7gs46m8vwfzktm600000gn/T//ccBlwGZX.s 			page 40


 2152 07a6 19       		.uleb128 0x19
 2153 07a7 746D7000 		.ascii	"tmp\000"
 2154 07ab 01       		.byte	0x1
 2155 07ac A9       		.byte	0xa9
 2156 07ad 70000000 		.4byte	0x70
 2157 07b1 A9020000 		.4byte	.LLST22
 2158 07b5 00       		.byte	0
 2159 07b6 1E       		.uleb128 0x1e
 2160 07b7 0E000000 		.4byte	.LVL36
 2161 07bb 340D0000 		.4byte	0xd34
 2162 07bf 1F       		.uleb128 0x1f
 2163 07c0 14000000 		.4byte	.LVL37
 2164 07c4 AC060000 		.4byte	0x6ac
 2165 07c8 D3070000 		.4byte	0x7d3
 2166 07cc 18       		.uleb128 0x18
 2167 07cd 01       		.byte	0x1
 2168 07ce 50       		.byte	0x50
 2169 07cf 02       		.byte	0x2
 2170 07d0 74       		.byte	0x74
 2171 07d1 00       		.sleb128 0
 2172 07d2 00       		.byte	0
 2173 07d3 1E       		.uleb128 0x1e
 2174 07d4 1A000000 		.4byte	.LVL39
 2175 07d8 480D0000 		.4byte	0xd48
 2176 07dc 00       		.byte	0
 2177 07dd 21       		.uleb128 0x21
 2178 07de 01       		.byte	0x1
 2179 07df 05030000 		.4byte	.LASF75
 2180 07e3 01       		.byte	0x1
 2181 07e4 FA       		.byte	0xfa
 2182 07e5 01       		.byte	0x1
 2183 07e6 C7000000 		.4byte	0xc7
 2184 07ea 00000000 		.4byte	.LFB13
 2185 07ee 74000000 		.4byte	.LFE13
 2186 07f2 BC020000 		.4byte	.LLST23
 2187 07f6 01       		.byte	0x1
 2188 07f7 8D080000 		.4byte	0x88d
 2189 07fb 16       		.uleb128 0x16
 2190 07fc 737000   		.ascii	"sp\000"
 2191 07ff 01       		.byte	0x1
 2192 0800 FA       		.byte	0xfa
 2193 0801 54050000 		.4byte	0x554
 2194 0805 DC020000 		.4byte	.LLST24
 2195 0809 24       		.uleb128 0x24
 2196 080a 23020000 		.4byte	.LASF76
 2197 080e 01       		.byte	0x1
 2198 080f FA       		.byte	0xfa
 2199 0810 DD000000 		.4byte	0xdd
 2200 0814 FA020000 		.4byte	.LLST25
 2201 0818 25       		.uleb128 0x25
 2202 0819 C1040000 		.4byte	0x4c1
 2203 081d 46000000 		.4byte	.LBB35
 2204 0821 50000000 		.4byte	.LBE35
 2205 0825 01       		.byte	0x1
 2206 0826 0901     		.2byte	0x109
 2207 0828 3F080000 		.4byte	0x83f
 2208 082c 1B       		.uleb128 0x1b
ARM GAS  /var/folders/dt/0wfd0knj7gs46m8vwfzktm600000gn/T//ccBlwGZX.s 			page 41


 2209 082d D8040000 		.4byte	0x4d8
 2210 0831 18030000 		.4byte	.LLST26
 2211 0835 1B       		.uleb128 0x1b
 2212 0836 CE040000 		.4byte	0x4ce
 2213 083a 37030000 		.4byte	.LLST27
 2214 083e 00       		.byte	0
 2215 083f 1E       		.uleb128 0x1e
 2216 0840 0A000000 		.4byte	.LVL43
 2217 0844 520D0000 		.4byte	0xd52
 2218 0848 1F       		.uleb128 0x1f
 2219 0849 20000000 		.4byte	.LVL44
 2220 084d F80C0000 		.4byte	0xcf8
 2221 0851 5F080000 		.4byte	0x85f
 2222 0855 18       		.uleb128 0x18
 2223 0856 01       		.byte	0x1
 2224 0857 50       		.byte	0x50
 2225 0858 05       		.byte	0x5
 2226 0859 03       		.byte	0x3
 2227 085a 70000000 		.4byte	.LC6
 2228 085e 00       		.byte	0
 2229 085f 26       		.uleb128 0x26
 2230 0860 58000000 		.4byte	.LVL46
 2231 0864 01       		.byte	0x1
 2232 0865 700D0000 		.4byte	0xd70
 2233 0869 79080000 		.4byte	0x879
 2234 086d 18       		.uleb128 0x18
 2235 086e 01       		.byte	0x1
 2236 086f 51       		.byte	0x51
 2237 0870 02       		.byte	0x2
 2238 0871 75       		.byte	0x75
 2239 0872 00       		.sleb128 0
 2240 0873 18       		.uleb128 0x18
 2241 0874 01       		.byte	0x1
 2242 0875 50       		.byte	0x50
 2243 0876 01       		.byte	0x1
 2244 0877 33       		.byte	0x33
 2245 0878 00       		.byte	0
 2246 0879 17       		.uleb128 0x17
 2247 087a 5E000000 		.4byte	.LVL47
 2248 087e F80C0000 		.4byte	0xcf8
 2249 0882 18       		.uleb128 0x18
 2250 0883 01       		.byte	0x1
 2251 0884 50       		.byte	0x50
 2252 0885 05       		.byte	0x5
 2253 0886 03       		.byte	0x3
 2254 0887 58000000 		.4byte	.LC5
 2255 088b 00       		.byte	0
 2256 088c 00       		.byte	0
 2257 088d 21       		.uleb128 0x21
 2258 088e 01       		.byte	0x1
 2259 088f 37010000 		.4byte	.LASF77
 2260 0893 01       		.byte	0x1
 2261 0894 DE       		.byte	0xde
 2262 0895 01       		.byte	0x1
 2263 0896 C7000000 		.4byte	0xc7
 2264 089a 00000000 		.4byte	.LFB12
 2265 089e 28000000 		.4byte	.LFE12
ARM GAS  /var/folders/dt/0wfd0knj7gs46m8vwfzktm600000gn/T//ccBlwGZX.s 			page 42


 2266 08a2 4A030000 		.4byte	.LLST28
 2267 08a6 01       		.byte	0x1
 2268 08a7 3E090000 		.4byte	0x93e
 2269 08ab 16       		.uleb128 0x16
 2270 08ac 737000   		.ascii	"sp\000"
 2271 08af 01       		.byte	0x1
 2272 08b0 DE       		.byte	0xde
 2273 08b1 54050000 		.4byte	0x554
 2274 08b5 6A030000 		.4byte	.LLST29
 2275 08b9 24       		.uleb128 0x24
 2276 08ba 23020000 		.4byte	.LASF76
 2277 08be 01       		.byte	0x1
 2278 08bf DE       		.byte	0xde
 2279 08c0 DD000000 		.4byte	0xdd
 2280 08c4 88030000 		.4byte	.LLST30
 2281 08c8 19       		.uleb128 0x19
 2282 08c9 6D736700 		.ascii	"msg\000"
 2283 08cd 01       		.byte	0x1
 2284 08ce DF       		.byte	0xdf
 2285 08cf C7000000 		.4byte	0xc7
 2286 08d3 B4030000 		.4byte	.LLST31
 2287 08d7 20       		.uleb128 0x20
 2288 08d8 06000000 		.4byte	.LBB37
 2289 08dc 0C000000 		.4byte	.LBE37
 2290 08e0 F4080000 		.4byte	0x8f4
 2291 08e4 19       		.uleb128 0x19
 2292 08e5 746D7000 		.ascii	"tmp\000"
 2293 08e9 01       		.byte	0x1
 2294 08ea E1       		.byte	0xe1
 2295 08eb 70000000 		.4byte	0x70
 2296 08ef D2030000 		.4byte	.LLST32
 2297 08f3 00       		.byte	0
 2298 08f4 20       		.uleb128 0x20
 2299 08f5 1E000000 		.4byte	.LBB38
 2300 08f9 24000000 		.4byte	.LBE38
 2301 08fd 11090000 		.4byte	0x911
 2302 0901 19       		.uleb128 0x19
 2303 0902 746D7000 		.ascii	"tmp\000"
 2304 0906 01       		.byte	0x1
 2305 0907 E3       		.byte	0xe3
 2306 0908 70000000 		.4byte	0x70
 2307 090c E5030000 		.4byte	.LLST33
 2308 0910 00       		.byte	0
 2309 0911 1E       		.uleb128 0x1e
 2310 0912 10000000 		.4byte	.LVL51
 2311 0916 340D0000 		.4byte	0xd34
 2312 091a 1F       		.uleb128 0x1f
 2313 091b 18000000 		.4byte	.LVL52
 2314 091f DD070000 		.4byte	0x7dd
 2315 0923 34090000 		.4byte	0x934
 2316 0927 18       		.uleb128 0x18
 2317 0928 01       		.byte	0x1
 2318 0929 51       		.byte	0x51
 2319 092a 02       		.byte	0x2
 2320 092b 74       		.byte	0x74
 2321 092c 00       		.sleb128 0
 2322 092d 18       		.uleb128 0x18
ARM GAS  /var/folders/dt/0wfd0knj7gs46m8vwfzktm600000gn/T//ccBlwGZX.s 			page 43


 2323 092e 01       		.byte	0x1
 2324 092f 50       		.byte	0x50
 2325 0930 02       		.byte	0x2
 2326 0931 75       		.byte	0x75
 2327 0932 00       		.sleb128 0
 2328 0933 00       		.byte	0
 2329 0934 1E       		.uleb128 0x1e
 2330 0935 1E000000 		.4byte	.LVL54
 2331 0939 480D0000 		.4byte	0xd48
 2332 093d 00       		.byte	0
 2333 093e 27       		.uleb128 0x27
 2334 093f 01       		.byte	0x1
 2335 0940 DB000000 		.4byte	.LASF78
 2336 0944 01       		.byte	0x1
 2337 0945 1601     		.2byte	0x116
 2338 0947 01       		.byte	0x1
 2339 0948 00000000 		.4byte	.LFB14
 2340 094c 60000000 		.4byte	.LFE14
 2341 0950 F8030000 		.4byte	.LLST34
 2342 0954 01       		.byte	0x1
 2343 0955 210A0000 		.4byte	0xa21
 2344 0959 28       		.uleb128 0x28
 2345 095a 737000   		.ascii	"sp\000"
 2346 095d 01       		.byte	0x1
 2347 095e 1601     		.2byte	0x116
 2348 0960 54050000 		.4byte	0x554
 2349 0964 18040000 		.4byte	.LLST35
 2350 0968 20       		.uleb128 0x20
 2351 0969 18000000 		.4byte	.LBB39
 2352 096d 1E000000 		.4byte	.LBE39
 2353 0971 86090000 		.4byte	0x986
 2354 0975 29       		.uleb128 0x29
 2355 0976 746D7000 		.ascii	"tmp\000"
 2356 097a 01       		.byte	0x1
 2357 097b 1E01     		.2byte	0x11e
 2358 097d 70000000 		.4byte	0x70
 2359 0981 4C040000 		.4byte	.LLST36
 2360 0985 00       		.byte	0
 2361 0986 20       		.uleb128 0x20
 2362 0987 30000000 		.4byte	.LBB40
 2363 098b 38000000 		.4byte	.LBE40
 2364 098f A4090000 		.4byte	0x9a4
 2365 0993 29       		.uleb128 0x29
 2366 0994 746D7000 		.ascii	"tmp\000"
 2367 0998 01       		.byte	0x1
 2368 0999 2101     		.2byte	0x121
 2369 099b 70000000 		.4byte	0x70
 2370 099f 5F040000 		.4byte	.LLST37
 2371 09a3 00       		.byte	0
 2372 09a4 2A       		.uleb128 0x2a
 2373 09a5 E4040000 		.4byte	0x4e4
 2374 09a9 3E000000 		.4byte	.LBB41
 2375 09ad 48000000 		.4byte	.Ldebug_ranges0+0x48
 2376 09b1 01       		.byte	0x1
 2377 09b2 2001     		.2byte	0x120
 2378 09b4 D1090000 		.4byte	0x9d1
 2379 09b8 1B       		.uleb128 0x1b
ARM GAS  /var/folders/dt/0wfd0knj7gs46m8vwfzktm600000gn/T//ccBlwGZX.s 			page 44


 2380 09b9 F5040000 		.4byte	0x4f5
 2381 09bd 72040000 		.4byte	.LLST38
 2382 09c1 1C       		.uleb128 0x1c
 2383 09c2 60000000 		.4byte	.Ldebug_ranges0+0x60
 2384 09c6 1D       		.uleb128 0x1d
 2385 09c7 00050000 		.4byte	0x500
 2386 09cb 85040000 		.4byte	.LLST39
 2387 09cf 00       		.byte	0
 2388 09d0 00       		.byte	0
 2389 09d1 1F       		.uleb128 0x1f
 2390 09d2 18000000 		.4byte	.LVL59
 2391 09d6 F80C0000 		.4byte	0xcf8
 2392 09da E8090000 		.4byte	0x9e8
 2393 09de 18       		.uleb128 0x18
 2394 09df 01       		.byte	0x1
 2395 09e0 50       		.byte	0x50
 2396 09e1 05       		.byte	0x5
 2397 09e2 03       		.byte	0x3
 2398 09e3 98000000 		.4byte	.LC8
 2399 09e7 00       		.byte	0
 2400 09e8 1E       		.uleb128 0x1e
 2401 09e9 22000000 		.4byte	.LVL62
 2402 09ed 340D0000 		.4byte	0xd34
 2403 09f1 1E       		.uleb128 0x1e
 2404 09f2 30000000 		.4byte	.LVL63
 2405 09f6 480D0000 		.4byte	0xd48
 2406 09fa 1F       		.uleb128 0x1f
 2407 09fb 4C000000 		.4byte	.LVL69
 2408 09ff 8D0D0000 		.4byte	0xd8d
 2409 0a03 0D0A0000 		.4byte	0xa0d
 2410 0a07 18       		.uleb128 0x18
 2411 0a08 01       		.byte	0x1
 2412 0a09 51       		.byte	0x51
 2413 0a0a 01       		.byte	0x1
 2414 0a0b 30       		.byte	0x30
 2415 0a0c 00       		.byte	0
 2416 0a0d 17       		.uleb128 0x17
 2417 0a0e 54000000 		.4byte	.LVL72
 2418 0a12 F80C0000 		.4byte	0xcf8
 2419 0a16 18       		.uleb128 0x18
 2420 0a17 01       		.byte	0x1
 2421 0a18 50       		.byte	0x50
 2422 0a19 05       		.byte	0x5
 2423 0a1a 03       		.byte	0x3
 2424 0a1b 88000000 		.4byte	.LC7
 2425 0a1f 00       		.byte	0
 2426 0a20 00       		.byte	0
 2427 0a21 27       		.uleb128 0x27
 2428 0a22 01       		.byte	0x1
 2429 0a23 13000000 		.4byte	.LASF79
 2430 0a27 01       		.byte	0x1
 2431 0a28 2F01     		.2byte	0x12f
 2432 0a2a 01       		.byte	0x1
 2433 0a2b 00000000 		.4byte	.LFB15
 2434 0a2f 5C000000 		.4byte	.LFE15
 2435 0a33 98040000 		.4byte	.LLST40
 2436 0a37 01       		.byte	0x1
ARM GAS  /var/folders/dt/0wfd0knj7gs46m8vwfzktm600000gn/T//ccBlwGZX.s 			page 45


 2437 0a38 CD0A0000 		.4byte	0xacd
 2438 0a3c 28       		.uleb128 0x28
 2439 0a3d 737000   		.ascii	"sp\000"
 2440 0a40 01       		.byte	0x1
 2441 0a41 2F01     		.2byte	0x12f
 2442 0a43 54050000 		.4byte	0x554
 2443 0a47 B8040000 		.4byte	.LLST41
 2444 0a4b 23       		.uleb128 0x23
 2445 0a4c 78000000 		.4byte	.Ldebug_ranges0+0x78
 2446 0a50 990A0000 		.4byte	0xa99
 2447 0a54 2B       		.uleb128 0x2b
 2448 0a55 747000   		.ascii	"tp\000"
 2449 0a58 01       		.byte	0x1
 2450 0a59 3B01     		.2byte	0x13b
 2451 0a5b 48020000 		.4byte	0x248
 2452 0a5f 01       		.byte	0x1
 2453 0a60 53       		.byte	0x53
 2454 0a61 2A       		.uleb128 0x2a
 2455 0a62 E4040000 		.4byte	0x4e4
 2456 0a66 36000000 		.4byte	.LBB46
 2457 0a6a 90000000 		.4byte	.Ldebug_ranges0+0x90
 2458 0a6e 01       		.byte	0x1
 2459 0a6f 3B01     		.2byte	0x13b
 2460 0a71 8E0A0000 		.4byte	0xa8e
 2461 0a75 1B       		.uleb128 0x1b
 2462 0a76 F5040000 		.4byte	0x4f5
 2463 0a7a D6040000 		.4byte	.LLST42
 2464 0a7e 1C       		.uleb128 0x1c
 2465 0a7f A8000000 		.4byte	.Ldebug_ranges0+0xa8
 2466 0a83 1D       		.uleb128 0x1d
 2467 0a84 00050000 		.4byte	0x500
 2468 0a88 E9040000 		.4byte	.LLST43
 2469 0a8c 00       		.byte	0
 2470 0a8d 00       		.byte	0
 2471 0a8e 2C       		.uleb128 0x2c
 2472 0a8f 4C000000 		.4byte	.LVL78
 2473 0a93 01       		.byte	0x1
 2474 0a94 1C0D0000 		.4byte	0xd1c
 2475 0a98 00       		.byte	0
 2476 0a99 1E       		.uleb128 0x1e
 2477 0a9a 08000000 		.4byte	.LVL74
 2478 0a9e 120D0000 		.4byte	0xd12
 2479 0aa2 1F       		.uleb128 0x1f
 2480 0aa3 1E000000 		.4byte	.LVL75
 2481 0aa7 F80C0000 		.4byte	0xcf8
 2482 0aab B90A0000 		.4byte	0xab9
 2483 0aaf 18       		.uleb128 0x18
 2484 0ab0 01       		.byte	0x1
 2485 0ab1 50       		.byte	0x50
 2486 0ab2 05       		.byte	0x5
 2487 0ab3 03       		.byte	0x3
 2488 0ab4 C0000000 		.4byte	.LC10
 2489 0ab8 00       		.byte	0
 2490 0ab9 17       		.uleb128 0x17
 2491 0aba 52000000 		.4byte	.LVL79
 2492 0abe F80C0000 		.4byte	0xcf8
 2493 0ac2 18       		.uleb128 0x18
ARM GAS  /var/folders/dt/0wfd0knj7gs46m8vwfzktm600000gn/T//ccBlwGZX.s 			page 46


 2494 0ac3 01       		.byte	0x1
 2495 0ac4 50       		.byte	0x50
 2496 0ac5 05       		.byte	0x5
 2497 0ac6 03       		.byte	0x3
 2498 0ac7 AC000000 		.4byte	.LC9
 2499 0acb 00       		.byte	0
 2500 0acc 00       		.byte	0
 2501 0acd 27       		.uleb128 0x27
 2502 0ace 01       		.byte	0x1
 2503 0acf 5B000000 		.4byte	.LASF80
 2504 0ad3 01       		.byte	0x1
 2505 0ad4 4E01     		.2byte	0x14e
 2506 0ad6 01       		.byte	0x1
 2507 0ad7 00000000 		.4byte	.LFB16
 2508 0adb 64000000 		.4byte	.LFE16
 2509 0adf FC040000 		.4byte	.LLST44
 2510 0ae3 01       		.byte	0x1
 2511 0ae4 730B0000 		.4byte	0xb73
 2512 0ae8 28       		.uleb128 0x28
 2513 0ae9 737000   		.ascii	"sp\000"
 2514 0aec 01       		.byte	0x1
 2515 0aed 4E01     		.2byte	0x14e
 2516 0aef 54050000 		.4byte	0x554
 2517 0af3 1C050000 		.4byte	.LLST45
 2518 0af7 28       		.uleb128 0x28
 2519 0af8 6E00     		.ascii	"n\000"
 2520 0afa 01       		.byte	0x1
 2521 0afb 4E01     		.2byte	0x14e
 2522 0afd E8000000 		.4byte	0xe8
 2523 0b01 3A050000 		.4byte	.LLST46
 2524 0b05 25       		.uleb128 0x25
 2525 0b06 E4040000 		.4byte	0x4e4
 2526 0b0a 3A000000 		.4byte	.LBB51
 2527 0b0e 42000000 		.4byte	.LBE51
 2528 0b12 01       		.byte	0x1
 2529 0b13 5901     		.2byte	0x159
 2530 0b15 360B0000 		.4byte	0xb36
 2531 0b19 1B       		.uleb128 0x1b
 2532 0b1a F5040000 		.4byte	0x4f5
 2533 0b1e 7B050000 		.4byte	.LLST47
 2534 0b22 2D       		.uleb128 0x2d
 2535 0b23 3A000000 		.4byte	.LBB52
 2536 0b27 42000000 		.4byte	.LBE52
 2537 0b2b 1D       		.uleb128 0x1d
 2538 0b2c 00050000 		.4byte	0x500
 2539 0b30 8E050000 		.4byte	.LLST48
 2540 0b34 00       		.byte	0
 2541 0b35 00       		.byte	0
 2542 0b36 1E       		.uleb128 0x1e
 2543 0b37 0A000000 		.4byte	.LVL81
 2544 0b3b 120D0000 		.4byte	0xd12
 2545 0b3f 1F       		.uleb128 0x1f
 2546 0b40 24000000 		.4byte	.LVL82
 2547 0b44 F80C0000 		.4byte	0xcf8
 2548 0b48 560B0000 		.4byte	0xb56
 2549 0b4c 18       		.uleb128 0x18
 2550 0b4d 01       		.byte	0x1
ARM GAS  /var/folders/dt/0wfd0knj7gs46m8vwfzktm600000gn/T//ccBlwGZX.s 			page 47


 2551 0b4e 50       		.byte	0x50
 2552 0b4f 05       		.byte	0x5
 2553 0b50 03       		.byte	0x3
 2554 0b51 EC000000 		.4byte	.LC12
 2555 0b55 00       		.byte	0
 2556 0b56 1E       		.uleb128 0x1e
 2557 0b57 46000000 		.4byte	.LVL88
 2558 0b5b 1C0D0000 		.4byte	0xd1c
 2559 0b5f 17       		.uleb128 0x17
 2560 0b60 5A000000 		.4byte	.LVL91
 2561 0b64 F80C0000 		.4byte	0xcf8
 2562 0b68 18       		.uleb128 0x18
 2563 0b69 01       		.byte	0x1
 2564 0b6a 50       		.byte	0x50
 2565 0b6b 05       		.byte	0x5
 2566 0b6c 03       		.byte	0x3
 2567 0b6d D4000000 		.4byte	.LC11
 2568 0b71 00       		.byte	0
 2569 0b72 00       		.byte	0
 2570 0b73 2E       		.uleb128 0x2e
 2571 0b74 01       		.byte	0x1
 2572 0b75 8D000000 		.4byte	.LASF81
 2573 0b79 01       		.byte	0x1
 2574 0b7a 6E01     		.2byte	0x16e
 2575 0b7c 01       		.byte	0x1
 2576 0b7d C7000000 		.4byte	0xc7
 2577 0b81 00000000 		.4byte	.LFB17
 2578 0b85 BC000000 		.4byte	.LFE17
 2579 0b89 A1050000 		.4byte	.LLST49
 2580 0b8d 01       		.byte	0x1
 2581 0b8e EB0C0000 		.4byte	0xceb
 2582 0b92 28       		.uleb128 0x28
 2583 0b93 73707300 		.ascii	"sps\000"
 2584 0b97 01       		.byte	0x1
 2585 0b98 6E01     		.2byte	0x16e
 2586 0b9a 54050000 		.4byte	0x554
 2587 0b9e C1050000 		.4byte	.LLST50
 2588 0ba2 28       		.uleb128 0x28
 2589 0ba3 73707700 		.ascii	"spw\000"
 2590 0ba7 01       		.byte	0x1
 2591 0ba8 6E01     		.2byte	0x16e
 2592 0baa 54050000 		.4byte	0x554
 2593 0bae 27060000 		.4byte	.LLST51
 2594 0bb2 29       		.uleb128 0x29
 2595 0bb3 6D736700 		.ascii	"msg\000"
 2596 0bb7 01       		.byte	0x1
 2597 0bb8 6F01     		.2byte	0x16f
 2598 0bba C7000000 		.4byte	0xc7
 2599 0bbe 8D060000 		.4byte	.LLST52
 2600 0bc2 20       		.uleb128 0x20
 2601 0bc3 32000000 		.4byte	.LBB53
 2602 0bc7 38000000 		.4byte	.LBE53
 2603 0bcb E00B0000 		.4byte	0xbe0
 2604 0bcf 29       		.uleb128 0x29
 2605 0bd0 746D7000 		.ascii	"tmp\000"
 2606 0bd4 01       		.byte	0x1
 2607 0bd5 7B01     		.2byte	0x17b
ARM GAS  /var/folders/dt/0wfd0knj7gs46m8vwfzktm600000gn/T//ccBlwGZX.s 			page 48


 2608 0bd7 70000000 		.4byte	0x70
 2609 0bdb B7060000 		.4byte	.LLST53
 2610 0bdf 00       		.byte	0
 2611 0be0 20       		.uleb128 0x20
 2612 0be1 5A000000 		.4byte	.LBB54
 2613 0be5 60000000 		.4byte	.LBE54
 2614 0be9 FE0B0000 		.4byte	0xbfe
 2615 0bed 29       		.uleb128 0x29
 2616 0bee 746D7000 		.ascii	"tmp\000"
 2617 0bf2 01       		.byte	0x1
 2618 0bf3 8901     		.2byte	0x189
 2619 0bf5 70000000 		.4byte	0x70
 2620 0bf9 CA060000 		.4byte	.LLST54
 2621 0bfd 00       		.byte	0
 2622 0bfe 20       		.uleb128 0x20
 2623 0bff 7E000000 		.4byte	.LBB55
 2624 0c03 98000000 		.4byte	.LBE55
 2625 0c07 520C0000 		.4byte	0xc52
 2626 0c0b 29       		.uleb128 0x29
 2627 0c0c 63747000 		.ascii	"ctp\000"
 2628 0c10 01       		.byte	0x1
 2629 0c11 7F01     		.2byte	0x17f
 2630 0c13 48020000 		.4byte	0x248
 2631 0c17 DD060000 		.4byte	.LLST55
 2632 0c1b 2A       		.uleb128 0x2a
 2633 0c1c C1040000 		.4byte	0x4c1
 2634 0c20 80000000 		.4byte	.LBB56
 2635 0c24 C0000000 		.4byte	.Ldebug_ranges0+0xc0
 2636 0c28 01       		.byte	0x1
 2637 0c29 8001     		.2byte	0x180
 2638 0c2b 420C0000 		.4byte	0xc42
 2639 0c2f 1B       		.uleb128 0x1b
 2640 0c30 D8040000 		.4byte	0x4d8
 2641 0c34 F0060000 		.4byte	.LLST56
 2642 0c38 1B       		.uleb128 0x1b
 2643 0c39 CE040000 		.4byte	0x4ce
 2644 0c3d DD060000 		.4byte	.LLST55
 2645 0c41 00       		.byte	0
 2646 0c42 17       		.uleb128 0x17
 2647 0c43 94000000 		.4byte	.LVL109
 2648 0c47 5C0D0000 		.4byte	0xd5c
 2649 0c4b 18       		.uleb128 0x18
 2650 0c4c 01       		.byte	0x1
 2651 0c4d 50       		.byte	0x50
 2652 0c4e 01       		.byte	0x1
 2653 0c4f 33       		.byte	0x33
 2654 0c50 00       		.byte	0
 2655 0c51 00       		.byte	0
 2656 0c52 25       		.uleb128 0x25
 2657 0c53 E4040000 		.4byte	0x4e4
 2658 0c57 98000000 		.4byte	.LBB62
 2659 0c5b A0000000 		.4byte	.LBE62
 2660 0c5f 01       		.byte	0x1
 2661 0c60 7D01     		.2byte	0x17d
 2662 0c62 810C0000 		.4byte	0xc81
 2663 0c66 2F       		.uleb128 0x2f
 2664 0c67 F5040000 		.4byte	0x4f5
ARM GAS  /var/folders/dt/0wfd0knj7gs46m8vwfzktm600000gn/T//ccBlwGZX.s 			page 49


 2665 0c6b 01       		.byte	0x1
 2666 0c6c 55       		.byte	0x55
 2667 0c6d 2D       		.uleb128 0x2d
 2668 0c6e 98000000 		.4byte	.LBB63
 2669 0c72 A0000000 		.4byte	.LBE63
 2670 0c76 1D       		.uleb128 0x1d
 2671 0c77 00050000 		.4byte	0x500
 2672 0c7b 11070000 		.4byte	.LLST58
 2673 0c7f 00       		.byte	0
 2674 0c80 00       		.byte	0
 2675 0c81 1F       		.uleb128 0x1f
 2676 0c82 20000000 		.4byte	.LVL94
 2677 0c86 F80C0000 		.4byte	0xcf8
 2678 0c8a 980C0000 		.4byte	0xc98
 2679 0c8e 18       		.uleb128 0x18
 2680 0c8f 01       		.byte	0x1
 2681 0c90 50       		.byte	0x50
 2682 0c91 05       		.byte	0x5
 2683 0c92 03       		.byte	0x3
 2684 0c93 18010000 		.4byte	.LC14
 2685 0c97 00       		.byte	0
 2686 0c98 1F       		.uleb128 0x1f
 2687 0c99 32000000 		.4byte	.LVL95
 2688 0c9d F80C0000 		.4byte	0xcf8
 2689 0ca1 AF0C0000 		.4byte	0xcaf
 2690 0ca5 18       		.uleb128 0x18
 2691 0ca6 01       		.byte	0x1
 2692 0ca7 50       		.byte	0x50
 2693 0ca8 05       		.byte	0x5
 2694 0ca9 03       		.byte	0x3
 2695 0caa 30010000 		.4byte	.LC15
 2696 0cae 00       		.byte	0
 2697 0caf 1E       		.uleb128 0x1e
 2698 0cb0 3C000000 		.4byte	.LVL98
 2699 0cb4 340D0000 		.4byte	0xd34
 2700 0cb8 1E       		.uleb128 0x1e
 2701 0cb9 54000000 		.4byte	.LVL99
 2702 0cbd 3E0D0000 		.4byte	0xd3e
 2703 0cc1 1E       		.uleb128 0x1e
 2704 0cc2 5A000000 		.4byte	.LVL101
 2705 0cc6 480D0000 		.4byte	0xd48
 2706 0cca 1F       		.uleb128 0x1f
 2707 0ccb 7C000000 		.4byte	.LVL107
 2708 0ccf F80C0000 		.4byte	0xcf8
 2709 0cd3 E10C0000 		.4byte	0xce1
 2710 0cd7 18       		.uleb128 0x18
 2711 0cd8 01       		.byte	0x1
 2712 0cd9 50       		.byte	0x50
 2713 0cda 05       		.byte	0x5
 2714 0cdb 03       		.byte	0x3
 2715 0cdc 04010000 		.4byte	.LC13
 2716 0ce0 00       		.byte	0
 2717 0ce1 1E       		.uleb128 0x1e
 2718 0ce2 A4000000 		.4byte	.LVL113
 2719 0ce6 1C0D0000 		.4byte	0xd1c
 2720 0cea 00       		.byte	0
 2721 0ceb 30       		.uleb128 0x30
ARM GAS  /var/folders/dt/0wfd0knj7gs46m8vwfzktm600000gn/T//ccBlwGZX.s 			page 50


 2722 0cec C4030000 		.4byte	.LASF95
 2723 0cf0 08       		.byte	0x8
 2724 0cf1 72       		.byte	0x72
 2725 0cf2 BA030000 		.4byte	0x3ba
 2726 0cf6 01       		.byte	0x1
 2727 0cf7 01       		.byte	0x1
 2728 0cf8 31       		.uleb128 0x31
 2729 0cf9 01       		.byte	0x1
 2730 0cfa 20000000 		.4byte	.LASF87
 2731 0cfe 0B       		.byte	0xb
 2732 0cff F0       		.byte	0xf0
 2733 0d00 01       		.byte	0x1
 2734 0d01 01       		.byte	0x1
 2735 0d02 0C0D0000 		.4byte	0xd0c
 2736 0d06 32       		.uleb128 0x32
 2737 0d07 0C0D0000 		.4byte	0xd0c
 2738 0d0b 00       		.byte	0
 2739 0d0c 09       		.uleb128 0x9
 2740 0d0d 04       		.byte	0x4
 2741 0d0e 81040000 		.4byte	0x481
 2742 0d12 33       		.uleb128 0x33
 2743 0d13 01       		.byte	0x1
 2744 0d14 8C010000 		.4byte	.LASF82
 2745 0d18 0B       		.byte	0xb
 2746 0d19 E8       		.byte	0xe8
 2747 0d1a 01       		.byte	0x1
 2748 0d1b 01       		.byte	0x1
 2749 0d1c 34       		.uleb128 0x34
 2750 0d1d 01       		.byte	0x1
 2751 0d1e E8020000 		.4byte	.LASF89
 2752 0d22 08       		.byte	0x8
 2753 0d23 93       		.byte	0x93
 2754 0d24 01       		.byte	0x1
 2755 0d25 48020000 		.4byte	0x248
 2756 0d29 01       		.byte	0x1
 2757 0d2a 340D0000 		.4byte	0xd34
 2758 0d2e 32       		.uleb128 0x32
 2759 0d2f 48020000 		.4byte	0x248
 2760 0d33 00       		.byte	0
 2761 0d34 33       		.uleb128 0x33
 2762 0d35 01       		.byte	0x1
 2763 0d36 F9010000 		.4byte	.LASF83
 2764 0d3a 0B       		.byte	0xb
 2765 0d3b E2       		.byte	0xe2
 2766 0d3c 01       		.byte	0x1
 2767 0d3d 01       		.byte	0x1
 2768 0d3e 33       		.uleb128 0x33
 2769 0d3f 01       		.byte	0x1
 2770 0d40 F7000000 		.4byte	.LASF84
 2771 0d44 08       		.byte	0x8
 2772 0d45 9F       		.byte	0x9f
 2773 0d46 01       		.byte	0x1
 2774 0d47 01       		.byte	0x1
 2775 0d48 33       		.uleb128 0x33
 2776 0d49 01       		.byte	0x1
 2777 0d4a DF010000 		.4byte	.LASF85
 2778 0d4e 0B       		.byte	0xb
ARM GAS  /var/folders/dt/0wfd0knj7gs46m8vwfzktm600000gn/T//ccBlwGZX.s 			page 51


 2779 0d4f E3       		.byte	0xe3
 2780 0d50 01       		.byte	0x1
 2781 0d51 01       		.byte	0x1
 2782 0d52 33       		.uleb128 0x33
 2783 0d53 01       		.byte	0x1
 2784 0d54 A5010000 		.4byte	.LASF86
 2785 0d58 0B       		.byte	0xb
 2786 0d59 E9       		.byte	0xe9
 2787 0d5a 01       		.byte	0x1
 2788 0d5b 01       		.byte	0x1
 2789 0d5c 31       		.uleb128 0x31
 2790 0d5d 01       		.byte	0x1
 2791 0d5e BE020000 		.4byte	.LASF88
 2792 0d62 08       		.byte	0x8
 2793 0d63 96       		.byte	0x96
 2794 0d64 01       		.byte	0x1
 2795 0d65 01       		.byte	0x1
 2796 0d66 700D0000 		.4byte	0xd70
 2797 0d6a 32       		.uleb128 0x32
 2798 0d6b A6000000 		.4byte	0xa6
 2799 0d6f 00       		.byte	0
 2800 0d70 34       		.uleb128 0x34
 2801 0d71 01       		.byte	0x1
 2802 0d72 E0030000 		.4byte	.LASF90
 2803 0d76 08       		.byte	0x8
 2804 0d77 99       		.byte	0x99
 2805 0d78 01       		.byte	0x1
 2806 0d79 C7000000 		.4byte	0xc7
 2807 0d7d 01       		.byte	0x1
 2808 0d7e 8D0D0000 		.4byte	0xd8d
 2809 0d82 32       		.uleb128 0x32
 2810 0d83 A6000000 		.4byte	0xa6
 2811 0d87 32       		.uleb128 0x32
 2812 0d88 DD000000 		.4byte	0xdd
 2813 0d8c 00       		.byte	0
 2814 0d8d 35       		.uleb128 0x35
 2815 0d8e 01       		.byte	0x1
 2816 0d8f 90030000 		.4byte	.LASF96
 2817 0d93 08       		.byte	0x8
 2818 0d94 9C       		.byte	0x9c
 2819 0d95 01       		.byte	0x1
 2820 0d96 01       		.byte	0x1
 2821 0d97 32       		.uleb128 0x32
 2822 0d98 48020000 		.4byte	0x248
 2823 0d9c 32       		.uleb128 0x32
 2824 0d9d C7000000 		.4byte	0xc7
 2825 0da1 00       		.byte	0
 2826 0da2 00       		.byte	0
 2827              		.section	.debug_abbrev,"",%progbits
 2828              	.Ldebug_abbrev0:
 2829 0000 01       		.uleb128 0x1
 2830 0001 11       		.uleb128 0x11
 2831 0002 01       		.byte	0x1
 2832 0003 25       		.uleb128 0x25
 2833 0004 0E       		.uleb128 0xe
 2834 0005 13       		.uleb128 0x13
 2835 0006 0B       		.uleb128 0xb
ARM GAS  /var/folders/dt/0wfd0knj7gs46m8vwfzktm600000gn/T//ccBlwGZX.s 			page 52


 2836 0007 03       		.uleb128 0x3
 2837 0008 0E       		.uleb128 0xe
 2838 0009 1B       		.uleb128 0x1b
 2839 000a 0E       		.uleb128 0xe
 2840 000b 55       		.uleb128 0x55
 2841 000c 06       		.uleb128 0x6
 2842 000d 11       		.uleb128 0x11
 2843 000e 01       		.uleb128 0x1
 2844 000f 52       		.uleb128 0x52
 2845 0010 01       		.uleb128 0x1
 2846 0011 10       		.uleb128 0x10
 2847 0012 06       		.uleb128 0x6
 2848 0013 00       		.byte	0
 2849 0014 00       		.byte	0
 2850 0015 02       		.uleb128 0x2
 2851 0016 24       		.uleb128 0x24
 2852 0017 00       		.byte	0
 2853 0018 0B       		.uleb128 0xb
 2854 0019 0B       		.uleb128 0xb
 2855 001a 3E       		.uleb128 0x3e
 2856 001b 0B       		.uleb128 0xb
 2857 001c 03       		.uleb128 0x3
 2858 001d 08       		.uleb128 0x8
 2859 001e 00       		.byte	0
 2860 001f 00       		.byte	0
 2861 0020 03       		.uleb128 0x3
 2862 0021 24       		.uleb128 0x24
 2863 0022 00       		.byte	0
 2864 0023 0B       		.uleb128 0xb
 2865 0024 0B       		.uleb128 0xb
 2866 0025 3E       		.uleb128 0x3e
 2867 0026 0B       		.uleb128 0xb
 2868 0027 03       		.uleb128 0x3
 2869 0028 0E       		.uleb128 0xe
 2870 0029 00       		.byte	0
 2871 002a 00       		.byte	0
 2872 002b 04       		.uleb128 0x4
 2873 002c 16       		.uleb128 0x16
 2874 002d 00       		.byte	0
 2875 002e 03       		.uleb128 0x3
 2876 002f 0E       		.uleb128 0xe
 2877 0030 3A       		.uleb128 0x3a
 2878 0031 0B       		.uleb128 0xb
 2879 0032 3B       		.uleb128 0x3b
 2880 0033 0B       		.uleb128 0xb
 2881 0034 49       		.uleb128 0x49
 2882 0035 13       		.uleb128 0x13
 2883 0036 00       		.byte	0
 2884 0037 00       		.byte	0
 2885 0038 05       		.uleb128 0x5
 2886 0039 13       		.uleb128 0x13
 2887 003a 01       		.byte	0x1
 2888 003b 03       		.uleb128 0x3
 2889 003c 0E       		.uleb128 0xe
 2890 003d 0B       		.uleb128 0xb
 2891 003e 0B       		.uleb128 0xb
 2892 003f 3A       		.uleb128 0x3a
ARM GAS  /var/folders/dt/0wfd0knj7gs46m8vwfzktm600000gn/T//ccBlwGZX.s 			page 53


 2893 0040 0B       		.uleb128 0xb
 2894 0041 3B       		.uleb128 0x3b
 2895 0042 0B       		.uleb128 0xb
 2896 0043 01       		.uleb128 0x1
 2897 0044 13       		.uleb128 0x13
 2898 0045 00       		.byte	0
 2899 0046 00       		.byte	0
 2900 0047 06       		.uleb128 0x6
 2901 0048 0D       		.uleb128 0xd
 2902 0049 00       		.byte	0
 2903 004a 03       		.uleb128 0x3
 2904 004b 0E       		.uleb128 0xe
 2905 004c 3A       		.uleb128 0x3a
 2906 004d 0B       		.uleb128 0xb
 2907 004e 3B       		.uleb128 0x3b
 2908 004f 0B       		.uleb128 0xb
 2909 0050 49       		.uleb128 0x49
 2910 0051 13       		.uleb128 0x13
 2911 0052 38       		.uleb128 0x38
 2912 0053 0A       		.uleb128 0xa
 2913 0054 00       		.byte	0
 2914 0055 00       		.byte	0
 2915 0056 07       		.uleb128 0x7
 2916 0057 0D       		.uleb128 0xd
 2917 0058 00       		.byte	0
 2918 0059 03       		.uleb128 0x3
 2919 005a 08       		.uleb128 0x8
 2920 005b 3A       		.uleb128 0x3a
 2921 005c 0B       		.uleb128 0xb
 2922 005d 3B       		.uleb128 0x3b
 2923 005e 0B       		.uleb128 0xb
 2924 005f 49       		.uleb128 0x49
 2925 0060 13       		.uleb128 0x13
 2926 0061 38       		.uleb128 0x38
 2927 0062 0A       		.uleb128 0xa
 2928 0063 00       		.byte	0
 2929 0064 00       		.byte	0
 2930 0065 08       		.uleb128 0x8
 2931 0066 13       		.uleb128 0x13
 2932 0067 01       		.byte	0x1
 2933 0068 0B       		.uleb128 0xb
 2934 0069 0B       		.uleb128 0xb
 2935 006a 3A       		.uleb128 0x3a
 2936 006b 0B       		.uleb128 0xb
 2937 006c 3B       		.uleb128 0x3b
 2938 006d 0B       		.uleb128 0xb
 2939 006e 01       		.uleb128 0x1
 2940 006f 13       		.uleb128 0x13
 2941 0070 00       		.byte	0
 2942 0071 00       		.byte	0
 2943 0072 09       		.uleb128 0x9
 2944 0073 0F       		.uleb128 0xf
 2945 0074 00       		.byte	0
 2946 0075 0B       		.uleb128 0xb
 2947 0076 0B       		.uleb128 0xb
 2948 0077 49       		.uleb128 0x49
 2949 0078 13       		.uleb128 0x13
ARM GAS  /var/folders/dt/0wfd0knj7gs46m8vwfzktm600000gn/T//ccBlwGZX.s 			page 54


 2950 0079 00       		.byte	0
 2951 007a 00       		.byte	0
 2952 007b 0A       		.uleb128 0xa
 2953 007c 0F       		.uleb128 0xf
 2954 007d 00       		.byte	0
 2955 007e 0B       		.uleb128 0xb
 2956 007f 0B       		.uleb128 0xb
 2957 0080 00       		.byte	0
 2958 0081 00       		.byte	0
 2959 0082 0B       		.uleb128 0xb
 2960 0083 0D       		.uleb128 0xd
 2961 0084 00       		.byte	0
 2962 0085 03       		.uleb128 0x3
 2963 0086 08       		.uleb128 0x8
 2964 0087 3A       		.uleb128 0x3a
 2965 0088 0B       		.uleb128 0xb
 2966 0089 3B       		.uleb128 0x3b
 2967 008a 05       		.uleb128 0x5
 2968 008b 49       		.uleb128 0x49
 2969 008c 13       		.uleb128 0x13
 2970 008d 38       		.uleb128 0x38
 2971 008e 0A       		.uleb128 0xa
 2972 008f 00       		.byte	0
 2973 0090 00       		.byte	0
 2974 0091 0C       		.uleb128 0xc
 2975 0092 13       		.uleb128 0x13
 2976 0093 01       		.byte	0x1
 2977 0094 03       		.uleb128 0x3
 2978 0095 0E       		.uleb128 0xe
 2979 0096 0B       		.uleb128 0xb
 2980 0097 0B       		.uleb128 0xb
 2981 0098 3A       		.uleb128 0x3a
 2982 0099 0B       		.uleb128 0xb
 2983 009a 3B       		.uleb128 0x3b
 2984 009b 05       		.uleb128 0x5
 2985 009c 01       		.uleb128 0x1
 2986 009d 13       		.uleb128 0x13
 2987 009e 00       		.byte	0
 2988 009f 00       		.byte	0
 2989 00a0 0D       		.uleb128 0xd
 2990 00a1 35       		.uleb128 0x35
 2991 00a2 00       		.byte	0
 2992 00a3 49       		.uleb128 0x49
 2993 00a4 13       		.uleb128 0x13
 2994 00a5 00       		.byte	0
 2995 00a6 00       		.byte	0
 2996 00a7 0E       		.uleb128 0xe
 2997 00a8 17       		.uleb128 0x17
 2998 00a9 01       		.byte	0x1
 2999 00aa 0B       		.uleb128 0xb
 3000 00ab 0B       		.uleb128 0xb
 3001 00ac 3A       		.uleb128 0x3a
 3002 00ad 0B       		.uleb128 0xb
 3003 00ae 3B       		.uleb128 0x3b
 3004 00af 0B       		.uleb128 0xb
 3005 00b0 01       		.uleb128 0x1
 3006 00b1 13       		.uleb128 0x13
ARM GAS  /var/folders/dt/0wfd0knj7gs46m8vwfzktm600000gn/T//ccBlwGZX.s 			page 55


 3007 00b2 00       		.byte	0
 3008 00b3 00       		.byte	0
 3009 00b4 0F       		.uleb128 0xf
 3010 00b5 0D       		.uleb128 0xd
 3011 00b6 00       		.byte	0
 3012 00b7 03       		.uleb128 0x3
 3013 00b8 0E       		.uleb128 0xe
 3014 00b9 3A       		.uleb128 0x3a
 3015 00ba 0B       		.uleb128 0xb
 3016 00bb 3B       		.uleb128 0x3b
 3017 00bc 0B       		.uleb128 0xb
 3018 00bd 49       		.uleb128 0x49
 3019 00be 13       		.uleb128 0x13
 3020 00bf 00       		.byte	0
 3021 00c0 00       		.byte	0
 3022 00c1 10       		.uleb128 0x10
 3023 00c2 26       		.uleb128 0x26
 3024 00c3 00       		.byte	0
 3025 00c4 49       		.uleb128 0x49
 3026 00c5 13       		.uleb128 0x13
 3027 00c6 00       		.byte	0
 3028 00c7 00       		.byte	0
 3029 00c8 11       		.uleb128 0x11
 3030 00c9 2E       		.uleb128 0x2e
 3031 00ca 01       		.byte	0x1
 3032 00cb 03       		.uleb128 0x3
 3033 00cc 0E       		.uleb128 0xe
 3034 00cd 3A       		.uleb128 0x3a
 3035 00ce 0B       		.uleb128 0xb
 3036 00cf 3B       		.uleb128 0x3b
 3037 00d0 0B       		.uleb128 0xb
 3038 00d1 27       		.uleb128 0x27
 3039 00d2 0C       		.uleb128 0xc
 3040 00d3 49       		.uleb128 0x49
 3041 00d4 13       		.uleb128 0x13
 3042 00d5 20       		.uleb128 0x20
 3043 00d6 0B       		.uleb128 0xb
 3044 00d7 01       		.uleb128 0x1
 3045 00d8 13       		.uleb128 0x13
 3046 00d9 00       		.byte	0
 3047 00da 00       		.byte	0
 3048 00db 12       		.uleb128 0x12
 3049 00dc 05       		.uleb128 0x5
 3050 00dd 00       		.byte	0
 3051 00de 03       		.uleb128 0x3
 3052 00df 08       		.uleb128 0x8
 3053 00e0 3A       		.uleb128 0x3a
 3054 00e1 0B       		.uleb128 0xb
 3055 00e2 3B       		.uleb128 0x3b
 3056 00e3 0B       		.uleb128 0xb
 3057 00e4 49       		.uleb128 0x49
 3058 00e5 13       		.uleb128 0x13
 3059 00e6 00       		.byte	0
 3060 00e7 00       		.byte	0
 3061 00e8 13       		.uleb128 0x13
 3062 00e9 34       		.uleb128 0x34
 3063 00ea 00       		.byte	0
ARM GAS  /var/folders/dt/0wfd0knj7gs46m8vwfzktm600000gn/T//ccBlwGZX.s 			page 56


 3064 00eb 03       		.uleb128 0x3
 3065 00ec 08       		.uleb128 0x8
 3066 00ed 3A       		.uleb128 0x3a
 3067 00ee 0B       		.uleb128 0xb
 3068 00ef 3B       		.uleb128 0x3b
 3069 00f0 0B       		.uleb128 0xb
 3070 00f1 49       		.uleb128 0x49
 3071 00f2 13       		.uleb128 0x13
 3072 00f3 00       		.byte	0
 3073 00f4 00       		.byte	0
 3074 00f5 14       		.uleb128 0x14
 3075 00f6 2E       		.uleb128 0x2e
 3076 00f7 01       		.byte	0x1
 3077 00f8 03       		.uleb128 0x3
 3078 00f9 0E       		.uleb128 0xe
 3079 00fa 3A       		.uleb128 0x3a
 3080 00fb 0B       		.uleb128 0xb
 3081 00fc 3B       		.uleb128 0x3b
 3082 00fd 0B       		.uleb128 0xb
 3083 00fe 27       		.uleb128 0x27
 3084 00ff 0C       		.uleb128 0xc
 3085 0100 20       		.uleb128 0x20
 3086 0101 0B       		.uleb128 0xb
 3087 0102 01       		.uleb128 0x1
 3088 0103 13       		.uleb128 0x13
 3089 0104 00       		.byte	0
 3090 0105 00       		.byte	0
 3091 0106 15       		.uleb128 0x15
 3092 0107 2E       		.uleb128 0x2e
 3093 0108 01       		.byte	0x1
 3094 0109 3F       		.uleb128 0x3f
 3095 010a 0C       		.uleb128 0xc
 3096 010b 03       		.uleb128 0x3
 3097 010c 0E       		.uleb128 0xe
 3098 010d 3A       		.uleb128 0x3a
 3099 010e 0B       		.uleb128 0xb
 3100 010f 3B       		.uleb128 0x3b
 3101 0110 0B       		.uleb128 0xb
 3102 0111 27       		.uleb128 0x27
 3103 0112 0C       		.uleb128 0xc
 3104 0113 11       		.uleb128 0x11
 3105 0114 01       		.uleb128 0x1
 3106 0115 12       		.uleb128 0x12
 3107 0116 01       		.uleb128 0x1
 3108 0117 40       		.uleb128 0x40
 3109 0118 06       		.uleb128 0x6
 3110 0119 9742     		.uleb128 0x2117
 3111 011b 0C       		.uleb128 0xc
 3112 011c 01       		.uleb128 0x1
 3113 011d 13       		.uleb128 0x13
 3114 011e 00       		.byte	0
 3115 011f 00       		.byte	0
 3116 0120 16       		.uleb128 0x16
 3117 0121 05       		.uleb128 0x5
 3118 0122 00       		.byte	0
 3119 0123 03       		.uleb128 0x3
 3120 0124 08       		.uleb128 0x8
ARM GAS  /var/folders/dt/0wfd0knj7gs46m8vwfzktm600000gn/T//ccBlwGZX.s 			page 57


 3121 0125 3A       		.uleb128 0x3a
 3122 0126 0B       		.uleb128 0xb
 3123 0127 3B       		.uleb128 0x3b
 3124 0128 0B       		.uleb128 0xb
 3125 0129 49       		.uleb128 0x49
 3126 012a 13       		.uleb128 0x13
 3127 012b 02       		.uleb128 0x2
 3128 012c 06       		.uleb128 0x6
 3129 012d 00       		.byte	0
 3130 012e 00       		.byte	0
 3131 012f 17       		.uleb128 0x17
 3132 0130 898201   		.uleb128 0x4109
 3133 0133 01       		.byte	0x1
 3134 0134 11       		.uleb128 0x11
 3135 0135 01       		.uleb128 0x1
 3136 0136 31       		.uleb128 0x31
 3137 0137 13       		.uleb128 0x13
 3138 0138 00       		.byte	0
 3139 0139 00       		.byte	0
 3140 013a 18       		.uleb128 0x18
 3141 013b 8A8201   		.uleb128 0x410a
 3142 013e 00       		.byte	0
 3143 013f 02       		.uleb128 0x2
 3144 0140 0A       		.uleb128 0xa
 3145 0141 9142     		.uleb128 0x2111
 3146 0143 0A       		.uleb128 0xa
 3147 0144 00       		.byte	0
 3148 0145 00       		.byte	0
 3149 0146 19       		.uleb128 0x19
 3150 0147 34       		.uleb128 0x34
 3151 0148 00       		.byte	0
 3152 0149 03       		.uleb128 0x3
 3153 014a 08       		.uleb128 0x8
 3154 014b 3A       		.uleb128 0x3a
 3155 014c 0B       		.uleb128 0xb
 3156 014d 3B       		.uleb128 0x3b
 3157 014e 0B       		.uleb128 0xb
 3158 014f 49       		.uleb128 0x49
 3159 0150 13       		.uleb128 0x13
 3160 0151 02       		.uleb128 0x2
 3161 0152 06       		.uleb128 0x6
 3162 0153 00       		.byte	0
 3163 0154 00       		.byte	0
 3164 0155 1A       		.uleb128 0x1a
 3165 0156 1D       		.uleb128 0x1d
 3166 0157 01       		.byte	0x1
 3167 0158 31       		.uleb128 0x31
 3168 0159 13       		.uleb128 0x13
 3169 015a 52       		.uleb128 0x52
 3170 015b 01       		.uleb128 0x1
 3171 015c 55       		.uleb128 0x55
 3172 015d 06       		.uleb128 0x6
 3173 015e 58       		.uleb128 0x58
 3174 015f 0B       		.uleb128 0xb
 3175 0160 59       		.uleb128 0x59
 3176 0161 0B       		.uleb128 0xb
 3177 0162 01       		.uleb128 0x1
ARM GAS  /var/folders/dt/0wfd0knj7gs46m8vwfzktm600000gn/T//ccBlwGZX.s 			page 58


 3178 0163 13       		.uleb128 0x13
 3179 0164 00       		.byte	0
 3180 0165 00       		.byte	0
 3181 0166 1B       		.uleb128 0x1b
 3182 0167 05       		.uleb128 0x5
 3183 0168 00       		.byte	0
 3184 0169 31       		.uleb128 0x31
 3185 016a 13       		.uleb128 0x13
 3186 016b 02       		.uleb128 0x2
 3187 016c 06       		.uleb128 0x6
 3188 016d 00       		.byte	0
 3189 016e 00       		.byte	0
 3190 016f 1C       		.uleb128 0x1c
 3191 0170 0B       		.uleb128 0xb
 3192 0171 01       		.byte	0x1
 3193 0172 55       		.uleb128 0x55
 3194 0173 06       		.uleb128 0x6
 3195 0174 00       		.byte	0
 3196 0175 00       		.byte	0
 3197 0176 1D       		.uleb128 0x1d
 3198 0177 34       		.uleb128 0x34
 3199 0178 00       		.byte	0
 3200 0179 31       		.uleb128 0x31
 3201 017a 13       		.uleb128 0x13
 3202 017b 02       		.uleb128 0x2
 3203 017c 06       		.uleb128 0x6
 3204 017d 00       		.byte	0
 3205 017e 00       		.byte	0
 3206 017f 1E       		.uleb128 0x1e
 3207 0180 898201   		.uleb128 0x4109
 3208 0183 00       		.byte	0
 3209 0184 11       		.uleb128 0x11
 3210 0185 01       		.uleb128 0x1
 3211 0186 31       		.uleb128 0x31
 3212 0187 13       		.uleb128 0x13
 3213 0188 00       		.byte	0
 3214 0189 00       		.byte	0
 3215 018a 1F       		.uleb128 0x1f
 3216 018b 898201   		.uleb128 0x4109
 3217 018e 01       		.byte	0x1
 3218 018f 11       		.uleb128 0x11
 3219 0190 01       		.uleb128 0x1
 3220 0191 31       		.uleb128 0x31
 3221 0192 13       		.uleb128 0x13
 3222 0193 01       		.uleb128 0x1
 3223 0194 13       		.uleb128 0x13
 3224 0195 00       		.byte	0
 3225 0196 00       		.byte	0
 3226 0197 20       		.uleb128 0x20
 3227 0198 0B       		.uleb128 0xb
 3228 0199 01       		.byte	0x1
 3229 019a 11       		.uleb128 0x11
 3230 019b 01       		.uleb128 0x1
 3231 019c 12       		.uleb128 0x12
 3232 019d 01       		.uleb128 0x1
 3233 019e 01       		.uleb128 0x1
 3234 019f 13       		.uleb128 0x13
ARM GAS  /var/folders/dt/0wfd0knj7gs46m8vwfzktm600000gn/T//ccBlwGZX.s 			page 59


 3235 01a0 00       		.byte	0
 3236 01a1 00       		.byte	0
 3237 01a2 21       		.uleb128 0x21
 3238 01a3 2E       		.uleb128 0x2e
 3239 01a4 01       		.byte	0x1
 3240 01a5 3F       		.uleb128 0x3f
 3241 01a6 0C       		.uleb128 0xc
 3242 01a7 03       		.uleb128 0x3
 3243 01a8 0E       		.uleb128 0xe
 3244 01a9 3A       		.uleb128 0x3a
 3245 01aa 0B       		.uleb128 0xb
 3246 01ab 3B       		.uleb128 0x3b
 3247 01ac 0B       		.uleb128 0xb
 3248 01ad 27       		.uleb128 0x27
 3249 01ae 0C       		.uleb128 0xc
 3250 01af 49       		.uleb128 0x49
 3251 01b0 13       		.uleb128 0x13
 3252 01b1 11       		.uleb128 0x11
 3253 01b2 01       		.uleb128 0x1
 3254 01b3 12       		.uleb128 0x12
 3255 01b4 01       		.uleb128 0x1
 3256 01b5 40       		.uleb128 0x40
 3257 01b6 06       		.uleb128 0x6
 3258 01b7 9742     		.uleb128 0x2117
 3259 01b9 0C       		.uleb128 0xc
 3260 01ba 01       		.uleb128 0x1
 3261 01bb 13       		.uleb128 0x13
 3262 01bc 00       		.byte	0
 3263 01bd 00       		.byte	0
 3264 01be 22       		.uleb128 0x22
 3265 01bf 1D       		.uleb128 0x1d
 3266 01c0 01       		.byte	0x1
 3267 01c1 31       		.uleb128 0x31
 3268 01c2 13       		.uleb128 0x13
 3269 01c3 11       		.uleb128 0x11
 3270 01c4 01       		.uleb128 0x1
 3271 01c5 12       		.uleb128 0x12
 3272 01c6 01       		.uleb128 0x1
 3273 01c7 58       		.uleb128 0x58
 3274 01c8 0B       		.uleb128 0xb
 3275 01c9 59       		.uleb128 0x59
 3276 01ca 0B       		.uleb128 0xb
 3277 01cb 01       		.uleb128 0x1
 3278 01cc 13       		.uleb128 0x13
 3279 01cd 00       		.byte	0
 3280 01ce 00       		.byte	0
 3281 01cf 23       		.uleb128 0x23
 3282 01d0 0B       		.uleb128 0xb
 3283 01d1 01       		.byte	0x1
 3284 01d2 55       		.uleb128 0x55
 3285 01d3 06       		.uleb128 0x6
 3286 01d4 01       		.uleb128 0x1
 3287 01d5 13       		.uleb128 0x13
 3288 01d6 00       		.byte	0
 3289 01d7 00       		.byte	0
 3290 01d8 24       		.uleb128 0x24
 3291 01d9 05       		.uleb128 0x5
ARM GAS  /var/folders/dt/0wfd0knj7gs46m8vwfzktm600000gn/T//ccBlwGZX.s 			page 60


 3292 01da 00       		.byte	0
 3293 01db 03       		.uleb128 0x3
 3294 01dc 0E       		.uleb128 0xe
 3295 01dd 3A       		.uleb128 0x3a
 3296 01de 0B       		.uleb128 0xb
 3297 01df 3B       		.uleb128 0x3b
 3298 01e0 0B       		.uleb128 0xb
 3299 01e1 49       		.uleb128 0x49
 3300 01e2 13       		.uleb128 0x13
 3301 01e3 02       		.uleb128 0x2
 3302 01e4 06       		.uleb128 0x6
 3303 01e5 00       		.byte	0
 3304 01e6 00       		.byte	0
 3305 01e7 25       		.uleb128 0x25
 3306 01e8 1D       		.uleb128 0x1d
 3307 01e9 01       		.byte	0x1
 3308 01ea 31       		.uleb128 0x31
 3309 01eb 13       		.uleb128 0x13
 3310 01ec 11       		.uleb128 0x11
 3311 01ed 01       		.uleb128 0x1
 3312 01ee 12       		.uleb128 0x12
 3313 01ef 01       		.uleb128 0x1
 3314 01f0 58       		.uleb128 0x58
 3315 01f1 0B       		.uleb128 0xb
 3316 01f2 59       		.uleb128 0x59
 3317 01f3 05       		.uleb128 0x5
 3318 01f4 01       		.uleb128 0x1
 3319 01f5 13       		.uleb128 0x13
 3320 01f6 00       		.byte	0
 3321 01f7 00       		.byte	0
 3322 01f8 26       		.uleb128 0x26
 3323 01f9 898201   		.uleb128 0x4109
 3324 01fc 01       		.byte	0x1
 3325 01fd 11       		.uleb128 0x11
 3326 01fe 01       		.uleb128 0x1
 3327 01ff 9542     		.uleb128 0x2115
 3328 0201 0C       		.uleb128 0xc
 3329 0202 31       		.uleb128 0x31
 3330 0203 13       		.uleb128 0x13
 3331 0204 01       		.uleb128 0x1
 3332 0205 13       		.uleb128 0x13
 3333 0206 00       		.byte	0
 3334 0207 00       		.byte	0
 3335 0208 27       		.uleb128 0x27
 3336 0209 2E       		.uleb128 0x2e
 3337 020a 01       		.byte	0x1
 3338 020b 3F       		.uleb128 0x3f
 3339 020c 0C       		.uleb128 0xc
 3340 020d 03       		.uleb128 0x3
 3341 020e 0E       		.uleb128 0xe
 3342 020f 3A       		.uleb128 0x3a
 3343 0210 0B       		.uleb128 0xb
 3344 0211 3B       		.uleb128 0x3b
 3345 0212 05       		.uleb128 0x5
 3346 0213 27       		.uleb128 0x27
 3347 0214 0C       		.uleb128 0xc
 3348 0215 11       		.uleb128 0x11
ARM GAS  /var/folders/dt/0wfd0knj7gs46m8vwfzktm600000gn/T//ccBlwGZX.s 			page 61


 3349 0216 01       		.uleb128 0x1
 3350 0217 12       		.uleb128 0x12
 3351 0218 01       		.uleb128 0x1
 3352 0219 40       		.uleb128 0x40
 3353 021a 06       		.uleb128 0x6
 3354 021b 9742     		.uleb128 0x2117
 3355 021d 0C       		.uleb128 0xc
 3356 021e 01       		.uleb128 0x1
 3357 021f 13       		.uleb128 0x13
 3358 0220 00       		.byte	0
 3359 0221 00       		.byte	0
 3360 0222 28       		.uleb128 0x28
 3361 0223 05       		.uleb128 0x5
 3362 0224 00       		.byte	0
 3363 0225 03       		.uleb128 0x3
 3364 0226 08       		.uleb128 0x8
 3365 0227 3A       		.uleb128 0x3a
 3366 0228 0B       		.uleb128 0xb
 3367 0229 3B       		.uleb128 0x3b
 3368 022a 05       		.uleb128 0x5
 3369 022b 49       		.uleb128 0x49
 3370 022c 13       		.uleb128 0x13
 3371 022d 02       		.uleb128 0x2
 3372 022e 06       		.uleb128 0x6
 3373 022f 00       		.byte	0
 3374 0230 00       		.byte	0
 3375 0231 29       		.uleb128 0x29
 3376 0232 34       		.uleb128 0x34
 3377 0233 00       		.byte	0
 3378 0234 03       		.uleb128 0x3
 3379 0235 08       		.uleb128 0x8
 3380 0236 3A       		.uleb128 0x3a
 3381 0237 0B       		.uleb128 0xb
 3382 0238 3B       		.uleb128 0x3b
 3383 0239 05       		.uleb128 0x5
 3384 023a 49       		.uleb128 0x49
 3385 023b 13       		.uleb128 0x13
 3386 023c 02       		.uleb128 0x2
 3387 023d 06       		.uleb128 0x6
 3388 023e 00       		.byte	0
 3389 023f 00       		.byte	0
 3390 0240 2A       		.uleb128 0x2a
 3391 0241 1D       		.uleb128 0x1d
 3392 0242 01       		.byte	0x1
 3393 0243 31       		.uleb128 0x31
 3394 0244 13       		.uleb128 0x13
 3395 0245 52       		.uleb128 0x52
 3396 0246 01       		.uleb128 0x1
 3397 0247 55       		.uleb128 0x55
 3398 0248 06       		.uleb128 0x6
 3399 0249 58       		.uleb128 0x58
 3400 024a 0B       		.uleb128 0xb
 3401 024b 59       		.uleb128 0x59
 3402 024c 05       		.uleb128 0x5
 3403 024d 01       		.uleb128 0x1
 3404 024e 13       		.uleb128 0x13
 3405 024f 00       		.byte	0
ARM GAS  /var/folders/dt/0wfd0knj7gs46m8vwfzktm600000gn/T//ccBlwGZX.s 			page 62


 3406 0250 00       		.byte	0
 3407 0251 2B       		.uleb128 0x2b
 3408 0252 34       		.uleb128 0x34
 3409 0253 00       		.byte	0
 3410 0254 03       		.uleb128 0x3
 3411 0255 08       		.uleb128 0x8
 3412 0256 3A       		.uleb128 0x3a
 3413 0257 0B       		.uleb128 0xb
 3414 0258 3B       		.uleb128 0x3b
 3415 0259 05       		.uleb128 0x5
 3416 025a 49       		.uleb128 0x49
 3417 025b 13       		.uleb128 0x13
 3418 025c 02       		.uleb128 0x2
 3419 025d 0A       		.uleb128 0xa
 3420 025e 00       		.byte	0
 3421 025f 00       		.byte	0
 3422 0260 2C       		.uleb128 0x2c
 3423 0261 898201   		.uleb128 0x4109
 3424 0264 00       		.byte	0
 3425 0265 11       		.uleb128 0x11
 3426 0266 01       		.uleb128 0x1
 3427 0267 9542     		.uleb128 0x2115
 3428 0269 0C       		.uleb128 0xc
 3429 026a 31       		.uleb128 0x31
 3430 026b 13       		.uleb128 0x13
 3431 026c 00       		.byte	0
 3432 026d 00       		.byte	0
 3433 026e 2D       		.uleb128 0x2d
 3434 026f 0B       		.uleb128 0xb
 3435 0270 01       		.byte	0x1
 3436 0271 11       		.uleb128 0x11
 3437 0272 01       		.uleb128 0x1
 3438 0273 12       		.uleb128 0x12
 3439 0274 01       		.uleb128 0x1
 3440 0275 00       		.byte	0
 3441 0276 00       		.byte	0
 3442 0277 2E       		.uleb128 0x2e
 3443 0278 2E       		.uleb128 0x2e
 3444 0279 01       		.byte	0x1
 3445 027a 3F       		.uleb128 0x3f
 3446 027b 0C       		.uleb128 0xc
 3447 027c 03       		.uleb128 0x3
 3448 027d 0E       		.uleb128 0xe
 3449 027e 3A       		.uleb128 0x3a
 3450 027f 0B       		.uleb128 0xb
 3451 0280 3B       		.uleb128 0x3b
 3452 0281 05       		.uleb128 0x5
 3453 0282 27       		.uleb128 0x27
 3454 0283 0C       		.uleb128 0xc
 3455 0284 49       		.uleb128 0x49
 3456 0285 13       		.uleb128 0x13
 3457 0286 11       		.uleb128 0x11
 3458 0287 01       		.uleb128 0x1
 3459 0288 12       		.uleb128 0x12
 3460 0289 01       		.uleb128 0x1
 3461 028a 40       		.uleb128 0x40
 3462 028b 06       		.uleb128 0x6
ARM GAS  /var/folders/dt/0wfd0knj7gs46m8vwfzktm600000gn/T//ccBlwGZX.s 			page 63


 3463 028c 9742     		.uleb128 0x2117
 3464 028e 0C       		.uleb128 0xc
 3465 028f 01       		.uleb128 0x1
 3466 0290 13       		.uleb128 0x13
 3467 0291 00       		.byte	0
 3468 0292 00       		.byte	0
 3469 0293 2F       		.uleb128 0x2f
 3470 0294 05       		.uleb128 0x5
 3471 0295 00       		.byte	0
 3472 0296 31       		.uleb128 0x31
 3473 0297 13       		.uleb128 0x13
 3474 0298 02       		.uleb128 0x2
 3475 0299 0A       		.uleb128 0xa
 3476 029a 00       		.byte	0
 3477 029b 00       		.byte	0
 3478 029c 30       		.uleb128 0x30
 3479 029d 34       		.uleb128 0x34
 3480 029e 00       		.byte	0
 3481 029f 03       		.uleb128 0x3
 3482 02a0 0E       		.uleb128 0xe
 3483 02a1 3A       		.uleb128 0x3a
 3484 02a2 0B       		.uleb128 0xb
 3485 02a3 3B       		.uleb128 0x3b
 3486 02a4 0B       		.uleb128 0xb
 3487 02a5 49       		.uleb128 0x49
 3488 02a6 13       		.uleb128 0x13
 3489 02a7 3F       		.uleb128 0x3f
 3490 02a8 0C       		.uleb128 0xc
 3491 02a9 3C       		.uleb128 0x3c
 3492 02aa 0C       		.uleb128 0xc
 3493 02ab 00       		.byte	0
 3494 02ac 00       		.byte	0
 3495 02ad 31       		.uleb128 0x31
 3496 02ae 2E       		.uleb128 0x2e
 3497 02af 01       		.byte	0x1
 3498 02b0 3F       		.uleb128 0x3f
 3499 02b1 0C       		.uleb128 0xc
 3500 02b2 03       		.uleb128 0x3
 3501 02b3 0E       		.uleb128 0xe
 3502 02b4 3A       		.uleb128 0x3a
 3503 02b5 0B       		.uleb128 0xb
 3504 02b6 3B       		.uleb128 0x3b
 3505 02b7 0B       		.uleb128 0xb
 3506 02b8 27       		.uleb128 0x27
 3507 02b9 0C       		.uleb128 0xc
 3508 02ba 3C       		.uleb128 0x3c
 3509 02bb 0C       		.uleb128 0xc
 3510 02bc 01       		.uleb128 0x1
 3511 02bd 13       		.uleb128 0x13
 3512 02be 00       		.byte	0
 3513 02bf 00       		.byte	0
 3514 02c0 32       		.uleb128 0x32
 3515 02c1 05       		.uleb128 0x5
 3516 02c2 00       		.byte	0
 3517 02c3 49       		.uleb128 0x49
 3518 02c4 13       		.uleb128 0x13
 3519 02c5 00       		.byte	0
ARM GAS  /var/folders/dt/0wfd0knj7gs46m8vwfzktm600000gn/T//ccBlwGZX.s 			page 64


 3520 02c6 00       		.byte	0
 3521 02c7 33       		.uleb128 0x33
 3522 02c8 2E       		.uleb128 0x2e
 3523 02c9 00       		.byte	0
 3524 02ca 3F       		.uleb128 0x3f
 3525 02cb 0C       		.uleb128 0xc
 3526 02cc 03       		.uleb128 0x3
 3527 02cd 0E       		.uleb128 0xe
 3528 02ce 3A       		.uleb128 0x3a
 3529 02cf 0B       		.uleb128 0xb
 3530 02d0 3B       		.uleb128 0x3b
 3531 02d1 0B       		.uleb128 0xb
 3532 02d2 27       		.uleb128 0x27
 3533 02d3 0C       		.uleb128 0xc
 3534 02d4 3C       		.uleb128 0x3c
 3535 02d5 0C       		.uleb128 0xc
 3536 02d6 00       		.byte	0
 3537 02d7 00       		.byte	0
 3538 02d8 34       		.uleb128 0x34
 3539 02d9 2E       		.uleb128 0x2e
 3540 02da 01       		.byte	0x1
 3541 02db 3F       		.uleb128 0x3f
 3542 02dc 0C       		.uleb128 0xc
 3543 02dd 03       		.uleb128 0x3
 3544 02de 0E       		.uleb128 0xe
 3545 02df 3A       		.uleb128 0x3a
 3546 02e0 0B       		.uleb128 0xb
 3547 02e1 3B       		.uleb128 0x3b
 3548 02e2 0B       		.uleb128 0xb
 3549 02e3 27       		.uleb128 0x27
 3550 02e4 0C       		.uleb128 0xc
 3551 02e5 49       		.uleb128 0x49
 3552 02e6 13       		.uleb128 0x13
 3553 02e7 3C       		.uleb128 0x3c
 3554 02e8 0C       		.uleb128 0xc
 3555 02e9 01       		.uleb128 0x1
 3556 02ea 13       		.uleb128 0x13
 3557 02eb 00       		.byte	0
 3558 02ec 00       		.byte	0
 3559 02ed 35       		.uleb128 0x35
 3560 02ee 2E       		.uleb128 0x2e
 3561 02ef 01       		.byte	0x1
 3562 02f0 3F       		.uleb128 0x3f
 3563 02f1 0C       		.uleb128 0xc
 3564 02f2 03       		.uleb128 0x3
 3565 02f3 0E       		.uleb128 0xe
 3566 02f4 3A       		.uleb128 0x3a
 3567 02f5 0B       		.uleb128 0xb
 3568 02f6 3B       		.uleb128 0x3b
 3569 02f7 0B       		.uleb128 0xb
 3570 02f8 27       		.uleb128 0x27
 3571 02f9 0C       		.uleb128 0xc
 3572 02fa 3C       		.uleb128 0x3c
 3573 02fb 0C       		.uleb128 0xc
 3574 02fc 00       		.byte	0
 3575 02fd 00       		.byte	0
 3576 02fe 00       		.byte	0
ARM GAS  /var/folders/dt/0wfd0knj7gs46m8vwfzktm600000gn/T//ccBlwGZX.s 			page 65


 3577              		.section	.debug_loc,"",%progbits
 3578              	.Ldebug_loc0:
 3579              	.LLST0:
 3580 0000 00000000 		.4byte	.LFB7
 3581 0004 02000000 		.4byte	.LCFI0
 3582 0008 0200     		.2byte	0x2
 3583 000a 7D       		.byte	0x7d
 3584 000b 00       		.sleb128 0
 3585 000c 02000000 		.4byte	.LCFI0
 3586 0010 28000000 		.4byte	.LFE7
 3587 0014 0200     		.2byte	0x2
 3588 0016 7D       		.byte	0x7d
 3589 0017 10       		.sleb128 16
 3590 0018 00000000 		.4byte	0
 3591 001c 00000000 		.4byte	0
 3592              	.LLST1:
 3593 0020 00000000 		.4byte	.LVL0
 3594 0024 16000000 		.4byte	.LVL1
 3595 0028 0100     		.2byte	0x1
 3596 002a 50       		.byte	0x50
 3597 002b 16000000 		.4byte	.LVL1
 3598 002f 28000000 		.4byte	.LFE7
 3599 0033 0100     		.2byte	0x1
 3600 0035 54       		.byte	0x54
 3601 0036 00000000 		.4byte	0
 3602 003a 00000000 		.4byte	0
 3603              	.LLST2:
 3604 003e 00000000 		.4byte	.LVL0
 3605 0042 19000000 		.4byte	.LVL2-1
 3606 0046 0100     		.2byte	0x1
 3607 0048 51       		.byte	0x51
 3608 0049 19000000 		.4byte	.LVL2-1
 3609 004d 28000000 		.4byte	.LFE7
 3610 0051 0100     		.2byte	0x1
 3611 0053 55       		.byte	0x55
 3612 0054 00000000 		.4byte	0
 3613 0058 00000000 		.4byte	0
 3614              	.LLST3:
 3615 005c 00000000 		.4byte	.LFB9
 3616 0060 02000000 		.4byte	.LCFI1
 3617 0064 0200     		.2byte	0x2
 3618 0066 7D       		.byte	0x7d
 3619 0067 00       		.sleb128 0
 3620 0068 02000000 		.4byte	.LCFI1
 3621 006c 64000000 		.4byte	.LFE9
 3622 0070 0200     		.2byte	0x2
 3623 0072 7D       		.byte	0x7d
 3624 0073 10       		.sleb128 16
 3625 0074 00000000 		.4byte	0
 3626 0078 00000000 		.4byte	0
 3627              	.LLST4:
 3628 007c 00000000 		.4byte	.LVL3
 3629 0080 09000000 		.4byte	.LVL4-1
 3630 0084 0100     		.2byte	0x1
 3631 0086 50       		.byte	0x50
 3632 0087 09000000 		.4byte	.LVL4-1
 3633 008b 64000000 		.4byte	.LFE9
ARM GAS  /var/folders/dt/0wfd0knj7gs46m8vwfzktm600000gn/T//ccBlwGZX.s 			page 66


 3634 008f 0100     		.2byte	0x1
 3635 0091 54       		.byte	0x54
 3636 0092 00000000 		.4byte	0
 3637 0096 00000000 		.4byte	0
 3638              	.LLST5:
 3639 009a 00000000 		.4byte	.LVL3
 3640 009e 09000000 		.4byte	.LVL4-1
 3641 00a2 0100     		.2byte	0x1
 3642 00a4 51       		.byte	0x51
 3643 00a5 09000000 		.4byte	.LVL4-1
 3644 00a9 38000000 		.4byte	.LVL9
 3645 00ad 0100     		.2byte	0x1
 3646 00af 56       		.byte	0x56
 3647 00b0 38000000 		.4byte	.LVL9
 3648 00b4 4E000000 		.4byte	.LVL15
 3649 00b8 0400     		.2byte	0x4
 3650 00ba F3       		.byte	0xf3
 3651 00bb 01       		.uleb128 0x1
 3652 00bc 51       		.byte	0x51
 3653 00bd 9F       		.byte	0x9f
 3654 00be 4E000000 		.4byte	.LVL15
 3655 00c2 64000000 		.4byte	.LFE9
 3656 00c6 0100     		.2byte	0x1
 3657 00c8 56       		.byte	0x56
 3658 00c9 00000000 		.4byte	0
 3659 00cd 00000000 		.4byte	0
 3660              	.LLST6:
 3661 00d1 2C000000 		.4byte	.LVL6
 3662 00d5 2E000000 		.4byte	.LVL7
 3663 00d9 0100     		.2byte	0x1
 3664 00db 55       		.byte	0x55
 3665 00dc 2E000000 		.4byte	.LVL7
 3666 00e0 32000000 		.4byte	.LVL8
 3667 00e4 0300     		.2byte	0x3
 3668 00e6 75       		.byte	0x75
 3669 00e7 7F       		.sleb128 -1
 3670 00e8 9F       		.byte	0x9f
 3671 00e9 32000000 		.4byte	.LVL8
 3672 00ed 3C000000 		.4byte	.LVL11
 3673 00f1 0100     		.2byte	0x1
 3674 00f3 55       		.byte	0x55
 3675 00f4 3C000000 		.4byte	.LVL11
 3676 00f8 4A000000 		.4byte	.LVL13
 3677 00fc 0300     		.2byte	0x3
 3678 00fe 75       		.byte	0x75
 3679 00ff 7F       		.sleb128 -1
 3680 0100 9F       		.byte	0x9f
 3681 0101 4A000000 		.4byte	.LVL13
 3682 0105 4E000000 		.4byte	.LVL15
 3683 0109 0100     		.2byte	0x1
 3684 010b 55       		.byte	0x55
 3685 010c 00000000 		.4byte	0
 3686 0110 00000000 		.4byte	0
 3687              	.LLST7:
 3688 0114 38000000 		.4byte	.LVL9
 3689 0118 4C000000 		.4byte	.LVL14
 3690 011c 0100     		.2byte	0x1
ARM GAS  /var/folders/dt/0wfd0knj7gs46m8vwfzktm600000gn/T//ccBlwGZX.s 			page 67


 3691 011e 54       		.byte	0x54
 3692 011f 00000000 		.4byte	0
 3693 0123 00000000 		.4byte	0
 3694              	.LLST8:
 3695 0127 3A000000 		.4byte	.LVL10
 3696 012b 45000000 		.4byte	.LVL12-1
 3697 012f 0100     		.2byte	0x1
 3698 0131 50       		.byte	0x50
 3699 0132 00000000 		.4byte	0
 3700 0136 00000000 		.4byte	0
 3701              	.LLST9:
 3702 013a 00000000 		.4byte	.LFB8
 3703 013e 02000000 		.4byte	.LCFI2
 3704 0142 0200     		.2byte	0x2
 3705 0144 7D       		.byte	0x7d
 3706 0145 00       		.sleb128 0
 3707 0146 02000000 		.4byte	.LCFI2
 3708 014a 28000000 		.4byte	.LFE8
 3709 014e 0200     		.2byte	0x2
 3710 0150 7D       		.byte	0x7d
 3711 0151 10       		.sleb128 16
 3712 0152 00000000 		.4byte	0
 3713 0156 00000000 		.4byte	0
 3714              	.LLST10:
 3715 015a 00000000 		.4byte	.LVL17
 3716 015e 0F000000 		.4byte	.LVL20-1
 3717 0162 0100     		.2byte	0x1
 3718 0164 50       		.byte	0x50
 3719 0165 0F000000 		.4byte	.LVL20-1
 3720 0169 28000000 		.4byte	.LFE8
 3721 016d 0100     		.2byte	0x1
 3722 016f 55       		.byte	0x55
 3723 0170 00000000 		.4byte	0
 3724 0174 00000000 		.4byte	0
 3725              	.LLST11:
 3726 0178 00000000 		.4byte	.LVL17
 3727 017c 0F000000 		.4byte	.LVL20-1
 3728 0180 0100     		.2byte	0x1
 3729 0182 51       		.byte	0x51
 3730 0183 0F000000 		.4byte	.LVL20-1
 3731 0187 28000000 		.4byte	.LFE8
 3732 018b 0100     		.2byte	0x1
 3733 018d 54       		.byte	0x54
 3734 018e 00000000 		.4byte	0
 3735 0192 00000000 		.4byte	0
 3736              	.LLST12:
 3737 0196 0C000000 		.4byte	.LVL19
 3738 019a 0F000000 		.4byte	.LVL20-1
 3739 019e 0100     		.2byte	0x1
 3740 01a0 53       		.byte	0x53
 3741 01a1 00000000 		.4byte	0
 3742 01a5 00000000 		.4byte	0
 3743              	.LLST13:
 3744 01a9 26000000 		.4byte	.LVL25
 3745 01ad 28000000 		.4byte	.LFE8
 3746 01b1 0100     		.2byte	0x1
 3747 01b3 53       		.byte	0x53
ARM GAS  /var/folders/dt/0wfd0knj7gs46m8vwfzktm600000gn/T//ccBlwGZX.s 			page 68


 3748 01b4 00000000 		.4byte	0
 3749 01b8 00000000 		.4byte	0
 3750              	.LLST14:
 3751 01bc 00000000 		.4byte	.LFB11
 3752 01c0 02000000 		.4byte	.LCFI3
 3753 01c4 0200     		.2byte	0x2
 3754 01c6 7D       		.byte	0x7d
 3755 01c7 00       		.sleb128 0
 3756 01c8 02000000 		.4byte	.LCFI3
 3757 01cc 68000000 		.4byte	.LFE11
 3758 01d0 0200     		.2byte	0x2
 3759 01d2 7D       		.byte	0x7d
 3760 01d3 10       		.sleb128 16
 3761 01d4 00000000 		.4byte	0
 3762 01d8 00000000 		.4byte	0
 3763              	.LLST15:
 3764 01dc 00000000 		.4byte	.LVL26
 3765 01e0 07000000 		.4byte	.LVL27-1
 3766 01e4 0100     		.2byte	0x1
 3767 01e6 50       		.byte	0x50
 3768 01e7 07000000 		.4byte	.LVL27-1
 3769 01eb 68000000 		.4byte	.LFE11
 3770 01ef 0100     		.2byte	0x1
 3771 01f1 54       		.byte	0x54
 3772 01f2 00000000 		.4byte	0
 3773 01f6 00000000 		.4byte	0
 3774              	.LLST16:
 3775 01fa 3E000000 		.4byte	.LVL29
 3776 01fe 4B000000 		.4byte	.LVL30-1
 3777 0202 0200     		.2byte	0x2
 3778 0204 73       		.byte	0x73
 3779 0205 28       		.sleb128 40
 3780 0206 4B000000 		.4byte	.LVL30-1
 3781 020a 52000000 		.4byte	.LVL31
 3782 020e 0100     		.2byte	0x1
 3783 0210 54       		.byte	0x54
 3784 0211 00000000 		.4byte	0
 3785 0215 00000000 		.4byte	0
 3786              	.LLST17:
 3787 0219 3E000000 		.4byte	.LVL29
 3788 021d 4B000000 		.4byte	.LVL30-1
 3789 0221 0100     		.2byte	0x1
 3790 0223 53       		.byte	0x53
 3791 0224 00000000 		.4byte	0
 3792 0228 00000000 		.4byte	0
 3793              	.LLST18:
 3794 022c 00000000 		.4byte	.LFB10
 3795 0230 02000000 		.4byte	.LCFI4
 3796 0234 0200     		.2byte	0x2
 3797 0236 7D       		.byte	0x7d
 3798 0237 00       		.sleb128 0
 3799 0238 02000000 		.4byte	.LCFI4
 3800 023c 24000000 		.4byte	.LFE10
 3801 0240 0200     		.2byte	0x2
 3802 0242 7D       		.byte	0x7d
 3803 0243 08       		.sleb128 8
 3804 0244 00000000 		.4byte	0
ARM GAS  /var/folders/dt/0wfd0knj7gs46m8vwfzktm600000gn/T//ccBlwGZX.s 			page 69


 3805 0248 00000000 		.4byte	0
 3806              	.LLST19:
 3807 024c 00000000 		.4byte	.LVL33
 3808 0250 0D000000 		.4byte	.LVL36-1
 3809 0254 0100     		.2byte	0x1
 3810 0256 50       		.byte	0x50
 3811 0257 0D000000 		.4byte	.LVL36-1
 3812 025b 16000000 		.4byte	.LVL38
 3813 025f 0100     		.2byte	0x1
 3814 0261 54       		.byte	0x54
 3815 0262 16000000 		.4byte	.LVL38
 3816 0266 24000000 		.4byte	.LFE10
 3817 026a 0400     		.2byte	0x4
 3818 026c F3       		.byte	0xf3
 3819 026d 01       		.uleb128 0x1
 3820 026e 50       		.byte	0x50
 3821 026f 9F       		.byte	0x9f
 3822 0270 00000000 		.4byte	0
 3823 0274 00000000 		.4byte	0
 3824              	.LLST20:
 3825 0278 16000000 		.4byte	.LVL38
 3826 027c 19000000 		.4byte	.LVL39-1
 3827 0280 0100     		.2byte	0x1
 3828 0282 50       		.byte	0x50
 3829 0283 19000000 		.4byte	.LVL39-1
 3830 0287 24000000 		.4byte	.LFE10
 3831 028b 0100     		.2byte	0x1
 3832 028d 54       		.byte	0x54
 3833 028e 00000000 		.4byte	0
 3834 0292 00000000 		.4byte	0
 3835              	.LLST21:
 3836 0296 0A000000 		.4byte	.LVL35
 3837 029a 0D000000 		.4byte	.LVL36-1
 3838 029e 0100     		.2byte	0x1
 3839 02a0 53       		.byte	0x53
 3840 02a1 00000000 		.4byte	0
 3841 02a5 00000000 		.4byte	0
 3842              	.LLST22:
 3843 02a9 20000000 		.4byte	.LVL41
 3844 02ad 24000000 		.4byte	.LFE10
 3845 02b1 0100     		.2byte	0x1
 3846 02b3 53       		.byte	0x53
 3847 02b4 00000000 		.4byte	0
 3848 02b8 00000000 		.4byte	0
 3849              	.LLST23:
 3850 02bc 00000000 		.4byte	.LFB13
 3851 02c0 02000000 		.4byte	.LCFI5
 3852 02c4 0200     		.2byte	0x2
 3853 02c6 7D       		.byte	0x7d
 3854 02c7 00       		.sleb128 0
 3855 02c8 02000000 		.4byte	.LCFI5
 3856 02cc 74000000 		.4byte	.LFE13
 3857 02d0 0200     		.2byte	0x2
 3858 02d2 7D       		.byte	0x7d
 3859 02d3 10       		.sleb128 16
 3860 02d4 00000000 		.4byte	0
 3861 02d8 00000000 		.4byte	0
ARM GAS  /var/folders/dt/0wfd0knj7gs46m8vwfzktm600000gn/T//ccBlwGZX.s 			page 70


 3862              	.LLST24:
 3863 02dc 00000000 		.4byte	.LVL42
 3864 02e0 09000000 		.4byte	.LVL43-1
 3865 02e4 0100     		.2byte	0x1
 3866 02e6 50       		.byte	0x50
 3867 02e7 09000000 		.4byte	.LVL43-1
 3868 02eb 74000000 		.4byte	.LFE13
 3869 02ef 0100     		.2byte	0x1
 3870 02f1 54       		.byte	0x54
 3871 02f2 00000000 		.4byte	0
 3872 02f6 00000000 		.4byte	0
 3873              	.LLST25:
 3874 02fa 00000000 		.4byte	.LVL42
 3875 02fe 09000000 		.4byte	.LVL43-1
 3876 0302 0100     		.2byte	0x1
 3877 0304 51       		.byte	0x51
 3878 0305 09000000 		.4byte	.LVL43-1
 3879 0309 74000000 		.4byte	.LFE13
 3880 030d 0100     		.2byte	0x1
 3881 030f 55       		.byte	0x55
 3882 0310 00000000 		.4byte	0
 3883 0314 00000000 		.4byte	0
 3884              	.LLST26:
 3885 0318 46000000 		.4byte	.LVL45
 3886 031c 57000000 		.4byte	.LVL46-1
 3887 0320 0200     		.2byte	0x2
 3888 0322 73       		.byte	0x73
 3889 0323 28       		.sleb128 40
 3890 0324 57000000 		.4byte	.LVL46-1
 3891 0328 58000000 		.4byte	.LVL46
 3892 032c 0100     		.2byte	0x1
 3893 032e 54       		.byte	0x54
 3894 032f 00000000 		.4byte	0
 3895 0333 00000000 		.4byte	0
 3896              	.LLST27:
 3897 0337 46000000 		.4byte	.LVL45
 3898 033b 57000000 		.4byte	.LVL46-1
 3899 033f 0100     		.2byte	0x1
 3900 0341 53       		.byte	0x53
 3901 0342 00000000 		.4byte	0
 3902 0346 00000000 		.4byte	0
 3903              	.LLST28:
 3904 034a 00000000 		.4byte	.LFB12
 3905 034e 02000000 		.4byte	.LCFI6
 3906 0352 0200     		.2byte	0x2
 3907 0354 7D       		.byte	0x7d
 3908 0355 00       		.sleb128 0
 3909 0356 02000000 		.4byte	.LCFI6
 3910 035a 28000000 		.4byte	.LFE12
 3911 035e 0200     		.2byte	0x2
 3912 0360 7D       		.byte	0x7d
 3913 0361 10       		.sleb128 16
 3914 0362 00000000 		.4byte	0
 3915 0366 00000000 		.4byte	0
 3916              	.LLST29:
 3917 036a 00000000 		.4byte	.LVL48
 3918 036e 0F000000 		.4byte	.LVL51-1
ARM GAS  /var/folders/dt/0wfd0knj7gs46m8vwfzktm600000gn/T//ccBlwGZX.s 			page 71


 3919 0372 0100     		.2byte	0x1
 3920 0374 50       		.byte	0x50
 3921 0375 0F000000 		.4byte	.LVL51-1
 3922 0379 28000000 		.4byte	.LFE12
 3923 037d 0100     		.2byte	0x1
 3924 037f 55       		.byte	0x55
 3925 0380 00000000 		.4byte	0
 3926 0384 00000000 		.4byte	0
 3927              	.LLST30:
 3928 0388 00000000 		.4byte	.LVL48
 3929 038c 0F000000 		.4byte	.LVL51-1
 3930 0390 0100     		.2byte	0x1
 3931 0392 51       		.byte	0x51
 3932 0393 0F000000 		.4byte	.LVL51-1
 3933 0397 1A000000 		.4byte	.LVL53
 3934 039b 0100     		.2byte	0x1
 3935 039d 54       		.byte	0x54
 3936 039e 1A000000 		.4byte	.LVL53
 3937 03a2 28000000 		.4byte	.LFE12
 3938 03a6 0400     		.2byte	0x4
 3939 03a8 F3       		.byte	0xf3
 3940 03a9 01       		.uleb128 0x1
 3941 03aa 51       		.byte	0x51
 3942 03ab 9F       		.byte	0x9f
 3943 03ac 00000000 		.4byte	0
 3944 03b0 00000000 		.4byte	0
 3945              	.LLST31:
 3946 03b4 1A000000 		.4byte	.LVL53
 3947 03b8 1D000000 		.4byte	.LVL54-1
 3948 03bc 0100     		.2byte	0x1
 3949 03be 50       		.byte	0x50
 3950 03bf 1D000000 		.4byte	.LVL54-1
 3951 03c3 28000000 		.4byte	.LFE12
 3952 03c7 0100     		.2byte	0x1
 3953 03c9 54       		.byte	0x54
 3954 03ca 00000000 		.4byte	0
 3955 03ce 00000000 		.4byte	0
 3956              	.LLST32:
 3957 03d2 0C000000 		.4byte	.LVL50
 3958 03d6 0F000000 		.4byte	.LVL51-1
 3959 03da 0100     		.2byte	0x1
 3960 03dc 53       		.byte	0x53
 3961 03dd 00000000 		.4byte	0
 3962 03e1 00000000 		.4byte	0
 3963              	.LLST33:
 3964 03e5 24000000 		.4byte	.LVL56
 3965 03e9 28000000 		.4byte	.LFE12
 3966 03ed 0100     		.2byte	0x1
 3967 03ef 53       		.byte	0x53
 3968 03f0 00000000 		.4byte	0
 3969 03f4 00000000 		.4byte	0
 3970              	.LLST34:
 3971 03f8 00000000 		.4byte	.LFB14
 3972 03fc 02000000 		.4byte	.LCFI7
 3973 0400 0200     		.2byte	0x2
 3974 0402 7D       		.byte	0x7d
 3975 0403 00       		.sleb128 0
ARM GAS  /var/folders/dt/0wfd0knj7gs46m8vwfzktm600000gn/T//ccBlwGZX.s 			page 72


 3976 0404 02000000 		.4byte	.LCFI7
 3977 0408 60000000 		.4byte	.LFE14
 3978 040c 0200     		.2byte	0x2
 3979 040e 7D       		.byte	0x7d
 3980 040f 08       		.sleb128 8
 3981 0410 00000000 		.4byte	0
 3982 0414 00000000 		.4byte	0
 3983              	.LLST35:
 3984 0418 00000000 		.4byte	.LVL57
 3985 041c 06000000 		.4byte	.LVL58
 3986 0420 0100     		.2byte	0x1
 3987 0422 50       		.byte	0x50
 3988 0423 06000000 		.4byte	.LVL58
 3989 0427 4E000000 		.4byte	.LVL70
 3990 042b 0100     		.2byte	0x1
 3991 042d 54       		.byte	0x54
 3992 042e 4E000000 		.4byte	.LVL70
 3993 0432 50000000 		.4byte	.LVL71
 3994 0436 0100     		.2byte	0x1
 3995 0438 50       		.byte	0x50
 3996 0439 50000000 		.4byte	.LVL71
 3997 043d 60000000 		.4byte	.LFE14
 3998 0441 0100     		.2byte	0x1
 3999 0443 54       		.byte	0x54
 4000 0444 00000000 		.4byte	0
 4001 0448 00000000 		.4byte	0
 4002              	.LLST36:
 4003 044c 1E000000 		.4byte	.LVL61
 4004 0450 21000000 		.4byte	.LVL62-1
 4005 0454 0100     		.2byte	0x1
 4006 0456 53       		.byte	0x53
 4007 0457 00000000 		.4byte	0
 4008 045b 00000000 		.4byte	0
 4009              	.LLST37:
 4010 045f 36000000 		.4byte	.LVL65
 4011 0463 38000000 		.4byte	.LVL66
 4012 0467 0100     		.2byte	0x1
 4013 0469 53       		.byte	0x53
 4014 046a 00000000 		.4byte	0
 4015 046e 00000000 		.4byte	0
 4016              	.LLST38:
 4017 0472 3E000000 		.4byte	.LVL67
 4018 0476 4E000000 		.4byte	.LVL70
 4019 047a 0100     		.2byte	0x1
 4020 047c 54       		.byte	0x54
 4021 047d 00000000 		.4byte	0
 4022 0481 00000000 		.4byte	0
 4023              	.LLST39:
 4024 0485 40000000 		.4byte	.LVL68
 4025 0489 4B000000 		.4byte	.LVL69-1
 4026 048d 0100     		.2byte	0x1
 4027 048f 50       		.byte	0x50
 4028 0490 00000000 		.4byte	0
 4029 0494 00000000 		.4byte	0
 4030              	.LLST40:
 4031 0498 00000000 		.4byte	.LFB15
 4032 049c 02000000 		.4byte	.LCFI8
ARM GAS  /var/folders/dt/0wfd0knj7gs46m8vwfzktm600000gn/T//ccBlwGZX.s 			page 73


 4033 04a0 0200     		.2byte	0x2
 4034 04a2 7D       		.byte	0x7d
 4035 04a3 00       		.sleb128 0
 4036 04a4 02000000 		.4byte	.LCFI8
 4037 04a8 5C000000 		.4byte	.LFE15
 4038 04ac 0200     		.2byte	0x2
 4039 04ae 7D       		.byte	0x7d
 4040 04af 08       		.sleb128 8
 4041 04b0 00000000 		.4byte	0
 4042 04b4 00000000 		.4byte	0
 4043              	.LLST41:
 4044 04b8 00000000 		.4byte	.LVL73
 4045 04bc 07000000 		.4byte	.LVL74-1
 4046 04c0 0100     		.2byte	0x1
 4047 04c2 50       		.byte	0x50
 4048 04c3 07000000 		.4byte	.LVL74-1
 4049 04c7 5C000000 		.4byte	.LFE15
 4050 04cb 0100     		.2byte	0x1
 4051 04cd 54       		.byte	0x54
 4052 04ce 00000000 		.4byte	0
 4053 04d2 00000000 		.4byte	0
 4054              	.LLST42:
 4055 04d6 36000000 		.4byte	.LVL76
 4056 04da 4C000000 		.4byte	.LVL78
 4057 04de 0100     		.2byte	0x1
 4058 04e0 54       		.byte	0x54
 4059 04e1 00000000 		.4byte	0
 4060 04e5 00000000 		.4byte	0
 4061              	.LLST43:
 4062 04e9 38000000 		.4byte	.LVL77
 4063 04ed 4B000000 		.4byte	.LVL78-1
 4064 04f1 0100     		.2byte	0x1
 4065 04f3 53       		.byte	0x53
 4066 04f4 00000000 		.4byte	0
 4067 04f8 00000000 		.4byte	0
 4068              	.LLST44:
 4069 04fc 00000000 		.4byte	.LFB16
 4070 0500 02000000 		.4byte	.LCFI9
 4071 0504 0200     		.2byte	0x2
 4072 0506 7D       		.byte	0x7d
 4073 0507 00       		.sleb128 0
 4074 0508 02000000 		.4byte	.LCFI9
 4075 050c 64000000 		.4byte	.LFE16
 4076 0510 0200     		.2byte	0x2
 4077 0512 7D       		.byte	0x7d
 4078 0513 10       		.sleb128 16
 4079 0514 00000000 		.4byte	0
 4080 0518 00000000 		.4byte	0
 4081              	.LLST45:
 4082 051c 00000000 		.4byte	.LVL80
 4083 0520 09000000 		.4byte	.LVL81-1
 4084 0524 0100     		.2byte	0x1
 4085 0526 50       		.byte	0x50
 4086 0527 09000000 		.4byte	.LVL81-1
 4087 052b 64000000 		.4byte	.LFE16
 4088 052f 0100     		.2byte	0x1
 4089 0531 55       		.byte	0x55
ARM GAS  /var/folders/dt/0wfd0knj7gs46m8vwfzktm600000gn/T//ccBlwGZX.s 			page 74


 4090 0532 00000000 		.4byte	0
 4091 0536 00000000 		.4byte	0
 4092              	.LLST46:
 4093 053a 00000000 		.4byte	.LVL80
 4094 053e 09000000 		.4byte	.LVL81-1
 4095 0542 0100     		.2byte	0x1
 4096 0544 51       		.byte	0x51
 4097 0545 09000000 		.4byte	.LVL81-1
 4098 0549 2C000000 		.4byte	.LVL83
 4099 054d 0100     		.2byte	0x1
 4100 054f 54       		.byte	0x54
 4101 0550 2C000000 		.4byte	.LVL83
 4102 0554 2E000000 		.4byte	.LVL84
 4103 0558 0300     		.2byte	0x3
 4104 055a 74       		.byte	0x74
 4105 055b 7F       		.sleb128 -1
 4106 055c 9F       		.byte	0x9f
 4107 055d 2E000000 		.4byte	.LVL84
 4108 0561 30000000 		.4byte	.LVL85
 4109 0565 0100     		.2byte	0x1
 4110 0567 54       		.byte	0x54
 4111 0568 4E000000 		.4byte	.LVL90
 4112 056c 64000000 		.4byte	.LFE16
 4113 0570 0100     		.2byte	0x1
 4114 0572 54       		.byte	0x54
 4115 0573 00000000 		.4byte	0
 4116 0577 00000000 		.4byte	0
 4117              	.LLST47:
 4118 057b 3A000000 		.4byte	.LVL86
 4119 057f 4C000000 		.4byte	.LVL89
 4120 0583 0100     		.2byte	0x1
 4121 0585 55       		.byte	0x55
 4122 0586 00000000 		.4byte	0
 4123 058a 00000000 		.4byte	0
 4124              	.LLST48:
 4125 058e 3C000000 		.4byte	.LVL87
 4126 0592 45000000 		.4byte	.LVL88-1
 4127 0596 0100     		.2byte	0x1
 4128 0598 50       		.byte	0x50
 4129 0599 00000000 		.4byte	0
 4130 059d 00000000 		.4byte	0
 4131              	.LLST49:
 4132 05a1 00000000 		.4byte	.LFB17
 4133 05a5 08000000 		.4byte	.LCFI10
 4134 05a9 0200     		.2byte	0x2
 4135 05ab 7D       		.byte	0x7d
 4136 05ac 00       		.sleb128 0
 4137 05ad 08000000 		.4byte	.LCFI10
 4138 05b1 BC000000 		.4byte	.LFE17
 4139 05b5 0200     		.2byte	0x2
 4140 05b7 7D       		.byte	0x7d
 4141 05b8 10       		.sleb128 16
 4142 05b9 00000000 		.4byte	0
 4143 05bd 00000000 		.4byte	0
 4144              	.LLST50:
 4145 05c1 00000000 		.4byte	.LVL92
 4146 05c5 0E000000 		.4byte	.LVL93
ARM GAS  /var/folders/dt/0wfd0knj7gs46m8vwfzktm600000gn/T//ccBlwGZX.s 			page 75


 4147 05c9 0100     		.2byte	0x1
 4148 05cb 50       		.byte	0x50
 4149 05cc 0E000000 		.4byte	.LVL93
 4150 05d0 56000000 		.4byte	.LVL100
 4151 05d4 0100     		.2byte	0x1
 4152 05d6 55       		.byte	0x55
 4153 05d7 56000000 		.4byte	.LVL100
 4154 05db 64000000 		.4byte	.LVL104
 4155 05df 0400     		.2byte	0x4
 4156 05e1 F3       		.byte	0xf3
 4157 05e2 01       		.uleb128 0x1
 4158 05e3 50       		.byte	0x50
 4159 05e4 9F       		.byte	0x9f
 4160 05e5 64000000 		.4byte	.LVL104
 4161 05e9 76000000 		.4byte	.LVL105
 4162 05ed 0100     		.2byte	0x1
 4163 05ef 55       		.byte	0x55
 4164 05f0 76000000 		.4byte	.LVL105
 4165 05f4 78000000 		.4byte	.LVL106
 4166 05f8 0100     		.2byte	0x1
 4167 05fa 50       		.byte	0x50
 4168 05fb 78000000 		.4byte	.LVL106
 4169 05ff 84000000 		.4byte	.LVL108
 4170 0603 0100     		.2byte	0x1
 4171 0605 55       		.byte	0x55
 4172 0606 84000000 		.4byte	.LVL108
 4173 060a 98000000 		.4byte	.LVL111
 4174 060e 0400     		.2byte	0x4
 4175 0610 F3       		.byte	0xf3
 4176 0611 01       		.uleb128 0x1
 4177 0612 50       		.byte	0x50
 4178 0613 9F       		.byte	0x9f
 4179 0614 98000000 		.4byte	.LVL111
 4180 0618 BC000000 		.4byte	.LFE17
 4181 061c 0100     		.2byte	0x1
 4182 061e 55       		.byte	0x55
 4183 061f 00000000 		.4byte	0
 4184 0623 00000000 		.4byte	0
 4185              	.LLST51:
 4186 0627 00000000 		.4byte	.LVL92
 4187 062b 0E000000 		.4byte	.LVL93
 4188 062f 0100     		.2byte	0x1
 4189 0631 51       		.byte	0x51
 4190 0632 0E000000 		.4byte	.LVL93
 4191 0636 56000000 		.4byte	.LVL100
 4192 063a 0100     		.2byte	0x1
 4193 063c 54       		.byte	0x54
 4194 063d 56000000 		.4byte	.LVL100
 4195 0641 64000000 		.4byte	.LVL104
 4196 0645 0400     		.2byte	0x4
 4197 0647 F3       		.byte	0xf3
 4198 0648 01       		.uleb128 0x1
 4199 0649 51       		.byte	0x51
 4200 064a 9F       		.byte	0x9f
 4201 064b 64000000 		.4byte	.LVL104
 4202 064f 76000000 		.4byte	.LVL105
 4203 0653 0100     		.2byte	0x1
ARM GAS  /var/folders/dt/0wfd0knj7gs46m8vwfzktm600000gn/T//ccBlwGZX.s 			page 76


 4204 0655 54       		.byte	0x54
 4205 0656 76000000 		.4byte	.LVL105
 4206 065a 7B000000 		.4byte	.LVL107-1
 4207 065e 0100     		.2byte	0x1
 4208 0660 51       		.byte	0x51
 4209 0661 7B000000 		.4byte	.LVL107-1
 4210 0665 96000000 		.4byte	.LVL110
 4211 0669 0100     		.2byte	0x1
 4212 066b 54       		.byte	0x54
 4213 066c 96000000 		.4byte	.LVL110
 4214 0670 98000000 		.4byte	.LVL111
 4215 0674 0400     		.2byte	0x4
 4216 0676 F3       		.byte	0xf3
 4217 0677 01       		.uleb128 0x1
 4218 0678 51       		.byte	0x51
 4219 0679 9F       		.byte	0x9f
 4220 067a 98000000 		.4byte	.LVL111
 4221 067e BC000000 		.4byte	.LFE17
 4222 0682 0100     		.2byte	0x1
 4223 0684 54       		.byte	0x54
 4224 0685 00000000 		.4byte	0
 4225 0689 00000000 		.4byte	0
 4226              	.LLST52:
 4227 068d 54000000 		.4byte	.LVL99
 4228 0691 56000000 		.4byte	.LVL100
 4229 0695 0200     		.2byte	0x2
 4230 0697 30       		.byte	0x30
 4231 0698 9F       		.byte	0x9f
 4232 0699 56000000 		.4byte	.LVL100
 4233 069d 64000000 		.4byte	.LVL104
 4234 06a1 0100     		.2byte	0x1
 4235 06a3 54       		.byte	0x54
 4236 06a4 96000000 		.4byte	.LVL110
 4237 06a8 98000000 		.4byte	.LVL111
 4238 06ac 0100     		.2byte	0x1
 4239 06ae 54       		.byte	0x54
 4240 06af 00000000 		.4byte	0
 4241 06b3 00000000 		.4byte	0
 4242              	.LLST53:
 4243 06b7 38000000 		.4byte	.LVL97
 4244 06bb 3B000000 		.4byte	.LVL98-1
 4245 06bf 0100     		.2byte	0x1
 4246 06c1 53       		.byte	0x53
 4247 06c2 00000000 		.4byte	0
 4248 06c6 00000000 		.4byte	0
 4249              	.LLST54:
 4250 06ca 60000000 		.4byte	.LVL103
 4251 06ce 64000000 		.4byte	.LVL104
 4252 06d2 0100     		.2byte	0x1
 4253 06d4 53       		.byte	0x53
 4254 06d5 00000000 		.4byte	0
 4255 06d9 00000000 		.4byte	0
 4256              	.LLST55:
 4257 06dd 84000000 		.4byte	.LVL108
 4258 06e1 98000000 		.4byte	.LVL111
 4259 06e5 0100     		.2byte	0x1
 4260 06e7 55       		.byte	0x55
ARM GAS  /var/folders/dt/0wfd0knj7gs46m8vwfzktm600000gn/T//ccBlwGZX.s 			page 77


 4261 06e8 00000000 		.4byte	0
 4262 06ec 00000000 		.4byte	0
 4263              	.LLST56:
 4264 06f0 84000000 		.4byte	.LVL108
 4265 06f4 96000000 		.4byte	.LVL110
 4266 06f8 0100     		.2byte	0x1
 4267 06fa 54       		.byte	0x54
 4268 06fb 96000000 		.4byte	.LVL110
 4269 06ff 98000000 		.4byte	.LVL111
 4270 0703 0400     		.2byte	0x4
 4271 0705 F3       		.byte	0xf3
 4272 0706 01       		.uleb128 0x1
 4273 0707 51       		.byte	0x51
 4274 0708 9F       		.byte	0x9f
 4275 0709 00000000 		.4byte	0
 4276 070d 00000000 		.4byte	0
 4277              	.LLST58:
 4278 0711 9A000000 		.4byte	.LVL112
 4279 0715 A3000000 		.4byte	.LVL113-1
 4280 0719 0100     		.2byte	0x1
 4281 071b 50       		.byte	0x50
 4282 071c 00000000 		.4byte	0
 4283 0720 00000000 		.4byte	0
 4284              		.section	.debug_aranges,"",%progbits
 4285 0000 6C000000 		.4byte	0x6c
 4286 0004 0200     		.2byte	0x2
 4287 0006 00000000 		.4byte	.Ldebug_info0
 4288 000a 04       		.byte	0x4
 4289 000b 00       		.byte	0
 4290 000c 0000     		.2byte	0
 4291 000e 0000     		.2byte	0
 4292 0010 00000000 		.4byte	.LFB7
 4293 0014 28000000 		.4byte	.LFE7-.LFB7
 4294 0018 00000000 		.4byte	.LFB9
 4295 001c 64000000 		.4byte	.LFE9-.LFB9
 4296 0020 00000000 		.4byte	.LFB8
 4297 0024 28000000 		.4byte	.LFE8-.LFB8
 4298 0028 00000000 		.4byte	.LFB11
 4299 002c 68000000 		.4byte	.LFE11-.LFB11
 4300 0030 00000000 		.4byte	.LFB10
 4301 0034 24000000 		.4byte	.LFE10-.LFB10
 4302 0038 00000000 		.4byte	.LFB13
 4303 003c 74000000 		.4byte	.LFE13-.LFB13
 4304 0040 00000000 		.4byte	.LFB12
 4305 0044 28000000 		.4byte	.LFE12-.LFB12
 4306 0048 00000000 		.4byte	.LFB14
 4307 004c 60000000 		.4byte	.LFE14-.LFB14
 4308 0050 00000000 		.4byte	.LFB15
 4309 0054 5C000000 		.4byte	.LFE15-.LFB15
 4310 0058 00000000 		.4byte	.LFB16
 4311 005c 64000000 		.4byte	.LFE16-.LFB16
 4312 0060 00000000 		.4byte	.LFB17
 4313 0064 BC000000 		.4byte	.LFE17-.LFB17
 4314 0068 00000000 		.4byte	0
 4315 006c 00000000 		.4byte	0
 4316              		.section	.debug_ranges,"",%progbits
 4317              	.Ldebug_ranges0:
ARM GAS  /var/folders/dt/0wfd0knj7gs46m8vwfzktm600000gn/T//ccBlwGZX.s 			page 78


 4318 0000 38000000 		.4byte	.LBB24
 4319 0004 3A000000 		.4byte	.LBE24
 4320 0008 3C000000 		.4byte	.LBB27
 4321 000c 42000000 		.4byte	.LBE27
 4322 0010 00000000 		.4byte	0
 4323 0014 00000000 		.4byte	0
 4324 0018 38000000 		.4byte	.LBB25
 4325 001c 3A000000 		.4byte	.LBE25
 4326 0020 3C000000 		.4byte	.LBB26
 4327 0024 42000000 		.4byte	.LBE26
 4328 0028 00000000 		.4byte	0
 4329 002c 00000000 		.4byte	0
 4330 0030 02000000 		.4byte	.LBB32
 4331 0034 04000000 		.4byte	.LBE32
 4332 0038 06000000 		.4byte	.LBB33
 4333 003c 0A000000 		.4byte	.LBE33
 4334 0040 00000000 		.4byte	0
 4335 0044 00000000 		.4byte	0
 4336 0048 3E000000 		.4byte	.LBB41
 4337 004c 40000000 		.4byte	.LBE41
 4338 0050 42000000 		.4byte	.LBB44
 4339 0054 48000000 		.4byte	.LBE44
 4340 0058 00000000 		.4byte	0
 4341 005c 00000000 		.4byte	0
 4342 0060 3E000000 		.4byte	.LBB42
 4343 0064 40000000 		.4byte	.LBE42
 4344 0068 42000000 		.4byte	.LBB43
 4345 006c 48000000 		.4byte	.LBE43
 4346 0070 00000000 		.4byte	0
 4347 0074 00000000 		.4byte	0
 4348 0078 36000000 		.4byte	.LBB45
 4349 007c 44000000 		.4byte	.LBE45
 4350 0080 48000000 		.4byte	.LBB50
 4351 0084 4C000000 		.4byte	.LBE50
 4352 0088 00000000 		.4byte	0
 4353 008c 00000000 		.4byte	0
 4354 0090 36000000 		.4byte	.LBB46
 4355 0094 3A000000 		.4byte	.LBE46
 4356 0098 3C000000 		.4byte	.LBB49
 4357 009c 40000000 		.4byte	.LBE49
 4358 00a0 00000000 		.4byte	0
 4359 00a4 00000000 		.4byte	0
 4360 00a8 36000000 		.4byte	.LBB47
 4361 00ac 3A000000 		.4byte	.LBE47
 4362 00b0 3C000000 		.4byte	.LBB48
 4363 00b4 40000000 		.4byte	.LBE48
 4364 00b8 00000000 		.4byte	0
 4365 00bc 00000000 		.4byte	0
 4366 00c0 80000000 		.4byte	.LBB56
 4367 00c4 82000000 		.4byte	.LBE56
 4368 00c8 86000000 		.4byte	.LBB60
 4369 00cc 8C000000 		.4byte	.LBE60
 4370 00d0 8E000000 		.4byte	.LBB61
 4371 00d4 90000000 		.4byte	.LBE61
 4372 00d8 00000000 		.4byte	0
 4373 00dc 00000000 		.4byte	0
 4374 00e0 00000000 		.4byte	.LFB7
ARM GAS  /var/folders/dt/0wfd0knj7gs46m8vwfzktm600000gn/T//ccBlwGZX.s 			page 79


 4375 00e4 28000000 		.4byte	.LFE7
 4376 00e8 00000000 		.4byte	.LFB9
 4377 00ec 64000000 		.4byte	.LFE9
 4378 00f0 00000000 		.4byte	.LFB8
 4379 00f4 28000000 		.4byte	.LFE8
 4380 00f8 00000000 		.4byte	.LFB11
 4381 00fc 68000000 		.4byte	.LFE11
 4382 0100 00000000 		.4byte	.LFB10
 4383 0104 24000000 		.4byte	.LFE10
 4384 0108 00000000 		.4byte	.LFB13
 4385 010c 74000000 		.4byte	.LFE13
 4386 0110 00000000 		.4byte	.LFB12
 4387 0114 28000000 		.4byte	.LFE12
 4388 0118 00000000 		.4byte	.LFB14
 4389 011c 60000000 		.4byte	.LFE14
 4390 0120 00000000 		.4byte	.LFB15
 4391 0124 5C000000 		.4byte	.LFE15
 4392 0128 00000000 		.4byte	.LFB16
 4393 012c 64000000 		.4byte	.LFE16
 4394 0130 00000000 		.4byte	.LFB17
 4395 0134 BC000000 		.4byte	.LFE17
 4396 0138 00000000 		.4byte	0
 4397 013c 00000000 		.4byte	0
 4398              		.section	.debug_line,"",%progbits
 4399              	.Ldebug_line0:
 4400 0000 E9030000 		.section	.debug_str,"MS",%progbits,1
 4400      02005901 
 4400      00000201 
 4400      FB0E0D00 
 4400      01010101 
 4401              	.LASF36:
 4402 0000 705F6D73 		.ascii	"p_msg\000"
 4402      6700
 4403              	.LASF94:
 4404 0006 71756575 		.ascii	"queue_insert\000"
 4404      655F696E 
 4404      73657274 
 4404      00
 4405              	.LASF79:
 4406 0013 63685365 		.ascii	"chSemSignalI\000"
 4406      6D536967 
 4406      6E616C49 
 4406      00
 4407              	.LASF87:
 4408 0020 63684462 		.ascii	"chDbgPanic\000"
 4408      6750616E 
 4408      696300
 4409              	.LASF63:
 4410 002b 7264796D 		.ascii	"rdymsg\000"
 4410      736700
 4411              	.LASF11:
 4412 0032 75696E74 		.ascii	"uint64_t\000"
 4412      36345F74 
 4412      00
 4413              	.LASF12:
 4414 003b 6C6F6E67 		.ascii	"long long unsigned int\000"
 4414      206C6F6E 
ARM GAS  /var/folders/dt/0wfd0knj7gs46m8vwfzktm600000gn/T//ccBlwGZX.s 			page 80


 4414      6720756E 
 4414      7369676E 
 4414      65642069 
 4415              	.LASF64:
 4416 0052 65786974 		.ascii	"exitcode\000"
 4416      636F6465 
 4416      00
 4417              	.LASF80:
 4418 005b 63685365 		.ascii	"chSemAddCounterI\000"
 4418      6D416464 
 4418      436F756E 
 4418      74657249 
 4418      00
 4419              	.LASF24:
 4420 006c 705F7072 		.ascii	"p_prio\000"
 4420      696F00
 4421              	.LASF10:
 4422 0073 6C6F6E67 		.ascii	"long long int\000"
 4422      206C6F6E 
 4422      6720696E 
 4422      7400
 4423              	.LASF1:
 4424 0081 7369676E 		.ascii	"signed char\000"
 4424      65642063 
 4424      68617200 
 4425              	.LASF81:
 4426 008d 63685365 		.ascii	"chSemSignalWait\000"
 4426      6D536967 
 4426      6E616C57 
 4426      61697400 
 4427              	.LASF40:
 4428 009d 705F6D70 		.ascii	"p_mpool\000"
 4428      6F6F6C00 
 4429              	.LASF60:
 4430 00a5 6D5F7175 		.ascii	"m_queue\000"
 4430      65756500 
 4431              	.LASF92:
 4432 00ad 2E2E2F2E 		.ascii	"../../os/kernel/src/chsem.c\000"
 4432      2E2F6F73 
 4432      2F6B6572 
 4432      6E656C2F 
 4432      7372632F 
 4433              	.LASF7:
 4434 00c9 6C6F6E67 		.ascii	"long int\000"
 4434      20696E74 
 4434      00
 4435              	.LASF14:
 4436 00d2 74737461 		.ascii	"tstate_t\000"
 4436      74655F74 
 4436      00
 4437              	.LASF78:
 4438 00db 63685365 		.ascii	"chSemSignal\000"
 4438      6D536967 
 4438      6E616C00 
 4439              	.LASF26:
 4440 00e7 705F6E65 		.ascii	"p_newer\000"
 4440      77657200 
ARM GAS  /var/folders/dt/0wfd0knj7gs46m8vwfzktm600000gn/T//ccBlwGZX.s 			page 81


 4441              	.LASF57:
 4442 00ef 735F7175 		.ascii	"s_queue\000"
 4442      65756500 
 4443              	.LASF84:
 4444 00f7 63685363 		.ascii	"chSchRescheduleS\000"
 4444      68526573 
 4444      63686564 
 4444      756C6553 
 4444      00
 4445              	.LASF51:
 4446 0108 725F6E65 		.ascii	"r_newer\000"
 4446      77657200 
 4447              	.LASF43:
 4448 0110 72656761 		.ascii	"regarm_t\000"
 4448      726D5F74 
 4448      00
 4449              	.LASF20:
 4450 0119 636E745F 		.ascii	"cnt_t\000"
 4450      7400
 4451              	.LASF29:
 4452 011f 705F7374 		.ascii	"p_stklimit\000"
 4452      6B6C696D 
 4452      697400
 4453              	.LASF0:
 4454 012a 756E7369 		.ascii	"unsigned int\000"
 4454      676E6564 
 4454      20696E74 
 4454      00
 4455              	.LASF77:
 4456 0137 63685365 		.ascii	"chSemWaitTimeout\000"
 4456      6D576169 
 4456      7454696D 
 4456      656F7574 
 4456      00
 4457              	.LASF9:
 4458 0148 6C6F6E67 		.ascii	"long unsigned int\000"
 4458      20756E73 
 4458      69676E65 
 4458      6420696E 
 4458      7400
 4459              	.LASF58:
 4460 015a 735F636E 		.ascii	"s_cnt\000"
 4460      7400
 4461              	.LASF46:
 4462 0160 636F6E74 		.ascii	"context\000"
 4462      65787400 
 4463              	.LASF4:
 4464 0168 73686F72 		.ascii	"short unsigned int\000"
 4464      7420756E 
 4464      7369676E 
 4464      65642069 
 4464      6E7400
 4465              	.LASF72:
 4466 017b 63685365 		.ascii	"chSemReset\000"
 4466      6D526573 
 4466      657400
 4467              	.LASF17:
ARM GAS  /var/folders/dt/0wfd0knj7gs46m8vwfzktm600000gn/T//ccBlwGZX.s 			page 82


 4468 0186 6D73675F 		.ascii	"msg_t\000"
 4468      7400
 4469              	.LASF82:
 4470 018c 63684462 		.ascii	"chDbgCheckClassI\000"
 4470      67436865 
 4470      636B436C 
 4470      61737349 
 4470      00
 4471              	.LASF13:
 4472 019d 746D6F64 		.ascii	"tmode_t\000"
 4472      655F7400 
 4473              	.LASF86:
 4474 01a5 63684462 		.ascii	"chDbgCheckClassS\000"
 4474      67436865 
 4474      636B436C 
 4474      61737353 
 4474      00
 4475              	.LASF42:
 4476 01b6 54687265 		.ascii	"ThreadsList\000"
 4476      6164734C 
 4476      69737400 
 4477              	.LASF18:
 4478 01c2 6576656E 		.ascii	"eventmask_t\000"
 4478      746D6173 
 4478      6B5F7400 
 4479              	.LASF59:
 4480 01ce 4D757465 		.ascii	"Mutex\000"
 4480      7800
 4481              	.LASF44:
 4482 01d4 73746B61 		.ascii	"stkalign_t\000"
 4482      6C69676E 
 4482      5F7400
 4483              	.LASF85:
 4484 01df 6462675F 		.ascii	"dbg_check_unlock\000"
 4484      63686563 
 4484      6B5F756E 
 4484      6C6F636B 
 4484      00
 4485              	.LASF47:
 4486 01f0 73697A65 		.ascii	"sizetype\000"
 4486      74797065 
 4486      00
 4487              	.LASF83:
 4488 01f9 6462675F 		.ascii	"dbg_check_lock\000"
 4488      63686563 
 4488      6B5F6C6F 
 4488      636B00
 4489              	.LASF27:
 4490 0208 705F6F6C 		.ascii	"p_older\000"
 4490      64657200 
 4491              	.LASF50:
 4492 0210 725F6374 		.ascii	"r_ctx\000"
 4492      7800
 4493              	.LASF41:
 4494 0216 54687265 		.ascii	"ThreadsQueue\000"
 4494      61647351 
 4494      75657565 
ARM GAS  /var/folders/dt/0wfd0knj7gs46m8vwfzktm600000gn/T//ccBlwGZX.s 			page 83


 4494      00
 4495              	.LASF76:
 4496 0223 74696D65 		.ascii	"time\000"
 4496      00
 4497              	.LASF91:
 4498 0228 474E5520 		.ascii	"GNU C 4.7.2\000"
 4498      4320342E 
 4498      372E3200 
 4499              	.LASF54:
 4500 0234 725F6375 		.ascii	"r_current\000"
 4500      7272656E 
 4500      7400
 4501              	.LASF52:
 4502 023e 725F6F6C 		.ascii	"r_older\000"
 4502      64657200 
 4503              	.LASF15:
 4504 0246 74726566 		.ascii	"trefs_t\000"
 4504      735F7400 
 4505              	.LASF23:
 4506 024e 705F7072 		.ascii	"p_prev\000"
 4506      657600
 4507              	.LASF16:
 4508 0255 74707269 		.ascii	"tprio_t\000"
 4508      6F5F7400 
 4509              	.LASF6:
 4510 025d 696E7433 		.ascii	"int32_t\000"
 4510      325F7400 
 4511              	.LASF2:
 4512 0265 756E7369 		.ascii	"unsigned char\000"
 4512      676E6564 
 4512      20636861 
 4512      7200
 4513              	.LASF38:
 4514 0273 705F6D74 		.ascii	"p_mtxlist\000"
 4514      786C6973 
 4514      7400
 4515              	.LASF3:
 4516 027d 73686F72 		.ascii	"short int\000"
 4516      7420696E 
 4516      7400
 4517              	.LASF30:
 4518 0287 705F7374 		.ascii	"p_state\000"
 4518      61746500 
 4519              	.LASF49:
 4520 028f 725F7072 		.ascii	"r_prio\000"
 4520      696F00
 4521              	.LASF66:
 4522 0296 65776D61 		.ascii	"ewmask\000"
 4522      736B00
 4523              	.LASF22:
 4524 029d 705F6E65 		.ascii	"p_next\000"
 4524      787400
 4525              	.LASF31:
 4526 02a4 705F666C 		.ascii	"p_flags\000"
 4526      61677300 
 4527              	.LASF73:
 4528 02ac 63685365 		.ascii	"chSemWaitS\000"
ARM GAS  /var/folders/dt/0wfd0knj7gs46m8vwfzktm600000gn/T//ccBlwGZX.s 			page 84


 4528      6D576169 
 4528      745300
 4529              	.LASF21:
 4530 02b7 54687265 		.ascii	"Thread\000"
 4530      616400
 4531              	.LASF88:
 4532 02be 63685363 		.ascii	"chSchGoSleepS\000"
 4532      68476F53 
 4532      6C656570 
 4532      5300
 4533              	.LASF37:
 4534 02cc 705F6570 		.ascii	"p_epending\000"
 4534      656E6469 
 4534      6E6700
 4535              	.LASF8:
 4536 02d7 75696E74 		.ascii	"uint32_t\000"
 4536      33325F74 
 4536      00
 4537              	.LASF48:
 4538 02e0 725F7175 		.ascii	"r_queue\000"
 4538      65756500 
 4539              	.LASF89:
 4540 02e8 63685363 		.ascii	"chSchReadyI\000"
 4540      68526561 
 4540      64794900 
 4541              	.LASF67:
 4542 02f4 63686172 		.ascii	"char\000"
 4542      00
 4543              	.LASF69:
 4544 02f9 6669666F 		.ascii	"fifo_remove\000"
 4544      5F72656D 
 4544      6F766500 
 4545              	.LASF75:
 4546 0305 63685365 		.ascii	"chSemWaitTimeoutS\000"
 4546      6D576169 
 4546      7454696D 
 4546      656F7574 
 4546      5300
 4547              	.LASF62:
 4548 0317 6D5F6E65 		.ascii	"m_next\000"
 4548      787400
 4549              	.LASF19:
 4550 031e 73797374 		.ascii	"systime_t\000"
 4550      696D655F 
 4550      7400
 4551              	.LASF39:
 4552 0328 705F7265 		.ascii	"p_realprio\000"
 4552      616C7072 
 4552      696F00
 4553              	.LASF74:
 4554 0333 63685365 		.ascii	"chSemWait\000"
 4554      6D576169 
 4554      7400
 4555              	.LASF93:
 4556 033d 2F746D70 		.ascii	"/tmp/mlab-chibios/demos/STM32F107-serialshell\000"
 4556      2F6D6C61 
 4556      622D6368 
ARM GAS  /var/folders/dt/0wfd0knj7gs46m8vwfzktm600000gn/T//ccBlwGZX.s 			page 85


 4556      6962696F 
 4556      732F6465 
 4557              	.LASF33:
 4558 036b 705F7469 		.ascii	"p_time\000"
 4558      6D6500
 4559              	.LASF68:
 4560 0372 6C69666F 		.ascii	"lifo_remove\000"
 4560      5F72656D 
 4560      6F766500 
 4561              	.LASF45:
 4562 037e 696E7463 		.ascii	"intctx\000"
 4562      747800
 4563              	.LASF35:
 4564 0385 705F6D73 		.ascii	"p_msgqueue\000"
 4564      67717565 
 4564      756500
 4565              	.LASF96:
 4566 0390 63685363 		.ascii	"chSchWakeupS\000"
 4566      6857616B 
 4566      65757053 
 4566      00
 4567              	.LASF56:
 4568 039d 53656D61 		.ascii	"Semaphore\000"
 4568      70686F72 
 4568      6500
 4569              	.LASF32:
 4570 03a7 705F7265 		.ascii	"p_refs\000"
 4570      667300
 4571              	.LASF55:
 4572 03ae 52656164 		.ascii	"ReadyList\000"
 4572      794C6973 
 4572      7400
 4573              	.LASF71:
 4574 03b8 63685365 		.ascii	"chSemResetI\000"
 4574      6D526573 
 4574      65744900 
 4575              	.LASF95:
 4576 03c4 726C6973 		.ascii	"rlist\000"
 4576      7400
 4577              	.LASF5:
 4578 03ca 75696E74 		.ascii	"uint8_t\000"
 4578      385F7400 
 4579              	.LASF65:
 4580 03d2 77746F62 		.ascii	"wtobjp\000"
 4580      6A7000
 4581              	.LASF28:
 4582 03d9 705F6E61 		.ascii	"p_name\000"
 4582      6D6500
 4583              	.LASF90:
 4584 03e0 63685363 		.ascii	"chSchGoSleepTimeoutS\000"
 4584      68476F53 
 4584      6C656570 
 4584      54696D65 
 4584      6F757453 
 4585              	.LASF53:
 4586 03f5 725F7072 		.ascii	"r_preempt\000"
 4586      65656D70 
ARM GAS  /var/folders/dt/0wfd0knj7gs46m8vwfzktm600000gn/T//ccBlwGZX.s 			page 86


 4586      7400
 4587              	.LASF61:
 4588 03ff 6D5F6F77 		.ascii	"m_owner\000"
 4588      6E657200 
 4589              	.LASF25:
 4590 0407 705F6374 		.ascii	"p_ctx\000"
 4590      7800
 4591              	.LASF34:
 4592 040d 705F7761 		.ascii	"p_waiting\000"
 4592      6974696E 
 4592      6700
 4593              	.LASF70:
 4594 0417 63685365 		.ascii	"chSemInit\000"
 4594      6D496E69 
 4594      7400
 4595              		.ident	"GCC: (GNU) 4.7.2"
ARM GAS  /var/folders/dt/0wfd0knj7gs46m8vwfzktm600000gn/T//ccBlwGZX.s 			page 87


DEFINED SYMBOLS
                            *ABS*:0000000000000000 chsem.c
/var/folders/dt/0wfd0knj7gs46m8vwfzktm600000gn/T//ccBlwGZX.s:19     .text.chSemInit:0000000000000000 $t
/var/folders/dt/0wfd0knj7gs46m8vwfzktm600000gn/T//ccBlwGZX.s:25     .text.chSemInit:0000000000000000 chSemInit
/var/folders/dt/0wfd0knj7gs46m8vwfzktm600000gn/T//ccBlwGZX.s:65     .text.chSemInit:0000000000000024 $d
/var/folders/dt/0wfd0knj7gs46m8vwfzktm600000gn/T//ccBlwGZX.s:70     .text.chSemResetI:0000000000000000 $t
/var/folders/dt/0wfd0knj7gs46m8vwfzktm600000gn/T//ccBlwGZX.s:76     .text.chSemResetI:0000000000000000 chSemResetI
/var/folders/dt/0wfd0knj7gs46m8vwfzktm600000gn/T//ccBlwGZX.s:179    .text.chSemResetI:000000000000005c $d
/var/folders/dt/0wfd0knj7gs46m8vwfzktm600000gn/T//ccBlwGZX.s:185    .text.chSemReset:0000000000000000 $t
/var/folders/dt/0wfd0knj7gs46m8vwfzktm600000gn/T//ccBlwGZX.s:191    .text.chSemReset:0000000000000000 chSemReset
/var/folders/dt/0wfd0knj7gs46m8vwfzktm600000gn/T//ccBlwGZX.s:245    .text.chSemWaitS:0000000000000000 $t
/var/folders/dt/0wfd0knj7gs46m8vwfzktm600000gn/T//ccBlwGZX.s:251    .text.chSemWaitS:0000000000000000 chSemWaitS
/var/folders/dt/0wfd0knj7gs46m8vwfzktm600000gn/T//ccBlwGZX.s:346    .text.chSemWaitS:000000000000005c $d
/var/folders/dt/0wfd0knj7gs46m8vwfzktm600000gn/T//ccBlwGZX.s:353    .text.chSemWait:0000000000000000 $t
/var/folders/dt/0wfd0knj7gs46m8vwfzktm600000gn/T//ccBlwGZX.s:359    .text.chSemWait:0000000000000000 chSemWait
/var/folders/dt/0wfd0knj7gs46m8vwfzktm600000gn/T//ccBlwGZX.s:413    .text.chSemWaitTimeoutS:0000000000000000 $t
/var/folders/dt/0wfd0knj7gs46m8vwfzktm600000gn/T//ccBlwGZX.s:419    .text.chSemWaitTimeoutS:0000000000000000 chSemWaitTimeoutS
/var/folders/dt/0wfd0knj7gs46m8vwfzktm600000gn/T//ccBlwGZX.s:524    .text.chSemWaitTimeoutS:0000000000000068 $d
/var/folders/dt/0wfd0knj7gs46m8vwfzktm600000gn/T//ccBlwGZX.s:531    .text.chSemWaitTimeout:0000000000000000 $t
/var/folders/dt/0wfd0knj7gs46m8vwfzktm600000gn/T//ccBlwGZX.s:537    .text.chSemWaitTimeout:0000000000000000 chSemWaitTimeout
/var/folders/dt/0wfd0knj7gs46m8vwfzktm600000gn/T//ccBlwGZX.s:592    .text.chSemSignal:0000000000000000 $t
/var/folders/dt/0wfd0knj7gs46m8vwfzktm600000gn/T//ccBlwGZX.s:598    .text.chSemSignal:0000000000000000 chSemSignal
/var/folders/dt/0wfd0knj7gs46m8vwfzktm600000gn/T//ccBlwGZX.s:701    .text.chSemSignal:0000000000000058 $d
/var/folders/dt/0wfd0knj7gs46m8vwfzktm600000gn/T//ccBlwGZX.s:707    .text.chSemSignalI:0000000000000000 $t
/var/folders/dt/0wfd0knj7gs46m8vwfzktm600000gn/T//ccBlwGZX.s:713    .text.chSemSignalI:0000000000000000 chSemSignalI
/var/folders/dt/0wfd0knj7gs46m8vwfzktm600000gn/T//ccBlwGZX.s:806    .text.chSemSignalI:0000000000000054 $d
/var/folders/dt/0wfd0knj7gs46m8vwfzktm600000gn/T//ccBlwGZX.s:812    .text.chSemAddCounterI:0000000000000000 $t
/var/folders/dt/0wfd0knj7gs46m8vwfzktm600000gn/T//ccBlwGZX.s:818    .text.chSemAddCounterI:0000000000000000 chSemAddCounterI
/var/folders/dt/0wfd0knj7gs46m8vwfzktm600000gn/T//ccBlwGZX.s:917    .text.chSemAddCounterI:000000000000005c $d
/var/folders/dt/0wfd0knj7gs46m8vwfzktm600000gn/T//ccBlwGZX.s:923    .text.chSemSignalWait:0000000000000000 $t
/var/folders/dt/0wfd0knj7gs46m8vwfzktm600000gn/T//ccBlwGZX.s:929    .text.chSemSignalWait:0000000000000000 chSemSignalWait
/var/folders/dt/0wfd0knj7gs46m8vwfzktm600000gn/T//ccBlwGZX.s:1116   .text.chSemSignalWait:00000000000000ac $d
/var/folders/dt/0wfd0knj7gs46m8vwfzktm600000gn/T//ccBlwGZX.s:1124   .rodata.str1.4:0000000000000000 $d
                     .debug_frame:0000000000000010 $d
/var/folders/dt/0wfd0knj7gs46m8vwfzktm600000gn/T//ccBlwGZX.s:69     .text.chSemInit:0000000000000028 $t
/var/folders/dt/0wfd0knj7gs46m8vwfzktm600000gn/T//ccBlwGZX.s:184    .text.chSemResetI:0000000000000064 $t
/var/folders/dt/0wfd0knj7gs46m8vwfzktm600000gn/T//ccBlwGZX.s:352    .text.chSemWaitS:0000000000000068 $t
/var/folders/dt/0wfd0knj7gs46m8vwfzktm600000gn/T//ccBlwGZX.s:530    .text.chSemWaitTimeoutS:0000000000000074 $t
/var/folders/dt/0wfd0knj7gs46m8vwfzktm600000gn/T//ccBlwGZX.s:811    .text.chSemSignalI:000000000000005c $t
/var/folders/dt/0wfd0knj7gs46m8vwfzktm600000gn/T//ccBlwGZX.s:922    .text.chSemAddCounterI:0000000000000064 $t
/var/folders/dt/0wfd0knj7gs46m8vwfzktm600000gn/T//ccBlwGZX.s:1123   .text.chSemSignalWait:00000000000000bc $t

UNDEFINED SYMBOLS
chDbgPanic
chDbgCheckClassI
chSchReadyI
dbg_check_lock
chSchRescheduleS
dbg_check_unlock
chDbgCheckClassS
chSchGoSleepS
rlist
chSchGoSleepTimeoutS
chSchWakeupS
