ARM GAS  /var/folders/dt/0wfd0knj7gs46m8vwfzktm600000gn/T//ccnlFFmn.s 			page 1


   1              		.syntax unified
   2              		.cpu cortex-m3
   3              		.fpu softvfp
   4              		.eabi_attribute 20, 1
   5              		.eabi_attribute 21, 1
   6              		.eabi_attribute 23, 3
   7              		.eabi_attribute 24, 1
   8              		.eabi_attribute 25, 1
   9              		.eabi_attribute 26, 1
  10              		.eabi_attribute 30, 2
  11              		.eabi_attribute 34, 1
  12              		.eabi_attribute 18, 4
  13              		.thumb
  14              		.file	"chthreads.c"
  15              		.text
  16              	.Ltext0:
  17              		.cfi_sections	.debug_frame
  18              		.section	.text._thread_init,"ax",%progbits
  19              		.align	2
  20              		.p2align 4,,15
  21              		.global	_thread_init
  22              		.thumb
  23              		.thumb_func
  24              		.type	_thread_init, %function
  25              	_thread_init:
  26              	.LFB7:
  27              		.file 1 "../../os/kernel/src/chthreads.c"
  28              		.loc 1 76 0
  29              		.cfi_startproc
  30              		@ args = 0, pretend = 0, frame = 0
  31              		@ frame_needed = 0, uses_anonymous_args = 0
  32              		@ link register save eliminated.
  33              	.LVL0:
  34 0000 2DE9F001 		push	{r4, r5, r6, r7, r8}
  35              	.LCFI0:
  36              		.cfi_def_cfa_offset 20
  37              		.cfi_offset 4, -20
  38              		.cfi_offset 5, -16
  39              		.cfi_offset 6, -12
  40              		.cfi_offset 7, -8
  41              		.cfi_offset 8, -4
  42              		.loc 1 96 0
  43 0004 40F20004 		movw	r4, #:lower16:rlist
  44 0008 C0F20004 		movt	r4, #:upper16:rlist
  45 000c 6569     		ldr	r5, [r4, #20]
  46              		.loc 1 80 0
  47 000e 0022     		movs	r2, #0
  48              		.loc 1 102 0
  49 0010 00F13006 		add	r6, r0, #48
  50              		.loc 1 78 0
  51 0014 8160     		str	r1, [r0, #8]
  52              		.loc 1 99 0
  53 0016 00F12C0C 		add	ip, r0, #44
  54              		.loc 1 105 0
  55 001a 00F14C07 		add	r7, r0, #76
  56              		.loc 1 79 0
  57 001e 4FF00208 		mov	r8, #2
ARM GAS  /var/folders/dt/0wfd0knj7gs46m8vwfzktm600000gn/T//ccnlFFmn.s 			page 2


  58              		.loc 1 82 0
  59 0022 4164     		str	r1, [r0, #68]
  60              		.loc 1 92 0
  61 0024 0121     		movs	r1, #1
  62              	.LVL1:
  63              		.loc 1 96 0
  64 0026 0461     		str	r4, [r0, #16]
  65 0028 4561     		str	r5, [r0, #20]
  66              		.loc 1 79 0
  67 002a 80F82080 		strb	r8, [r0, #32]
  68              		.loc 1 96 0
  69 002e 6061     		str	r0, [r4, #20]
  70              		.loc 1 80 0
  71 0030 80F82120 		strb	r2, [r0, #33]
  72              		.loc 1 83 0
  73 0034 0264     		str	r2, [r0, #64]
  74              		.loc 1 86 0
  75 0036 C263     		str	r2, [r0, #60]
  76              		.loc 1 89 0
  77 0038 4262     		str	r2, [r0, #36]
  78              		.loc 1 92 0
  79 003a 80F82210 		strb	r1, [r0, #34]
  80              		.loc 1 95 0
  81 003e 8261     		str	r2, [r0, #24]
  82              		.loc 1 96 0
  83 0040 2861     		str	r0, [r5, #16]
  84              		.loc 1 99 0
  85 0042 C0F82CC0 		str	ip, [r0, #44]
  86              		.loc 1 102 0
  87 0046 4663     		str	r6, [r0, #52]
  88 0048 0663     		str	r6, [r0, #48]
  89              		.loc 1 105 0
  90 004a C761     		str	r7, [r0, #28]
  91              		.loc 1 111 0
  92 004c BDE8F001 		pop	{r4, r5, r6, r7, r8}
  93 0050 7047     		bx	lr
  94              		.cfi_endproc
  95              	.LFE7:
  96              		.size	_thread_init, .-_thread_init
  97 0052 00BFAFF3 		.section	.text._thread_memfill,"ax",%progbits
  97      0080AFF3 
  97      0080AFF3 
  97      0080
  98              		.align	2
  99              		.p2align 4,,15
 100              		.global	_thread_memfill
 101              		.thumb
 102              		.thumb_func
 103              		.type	_thread_memfill, %function
 104              	_thread_memfill:
 105              	.LFB8:
 106              		.loc 1 123 0
 107              		.cfi_startproc
 108              		@ args = 0, pretend = 0, frame = 0
 109              		@ frame_needed = 0, uses_anonymous_args = 0
 110              		@ link register save eliminated.
 111              	.LVL2:
ARM GAS  /var/folders/dt/0wfd0knj7gs46m8vwfzktm600000gn/T//ccnlFFmn.s 			page 3


 112              		.loc 1 125 0
 113 0000 8842     		cmp	r0, r1
 114 0002 03D2     		bcs	.L2
 115              	.L6:
 116              		.loc 1 126 0
 117 0004 00F8012B 		strb	r2, [r0], #1
 118              	.LVL3:
 119              		.loc 1 125 0
 120 0008 8842     		cmp	r0, r1
 121 000a FBD1     		bne	.L6
 122              	.L2:
 123 000c 7047     		bx	lr
 124              		.cfi_endproc
 125              	.LFE8:
 126              		.size	_thread_memfill, .-_thread_memfill
 127 000e 00BF     		.section	.text.chThdCreateI,"ax",%progbits
 128              		.align	2
 129              		.p2align 4,,15
 130              		.global	chThdCreateI
 131              		.thumb
 132              		.thumb_func
 133              		.type	chThdCreateI, %function
 134              	chThdCreateI:
 135              	.LFB9:
 136              		.loc 1 155 0
 137              		.cfi_startproc
 138              		@ args = 4, pretend = 0, frame = 0
 139              		@ frame_needed = 0, uses_anonymous_args = 0
 140              	.LVL4:
 141 0000 2DE9F047 		push	{r4, r5, r6, r7, r8, r9, sl, lr}
 142              	.LCFI1:
 143              		.cfi_def_cfa_offset 32
 144              		.cfi_offset 4, -32
 145              		.cfi_offset 5, -28
 146              		.cfi_offset 6, -24
 147              		.cfi_offset 7, -20
 148              		.cfi_offset 8, -16
 149              		.cfi_offset 9, -12
 150              		.cfi_offset 10, -8
 151              		.cfi_offset 14, -4
 152              		.loc 1 155 0
 153 0004 0446     		mov	r4, r0
 154              	.LVL5:
 155 0006 0D46     		mov	r5, r1
 156 0008 9046     		mov	r8, r2
 157 000a 9946     		mov	r9, r3
 158              		.loc 1 159 0
 159 000c FFF7FEFF 		bl	chDbgCheckClassI
 160              	.LVL6:
 161              		.loc 1 161 0
 162 0010 002C     		cmp	r4, #0
 163 0012 18BF     		it	ne
 164 0014 AF2D     		cmpne	r5, #175
 165 0016 0AD9     		bls	.L10
 166              		.loc 1 161 0 is_stmt 0 discriminator 2
 167 0018 B8F17F0F 		cmp	r8, #127
 168 001c 94BF     		ite	ls
ARM GAS  /var/folders/dt/0wfd0knj7gs46m8vwfzktm600000gn/T//ccnlFFmn.s 			page 4


 169 001e 0023     		movls	r3, #0
 170 0020 0123     		movhi	r3, #1
 171 0022 B9F1000F 		cmp	r9, #0
 172 0026 08BF     		it	eq
 173 0028 43F00103 		orreq	r3, r3, #1
 174 002c 13B1     		cbz	r3, .L11
 175              	.L10:
 176              		.loc 1 161 0 discriminator 1
 177 002e 1948     		ldr	r0, .L15
 178 0030 FFF7FEFF 		bl	chDbgPanic
 179              	.LVL7:
 180              	.L11:
 181              	.LBB16:
 182              	.LBB17:
 183              		.loc 1 96 0 is_stmt 1
 184 0034 184E     		ldr	r6, .L15+4
 185              	.LBE17:
 186              	.LBE16:
 187              		.loc 1 164 0
 188 0036 A5F12403 		sub	r3, r5, #36
 189 003a E718     		adds	r7, r4, r3
 190              	.LBB23:
 191              	.LBB18:
 192              		.loc 1 96 0
 193 003c 7169     		ldr	r1, [r6, #20]
 194              	.LBE18:
 195              	.LBE23:
 196              		.loc 1 164 0
 197 003e E760     		str	r7, [r4, #12]
 198 0040 44F80390 		str	r9, [r4, r3]
 199 0044 089B     		ldr	r3, [sp, #32]
 200              	.LBB24:
 201              	.LBB19:
 202              		.loc 1 80 0
 203 0046 0025     		movs	r5, #0
 204              	.LVL8:
 205              	.LBE19:
 206              	.LBE24:
 207              		.loc 1 164 0
 208 0048 7B60     		str	r3, [r7, #4]
 209 004a 144B     		ldr	r3, .L15+8
 210              	.LBB25:
 211              	.LBB20:
 212              		.loc 1 102 0
 213 004c 04F13002 		add	r2, r4, #48
 214              	.LBE20:
 215              	.LBE25:
 216              		.loc 1 164 0
 217 0050 3B62     		str	r3, [r7, #32]
 218              	.LVL9:
 219              	.LBB26:
 220              	.LBB21:
 221              		.loc 1 79 0
 222 0052 0223     		movs	r3, #2
 223              		.loc 1 99 0
 224 0054 04F12C0A 		add	sl, r4, #44
 225              		.loc 1 105 0
ARM GAS  /var/folders/dt/0wfd0knj7gs46m8vwfzktm600000gn/T//ccnlFFmn.s 			page 5


 226 0058 04F14C0C 		add	ip, r4, #76
 227              		.loc 1 79 0
 228 005c 84F82030 		strb	r3, [r4, #32]
 229              		.loc 1 92 0
 230 0060 0123     		movs	r3, #1
 231              		.loc 1 96 0
 232 0062 2661     		str	r6, [r4, #16]
 233              		.loc 1 78 0
 234 0064 C4F80880 		str	r8, [r4, #8]
 235              		.loc 1 96 0
 236 0068 6161     		str	r1, [r4, #20]
 237              	.LBE21:
 238              	.LBE26:
 239              		.loc 1 166 0
 240 006a 2046     		mov	r0, r4
 241              	.LBB27:
 242              	.LBB22:
 243              		.loc 1 96 0
 244 006c 7461     		str	r4, [r6, #20]
 245              		.loc 1 80 0
 246 006e 84F82150 		strb	r5, [r4, #33]
 247              		.loc 1 82 0
 248 0072 C4F84480 		str	r8, [r4, #68]
 249              		.loc 1 83 0
 250 0076 2564     		str	r5, [r4, #64]
 251              		.loc 1 86 0
 252 0078 E563     		str	r5, [r4, #60]
 253              		.loc 1 89 0
 254 007a 6562     		str	r5, [r4, #36]
 255              		.loc 1 92 0
 256 007c 84F82230 		strb	r3, [r4, #34]
 257              		.loc 1 95 0
 258 0080 A561     		str	r5, [r4, #24]
 259              		.loc 1 96 0
 260 0082 0C61     		str	r4, [r1, #16]
 261              		.loc 1 99 0
 262 0084 C4F82CA0 		str	sl, [r4, #44]
 263              		.loc 1 102 0
 264 0088 6263     		str	r2, [r4, #52]
 265 008a 2263     		str	r2, [r4, #48]
 266              		.loc 1 105 0
 267 008c C4F81CC0 		str	ip, [r4, #28]
 268              	.LBE22:
 269              	.LBE27:
 270              		.loc 1 166 0
 271 0090 BDE8F087 		pop	{r4, r5, r6, r7, r8, r9, sl, pc}
 272              	.L16:
 273              		.align	2
 274              	.L15:
 275 0094 00000000 		.word	.LC0
 276 0098 00000000 		.word	rlist
 277 009c 00000000 		.word	_port_thread_start
 278              		.cfi_endproc
 279              	.LFE9:
 280              		.size	chThdCreateI, .-chThdCreateI
 281              		.section	.text.chThdCreateStatic,"ax",%progbits
 282              		.align	2
ARM GAS  /var/folders/dt/0wfd0knj7gs46m8vwfzktm600000gn/T//ccnlFFmn.s 			page 6


 283              		.p2align 4,,15
 284              		.global	chThdCreateStatic
 285              		.thumb
 286              		.thumb_func
 287              		.type	chThdCreateStatic, %function
 288              	chThdCreateStatic:
 289              	.LFB10:
 290              		.loc 1 185 0
 291              		.cfi_startproc
 292              		@ args = 4, pretend = 0, frame = 0
 293              		@ frame_needed = 0, uses_anonymous_args = 0
 294              	.LVL10:
 295 0000 2DE9F04F 		push	{r4, r5, r6, r7, r8, r9, sl, fp, lr}
 296              	.LCFI2:
 297              		.cfi_def_cfa_offset 36
 298              		.cfi_offset 4, -36
 299              		.cfi_offset 5, -32
 300              		.cfi_offset 6, -28
 301              		.cfi_offset 7, -24
 302              		.cfi_offset 8, -20
 303              		.cfi_offset 9, -16
 304              		.cfi_offset 10, -12
 305              		.cfi_offset 11, -8
 306              		.cfi_offset 14, -4
 307 0004 8046     		mov	r8, r0
 308 0006 83B0     		sub	sp, sp, #12
 309              	.LCFI3:
 310              		.cfi_def_cfa_offset 48
 311              		.loc 1 185 0
 312 0008 8946     		mov	r9, r1
 313 000a 9246     		mov	sl, r2
 314 000c 9B46     		mov	fp, r3
 315              		.loc 1 189 0
 316 000e 00F14C07 		add	r7, r0, #76
 317              	.LVL11:
 318              		.loc 1 184 0
 319 0012 00F10104 		add	r4, r0, #1
 320 0016 00F14D06 		add	r6, r0, #77
 321              	.LBB28:
 322              	.LBB29:
 323              		.loc 1 126 0
 324 001a FF25     		movs	r5, #255
 325              	.LVL12:
 326              	.L18:
 327 001c 04F8015C 		strb	r5, [r4, #-1]
 328 0020 0134     		adds	r4, r4, #1
 329              		.loc 1 125 0
 330 0022 B442     		cmp	r4, r6
 331 0024 FAD1     		bne	.L18
 332              	.LBE29:
 333              	.LBE28:
 334              		.loc 1 192 0
 335 0026 08EB0904 		add	r4, r8, r9
 336              	.LVL13:
 337              	.LBB30:
 338              	.LBB31:
 339              		.loc 1 125 0
ARM GAS  /var/folders/dt/0wfd0knj7gs46m8vwfzktm600000gn/T//ccnlFFmn.s 			page 7


 340 002a A742     		cmp	r7, r4
 341 002c 04D2     		bcs	.L21
 342              		.loc 1 126 0
 343 002e 5525     		movs	r5, #85
 344              	.LVL14:
 345              	.L22:
 346 0030 07F8015B 		strb	r5, [r7], #1
 347              	.LVL15:
 348              		.loc 1 125 0
 349 0034 A742     		cmp	r7, r4
 350 0036 FBD1     		bne	.L22
 351              	.L21:
 352              	.LBE31:
 353              	.LBE30:
 354              	.LBB32:
 355              		.loc 1 196 0
 356 0038 2023     		movs	r3, #32
 357              	.LVL16:
 358              	@ 196 "../../os/kernel/src/chthreads.c" 1
 359 003a 83F31188 		msr     BASEPRI, r3
 360              	@ 0 "" 2
 361              	.LVL17:
 362              		.thumb
 363              	.LBE32:
 364 003e FFF7FEFF 		bl	dbg_check_lock
 365              	.LVL18:
 366              		.loc 1 197 0
 367 0042 0C98     		ldr	r0, [sp, #48]
 368 0044 5B46     		mov	r3, fp
 369 0046 5246     		mov	r2, sl
 370 0048 4946     		mov	r1, r9
 371 004a 0090     		str	r0, [sp, #0]
 372 004c 4046     		mov	r0, r8
 373 004e FFF7FEFF 		bl	chThdCreateI
 374              	.LVL19:
 375 0052 0021     		movs	r1, #0
 376 0054 0446     		mov	r4, r0
 377              	.LVL20:
 378 0056 FFF7FEFF 		bl	chSchWakeupS
 379              	.LVL21:
 380              		.loc 1 198 0
 381 005a FFF7FEFF 		bl	dbg_check_unlock
 382              	.LVL22:
 383              	.LBB33:
 384 005e 0023     		movs	r3, #0
 385              	.LVL23:
 386              	@ 198 "../../os/kernel/src/chthreads.c" 1
 387 0060 83F31188 		msr     BASEPRI, r3
 388              	@ 0 "" 2
 389              	.LVL24:
 390              		.thumb
 391              	.LBE33:
 392              		.loc 1 200 0
 393 0064 2046     		mov	r0, r4
 394 0066 03B0     		add	sp, sp, #12
 395 0068 BDE8F08F 		pop	{r4, r5, r6, r7, r8, r9, sl, fp, pc}
 396              		.cfi_endproc
ARM GAS  /var/folders/dt/0wfd0knj7gs46m8vwfzktm600000gn/T//ccnlFFmn.s 			page 8


 397              	.LFE10:
 398              		.size	chThdCreateStatic, .-chThdCreateStatic
 399 006c AFF30080 		.section	.text.chThdSetPriority,"ax",%progbits
 400              		.align	2
 401              		.p2align 4,,15
 402              		.global	chThdSetPriority
 403              		.thumb
 404              		.thumb_func
 405              		.type	chThdSetPriority, %function
 406              	chThdSetPriority:
 407              	.LFB11:
 408              		.loc 1 214 0
 409              		.cfi_startproc
 410              		@ args = 0, pretend = 0, frame = 0
 411              		@ frame_needed = 0, uses_anonymous_args = 0
 412              	.LVL25:
 413              		.loc 1 217 0
 414 0000 7F28     		cmp	r0, #127
 415              		.loc 1 214 0
 416 0002 38B5     		push	{r3, r4, r5, lr}
 417              	.LCFI4:
 418              		.cfi_def_cfa_offset 16
 419              		.cfi_offset 3, -16
 420              		.cfi_offset 4, -12
 421              		.cfi_offset 5, -8
 422              		.cfi_offset 14, -4
 423              		.loc 1 214 0
 424 0004 0446     		mov	r4, r0
 425              		.loc 1 217 0
 426 0006 17D8     		bhi	.L30
 427              	.LVL26:
 428              	.L27:
 429              	.LBB34:
 430              		.loc 1 219 0
 431 0008 2023     		movs	r3, #32
 432              	.LVL27:
 433              	@ 219 "../../os/kernel/src/chthreads.c" 1
 434 000a 83F31188 		msr     BASEPRI, r3
 435              	@ 0 "" 2
 436              	.LVL28:
 437              		.thumb
 438              	.LBE34:
 439 000e FFF7FEFF 		bl	dbg_check_lock
 440              	.LVL29:
 441              		.loc 1 221 0
 442 0012 0B4B     		ldr	r3, .L31
 443 0014 DB69     		ldr	r3, [r3, #28]
 444 0016 5D6C     		ldr	r5, [r3, #68]
 445              	.LVL30:
 446              		.loc 1 222 0
 447 0018 9A68     		ldr	r2, [r3, #8]
 448 001a 9542     		cmp	r5, r2
 449 001c 01D0     		beq	.L28
 450              		.loc 1 222 0 is_stmt 0 discriminator 1
 451 001e 9442     		cmp	r4, r2
 452 0020 00D9     		bls	.L29
 453              	.L28:
ARM GAS  /var/folders/dt/0wfd0knj7gs46m8vwfzktm600000gn/T//ccnlFFmn.s 			page 9


 454              		.loc 1 223 0 is_stmt 1
 455 0022 9C60     		str	r4, [r3, #8]
 456              	.L29:
 457              		.loc 1 224 0
 458 0024 5C64     		str	r4, [r3, #68]
 459              		.loc 1 229 0
 460 0026 FFF7FEFF 		bl	chSchRescheduleS
 461              	.LVL31:
 462              		.loc 1 230 0
 463 002a FFF7FEFF 		bl	dbg_check_unlock
 464              	.LVL32:
 465              	.LBB35:
 466 002e 0023     		movs	r3, #0
 467              	.LVL33:
 468              	@ 230 "../../os/kernel/src/chthreads.c" 1
 469 0030 83F31188 		msr     BASEPRI, r3
 470              	@ 0 "" 2
 471              	.LVL34:
 472              		.thumb
 473              	.LBE35:
 474              		.loc 1 232 0
 475 0034 2846     		mov	r0, r5
 476 0036 38BD     		pop	{r3, r4, r5, pc}
 477              	.LVL35:
 478              	.L30:
 479              		.loc 1 217 0 discriminator 1
 480 0038 0248     		ldr	r0, .L31+4
 481              	.LVL36:
 482 003a FFF7FEFF 		bl	chDbgPanic
 483              	.LVL37:
 484 003e E3E7     		b	.L27
 485              	.L32:
 486              		.align	2
 487              	.L31:
 488 0040 00000000 		.word	rlist
 489 0044 14000000 		.word	.LC1
 490              		.cfi_endproc
 491              	.LFE11:
 492              		.size	chThdSetPriority, .-chThdSetPriority
 493 0048 AFF30080 		.section	.text.chThdResume,"ax",%progbits
 493      AFF30080 
 494              		.align	2
 495              		.p2align 4,,15
 496              		.global	chThdResume
 497              		.thumb
 498              		.thumb_func
 499              		.type	chThdResume, %function
 500              	chThdResume:
 501              	.LFB12:
 502              		.loc 1 247 0
 503              		.cfi_startproc
 504              		@ args = 0, pretend = 0, frame = 0
 505              		@ frame_needed = 0, uses_anonymous_args = 0
 506              	.LVL38:
 507 0000 10B5     		push	{r4, lr}
 508              	.LCFI5:
 509              		.cfi_def_cfa_offset 8
ARM GAS  /var/folders/dt/0wfd0knj7gs46m8vwfzktm600000gn/T//ccnlFFmn.s 			page 10


 510              		.cfi_offset 4, -8
 511              		.cfi_offset 14, -4
 512              	.LBB36:
 513              		.loc 1 249 0
 514 0002 2023     		movs	r3, #32
 515              	.LVL39:
 516              	.LBE36:
 517              		.loc 1 247 0
 518 0004 0446     		mov	r4, r0
 519              	.LBB37:
 520              		.loc 1 249 0
 521              	@ 249 "../../os/kernel/src/chthreads.c" 1
 522 0006 83F31188 		msr     BASEPRI, r3
 523              	@ 0 "" 2
 524              	.LVL40:
 525              		.thumb
 526              	.LBE37:
 527 000a FFF7FEFF 		bl	dbg_check_lock
 528              	.LVL41:
 529              		.loc 1 250 0
 530 000e 94F82030 		ldrb	r3, [r4, #32]	@ zero_extendqisi2
 531 0012 022B     		cmp	r3, #2
 532 0014 02D0     		beq	.L34
 533              		.loc 1 250 0 is_stmt 0 discriminator 1
 534 0016 0748     		ldr	r0, .L38
 535 0018 FFF7FEFF 		bl	chDbgPanic
 536              	.LVL42:
 537              	.L34:
 538              		.loc 1 253 0 is_stmt 1
 539 001c 2046     		mov	r0, r4
 540 001e 0021     		movs	r1, #0
 541 0020 FFF7FEFF 		bl	chSchWakeupS
 542              	.LVL43:
 543              		.loc 1 254 0
 544 0024 FFF7FEFF 		bl	dbg_check_unlock
 545              	.LVL44:
 546              	.LBB38:
 547 0028 0023     		movs	r3, #0
 548              	.LVL45:
 549              	@ 254 "../../os/kernel/src/chthreads.c" 1
 550 002a 83F31188 		msr     BASEPRI, r3
 551              	@ 0 "" 2
 552              	.LVL46:
 553              		.thumb
 554              	.LBE38:
 555              		.loc 1 256 0
 556 002e 2046     		mov	r0, r4
 557 0030 10BD     		pop	{r4, pc}
 558              	.L39:
 559 0032 00BF     		.align	2
 560              	.L38:
 561 0034 2C000000 		.word	.LC2
 562              		.cfi_endproc
 563              	.LFE12:
 564              		.size	chThdResume, .-chThdResume
 565 0038 AFF30080 		.section	.text.chThdTerminate,"ax",%progbits
 565      AFF30080 
ARM GAS  /var/folders/dt/0wfd0knj7gs46m8vwfzktm600000gn/T//ccnlFFmn.s 			page 11


 566              		.align	2
 567              		.p2align 4,,15
 568              		.global	chThdTerminate
 569              		.thumb
 570              		.thumb_func
 571              		.type	chThdTerminate, %function
 572              	chThdTerminate:
 573              	.LFB13:
 574              		.loc 1 270 0
 575              		.cfi_startproc
 576              		@ args = 0, pretend = 0, frame = 0
 577              		@ frame_needed = 0, uses_anonymous_args = 0
 578              	.LVL47:
 579 0000 10B5     		push	{r4, lr}
 580              	.LCFI6:
 581              		.cfi_def_cfa_offset 8
 582              		.cfi_offset 4, -8
 583              		.cfi_offset 14, -4
 584              	.LBB39:
 585              		.loc 1 272 0
 586 0002 2023     		movs	r3, #32
 587              	.LVL48:
 588              	.LBE39:
 589              		.loc 1 270 0
 590 0004 0446     		mov	r4, r0
 591              	.LBB40:
 592              		.loc 1 272 0
 593              	@ 272 "../../os/kernel/src/chthreads.c" 1
 594 0006 83F31188 		msr     BASEPRI, r3
 595              	@ 0 "" 2
 596              	.LVL49:
 597              		.thumb
 598              	.LBE40:
 599 000a FFF7FEFF 		bl	dbg_check_lock
 600              	.LVL50:
 601              		.loc 1 273 0
 602 000e 94F82130 		ldrb	r3, [r4, #33]	@ zero_extendqisi2
 603 0012 43F00403 		orr	r3, r3, #4
 604 0016 84F82130 		strb	r3, [r4, #33]
 605              		.loc 1 274 0
 606 001a FFF7FEFF 		bl	dbg_check_unlock
 607              	.LVL51:
 608              	.LBB41:
 609 001e 0023     		movs	r3, #0
 610              	.LVL52:
 611              	@ 274 "../../os/kernel/src/chthreads.c" 1
 612 0020 83F31188 		msr     BASEPRI, r3
 613              	@ 0 "" 2
 614              	.LVL53:
 615              		.thumb
 616 0024 10BD     		pop	{r4, pc}
 617              	.LBE41:
 618              		.cfi_endproc
 619              	.LFE13:
 620              		.size	chThdTerminate, .-chThdTerminate
 621 0026 00BFAFF3 		.section	.text.chThdSleep,"ax",%progbits
 621      0080AFF3 
ARM GAS  /var/folders/dt/0wfd0knj7gs46m8vwfzktm600000gn/T//ccnlFFmn.s 			page 12


 621      0080
 622              		.align	2
 623              		.p2align 4,,15
 624              		.global	chThdSleep
 625              		.thumb
 626              		.thumb_func
 627              		.type	chThdSleep, %function
 628              	chThdSleep:
 629              	.LFB14:
 630              		.loc 1 289 0
 631              		.cfi_startproc
 632              		@ args = 0, pretend = 0, frame = 0
 633              		@ frame_needed = 0, uses_anonymous_args = 0
 634              	.LVL54:
 635 0000 10B5     		push	{r4, lr}
 636              	.LCFI7:
 637              		.cfi_def_cfa_offset 8
 638              		.cfi_offset 4, -8
 639              		.cfi_offset 14, -4
 640              		.loc 1 291 0
 641 0002 0446     		mov	r4, r0
 642 0004 10B9     		cbnz	r0, .L42
 643              		.loc 1 291 0 is_stmt 0 discriminator 1
 644 0006 0948     		ldr	r0, .L43
 645              	.LVL55:
 646 0008 FFF7FEFF 		bl	chDbgPanic
 647              	.LVL56:
 648              	.L42:
 649              	.LBB42:
 650              		.loc 1 293 0 is_stmt 1
 651 000c 2023     		movs	r3, #32
 652              	.LVL57:
 653              	@ 293 "../../os/kernel/src/chthreads.c" 1
 654 000e 83F31188 		msr     BASEPRI, r3
 655              	@ 0 "" 2
 656              	.LVL58:
 657              		.thumb
 658              	.LBE42:
 659 0012 FFF7FEFF 		bl	dbg_check_lock
 660              	.LVL59:
 661              		.loc 1 294 0
 662 0016 2146     		mov	r1, r4
 663 0018 0620     		movs	r0, #6
 664 001a FFF7FEFF 		bl	chSchGoSleepTimeoutS
 665              	.LVL60:
 666              		.loc 1 295 0
 667 001e FFF7FEFF 		bl	dbg_check_unlock
 668              	.LVL61:
 669              	.LBB43:
 670 0022 0023     		movs	r3, #0
 671              	.LVL62:
 672              	@ 295 "../../os/kernel/src/chthreads.c" 1
 673 0024 83F31188 		msr     BASEPRI, r3
 674              	@ 0 "" 2
 675              	.LVL63:
 676              		.thumb
 677 0028 10BD     		pop	{r4, pc}
ARM GAS  /var/folders/dt/0wfd0knj7gs46m8vwfzktm600000gn/T//ccnlFFmn.s 			page 13


 678              	.L44:
 679 002a 00BF     		.align	2
 680              	.L43:
 681 002c 40000000 		.word	.LC3
 682              	.LBE43:
 683              		.cfi_endproc
 684              	.LFE14:
 685              		.size	chThdSleep, .-chThdSleep
 686              		.section	.text.chThdSleepUntil,"ax",%progbits
 687              		.align	2
 688              		.p2align 4,,15
 689              		.global	chThdSleepUntil
 690              		.thumb
 691              		.thumb_func
 692              		.type	chThdSleepUntil, %function
 693              	chThdSleepUntil:
 694              	.LFB15:
 695              		.loc 1 306 0
 696              		.cfi_startproc
 697              		@ args = 0, pretend = 0, frame = 0
 698              		@ frame_needed = 0, uses_anonymous_args = 0
 699              	.LVL64:
 700 0000 10B5     		push	{r4, lr}
 701              	.LCFI8:
 702              		.cfi_def_cfa_offset 8
 703              		.cfi_offset 4, -8
 704              		.cfi_offset 14, -4
 705              	.LBB44:
 706              		.loc 1 308 0
 707 0002 2023     		movs	r3, #32
 708              	.LVL65:
 709              	.LBE44:
 710              		.loc 1 306 0
 711 0004 0446     		mov	r4, r0
 712              	.LBB45:
 713              		.loc 1 308 0
 714              	@ 308 "../../os/kernel/src/chthreads.c" 1
 715 0006 83F31188 		msr     BASEPRI, r3
 716              	@ 0 "" 2
 717              	.LVL66:
 718              		.thumb
 719              	.LBE45:
 720 000a FFF7FEFF 		bl	dbg_check_lock
 721              	.LVL67:
 722              		.loc 1 309 0
 723 000e 064B     		ldr	r3, .L50
 724 0010 D968     		ldr	r1, [r3, #12]
 725              	.LVL68:
 726 0012 611A     		subs	r1, r4, r1
 727              	.LVL69:
 728 0014 02D0     		beq	.L46
 729              		.loc 1 310 0
 730 0016 0620     		movs	r0, #6
 731 0018 FFF7FEFF 		bl	chSchGoSleepTimeoutS
 732              	.LVL70:
 733              	.L46:
 734              		.loc 1 311 0
ARM GAS  /var/folders/dt/0wfd0knj7gs46m8vwfzktm600000gn/T//ccnlFFmn.s 			page 14


 735 001c FFF7FEFF 		bl	dbg_check_unlock
 736              	.LVL71:
 737              	.LBB46:
 738 0020 0023     		movs	r3, #0
 739              	.LVL72:
 740              	@ 311 "../../os/kernel/src/chthreads.c" 1
 741 0022 83F31188 		msr     BASEPRI, r3
 742              	@ 0 "" 2
 743              	.LVL73:
 744              		.thumb
 745 0026 10BD     		pop	{r4, pc}
 746              	.L51:
 747              		.align	2
 748              	.L50:
 749 0028 00000000 		.word	vtlist
 750              	.LBE46:
 751              		.cfi_endproc
 752              	.LFE15:
 753              		.size	chThdSleepUntil, .-chThdSleepUntil
 754 002c AFF30080 		.section	.text.chThdYield,"ax",%progbits
 755              		.align	2
 756              		.p2align 4,,15
 757              		.global	chThdYield
 758              		.thumb
 759              		.thumb_func
 760              		.type	chThdYield, %function
 761              	chThdYield:
 762              	.LFB16:
 763              		.loc 1 321 0
 764              		.cfi_startproc
 765              		@ args = 0, pretend = 0, frame = 0
 766              		@ frame_needed = 0, uses_anonymous_args = 0
 767 0000 08B5     		push	{r3, lr}
 768              	.LCFI9:
 769              		.cfi_def_cfa_offset 8
 770              		.cfi_offset 3, -8
 771              		.cfi_offset 14, -4
 772              	.LBB47:
 773              		.loc 1 323 0
 774 0002 2023     		movs	r3, #32
 775              	.LVL74:
 776              	@ 323 "../../os/kernel/src/chthreads.c" 1
 777 0004 83F31188 		msr     BASEPRI, r3
 778              	@ 0 "" 2
 779              	.LVL75:
 780              		.thumb
 781              	.LBE47:
 782 0008 FFF7FEFF 		bl	dbg_check_lock
 783              	.LVL76:
 784              		.loc 1 324 0
 785 000c 074B     		ldr	r3, .L54
 786 000e 1A68     		ldr	r2, [r3, #0]
 787 0010 DB69     		ldr	r3, [r3, #28]
 788 0012 9268     		ldr	r2, [r2, #8]
 789 0014 9B68     		ldr	r3, [r3, #8]
 790 0016 9A42     		cmp	r2, r3
 791 0018 01D3     		bcc	.L53
ARM GAS  /var/folders/dt/0wfd0knj7gs46m8vwfzktm600000gn/T//ccnlFFmn.s 			page 15


 792              		.loc 1 324 0 is_stmt 0 discriminator 1
 793 001a FFF7FEFF 		bl	chSchDoReschedule
 794              	.LVL77:
 795              	.L53:
 796              		.loc 1 325 0 is_stmt 1
 797 001e FFF7FEFF 		bl	dbg_check_unlock
 798              	.LVL78:
 799              	.LBB48:
 800 0022 0023     		movs	r3, #0
 801              	.LVL79:
 802              	@ 325 "../../os/kernel/src/chthreads.c" 1
 803 0024 83F31188 		msr     BASEPRI, r3
 804              	@ 0 "" 2
 805              	.LVL80:
 806              		.thumb
 807 0028 08BD     		pop	{r3, pc}
 808              	.L55:
 809 002a 00BF     		.align	2
 810              	.L54:
 811 002c 00000000 		.word	rlist
 812              	.LBE48:
 813              		.cfi_endproc
 814              	.LFE16:
 815              		.size	chThdYield, .-chThdYield
 816              		.section	.text.chThdExitS,"ax",%progbits
 817              		.align	2
 818              		.p2align 4,,15
 819              		.global	chThdExitS
 820              		.thumb
 821              		.thumb_func
 822              		.type	chThdExitS, %function
 823              	chThdExitS:
 824              	.LFB18:
 825              		.loc 1 363 0
 826              		.cfi_startproc
 827              		@ args = 0, pretend = 0, frame = 0
 828              		@ frame_needed = 0, uses_anonymous_args = 0
 829              	.LVL81:
 830 0000 38B5     		push	{r3, r4, r5, lr}
 831              	.LCFI10:
 832              		.cfi_def_cfa_offset 16
 833              		.cfi_offset 3, -16
 834              		.cfi_offset 4, -12
 835              		.cfi_offset 5, -8
 836              		.cfi_offset 14, -4
 837              		.loc 1 364 0
 838 0002 104B     		ldr	r3, .L64
 839 0004 DC69     		ldr	r4, [r3, #28]
 840              	.LVL82:
 841              		.loc 1 371 0
 842 0006 2546     		mov	r5, r4
 843 0008 55F82C3F 		ldr	r3, [r5, #44]!
 844              		.loc 1 366 0
 845 000c A062     		str	r0, [r4, #40]
 846              		.loc 1 371 0
 847 000e AB42     		cmp	r3, r5
 848 0010 07D0     		beq	.L61
ARM GAS  /var/folders/dt/0wfd0knj7gs46m8vwfzktm600000gn/T//ccnlFFmn.s 			page 16


 849              	.LVL83:
 850              	.L62:
 851              	.LBB49:
 852              	.LBB50:
 853              		.file 2 "../../os/kernel/include/chinline.h"
 854              		.loc 2 89 0
 855 0012 1A68     		ldr	r2, [r3, #0]
 856              	.LBE50:
 857              	.LBE49:
 858              		.loc 1 372 0
 859 0014 1846     		mov	r0, r3
 860              	.LBB52:
 861              	.LBB51:
 862              		.loc 2 89 0
 863 0016 E262     		str	r2, [r4, #44]
 864              	.LBE51:
 865              	.LBE52:
 866              		.loc 1 372 0
 867 0018 FFF7FEFF 		bl	chSchReadyI
 868              	.LVL84:
 869              		.loc 1 371 0
 870 001c E36A     		ldr	r3, [r4, #44]
 871 001e AB42     		cmp	r3, r5
 872 0020 F7D1     		bne	.L62
 873              	.LVL85:
 874              	.L61:
 875              		.loc 1 377 0
 876 0022 94F82130 		ldrb	r3, [r4, #33]	@ zero_extendqisi2
 877 0026 9B07     		lsls	r3, r3, #30
 878 0028 04D1     		bne	.L59
 879              		.loc 1 378 0
 880 002a 6369     		ldr	r3, [r4, #20]
 881 002c 2269     		ldr	r2, [r4, #16]
 882 002e 1A61     		str	r2, [r3, #16]
 883 0030 2269     		ldr	r2, [r4, #16]
 884 0032 5361     		str	r3, [r2, #20]
 885              	.L59:
 886              		.loc 1 380 0
 887 0034 0E20     		movs	r0, #14
 888 0036 FFF7FEFF 		bl	chSchGoSleepS
 889              	.LVL86:
 890              		.loc 1 382 0
 891 003a 0348     		ldr	r0, .L64+4
 892              		.loc 1 383 0
 893 003c BDE83840 		pop	{r3, r4, r5, lr}
 894              		.loc 1 382 0
 895 0040 FFF7FEBF 		b	chDbgPanic
 896              	.LVL87:
 897              	.L65:
 898              		.align	2
 899              	.L64:
 900 0044 00000000 		.word	rlist
 901 0048 50000000 		.word	.LC4
 902              		.cfi_endproc
 903              	.LFE18:
 904              		.size	chThdExitS, .-chThdExitS
 905 004c AFF30080 		.section	.text.chThdExit,"ax",%progbits
ARM GAS  /var/folders/dt/0wfd0knj7gs46m8vwfzktm600000gn/T//ccnlFFmn.s 			page 17


 906              		.align	2
 907              		.p2align 4,,15
 908              		.global	chThdExit
 909              		.thumb
 910              		.thumb_func
 911              		.type	chThdExit, %function
 912              	chThdExit:
 913              	.LFB17:
 914              		.loc 1 342 0
 915              		.cfi_startproc
 916              		@ args = 0, pretend = 0, frame = 0
 917              		@ frame_needed = 0, uses_anonymous_args = 0
 918              	.LVL88:
 919 0000 10B5     		push	{r4, lr}
 920              	.LCFI11:
 921              		.cfi_def_cfa_offset 8
 922              		.cfi_offset 4, -8
 923              		.cfi_offset 14, -4
 924              	.LBB53:
 925              		.loc 1 344 0
 926 0002 2023     		movs	r3, #32
 927              	.LVL89:
 928              	.LBE53:
 929              		.loc 1 342 0
 930 0004 0446     		mov	r4, r0
 931              	.LBB54:
 932              		.loc 1 344 0
 933              	@ 344 "../../os/kernel/src/chthreads.c" 1
 934 0006 83F31188 		msr     BASEPRI, r3
 935              	@ 0 "" 2
 936              	.LVL90:
 937              		.thumb
 938              	.LBE54:
 939 000a FFF7FEFF 		bl	dbg_check_lock
 940              	.LVL91:
 941              		.loc 1 345 0
 942 000e 2046     		mov	r0, r4
 943              		.loc 1 347 0
 944 0010 BDE81040 		pop	{r4, lr}
 945              		.loc 1 345 0
 946 0014 FFF7FEBF 		b	chThdExitS
 947              	.LVL92:
 948              		.cfi_endproc
 949              	.LFE17:
 950              		.size	chThdExit, .-chThdExit
 951 0018 AFF30080 		.section	.text.chThdWait,"ax",%progbits
 951      AFF30080 
 952              		.align	2
 953              		.p2align 4,,15
 954              		.global	chThdWait
 955              		.thumb
 956              		.thumb_func
 957              		.type	chThdWait, %function
 958              	chThdWait:
 959              	.LFB19:
 960              		.loc 1 417 0
 961              		.cfi_startproc
ARM GAS  /var/folders/dt/0wfd0knj7gs46m8vwfzktm600000gn/T//ccnlFFmn.s 			page 18


 962              		@ args = 0, pretend = 0, frame = 0
 963              		@ frame_needed = 0, uses_anonymous_args = 0
 964              	.LVL93:
 965 0000 38B5     		push	{r3, r4, r5, lr}
 966              	.LCFI12:
 967              		.cfi_def_cfa_offset 16
 968              		.cfi_offset 3, -16
 969              		.cfi_offset 4, -12
 970              		.cfi_offset 5, -8
 971              		.cfi_offset 14, -4
 972              		.loc 1 420 0
 973 0002 0446     		mov	r4, r0
 974 0004 48B3     		cbz	r0, .L75
 975              	.LVL94:
 976              	.L68:
 977              	.LBB55:
 978              		.loc 1 422 0
 979 0006 2023     		movs	r3, #32
 980              	.LVL95:
 981              	@ 422 "../../os/kernel/src/chthreads.c" 1
 982 0008 83F31188 		msr     BASEPRI, r3
 983              	@ 0 "" 2
 984              	.LVL96:
 985              		.thumb
 986              	.LBE55:
 987              		.loc 1 423 0
 988 000c 154D     		ldr	r5, .L78
 989              		.loc 1 422 0
 990 000e FFF7FEFF 		bl	dbg_check_lock
 991              	.LVL97:
 992              		.loc 1 423 0
 993 0012 EB69     		ldr	r3, [r5, #28]
 994 0014 A342     		cmp	r3, r4
 995 0016 1CD0     		beq	.L76
 996              	.L69:
 997              		.loc 1 425 0
 998 0018 94F82230 		ldrb	r3, [r4, #34]	@ zero_extendqisi2
 999 001c ABB1     		cbz	r3, .L77
 1000              	.L70:
 1001              		.loc 1 427 0
 1002 001e 94F82030 		ldrb	r3, [r4, #32]	@ zero_extendqisi2
 1003 0022 0E2B     		cmp	r3, #14
 1004 0024 06D0     		beq	.L71
 1005              		.loc 1 428 0
 1006 0026 EB69     		ldr	r3, [r5, #28]
 1007              	.LVL98:
 1008              	.LBB56:
 1009              	.LBB57:
 1010              		.loc 2 82 0
 1011 0028 E26A     		ldr	r2, [r4, #44]
 1012              	.LBE57:
 1013              	.LBE56:
 1014              		.loc 1 429 0
 1015 002a 0720     		movs	r0, #7
 1016              	.LBB59:
 1017              	.LBB58:
 1018              		.loc 2 82 0
ARM GAS  /var/folders/dt/0wfd0knj7gs46m8vwfzktm600000gn/T//ccnlFFmn.s 			page 19


 1019 002c 1A60     		str	r2, [r3, #0]
 1020              		.loc 2 83 0
 1021 002e E362     		str	r3, [r4, #44]
 1022              	.LBE58:
 1023              	.LBE59:
 1024              		.loc 1 429 0
 1025 0030 FFF7FEFF 		bl	chSchGoSleepS
 1026              	.LVL99:
 1027              	.L71:
 1028              		.loc 1 431 0
 1029 0034 A56A     		ldr	r5, [r4, #40]
 1030              	.LVL100:
 1031              		.loc 1 432 0
 1032 0036 FFF7FEFF 		bl	dbg_check_unlock
 1033              	.LVL101:
 1034              	.LBB60:
 1035 003a 0023     		movs	r3, #0
 1036              	.LVL102:
 1037              	@ 432 "../../os/kernel/src/chthreads.c" 1
 1038 003c 83F31188 		msr     BASEPRI, r3
 1039              	@ 0 "" 2
 1040              	.LVL103:
 1041              		.thumb
 1042              	.LBE60:
 1043              		.loc 1 434 0
 1044 0040 2046     		mov	r0, r4
 1045 0042 FFF7FEFF 		bl	chThdRelease
 1046              	.LVL104:
 1047              		.loc 1 437 0
 1048 0046 2846     		mov	r0, r5
 1049 0048 38BD     		pop	{r3, r4, r5, pc}
 1050              	.LVL105:
 1051              	.L77:
 1052              		.loc 1 425 0 discriminator 1
 1053 004a 0748     		ldr	r0, .L78+4
 1054 004c FFF7FEFF 		bl	chDbgPanic
 1055              	.LVL106:
 1056 0050 E5E7     		b	.L70
 1057              	.L76:
 1058              		.loc 1 423 0 discriminator 1
 1059 0052 0648     		ldr	r0, .L78+8
 1060 0054 FFF7FEFF 		bl	chDbgPanic
 1061              	.LVL107:
 1062 0058 DEE7     		b	.L69
 1063              	.LVL108:
 1064              	.L75:
 1065              		.loc 1 420 0 discriminator 1
 1066 005a 0548     		ldr	r0, .L78+12
 1067              	.LVL109:
 1068 005c FFF7FEFF 		bl	chDbgPanic
 1069              	.LVL110:
 1070 0060 D1E7     		b	.L68
 1071              	.L79:
 1072 0062 00BF     		.align	2
 1073              	.L78:
 1074 0064 00000000 		.word	rlist
 1075 0068 84000000 		.word	.LC7
ARM GAS  /var/folders/dt/0wfd0knj7gs46m8vwfzktm600000gn/T//ccnlFFmn.s 			page 20


 1076 006c 74000000 		.word	.LC6
 1077 0070 64000000 		.word	.LC5
 1078              		.cfi_endproc
 1079              	.LFE19:
 1080              		.size	chThdWait, .-chThdWait
 1081 0074 AFF30080 		.section	.rodata.str1.4,"aMS",%progbits,1
 1081      AFF30080 
 1081      AFF30080 
 1082              		.align	2
 1083              	.LC0:
 1084 0000 22636854 		.ascii	"\"chThdCreateI\"()\000"
 1084      68644372 
 1084      65617465 
 1084      49222829 
 1084      00
 1085 0011 000000   		.space	3
 1086              	.LC1:
 1087 0014 22636854 		.ascii	"\"chThdSetPriority\"()\000"
 1087      68645365 
 1087      74507269 
 1087      6F726974 
 1087      79222829 
 1088 0029 000000   		.space	3
 1089              	.LC2:
 1090 002c 63685468 		.ascii	"chThdResume(), #1\000"
 1090      64526573 
 1090      756D6528 
 1090      292C2023 
 1090      3100
 1091 003e 0000     		.space	2
 1092              	.LC3:
 1093 0040 22636854 		.ascii	"\"chThdSleep\"()\000"
 1093      6864536C 
 1093      65657022 
 1093      282900
 1094 004f 00       		.space	1
 1095              	.LC4:
 1096 0050 63685468 		.ascii	"chThdExitS(), #1\000"
 1096      64457869 
 1096      74532829 
 1096      2C202331 
 1096      00
 1097 0061 000000   		.space	3
 1098              	.LC5:
 1099 0064 22636854 		.ascii	"\"chThdWait\"()\000"
 1099      68645761 
 1099      69742228 
 1099      2900
 1100 0072 0000     		.space	2
 1101              	.LC6:
 1102 0074 63685468 		.ascii	"chThdWait(), #1\000"
 1102      64576169 
 1102      7428292C 
 1102      20233100 
 1103              	.LC7:
 1104 0084 63685468 		.ascii	"chThdWait(), #2\000"
 1104      64576169 
ARM GAS  /var/folders/dt/0wfd0knj7gs46m8vwfzktm600000gn/T//ccnlFFmn.s 			page 21


 1104      7428292C 
 1104      20233200 
 1105              		.text
 1106              	.Letext0:
 1107              		.file 3 "/Users/toxygen/Applications/yagarto-4.7.2/bin/../lib/gcc/arm-none-eabi/4.7.2/include/stdd
 1108              		.file 4 "/Users/toxygen/Applications/yagarto-4.7.2/bin/../lib/gcc/arm-none-eabi/4.7.2/../../../../
 1109              		.file 5 "../../os/ports/GCC/ARMCMx/chtypes.h"
 1110              		.file 6 "../../os/kernel/include/chlists.h"
 1111              		.file 7 "../../os/kernel/include/chthreads.h"
 1112              		.file 8 "../../os/ports/GCC/ARMCMx/chcore_v7m.h"
 1113              		.file 9 "../../os/kernel/include/chvt.h"
 1114              		.file 10 "../../os/kernel/include/chschd.h"
 1115              		.file 11 "../../os/kernel/include/chmtx.h"
 1116              		.file 12 "../../os/kernel/include/chdebug.h"
 1117              		.file 13 "../../os/kernel/include/chdynamic.h"