ARM GAS  /var/folders/dt/0wfd0knj7gs46m8vwfzktm600000gn/T//ccCwOZwR.s 			page 1


   1              		.syntax unified
   2              		.cpu cortex-m3
   3              		.fpu softvfp
   4              		.eabi_attribute 20, 1
   5              		.eabi_attribute 21, 1
   6              		.eabi_attribute 23, 3
   7              		.eabi_attribute 24, 1
   8              		.eabi_attribute 25, 1
   9              		.eabi_attribute 26, 1
  10              		.eabi_attribute 30, 2
  11              		.eabi_attribute 34, 1
  12              		.eabi_attribute 18, 4
  13              		.thumb
  14              		.file	"chvt.c"
  15              		.text
  16              	.Ltext0:
  17              		.cfi_sections	.debug_frame
  18              		.section	.text._vt_init,"ax",%progbits
  19              		.align	2
  20              		.p2align 4,,15
  21              		.global	_vt_init
  22              		.thumb
  23              		.thumb_func
  24              		.type	_vt_init, %function
  25              	_vt_init:
  26              	.LFB7:
  27              		.file 1 "../../os/kernel/src/chvt.c"
  28              		.loc 1 50 0
  29              		.cfi_startproc
  30              		@ args = 0, pretend = 0, frame = 0
  31              		@ frame_needed = 0, uses_anonymous_args = 0
  32              		@ link register save eliminated.
  33              		.loc 1 52 0
  34 0000 40F20003 		movw	r3, #:lower16:.LANCHOR0
  35 0004 C0F20003 		movt	r3, #:upper16:.LANCHOR0
  36              		.loc 1 53 0
  37 0008 4FF0FF32 		mov	r2, #-1
  38 000c 9A60     		str	r2, [r3, #8]
  39              		.loc 1 54 0
  40 000e 0022     		movs	r2, #0
  41              		.loc 1 52 0
  42 0010 5B60     		str	r3, [r3, #4]
  43 0012 1B60     		str	r3, [r3, #0]
  44              		.loc 1 54 0
  45 0014 DA60     		str	r2, [r3, #12]
  46 0016 7047     		bx	lr
  47              		.cfi_endproc
  48              	.LFE7:
  49              		.size	_vt_init, .-_vt_init
  50 0018 AFF30080 		.section	.text.chVTSetI,"ax",%progbits
  50      AFF30080 
  51              		.align	2
  52              		.p2align 4,,15
  53              		.global	chVTSetI
  54              		.thumb
  55              		.thumb_func
  56              		.type	chVTSetI, %function
ARM GAS  /var/folders/dt/0wfd0knj7gs46m8vwfzktm600000gn/T//ccCwOZwR.s 			page 2


  57              	chVTSetI:
  58              	.LFB8:
  59              		.loc 1 77 0
  60              		.cfi_startproc
  61              		@ args = 0, pretend = 0, frame = 0
  62              		@ frame_needed = 0, uses_anonymous_args = 0
  63              	.LVL0:
  64 0000 F8B5     		push	{r3, r4, r5, r6, r7, lr}
  65              	.LCFI0:
  66              		.cfi_def_cfa_offset 24
  67              		.cfi_offset 3, -24
  68              		.cfi_offset 4, -20
  69              		.cfi_offset 5, -16
  70              		.cfi_offset 6, -12
  71              		.cfi_offset 7, -8
  72              		.cfi_offset 14, -4
  73              		.loc 1 77 0
  74 0002 0546     		mov	r5, r0
  75 0004 1646     		mov	r6, r2
  76 0006 0C46     		mov	r4, r1
  77 0008 1F46     		mov	r7, r3
  78              		.loc 1 80 0
  79 000a FFF7FEFF 		bl	chDbgCheckClassI
  80              	.LVL1:
  81              		.loc 1 81 0
  82 000e 002D     		cmp	r5, #0
  83 0010 18BF     		it	ne
  84 0012 002E     		cmpne	r6, #0
  85 0014 1AD0     		beq	.L3
  86              		.loc 1 81 0 is_stmt 0 discriminator 2
  87 0016 CCB1     		cbz	r4, .L3
  88              	.L4:
  89              		.loc 1 86 0 is_stmt 1
  90 0018 0E49     		ldr	r1, .L11
  91              		.loc 1 84 0
  92 001a 2F61     		str	r7, [r5, #16]
  93              		.loc 1 86 0
  94 001c 0B68     		ldr	r3, [r1, #0]
  95              	.LVL2:
  96              		.loc 1 85 0
  97 001e EE60     		str	r6, [r5, #12]
  98              		.loc 1 87 0
  99 0020 9A68     		ldr	r2, [r3, #8]
 100 0022 9442     		cmp	r4, r2
 101 0024 04D9     		bls	.L5
 102              	.L8:
 103              		.loc 1 89 0
 104 0026 1B68     		ldr	r3, [r3, #0]
 105              	.LVL3:
 106              		.loc 1 88 0
 107 0028 A41A     		subs	r4, r4, r2
 108              	.LVL4:
 109              		.loc 1 87 0
 110 002a 9A68     		ldr	r2, [r3, #8]
 111 002c A242     		cmp	r2, r4
 112 002e FAD3     		bcc	.L8
 113              	.L5:
ARM GAS  /var/folders/dt/0wfd0knj7gs46m8vwfzktm600000gn/T//ccCwOZwR.s 			page 3


 114              		.loc 1 92 0
 115 0030 5A68     		ldr	r2, [r3, #4]
 116              		.loc 1 94 0
 117 0032 AC60     		str	r4, [r5, #8]
 118              		.loc 1 95 0
 119 0034 8B42     		cmp	r3, r1
 120              		.loc 1 92 0
 121 0036 6A60     		str	r2, [r5, #4]
 122 0038 2B60     		str	r3, [r5, #0]
 123              		.loc 1 93 0
 124 003a 1560     		str	r5, [r2, #0]
 125              		.loc 1 96 0
 126 003c 18BF     		it	ne
 127 003e 9A68     		ldrne	r2, [r3, #8]
 128              		.loc 1 93 0
 129 0040 5D60     		str	r5, [r3, #4]
 130              		.loc 1 96 0
 131 0042 1CBF     		itt	ne
 132 0044 C4EB0204 		rsbne	r4, r4, r2
 133              	.LVL5:
 134 0048 9C60     		strne	r4, [r3, #8]
 135 004a F8BD     		pop	{r3, r4, r5, r6, r7, pc}
 136              	.LVL6:
 137              	.L3:
 138              		.loc 1 81 0 discriminator 1
 139 004c 0248     		ldr	r0, .L11+4
 140 004e FFF7FEFF 		bl	chDbgPanic
 141              	.LVL7:
 142 0052 E1E7     		b	.L4
 143              	.L12:
 144              		.align	2
 145              	.L11:
 146 0054 00000000 		.word	.LANCHOR0
 147 0058 00000000 		.word	.LC0
 148              		.cfi_endproc
 149              	.LFE8:
 150              		.size	chVTSetI, .-chVTSetI
 151 005c AFF30080 		.section	.text.chVTResetI,"ax",%progbits
 152              		.align	2
 153              		.p2align 4,,15
 154              		.global	chVTResetI
 155              		.thumb
 156              		.thumb_func
 157              		.type	chVTResetI, %function
 158              	chVTResetI:
 159              	.LFB9:
 160              		.loc 1 107 0
 161              		.cfi_startproc
 162              		@ args = 0, pretend = 0, frame = 0
 163              		@ frame_needed = 0, uses_anonymous_args = 0
 164              	.LVL8:
 165 0000 10B5     		push	{r4, lr}
 166              	.LCFI1:
 167              		.cfi_def_cfa_offset 8
 168              		.cfi_offset 4, -8
 169              		.cfi_offset 14, -4
 170              		.loc 1 107 0
ARM GAS  /var/folders/dt/0wfd0knj7gs46m8vwfzktm600000gn/T//ccCwOZwR.s 			page 4


 171 0002 0446     		mov	r4, r0
 172              		.loc 1 109 0
 173 0004 FFF7FEFF 		bl	chDbgCheckClassI
 174              	.LVL9:
 175              		.loc 1 110 0
 176 0008 84B1     		cbz	r4, .L17
 177              	.L14:
 178              		.loc 1 111 0
 179 000a E368     		ldr	r3, [r4, #12]
 180 000c 93B1     		cbz	r3, .L18
 181              	.L15:
 182              		.loc 1 115 0
 183 000e 2368     		ldr	r3, [r4, #0]
 184 0010 0A4A     		ldr	r2, .L19
 185 0012 9342     		cmp	r3, r2
 186              		.loc 1 116 0
 187 0014 1FBF     		itttt	ne
 188 0016 9968     		ldrne	r1, [r3, #8]
 189 0018 A268     		ldrne	r2, [r4, #8]
 190 001a 8A18     		addne	r2, r1, r2
 191 001c 9A60     		strne	r2, [r3, #8]
 192              		.loc 1 117 0
 193 001e 6268     		ldr	r2, [r4, #4]
 194              		.loc 1 119 0
 195 0020 0021     		movs	r1, #0
 196              		.loc 1 117 0
 197 0022 1360     		str	r3, [r2, #0]
 198              		.loc 1 118 0
 199 0024 2368     		ldr	r3, [r4, #0]
 200              		.loc 1 119 0
 201 0026 E160     		str	r1, [r4, #12]
 202              		.loc 1 118 0
 203 0028 5A60     		str	r2, [r3, #4]
 204 002a 10BD     		pop	{r4, pc}
 205              	.L17:
 206              		.loc 1 110 0 discriminator 1
 207 002c 0448     		ldr	r0, .L19+4
 208 002e FFF7FEFF 		bl	chDbgPanic
 209              	.LVL10:
 210 0032 EAE7     		b	.L14
 211              	.L18:
 212              		.loc 1 111 0 discriminator 1
 213 0034 0348     		ldr	r0, .L19+8
 214 0036 FFF7FEFF 		bl	chDbgPanic
 215              	.LVL11:
 216 003a E8E7     		b	.L15
 217              	.L20:
 218              		.align	2
 219              	.L19:
 220 003c 00000000 		.word	.LANCHOR0
 221 0040 10000000 		.word	.LC1
 222 0044 20000000 		.word	.LC2
 223              		.cfi_endproc
 224              	.LFE9:
 225              		.size	chVTResetI, .-chVTResetI
 226 0048 AFF30080 		.section	.text.chTimeIsWithin,"ax",%progbits
 226      AFF30080 
ARM GAS  /var/folders/dt/0wfd0knj7gs46m8vwfzktm600000gn/T//ccCwOZwR.s 			page 5


 227              		.align	2
 228              		.p2align 4,,15
 229              		.global	chTimeIsWithin
 230              		.thumb
 231              		.thumb_func
 232              		.type	chTimeIsWithin, %function
 233              	chTimeIsWithin:
 234              	.LFB10:
 235              		.loc 1 135 0
 236              		.cfi_startproc
 237              		@ args = 0, pretend = 0, frame = 0
 238              		@ frame_needed = 0, uses_anonymous_args = 0
 239              		@ link register save eliminated.
 240              	.LVL12:
 241              		.loc 1 137 0
 242 0000 0B4A     		ldr	r2, .L25
 243              		.loc 1 138 0
 244 0002 8142     		cmp	r1, r0
 245              		.loc 1 135 0
 246 0004 0346     		mov	r3, r0
 247              		.loc 1 137 0
 248 0006 D268     		ldr	r2, [r2, #12]
 249              	.LVL13:
 250              		.loc 1 138 0
 251 0008 09D8     		bhi	.L24
 252              		.loc 1 139 0 discriminator 2
 253 000a 8242     		cmp	r2, r0
 254 000c 34BF     		ite	cc
 255 000e 0023     		movcc	r3, #0
 256 0010 0123     		movcs	r3, #1
 257              		.loc 1 138 0 discriminator 2
 258 0012 8A42     		cmp	r2, r1
 259 0014 2CBF     		ite	cs
 260 0016 1846     		movcs	r0, r3
 261 0018 43F00100 		orrcc	r0, r3, #1
 262              	.LVL14:
 263              		.loc 1 140 0 discriminator 2
 264 001c 7047     		bx	lr
 265              	.LVL15:
 266              	.L24:
 267              		.loc 1 138 0 discriminator 1
 268 001e 8A42     		cmp	r2, r1
 269 0020 2CBF     		ite	cs
 270 0022 0020     		movcs	r0, #0
 271              	.LVL16:
 272 0024 0120     		movcc	r0, #1
 273 0026 9A42     		cmp	r2, r3
 274 0028 38BF     		it	cc
 275 002a 0020     		movcc	r0, #0
 276 002c 7047     		bx	lr
 277              	.L26:
 278 002e 00BF     		.align	2
 279              	.L25:
 280 0030 00000000 		.word	.LANCHOR0
 281              		.cfi_endproc
 282              	.LFE10:
 283              		.size	chTimeIsWithin, .-chTimeIsWithin
ARM GAS  /var/folders/dt/0wfd0knj7gs46m8vwfzktm600000gn/T//ccCwOZwR.s 			page 6


 284              		.global	vtlist
 285 0034 AFF30080 		.section	.bss.vtlist,"aw",%nobits
 285      AFF30080 
 285      AFF30080 
 286              		.align	2
 287              		.set	.LANCHOR0,. + 0
 288              		.type	vtlist, %object
 289              		.size	vtlist, 16
 290              	vtlist:
 291 0000 00000000 		.space	16
 291      00000000 
 291      00000000 
 291      00000000 
 292              		.section	.rodata.str1.4,"aMS",%progbits,1
 293              		.align	2
 294              	.LC0:
 295 0000 22636856 		.ascii	"\"chVTSetI\"()\000"
 295      54536574 
 295      49222829 
 295      00
 296 000d 000000   		.space	3
 297              	.LC1:
 298 0010 22636856 		.ascii	"\"chVTResetI\"()\000"
 298      54526573 
 298      65744922 
 298      282900
 299 001f 00       		.space	1
 300              	.LC2:
 301 0020 63685654 		.ascii	"chVTResetI(), #1\000"
 301      52657365 
 301      74492829 
 301      2C202331 
 301      00
 302 0031 000000   		.text
 303              	.Letext0:
 304              		.file 2 "/Users/toxygen/Applications/yagarto-4.7.2/bin/../lib/gcc/arm-none-eabi/4.7.2/../../../../
 305              		.file 3 "../../os/ports/GCC/ARMCMx/chtypes.h"
 306              		.file 4 "../../os/kernel/include/chvt.h"
 307              		.file 5 "../../os/kernel/include/chdebug.h"