ARM GAS  /var/folders/dt/0wfd0knj7gs46m8vwfzktm600000gn/T//ccfGeiFg.s 			page 1


   1              		.syntax unified
   2              		.cpu cortex-m3
   3              		.fpu softvfp
   4              		.eabi_attribute 20, 1
   5              		.eabi_attribute 21, 1
   6              		.eabi_attribute 23, 3
   7              		.eabi_attribute 24, 1
   8              		.eabi_attribute 25, 1
   9              		.eabi_attribute 26, 1
  10              		.eabi_attribute 30, 2
  11              		.eabi_attribute 34, 1
  12              		.eabi_attribute 18, 4
  13              		.thumb
  14              		.file	"hal.c"
  15              		.text
  16              	.Ltext0:
  17              		.cfi_sections	.debug_frame
  18              		.section	.text.halInit,"ax",%progbits
  19              		.align	2
  20              		.p2align 4,,15
  21              		.global	halInit
  22              		.thumb
  23              		.thumb_func
  24              		.type	halInit, %function
  25              	halInit:
  26              	.LFB62:
  27              		.file 1 "../../os/hal/src/hal.c"
  28              		.loc 1 68 0
  29              		.cfi_startproc
  30              		@ args = 0, pretend = 0, frame = 0
  31              		@ frame_needed = 0, uses_anonymous_args = 0
  32 0000 08B5     		push	{r3, lr}
  33              	.LCFI0:
  34              		.cfi_def_cfa_offset 8
  35              		.cfi_offset 3, -8
  36              		.cfi_offset 14, -4
  37              		.loc 1 70 0
  38 0002 FFF7FEFF 		bl	hal_lld_init
  39              	.LVL0:
  40              		.loc 1 73 0
  41 0006 FFF7FEFF 		bl	tmInit
  42              	.LVL1:
  43              		.loc 1 76 0
  44 000a 40F20000 		movw	r0, #:lower16:pal_default_config
  45 000e C0F20000 		movt	r0, #:upper16:pal_default_config
  46 0012 FFF7FEFF 		bl	_pal_lld_init
  47              	.LVL2:
  48              		.loc 1 103 0
  49 0016 FFF7FEFF 		bl	sdInit
  50              	.LVL3:
  51              		.loc 1 128 0
  52 001a BDE80840 		pop	{r3, lr}
  53              		.loc 1 127 0
  54 001e FFF7FEBF 		b	boardInit
  55              	.LVL4:
  56              		.cfi_endproc
  57              	.LFE62:
ARM GAS  /var/folders/dt/0wfd0knj7gs46m8vwfzktm600000gn/T//ccfGeiFg.s 			page 2


  58              		.size	halInit, .-halInit
  59 0022 00BFAFF3 		.section	.text.halIsCounterWithin,"ax",%progbits
  59      0080AFF3 
  59      0080AFF3 
  59      0080
  60              		.align	2
  61              		.p2align 4,,15
  62              		.global	halIsCounterWithin
  63              		.thumb
  64              		.thumb_func
  65              		.type	halIsCounterWithin, %function
  66              	halIsCounterWithin:
  67              	.LFB63:
  68              		.loc 1 174 0
  69              		.cfi_startproc
  70              		@ args = 0, pretend = 0, frame = 0
  71              		@ frame_needed = 0, uses_anonymous_args = 0
  72              		@ link register save eliminated.
  73              	.LVL5:
  74              		.loc 1 175 0
  75 0000 4FF48053 		mov	r3, #4096
  76 0004 CEF20003 		movt	r3, 57344
  77              		.loc 1 177 0
  78 0008 8142     		cmp	r1, r0
  79              		.loc 1 174 0
  80 000a 0246     		mov	r2, r0
  81              		.loc 1 175 0
  82 000c 5B68     		ldr	r3, [r3, #4]
  83              	.LVL6:
  84              		.loc 1 177 0
  85 000e 09D8     		bhi	.L6
  86              		.loc 1 178 0 discriminator 2
  87 0010 8342     		cmp	r3, r0
  88 0012 34BF     		ite	cc
  89 0014 0022     		movcc	r2, #0
  90 0016 0122     		movcs	r2, #1
  91              		.loc 1 177 0 discriminator 2
  92 0018 8B42     		cmp	r3, r1
  93 001a 2CBF     		ite	cs
  94 001c 1046     		movcs	r0, r2
  95 001e 42F00100 		orrcc	r0, r2, #1
  96              	.LVL7:
  97              		.loc 1 179 0 discriminator 2
  98 0022 7047     		bx	lr
  99              	.LVL8:
 100              	.L6:
 101              		.loc 1 177 0 discriminator 1
 102 0024 8B42     		cmp	r3, r1
 103 0026 2CBF     		ite	cs
 104 0028 0020     		movcs	r0, #0
 105              	.LVL9:
 106 002a 0120     		movcc	r0, #1
 107 002c 9342     		cmp	r3, r2
 108 002e 38BF     		it	cc
 109 0030 0020     		movcc	r0, #0
 110 0032 7047     		bx	lr
 111              		.cfi_endproc
ARM GAS  /var/folders/dt/0wfd0knj7gs46m8vwfzktm600000gn/T//ccfGeiFg.s 			page 3


 112              	.LFE63:
 113              		.size	halIsCounterWithin, .-halIsCounterWithin
 114 0034 AFF30080 		.section	.text.halPolledDelay,"ax",%progbits
 114      AFF30080 
 114      AFF30080 
 115              		.align	2
 116              		.p2align 4,,15
 117              		.global	halPolledDelay
 118              		.thumb
 119              		.thumb_func
 120              		.type	halPolledDelay, %function
 121              	halPolledDelay:
 122              	.LFB64:
 123              		.loc 1 193 0
 124              		.cfi_startproc
 125              		@ args = 0, pretend = 0, frame = 0
 126              		@ frame_needed = 0, uses_anonymous_args = 0
 127              		@ link register save eliminated.
 128              	.LVL10:
 129 0000 10B4     		push	{r4}
 130              	.LCFI1:
 131              		.cfi_def_cfa_offset 4
 132              		.cfi_offset 4, -4
 133              		.loc 1 194 0
 134 0002 4FF48054 		mov	r4, #4096
 135 0006 CEF20004 		movt	r4, 57344
 136 000a 6268     		ldr	r2, [r4, #4]
 137              	.LVL11:
 138              		.loc 1 195 0
 139 000c 8018     		adds	r0, r0, r2
 140              	.LVL12:
 141              	.L10:
 142              	.LBB4:
 143              	.LBB5:
 144              		.loc 1 177 0 discriminator 1
 145 000e 8242     		cmp	r2, r0
 146              		.loc 1 175 0 discriminator 1
 147 0010 6368     		ldr	r3, [r4, #4]
 148              	.LVL13:
 149              		.loc 1 177 0 discriminator 1
 150 0012 0AD2     		bcs	.L8
 151              		.loc 1 177 0 is_stmt 0
 152 0014 9842     		cmp	r0, r3
 153 0016 94BF     		ite	ls
 154 0018 0021     		movls	r1, #0
 155 001a 0121     		movhi	r1, #1
 156 001c 9A42     		cmp	r2, r3
 157 001e 88BF     		it	hi
 158 0020 0021     		movhi	r1, #0
 159              	.LBE5:
 160              	.LBE4:
 161              		.loc 1 196 0 is_stmt 1
 162 0022 0029     		cmp	r1, #0
 163 0024 F3D1     		bne	.L10
 164              	.L12:
 165              		.loc 1 198 0
 166 0026 10BC     		pop	{r4}
ARM GAS  /var/folders/dt/0wfd0knj7gs46m8vwfzktm600000gn/T//ccfGeiFg.s 			page 4


 167 0028 7047     		bx	lr
 168              	.L8:
 169              	.LBB7:
 170              	.LBB6:
 171              		.loc 1 178 0
 172 002a 9A42     		cmp	r2, r3
 173 002c 8CBF     		ite	hi
 174 002e 0021     		movhi	r1, #0
 175 0030 0121     		movls	r1, #1
 176              		.loc 1 177 0
 177 0032 9842     		cmp	r0, r3
 178 0034 88BF     		it	hi
 179 0036 41F00101 		orrhi	r1, r1, #1
 180              	.LBE6:
 181              	.LBE7:
 182              		.loc 1 196 0
 183 003a 0029     		cmp	r1, #0
 184 003c E7D1     		bne	.L10
 185 003e F2E7     		b	.L12
 186              		.cfi_endproc
 187              	.LFE64:
 188              		.size	halPolledDelay, .-halPolledDelay
 189              		.text
 190              	.Letext0:
 191              		.file 2 "/Users/toxygen/Applications/yagarto-4.7.2/bin/../lib/gcc/arm-none-eabi/4.7.2/../../../../
 192              		.file 3 "../../os/ports/GCC/ARMCMx/chtypes.h"
 193              		.file 4 "../../os/ports/common/ARMCMx/nvic.h"
 194              		.file 5 "../../os/hal/platforms/STM32F1xx/hal_lld.h"
 195              		.file 6 "../../os/hal/platforms/STM32/GPIOv1/pal_lld.h"
 196              		.file 7 "../../os/ports/common/ARMCMx/CMSIS/include/core_cm3.h"
 197              		.file 8 "../../os/hal/include/tm.h"
 198              		.file 9 "../../os/hal/include/serial.h"
 199              		.file 10 "../../boards/MLAB_STM32F107RxT01A/board.h"