ARM GAS  /var/folders/dt/0wfd0knj7gs46m8vwfzktm600000gn/T//cchxVajv.s 			page 1


   1              		.syntax unified
   2              		.cpu cortex-m3
   3              		.fpu softvfp
   4              		.eabi_attribute 20, 1
   5              		.eabi_attribute 21, 1
   6              		.eabi_attribute 23, 3
   7              		.eabi_attribute 24, 1
   8              		.eabi_attribute 25, 1
   9              		.eabi_attribute 26, 1
  10              		.eabi_attribute 30, 2
  11              		.eabi_attribute 34, 1
  12              		.eabi_attribute 18, 4
  13              		.thumb
  14              		.file	"main.c"
  15              		.text
  16              	.Ltext0:
  17              		.cfi_sections	.debug_frame
  18              		.section	.text.Thread1,"ax",%progbits
  19              		.align	2
  20              		.p2align 4,,15
  21              		.thumb
  22              		.thumb_func
  23              		.type	Thread1, %function
  24              	Thread1:
  25              	.LFB63:
  26              		.file 1 "main.c"
  27              		.loc 1 25 0
  28              		.cfi_startproc
  29              		@ args = 0, pretend = 0, frame = 0
  30              		@ frame_needed = 0, uses_anonymous_args = 0
  31              	.LVL0:
  32              		.loc 1 28 0
  33 0000 0A4B     		ldr	r3, .L4
  34 0002 0B4A     		ldr	r2, .L4+4
  35 0004 DB69     		ldr	r3, [r3, #28]
  36              		.loc 1 25 0
  37 0006 70B5     		push	{r4, r5, r6, lr}
  38              	.LCFI0:
  39              		.cfi_def_cfa_offset 16
  40              		.cfi_offset 4, -16
  41              		.cfi_offset 5, -12
  42              		.cfi_offset 6, -8
  43              		.cfi_offset 14, -4
  44              		.loc 1 30 0
  45 0008 4FF44064 		mov	r4, #3072
  46 000c 8025     		movs	r5, #128
  47              		.loc 1 28 0
  48 000e 9A61     		str	r2, [r3, #24]
  49              		.loc 1 30 0
  50 0010 C4F20104 		movt	r4, 16385
  51 0014 2E46     		mov	r6, r5
  52              	.LVL1:
  53              	.L2:
  54              		.loc 1 30 0 is_stmt 0 discriminator 1
  55 0016 6661     		str	r6, [r4, #20]
  56              		.loc 1 31 0 is_stmt 1 discriminator 1
  57 0018 4FF4FA70 		mov	r0, #500
ARM GAS  /var/folders/dt/0wfd0knj7gs46m8vwfzktm600000gn/T//cchxVajv.s 			page 2


  58 001c FFF7FEFF 		bl	chThdSleep
  59              	.LVL2:
  60              		.loc 1 32 0 discriminator 1
  61 0020 2561     		str	r5, [r4, #16]
  62              		.loc 1 33 0 discriminator 1
  63 0022 4FF4FA70 		mov	r0, #500
  64 0026 FFF7FEFF 		bl	chThdSleep
  65              	.LVL3:
  66 002a F4E7     		b	.L2
  67              	.L5:
  68              		.align	2
  69              	.L4:
  70 002c 00000000 		.word	rlist
  71 0030 00000000 		.word	.LC0
  72              		.cfi_endproc
  73              	.LFE63:
  74              		.size	Thread1, .-Thread1
  75 0034 AFF30080 		.section	.text.shell,"ax",%progbits
  75      AFF30080 
  75      AFF30080 
  76              		.align	2
  77              		.p2align 4,,15
  78              		.thumb
  79              		.thumb_func
  80              		.type	shell, %function
  81              	shell:
  82              	.LFB62:
  83              		.loc 1 17 0
  84              		.cfi_startproc
  85              		@ args = 0, pretend = 0, frame = 0
  86              		@ frame_needed = 0, uses_anonymous_args = 0
  87              	.LVL4:
  88 0000 08B5     		push	{r3, lr}
  89              	.LCFI1:
  90              		.cfi_def_cfa_offset 8
  91              		.cfi_offset 3, -8
  92              		.cfi_offset 14, -4
  93              		.loc 1 19 0
  94 0002 40F20003 		movw	r3, #:lower16:rlist
  95 0006 C0F20003 		movt	r3, #:upper16:rlist
  96 000a DB69     		ldr	r3, [r3, #28]
  97 000c 40F20002 		movw	r2, #:lower16:.LC1
  98 0010 C0F20002 		movt	r2, #:upper16:.LC1
  99 0014 9A61     		str	r2, [r3, #24]
 100              		.loc 1 20 0
 101 0016 FFF7FEFF 		bl	start_shell
 102              	.LVL5:
 103              		.loc 1 21 0
 104 001a 08BD     		pop	{r3, pc}
 105              		.cfi_endproc
 106              	.LFE62:
 107              		.size	shell, .-shell
 108 001c AFF30080 		.section	.text.startup.main,"ax",%progbits
 109              		.align	2
 110              		.p2align 4,,15
 111              		.global	main
 112              		.thumb
ARM GAS  /var/folders/dt/0wfd0knj7gs46m8vwfzktm600000gn/T//cchxVajv.s 			page 3


 113              		.thumb_func
 114              		.type	main, %function
 115              	main:
 116              	.LFB64:
 117              		.loc 1 37 0
 118              		.cfi_startproc
 119              		@ args = 0, pretend = 0, frame = 0
 120              		@ frame_needed = 0, uses_anonymous_args = 0
 121              	.LVL6:
 122 0000 10B5     		push	{r4, lr}
 123              	.LCFI2:
 124              		.cfi_def_cfa_offset 8
 125              		.cfi_offset 4, -8
 126              		.cfi_offset 14, -4
 127              		.loc 1 45 0
 128 0002 0024     		movs	r4, #0
 129              		.loc 1 37 0
 130 0004 82B0     		sub	sp, sp, #8
 131              	.LCFI3:
 132              		.cfi_def_cfa_offset 16
 133              		.loc 1 40 0
 134 0006 FFF7FEFF 		bl	halInit
 135              	.LVL7:
 136              		.loc 1 41 0
 137 000a FFF7FEFF 		bl	chSysInit
 138              	.LVL8:
 139              		.loc 1 43 0
 140 000e 1148     		ldr	r0, .L13
 141 0010 2146     		mov	r1, r4
 142 0012 FFF7FEFF 		bl	sdStart
 143              	.LVL9:
 144              		.loc 1 45 0
 145 0016 0094     		str	r4, [sp, #0]
 146 0018 0F48     		ldr	r0, .L13+4
 147 001a 4FF49871 		mov	r1, #304
 148 001e 4022     		movs	r2, #64
 149 0020 0E4B     		ldr	r3, .L13+8
 150 0022 FFF7FEFF 		bl	chThdCreateStatic
 151              	.LVL10:
 152              		.loc 1 48 0
 153 0026 54B1     		cbz	r4, .L12
 154              	.L8:
 155              		.loc 1 53 0
 156 0028 94F82030 		ldrb	r3, [r4, #32]	@ zero_extendqisi2
 157              		.loc 1 54 0
 158 002c 0E2B     		cmp	r3, #14
 159 002e 08BF     		it	eq
 160 0030 0024     		moveq	r4, #0
 161              	.LVL11:
 162              	.L9:
 163              		.loc 1 56 0
 164 0032 4FF47A70 		mov	r0, #1000
 165 0036 FFF7FEFF 		bl	chThdSleep
 166              	.LVL12:
 167              		.loc 1 48 0
 168 003a 002C     		cmp	r4, #0
 169 003c F4D1     		bne	.L8
ARM GAS  /var/folders/dt/0wfd0knj7gs46m8vwfzktm600000gn/T//cchxVajv.s 			page 4


 170              	.L12:
 171              		.loc 1 50 0
 172 003e 0094     		str	r4, [sp, #0]
 173 0040 0748     		ldr	r0, .L13+12
 174 0042 4FF40B61 		mov	r1, #2224
 175 0046 4022     		movs	r2, #64
 176 0048 064B     		ldr	r3, .L13+16
 177 004a FFF7FEFF 		bl	chThdCreateStatic
 178              	.LVL13:
 179 004e 0446     		mov	r4, r0
 180              	.LVL14:
 181 0050 EFE7     		b	.L9
 182              	.L14:
 183 0052 00BF     		.align	2
 184              	.L13:
 185 0054 00000000 		.word	SD2
 186 0058 00000000 		.word	.LANCHOR0
 187 005c 00000000 		.word	Thread1
 188 0060 00000000 		.word	.LANCHOR1
 189 0064 00000000 		.word	shell
 190              		.cfi_endproc
 191              	.LFE64:
 192              		.size	main, .-main
 193 0068 AFF30080 		.section	.bss.waThread1,"aw",%nobits
 193      AFF30080 
 194              		.align	3
 195              		.set	.LANCHOR0,. + 0
 196              		.type	waThread1, %object
 197              		.size	waThread1, 304
 198              	waThread1:
 199 0000 00000000 		.space	304
 199      00000000 
 199      00000000 
 199      00000000 
 199      00000000 
 200              		.section	.rodata.str1.4,"aMS",%progbits,1
 201              		.align	2
 202              	.LC0:
 203 0000 626C696E 		.ascii	"blinker\000"
 203      6B657200 
 204              	.LC1:
 205 0008 7368656C 		.ascii	"shell\000"
 205      6C00
 206 000e 0000     		.section	.bss.waShell,"aw",%nobits
 207              		.align	3
 208              		.set	.LANCHOR1,. + 0
 209              		.type	waShell, %object
 210              		.size	waShell, 2224
 211              	waShell:
 212 0000 00000000 		.space	2224
 212      00000000 
 212      00000000 
 212      00000000 
 212      00000000 
 213              		.text
 214              	.Letext0:
 215              		.file 2 "/Users/toxygen/Applications/yagarto-4.7.2/bin/../lib/gcc/arm-none-eabi/4.7.2/include/stdd
ARM GAS  /var/folders/dt/0wfd0knj7gs46m8vwfzktm600000gn/T//cchxVajv.s 			page 5


 216              		.file 3 "/Users/toxygen/Applications/yagarto-4.7.2/bin/../lib/gcc/arm-none-eabi/4.7.2/../../../../
 217              		.file 4 "../../os/ports/GCC/ARMCMx/chtypes.h"
 218              		.file 5 "../../os/kernel/include/chlists.h"
 219              		.file 6 "../../os/kernel/include/chthreads.h"
 220              		.file 7 "../../os/ports/GCC/ARMCMx/chcore_v7m.h"
 221              		.file 8 "../../os/kernel/include/chschd.h"
 222              		.file 9 "../../os/kernel/include/chmtx.h"
 223              		.file 10 "../../os/kernel/include/chevents.h"
 224              		.file 11 "../../os/kernel/include/chqueues.h"
 225              		.file 12 "../../os/kernel/include/chioch.h"
 226              		.file 13 "../../os/hal/platforms/STM32F1xx/stm32f10x.h"
 227              		.file 14 "../../os/hal/platforms/STM32/GPIOv1/pal_lld.h"
 228              		.file 15 "../../os/hal/include/serial.h"
 229              		.file 16 "../../os/hal/platforms/STM32/serial_lld.h"
 230              		.file 17 "../../os/ports/common/ARMCMx/CMSIS/include/core_cm3.h"
 231              		.file 18 "microshell2.h"
 232              		.file 19 "../../os/hal/include/hal.h"
 233              		.file 20 "../../os/kernel/include/chsys.h"
 234              		.section	.debug_info,"",%progbits
 235              	.Ldebug_info0:
 236 0000 520C0000 		.4byte	0xc52
 237 0004 0200     		.2byte	0x2
 238 0006 00000000 		.4byte	.Ldebug_abbrev0
 239 000a 04       		.byte	0x4
 240 000b 01       		.uleb128 0x1
 241 000c 97020000 		.4byte	.LASF138
 242 0010 01       		.byte	0x1
 243 0011 A3020000 		.4byte	.LASF139
 244 0015 5C040000 		.4byte	.LASF140
 245 0019 00000000 		.4byte	.Ldebug_ranges0+0
 246 001d 00000000 		.4byte	0
 247 0021 00000000 		.4byte	0
 248 0025 00000000 		.4byte	.Ldebug_line0
 249 0029 02       		.uleb128 0x2
 250 002a 04       		.byte	0x4
 251 002b 05       		.byte	0x5
 252 002c 696E7400 		.ascii	"int\000"
 253 0030 03       		.uleb128 0x3
 254 0031 11000000 		.4byte	.LASF2
 255 0035 02       		.byte	0x2
 256 0036 D5       		.byte	0xd5
 257 0037 3B000000 		.4byte	0x3b
 258 003b 04       		.uleb128 0x4
 259 003c 04       		.byte	0x4
 260 003d 07       		.byte	0x7
 261 003e 56010000 		.4byte	.LASF0
 262 0042 04       		.uleb128 0x4
 263 0043 01       		.byte	0x1
 264 0044 06       		.byte	0x6
 265 0045 A1000000 		.4byte	.LASF1
 266 0049 03       		.uleb128 0x3
 267 004a E3040000 		.4byte	.LASF3
 268 004e 03       		.byte	0x3
 269 004f 2A       		.byte	0x2a
 270 0050 54000000 		.4byte	0x54
 271 0054 04       		.uleb128 0x4
 272 0055 01       		.byte	0x1
ARM GAS  /var/folders/dt/0wfd0knj7gs46m8vwfzktm600000gn/T//cchxVajv.s 			page 6


 273 0056 08       		.byte	0x8
 274 0057 49030000 		.4byte	.LASF4
 275 005b 04       		.uleb128 0x4
 276 005c 02       		.byte	0x2
 277 005d 05       		.byte	0x5
 278 005e 73030000 		.4byte	.LASF5
 279 0062 03       		.uleb128 0x3
 280 0063 6B010000 		.4byte	.LASF6
 281 0067 03       		.byte	0x3
 282 0068 36       		.byte	0x36
 283 0069 6D000000 		.4byte	0x6d
 284 006d 04       		.uleb128 0x4
 285 006e 02       		.byte	0x2
 286 006f 07       		.byte	0x7
 287 0070 B6010000 		.4byte	.LASF7
 288 0074 03       		.uleb128 0x3
 289 0075 41030000 		.4byte	.LASF8
 290 0079 03       		.byte	0x3
 291 007a 4F       		.byte	0x4f
 292 007b 7F000000 		.4byte	0x7f
 293 007f 04       		.uleb128 0x4
 294 0080 04       		.byte	0x4
 295 0081 05       		.byte	0x5
 296 0082 DE000000 		.4byte	.LASF9
 297 0086 03       		.uleb128 0x3
 298 0087 D8030000 		.4byte	.LASF10
 299 008b 03       		.byte	0x3
 300 008c 50       		.byte	0x50
 301 008d 91000000 		.4byte	0x91
 302 0091 04       		.uleb128 0x4
 303 0092 04       		.byte	0x4
 304 0093 07       		.byte	0x7
 305 0094 06040000 		.4byte	.LASF11
 306 0098 04       		.uleb128 0x4
 307 0099 08       		.byte	0x8
 308 009a 05       		.byte	0x5
 309 009b 93000000 		.4byte	.LASF12
 310 009f 03       		.uleb128 0x3
 311 00a0 1F000000 		.4byte	.LASF13
 312 00a4 03       		.byte	0x3
 313 00a5 78       		.byte	0x78
 314 00a6 AA000000 		.4byte	0xaa
 315 00aa 04       		.uleb128 0x4
 316 00ab 08       		.byte	0x8
 317 00ac 07       		.byte	0x7
 318 00ad 4F000000 		.4byte	.LASF14
 319 00b1 03       		.uleb128 0x3
 320 00b2 41000000 		.4byte	.LASF15
 321 00b6 03       		.byte	0x3
 322 00b7 A6       		.byte	0xa6
 323 00b8 3B000000 		.4byte	0x3b
 324 00bc 03       		.uleb128 0x3
 325 00bd C9000000 		.4byte	.LASF16
 326 00c1 04       		.byte	0x4
 327 00c2 2E       		.byte	0x2e
 328 00c3 74000000 		.4byte	0x74
 329 00c7 03       		.uleb128 0x3
ARM GAS  /var/folders/dt/0wfd0knj7gs46m8vwfzktm600000gn/T//cchxVajv.s 			page 7


 330 00c8 EB010000 		.4byte	.LASF17
 331 00cc 04       		.byte	0x4
 332 00cd 2F       		.byte	0x2f
 333 00ce 49000000 		.4byte	0x49
 334 00d2 03       		.uleb128 0x3
 335 00d3 E7000000 		.4byte	.LASF18
 336 00d7 04       		.byte	0x4
 337 00d8 30       		.byte	0x30
 338 00d9 49000000 		.4byte	0x49
 339 00dd 03       		.uleb128 0x3
 340 00de DC020000 		.4byte	.LASF19
 341 00e2 04       		.byte	0x4
 342 00e3 31       		.byte	0x31
 343 00e4 49000000 		.4byte	0x49
 344 00e8 03       		.uleb128 0x3
 345 00e9 27030000 		.4byte	.LASF20
 346 00ed 04       		.byte	0x4
 347 00ee 32       		.byte	0x32
 348 00ef 86000000 		.4byte	0x86
 349 00f3 03       		.uleb128 0x3
 350 00f4 C9010000 		.4byte	.LASF21
 351 00f8 04       		.byte	0x4
 352 00f9 33       		.byte	0x33
 353 00fa 74000000 		.4byte	0x74
 354 00fe 03       		.uleb128 0x3
 355 00ff FF010000 		.4byte	.LASF22
 356 0103 04       		.byte	0x4
 357 0104 35       		.byte	0x35
 358 0105 86000000 		.4byte	0x86
 359 0109 03       		.uleb128 0x3
 360 010a 3B040000 		.4byte	.LASF23
 361 010e 04       		.byte	0x4
 362 010f 36       		.byte	0x36
 363 0110 86000000 		.4byte	0x86
 364 0114 03       		.uleb128 0x3
 365 0115 4A010000 		.4byte	.LASF24
 366 0119 04       		.byte	0x4
 367 011a 37       		.byte	0x37
 368 011b 74000000 		.4byte	0x74
 369 011f 03       		.uleb128 0x3
 370 0120 B2030000 		.4byte	.LASF25
 371 0124 05       		.byte	0x5
 372 0125 2A       		.byte	0x2a
 373 0126 2A010000 		.4byte	0x12a
 374 012a 05       		.uleb128 0x5
 375 012b B2030000 		.4byte	.LASF25
 376 012f 4C       		.byte	0x4c
 377 0130 06       		.byte	0x6
 378 0131 5E       		.byte	0x5e
 379 0132 4F020000 		.4byte	0x24f
 380 0136 06       		.uleb128 0x6
 381 0137 93030000 		.4byte	.LASF26
 382 013b 06       		.byte	0x6
 383 013c 5F       		.byte	0x5f
 384 013d 74020000 		.4byte	0x274
 385 0141 02       		.byte	0x2
 386 0142 23       		.byte	0x23
ARM GAS  /var/folders/dt/0wfd0knj7gs46m8vwfzktm600000gn/T//cchxVajv.s 			page 8


 387 0143 00       		.uleb128 0
 388 0144 06       		.uleb128 0x6
 389 0145 16030000 		.4byte	.LASF27
 390 0149 06       		.byte	0x6
 391 014a 61       		.byte	0x61
 392 014b 74020000 		.4byte	0x274
 393 014f 02       		.byte	0x2
 394 0150 23       		.byte	0x23
 395 0151 04       		.uleb128 0x4
 396 0152 06       		.uleb128 0x6
 397 0153 7C000000 		.4byte	.LASF28
 398 0157 06       		.byte	0x6
 399 0158 63       		.byte	0x63
 400 0159 E8000000 		.4byte	0xe8
 401 015d 02       		.byte	0x2
 402 015e 23       		.byte	0x23
 403 015f 08       		.uleb128 0x8
 404 0160 06       		.uleb128 0x6
 405 0161 36050000 		.4byte	.LASF29
 406 0165 06       		.byte	0x6
 407 0166 64       		.byte	0x64
 408 0167 4C030000 		.4byte	0x34c
 409 016b 02       		.byte	0x2
 410 016c 23       		.byte	0x23
 411 016d 0C       		.uleb128 0xc
 412 016e 06       		.uleb128 0x6
 413 016f 0F010000 		.4byte	.LASF30
 414 0173 06       		.byte	0x6
 415 0174 66       		.byte	0x66
 416 0175 74020000 		.4byte	0x274
 417 0179 02       		.byte	0x2
 418 017a 23       		.byte	0x23
 419 017b 10       		.uleb128 0x10
 420 017c 06       		.uleb128 0x6
 421 017d 71020000 		.4byte	.LASF31
 422 0181 06       		.byte	0x6
 423 0182 67       		.byte	0x67
 424 0183 74020000 		.4byte	0x274
 425 0187 02       		.byte	0x2
 426 0188 23       		.byte	0x23
 427 0189 14       		.uleb128 0x14
 428 018a 06       		.uleb128 0x6
 429 018b BB040000 		.4byte	.LASF32
 430 018f 06       		.byte	0x6
 431 0190 6E       		.byte	0x6e
 432 0191 E1040000 		.4byte	0x4e1
 433 0195 02       		.byte	0x2
 434 0196 23       		.byte	0x23
 435 0197 18       		.uleb128 0x18
 436 0198 06       		.uleb128 0x6
 437 0199 8C020000 		.4byte	.LASF33
 438 019d 06       		.byte	0x6
 439 019e 74       		.byte	0x74
 440 019f F3040000 		.4byte	0x4f3
 441 01a3 02       		.byte	0x2
 442 01a4 23       		.byte	0x23
 443 01a5 1C       		.uleb128 0x1c
ARM GAS  /var/folders/dt/0wfd0knj7gs46m8vwfzktm600000gn/T//cchxVajv.s 			page 9


 444 01a6 06       		.uleb128 0x6
 445 01a7 7D030000 		.4byte	.LASF34
 446 01ab 06       		.byte	0x6
 447 01ac 79       		.byte	0x79
 448 01ad D2000000 		.4byte	0xd2
 449 01b1 02       		.byte	0x2
 450 01b2 23       		.byte	0x23
 451 01b3 20       		.uleb128 0x20
 452 01b4 06       		.uleb128 0x6
 453 01b5 9A030000 		.4byte	.LASF35
 454 01b9 06       		.byte	0x6
 455 01ba 7D       		.byte	0x7d
 456 01bb C7000000 		.4byte	0xc7
 457 01bf 02       		.byte	0x2
 458 01c0 23       		.byte	0x23
 459 01c1 21       		.uleb128 0x21
 460 01c2 06       		.uleb128 0x6
 461 01c3 F0000000 		.4byte	.LASF36
 462 01c7 06       		.byte	0x6
 463 01c8 82       		.byte	0x82
 464 01c9 DD000000 		.4byte	0xdd
 465 01cd 02       		.byte	0x2
 466 01ce 23       		.byte	0x23
 467 01cf 22       		.uleb128 0x22
 468 01d0 06       		.uleb128 0x6
 469 01d1 08010000 		.4byte	.LASF37
 470 01d5 06       		.byte	0x6
 471 01d6 89       		.byte	0x89
 472 01d7 7B030000 		.4byte	0x37b
 473 01db 02       		.byte	0x2
 474 01dc 23       		.byte	0x23
 475 01dd 24       		.uleb128 0x24
 476 01de 07       		.uleb128 0x7
 477 01df 705F7500 		.ascii	"p_u\000"
 478 01e3 06       		.byte	0x6
 479 01e4 AE       		.byte	0xae
 480 01e5 AC040000 		.4byte	0x4ac
 481 01e9 02       		.byte	0x2
 482 01ea 23       		.byte	0x23
 483 01eb 28       		.uleb128 0x28
 484 01ec 06       		.uleb128 0x6
 485 01ed 3C050000 		.4byte	.LASF38
 486 01f1 06       		.byte	0x6
 487 01f2 B3       		.byte	0xb3
 488 01f3 9C020000 		.4byte	0x29c
 489 01f7 02       		.byte	0x2
 490 01f8 23       		.byte	0x23
 491 01f9 2C       		.uleb128 0x2c
 492 01fa 06       		.uleb128 0x6
 493 01fb 8B010000 		.4byte	.LASF39
 494 01ff 06       		.byte	0x6
 495 0200 B9       		.byte	0xb9
 496 0201 7A020000 		.4byte	0x27a
 497 0205 02       		.byte	0x2
 498 0206 23       		.byte	0x23
 499 0207 30       		.uleb128 0x30
 500 0208 06       		.uleb128 0x6
ARM GAS  /var/folders/dt/0wfd0knj7gs46m8vwfzktm600000gn/T//cchxVajv.s 			page 10


 501 0209 57030000 		.4byte	.LASF40
 502 020d 06       		.byte	0x6
 503 020e BD       		.byte	0xbd
 504 020f F3000000 		.4byte	0xf3
 505 0213 02       		.byte	0x2
 506 0214 23       		.byte	0x23
 507 0215 38       		.uleb128 0x38
 508 0216 06       		.uleb128 0x6
 509 0217 B9030000 		.4byte	.LASF41
 510 021b 06       		.byte	0x6
 511 021c C3       		.byte	0xc3
 512 021d FE000000 		.4byte	0xfe
 513 0221 02       		.byte	0x2
 514 0222 23       		.byte	0x23
 515 0223 3C       		.uleb128 0x3c
 516 0224 06       		.uleb128 0x6
 517 0225 69030000 		.4byte	.LASF42
 518 0229 06       		.byte	0x6
 519 022a CA       		.byte	0xca
 520 022b F9040000 		.4byte	0x4f9
 521 022f 02       		.byte	0x2
 522 0230 23       		.byte	0x23
 523 0231 40       		.uleb128 0x40
 524 0232 06       		.uleb128 0x6
 525 0233 45040000 		.4byte	.LASF43
 526 0237 06       		.byte	0x6
 527 0238 CE       		.byte	0xce
 528 0239 E8000000 		.4byte	0xe8
 529 023d 02       		.byte	0x2
 530 023e 23       		.byte	0x23
 531 023f 44       		.uleb128 0x44
 532 0240 06       		.uleb128 0x6
 533 0241 C1000000 		.4byte	.LASF44
 534 0245 06       		.byte	0x6
 535 0246 D4       		.byte	0xd4
 536 0247 B2020000 		.4byte	0x2b2
 537 024b 02       		.byte	0x2
 538 024c 23       		.byte	0x23
 539 024d 48       		.uleb128 0x48
 540 024e 00       		.byte	0
 541 024f 08       		.uleb128 0x8
 542 0250 08       		.byte	0x8
 543 0251 05       		.byte	0x5
 544 0252 61       		.byte	0x61
 545 0253 74020000 		.4byte	0x274
 546 0257 06       		.uleb128 0x6
 547 0258 93030000 		.4byte	.LASF26
 548 025c 05       		.byte	0x5
 549 025d 62       		.byte	0x62
 550 025e 74020000 		.4byte	0x274
 551 0262 02       		.byte	0x2
 552 0263 23       		.byte	0x23
 553 0264 00       		.uleb128 0
 554 0265 06       		.uleb128 0x6
 555 0266 16030000 		.4byte	.LASF27
 556 026a 05       		.byte	0x5
 557 026b 64       		.byte	0x64
ARM GAS  /var/folders/dt/0wfd0knj7gs46m8vwfzktm600000gn/T//cchxVajv.s 			page 11


 558 026c 74020000 		.4byte	0x274
 559 0270 02       		.byte	0x2
 560 0271 23       		.byte	0x23
 561 0272 04       		.uleb128 0x4
 562 0273 00       		.byte	0
 563 0274 09       		.uleb128 0x9
 564 0275 04       		.byte	0x4
 565 0276 1F010000 		.4byte	0x11f
 566 027a 03       		.uleb128 0x3
 567 027b 7F020000 		.4byte	.LASF45
 568 027f 05       		.byte	0x5
 569 0280 66       		.byte	0x66
 570 0281 4F020000 		.4byte	0x24f
 571 0285 08       		.uleb128 0x8
 572 0286 04       		.byte	0x4
 573 0287 05       		.byte	0x5
 574 0288 6B       		.byte	0x6b
 575 0289 9C020000 		.4byte	0x29c
 576 028d 06       		.uleb128 0x6
 577 028e 93030000 		.4byte	.LASF26
 578 0292 05       		.byte	0x5
 579 0293 6D       		.byte	0x6d
 580 0294 74020000 		.4byte	0x274
 581 0298 02       		.byte	0x2
 582 0299 23       		.byte	0x23
 583 029a 00       		.uleb128 0
 584 029b 00       		.byte	0
 585 029c 03       		.uleb128 0x3
 586 029d F3010000 		.4byte	.LASF46
 587 02a1 05       		.byte	0x5
 588 02a2 70       		.byte	0x70
 589 02a3 85020000 		.4byte	0x285
 590 02a7 03       		.uleb128 0x3
 591 02a8 35010000 		.4byte	.LASF47
 592 02ac 07       		.byte	0x7
 593 02ad D7       		.byte	0xd7
 594 02ae B2020000 		.4byte	0x2b2
 595 02b2 0A       		.uleb128 0xa
 596 02b3 04       		.byte	0x4
 597 02b4 03       		.uleb128 0x3
 598 02b5 2D020000 		.4byte	.LASF48
 599 02b9 07       		.byte	0x7
 600 02ba DD       		.byte	0xdd
 601 02bb 9F000000 		.4byte	0x9f
 602 02bf 05       		.uleb128 0x5
 603 02c0 A5040000 		.4byte	.LASF49
 604 02c4 24       		.byte	0x24
 605 02c5 07       		.byte	0x7
 606 02c6 FE       		.byte	0xfe
 607 02c7 4C030000 		.4byte	0x34c
 608 02cb 0B       		.uleb128 0xb
 609 02cc 723400   		.ascii	"r4\000"
 610 02cf 07       		.byte	0x7
 611 02d0 1101     		.2byte	0x111
 612 02d2 A7020000 		.4byte	0x2a7
 613 02d6 02       		.byte	0x2
 614 02d7 23       		.byte	0x23
ARM GAS  /var/folders/dt/0wfd0knj7gs46m8vwfzktm600000gn/T//cchxVajv.s 			page 12


 615 02d8 00       		.uleb128 0
 616 02d9 0B       		.uleb128 0xb
 617 02da 723500   		.ascii	"r5\000"
 618 02dd 07       		.byte	0x7
 619 02de 1201     		.2byte	0x112
 620 02e0 A7020000 		.4byte	0x2a7
 621 02e4 02       		.byte	0x2
 622 02e5 23       		.byte	0x23
 623 02e6 04       		.uleb128 0x4
 624 02e7 0B       		.uleb128 0xb
 625 02e8 723600   		.ascii	"r6\000"
 626 02eb 07       		.byte	0x7
 627 02ec 1301     		.2byte	0x113
 628 02ee A7020000 		.4byte	0x2a7
 629 02f2 02       		.byte	0x2
 630 02f3 23       		.byte	0x23
 631 02f4 08       		.uleb128 0x8
 632 02f5 0B       		.uleb128 0xb
 633 02f6 723700   		.ascii	"r7\000"
 634 02f9 07       		.byte	0x7
 635 02fa 1401     		.2byte	0x114
 636 02fc A7020000 		.4byte	0x2a7
 637 0300 02       		.byte	0x2
 638 0301 23       		.byte	0x23
 639 0302 0C       		.uleb128 0xc
 640 0303 0B       		.uleb128 0xb
 641 0304 723800   		.ascii	"r8\000"
 642 0307 07       		.byte	0x7
 643 0308 1501     		.2byte	0x115
 644 030a A7020000 		.4byte	0x2a7
 645 030e 02       		.byte	0x2
 646 030f 23       		.byte	0x23
 647 0310 10       		.uleb128 0x10
 648 0311 0B       		.uleb128 0xb
 649 0312 723900   		.ascii	"r9\000"
 650 0315 07       		.byte	0x7
 651 0316 1601     		.2byte	0x116
 652 0318 A7020000 		.4byte	0x2a7
 653 031c 02       		.byte	0x2
 654 031d 23       		.byte	0x23
 655 031e 14       		.uleb128 0x14
 656 031f 0B       		.uleb128 0xb
 657 0320 72313000 		.ascii	"r10\000"
 658 0324 07       		.byte	0x7
 659 0325 1701     		.2byte	0x117
 660 0327 A7020000 		.4byte	0x2a7
 661 032b 02       		.byte	0x2
 662 032c 23       		.byte	0x23
 663 032d 18       		.uleb128 0x18
 664 032e 0B       		.uleb128 0xb
 665 032f 72313100 		.ascii	"r11\000"
 666 0333 07       		.byte	0x7
 667 0334 1801     		.2byte	0x118
 668 0336 A7020000 		.4byte	0x2a7
 669 033a 02       		.byte	0x2
 670 033b 23       		.byte	0x23
 671 033c 1C       		.uleb128 0x1c
ARM GAS  /var/folders/dt/0wfd0knj7gs46m8vwfzktm600000gn/T//cchxVajv.s 			page 13


 672 033d 0B       		.uleb128 0xb
 673 033e 6C7200   		.ascii	"lr\000"
 674 0341 07       		.byte	0x7
 675 0342 1901     		.2byte	0x119
 676 0344 A7020000 		.4byte	0x2a7
 677 0348 02       		.byte	0x2
 678 0349 23       		.byte	0x23
 679 034a 20       		.uleb128 0x20
 680 034b 00       		.byte	0
 681 034c 0C       		.uleb128 0xc
 682 034d 93040000 		.4byte	.LASF50
 683 0351 04       		.byte	0x4
 684 0352 07       		.byte	0x7
 685 0353 2301     		.2byte	0x123
 686 0355 69030000 		.4byte	0x369
 687 0359 0B       		.uleb128 0xb
 688 035a 72313300 		.ascii	"r13\000"
 689 035e 07       		.byte	0x7
 690 035f 2401     		.2byte	0x124
 691 0361 69030000 		.4byte	0x369
 692 0365 02       		.byte	0x2
 693 0366 23       		.byte	0x23
 694 0367 00       		.uleb128 0
 695 0368 00       		.byte	0
 696 0369 09       		.uleb128 0x9
 697 036a 04       		.byte	0x4
 698 036b BF020000 		.4byte	0x2bf
 699 036f 0D       		.uleb128 0xd
 700 0370 86000000 		.4byte	0x86
 701 0374 04       		.uleb128 0x4
 702 0375 04       		.byte	0x4
 703 0376 07       		.byte	0x7
 704 0377 58020000 		.4byte	.LASF51
 705 037b 0D       		.uleb128 0xd
 706 037c 09010000 		.4byte	0x109
 707 0380 08       		.uleb128 0x8
 708 0381 20       		.byte	0x20
 709 0382 08       		.byte	0x8
 710 0383 5E       		.byte	0x5e
 711 0384 EB030000 		.4byte	0x3eb
 712 0388 06       		.uleb128 0x6
 713 0389 E1030000 		.4byte	.LASF52
 714 038d 08       		.byte	0x8
 715 038e 5F       		.byte	0x5f
 716 038f 7A020000 		.4byte	0x27a
 717 0393 02       		.byte	0x2
 718 0394 23       		.byte	0x23
 719 0395 00       		.uleb128 0
 720 0396 06       		.uleb128 0x6
 721 0397 85030000 		.4byte	.LASF53
 722 039b 08       		.byte	0x8
 723 039c 60       		.byte	0x60
 724 039d E8000000 		.4byte	0xe8
 725 03a1 02       		.byte	0x2
 726 03a2 23       		.byte	0x23
 727 03a3 08       		.uleb128 0x8
 728 03a4 06       		.uleb128 0x6
ARM GAS  /var/folders/dt/0wfd0knj7gs46m8vwfzktm600000gn/T//cchxVajv.s 			page 14


 729 03a5 79020000 		.4byte	.LASF54
 730 03a9 08       		.byte	0x8
 731 03aa 62       		.byte	0x62
 732 03ab 4C030000 		.4byte	0x34c
 733 03af 02       		.byte	0x2
 734 03b0 23       		.byte	0x23
 735 03b1 0C       		.uleb128 0xc
 736 03b2 06       		.uleb128 0x6
 737 03b3 2D010000 		.4byte	.LASF55
 738 03b7 08       		.byte	0x8
 739 03b8 65       		.byte	0x65
 740 03b9 74020000 		.4byte	0x274
 741 03bd 02       		.byte	0x2
 742 03be 23       		.byte	0x23
 743 03bf 10       		.uleb128 0x10
 744 03c0 06       		.uleb128 0x6
 745 03c1 AA020000 		.4byte	.LASF56
 746 03c5 08       		.byte	0x8
 747 03c6 66       		.byte	0x66
 748 03c7 74020000 		.4byte	0x274
 749 03cb 02       		.byte	0x2
 750 03cc 23       		.byte	0x23
 751 03cd 14       		.uleb128 0x14
 752 03ce 06       		.uleb128 0x6
 753 03cf 37030000 		.4byte	.LASF57
 754 03d3 08       		.byte	0x8
 755 03d4 6A       		.byte	0x6a
 756 03d5 14010000 		.4byte	0x114
 757 03d9 02       		.byte	0x2
 758 03da 23       		.byte	0x23
 759 03db 18       		.uleb128 0x18
 760 03dc 06       		.uleb128 0x6
 761 03dd 18040000 		.4byte	.LASF58
 762 03e1 08       		.byte	0x8
 763 03e2 6C       		.byte	0x6c
 764 03e3 74020000 		.4byte	0x274
 765 03e7 02       		.byte	0x2
 766 03e8 23       		.byte	0x23
 767 03e9 1C       		.uleb128 0x1c
 768 03ea 00       		.byte	0
 769 03eb 03       		.uleb128 0x3
 770 03ec CA040000 		.4byte	.LASF59
 771 03f0 08       		.byte	0x8
 772 03f1 6E       		.byte	0x6e
 773 03f2 80030000 		.4byte	0x380
 774 03f6 05       		.uleb128 0x5
 775 03f7 6B020000 		.4byte	.LASF60
 776 03fb 10       		.byte	0x10
 777 03fc 09       		.byte	0x9
 778 03fd 2C       		.byte	0x2c
 779 03fe 2D040000 		.4byte	0x42d
 780 0402 06       		.uleb128 0x6
 781 0403 D0000000 		.4byte	.LASF61
 782 0407 09       		.byte	0x9
 783 0408 2D       		.byte	0x2d
 784 0409 7A020000 		.4byte	0x27a
 785 040d 02       		.byte	0x2
ARM GAS  /var/folders/dt/0wfd0knj7gs46m8vwfzktm600000gn/T//cchxVajv.s 			page 15


 786 040e 23       		.byte	0x23
 787 040f 00       		.uleb128 0
 788 0410 06       		.uleb128 0x6
 789 0411 2E050000 		.4byte	.LASF62
 790 0415 09       		.byte	0x9
 791 0416 2F       		.byte	0x2f
 792 0417 74020000 		.4byte	0x274
 793 041b 02       		.byte	0x2
 794 041c 23       		.byte	0x23
 795 041d 08       		.uleb128 0x8
 796 041e 06       		.uleb128 0x6
 797 041f 34040000 		.4byte	.LASF63
 798 0423 09       		.byte	0x9
 799 0424 31       		.byte	0x31
 800 0425 2D040000 		.4byte	0x42d
 801 0429 02       		.byte	0x2
 802 042a 23       		.byte	0x23
 803 042b 0C       		.uleb128 0xc
 804 042c 00       		.byte	0
 805 042d 09       		.uleb128 0x9
 806 042e 04       		.byte	0x4
 807 042f F6030000 		.4byte	0x3f6
 808 0433 03       		.uleb128 0x3
 809 0434 6B020000 		.4byte	.LASF60
 810 0438 09       		.byte	0x9
 811 0439 33       		.byte	0x33
 812 043a F6030000 		.4byte	0x3f6
 813 043e 03       		.uleb128 0x3
 814 043f F1040000 		.4byte	.LASF64
 815 0443 0A       		.byte	0xa
 816 0444 29       		.byte	0x29
 817 0445 49040000 		.4byte	0x449
 818 0449 05       		.uleb128 0x5
 819 044a F1040000 		.4byte	.LASF64
 820 044e 0C       		.byte	0xc
 821 044f 0A       		.byte	0xa
 822 0450 2E       		.byte	0x2e
 823 0451 80040000 		.4byte	0x480
 824 0455 06       		.uleb128 0x6
 825 0456 A2030000 		.4byte	.LASF65
 826 045a 0A       		.byte	0xa
 827 045b 2F       		.byte	0x2f
 828 045c 80040000 		.4byte	0x480
 829 0460 02       		.byte	0x2
 830 0461 23       		.byte	0x23
 831 0462 00       		.uleb128 0
 832 0463 06       		.uleb128 0x6
 833 0464 5D030000 		.4byte	.LASF66
 834 0468 0A       		.byte	0xa
 835 0469 32       		.byte	0x32
 836 046a 74020000 		.4byte	0x274
 837 046e 02       		.byte	0x2
 838 046f 23       		.byte	0x23
 839 0470 04       		.uleb128 0x4
 840 0471 06       		.uleb128 0x6
 841 0472 B2020000 		.4byte	.LASF67
 842 0476 0A       		.byte	0xa
ARM GAS  /var/folders/dt/0wfd0knj7gs46m8vwfzktm600000gn/T//cchxVajv.s 			page 16


 843 0477 34       		.byte	0x34
 844 0478 FE000000 		.4byte	0xfe
 845 047c 02       		.byte	0x2
 846 047d 23       		.byte	0x23
 847 047e 08       		.uleb128 0x8
 848 047f 00       		.byte	0
 849 0480 09       		.uleb128 0x9
 850 0481 04       		.byte	0x4
 851 0482 3E040000 		.4byte	0x43e
 852 0486 05       		.uleb128 0x5
 853 0487 3E010000 		.4byte	.LASF68
 854 048b 04       		.byte	0x4
 855 048c 0A       		.byte	0xa
 856 048d 3C       		.byte	0x3c
 857 048e A1040000 		.4byte	0x4a1
 858 0492 06       		.uleb128 0x6
 859 0493 C2040000 		.4byte	.LASF69
 860 0497 0A       		.byte	0xa
 861 0498 3D       		.byte	0x3d
 862 0499 80040000 		.4byte	0x480
 863 049d 02       		.byte	0x2
 864 049e 23       		.byte	0x23
 865 049f 00       		.uleb128 0
 866 04a0 00       		.byte	0
 867 04a1 03       		.uleb128 0x3
 868 04a2 3E010000 		.4byte	.LASF68
 869 04a6 0A       		.byte	0xa
 870 04a7 40       		.byte	0x40
 871 04a8 86040000 		.4byte	0x486
 872 04ac 0E       		.uleb128 0xe
 873 04ad 04       		.byte	0x4
 874 04ae 06       		.byte	0x6
 875 04af 90       		.byte	0x90
 876 04b0 E1040000 		.4byte	0x4e1
 877 04b4 0F       		.uleb128 0xf
 878 04b5 18000000 		.4byte	.LASF70
 879 04b9 06       		.byte	0x6
 880 04ba 97       		.byte	0x97
 881 04bb F3000000 		.4byte	0xf3
 882 04bf 0F       		.uleb128 0xf
 883 04c0 66000000 		.4byte	.LASF71
 884 04c4 06       		.byte	0x6
 885 04c5 9E       		.byte	0x9e
 886 04c6 F3000000 		.4byte	0xf3
 887 04ca 0F       		.uleb128 0xf
 888 04cb FF040000 		.4byte	.LASF72
 889 04cf 06       		.byte	0x6
 890 04d0 A5       		.byte	0xa5
 891 04d1 B2020000 		.4byte	0x2b2
 892 04d5 0F       		.uleb128 0xf
 893 04d6 8C030000 		.4byte	.LASF73
 894 04da 06       		.byte	0x6
 895 04db AC       		.byte	0xac
 896 04dc FE000000 		.4byte	0xfe
 897 04e0 00       		.byte	0
 898 04e1 09       		.uleb128 0x9
 899 04e2 04       		.byte	0x4
ARM GAS  /var/folders/dt/0wfd0knj7gs46m8vwfzktm600000gn/T//cchxVajv.s 			page 17


 900 04e3 E7040000 		.4byte	0x4e7
 901 04e7 10       		.uleb128 0x10
 902 04e8 EC040000 		.4byte	0x4ec
 903 04ec 04       		.uleb128 0x4
 904 04ed 01       		.byte	0x1
 905 04ee 08       		.byte	0x8
 906 04ef 27040000 		.4byte	.LASF74
 907 04f3 09       		.uleb128 0x9
 908 04f4 04       		.byte	0x4
 909 04f5 B4020000 		.4byte	0x2b4
 910 04f9 09       		.uleb128 0x9
 911 04fa 04       		.byte	0x4
 912 04fb 33040000 		.4byte	0x433
 913 04ff 03       		.uleb128 0x3
 914 0500 00000000 		.4byte	.LASF75
 915 0504 06       		.byte	0x6
 916 0505 DF       		.byte	0xdf
 917 0506 0A050000 		.4byte	0x50a
 918 050a 09       		.uleb128 0x9
 919 050b 04       		.byte	0x4
 920 050c 10050000 		.4byte	0x510
 921 0510 11       		.uleb128 0x11
 922 0511 01       		.byte	0x1
 923 0512 F3000000 		.4byte	0xf3
 924 0516 20050000 		.4byte	0x520
 925 051a 12       		.uleb128 0x12
 926 051b B2020000 		.4byte	0x2b2
 927 051f 00       		.byte	0
 928 0520 03       		.uleb128 0x3
 929 0521 20020000 		.4byte	.LASF76
 930 0525 0B       		.byte	0xb
 931 0526 37       		.byte	0x37
 932 0527 2B050000 		.4byte	0x52b
 933 052b 05       		.uleb128 0x5
 934 052c 20020000 		.4byte	.LASF76
 935 0530 20       		.byte	0x20
 936 0531 0B       		.byte	0xb
 937 0532 45       		.byte	0x45
 938 0533 9A050000 		.4byte	0x59a
 939 0537 06       		.uleb128 0x6
 940 0538 89000000 		.4byte	.LASF77
 941 053c 0B       		.byte	0xb
 942 053d 46       		.byte	0x46
 943 053e 7A020000 		.4byte	0x27a
 944 0542 02       		.byte	0x2
 945 0543 23       		.byte	0x23
 946 0544 00       		.uleb128 0
 947 0545 06       		.uleb128 0x6
 948 0546 61020000 		.4byte	.LASF78
 949 054a 0B       		.byte	0xb
 950 054b 47       		.byte	0x47
 951 054c 30000000 		.4byte	0x30
 952 0550 02       		.byte	0x2
 953 0551 23       		.byte	0x23
 954 0552 08       		.uleb128 0x8
 955 0553 06       		.uleb128 0x6
 956 0554 F7000000 		.4byte	.LASF79
ARM GAS  /var/folders/dt/0wfd0knj7gs46m8vwfzktm600000gn/T//cchxVajv.s 			page 18


 957 0558 0B       		.byte	0xb
 958 0559 48       		.byte	0x48
 959 055a BD050000 		.4byte	0x5bd
 960 055e 02       		.byte	0x2
 961 055f 23       		.byte	0x23
 962 0560 0C       		.uleb128 0xc
 963 0561 06       		.uleb128 0x6
 964 0562 B5040000 		.4byte	.LASF80
 965 0566 0B       		.byte	0xb
 966 0567 49       		.byte	0x49
 967 0568 BD050000 		.4byte	0x5bd
 968 056c 02       		.byte	0x2
 969 056d 23       		.byte	0x23
 970 056e 10       		.uleb128 0x10
 971 056f 06       		.uleb128 0x6
 972 0570 00010000 		.4byte	.LASF81
 973 0574 0B       		.byte	0xb
 974 0575 4B       		.byte	0x4b
 975 0576 BD050000 		.4byte	0x5bd
 976 057a 02       		.byte	0x2
 977 057b 23       		.byte	0x23
 978 057c 14       		.uleb128 0x14
 979 057d 06       		.uleb128 0x6
 980 057e 2F030000 		.4byte	.LASF82
 981 0582 0B       		.byte	0xb
 982 0583 4C       		.byte	0x4c
 983 0584 BD050000 		.4byte	0x5bd
 984 0588 02       		.byte	0x2
 985 0589 23       		.byte	0x23
 986 058a 18       		.uleb128 0x18
 987 058b 06       		.uleb128 0x6
 988 058c D4040000 		.4byte	.LASF83
 989 0590 0B       		.byte	0xb
 990 0591 4D       		.byte	0x4d
 991 0592 9A050000 		.4byte	0x59a
 992 0596 02       		.byte	0x2
 993 0597 23       		.byte	0x23
 994 0598 1C       		.uleb128 0x1c
 995 0599 00       		.byte	0
 996 059a 03       		.uleb128 0x3
 997 059b 16020000 		.4byte	.LASF84
 998 059f 0B       		.byte	0xb
 999 05a0 3A       		.byte	0x3a
 1000 05a1 A5050000 		.4byte	0x5a5
 1001 05a5 09       		.uleb128 0x9
 1002 05a6 04       		.byte	0x4
 1003 05a7 AB050000 		.4byte	0x5ab
 1004 05ab 13       		.uleb128 0x13
 1005 05ac 01       		.byte	0x1
 1006 05ad B7050000 		.4byte	0x5b7
 1007 05b1 12       		.uleb128 0x12
 1008 05b2 B7050000 		.4byte	0x5b7
 1009 05b6 00       		.byte	0
 1010 05b7 09       		.uleb128 0x9
 1011 05b8 04       		.byte	0x4
 1012 05b9 20050000 		.4byte	0x520
 1013 05bd 09       		.uleb128 0x9
ARM GAS  /var/folders/dt/0wfd0knj7gs46m8vwfzktm600000gn/T//cchxVajv.s 			page 19


 1014 05be 04       		.byte	0x4
 1015 05bf 49000000 		.4byte	0x49
 1016 05c3 03       		.uleb128 0x3
 1017 05c4 0B020000 		.4byte	.LASF85
 1018 05c8 0B       		.byte	0xb
 1019 05c9 76       		.byte	0x76
 1020 05ca 20050000 		.4byte	0x520
 1021 05ce 03       		.uleb128 0x3
 1022 05cf 28000000 		.4byte	.LASF86
 1023 05d3 0B       		.byte	0xb
 1024 05d4 E6       		.byte	0xe6
 1025 05d5 20050000 		.4byte	0x520
 1026 05d9 11       		.uleb128 0x11
 1027 05da 01       		.byte	0x1
 1028 05db 30000000 		.4byte	0x30
 1029 05df F3050000 		.4byte	0x5f3
 1030 05e3 12       		.uleb128 0x12
 1031 05e4 B2020000 		.4byte	0x2b2
 1032 05e8 12       		.uleb128 0x12
 1033 05e9 F3050000 		.4byte	0x5f3
 1034 05ed 12       		.uleb128 0x12
 1035 05ee 30000000 		.4byte	0x30
 1036 05f2 00       		.byte	0
 1037 05f3 09       		.uleb128 0x9
 1038 05f4 04       		.byte	0x4
 1039 05f5 F9050000 		.4byte	0x5f9
 1040 05f9 10       		.uleb128 0x10
 1041 05fa 49000000 		.4byte	0x49
 1042 05fe 09       		.uleb128 0x9
 1043 05ff 04       		.byte	0x4
 1044 0600 D9050000 		.4byte	0x5d9
 1045 0604 11       		.uleb128 0x11
 1046 0605 01       		.byte	0x1
 1047 0606 30000000 		.4byte	0x30
 1048 060a 1E060000 		.4byte	0x61e
 1049 060e 12       		.uleb128 0x12
 1050 060f B2020000 		.4byte	0x2b2
 1051 0613 12       		.uleb128 0x12
 1052 0614 BD050000 		.4byte	0x5bd
 1053 0618 12       		.uleb128 0x12
 1054 0619 30000000 		.4byte	0x30
 1055 061d 00       		.byte	0
 1056 061e 09       		.uleb128 0x9
 1057 061f 04       		.byte	0x4
 1058 0620 04060000 		.4byte	0x604
 1059 0624 11       		.uleb128 0x11
 1060 0625 01       		.byte	0x1
 1061 0626 BC000000 		.4byte	0xbc
 1062 062a 34060000 		.4byte	0x634
 1063 062e 12       		.uleb128 0x12
 1064 062f B2020000 		.4byte	0x2b2
 1065 0633 00       		.byte	0
 1066 0634 09       		.uleb128 0x9
 1067 0635 04       		.byte	0x4
 1068 0636 24060000 		.4byte	0x624
 1069 063a 11       		.uleb128 0x11
 1070 063b 01       		.byte	0x1
ARM GAS  /var/folders/dt/0wfd0knj7gs46m8vwfzktm600000gn/T//cchxVajv.s 			page 20


 1071 063c F3000000 		.4byte	0xf3
 1072 0640 54060000 		.4byte	0x654
 1073 0644 12       		.uleb128 0x12
 1074 0645 B2020000 		.4byte	0x2b2
 1075 0649 12       		.uleb128 0x12
 1076 064a 49000000 		.4byte	0x49
 1077 064e 12       		.uleb128 0x12
 1078 064f 09010000 		.4byte	0x109
 1079 0653 00       		.byte	0
 1080 0654 09       		.uleb128 0x9
 1081 0655 04       		.byte	0x4
 1082 0656 3A060000 		.4byte	0x63a
 1083 065a 11       		.uleb128 0x11
 1084 065b 01       		.byte	0x1
 1085 065c F3000000 		.4byte	0xf3
 1086 0660 6F060000 		.4byte	0x66f
 1087 0664 12       		.uleb128 0x12
 1088 0665 B2020000 		.4byte	0x2b2
 1089 0669 12       		.uleb128 0x12
 1090 066a 09010000 		.4byte	0x109
 1091 066e 00       		.byte	0
 1092 066f 09       		.uleb128 0x9
 1093 0670 04       		.byte	0x4
 1094 0671 5A060000 		.4byte	0x65a
 1095 0675 11       		.uleb128 0x11
 1096 0676 01       		.byte	0x1
 1097 0677 30000000 		.4byte	0x30
 1098 067b 94060000 		.4byte	0x694
 1099 067f 12       		.uleb128 0x12
 1100 0680 B2020000 		.4byte	0x2b2
 1101 0684 12       		.uleb128 0x12
 1102 0685 F3050000 		.4byte	0x5f3
 1103 0689 12       		.uleb128 0x12
 1104 068a 30000000 		.4byte	0x30
 1105 068e 12       		.uleb128 0x12
 1106 068f 09010000 		.4byte	0x109
 1107 0693 00       		.byte	0
 1108 0694 09       		.uleb128 0x9
 1109 0695 04       		.byte	0x4
 1110 0696 75060000 		.4byte	0x675
 1111 069a 11       		.uleb128 0x11
 1112 069b 01       		.byte	0x1
 1113 069c 30000000 		.4byte	0x30
 1114 06a0 B9060000 		.4byte	0x6b9
 1115 06a4 12       		.uleb128 0x12
 1116 06a5 B2020000 		.4byte	0x2b2
 1117 06a9 12       		.uleb128 0x12
 1118 06aa BD050000 		.4byte	0x5bd
 1119 06ae 12       		.uleb128 0x12
 1120 06af 30000000 		.4byte	0x30
 1121 06b3 12       		.uleb128 0x12
 1122 06b4 09010000 		.4byte	0x109
 1123 06b8 00       		.byte	0
 1124 06b9 09       		.uleb128 0x9
 1125 06ba 04       		.byte	0x4
 1126 06bb 9A060000 		.4byte	0x69a
 1127 06bf 14       		.uleb128 0x14
ARM GAS  /var/folders/dt/0wfd0knj7gs46m8vwfzktm600000gn/T//cchxVajv.s 			page 21


 1128 06c0 9B040000 		.4byte	.LASF87
 1129 06c4 0C       		.byte	0xc
 1130 06c5 0B01     		.2byte	0x10b
 1131 06c7 B1000000 		.4byte	0xb1
 1132 06cb 11       		.uleb128 0x11
 1133 06cc 01       		.byte	0x1
 1134 06cd BF060000 		.4byte	0x6bf
 1135 06d1 DB060000 		.4byte	0x6db
 1136 06d5 12       		.uleb128 0x12
 1137 06d6 B2020000 		.4byte	0x2b2
 1138 06da 00       		.byte	0
 1139 06db 09       		.uleb128 0x9
 1140 06dc 04       		.byte	0x4
 1141 06dd CB060000 		.4byte	0x6cb
 1142 06e1 0D       		.uleb128 0xd
 1143 06e2 62000000 		.4byte	0x62
 1144 06e6 0D       		.uleb128 0xd
 1145 06e7 74000000 		.4byte	0x74
 1146 06eb 15       		.uleb128 0x15
 1147 06ec 1C       		.byte	0x1c
 1148 06ed 0D       		.byte	0xd
 1149 06ee F803     		.2byte	0x3f8
 1150 06f0 5E070000 		.4byte	0x75e
 1151 06f4 0B       		.uleb128 0xb
 1152 06f5 43524C00 		.ascii	"CRL\000"
 1153 06f9 0D       		.byte	0xd
 1154 06fa FA03     		.2byte	0x3fa
 1155 06fc 6F030000 		.4byte	0x36f
 1156 0700 02       		.byte	0x2
 1157 0701 23       		.byte	0x23
 1158 0702 00       		.uleb128 0
 1159 0703 0B       		.uleb128 0xb
 1160 0704 43524800 		.ascii	"CRH\000"
 1161 0708 0D       		.byte	0xd
 1162 0709 FB03     		.2byte	0x3fb
 1163 070b 6F030000 		.4byte	0x36f
 1164 070f 02       		.byte	0x2
 1165 0710 23       		.byte	0x23
 1166 0711 04       		.uleb128 0x4
 1167 0712 0B       		.uleb128 0xb
 1168 0713 49445200 		.ascii	"IDR\000"
 1169 0717 0D       		.byte	0xd
 1170 0718 FC03     		.2byte	0x3fc
 1171 071a 6F030000 		.4byte	0x36f
 1172 071e 02       		.byte	0x2
 1173 071f 23       		.byte	0x23
 1174 0720 08       		.uleb128 0x8
 1175 0721 0B       		.uleb128 0xb
 1176 0722 4F445200 		.ascii	"ODR\000"
 1177 0726 0D       		.byte	0xd
 1178 0727 FD03     		.2byte	0x3fd
 1179 0729 6F030000 		.4byte	0x36f
 1180 072d 02       		.byte	0x2
 1181 072e 23       		.byte	0x23
 1182 072f 0C       		.uleb128 0xc
 1183 0730 16       		.uleb128 0x16
 1184 0731 AD000000 		.4byte	.LASF88
ARM GAS  /var/folders/dt/0wfd0knj7gs46m8vwfzktm600000gn/T//cchxVajv.s 			page 22


 1185 0735 0D       		.byte	0xd
 1186 0736 FE03     		.2byte	0x3fe
 1187 0738 6F030000 		.4byte	0x36f
 1188 073c 02       		.byte	0x2
 1189 073d 23       		.byte	0x23
 1190 073e 10       		.uleb128 0x10
 1191 073f 0B       		.uleb128 0xb
 1192 0740 42525200 		.ascii	"BRR\000"
 1193 0744 0D       		.byte	0xd
 1194 0745 FF03     		.2byte	0x3ff
 1195 0747 6F030000 		.4byte	0x36f
 1196 074b 02       		.byte	0x2
 1197 074c 23       		.byte	0x23
 1198 074d 14       		.uleb128 0x14
 1199 074e 16       		.uleb128 0x16
 1200 074f AB010000 		.4byte	.LASF89
 1201 0753 0D       		.byte	0xd
 1202 0754 0004     		.2byte	0x400
 1203 0756 6F030000 		.4byte	0x36f
 1204 075a 02       		.byte	0x2
 1205 075b 23       		.byte	0x23
 1206 075c 18       		.uleb128 0x18
 1207 075d 00       		.byte	0
 1208 075e 14       		.uleb128 0x14
 1209 075f 96010000 		.4byte	.LASF90
 1210 0763 0D       		.byte	0xd
 1211 0764 0104     		.2byte	0x401
 1212 0766 EB060000 		.4byte	0x6eb
 1213 076a 15       		.uleb128 0x15
 1214 076b 1C       		.byte	0x1c
 1215 076c 0D       		.byte	0xd
 1216 076d E104     		.2byte	0x4e1
 1217 076f 44080000 		.4byte	0x844
 1218 0773 0B       		.uleb128 0xb
 1219 0774 535200   		.ascii	"SR\000"
 1220 0777 0D       		.byte	0xd
 1221 0778 E304     		.2byte	0x4e3
 1222 077a E1060000 		.4byte	0x6e1
 1223 077e 02       		.byte	0x2
 1224 077f 23       		.byte	0x23
 1225 0780 00       		.uleb128 0
 1226 0781 16       		.uleb128 0x16
 1227 0782 E4020000 		.4byte	.LASF91
 1228 0786 0D       		.byte	0xd
 1229 0787 E404     		.2byte	0x4e4
 1230 0789 62000000 		.4byte	0x62
 1231 078d 02       		.byte	0x2
 1232 078e 23       		.byte	0x23
 1233 078f 02       		.uleb128 0x2
 1234 0790 0B       		.uleb128 0xb
 1235 0791 445200   		.ascii	"DR\000"
 1236 0794 0D       		.byte	0xd
 1237 0795 E504     		.2byte	0x4e5
 1238 0797 E1060000 		.4byte	0x6e1
 1239 079b 02       		.byte	0x2
 1240 079c 23       		.byte	0x23
 1241 079d 04       		.uleb128 0x4
ARM GAS  /var/folders/dt/0wfd0knj7gs46m8vwfzktm600000gn/T//cchxVajv.s 			page 23


 1242 079e 16       		.uleb128 0x16
 1243 079f EE020000 		.4byte	.LASF92
 1244 07a3 0D       		.byte	0xd
 1245 07a4 E604     		.2byte	0x4e6
 1246 07a6 62000000 		.4byte	0x62
 1247 07aa 02       		.byte	0x2
 1248 07ab 23       		.byte	0x23
 1249 07ac 06       		.uleb128 0x6
 1250 07ad 0B       		.uleb128 0xb
 1251 07ae 42525200 		.ascii	"BRR\000"
 1252 07b2 0D       		.byte	0xd
 1253 07b3 E704     		.2byte	0x4e7
 1254 07b5 E1060000 		.4byte	0x6e1
 1255 07b9 02       		.byte	0x2
 1256 07ba 23       		.byte	0x23
 1257 07bb 08       		.uleb128 0x8
 1258 07bc 16       		.uleb128 0x16
 1259 07bd F8020000 		.4byte	.LASF93
 1260 07c1 0D       		.byte	0xd
 1261 07c2 E804     		.2byte	0x4e8
 1262 07c4 62000000 		.4byte	0x62
 1263 07c8 02       		.byte	0x2
 1264 07c9 23       		.byte	0x23
 1265 07ca 0A       		.uleb128 0xa
 1266 07cb 0B       		.uleb128 0xb
 1267 07cc 43523100 		.ascii	"CR1\000"
 1268 07d0 0D       		.byte	0xd
 1269 07d1 E904     		.2byte	0x4e9
 1270 07d3 E1060000 		.4byte	0x6e1
 1271 07d7 02       		.byte	0x2
 1272 07d8 23       		.byte	0x23
 1273 07d9 0C       		.uleb128 0xc
 1274 07da 16       		.uleb128 0x16
 1275 07db 02030000 		.4byte	.LASF94
 1276 07df 0D       		.byte	0xd
 1277 07e0 EA04     		.2byte	0x4ea
 1278 07e2 62000000 		.4byte	0x62
 1279 07e6 02       		.byte	0x2
 1280 07e7 23       		.byte	0x23
 1281 07e8 0E       		.uleb128 0xe
 1282 07e9 0B       		.uleb128 0xb
 1283 07ea 43523200 		.ascii	"CR2\000"
 1284 07ee 0D       		.byte	0xd
 1285 07ef EB04     		.2byte	0x4eb
 1286 07f1 E1060000 		.4byte	0x6e1
 1287 07f5 02       		.byte	0x2
 1288 07f6 23       		.byte	0x23
 1289 07f7 10       		.uleb128 0x10
 1290 07f8 16       		.uleb128 0x16
 1291 07f9 0C030000 		.4byte	.LASF95
 1292 07fd 0D       		.byte	0xd
 1293 07fe EC04     		.2byte	0x4ec
 1294 0800 62000000 		.4byte	0x62
 1295 0804 02       		.byte	0x2
 1296 0805 23       		.byte	0x23
 1297 0806 12       		.uleb128 0x12
 1298 0807 0B       		.uleb128 0xb
ARM GAS  /var/folders/dt/0wfd0knj7gs46m8vwfzktm600000gn/T//cchxVajv.s 			page 24


 1299 0808 43523300 		.ascii	"CR3\000"
 1300 080c 0D       		.byte	0xd
 1301 080d ED04     		.2byte	0x4ed
 1302 080f E1060000 		.4byte	0x6e1
 1303 0813 02       		.byte	0x2
 1304 0814 23       		.byte	0x23
 1305 0815 14       		.uleb128 0x14
 1306 0816 16       		.uleb128 0x16
 1307 0817 CE030000 		.4byte	.LASF96
 1308 081b 0D       		.byte	0xd
 1309 081c EE04     		.2byte	0x4ee
 1310 081e 62000000 		.4byte	0x62
 1311 0822 02       		.byte	0x2
 1312 0823 23       		.byte	0x23
 1313 0824 16       		.uleb128 0x16
 1314 0825 16       		.uleb128 0x16
 1315 0826 BC000000 		.4byte	.LASF97
 1316 082a 0D       		.byte	0xd
 1317 082b EF04     		.2byte	0x4ef
 1318 082d E1060000 		.4byte	0x6e1
 1319 0831 02       		.byte	0x2
 1320 0832 23       		.byte	0x23
 1321 0833 18       		.uleb128 0x18
 1322 0834 16       		.uleb128 0x16
 1323 0835 1D030000 		.4byte	.LASF98
 1324 0839 0D       		.byte	0xd
 1325 083a F004     		.2byte	0x4f0
 1326 083c 62000000 		.4byte	0x62
 1327 0840 02       		.byte	0x2
 1328 0841 23       		.byte	0x23
 1329 0842 1A       		.uleb128 0x1a
 1330 0843 00       		.byte	0
 1331 0844 14       		.uleb128 0x14
 1332 0845 D6010000 		.4byte	.LASF99
 1333 0849 0D       		.byte	0xd
 1334 084a F104     		.2byte	0x4f1
 1335 084c 6A070000 		.4byte	0x76a
 1336 0850 03       		.uleb128 0x3
 1337 0851 34000000 		.4byte	.LASF100
 1338 0855 0E       		.byte	0xe
 1339 0856 78       		.byte	0x78
 1340 0857 86000000 		.4byte	0x86
 1341 085b 17       		.uleb128 0x17
 1342 085c 01       		.byte	0x1
 1343 085d 0F       		.byte	0xf
 1344 085e 64       		.byte	0x64
 1345 085f 76080000 		.4byte	0x876
 1346 0863 18       		.uleb128 0x18
 1347 0864 C4030000 		.4byte	.LASF101
 1348 0868 00       		.sleb128 0
 1349 0869 18       		.uleb128 0x18
 1350 086a AA030000 		.4byte	.LASF102
 1351 086e 01       		.sleb128 1
 1352 086f 18       		.uleb128 0x18
 1353 0870 AC040000 		.4byte	.LASF103
 1354 0874 02       		.sleb128 2
 1355 0875 00       		.byte	0
ARM GAS  /var/folders/dt/0wfd0knj7gs46m8vwfzktm600000gn/T//cchxVajv.s 			page 25


 1356 0876 03       		.uleb128 0x3
 1357 0877 E9030000 		.4byte	.LASF104
 1358 087b 0F       		.byte	0xf
 1359 087c 68       		.byte	0x68
 1360 087d 5B080000 		.4byte	0x85b
 1361 0881 03       		.uleb128 0x3
 1362 0882 F3030000 		.4byte	.LASF105
 1363 0886 0F       		.byte	0xf
 1364 0887 6D       		.byte	0x6d
 1365 0888 8C080000 		.4byte	0x88c
 1366 088c 05       		.uleb128 0x5
 1367 088d F3030000 		.4byte	.LASF105
 1368 0891 74       		.byte	0x74
 1369 0892 0F       		.byte	0xf
 1370 0893 87       		.byte	0x87
 1371 0894 15090000 		.4byte	0x915
 1372 0898 07       		.uleb128 0x7
 1373 0899 766D7400 		.ascii	"vmt\000"
 1374 089d 0F       		.byte	0xf
 1375 089e 89       		.byte	0x89
 1376 089f EC090000 		.4byte	0x9ec
 1377 08a3 02       		.byte	0x2
 1378 08a4 23       		.byte	0x23
 1379 08a5 00       		.uleb128 0
 1380 08a6 06       		.uleb128 0x6
 1381 08a7 B0010000 		.4byte	.LASF106
 1382 08ab 0F       		.byte	0xf
 1383 08ac 8A       		.byte	0x8a
 1384 08ad A1040000 		.4byte	0x4a1
 1385 08b1 02       		.byte	0x2
 1386 08b2 23       		.byte	0x23
 1387 08b3 04       		.uleb128 0x4
 1388 08b4 06       		.uleb128 0x6
 1389 08b5 EB040000 		.4byte	.LASF107
 1390 08b9 0F       		.byte	0xf
 1391 08ba 8A       		.byte	0x8a
 1392 08bb BF060000 		.4byte	0x6bf
 1393 08bf 02       		.byte	0x2
 1394 08c0 23       		.byte	0x23
 1395 08c1 08       		.uleb128 0x8
 1396 08c2 06       		.uleb128 0x6
 1397 08c3 D8000000 		.4byte	.LASF108
 1398 08c7 0F       		.byte	0xf
 1399 08c8 8A       		.byte	0x8a
 1400 08c9 76080000 		.4byte	0x876
 1401 08cd 02       		.byte	0x2
 1402 08ce 23       		.byte	0x23
 1403 08cf 0C       		.uleb128 0xc
 1404 08d0 06       		.uleb128 0x6
 1405 08d1 84010000 		.4byte	.LASF109
 1406 08d5 0F       		.byte	0xf
 1407 08d6 8A       		.byte	0x8a
 1408 08d7 C3050000 		.4byte	0x5c3
 1409 08db 02       		.byte	0x2
 1410 08dc 23       		.byte	0x23
 1411 08dd 10       		.uleb128 0x10
 1412 08de 06       		.uleb128 0x6
ARM GAS  /var/folders/dt/0wfd0knj7gs46m8vwfzktm600000gn/T//cchxVajv.s 			page 26


 1413 08df CF010000 		.4byte	.LASF110
 1414 08e3 0F       		.byte	0xf
 1415 08e4 8A       		.byte	0x8a
 1416 08e5 CE050000 		.4byte	0x5ce
 1417 08e9 02       		.byte	0x2
 1418 08ea 23       		.byte	0x23
 1419 08eb 30       		.uleb128 0x30
 1420 08ec 07       		.uleb128 0x7
 1421 08ed 696200   		.ascii	"ib\000"
 1422 08f0 0F       		.byte	0xf
 1423 08f1 8A       		.byte	0x8a
 1424 08f2 F7090000 		.4byte	0x9f7
 1425 08f6 02       		.byte	0x2
 1426 08f7 23       		.byte	0x23
 1427 08f8 50       		.uleb128 0x50
 1428 08f9 07       		.uleb128 0x7
 1429 08fa 6F6200   		.ascii	"ob\000"
 1430 08fd 0F       		.byte	0xf
 1431 08fe 8A       		.byte	0x8a
 1432 08ff F7090000 		.4byte	0x9f7
 1433 0903 02       		.byte	0x2
 1434 0904 23       		.byte	0x23
 1435 0905 60       		.uleb128 0x60
 1436 0906 06       		.uleb128 0x6
 1437 0907 50010000 		.4byte	.LASF111
 1438 090b 0F       		.byte	0xf
 1439 090c 8A       		.byte	0x8a
 1440 090d 070A0000 		.4byte	0xa07
 1441 0911 02       		.byte	0x2
 1442 0912 23       		.byte	0x23
 1443 0913 70       		.uleb128 0x70
 1444 0914 00       		.byte	0
 1445 0915 08       		.uleb128 0x8
 1446 0916 0C       		.byte	0xc
 1447 0917 10       		.byte	0x10
 1448 0918 C4       		.byte	0xc4
 1449 0919 56090000 		.4byte	0x956
 1450 091d 06       		.uleb128 0x6
 1451 091e 08000000 		.4byte	.LASF112
 1452 0922 10       		.byte	0x10
 1453 0923 C8       		.byte	0xc8
 1454 0924 86000000 		.4byte	0x86
 1455 0928 02       		.byte	0x2
 1456 0929 23       		.byte	0x23
 1457 092a 00       		.uleb128 0
 1458 092b 06       		.uleb128 0x6
 1459 092c 14050000 		.4byte	.LASF113
 1460 0930 10       		.byte	0x10
 1461 0931 CC       		.byte	0xcc
 1462 0932 62000000 		.4byte	0x62
 1463 0936 02       		.byte	0x2
 1464 0937 23       		.byte	0x23
 1465 0938 04       		.uleb128 0x4
 1466 0939 06       		.uleb128 0x6
 1467 093a 1B050000 		.4byte	.LASF114
 1468 093e 10       		.byte	0x10
 1469 093f D0       		.byte	0xd0
ARM GAS  /var/folders/dt/0wfd0knj7gs46m8vwfzktm600000gn/T//cchxVajv.s 			page 27


 1470 0940 62000000 		.4byte	0x62
 1471 0944 02       		.byte	0x2
 1472 0945 23       		.byte	0x23
 1473 0946 06       		.uleb128 0x6
 1474 0947 06       		.uleb128 0x6
 1475 0948 22050000 		.4byte	.LASF115
 1476 094c 10       		.byte	0x10
 1477 094d D4       		.byte	0xd4
 1478 094e 62000000 		.4byte	0x62
 1479 0952 02       		.byte	0x2
 1480 0953 23       		.byte	0x23
 1481 0954 08       		.uleb128 0x8
 1482 0955 00       		.byte	0
 1483 0956 03       		.uleb128 0x3
 1484 0957 C5020000 		.4byte	.LASF116
 1485 095b 10       		.byte	0x10
 1486 095c D5       		.byte	0xd5
 1487 095d 15090000 		.4byte	0x915
 1488 0961 05       		.uleb128 0x5
 1489 0962 74010000 		.4byte	.LASF117
 1490 0966 24       		.byte	0x24
 1491 0967 0F       		.byte	0xf
 1492 0968 7C       		.byte	0x7c
 1493 0969 EC090000 		.4byte	0x9ec
 1494 096d 06       		.uleb128 0x6
 1495 096e 52020000 		.4byte	.LASF118
 1496 0972 0F       		.byte	0xf
 1497 0973 7D       		.byte	0x7d
 1498 0974 FE050000 		.4byte	0x5fe
 1499 0978 02       		.byte	0x2
 1500 0979 23       		.byte	0x23
 1501 097a 00       		.uleb128 0
 1502 097b 06       		.uleb128 0x6
 1503 097c 22040000 		.4byte	.LASF119
 1504 0980 0F       		.byte	0xf
 1505 0981 7D       		.byte	0x7d
 1506 0982 1E060000 		.4byte	0x61e
 1507 0986 02       		.byte	0x2
 1508 0987 23       		.byte	0x23
 1509 0988 04       		.uleb128 0x4
 1510 0989 06       		.uleb128 0x6
 1511 098a 17010000 		.4byte	.LASF120
 1512 098e 0F       		.byte	0xf
 1513 098f 7D       		.byte	0x7d
 1514 0990 34060000 		.4byte	0x634
 1515 0994 02       		.byte	0x2
 1516 0995 23       		.byte	0x23
 1517 0996 08       		.uleb128 0x8
 1518 0997 06       		.uleb128 0x6
 1519 0998 06050000 		.4byte	.LASF121
 1520 099c 0F       		.byte	0xf
 1521 099d 7D       		.byte	0x7d
 1522 099e 34060000 		.4byte	0x634
 1523 09a2 02       		.byte	0x2
 1524 09a3 23       		.byte	0x23
 1525 09a4 0C       		.uleb128 0xc
 1526 09a5 07       		.uleb128 0x7
ARM GAS  /var/folders/dt/0wfd0knj7gs46m8vwfzktm600000gn/T//cchxVajv.s 			page 28


 1527 09a6 70757400 		.ascii	"put\000"
 1528 09aa 0F       		.byte	0xf
 1529 09ab 7D       		.byte	0x7d
 1530 09ac 54060000 		.4byte	0x654
 1531 09b0 02       		.byte	0x2
 1532 09b1 23       		.byte	0x23
 1533 09b2 10       		.uleb128 0x10
 1534 09b3 07       		.uleb128 0x7
 1535 09b4 67657400 		.ascii	"get\000"
 1536 09b8 0F       		.byte	0xf
 1537 09b9 7D       		.byte	0x7d
 1538 09ba 6F060000 		.4byte	0x66f
 1539 09be 02       		.byte	0x2
 1540 09bf 23       		.byte	0x23
 1541 09c0 14       		.uleb128 0x14
 1542 09c1 06       		.uleb128 0x6
 1543 09c2 E4010000 		.4byte	.LASF122
 1544 09c6 0F       		.byte	0xf
 1545 09c7 7D       		.byte	0x7d
 1546 09c8 94060000 		.4byte	0x694
 1547 09cc 02       		.byte	0x2
 1548 09cd 23       		.byte	0x23
 1549 09ce 18       		.uleb128 0x18
 1550 09cf 06       		.uleb128 0x6
 1551 09d0 83000000 		.4byte	.LASF123
 1552 09d4 0F       		.byte	0xf
 1553 09d5 7D       		.byte	0x7d
 1554 09d6 B9060000 		.4byte	0x6b9
 1555 09da 02       		.byte	0x2
 1556 09db 23       		.byte	0x23
 1557 09dc 1C       		.uleb128 0x1c
 1558 09dd 06       		.uleb128 0x6
 1559 09de 8A040000 		.4byte	.LASF124
 1560 09e2 0F       		.byte	0xf
 1561 09e3 7D       		.byte	0x7d
 1562 09e4 DB060000 		.4byte	0x6db
 1563 09e8 02       		.byte	0x2
 1564 09e9 23       		.byte	0x23
 1565 09ea 20       		.uleb128 0x20
 1566 09eb 00       		.byte	0
 1567 09ec 09       		.uleb128 0x9
 1568 09ed 04       		.byte	0x4
 1569 09ee F2090000 		.4byte	0x9f2
 1570 09f2 10       		.uleb128 0x10
 1571 09f3 61090000 		.4byte	0x961
 1572 09f7 19       		.uleb128 0x19
 1573 09f8 49000000 		.4byte	0x49
 1574 09fc 070A0000 		.4byte	0xa07
 1575 0a00 1A       		.uleb128 0x1a
 1576 0a01 74030000 		.4byte	0x374
 1577 0a05 0F       		.byte	0xf
 1578 0a06 00       		.byte	0
 1579 0a07 09       		.uleb128 0x9
 1580 0a08 04       		.byte	0x4
 1581 0a09 44080000 		.4byte	0x844
 1582 0a0d 1B       		.uleb128 0x1b
 1583 0a0e 38020000 		.4byte	.LASF125
ARM GAS  /var/folders/dt/0wfd0knj7gs46m8vwfzktm600000gn/T//cchxVajv.s 			page 29


 1584 0a12 01       		.byte	0x1
 1585 0a13 19       		.byte	0x19
 1586 0a14 01       		.byte	0x1
 1587 0a15 F3000000 		.4byte	0xf3
 1588 0a19 00000000 		.4byte	.LFB63
 1589 0a1d 34000000 		.4byte	.LFE63
 1590 0a21 00000000 		.4byte	.LLST0
 1591 0a25 01       		.byte	0x1
 1592 0a26 600A0000 		.4byte	0xa60
 1593 0a2a 1C       		.uleb128 0x1c
 1594 0a2b 61726700 		.ascii	"arg\000"
 1595 0a2f 01       		.byte	0x1
 1596 0a30 19       		.byte	0x19
 1597 0a31 B2020000 		.4byte	0x2b2
 1598 0a35 20000000 		.4byte	.LLST1
 1599 0a39 1D       		.uleb128 0x1d
 1600 0a3a 20000000 		.4byte	.LVL2
 1601 0a3e CE0B0000 		.4byte	0xbce
 1602 0a42 4E0A0000 		.4byte	0xa4e
 1603 0a46 1E       		.uleb128 0x1e
 1604 0a47 01       		.byte	0x1
 1605 0a48 50       		.byte	0x50
 1606 0a49 03       		.byte	0x3
 1607 0a4a 0A       		.byte	0xa
 1608 0a4b F401     		.2byte	0x1f4
 1609 0a4d 00       		.byte	0
 1610 0a4e 1F       		.uleb128 0x1f
 1611 0a4f 2A000000 		.4byte	.LVL3
 1612 0a53 CE0B0000 		.4byte	0xbce
 1613 0a57 1E       		.uleb128 0x1e
 1614 0a58 01       		.byte	0x1
 1615 0a59 50       		.byte	0x50
 1616 0a5a 03       		.byte	0x3
 1617 0a5b 0A       		.byte	0xa
 1618 0a5c F401     		.2byte	0x1f4
 1619 0a5e 00       		.byte	0
 1620 0a5f 00       		.byte	0
 1621 0a60 1B       		.uleb128 0x1b
 1622 0a61 00040000 		.4byte	.LASF126
 1623 0a65 01       		.byte	0x1
 1624 0a66 10       		.byte	0x10
 1625 0a67 01       		.byte	0x1
 1626 0a68 F3000000 		.4byte	0xf3
 1627 0a6c 00000000 		.4byte	.LFB62
 1628 0a70 1C000000 		.4byte	.LFE62
 1629 0a74 41000000 		.4byte	.LLST2
 1630 0a78 01       		.byte	0x1
 1631 0a79 960A0000 		.4byte	0xa96
 1632 0a7d 1C       		.uleb128 0x1c
 1633 0a7e 61726700 		.ascii	"arg\000"
 1634 0a82 01       		.byte	0x1
 1635 0a83 10       		.byte	0x10
 1636 0a84 B2020000 		.4byte	0x2b2
 1637 0a88 61000000 		.4byte	.LLST3
 1638 0a8c 20       		.uleb128 0x20
 1639 0a8d 1A000000 		.4byte	.LVL5
 1640 0a91 E30B0000 		.4byte	0xbe3
ARM GAS  /var/folders/dt/0wfd0knj7gs46m8vwfzktm600000gn/T//cchxVajv.s 			page 30


 1641 0a95 00       		.byte	0
 1642 0a96 21       		.uleb128 0x21
 1643 0a97 01       		.byte	0x1
 1644 0a98 29050000 		.4byte	.LASF141
 1645 0a9c 01       		.byte	0x1
 1646 0a9d 25       		.byte	0x25
 1647 0a9e 01       		.byte	0x1
 1648 0a9f 29000000 		.4byte	0x29
 1649 0aa3 00000000 		.4byte	.LFB64
 1650 0aa7 68000000 		.4byte	.LFE64
 1651 0aab 82000000 		.4byte	.LLST4
 1652 0aaf 01       		.byte	0x1
 1653 0ab0 630B0000 		.4byte	0xb63
 1654 0ab4 22       		.uleb128 0x22
 1655 0ab5 63010000 		.4byte	.LASF127
 1656 0ab9 01       		.byte	0x1
 1657 0aba 26       		.byte	0x26
 1658 0abb 74020000 		.4byte	0x274
 1659 0abf AE000000 		.4byte	.LLST5
 1660 0ac3 20       		.uleb128 0x20
 1661 0ac4 0A000000 		.4byte	.LVL7
 1662 0ac8 ED0B0000 		.4byte	0xbed
 1663 0acc 20       		.uleb128 0x20
 1664 0acd 0E000000 		.4byte	.LVL8
 1665 0ad1 F70B0000 		.4byte	0xbf7
 1666 0ad5 1D       		.uleb128 0x1d
 1667 0ad6 16000000 		.4byte	.LVL9
 1668 0ada 010C0000 		.4byte	0xc01
 1669 0ade E90A0000 		.4byte	0xae9
 1670 0ae2 1E       		.uleb128 0x1e
 1671 0ae3 01       		.byte	0x1
 1672 0ae4 51       		.byte	0x51
 1673 0ae5 02       		.byte	0x2
 1674 0ae6 74       		.byte	0x74
 1675 0ae7 00       		.sleb128 0
 1676 0ae8 00       		.byte	0
 1677 0ae9 1D       		.uleb128 0x1d
 1678 0aea 26000000 		.4byte	.LVL10
 1679 0aee 2C0C0000 		.4byte	0xc2c
 1680 0af2 1D0B0000 		.4byte	0xb1d
 1681 0af6 1E       		.uleb128 0x1e
 1682 0af7 01       		.byte	0x1
 1683 0af8 53       		.byte	0x53
 1684 0af9 05       		.byte	0x5
 1685 0afa 03       		.byte	0x3
 1686 0afb 00000000 		.4byte	Thread1
 1687 0aff 1E       		.uleb128 0x1e
 1688 0b00 01       		.byte	0x1
 1689 0b01 52       		.byte	0x52
 1690 0b02 02       		.byte	0x2
 1691 0b03 08       		.byte	0x8
 1692 0b04 40       		.byte	0x40
 1693 0b05 1E       		.uleb128 0x1e
 1694 0b06 01       		.byte	0x1
 1695 0b07 51       		.byte	0x51
 1696 0b08 03       		.byte	0x3
 1697 0b09 0A       		.byte	0xa
ARM GAS  /var/folders/dt/0wfd0knj7gs46m8vwfzktm600000gn/T//cchxVajv.s 			page 31


 1698 0b0a 3001     		.2byte	0x130
 1699 0b0c 1E       		.uleb128 0x1e
 1700 0b0d 01       		.byte	0x1
 1701 0b0e 50       		.byte	0x50
 1702 0b0f 05       		.byte	0x5
 1703 0b10 03       		.byte	0x3
 1704 0b11 00000000 		.4byte	.LANCHOR0
 1705 0b15 1E       		.uleb128 0x1e
 1706 0b16 02       		.byte	0x2
 1707 0b17 7D       		.byte	0x7d
 1708 0b18 00       		.sleb128 0
 1709 0b19 02       		.byte	0x2
 1710 0b1a 74       		.byte	0x74
 1711 0b1b 00       		.sleb128 0
 1712 0b1c 00       		.byte	0
 1713 0b1d 1D       		.uleb128 0x1d
 1714 0b1e 3A000000 		.4byte	.LVL12
 1715 0b22 CE0B0000 		.4byte	0xbce
 1716 0b26 320B0000 		.4byte	0xb32
 1717 0b2a 1E       		.uleb128 0x1e
 1718 0b2b 01       		.byte	0x1
 1719 0b2c 50       		.byte	0x50
 1720 0b2d 03       		.byte	0x3
 1721 0b2e 0A       		.byte	0xa
 1722 0b2f E803     		.2byte	0x3e8
 1723 0b31 00       		.byte	0
 1724 0b32 1F       		.uleb128 0x1f
 1725 0b33 4E000000 		.4byte	.LVL13
 1726 0b37 2C0C0000 		.4byte	0xc2c
 1727 0b3b 1E       		.uleb128 0x1e
 1728 0b3c 01       		.byte	0x1
 1729 0b3d 53       		.byte	0x53
 1730 0b3e 05       		.byte	0x5
 1731 0b3f 03       		.byte	0x3
 1732 0b40 00000000 		.4byte	shell
 1733 0b44 1E       		.uleb128 0x1e
 1734 0b45 01       		.byte	0x1
 1735 0b46 52       		.byte	0x52
 1736 0b47 02       		.byte	0x2
 1737 0b48 08       		.byte	0x8
 1738 0b49 40       		.byte	0x40
 1739 0b4a 1E       		.uleb128 0x1e
 1740 0b4b 01       		.byte	0x1
 1741 0b4c 51       		.byte	0x51
 1742 0b4d 03       		.byte	0x3
 1743 0b4e 0A       		.byte	0xa
 1744 0b4f B008     		.2byte	0x8b0
 1745 0b51 1E       		.uleb128 0x1e
 1746 0b52 01       		.byte	0x1
 1747 0b53 50       		.byte	0x50
 1748 0b54 05       		.byte	0x5
 1749 0b55 03       		.byte	0x3
 1750 0b56 00000000 		.4byte	.LANCHOR1
 1751 0b5a 1E       		.uleb128 0x1e
 1752 0b5b 02       		.byte	0x2
 1753 0b5c 7D       		.byte	0x7d
 1754 0b5d 00       		.sleb128 0
ARM GAS  /var/folders/dt/0wfd0knj7gs46m8vwfzktm600000gn/T//cchxVajv.s 			page 32


 1755 0b5e 02       		.byte	0x2
 1756 0b5f 74       		.byte	0x74
 1757 0b60 00       		.sleb128 0
 1758 0b61 00       		.byte	0
 1759 0b62 00       		.byte	0
 1760 0b63 19       		.uleb128 0x19
 1761 0b64 B4020000 		.4byte	0x2b4
 1762 0b68 740B0000 		.4byte	0xb74
 1763 0b6c 23       		.uleb128 0x23
 1764 0b6d 74030000 		.4byte	0x374
 1765 0b71 1501     		.2byte	0x115
 1766 0b73 00       		.byte	0
 1767 0b74 24       		.uleb128 0x24
 1768 0b75 25010000 		.4byte	.LASF128
 1769 0b79 01       		.byte	0x1
 1770 0b7a 0D       		.byte	0xd
 1771 0b7b 630B0000 		.4byte	0xb63
 1772 0b7f 05       		.byte	0x5
 1773 0b80 03       		.byte	0x3
 1774 0b81 00000000 		.4byte	waShell
 1775 0b85 19       		.uleb128 0x19
 1776 0b86 B4020000 		.4byte	0x2b4
 1777 0b8a 950B0000 		.4byte	0xb95
 1778 0b8e 1A       		.uleb128 0x1a
 1779 0b8f 74030000 		.4byte	0x374
 1780 0b93 25       		.byte	0x25
 1781 0b94 00       		.byte	0
 1782 0b95 24       		.uleb128 0x24
 1783 0b96 D2020000 		.4byte	.LASF129
 1784 0b9a 01       		.byte	0x1
 1785 0b9b 18       		.byte	0x18
 1786 0b9c 850B0000 		.4byte	0xb85
 1787 0ba0 05       		.byte	0x5
 1788 0ba1 03       		.byte	0x3
 1789 0ba2 00000000 		.4byte	waThread1
 1790 0ba6 25       		.uleb128 0x25
 1791 0ba7 DD040000 		.4byte	.LASF130
 1792 0bab 08       		.byte	0x8
 1793 0bac 72       		.byte	0x72
 1794 0bad EB030000 		.4byte	0x3eb
 1795 0bb1 01       		.byte	0x1
 1796 0bb2 01       		.byte	0x1
 1797 0bb3 26       		.uleb128 0x26
 1798 0bb4 6F000000 		.4byte	.LASF131
 1799 0bb8 11       		.byte	0x11
 1800 0bb9 9404     		.2byte	0x494
 1801 0bbb E6060000 		.4byte	0x6e6
 1802 0bbf 01       		.byte	0x1
 1803 0bc0 01       		.byte	0x1
 1804 0bc1 27       		.uleb128 0x27
 1805 0bc2 53443200 		.ascii	"SD2\000"
 1806 0bc6 10       		.byte	0x10
 1807 0bc7 FE       		.byte	0xfe
 1808 0bc8 81080000 		.4byte	0x881
 1809 0bcc 01       		.byte	0x1
 1810 0bcd 01       		.byte	0x1
 1811 0bce 28       		.uleb128 0x28
ARM GAS  /var/folders/dt/0wfd0knj7gs46m8vwfzktm600000gn/T//cchxVajv.s 			page 33


 1812 0bcf 01       		.byte	0x1
 1813 0bd0 BA020000 		.4byte	.LASF135
 1814 0bd4 06       		.byte	0x6
 1815 0bd5 6901     		.2byte	0x169
 1816 0bd7 01       		.byte	0x1
 1817 0bd8 01       		.byte	0x1
 1818 0bd9 E30B0000 		.4byte	0xbe3
 1819 0bdd 12       		.uleb128 0x12
 1820 0bde 09010000 		.4byte	0x109
 1821 0be2 00       		.byte	0
 1822 0be3 29       		.uleb128 0x29
 1823 0be4 01       		.byte	0x1
 1824 0be5 50040000 		.4byte	.LASF132
 1825 0be9 12       		.byte	0x12
 1826 0bea 0C       		.byte	0xc
 1827 0beb 01       		.byte	0x1
 1828 0bec 01       		.byte	0x1
 1829 0bed 29       		.uleb128 0x29
 1830 0bee 01       		.byte	0x1
 1831 0bef A3010000 		.4byte	.LASF133
 1832 0bf3 13       		.byte	0x13
 1833 0bf4 A4       		.byte	0xa4
 1834 0bf5 01       		.byte	0x1
 1835 0bf6 01       		.byte	0x1
 1836 0bf7 29       		.uleb128 0x29
 1837 0bf8 01       		.byte	0x1
 1838 0bf9 B2000000 		.4byte	.LASF134
 1839 0bfd 14       		.byte	0x14
 1840 0bfe F6       		.byte	0xf6
 1841 0bff 01       		.byte	0x1
 1842 0c00 01       		.byte	0x1
 1843 0c01 28       		.uleb128 0x28
 1844 0c02 01       		.byte	0x1
 1845 0c03 2C040000 		.4byte	.LASF136
 1846 0c07 0F       		.byte	0xf
 1847 0c08 3901     		.2byte	0x139
 1848 0c0a 01       		.byte	0x1
 1849 0c0b 01       		.byte	0x1
 1850 0c0c 1B0C0000 		.4byte	0xc1b
 1851 0c10 12       		.uleb128 0x12
 1852 0c11 1B0C0000 		.4byte	0xc1b
 1853 0c15 12       		.uleb128 0x12
 1854 0c16 210C0000 		.4byte	0xc21
 1855 0c1a 00       		.byte	0
 1856 0c1b 09       		.uleb128 0x9
 1857 0c1c 04       		.byte	0x4
 1858 0c1d 81080000 		.4byte	0x881
 1859 0c21 09       		.uleb128 0x9
 1860 0c22 04       		.byte	0x4
 1861 0c23 270C0000 		.4byte	0xc27
 1862 0c27 10       		.uleb128 0x10
 1863 0c28 56090000 		.4byte	0x956
 1864 0c2c 2A       		.uleb128 0x2a
 1865 0c2d 01       		.byte	0x1
 1866 0c2e 40020000 		.4byte	.LASF137
 1867 0c32 06       		.byte	0x6
 1868 0c33 6401     		.2byte	0x164
ARM GAS  /var/folders/dt/0wfd0knj7gs46m8vwfzktm600000gn/T//cchxVajv.s 			page 34


 1869 0c35 01       		.byte	0x1
 1870 0c36 74020000 		.4byte	0x274
 1871 0c3a 01       		.byte	0x1
 1872 0c3b 12       		.uleb128 0x12
 1873 0c3c B2020000 		.4byte	0x2b2
 1874 0c40 12       		.uleb128 0x12
 1875 0c41 30000000 		.4byte	0x30
 1876 0c45 12       		.uleb128 0x12
 1877 0c46 E8000000 		.4byte	0xe8
 1878 0c4a 12       		.uleb128 0x12
 1879 0c4b FF040000 		.4byte	0x4ff
 1880 0c4f 12       		.uleb128 0x12
 1881 0c50 B2020000 		.4byte	0x2b2
 1882 0c54 00       		.byte	0
 1883 0c55 00       		.byte	0
 1884              		.section	.debug_abbrev,"",%progbits
 1885              	.Ldebug_abbrev0:
 1886 0000 01       		.uleb128 0x1
 1887 0001 11       		.uleb128 0x11
 1888 0002 01       		.byte	0x1
 1889 0003 25       		.uleb128 0x25
 1890 0004 0E       		.uleb128 0xe
 1891 0005 13       		.uleb128 0x13
 1892 0006 0B       		.uleb128 0xb
 1893 0007 03       		.uleb128 0x3
 1894 0008 0E       		.uleb128 0xe
 1895 0009 1B       		.uleb128 0x1b
 1896 000a 0E       		.uleb128 0xe
 1897 000b 55       		.uleb128 0x55
 1898 000c 06       		.uleb128 0x6
 1899 000d 11       		.uleb128 0x11
 1900 000e 01       		.uleb128 0x1
 1901 000f 52       		.uleb128 0x52
 1902 0010 01       		.uleb128 0x1
 1903 0011 10       		.uleb128 0x10
 1904 0012 06       		.uleb128 0x6
 1905 0013 00       		.byte	0
 1906 0014 00       		.byte	0
 1907 0015 02       		.uleb128 0x2
 1908 0016 24       		.uleb128 0x24
 1909 0017 00       		.byte	0
 1910 0018 0B       		.uleb128 0xb
 1911 0019 0B       		.uleb128 0xb
 1912 001a 3E       		.uleb128 0x3e
 1913 001b 0B       		.uleb128 0xb
 1914 001c 03       		.uleb128 0x3
 1915 001d 08       		.uleb128 0x8
 1916 001e 00       		.byte	0
 1917 001f 00       		.byte	0
 1918 0020 03       		.uleb128 0x3
 1919 0021 16       		.uleb128 0x16
 1920 0022 00       		.byte	0
 1921 0023 03       		.uleb128 0x3
 1922 0024 0E       		.uleb128 0xe
 1923 0025 3A       		.uleb128 0x3a
 1924 0026 0B       		.uleb128 0xb
 1925 0027 3B       		.uleb128 0x3b
ARM GAS  /var/folders/dt/0wfd0knj7gs46m8vwfzktm600000gn/T//cchxVajv.s 			page 35


 1926 0028 0B       		.uleb128 0xb
 1927 0029 49       		.uleb128 0x49
 1928 002a 13       		.uleb128 0x13
 1929 002b 00       		.byte	0
 1930 002c 00       		.byte	0
 1931 002d 04       		.uleb128 0x4
 1932 002e 24       		.uleb128 0x24
 1933 002f 00       		.byte	0
 1934 0030 0B       		.uleb128 0xb
 1935 0031 0B       		.uleb128 0xb
 1936 0032 3E       		.uleb128 0x3e
 1937 0033 0B       		.uleb128 0xb
 1938 0034 03       		.uleb128 0x3
 1939 0035 0E       		.uleb128 0xe
 1940 0036 00       		.byte	0
 1941 0037 00       		.byte	0
 1942 0038 05       		.uleb128 0x5
 1943 0039 13       		.uleb128 0x13
 1944 003a 01       		.byte	0x1
 1945 003b 03       		.uleb128 0x3
 1946 003c 0E       		.uleb128 0xe
 1947 003d 0B       		.uleb128 0xb
 1948 003e 0B       		.uleb128 0xb
 1949 003f 3A       		.uleb128 0x3a
 1950 0040 0B       		.uleb128 0xb
 1951 0041 3B       		.uleb128 0x3b
 1952 0042 0B       		.uleb128 0xb
 1953 0043 01       		.uleb128 0x1
 1954 0044 13       		.uleb128 0x13
 1955 0045 00       		.byte	0
 1956 0046 00       		.byte	0
 1957 0047 06       		.uleb128 0x6
 1958 0048 0D       		.uleb128 0xd
 1959 0049 00       		.byte	0
 1960 004a 03       		.uleb128 0x3
 1961 004b 0E       		.uleb128 0xe
 1962 004c 3A       		.uleb128 0x3a
 1963 004d 0B       		.uleb128 0xb
 1964 004e 3B       		.uleb128 0x3b
 1965 004f 0B       		.uleb128 0xb
 1966 0050 49       		.uleb128 0x49
 1967 0051 13       		.uleb128 0x13
 1968 0052 38       		.uleb128 0x38
 1969 0053 0A       		.uleb128 0xa
 1970 0054 00       		.byte	0
 1971 0055 00       		.byte	0
 1972 0056 07       		.uleb128 0x7
 1973 0057 0D       		.uleb128 0xd
 1974 0058 00       		.byte	0
 1975 0059 03       		.uleb128 0x3
 1976 005a 08       		.uleb128 0x8
 1977 005b 3A       		.uleb128 0x3a
 1978 005c 0B       		.uleb128 0xb
 1979 005d 3B       		.uleb128 0x3b
 1980 005e 0B       		.uleb128 0xb
 1981 005f 49       		.uleb128 0x49
 1982 0060 13       		.uleb128 0x13
ARM GAS  /var/folders/dt/0wfd0knj7gs46m8vwfzktm600000gn/T//cchxVajv.s 			page 36


 1983 0061 38       		.uleb128 0x38
 1984 0062 0A       		.uleb128 0xa
 1985 0063 00       		.byte	0
 1986 0064 00       		.byte	0
 1987 0065 08       		.uleb128 0x8
 1988 0066 13       		.uleb128 0x13
 1989 0067 01       		.byte	0x1
 1990 0068 0B       		.uleb128 0xb
 1991 0069 0B       		.uleb128 0xb
 1992 006a 3A       		.uleb128 0x3a
 1993 006b 0B       		.uleb128 0xb
 1994 006c 3B       		.uleb128 0x3b
 1995 006d 0B       		.uleb128 0xb
 1996 006e 01       		.uleb128 0x1
 1997 006f 13       		.uleb128 0x13
 1998 0070 00       		.byte	0
 1999 0071 00       		.byte	0
 2000 0072 09       		.uleb128 0x9
 2001 0073 0F       		.uleb128 0xf
 2002 0074 00       		.byte	0
 2003 0075 0B       		.uleb128 0xb
 2004 0076 0B       		.uleb128 0xb
 2005 0077 49       		.uleb128 0x49
 2006 0078 13       		.uleb128 0x13
 2007 0079 00       		.byte	0
 2008 007a 00       		.byte	0
 2009 007b 0A       		.uleb128 0xa
 2010 007c 0F       		.uleb128 0xf
 2011 007d 00       		.byte	0
 2012 007e 0B       		.uleb128 0xb
 2013 007f 0B       		.uleb128 0xb
 2014 0080 00       		.byte	0
 2015 0081 00       		.byte	0
 2016 0082 0B       		.uleb128 0xb
 2017 0083 0D       		.uleb128 0xd
 2018 0084 00       		.byte	0
 2019 0085 03       		.uleb128 0x3
 2020 0086 08       		.uleb128 0x8
 2021 0087 3A       		.uleb128 0x3a
 2022 0088 0B       		.uleb128 0xb
 2023 0089 3B       		.uleb128 0x3b
 2024 008a 05       		.uleb128 0x5
 2025 008b 49       		.uleb128 0x49
 2026 008c 13       		.uleb128 0x13
 2027 008d 38       		.uleb128 0x38
 2028 008e 0A       		.uleb128 0xa
 2029 008f 00       		.byte	0
 2030 0090 00       		.byte	0
 2031 0091 0C       		.uleb128 0xc
 2032 0092 13       		.uleb128 0x13
 2033 0093 01       		.byte	0x1
 2034 0094 03       		.uleb128 0x3
 2035 0095 0E       		.uleb128 0xe
 2036 0096 0B       		.uleb128 0xb
 2037 0097 0B       		.uleb128 0xb
 2038 0098 3A       		.uleb128 0x3a
 2039 0099 0B       		.uleb128 0xb
ARM GAS  /var/folders/dt/0wfd0knj7gs46m8vwfzktm600000gn/T//cchxVajv.s 			page 37


 2040 009a 3B       		.uleb128 0x3b
 2041 009b 05       		.uleb128 0x5
 2042 009c 01       		.uleb128 0x1
 2043 009d 13       		.uleb128 0x13
 2044 009e 00       		.byte	0
 2045 009f 00       		.byte	0
 2046 00a0 0D       		.uleb128 0xd
 2047 00a1 35       		.uleb128 0x35
 2048 00a2 00       		.byte	0
 2049 00a3 49       		.uleb128 0x49
 2050 00a4 13       		.uleb128 0x13
 2051 00a5 00       		.byte	0
 2052 00a6 00       		.byte	0
 2053 00a7 0E       		.uleb128 0xe
 2054 00a8 17       		.uleb128 0x17
 2055 00a9 01       		.byte	0x1
 2056 00aa 0B       		.uleb128 0xb
 2057 00ab 0B       		.uleb128 0xb
 2058 00ac 3A       		.uleb128 0x3a
 2059 00ad 0B       		.uleb128 0xb
 2060 00ae 3B       		.uleb128 0x3b
 2061 00af 0B       		.uleb128 0xb
 2062 00b0 01       		.uleb128 0x1
 2063 00b1 13       		.uleb128 0x13
 2064 00b2 00       		.byte	0
 2065 00b3 00       		.byte	0
 2066 00b4 0F       		.uleb128 0xf
 2067 00b5 0D       		.uleb128 0xd
 2068 00b6 00       		.byte	0
 2069 00b7 03       		.uleb128 0x3
 2070 00b8 0E       		.uleb128 0xe
 2071 00b9 3A       		.uleb128 0x3a
 2072 00ba 0B       		.uleb128 0xb
 2073 00bb 3B       		.uleb128 0x3b
 2074 00bc 0B       		.uleb128 0xb
 2075 00bd 49       		.uleb128 0x49
 2076 00be 13       		.uleb128 0x13
 2077 00bf 00       		.byte	0
 2078 00c0 00       		.byte	0
 2079 00c1 10       		.uleb128 0x10
 2080 00c2 26       		.uleb128 0x26
 2081 00c3 00       		.byte	0
 2082 00c4 49       		.uleb128 0x49
 2083 00c5 13       		.uleb128 0x13
 2084 00c6 00       		.byte	0
 2085 00c7 00       		.byte	0
 2086 00c8 11       		.uleb128 0x11
 2087 00c9 15       		.uleb128 0x15
 2088 00ca 01       		.byte	0x1
 2089 00cb 27       		.uleb128 0x27
 2090 00cc 0C       		.uleb128 0xc
 2091 00cd 49       		.uleb128 0x49
 2092 00ce 13       		.uleb128 0x13
 2093 00cf 01       		.uleb128 0x1
 2094 00d0 13       		.uleb128 0x13
 2095 00d1 00       		.byte	0
 2096 00d2 00       		.byte	0
ARM GAS  /var/folders/dt/0wfd0knj7gs46m8vwfzktm600000gn/T//cchxVajv.s 			page 38


 2097 00d3 12       		.uleb128 0x12
 2098 00d4 05       		.uleb128 0x5
 2099 00d5 00       		.byte	0
 2100 00d6 49       		.uleb128 0x49
 2101 00d7 13       		.uleb128 0x13
 2102 00d8 00       		.byte	0
 2103 00d9 00       		.byte	0
 2104 00da 13       		.uleb128 0x13
 2105 00db 15       		.uleb128 0x15
 2106 00dc 01       		.byte	0x1
 2107 00dd 27       		.uleb128 0x27
 2108 00de 0C       		.uleb128 0xc
 2109 00df 01       		.uleb128 0x1
 2110 00e0 13       		.uleb128 0x13
 2111 00e1 00       		.byte	0
 2112 00e2 00       		.byte	0
 2113 00e3 14       		.uleb128 0x14
 2114 00e4 16       		.uleb128 0x16
 2115 00e5 00       		.byte	0
 2116 00e6 03       		.uleb128 0x3
 2117 00e7 0E       		.uleb128 0xe
 2118 00e8 3A       		.uleb128 0x3a
 2119 00e9 0B       		.uleb128 0xb
 2120 00ea 3B       		.uleb128 0x3b
 2121 00eb 05       		.uleb128 0x5
 2122 00ec 49       		.uleb128 0x49
 2123 00ed 13       		.uleb128 0x13
 2124 00ee 00       		.byte	0
 2125 00ef 00       		.byte	0
 2126 00f0 15       		.uleb128 0x15
 2127 00f1 13       		.uleb128 0x13
 2128 00f2 01       		.byte	0x1
 2129 00f3 0B       		.uleb128 0xb
 2130 00f4 0B       		.uleb128 0xb
 2131 00f5 3A       		.uleb128 0x3a
 2132 00f6 0B       		.uleb128 0xb
 2133 00f7 3B       		.uleb128 0x3b
 2134 00f8 05       		.uleb128 0x5
 2135 00f9 01       		.uleb128 0x1
 2136 00fa 13       		.uleb128 0x13
 2137 00fb 00       		.byte	0
 2138 00fc 00       		.byte	0
 2139 00fd 16       		.uleb128 0x16
 2140 00fe 0D       		.uleb128 0xd
 2141 00ff 00       		.byte	0
 2142 0100 03       		.uleb128 0x3
 2143 0101 0E       		.uleb128 0xe
 2144 0102 3A       		.uleb128 0x3a
 2145 0103 0B       		.uleb128 0xb
 2146 0104 3B       		.uleb128 0x3b
 2147 0105 05       		.uleb128 0x5
 2148 0106 49       		.uleb128 0x49
 2149 0107 13       		.uleb128 0x13
 2150 0108 38       		.uleb128 0x38
 2151 0109 0A       		.uleb128 0xa
 2152 010a 00       		.byte	0
 2153 010b 00       		.byte	0
ARM GAS  /var/folders/dt/0wfd0knj7gs46m8vwfzktm600000gn/T//cchxVajv.s 			page 39


 2154 010c 17       		.uleb128 0x17
 2155 010d 04       		.uleb128 0x4
 2156 010e 01       		.byte	0x1
 2157 010f 0B       		.uleb128 0xb
 2158 0110 0B       		.uleb128 0xb
 2159 0111 3A       		.uleb128 0x3a
 2160 0112 0B       		.uleb128 0xb
 2161 0113 3B       		.uleb128 0x3b
 2162 0114 0B       		.uleb128 0xb
 2163 0115 01       		.uleb128 0x1
 2164 0116 13       		.uleb128 0x13
 2165 0117 00       		.byte	0
 2166 0118 00       		.byte	0
 2167 0119 18       		.uleb128 0x18
 2168 011a 28       		.uleb128 0x28
 2169 011b 00       		.byte	0
 2170 011c 03       		.uleb128 0x3
 2171 011d 0E       		.uleb128 0xe
 2172 011e 1C       		.uleb128 0x1c
 2173 011f 0D       		.uleb128 0xd
 2174 0120 00       		.byte	0
 2175 0121 00       		.byte	0
 2176 0122 19       		.uleb128 0x19
 2177 0123 01       		.uleb128 0x1
 2178 0124 01       		.byte	0x1
 2179 0125 49       		.uleb128 0x49
 2180 0126 13       		.uleb128 0x13
 2181 0127 01       		.uleb128 0x1
 2182 0128 13       		.uleb128 0x13
 2183 0129 00       		.byte	0
 2184 012a 00       		.byte	0
 2185 012b 1A       		.uleb128 0x1a
 2186 012c 21       		.uleb128 0x21
 2187 012d 00       		.byte	0
 2188 012e 49       		.uleb128 0x49
 2189 012f 13       		.uleb128 0x13
 2190 0130 2F       		.uleb128 0x2f
 2191 0131 0B       		.uleb128 0xb
 2192 0132 00       		.byte	0
 2193 0133 00       		.byte	0
 2194 0134 1B       		.uleb128 0x1b
 2195 0135 2E       		.uleb128 0x2e
 2196 0136 01       		.byte	0x1
 2197 0137 03       		.uleb128 0x3
 2198 0138 0E       		.uleb128 0xe
 2199 0139 3A       		.uleb128 0x3a
 2200 013a 0B       		.uleb128 0xb
 2201 013b 3B       		.uleb128 0x3b
 2202 013c 0B       		.uleb128 0xb
 2203 013d 27       		.uleb128 0x27
 2204 013e 0C       		.uleb128 0xc
 2205 013f 49       		.uleb128 0x49
 2206 0140 13       		.uleb128 0x13
 2207 0141 11       		.uleb128 0x11
 2208 0142 01       		.uleb128 0x1
 2209 0143 12       		.uleb128 0x12
 2210 0144 01       		.uleb128 0x1
ARM GAS  /var/folders/dt/0wfd0knj7gs46m8vwfzktm600000gn/T//cchxVajv.s 			page 40


 2211 0145 40       		.uleb128 0x40
 2212 0146 06       		.uleb128 0x6
 2213 0147 9742     		.uleb128 0x2117
 2214 0149 0C       		.uleb128 0xc
 2215 014a 01       		.uleb128 0x1
 2216 014b 13       		.uleb128 0x13
 2217 014c 00       		.byte	0
 2218 014d 00       		.byte	0
 2219 014e 1C       		.uleb128 0x1c
 2220 014f 05       		.uleb128 0x5
 2221 0150 00       		.byte	0
 2222 0151 03       		.uleb128 0x3
 2223 0152 08       		.uleb128 0x8
 2224 0153 3A       		.uleb128 0x3a
 2225 0154 0B       		.uleb128 0xb
 2226 0155 3B       		.uleb128 0x3b
 2227 0156 0B       		.uleb128 0xb
 2228 0157 49       		.uleb128 0x49
 2229 0158 13       		.uleb128 0x13
 2230 0159 02       		.uleb128 0x2
 2231 015a 06       		.uleb128 0x6
 2232 015b 00       		.byte	0
 2233 015c 00       		.byte	0
 2234 015d 1D       		.uleb128 0x1d
 2235 015e 898201   		.uleb128 0x4109
 2236 0161 01       		.byte	0x1
 2237 0162 11       		.uleb128 0x11
 2238 0163 01       		.uleb128 0x1
 2239 0164 31       		.uleb128 0x31
 2240 0165 13       		.uleb128 0x13
 2241 0166 01       		.uleb128 0x1
 2242 0167 13       		.uleb128 0x13
 2243 0168 00       		.byte	0
 2244 0169 00       		.byte	0
 2245 016a 1E       		.uleb128 0x1e
 2246 016b 8A8201   		.uleb128 0x410a
 2247 016e 00       		.byte	0
 2248 016f 02       		.uleb128 0x2
 2249 0170 0A       		.uleb128 0xa
 2250 0171 9142     		.uleb128 0x2111
 2251 0173 0A       		.uleb128 0xa
 2252 0174 00       		.byte	0
 2253 0175 00       		.byte	0
 2254 0176 1F       		.uleb128 0x1f
 2255 0177 898201   		.uleb128 0x4109
 2256 017a 01       		.byte	0x1
 2257 017b 11       		.uleb128 0x11
 2258 017c 01       		.uleb128 0x1
 2259 017d 31       		.uleb128 0x31
 2260 017e 13       		.uleb128 0x13
 2261 017f 00       		.byte	0
 2262 0180 00       		.byte	0
 2263 0181 20       		.uleb128 0x20
 2264 0182 898201   		.uleb128 0x4109
 2265 0185 00       		.byte	0
 2266 0186 11       		.uleb128 0x11
 2267 0187 01       		.uleb128 0x1
ARM GAS  /var/folders/dt/0wfd0knj7gs46m8vwfzktm600000gn/T//cchxVajv.s 			page 41


 2268 0188 31       		.uleb128 0x31
 2269 0189 13       		.uleb128 0x13
 2270 018a 00       		.byte	0
 2271 018b 00       		.byte	0
 2272 018c 21       		.uleb128 0x21
 2273 018d 2E       		.uleb128 0x2e
 2274 018e 01       		.byte	0x1
 2275 018f 3F       		.uleb128 0x3f
 2276 0190 0C       		.uleb128 0xc
 2277 0191 03       		.uleb128 0x3
 2278 0192 0E       		.uleb128 0xe
 2279 0193 3A       		.uleb128 0x3a
 2280 0194 0B       		.uleb128 0xb
 2281 0195 3B       		.uleb128 0x3b
 2282 0196 0B       		.uleb128 0xb
 2283 0197 27       		.uleb128 0x27
 2284 0198 0C       		.uleb128 0xc
 2285 0199 49       		.uleb128 0x49
 2286 019a 13       		.uleb128 0x13
 2287 019b 11       		.uleb128 0x11
 2288 019c 01       		.uleb128 0x1
 2289 019d 12       		.uleb128 0x12
 2290 019e 01       		.uleb128 0x1
 2291 019f 40       		.uleb128 0x40
 2292 01a0 06       		.uleb128 0x6
 2293 01a1 9742     		.uleb128 0x2117
 2294 01a3 0C       		.uleb128 0xc
 2295 01a4 01       		.uleb128 0x1
 2296 01a5 13       		.uleb128 0x13
 2297 01a6 00       		.byte	0
 2298 01a7 00       		.byte	0
 2299 01a8 22       		.uleb128 0x22
 2300 01a9 34       		.uleb128 0x34
 2301 01aa 00       		.byte	0
 2302 01ab 03       		.uleb128 0x3
 2303 01ac 0E       		.uleb128 0xe
 2304 01ad 3A       		.uleb128 0x3a
 2305 01ae 0B       		.uleb128 0xb
 2306 01af 3B       		.uleb128 0x3b
 2307 01b0 0B       		.uleb128 0xb
 2308 01b1 49       		.uleb128 0x49
 2309 01b2 13       		.uleb128 0x13
 2310 01b3 02       		.uleb128 0x2
 2311 01b4 06       		.uleb128 0x6
 2312 01b5 00       		.byte	0
 2313 01b6 00       		.byte	0
 2314 01b7 23       		.uleb128 0x23
 2315 01b8 21       		.uleb128 0x21
 2316 01b9 00       		.byte	0
 2317 01ba 49       		.uleb128 0x49
 2318 01bb 13       		.uleb128 0x13
 2319 01bc 2F       		.uleb128 0x2f
 2320 01bd 05       		.uleb128 0x5
 2321 01be 00       		.byte	0
 2322 01bf 00       		.byte	0
 2323 01c0 24       		.uleb128 0x24
 2324 01c1 34       		.uleb128 0x34
ARM GAS  /var/folders/dt/0wfd0knj7gs46m8vwfzktm600000gn/T//cchxVajv.s 			page 42


 2325 01c2 00       		.byte	0
 2326 01c3 03       		.uleb128 0x3
 2327 01c4 0E       		.uleb128 0xe
 2328 01c5 3A       		.uleb128 0x3a
 2329 01c6 0B       		.uleb128 0xb
 2330 01c7 3B       		.uleb128 0x3b
 2331 01c8 0B       		.uleb128 0xb
 2332 01c9 49       		.uleb128 0x49
 2333 01ca 13       		.uleb128 0x13
 2334 01cb 02       		.uleb128 0x2
 2335 01cc 0A       		.uleb128 0xa
 2336 01cd 00       		.byte	0
 2337 01ce 00       		.byte	0
 2338 01cf 25       		.uleb128 0x25
 2339 01d0 34       		.uleb128 0x34
 2340 01d1 00       		.byte	0
 2341 01d2 03       		.uleb128 0x3
 2342 01d3 0E       		.uleb128 0xe
 2343 01d4 3A       		.uleb128 0x3a
 2344 01d5 0B       		.uleb128 0xb
 2345 01d6 3B       		.uleb128 0x3b
 2346 01d7 0B       		.uleb128 0xb
 2347 01d8 49       		.uleb128 0x49
 2348 01d9 13       		.uleb128 0x13
 2349 01da 3F       		.uleb128 0x3f
 2350 01db 0C       		.uleb128 0xc
 2351 01dc 3C       		.uleb128 0x3c
 2352 01dd 0C       		.uleb128 0xc
 2353 01de 00       		.byte	0
 2354 01df 00       		.byte	0
 2355 01e0 26       		.uleb128 0x26
 2356 01e1 34       		.uleb128 0x34
 2357 01e2 00       		.byte	0
 2358 01e3 03       		.uleb128 0x3
 2359 01e4 0E       		.uleb128 0xe
 2360 01e5 3A       		.uleb128 0x3a
 2361 01e6 0B       		.uleb128 0xb
 2362 01e7 3B       		.uleb128 0x3b
 2363 01e8 05       		.uleb128 0x5
 2364 01e9 49       		.uleb128 0x49
 2365 01ea 13       		.uleb128 0x13
 2366 01eb 3F       		.uleb128 0x3f
 2367 01ec 0C       		.uleb128 0xc
 2368 01ed 3C       		.uleb128 0x3c
 2369 01ee 0C       		.uleb128 0xc
 2370 01ef 00       		.byte	0
 2371 01f0 00       		.byte	0
 2372 01f1 27       		.uleb128 0x27
 2373 01f2 34       		.uleb128 0x34
 2374 01f3 00       		.byte	0
 2375 01f4 03       		.uleb128 0x3
 2376 01f5 08       		.uleb128 0x8
 2377 01f6 3A       		.uleb128 0x3a
 2378 01f7 0B       		.uleb128 0xb
 2379 01f8 3B       		.uleb128 0x3b
 2380 01f9 0B       		.uleb128 0xb
 2381 01fa 49       		.uleb128 0x49
ARM GAS  /var/folders/dt/0wfd0knj7gs46m8vwfzktm600000gn/T//cchxVajv.s 			page 43


 2382 01fb 13       		.uleb128 0x13
 2383 01fc 3F       		.uleb128 0x3f
 2384 01fd 0C       		.uleb128 0xc
 2385 01fe 3C       		.uleb128 0x3c
 2386 01ff 0C       		.uleb128 0xc
 2387 0200 00       		.byte	0
 2388 0201 00       		.byte	0
 2389 0202 28       		.uleb128 0x28
 2390 0203 2E       		.uleb128 0x2e
 2391 0204 01       		.byte	0x1
 2392 0205 3F       		.uleb128 0x3f
 2393 0206 0C       		.uleb128 0xc
 2394 0207 03       		.uleb128 0x3
 2395 0208 0E       		.uleb128 0xe
 2396 0209 3A       		.uleb128 0x3a
 2397 020a 0B       		.uleb128 0xb
 2398 020b 3B       		.uleb128 0x3b
 2399 020c 05       		.uleb128 0x5
 2400 020d 27       		.uleb128 0x27
 2401 020e 0C       		.uleb128 0xc
 2402 020f 3C       		.uleb128 0x3c
 2403 0210 0C       		.uleb128 0xc
 2404 0211 01       		.uleb128 0x1
 2405 0212 13       		.uleb128 0x13
 2406 0213 00       		.byte	0
 2407 0214 00       		.byte	0
 2408 0215 29       		.uleb128 0x29
 2409 0216 2E       		.uleb128 0x2e
 2410 0217 00       		.byte	0
 2411 0218 3F       		.uleb128 0x3f
 2412 0219 0C       		.uleb128 0xc
 2413 021a 03       		.uleb128 0x3
 2414 021b 0E       		.uleb128 0xe
 2415 021c 3A       		.uleb128 0x3a
 2416 021d 0B       		.uleb128 0xb
 2417 021e 3B       		.uleb128 0x3b
 2418 021f 0B       		.uleb128 0xb
 2419 0220 27       		.uleb128 0x27
 2420 0221 0C       		.uleb128 0xc
 2421 0222 3C       		.uleb128 0x3c
 2422 0223 0C       		.uleb128 0xc
 2423 0224 00       		.byte	0
 2424 0225 00       		.byte	0
 2425 0226 2A       		.uleb128 0x2a
 2426 0227 2E       		.uleb128 0x2e
 2427 0228 01       		.byte	0x1
 2428 0229 3F       		.uleb128 0x3f
 2429 022a 0C       		.uleb128 0xc
 2430 022b 03       		.uleb128 0x3
 2431 022c 0E       		.uleb128 0xe
 2432 022d 3A       		.uleb128 0x3a
 2433 022e 0B       		.uleb128 0xb
 2434 022f 3B       		.uleb128 0x3b
 2435 0230 05       		.uleb128 0x5
 2436 0231 27       		.uleb128 0x27
 2437 0232 0C       		.uleb128 0xc
 2438 0233 49       		.uleb128 0x49
ARM GAS  /var/folders/dt/0wfd0knj7gs46m8vwfzktm600000gn/T//cchxVajv.s 			page 44


 2439 0234 13       		.uleb128 0x13
 2440 0235 3C       		.uleb128 0x3c
 2441 0236 0C       		.uleb128 0xc
 2442 0237 00       		.byte	0
 2443 0238 00       		.byte	0
 2444 0239 00       		.byte	0
 2445              		.section	.debug_loc,"",%progbits
 2446              	.Ldebug_loc0:
 2447              	.LLST0:
 2448 0000 00000000 		.4byte	.LFB63
 2449 0004 08000000 		.4byte	.LCFI0
 2450 0008 0200     		.2byte	0x2
 2451 000a 7D       		.byte	0x7d
 2452 000b 00       		.sleb128 0
 2453 000c 08000000 		.4byte	.LCFI0
 2454 0010 34000000 		.4byte	.LFE63
 2455 0014 0200     		.2byte	0x2
 2456 0016 7D       		.byte	0x7d
 2457 0017 10       		.sleb128 16
 2458 0018 00000000 		.4byte	0
 2459 001c 00000000 		.4byte	0
 2460              	.LLST1:
 2461 0020 00000000 		.4byte	.LVL0
 2462 0024 16000000 		.4byte	.LVL1
 2463 0028 0100     		.2byte	0x1
 2464 002a 50       		.byte	0x50
 2465 002b 16000000 		.4byte	.LVL1
 2466 002f 34000000 		.4byte	.LFE63
 2467 0033 0400     		.2byte	0x4
 2468 0035 F3       		.byte	0xf3
 2469 0036 01       		.uleb128 0x1
 2470 0037 50       		.byte	0x50
 2471 0038 9F       		.byte	0x9f
 2472 0039 00000000 		.4byte	0
 2473 003d 00000000 		.4byte	0
 2474              	.LLST2:
 2475 0041 00000000 		.4byte	.LFB62
 2476 0045 02000000 		.4byte	.LCFI1
 2477 0049 0200     		.2byte	0x2
 2478 004b 7D       		.byte	0x7d
 2479 004c 00       		.sleb128 0
 2480 004d 02000000 		.4byte	.LCFI1
 2481 0051 1C000000 		.4byte	.LFE62
 2482 0055 0200     		.2byte	0x2
 2483 0057 7D       		.byte	0x7d
 2484 0058 08       		.sleb128 8
 2485 0059 00000000 		.4byte	0
 2486 005d 00000000 		.4byte	0
 2487              	.LLST3:
 2488 0061 00000000 		.4byte	.LVL4
 2489 0065 19000000 		.4byte	.LVL5-1
 2490 0069 0100     		.2byte	0x1
 2491 006b 50       		.byte	0x50
 2492 006c 19000000 		.4byte	.LVL5-1
 2493 0070 1C000000 		.4byte	.LFE62
 2494 0074 0400     		.2byte	0x4
 2495 0076 F3       		.byte	0xf3
ARM GAS  /var/folders/dt/0wfd0knj7gs46m8vwfzktm600000gn/T//cchxVajv.s 			page 45


 2496 0077 01       		.uleb128 0x1
 2497 0078 50       		.byte	0x50
 2498 0079 9F       		.byte	0x9f
 2499 007a 00000000 		.4byte	0
 2500 007e 00000000 		.4byte	0
 2501              	.LLST4:
 2502 0082 00000000 		.4byte	.LFB64
 2503 0086 02000000 		.4byte	.LCFI2
 2504 008a 0200     		.2byte	0x2
 2505 008c 7D       		.byte	0x7d
 2506 008d 00       		.sleb128 0
 2507 008e 02000000 		.4byte	.LCFI2
 2508 0092 06000000 		.4byte	.LCFI3
 2509 0096 0200     		.2byte	0x2
 2510 0098 7D       		.byte	0x7d
 2511 0099 08       		.sleb128 8
 2512 009a 06000000 		.4byte	.LCFI3
 2513 009e 68000000 		.4byte	.LFE64
 2514 00a2 0200     		.2byte	0x2
 2515 00a4 7D       		.byte	0x7d
 2516 00a5 10       		.sleb128 16
 2517 00a6 00000000 		.4byte	0
 2518 00aa 00000000 		.4byte	0
 2519              	.LLST5:
 2520 00ae 00000000 		.4byte	.LVL6
 2521 00b2 26000000 		.4byte	.LVL10
 2522 00b6 0200     		.2byte	0x2
 2523 00b8 30       		.byte	0x30
 2524 00b9 9F       		.byte	0x9f
 2525 00ba 26000000 		.4byte	.LVL10
 2526 00be 50000000 		.4byte	.LVL14
 2527 00c2 0100     		.2byte	0x1
 2528 00c4 54       		.byte	0x54
 2529 00c5 50000000 		.4byte	.LVL14
 2530 00c9 68000000 		.4byte	.LFE64
 2531 00cd 0100     		.2byte	0x1
 2532 00cf 50       		.byte	0x50
 2533 00d0 00000000 		.4byte	0
 2534 00d4 00000000 		.4byte	0
 2535              		.section	.debug_aranges,"",%progbits
 2536 0000 2C000000 		.4byte	0x2c
 2537 0004 0200     		.2byte	0x2
 2538 0006 00000000 		.4byte	.Ldebug_info0
 2539 000a 04       		.byte	0x4
 2540 000b 00       		.byte	0
 2541 000c 0000     		.2byte	0
 2542 000e 0000     		.2byte	0
 2543 0010 00000000 		.4byte	.LFB63
 2544 0014 34000000 		.4byte	.LFE63-.LFB63
 2545 0018 00000000 		.4byte	.LFB62
 2546 001c 1C000000 		.4byte	.LFE62-.LFB62
 2547 0020 00000000 		.4byte	.LFB64
 2548 0024 68000000 		.4byte	.LFE64-.LFB64
 2549 0028 00000000 		.4byte	0
 2550 002c 00000000 		.4byte	0
 2551              		.section	.debug_ranges,"",%progbits
 2552              	.Ldebug_ranges0:
ARM GAS  /var/folders/dt/0wfd0knj7gs46m8vwfzktm600000gn/T//cchxVajv.s 			page 46


 2553 0000 00000000 		.4byte	.LFB63
 2554 0004 34000000 		.4byte	.LFE63
 2555 0008 00000000 		.4byte	.LFB62
 2556 000c 1C000000 		.4byte	.LFE62
 2557 0010 00000000 		.4byte	.LFB64
 2558 0014 68000000 		.4byte	.LFE64
 2559 0018 00000000 		.4byte	0
 2560 001c 00000000 		.4byte	0
 2561              		.section	.debug_line,"",%progbits
 2562              	.Ldebug_line0:
 2563 0000 15030000 		.section	.debug_str,"MS",%progbits,1
 2563      0200B402 
 2563      00000201 
 2563      FB0E0D00 
 2563      01010101 
 2564              	.LASF75:
 2565 0000 7466756E 		.ascii	"tfunc_t\000"
 2565      635F7400 
 2566              	.LASF112:
 2567 0008 73635F73 		.ascii	"sc_speed\000"
 2567      70656564 
 2567      00
 2568              	.LASF2:
 2569 0011 73697A65 		.ascii	"size_t\000"
 2569      5F7400
 2570              	.LASF70:
 2571 0018 7264796D 		.ascii	"rdymsg\000"
 2571      736700
 2572              	.LASF13:
 2573 001f 75696E74 		.ascii	"uint64_t\000"
 2573      36345F74 
 2573      00
 2574              	.LASF86:
 2575 0028 4F757470 		.ascii	"OutputQueue\000"
 2575      75745175 
 2575      65756500 
 2576              	.LASF100:
 2577 0034 696F706F 		.ascii	"ioportmask_t\000"
 2577      72746D61 
 2577      736B5F74 
 2577      00
 2578              	.LASF15:
 2579 0041 75696E74 		.ascii	"uint_fast16_t\000"
 2579      5F666173 
 2579      7431365F 
 2579      7400
 2580              	.LASF14:
 2581 004f 6C6F6E67 		.ascii	"long long unsigned int\000"
 2581      206C6F6E 
 2581      6720756E 
 2581      7369676E 
 2581      65642069 
 2582              	.LASF71:
 2583 0066 65786974 		.ascii	"exitcode\000"
 2583      636F6465 
 2583      00
 2584              	.LASF131:
ARM GAS  /var/folders/dt/0wfd0knj7gs46m8vwfzktm600000gn/T//cchxVajv.s 			page 47


 2585 006f 49544D5F 		.ascii	"ITM_RxBuffer\000"
 2585      52784275 
 2585      66666572 
 2585      00
 2586              	.LASF28:
 2587 007c 705F7072 		.ascii	"p_prio\000"
 2587      696F00
 2588              	.LASF123:
 2589 0083 72656164 		.ascii	"readt\000"
 2589      7400
 2590              	.LASF77:
 2591 0089 715F7761 		.ascii	"q_waiting\000"
 2591      6974696E 
 2591      6700
 2592              	.LASF12:
 2593 0093 6C6F6E67 		.ascii	"long long int\000"
 2593      206C6F6E 
 2593      6720696E 
 2593      7400
 2594              	.LASF1:
 2595 00a1 7369676E 		.ascii	"signed char\000"
 2595      65642063 
 2595      68617200 
 2596              	.LASF88:
 2597 00ad 42535252 		.ascii	"BSRR\000"
 2597      00
 2598              	.LASF134:
 2599 00b2 63685379 		.ascii	"chSysInit\000"
 2599      73496E69 
 2599      7400
 2600              	.LASF97:
 2601 00bc 47545052 		.ascii	"GTPR\000"
 2601      00
 2602              	.LASF44:
 2603 00c1 705F6D70 		.ascii	"p_mpool\000"
 2603      6F6F6C00 
 2604              	.LASF16:
 2605 00c9 626F6F6C 		.ascii	"bool_t\000"
 2605      5F7400
 2606              	.LASF61:
 2607 00d0 6D5F7175 		.ascii	"m_queue\000"
 2607      65756500 
 2608              	.LASF108:
 2609 00d8 73746174 		.ascii	"state\000"
 2609      6500
 2610              	.LASF9:
 2611 00de 6C6F6E67 		.ascii	"long int\000"
 2611      20696E74 
 2611      00
 2612              	.LASF18:
 2613 00e7 74737461 		.ascii	"tstate_t\000"
 2613      74655F74 
 2613      00
 2614              	.LASF36:
 2615 00f0 705F7265 		.ascii	"p_refs\000"
 2615      667300
 2616              	.LASF79:
ARM GAS  /var/folders/dt/0wfd0knj7gs46m8vwfzktm600000gn/T//cchxVajv.s 			page 48


 2617 00f7 715F6275 		.ascii	"q_buffer\000"
 2617      66666572 
 2617      00
 2618              	.LASF81:
 2619 0100 715F7772 		.ascii	"q_wrptr\000"
 2619      70747200 
 2620              	.LASF37:
 2621 0108 705F7469 		.ascii	"p_time\000"
 2621      6D6500
 2622              	.LASF30:
 2623 010f 705F6E65 		.ascii	"p_newer\000"
 2623      77657200 
 2624              	.LASF120:
 2625 0117 70757477 		.ascii	"putwouldblock\000"
 2625      6F756C64 
 2625      626C6F63 
 2625      6B00
 2626              	.LASF128:
 2627 0125 77615368 		.ascii	"waShell\000"
 2627      656C6C00 
 2628              	.LASF55:
 2629 012d 725F6E65 		.ascii	"r_newer\000"
 2629      77657200 
 2630              	.LASF47:
 2631 0135 72656761 		.ascii	"regarm_t\000"
 2631      726D5F74 
 2631      00
 2632              	.LASF68:
 2633 013e 4576656E 		.ascii	"EventSource\000"
 2633      74536F75 
 2633      72636500 
 2634              	.LASF24:
 2635 014a 636E745F 		.ascii	"cnt_t\000"
 2635      7400
 2636              	.LASF111:
 2637 0150 75736172 		.ascii	"usart\000"
 2637      7400
 2638              	.LASF0:
 2639 0156 756E7369 		.ascii	"unsigned int\000"
 2639      676E6564 
 2639      20696E74 
 2639      00
 2640              	.LASF127:
 2641 0163 7368656C 		.ascii	"shelltp\000"
 2641      6C747000 
 2642              	.LASF6:
 2643 016b 75696E74 		.ascii	"uint16_t\000"
 2643      31365F74 
 2643      00
 2644              	.LASF117:
 2645 0174 53657269 		.ascii	"SerialDriverVMT\000"
 2645      616C4472 
 2645      69766572 
 2645      564D5400 
 2646              	.LASF109:
 2647 0184 69717565 		.ascii	"iqueue\000"
 2647      756500
ARM GAS  /var/folders/dt/0wfd0knj7gs46m8vwfzktm600000gn/T//cchxVajv.s 			page 49


 2648              	.LASF39:
 2649 018b 705F6D73 		.ascii	"p_msgqueue\000"
 2649      67717565 
 2649      756500
 2650              	.LASF90:
 2651 0196 4750494F 		.ascii	"GPIO_TypeDef\000"
 2651      5F547970 
 2651      65446566 
 2651      00
 2652              	.LASF133:
 2653 01a3 68616C49 		.ascii	"halInit\000"
 2653      6E697400 
 2654              	.LASF89:
 2655 01ab 4C434B52 		.ascii	"LCKR\000"
 2655      00
 2656              	.LASF106:
 2657 01b0 6576656E 		.ascii	"event\000"
 2657      7400
 2658              	.LASF7:
 2659 01b6 73686F72 		.ascii	"short unsigned int\000"
 2659      7420756E 
 2659      7369676E 
 2659      65642069 
 2659      6E7400
 2660              	.LASF21:
 2661 01c9 6D73675F 		.ascii	"msg_t\000"
 2661      7400
 2662              	.LASF110:
 2663 01cf 6F717565 		.ascii	"oqueue\000"
 2663      756500
 2664              	.LASF99:
 2665 01d6 55534152 		.ascii	"USART_TypeDef\000"
 2665      545F5479 
 2665      70654465 
 2665      6600
 2666              	.LASF122:
 2667 01e4 77726974 		.ascii	"writet\000"
 2667      657400
 2668              	.LASF17:
 2669 01eb 746D6F64 		.ascii	"tmode_t\000"
 2669      655F7400 
 2670              	.LASF46:
 2671 01f3 54687265 		.ascii	"ThreadsList\000"
 2671      6164734C 
 2671      69737400 
 2672              	.LASF22:
 2673 01ff 6576656E 		.ascii	"eventmask_t\000"
 2673      746D6173 
 2673      6B5F7400 
 2674              	.LASF85:
 2675 020b 496E7075 		.ascii	"InputQueue\000"
 2675      74517565 
 2675      756500
 2676              	.LASF84:
 2677 0216 716E6F74 		.ascii	"qnotify_t\000"
 2677      6966795F 
 2677      7400
ARM GAS  /var/folders/dt/0wfd0knj7gs46m8vwfzktm600000gn/T//cchxVajv.s 			page 50


 2678              	.LASF76:
 2679 0220 47656E65 		.ascii	"GenericQueue\000"
 2679      72696351 
 2679      75657565 
 2679      00
 2680              	.LASF48:
 2681 022d 73746B61 		.ascii	"stkalign_t\000"
 2681      6C69676E 
 2681      5F7400
 2682              	.LASF125:
 2683 0238 54687265 		.ascii	"Thread1\000"
 2683      61643100 
 2684              	.LASF137:
 2685 0240 63685468 		.ascii	"chThdCreateStatic\000"
 2685      64437265 
 2685      61746553 
 2685      74617469 
 2685      6300
 2686              	.LASF118:
 2687 0252 77726974 		.ascii	"write\000"
 2687      6500
 2688              	.LASF51:
 2689 0258 73697A65 		.ascii	"sizetype\000"
 2689      74797065 
 2689      00
 2690              	.LASF78:
 2691 0261 715F636F 		.ascii	"q_counter\000"
 2691      756E7465 
 2691      7200
 2692              	.LASF60:
 2693 026b 4D757465 		.ascii	"Mutex\000"
 2693      7800
 2694              	.LASF31:
 2695 0271 705F6F6C 		.ascii	"p_older\000"
 2695      64657200 
 2696              	.LASF54:
 2697 0279 725F6374 		.ascii	"r_ctx\000"
 2697      7800
 2698              	.LASF45:
 2699 027f 54687265 		.ascii	"ThreadsQueue\000"
 2699      61647351 
 2699      75657565 
 2699      00
 2700              	.LASF33:
 2701 028c 705F7374 		.ascii	"p_stklimit\000"
 2701      6B6C696D 
 2701      697400
 2702              	.LASF138:
 2703 0297 474E5520 		.ascii	"GNU C 4.7.2\000"
 2703      4320342E 
 2703      372E3200 
 2704              	.LASF139:
 2705 02a3 6D61696E 		.ascii	"main.c\000"
 2705      2E6300
 2706              	.LASF56:
 2707 02aa 725F6F6C 		.ascii	"r_older\000"
 2707      64657200 
ARM GAS  /var/folders/dt/0wfd0knj7gs46m8vwfzktm600000gn/T//cchxVajv.s 			page 51


 2708              	.LASF67:
 2709 02b2 656C5F6D 		.ascii	"el_mask\000"
 2709      61736B00 
 2710              	.LASF135:
 2711 02ba 63685468 		.ascii	"chThdSleep\000"
 2711      64536C65 
 2711      657000
 2712              	.LASF116:
 2713 02c5 53657269 		.ascii	"SerialConfig\000"
 2713      616C436F 
 2713      6E666967 
 2713      00
 2714              	.LASF129:
 2715 02d2 77615468 		.ascii	"waThread1\000"
 2715      72656164 
 2715      3100
 2716              	.LASF19:
 2717 02dc 74726566 		.ascii	"trefs_t\000"
 2717      735F7400 
 2718              	.LASF91:
 2719 02e4 52455345 		.ascii	"RESERVED0\000"
 2719      52564544 
 2719      3000
 2720              	.LASF92:
 2721 02ee 52455345 		.ascii	"RESERVED1\000"
 2721      52564544 
 2721      3100
 2722              	.LASF93:
 2723 02f8 52455345 		.ascii	"RESERVED2\000"
 2723      52564544 
 2723      3200
 2724              	.LASF94:
 2725 0302 52455345 		.ascii	"RESERVED3\000"
 2725      52564544 
 2725      3300
 2726              	.LASF95:
 2727 030c 52455345 		.ascii	"RESERVED4\000"
 2727      52564544 
 2727      3400
 2728              	.LASF27:
 2729 0316 705F7072 		.ascii	"p_prev\000"
 2729      657600
 2730              	.LASF98:
 2731 031d 52455345 		.ascii	"RESERVED6\000"
 2731      52564544 
 2731      3600
 2732              	.LASF20:
 2733 0327 74707269 		.ascii	"tprio_t\000"
 2733      6F5F7400 
 2734              	.LASF82:
 2735 032f 715F7264 		.ascii	"q_rdptr\000"
 2735      70747200 
 2736              	.LASF57:
 2737 0337 725F7072 		.ascii	"r_preempt\000"
 2737      65656D70 
 2737      7400
 2738              	.LASF8:
ARM GAS  /var/folders/dt/0wfd0knj7gs46m8vwfzktm600000gn/T//cchxVajv.s 			page 52


 2739 0341 696E7433 		.ascii	"int32_t\000"
 2739      325F7400 
 2740              	.LASF4:
 2741 0349 756E7369 		.ascii	"unsigned char\000"
 2741      676E6564 
 2741      20636861 
 2741      7200
 2742              	.LASF40:
 2743 0357 705F6D73 		.ascii	"p_msg\000"
 2743      6700
 2744              	.LASF66:
 2745 035d 656C5F6C 		.ascii	"el_listener\000"
 2745      69737465 
 2745      6E657200 
 2746              	.LASF42:
 2747 0369 705F6D74 		.ascii	"p_mtxlist\000"
 2747      786C6973 
 2747      7400
 2748              	.LASF5:
 2749 0373 73686F72 		.ascii	"short int\000"
 2749      7420696E 
 2749      7400
 2750              	.LASF34:
 2751 037d 705F7374 		.ascii	"p_state\000"
 2751      61746500 
 2752              	.LASF53:
 2753 0385 725F7072 		.ascii	"r_prio\000"
 2753      696F00
 2754              	.LASF73:
 2755 038c 65776D61 		.ascii	"ewmask\000"
 2755      736B00
 2756              	.LASF26:
 2757 0393 705F6E65 		.ascii	"p_next\000"
 2757      787400
 2758              	.LASF35:
 2759 039a 705F666C 		.ascii	"p_flags\000"
 2759      61677300 
 2760              	.LASF65:
 2761 03a2 656C5F6E 		.ascii	"el_next\000"
 2761      65787400 
 2762              	.LASF102:
 2763 03aa 53445F53 		.ascii	"SD_STOP\000"
 2763      544F5000 
 2764              	.LASF25:
 2765 03b2 54687265 		.ascii	"Thread\000"
 2765      616400
 2766              	.LASF41:
 2767 03b9 705F6570 		.ascii	"p_epending\000"
 2767      656E6469 
 2767      6E6700
 2768              	.LASF101:
 2769 03c4 53445F55 		.ascii	"SD_UNINIT\000"
 2769      4E494E49 
 2769      5400
 2770              	.LASF96:
 2771 03ce 52455345 		.ascii	"RESERVED5\000"
 2771      52564544 
ARM GAS  /var/folders/dt/0wfd0knj7gs46m8vwfzktm600000gn/T//cchxVajv.s 			page 53


 2771      3500
 2772              	.LASF10:
 2773 03d8 75696E74 		.ascii	"uint32_t\000"
 2773      33325F74 
 2773      00
 2774              	.LASF52:
 2775 03e1 725F7175 		.ascii	"r_queue\000"
 2775      65756500 
 2776              	.LASF104:
 2777 03e9 73647374 		.ascii	"sdstate_t\000"
 2777      6174655F 
 2777      7400
 2778              	.LASF105:
 2779 03f3 53657269 		.ascii	"SerialDriver\000"
 2779      616C4472 
 2779      69766572 
 2779      00
 2780              	.LASF126:
 2781 0400 7368656C 		.ascii	"shell\000"
 2781      6C00
 2782              	.LASF11:
 2783 0406 6C6F6E67 		.ascii	"long unsigned int\000"
 2783      20756E73 
 2783      69676E65 
 2783      6420696E 
 2783      7400
 2784              	.LASF58:
 2785 0418 725F6375 		.ascii	"r_current\000"
 2785      7272656E 
 2785      7400
 2786              	.LASF119:
 2787 0422 72656164 		.ascii	"read\000"
 2787      00
 2788              	.LASF74:
 2789 0427 63686172 		.ascii	"char\000"
 2789      00
 2790              	.LASF136:
 2791 042c 73645374 		.ascii	"sdStart\000"
 2791      61727400 
 2792              	.LASF63:
 2793 0434 6D5F6E65 		.ascii	"m_next\000"
 2793      787400
 2794              	.LASF23:
 2795 043b 73797374 		.ascii	"systime_t\000"
 2795      696D655F 
 2795      7400
 2796              	.LASF43:
 2797 0445 705F7265 		.ascii	"p_realprio\000"
 2797      616C7072 
 2797      696F00
 2798              	.LASF132:
 2799 0450 73746172 		.ascii	"start_shell\000"
 2799      745F7368 
 2799      656C6C00 
 2800              	.LASF140:
 2801 045c 2F746D70 		.ascii	"/tmp/mlab-chibios/demos/STM32F107-serialshell\000"
 2801      2F6D6C61 
ARM GAS  /var/folders/dt/0wfd0knj7gs46m8vwfzktm600000gn/T//cchxVajv.s 			page 54


 2801      622D6368 
 2801      6962696F 
 2801      732F6465 
 2802              	.LASF124:
 2803 048a 67657466 		.ascii	"getflags\000"
 2803      6C616773 
 2803      00
 2804              	.LASF50:
 2805 0493 636F6E74 		.ascii	"context\000"
 2805      65787400 
 2806              	.LASF87:
 2807 049b 696F666C 		.ascii	"ioflags_t\000"
 2807      6167735F 
 2807      7400
 2808              	.LASF49:
 2809 04a5 696E7463 		.ascii	"intctx\000"
 2809      747800
 2810              	.LASF103:
 2811 04ac 53445F52 		.ascii	"SD_READY\000"
 2811      45414459 
 2811      00
 2812              	.LASF80:
 2813 04b5 715F746F 		.ascii	"q_top\000"
 2813      7000
 2814              	.LASF32:
 2815 04bb 705F6E61 		.ascii	"p_name\000"
 2815      6D6500
 2816              	.LASF69:
 2817 04c2 65735F6E 		.ascii	"es_next\000"
 2817      65787400 
 2818              	.LASF59:
 2819 04ca 52656164 		.ascii	"ReadyList\000"
 2819      794C6973 
 2819      7400
 2820              	.LASF83:
 2821 04d4 715F6E6F 		.ascii	"q_notify\000"
 2821      74696679 
 2821      00
 2822              	.LASF130:
 2823 04dd 726C6973 		.ascii	"rlist\000"
 2823      7400
 2824              	.LASF3:
 2825 04e3 75696E74 		.ascii	"uint8_t\000"
 2825      385F7400 
 2826              	.LASF107:
 2827 04eb 666C6167 		.ascii	"flags\000"
 2827      7300
 2828              	.LASF64:
 2829 04f1 4576656E 		.ascii	"EventListener\000"
 2829      744C6973 
 2829      74656E65 
 2829      7200
 2830              	.LASF72:
 2831 04ff 77746F62 		.ascii	"wtobjp\000"
 2831      6A7000
 2832              	.LASF121:
 2833 0506 67657477 		.ascii	"getwouldblock\000"
ARM GAS  /var/folders/dt/0wfd0knj7gs46m8vwfzktm600000gn/T//cchxVajv.s 			page 55


 2833      6F756C64 
 2833      626C6F63 
 2833      6B00
 2834              	.LASF113:
 2835 0514 73635F63 		.ascii	"sc_cr1\000"
 2835      723100
 2836              	.LASF114:
 2837 051b 73635F63 		.ascii	"sc_cr2\000"
 2837      723200
 2838              	.LASF115:
 2839 0522 73635F63 		.ascii	"sc_cr3\000"
 2839      723300
 2840              	.LASF141:
 2841 0529 6D61696E 		.ascii	"main\000"
 2841      00
 2842              	.LASF62:
 2843 052e 6D5F6F77 		.ascii	"m_owner\000"
 2843      6E657200 
 2844              	.LASF29:
 2845 0536 705F6374 		.ascii	"p_ctx\000"
 2845      7800
 2846              	.LASF38:
 2847 053c 705F7761 		.ascii	"p_waiting\000"
 2847      6974696E 
 2847      6700
 2848              		.ident	"GCC: (GNU) 4.7.2"
ARM GAS  /var/folders/dt/0wfd0knj7gs46m8vwfzktm600000gn/T//cchxVajv.s 			page 56


DEFINED SYMBOLS
                            *ABS*:0000000000000000 main.c
/var/folders/dt/0wfd0knj7gs46m8vwfzktm600000gn/T//cchxVajv.s:19     .text.Thread1:0000000000000000 $t
/var/folders/dt/0wfd0knj7gs46m8vwfzktm600000gn/T//cchxVajv.s:24     .text.Thread1:0000000000000000 Thread1
/var/folders/dt/0wfd0knj7gs46m8vwfzktm600000gn/T//cchxVajv.s:70     .text.Thread1:000000000000002c $d
/var/folders/dt/0wfd0knj7gs46m8vwfzktm600000gn/T//cchxVajv.s:76     .text.shell:0000000000000000 $t
/var/folders/dt/0wfd0knj7gs46m8vwfzktm600000gn/T//cchxVajv.s:81     .text.shell:0000000000000000 shell
/var/folders/dt/0wfd0knj7gs46m8vwfzktm600000gn/T//cchxVajv.s:204    .rodata.str1.4:0000000000000008 .LC1
/var/folders/dt/0wfd0knj7gs46m8vwfzktm600000gn/T//cchxVajv.s:109    .text.startup.main:0000000000000000 $t
/var/folders/dt/0wfd0knj7gs46m8vwfzktm600000gn/T//cchxVajv.s:115    .text.startup.main:0000000000000000 main
/var/folders/dt/0wfd0knj7gs46m8vwfzktm600000gn/T//cchxVajv.s:185    .text.startup.main:0000000000000054 $d
/var/folders/dt/0wfd0knj7gs46m8vwfzktm600000gn/T//cchxVajv.s:194    .bss.waThread1:0000000000000000 $d
/var/folders/dt/0wfd0knj7gs46m8vwfzktm600000gn/T//cchxVajv.s:198    .bss.waThread1:0000000000000000 waThread1
/var/folders/dt/0wfd0knj7gs46m8vwfzktm600000gn/T//cchxVajv.s:201    .rodata.str1.4:0000000000000000 $d
/var/folders/dt/0wfd0knj7gs46m8vwfzktm600000gn/T//cchxVajv.s:207    .bss.waShell:0000000000000000 $d
/var/folders/dt/0wfd0knj7gs46m8vwfzktm600000gn/T//cchxVajv.s:211    .bss.waShell:0000000000000000 waShell
                     .debug_frame:0000000000000010 $d
/var/folders/dt/0wfd0knj7gs46m8vwfzktm600000gn/T//cchxVajv.s:75     .text.Thread1:0000000000000034 $t
/var/folders/dt/0wfd0knj7gs46m8vwfzktm600000gn/T//cchxVajv.s:193    .text.startup.main:0000000000000068 $t

UNDEFINED SYMBOLS
chThdSleep
rlist
start_shell
halInit
chSysInit
sdStart
chThdCreateStatic
SD2
