ARM GAS  /var/folders/dt/0wfd0knj7gs46m8vwfzktm600000gn/T//cchxVajv.s 			page 1


   1              		.syntax unified
   2              		.cpu cortex-m3
   3              		.fpu softvfp
   4              		.eabi_attribute 20, 1
   5              		.eabi_attribute 21, 1
   6              		.eabi_attribute 23, 3
   7              		.eabi_attribute 24, 1
   8              		.eabi_attribute 25, 1
   9              		.eabi_attribute 26, 1
  10              		.eabi_attribute 30, 2
  11              		.eabi_attribute 34, 1
  12              		.eabi_attribute 18, 4
  13              		.thumb
  14              		.file	"main.c"
  15              		.text
  16              	.Ltext0:
  17              		.cfi_sections	.debug_frame
  18              		.section	.text.Thread1,"ax",%progbits
  19              		.align	2
  20              		.p2align 4,,15
  21              		.thumb
  22              		.thumb_func
  23              		.type	Thread1, %function
  24              	Thread1:
  25              	.LFB63:
  26              		.file 1 "main.c"
  27              		.loc 1 25 0
  28              		.cfi_startproc
  29              		@ args = 0, pretend = 0, frame = 0
  30              		@ frame_needed = 0, uses_anonymous_args = 0
  31              	.LVL0:
  32              		.loc 1 28 0
  33 0000 0A4B     		ldr	r3, .L4
  34 0002 0B4A     		ldr	r2, .L4+4
  35 0004 DB69     		ldr	r3, [r3, #28]
  36              		.loc 1 25 0
  37 0006 70B5     		push	{r4, r5, r6, lr}
  38              	.LCFI0:
  39              		.cfi_def_cfa_offset 16
  40              		.cfi_offset 4, -16
  41              		.cfi_offset 5, -12
  42              		.cfi_offset 6, -8
  43              		.cfi_offset 14, -4
  44              		.loc 1 30 0
  45 0008 4FF44064 		mov	r4, #3072
  46 000c 8025     		movs	r5, #128
  47              		.loc 1 28 0
  48 000e 9A61     		str	r2, [r3, #24]
  49              		.loc 1 30 0
  50 0010 C4F20104 		movt	r4, 16385
  51 0014 2E46     		mov	r6, r5
  52              	.LVL1:
  53              	.L2:
  54              		.loc 1 30 0 is_stmt 0 discriminator 1
  55 0016 6661     		str	r6, [r4, #20]
  56              		.loc 1 31 0 is_stmt 1 discriminator 1
  57 0018 4FF4FA70 		mov	r0, #500
ARM GAS  /var/folders/dt/0wfd0knj7gs46m8vwfzktm600000gn/T//cchxVajv.s 			page 2


  58 001c FFF7FEFF 		bl	chThdSleep
  59              	.LVL2:
  60              		.loc 1 32 0 discriminator 1
  61 0020 2561     		str	r5, [r4, #16]
  62              		.loc 1 33 0 discriminator 1
  63 0022 4FF4FA70 		mov	r0, #500
  64 0026 FFF7FEFF 		bl	chThdSleep
  65              	.LVL3:
  66 002a F4E7     		b	.L2
  67              	.L5:
  68              		.align	2
  69              	.L4:
  70 002c 00000000 		.word	rlist
  71 0030 00000000 		.word	.LC0
  72              		.cfi_endproc
  73              	.LFE63:
  74              		.size	Thread1, .-Thread1
  75 0034 AFF30080 		.section	.text.shell,"ax",%progbits
  75      AFF30080 
  75      AFF30080 
  76              		.align	2
  77              		.p2align 4,,15
  78              		.thumb
  79              		.thumb_func
  80              		.type	shell, %function
  81              	shell:
  82              	.LFB62:
  83              		.loc 1 17 0
  84              		.cfi_startproc
  85              		@ args = 0, pretend = 0, frame = 0
  86              		@ frame_needed = 0, uses_anonymous_args = 0
  87              	.LVL4:
  88 0000 08B5     		push	{r3, lr}
  89              	.LCFI1:
  90              		.cfi_def_cfa_offset 8
  91              		.cfi_offset 3, -8
  92              		.cfi_offset 14, -4
  93              		.loc 1 19 0
  94 0002 40F20003 		movw	r3, #:lower16:rlist
  95 0006 C0F20003 		movt	r3, #:upper16:rlist
  96 000a DB69     		ldr	r3, [r3, #28]
  97 000c 40F20002 		movw	r2, #:lower16:.LC1
  98 0010 C0F20002 		movt	r2, #:upper16:.LC1
  99 0014 9A61     		str	r2, [r3, #24]
 100              		.loc 1 20 0
 101 0016 FFF7FEFF 		bl	start_shell
 102              	.LVL5:
 103              		.loc 1 21 0
 104 001a 08BD     		pop	{r3, pc}
 105              		.cfi_endproc
 106              	.LFE62:
 107              		.size	shell, .-shell
 108 001c AFF30080 		.section	.text.startup.main,"ax",%progbits
 109              		.align	2
 110              		.p2align 4,,15
 111              		.global	main
 112              		.thumb
ARM GAS  /var/folders/dt/0wfd0knj7gs46m8vwfzktm600000gn/T//cchxVajv.s 			page 3


 113              		.thumb_func
 114              		.type	main, %function
 115              	main:
 116              	.LFB64:
 117              		.loc 1 37 0
 118              		.cfi_startproc
 119              		@ args = 0, pretend = 0, frame = 0
 120              		@ frame_needed = 0, uses_anonymous_args = 0
 121              	.LVL6:
 122 0000 10B5     		push	{r4, lr}
 123              	.LCFI2:
 124              		.cfi_def_cfa_offset 8
 125              		.cfi_offset 4, -8
 126              		.cfi_offset 14, -4
 127              		.loc 1 45 0
 128 0002 0024     		movs	r4, #0
 129              		.loc 1 37 0
 130 0004 82B0     		sub	sp, sp, #8
 131              	.LCFI3:
 132              		.cfi_def_cfa_offset 16
 133              		.loc 1 40 0
 134 0006 FFF7FEFF 		bl	halInit
 135              	.LVL7:
 136              		.loc 1 41 0
 137 000a FFF7FEFF 		bl	chSysInit
 138              	.LVL8:
 139              		.loc 1 43 0
 140 000e 1148     		ldr	r0, .L13
 141 0010 2146     		mov	r1, r4
 142 0012 FFF7FEFF 		bl	sdStart
 143              	.LVL9:
 144              		.loc 1 45 0
 145 0016 0094     		str	r4, [sp, #0]
 146 0018 0F48     		ldr	r0, .L13+4
 147 001a 4FF49871 		mov	r1, #304
 148 001e 4022     		movs	r2, #64
 149 0020 0E4B     		ldr	r3, .L13+8
 150 0022 FFF7FEFF 		bl	chThdCreateStatic
 151              	.LVL10:
 152              		.loc 1 48 0
 153 0026 54B1     		cbz	r4, .L12
 154              	.L8:
 155              		.loc 1 53 0
 156 0028 94F82030 		ldrb	r3, [r4, #32]	@ zero_extendqisi2
 157              		.loc 1 54 0
 158 002c 0E2B     		cmp	r3, #14
 159 002e 08BF     		it	eq
 160 0030 0024     		moveq	r4, #0
 161              	.LVL11:
 162              	.L9:
 163              		.loc 1 56 0
 164 0032 4FF47A70 		mov	r0, #1000
 165 0036 FFF7FEFF 		bl	chThdSleep
 166              	.LVL12:
 167              		.loc 1 48 0
 168 003a 002C     		cmp	r4, #0
 169 003c F4D1     		bne	.L8
ARM GAS  /var/folders/dt/0wfd0knj7gs46m8vwfzktm600000gn/T//cchxVajv.s 			page 4


 170              	.L12:
 171              		.loc 1 50 0
 172 003e 0094     		str	r4, [sp, #0]
 173 0040 0748     		ldr	r0, .L13+12
 174 0042 4FF40B61 		mov	r1, #2224
 175 0046 4022     		movs	r2, #64
 176 0048 064B     		ldr	r3, .L13+16
 177 004a FFF7FEFF 		bl	chThdCreateStatic
 178              	.LVL13:
 179 004e 0446     		mov	r4, r0
 180              	.LVL14:
 181 0050 EFE7     		b	.L9
 182              	.L14:
 183 0052 00BF     		.align	2
 184              	.L13:
 185 0054 00000000 		.word	SD2
 186 0058 00000000 		.word	.LANCHOR0
 187 005c 00000000 		.word	Thread1
 188 0060 00000000 		.word	.LANCHOR1
 189 0064 00000000 		.word	shell
 190              		.cfi_endproc
 191              	.LFE64:
 192              		.size	main, .-main
 193 0068 AFF30080 		.section	.bss.waThread1,"aw",%nobits
 193      AFF30080 
 194              		.align	3
 195              		.set	.LANCHOR0,. + 0
 196              		.type	waThread1, %object
 197              		.size	waThread1, 304
 198              	waThread1:
 199 0000 00000000 		.space	304
 199      00000000 
 199      00000000 
 199      00000000 
 199      00000000 
 200              		.section	.rodata.str1.4,"aMS",%progbits,1
 201              		.align	2
 202              	.LC0:
 203 0000 626C696E 		.ascii	"blinker\000"
 203      6B657200 
 204              	.LC1:
 205 0008 7368656C 		.ascii	"shell\000"
 205      6C00
 206 000e 0000     		.section	.bss.waShell,"aw",%nobits
 207              		.align	3
 208              		.set	.LANCHOR1,. + 0
 209              		.type	waShell, %object
 210              		.size	waShell, 2224
 211              	waShell:
 212 0000 00000000 		.space	2224
 212      00000000 
 212      00000000 
 212      00000000 
 212      00000000 
 213              		.text
 214              	.Letext0:
 215              		.file 2 "/Users/toxygen/Applications/yagarto-4.7.2/bin/../lib/gcc/arm-none-eabi/4.7.2/include/stdd
ARM GAS  /var/folders/dt/0wfd0knj7gs46m8vwfzktm600000gn/T//cchxVajv.s 			page 5


 216              		.file 3 "/Users/toxygen/Applications/yagarto-4.7.2/bin/../lib/gcc/arm-none-eabi/4.7.2/../../../../
 217              		.file 4 "../../os/ports/GCC/ARMCMx/chtypes.h"
 218              		.file 5 "../../os/kernel/include/chlists.h"
 219              		.file 6 "../../os/kernel/include/chthreads.h"
 220              		.file 7 "../../os/ports/GCC/ARMCMx/chcore_v7m.h"
 221              		.file 8 "../../os/kernel/include/chschd.h"
 222              		.file 9 "../../os/kernel/include/chmtx.h"
 223              		.file 10 "../../os/kernel/include/chevents.h"
 224              		.file 11 "../../os/kernel/include/chqueues.h"
 225              		.file 12 "../../os/kernel/include/chioch.h"
 226              		.file 13 "../../os/hal/platforms/STM32F1xx/stm32f10x.h"
 227              		.file 14 "../../os/hal/platforms/STM32/GPIOv1/pal_lld.h"
 228              		.file 15 "../../os/hal/include/serial.h"
 229              		.file 16 "../../os/hal/platforms/STM32/serial_lld.h"
 230              		.file 17 "../../os/ports/common/ARMCMx/CMSIS/include/core_cm3.h"
 231              		.file 18 "microshell2.h"
 232              		.file 19 "../../os/hal/include/hal.h"
 233              		.file 20 "../../os/kernel/include/chsys.h"