ARM GAS  /var/folders/dt/0wfd0knj7gs46m8vwfzktm600000gn/T//ccadM7KO.s 			page 1


   1              		.syntax unified
   2              		.cpu cortex-m3
   3              		.fpu softvfp
   4              		.eabi_attribute 20, 1
   5              		.eabi_attribute 21, 1
   6              		.eabi_attribute 23, 3
   7              		.eabi_attribute 24, 1
   8              		.eabi_attribute 25, 1
   9              		.eabi_attribute 26, 1
  10              		.eabi_attribute 30, 2
  11              		.eabi_attribute 34, 1
  12              		.eabi_attribute 18, 4
  13              		.thumb
  14              		.file	"microshell2.c"
  15              		.text
  16              	.Ltext0:
  17              		.cfi_sections	.debug_frame
  18              		.section	.text.complete,"ax",%progbits
  19              		.align	2
  20              		.p2align 4,,15
  21              		.global	complete
  22              		.thumb
  23              		.thumb_func
  24              		.type	complete, %function
  25              	complete:
  26              	.LFB66:
  27              		.file 1 "microshell2.c"
  28              		.loc 1 122 0
  29              		.cfi_startproc
  30              		@ args = 0, pretend = 0, frame = 0
  31              		@ frame_needed = 0, uses_anonymous_args = 0
  32              	.LVL0:
  33 0000 2DE9F047 		push	{r4, r5, r6, r7, r8, r9, sl, lr}
  34              	.LCFI0:
  35              		.cfi_def_cfa_offset 32
  36              		.cfi_offset 4, -32
  37              		.cfi_offset 5, -28
  38              		.cfi_offset 6, -24
  39              		.cfi_offset 7, -20
  40              		.cfi_offset 8, -16
  41              		.cfi_offset 9, -12
  42              		.cfi_offset 10, -8
  43              		.cfi_offset 14, -4
  44              		.loc 1 125 0
  45 0004 284C     		ldr	r4, .L18
  46 0006 0027     		movs	r7, #0
  47              		.loc 1 128 0
  48 0008 0128     		cmp	r0, #1
  49              		.loc 1 122 0
  50 000a 0546     		mov	r5, r0
  51              		.loc 1 125 0
  52 000c 2760     		str	r7, [r4, #0]
  53              		.loc 1 122 0
  54 000e 0E46     		mov	r6, r1
  55              		.loc 1 128 0
  56 0010 2FD0     		beq	.L16
  57              		.loc 1 139 0
ARM GAS  /var/folders/dt/0wfd0knj7gs46m8vwfzktm600000gn/T//ccadM7KO.s 			page 2


  58 0012 41DD     		ble	.L9
  59              		.loc 1 139 0 is_stmt 0 discriminator 1
  60 0014 0868     		ldr	r0, [r1, #0]
  61              	.LVL1:
  62 0016 2549     		ldr	r1, .L18+4
  63              	.LVL2:
  64 0018 FFF7FEFF 		bl	strcmp
  65              	.LVL3:
  66 001c 8046     		mov	r8, r0
  67 001e D0B9     		cbnz	r0, .L10
  68              	.LBB2:
  69              		.loc 1 142 0 is_stmt 1
  70 0020 DFF894A0 		ldr	sl, .L18+16
  71 0024 013D     		subs	r5, r5, #1
  72              	.LVL4:
  73 0026 DAF80070 		ldr	r7, [sl, #0]
  74 002a 56F82590 		ldr	r9, [r6, r5, lsl #2]
  75 002e 3846     		mov	r0, r7
  76 0030 4946     		mov	r1, r9
  77 0032 FFF7FEFF 		bl	strstr
  78              	.LVL5:
  79 0036 8742     		cmp	r7, r0
  80 0038 18BF     		it	ne
  81 003a 4746     		movne	r7, r8
  82 003c 2FD0     		beq	.L17
  83              	.LVL6:
  84              	.L7:
  85 003e DAF80450 		ldr	r5, [sl, #4]
  86              	.LVL7:
  87 0042 4946     		mov	r1, r9
  88 0044 2846     		mov	r0, r5
  89 0046 FFF7FEFF 		bl	strstr
  90              	.LVL8:
  91 004a 8542     		cmp	r5, r0
  92 004c 0BD1     		bne	.L5
  93              		.loc 1 143 0
  94 004e 44F82750 		str	r5, [r4, r7, lsl #2]
  95 0052 0137     		adds	r7, r7, #1
  96              	.LVL9:
  97 0054 07E0     		b	.L5
  98              	.LVL10:
  99              	.L10:
 100 0056 164A     		ldr	r2, .L18+8
 101              	.LBE2:
 102              		.loc 1 139 0
 103 0058 3846     		mov	r0, r7
 104              	.LVL11:
 105              	.L12:
 106              		.loc 1 148 0 discriminator 2
 107 005a 1358     		ldr	r3, [r2, r0]
 108 005c 2350     		str	r3, [r4, r0]
 109 005e 0430     		adds	r0, r0, #4
 110              		.loc 1 147 0 discriminator 2
 111 0060 1828     		cmp	r0, #24
 112 0062 FAD1     		bne	.L12
 113              		.loc 1 147 0 is_stmt 0
 114 0064 0627     		movs	r7, #6
ARM GAS  /var/folders/dt/0wfd0knj7gs46m8vwfzktm600000gn/T//ccadM7KO.s 			page 3


 115              	.LVL12:
 116              	.L5:
 117              		.loc 1 153 0 is_stmt 1
 118 0066 0023     		movs	r3, #0
 119 0068 44F82730 		str	r3, [r4, r7, lsl #2]
 120              		.loc 1 156 0
 121 006c 0E48     		ldr	r0, .L18
 122 006e BDE8F087 		pop	{r4, r5, r6, r7, r8, r9, sl, pc}
 123              	.LVL13:
 124              	.L16:
 125              	.LBB3:
 126              		.loc 1 121 0
 127 0072 104D     		ldr	r5, .L18+12
 128              		.loc 1 130 0
 129 0074 D1F80090 		ldr	r9, [r1, #0]
 130              	.LVL14:
 131              		.loc 1 121 0
 132 0078 05F11808 		add	r8, r5, #24
 133              	.LVL15:
 134              	.L4:
 135              	.LBB4:
 136              		.loc 1 134 0
 137 007c 55F8046F 		ldr	r6, [r5, #4]!
 138 0080 4946     		mov	r1, r9
 139 0082 3046     		mov	r0, r6
 140 0084 FFF7FEFF 		bl	strstr
 141              	.LVL16:
 142 0088 8642     		cmp	r6, r0
 143              		.loc 1 136 0
 144 008a 04BF     		itt	eq
 145 008c 44F82760 		streq	r6, [r4, r7, lsl #2]
 146 0090 0137     		addeq	r7, r7, #1
 147              	.LVL17:
 148              		.loc 1 132 0
 149 0092 4545     		cmp	r5, r8
 150 0094 F2D1     		bne	.L4
 151 0096 E6E7     		b	.L5
 152              	.LVL18:
 153              	.L9:
 154              	.LBE4:
 155              	.LBE3:
 156              		.loc 1 139 0
 157 0098 3846     		mov	r0, r7
 158              	.LVL19:
 159 009a 054A     		ldr	r2, .L18+8
 160 009c DDE7     		b	.L12
 161              	.LVL20:
 162              	.L17:
 163              	.LBB5:
 164              		.loc 1 143 0
 165 009e 2760     		str	r7, [r4, #0]
 166              	.LVL21:
 167 00a0 56F82590 		ldr	r9, [r6, r5, lsl #2]
 168 00a4 0127     		movs	r7, #1
 169 00a6 CAE7     		b	.L7
 170              	.L19:
 171              		.align	2
ARM GAS  /var/folders/dt/0wfd0knj7gs46m8vwfzktm600000gn/T//ccadM7KO.s 			page 4


 172              	.L18:
 173 00a8 00000000 		.word	.LANCHOR0
 174 00ac 00000000 		.word	.LC0
 175 00b0 00000000 		.word	.LANCHOR1
 176 00b4 FCFFFFFF 		.word	.LANCHOR1-4
 177 00b8 00000000 		.word	.LANCHOR2
 178              	.LBE5:
 179              		.cfi_endproc
 180              	.LFE66:
 181              		.size	complete, .-complete
 182 00bc AFF30080 		.section	.text.sigint,"ax",%progbits
 183              		.align	2
 184              		.p2align 4,,15
 185              		.global	sigint
 186              		.thumb
 187              		.thumb_func
 188              		.type	sigint, %function
 189              	sigint:
 190              	.LFB65:
 191              		.loc 1 114 0
 192              		.cfi_startproc
 193              		@ args = 0, pretend = 0, frame = 0
 194              		@ frame_needed = 0, uses_anonymous_args = 0
 195              		@ link register save eliminated.
 196              	.LVL22:
 197              		.loc 1 116 0
 198              		.loc 1 115 0
 199 0000 FFF7FEBF 		b	mlab_sigint
 200              	.LVL23:
 201              		.cfi_endproc
 202              	.LFE65:
 203              		.size	sigint, .-sigint
 204 0004 AFF30080 		.section	.text.print,"ax",%progbits
 204      AFF30080 
 204      AFF30080 
 205              		.align	2
 206              		.p2align 4,,15
 207              		.global	print
 208              		.thumb
 209              		.thumb_func
 210              		.type	print, %function
 211              	print:
 212              	.LFB62:
 213              		.loc 1 45 0
 214              		.cfi_startproc
 215              		@ args = 0, pretend = 0, frame = 0
 216              		@ frame_needed = 0, uses_anonymous_args = 0
 217              		@ link register save eliminated.
 218              	.LVL24:
 219              		.loc 1 45 0
 220 0000 0246     		mov	r2, r0
 221              		.loc 1 46 0
 222 0002 40F20001 		movw	r1, #:lower16:.LC1
 223 0006 40F20000 		movw	r0, #:lower16:SD2
 224              	.LVL25:
 225 000a C0F20000 		movt	r0, #:upper16:SD2
 226 000e C0F20001 		movt	r1, #:upper16:.LC1
ARM GAS  /var/folders/dt/0wfd0knj7gs46m8vwfzktm600000gn/T//ccadM7KO.s 			page 5


 227              		.loc 1 47 0
 228              		.loc 1 46 0
 229 0012 FFF7FEBF 		b	chprintf
 230              	.LVL26:
 231              		.cfi_endproc
 232              	.LFE62:
 233              		.size	print, .-print
 234 0016 00BFAFF3 		.section	.text.print_help,"ax",%progbits
 234      0080AFF3 
 234      0080
 235              		.align	2
 236              		.p2align 4,,15
 237              		.global	print_help
 238              		.thumb
 239              		.thumb_func
 240              		.type	print_help, %function
 241              	print_help:
 242              	.LFB63:
 243              		.loc 1 51 0
 244              		.cfi_startproc
 245              		@ args = 0, pretend = 0, frame = 0
 246              		@ frame_needed = 0, uses_anonymous_args = 0
 247              		.loc 1 52 0
 248 0000 40F20000 		movw	r0, #:lower16:.LC2
 249              		.loc 1 51 0
 250 0004 08B5     		push	{r3, lr}
 251              	.LCFI1:
 252              		.cfi_def_cfa_offset 8
 253              		.cfi_offset 3, -8
 254              		.cfi_offset 14, -4
 255              		.loc 1 52 0
 256 0006 C0F20000 		movt	r0, #:upper16:.LC2
 257 000a FFF7FEFF 		bl	print
 258              	.LVL27:
 259              		.loc 1 53 0
 260 000e 40F20000 		movw	r0, #:lower16:.LC3
 261 0012 C0F20000 		movt	r0, #:upper16:.LC3
 262 0016 FFF7FEFF 		bl	print
 263              	.LVL28:
 264              		.loc 1 54 0
 265 001a 40F20000 		movw	r0, #:lower16:.LC4
 266 001e C0F20000 		movt	r0, #:upper16:.LC4
 267 0022 FFF7FEFF 		bl	print
 268              	.LVL29:
 269              		.loc 1 55 0
 270 0026 40F20000 		movw	r0, #:lower16:.LC5
 271 002a C0F20000 		movt	r0, #:upper16:.LC5
 272 002e FFF7FEFF 		bl	print
 273              	.LVL30:
 274              		.loc 1 56 0
 275 0032 40F20000 		movw	r0, #:lower16:.LC6
 276 0036 C0F20000 		movt	r0, #:upper16:.LC6
 277 003a FFF7FEFF 		bl	print
 278              	.LVL31:
 279              		.loc 1 57 0
 280 003e 40F20000 		movw	r0, #:lower16:.LC7
 281 0042 C0F20000 		movt	r0, #:upper16:.LC7
ARM GAS  /var/folders/dt/0wfd0knj7gs46m8vwfzktm600000gn/T//ccadM7KO.s 			page 6


 282 0046 FFF7FEFF 		bl	print
 283              	.LVL32:
 284              		.loc 1 58 0
 285 004a 40F20000 		movw	r0, #:lower16:.LC8
 286 004e C0F20000 		movt	r0, #:upper16:.LC8
 287              		.loc 1 59 0
 288 0052 BDE80840 		pop	{r3, lr}
 289              		.loc 1 58 0
 290 0056 FFF7FEBF 		b	print
 291              	.LVL33:
 292              		.cfi_endproc
 293              	.LFE63:
 294              		.size	print_help, .-print_help
 295 005a 00BFAFF3 		.section	.text.execute,"ax",%progbits
 295      0080
 296              		.align	2
 297              		.p2align 4,,15
 298              		.global	execute
 299              		.thumb
 300              		.thumb_func
 301              		.type	execute, %function
 302              	execute:
 303              	.LFB64:
 304              		.loc 1 62 0
 305              		.cfi_startproc
 306              		@ args = 0, pretend = 0, frame = 0
 307              		@ frame_needed = 0, uses_anonymous_args = 0
 308              	.LVL34:
 309 0000 2DE9F843 		push	{r3, r4, r5, r6, r7, r8, r9, lr}
 310              	.LCFI2:
 311              		.cfi_def_cfa_offset 32
 312              		.cfi_offset 3, -32
 313              		.cfi_offset 4, -28
 314              		.cfi_offset 5, -24
 315              		.cfi_offset 6, -20
 316              		.cfi_offset 7, -16
 317              		.cfi_offset 8, -12
 318              		.cfi_offset 9, -8
 319              		.cfi_offset 14, -4
 320              		.loc 1 65 0
 321 0004 061E     		subs	r6, r0, #0
 322              		.loc 1 62 0
 323 0006 0F46     		mov	r7, r1
 324              		.loc 1 65 0
 325 0008 40DD     		ble	.L41
 326              		.loc 1 61 0
 327 000a DFF87891 		ldr	r9, .L46+88
 328              		.loc 1 65 0
 329 000e 0024     		movs	r4, #0
 330 0010 11E0     		b	.L24
 331              	.LVL35:
 332              	.L43:
 333              		.loc 1 70 0
 334 0012 0134     		adds	r4, r4, #1
 335              	.LVL36:
 336 0014 A642     		cmp	r6, r4
 337 0016 61DD     		ble	.L28
ARM GAS  /var/folders/dt/0wfd0knj7gs46m8vwfzktm600000gn/T//ccadM7KO.s 			page 7


 338              		.loc 1 71 0
 339 0018 57F82450 		ldr	r5, [r7, r4, lsl #2]
 340 001c 2846     		mov	r0, r5
 341 001e FFF7FEFF 		bl	strlen
 342              	.LVL37:
 343 0022 0728     		cmp	r0, #7
 344 0024 56D8     		bhi	.L29
 345              		.loc 1 72 0
 346 0026 421C     		adds	r2, r0, #1
 347 0028 2946     		mov	r1, r5
 348 002a 4048     		ldr	r0, .L46
 349 002c FFF7FEFF 		bl	memcpy
 350              	.LVL38:
 351              	.L26:
 352              		.loc 1 108 0
 353 0030 0134     		adds	r4, r4, #1
 354              	.LVL39:
 355              		.loc 1 65 0
 356 0032 A642     		cmp	r6, r4
 357 0034 2ADD     		ble	.L41
 358              	.LVL40:
 359              	.L24:
 360              		.loc 1 66 0
 361 0036 57F82450 		ldr	r5, [r7, r4, lsl #2]
 362 003a 3D49     		ldr	r1, .L46+4
 363 003c 2846     		mov	r0, r5
 364 003e 4FEA8408 		lsl	r8, r4, #2
 365 0042 FFF7FEFF 		bl	strcmp
 366              	.LVL41:
 367 0046 20B3     		cbz	r0, .L42
 368              		.loc 1 69 0
 369 0048 2846     		mov	r0, r5
 370 004a 3A49     		ldr	r1, .L46+8
 371 004c FFF7FEFF 		bl	strcmp
 372              	.LVL42:
 373 0050 0028     		cmp	r0, #0
 374 0052 DED0     		beq	.L43
 375              		.loc 1 80 0
 376 0054 2846     		mov	r0, r5
 377 0056 3849     		ldr	r1, .L46+12
 378 0058 FFF7FEFF 		bl	strcmp
 379              	.LVL43:
 380 005c F8B9     		cbnz	r0, .L30
 381              		.loc 1 81 0
 382 005e 0134     		adds	r4, r4, #1
 383              	.LVL44:
 384 0060 A642     		cmp	r6, r4
 385 0062 4DDD     		ble	.L31
 386              		.loc 1 82 0
 387 0064 57F82450 		ldr	r5, [r7, r4, lsl #2]
 388 0068 3449     		ldr	r1, .L46+16
 389 006a 2846     		mov	r0, r5
 390 006c FFF7FEFF 		bl	strcmp
 391              	.LVL45:
 392 0070 0028     		cmp	r0, #0
 393 0072 57D0     		beq	.L44
 394              		.loc 1 84 0
ARM GAS  /var/folders/dt/0wfd0knj7gs46m8vwfzktm600000gn/T//ccadM7KO.s 			page 8


 395 0074 2846     		mov	r0, r5
 396 0076 3249     		ldr	r1, .L46+20
 397 0078 FFF7FEFF 		bl	strcmp
 398              	.LVL46:
 399 007c 0028     		cmp	r0, #0
 400 007e 4AD1     		bne	.L33
 401              		.loc 1 85 0
 402 0080 3048     		ldr	r0, .L46+24
 403              		.loc 1 108 0
 404 0082 0134     		adds	r4, r4, #1
 405              	.LVL47:
 406              		.loc 1 85 0
 407 0084 FFF7FEFF 		bl	print
 408              	.LVL48:
 409              		.loc 1 65 0
 410 0088 A642     		cmp	r6, r4
 411 008a D4DC     		bgt	.L24
 412              	.LVL49:
 413              	.L41:
 414              		.loc 1 111 0
 415 008c 0020     		movs	r0, #0
 416 008e BDE8F883 		pop	{r3, r4, r5, r6, r7, r8, r9, pc}
 417              	.L42:
 418              		.loc 1 67 0
 419 0092 2D48     		ldr	r0, .L46+28
 420 0094 FFF7FEFF 		bl	print
 421              	.LVL50:
 422              		.loc 1 68 0
 423 0098 FFF7FEFF 		bl	print_help
 424              	.LVL51:
 425 009c C8E7     		b	.L26
 426              	.L30:
 427              		.loc 1 93 0
 428 009e 2846     		mov	r0, r5
 429 00a0 2A49     		ldr	r1, .L46+32
 430 00a2 FFF7FEFF 		bl	strcmp
 431              	.LVL52:
 432 00a6 78B3     		cbz	r0, .L45
 433              		.loc 1 96 0
 434 00a8 2846     		mov	r0, r5
 435 00aa 2949     		ldr	r1, .L46+36
 436 00ac FFF7FEFF 		bl	strcmp
 437              	.LVL53:
 438 00b0 D8B9     		cbnz	r0, .L35
 439              		.loc 1 97 0
 440 00b2 2848     		ldr	r0, .L46+40
 441 00b4 FFF7FEFF 		bl	print
 442              	.LVL54:
 443              		.loc 1 61 0
 444 00b8 274D     		ldr	r5, .L46+44
 445              	.LVL55:
 446              	.L36:
 447              	.LBB6:
 448              		.loc 1 99 0 discriminator 2
 449 00ba 2848     		ldr	r0, .L46+48
 450 00bc FFF7FEFF 		bl	print
 451              	.LVL56:
ARM GAS  /var/folders/dt/0wfd0knj7gs46m8vwfzktm600000gn/T//ccadM7KO.s 			page 9


 452              		.loc 1 100 0 discriminator 2
 453 00c0 55F8040F 		ldr	r0, [r5, #4]!
 454 00c4 FFF7FEFF 		bl	print
 455              	.LVL57:
 456              		.loc 1 101 0 discriminator 2
 457 00c8 2548     		ldr	r0, .L46+52
 458 00ca FFF7FEFF 		bl	print
 459              	.LVL58:
 460              		.loc 1 98 0 discriminator 2
 461 00ce 4D45     		cmp	r5, r9
 462 00d0 F3D1     		bne	.L36
 463 00d2 ADE7     		b	.L26
 464              	.LVL59:
 465              	.L29:
 466              	.LBE6:
 467              		.loc 1 74 0
 468 00d4 2348     		ldr	r0, .L46+56
 469 00d6 FFF7FEFF 		bl	print
 470              	.LVL60:
 471 00da A9E7     		b	.L26
 472              	.L28:
 473              		.loc 1 77 0
 474 00dc 1348     		ldr	r0, .L46
 475 00de FFF7FEFF 		bl	print
 476              	.LVL61:
 477              		.loc 1 78 0
 478 00e2 1F48     		ldr	r0, .L46+52
 479 00e4 FFF7FEFF 		bl	print
 480              	.LVL62:
 481 00e8 A2E7     		b	.L26
 482              	.LVL63:
 483              	.L35:
 484              		.loc 1 104 0
 485 00ea 1F48     		ldr	r0, .L46+60
 486 00ec FFF7FEFF 		bl	print
 487              	.LVL64:
 488              		.loc 1 105 0
 489 00f0 57F80800 		ldr	r0, [r7, r8]
 490 00f4 FFF7FEFF 		bl	print
 491              	.LVL65:
 492              		.loc 1 106 0
 493 00f8 1C48     		ldr	r0, .L46+64
 494 00fa FFF7FEFF 		bl	print
 495              	.LVL66:
 496 00fe 97E7     		b	.L26
 497              	.LVL67:
 498              	.L31:
 499              		.loc 1 91 0
 500 0100 1B48     		ldr	r0, .L46+68
 501 0102 FFF7FEFF 		bl	print
 502              	.LVL68:
 503 0106 93E7     		b	.L26
 504              	.LVL69:
 505              	.L45:
 506              		.loc 1 94 0
 507 0108 1A48     		ldr	r0, .L46+72
 508 010a FFF7FEFF 		bl	print
ARM GAS  /var/folders/dt/0wfd0knj7gs46m8vwfzktm600000gn/T//ccadM7KO.s 			page 10


 509              	.LVL70:
 510              		.loc 1 95 0
 511 010e 1A48     		ldr	r0, .L46+76
 512 0110 FFF7FEFF 		bl	print
 513              	.LVL71:
 514 0114 8CE7     		b	.L26
 515              	.LVL72:
 516              	.L33:
 517              		.loc 1 87 0
 518 0116 2846     		mov	r0, r5
 519 0118 FFF7FEFF 		bl	print
 520              	.LVL73:
 521              		.loc 1 88 0
 522 011c 1748     		ldr	r0, .L46+80
 523 011e FFF7FEFF 		bl	print
 524              	.LVL74:
 525 0122 85E7     		b	.L26
 526              	.L44:
 527              		.loc 1 83 0
 528 0124 1648     		ldr	r0, .L46+84
 529 0126 FFF7FEFF 		bl	print
 530              	.LVL75:
 531 012a 81E7     		b	.L26
 532              	.L47:
 533              		.align	2
 534              	.L46:
 535 012c 00000000 		.word	.LANCHOR3
 536 0130 A0010000 		.word	.LC9
 537 0134 CC010000 		.word	.LC11
 538 0138 00000000 		.word	.LC0
 539 013c F0010000 		.word	.LC14
 540 0140 08020000 		.word	.LC16
 541 0144 10020000 		.word	.LC17
 542 0148 A8010000 		.word	.LC10
 543 014c 64020000 		.word	.LC20
 544 0150 78020000 		.word	.LC23
 545 0154 80020000 		.word	.LC24
 546 0158 FCFFFFFF 		.word	.LANCHOR1-4
 547 015c 94020000 		.word	.LC25
 548 0160 EC010000 		.word	.LC13
 549 0164 D4010000 		.word	.LC12
 550 0168 98020000 		.word	.LC26
 551 016c A4020000 		.word	.LC27
 552 0170 3C020000 		.word	.LC19
 553 0174 6C020000 		.word	.LC21
 554 0178 74020000 		.word	.LC22
 555 017c 20020000 		.word	.LC18
 556 0180 F8010000 		.word	.LC15
 557 0184 14000000 		.word	.LANCHOR1+20
 558              		.cfi_endproc
 559              	.LFE64:
 560              		.size	execute, .-execute
 561 0188 AFF30080 		.section	.text.start_shell,"ax",%progbits
 561      AFF30080 
 562              		.align	2
 563              		.p2align 4,,15
 564              		.global	start_shell
ARM GAS  /var/folders/dt/0wfd0knj7gs46m8vwfzktm600000gn/T//ccadM7KO.s 			page 11


 565              		.thumb
 566              		.thumb_func
 567              		.type	start_shell, %function
 568              	start_shell:
 569              	.LFB67:
 570              		.loc 1 160 0
 571              		.cfi_startproc
 572              		@ args = 0, pretend = 0, frame = 432
 573              		@ frame_needed = 0, uses_anonymous_args = 0
 574 0000 10B5     		push	{r4, lr}
 575              	.LCFI3:
 576              		.cfi_def_cfa_offset 8
 577              		.cfi_offset 4, -8
 578              		.cfi_offset 14, -4
 579 0002 ECB0     		sub	sp, sp, #432
 580              	.LCFI4:
 581              		.cfi_def_cfa_offset 440
 582              		.loc 1 164 0
 583 0004 0D49     		ldr	r1, .L50
 584 0006 6846     		mov	r0, sp
 585 0008 FFF7FEFF 		bl	microrl_init
 586              	.LVL76:
 587              		.loc 1 165 0
 588 000c 6846     		mov	r0, sp
 589 000e 0C49     		ldr	r1, .L50+4
 590 0010 FFF7FEFF 		bl	microrl_set_execute_callback
 591              	.LVL77:
 592              		.loc 1 166 0
 593 0014 6846     		mov	r0, sp
 594 0016 0B49     		ldr	r1, .L50+8
 595 0018 FFF7FEFF 		bl	microrl_set_complete_callback
 596              	.LVL78:
 597              		.loc 1 167 0
 598 001c 6846     		mov	r0, sp
 599 001e 0A49     		ldr	r1, .L50+12
 600 0020 FFF7FEFF 		bl	microrl_set_sigint_callback
 601              	.LVL79:
 602 0024 094C     		ldr	r4, .L50+16
 603              	.L49:
 604              		.loc 1 171 0 discriminator 1
 605 0026 2368     		ldr	r3, [r4, #0]
 606 0028 4FF0FF31 		mov	r1, #-1
 607 002c 5B69     		ldr	r3, [r3, #20]
 608 002e 0748     		ldr	r0, .L50+16
 609 0030 9847     		blx	r3
 610              	.LVL80:
 611 0032 0146     		mov	r1, r0
 612              	.LVL81:
 613              		.loc 1 173 0 discriminator 1
 614 0034 6846     		mov	r0, sp
 615              	.LVL82:
 616 0036 FFF7FEFF 		bl	microrl_insert_char
 617              	.LVL83:
 618 003a F4E7     		b	.L49
 619              	.L51:
 620              		.align	2
 621              	.L50:
ARM GAS  /var/folders/dt/0wfd0knj7gs46m8vwfzktm600000gn/T//ccadM7KO.s 			page 12


 622 003c 00000000 		.word	print
 623 0040 00000000 		.word	execute
 624 0044 00000000 		.word	complete
 625 0048 00000000 		.word	sigint
 626 004c 00000000 		.word	SD2
 627              		.cfi_endproc
 628              	.LFE67:
 629              		.size	start_shell, .-start_shell
 630              		.global	val
 631              		.global	name
 632              		.global	compl_world
 633              		.global	ver_keyworld
 634              		.global	keyworld
 635              		.section	.bss.compl_world,"aw",%nobits
 636              		.align	2
 637              		.set	.LANCHOR0,. + 0
 638              		.type	compl_world, %object
 639              		.size	compl_world, 28
 640              	compl_world:
 641 0000 00000000 		.space	28
 641      00000000 
 641      00000000 
 641      00000000 
 641      00000000 
 642              		.section	.rodata.str1.4,"aMS",%progbits,1
 643              		.align	2
 644              	.LC0:
 645 0000 76657273 		.ascii	"version\000"
 645      696F6E00 
 646              	.LC1:
 647 0008 257300   		.ascii	"%s\000"
 648 000b 00       		.space	1
 649              	.LC2:
 650 000c 55736520 		.ascii	"Use TAB key for completion\012\015Command:\012\015\000"
 650      54414220 
 650      6B657920 
 650      666F7220 
 650      636F6D70 
 651 0033 00       		.space	1
 652              	.LC3:
 653 0034 09766572 		.ascii	"\011version {microrl | demo} - print version of mic"
 653      73696F6E 
 653      207B6D69 
 653      63726F72 
 653      6C207C20 
 654 0064 726F726C 		.ascii	"rorl lib or version of this demo src\012\015\000"
 654      206C6962 
 654      206F7220 
 654      76657273 
 654      696F6E20 
 655 008b 00       		.space	1
 656              	.LC4:
 657 008c 0968656C 		.ascii	"\011help  - this message\012\015\000"
 657      7020202D 
 657      20746869 
 657      73206D65 
 657      73736167 
ARM GAS  /var/folders/dt/0wfd0knj7gs46m8vwfzktm600000gn/T//ccadM7KO.s 			page 13


 658              	.LC5:
 659 00a4 09636C65 		.ascii	"\011clear - clear screen\012\015\000"
 659      6172202D 
 659      20636C65 
 659      61722073 
 659      63726565 
 660              	.LC6:
 661 00bc 096C6973 		.ascii	"\011list  - list all commands in tree\012\015\000"
 661      7420202D 
 661      206C6973 
 661      7420616C 
 661      6C20636F 
 662 00e1 000000   		.space	3
 663              	.LC7:
 664 00e4 096E616D 		.ascii	"\011name [string] - print 'name' value if no 'strin"
 664      65205B73 
 664      7472696E 
 664      675D202D 
 664      20707269 
 665 0114 67272C20 		.ascii	"g', set name value to 'string' if 'string' present\012"
 665      73657420 
 665      6E616D65 
 665      2076616C 
 665      75652074 
 666 0147 0D00     		.ascii	"\015\000"
 667 0149 000000   		.space	3
 668              	.LC8:
 669 014c 096C6973 		.ascii	"\011lisp - dummy command for demonstation auto-comp"
 669      70202D20 
 669      64756D6D 
 669      7920636F 
 669      6D6D616E 
 670 017c 6C657469 		.ascii	"letion, while inputed 'l+<TAB>'\012\015\000"
 670      6F6E2C20 
 670      7768696C 
 670      6520696E 
 670      70757465 
 671 019e 0000     		.space	2
 672              	.LC9:
 673 01a0 68656C70 		.ascii	"help\000"
 673      00
 674 01a5 000000   		.space	3
 675              	.LC10:
 676 01a8 6D696372 		.ascii	"microrl library based shell v 1.0\012\015\000"
 676      6F726C20 
 676      6C696272 
 676      61727920 
 676      62617365 
 677              	.LC11:
 678 01cc 6E616D65 		.ascii	"name\000"
 678      00
 679 01d1 000000   		.space	3
 680              	.LC12:
 681 01d4 6E616D65 		.ascii	"name value too long!\012\015\000"
 681      2076616C 
 681      75652074 
 681      6F6F206C 
ARM GAS  /var/folders/dt/0wfd0knj7gs46m8vwfzktm600000gn/T//ccadM7KO.s 			page 14


 681      6F6E6721 
 682 01eb 00       		.space	1
 683              	.LC13:
 684 01ec 0A0D00   		.ascii	"\012\015\000"
 685 01ef 00       		.space	1
 686              	.LC14:
 687 01f0 64656D6F 		.ascii	"demo\000"
 687      00
 688 01f5 000000   		.space	3
 689              	.LC15:
 690 01f8 64656D6F 		.ascii	"demo v 1.0\012\015\000"
 690      20762031 
 690      2E300A0D 
 690      00
 691 0205 000000   		.space	3
 692              	.LC16:
 693 0208 6D696372 		.ascii	"microrl\000"
 693      6F726C00 
 694              	.LC17:
 695 0210 6D696372 		.ascii	"microrl v 1.2\012\015\000"
 695      6F726C20 
 695      7620312E 
 695      320A0D00 
 696              	.LC18:
 697 0220 2077726F 		.ascii	" wrong argument, see help\012\015\000"
 697      6E672061 
 697      7267756D 
 697      656E742C 
 697      20736565 
 698              	.LC19:
 699 023c 76657273 		.ascii	"version needs 1 parametr, see help\012\015\000"
 699      696F6E20 
 699      6E656564 
 699      73203120 
 699      70617261 
 700 0261 000000   		.space	3
 701              	.LC20:
 702 0264 636C6561 		.ascii	"clear\000"
 702      7200
 703 026a 0000     		.space	2
 704              	.LC21:
 705 026c 1B5B324A 		.ascii	"\033[2J\000"
 705      00
 706 0271 000000   		.space	3
 707              	.LC22:
 708 0274 1B5B4800 		.ascii	"\033[H\000"
 709              	.LC23:
 710 0278 6C697374 		.ascii	"list\000"
 710      00
 711 027d 000000   		.space	3
 712              	.LC24:
 713 0280 61766169 		.ascii	"available command:\012\000"
 713      6C61626C 
 713      6520636F 
 713      6D6D616E 
 713      643A0A00 
 714              	.LC25:
ARM GAS  /var/folders/dt/0wfd0knj7gs46m8vwfzktm600000gn/T//ccadM7KO.s 			page 15


 715 0294 0900     		.ascii	"\011\000"
 716 0296 0000     		.space	2
 717              	.LC26:
 718 0298 636F6D6D 		.ascii	"command: '\000"
 718      616E643A 
 718      202700
 719 02a3 00       		.space	1
 720              	.LC27:
 721 02a4 27204E6F 		.ascii	"' Not found.\012\015\000"
 721      7420666F 
 721      756E642E 
 721      0A0D00
 722 02b3 00       		.space	1
 723              	.LC28:
 724 02b4 6C697370 		.ascii	"lisp\000"
 724      00
 725 02b9 000000   		.section	.data.ver_keyworld,"aw",%progbits
 726              		.align	2
 727              		.set	.LANCHOR2,. + 0
 728              		.type	ver_keyworld, %object
 729              		.size	ver_keyworld, 8
 730              	ver_keyworld:
 731 0000 08020000 		.word	.LC16
 732 0004 F0010000 		.word	.LC14
 733              		.section	.bss.val,"aw",%nobits
 734              		.align	2
 735              		.type	val, %object
 736              		.size	val, 4
 737              	val:
 738 0000 00000000 		.space	4
 739              		.section	.data.keyworld,"aw",%progbits
 740              		.align	2
 741              		.set	.LANCHOR1,. + 0
 742              		.type	keyworld, %object
 743              		.size	keyworld, 24
 744              	keyworld:
 745 0000 A0010000 		.word	.LC9
 746 0004 64020000 		.word	.LC20
 747 0008 78020000 		.word	.LC23
 748 000c CC010000 		.word	.LC11
 749 0010 00000000 		.word	.LC0
 750 0014 B4020000 		.word	.LC28
 751              		.section	.bss.name,"aw",%nobits
 752              		.align	2
 753              		.set	.LANCHOR3,. + 0
 754              		.type	name, %object
 755              		.size	name, 8
 756              	name:
 757 0000 00000000 		.space	8
 757      00000000 
 758              		.text
 759              	.Letext0:
 760              		.file 2 "microrl.h"
 761              		.file 3 "/Users/toxygen/Applications/yagarto-4.7.2/bin/../lib/gcc/arm-none-eabi/4.7.2/include/stdd
 762              		.file 4 "/Users/toxygen/Applications/yagarto-4.7.2/bin/../lib/gcc/arm-none-eabi/4.7.2/../../../../
 763              		.file 5 "../../os/ports/GCC/ARMCMx/chtypes.h"
 764              		.file 6 "../../os/kernel/include/chlists.h"
ARM GAS  /var/folders/dt/0wfd0knj7gs46m8vwfzktm600000gn/T//ccadM7KO.s 			page 16


 765              		.file 7 "../../os/kernel/include/chthreads.h"
 766              		.file 8 "../../os/ports/GCC/ARMCMx/chcore_v7m.h"
 767              		.file 9 "../../os/kernel/include/chmtx.h"
 768              		.file 10 "../../os/kernel/include/chevents.h"
 769              		.file 11 "../../os/kernel/include/chqueues.h"
 770              		.file 12 "../../os/kernel/include/chioch.h"
 771              		.file 13 "../../os/hal/platforms/STM32F1xx/stm32f10x.h"
 772              		.file 14 "../../os/hal/include/serial.h"
 773              		.file 15 "../../os/ports/common/ARMCMx/CMSIS/include/core_cm3.h"
 774              		.file 16 "../../os/hal/platforms/STM32/serial_lld.h"
 775              		.file 17 "/Users/toxygen/Applications/yagarto-4.7.2/bin/../lib/gcc/arm-none-eabi/4.7.2/../../../..
 776              		.file 18 "../../os/various/chprintf.h"
 777              		.section	.debug_info,"",%progbits
 778              	.Ldebug_info0:
 779 0000 95120000 		.4byte	0x1295
 780 0004 0200     		.2byte	0x2
 781 0006 00000000 		.4byte	.Ldebug_abbrev0
 782 000a 04       		.byte	0x4
 783 000b 01       		.uleb128 0x1
 784 000c 18030000 		.4byte	.LASF143
 785 0010 01       		.byte	0x1
 786 0011 10000000 		.4byte	.LASF144
 787 0015 AD040000 		.4byte	.LASF145
 788 0019 18000000 		.4byte	.Ldebug_ranges0+0x18
 789 001d 00000000 		.4byte	0
 790 0021 00000000 		.4byte	0
 791 0025 00000000 		.4byte	.Ldebug_line0
 792 0029 02       		.uleb128 0x2
 793 002a 01       		.byte	0x1
 794 002b 06       		.byte	0x6
 795 002c CD000000 		.4byte	.LASF0
 796 0030 02       		.uleb128 0x2
 797 0031 01       		.byte	0x1
 798 0032 08       		.byte	0x8
 799 0033 BA030000 		.4byte	.LASF1
 800 0037 02       		.uleb128 0x2
 801 0038 02       		.byte	0x2
 802 0039 05       		.byte	0x5
 803 003a DE030000 		.4byte	.LASF2
 804 003e 02       		.uleb128 0x2
 805 003f 02       		.byte	0x2
 806 0040 07       		.byte	0x7
 807 0041 2C020000 		.4byte	.LASF3
 808 0045 03       		.uleb128 0x3
 809 0046 04       		.byte	0x4
 810 0047 05       		.byte	0x5
 811 0048 696E7400 		.ascii	"int\000"
 812 004c 02       		.uleb128 0x2
 813 004d 04       		.byte	0x4
 814 004e 07       		.byte	0x7
 815 004f C5010000 		.4byte	.LASF4
 816 0053 02       		.uleb128 0x2
 817 0054 08       		.byte	0x8
 818 0055 05       		.byte	0x5
 819 0056 BF000000 		.4byte	.LASF5
 820 005a 02       		.uleb128 0x2
 821 005b 08       		.byte	0x8
ARM GAS  /var/folders/dt/0wfd0knj7gs46m8vwfzktm600000gn/T//ccadM7KO.s 			page 17


 822 005c 07       		.byte	0x7
 823 005d 5C000000 		.4byte	.LASF6
 824 0061 02       		.uleb128 0x2
 825 0062 04       		.byte	0x4
 826 0063 05       		.byte	0x5
 827 0064 06010000 		.4byte	.LASF7
 828 0068 02       		.uleb128 0x2
 829 0069 04       		.byte	0x4
 830 006a 07       		.byte	0x7
 831 006b C5020000 		.4byte	.LASF8
 832 006f 04       		.uleb128 0x4
 833 0070 04       		.byte	0x4
 834 0071 02       		.uleb128 0x2
 835 0072 04       		.byte	0x4
 836 0073 07       		.byte	0x7
 837 0074 62040000 		.4byte	.LASF9
 838 0078 05       		.uleb128 0x5
 839 0079 04       		.byte	0x4
 840 007a 7E000000 		.4byte	0x7e
 841 007e 02       		.uleb128 0x2
 842 007f 01       		.byte	0x1
 843 0080 08       		.byte	0x8
 844 0081 79040000 		.4byte	.LASF10
 845 0085 05       		.uleb128 0x5
 846 0086 04       		.byte	0x4
 847 0087 8B000000 		.4byte	0x8b
 848 008b 06       		.uleb128 0x6
 849 008c 7E000000 		.4byte	0x7e
 850 0090 07       		.uleb128 0x7
 851 0091 7E000000 		.4byte	0x7e
 852 0095 A0000000 		.4byte	0xa0
 853 0099 08       		.uleb128 0x8
 854 009a 68000000 		.4byte	0x68
 855 009e 07       		.byte	0x7
 856 009f 00       		.byte	0
 857 00a0 09       		.uleb128 0x9
 858 00a1 00000000 		.4byte	.LASF13
 859 00a5 03       		.byte	0x3
 860 00a6 D5       		.byte	0xd5
 861 00a7 4C000000 		.4byte	0x4c
 862 00ab 0A       		.uleb128 0xa
 863 00ac 0C01     		.2byte	0x10c
 864 00ae 02       		.byte	0x2
 865 00af 36       		.byte	0x36
 866 00b0 F0000000 		.4byte	0xf0
 867 00b4 0B       		.uleb128 0xb
 868 00b5 DE020000 		.4byte	.LASF11
 869 00b9 02       		.byte	0x2
 870 00ba 37       		.byte	0x37
 871 00bb F0000000 		.4byte	0xf0
 872 00bf 02       		.byte	0x2
 873 00c0 23       		.byte	0x23
 874 00c1 00       		.uleb128 0
 875 00c2 0B       		.uleb128 0xb
 876 00c3 A4050000 		.4byte	.LASF12
 877 00c7 02       		.byte	0x2
 878 00c8 38       		.byte	0x38
ARM GAS  /var/folders/dt/0wfd0knj7gs46m8vwfzktm600000gn/T//ccadM7KO.s 			page 18


 879 00c9 45000000 		.4byte	0x45
 880 00cd 03       		.byte	0x3
 881 00ce 23       		.byte	0x23
 882 00cf 8002     		.uleb128 0x100
 883 00d1 0C       		.uleb128 0xc
 884 00d2 656E6400 		.ascii	"end\000"
 885 00d6 02       		.byte	0x2
 886 00d7 39       		.byte	0x39
 887 00d8 45000000 		.4byte	0x45
 888 00dc 03       		.byte	0x3
 889 00dd 23       		.byte	0x23
 890 00de 8402     		.uleb128 0x104
 891 00e0 0C       		.uleb128 0xc
 892 00e1 63757200 		.ascii	"cur\000"
 893 00e5 02       		.byte	0x2
 894 00e6 3A       		.byte	0x3a
 895 00e7 45000000 		.4byte	0x45
 896 00eb 03       		.byte	0x3
 897 00ec 23       		.byte	0x23
 898 00ed 8802     		.uleb128 0x108
 899 00ef 00       		.byte	0
 900 00f0 07       		.uleb128 0x7
 901 00f1 7E000000 		.4byte	0x7e
 902 00f5 00010000 		.4byte	0x100
 903 00f9 08       		.uleb128 0x8
 904 00fa 68000000 		.4byte	0x68
 905 00fe FF       		.byte	0xff
 906 00ff 00       		.byte	0
 907 0100 09       		.uleb128 0x9
 908 0101 9A010000 		.4byte	.LASF14
 909 0105 02       		.byte	0x2
 910 0106 3B       		.byte	0x3b
 911 0107 AB000000 		.4byte	0xab
 912 010b 0D       		.uleb128 0xd
 913 010c A9010000 		.4byte	.LASF25
 914 0110 B001     		.2byte	0x1b0
 915 0112 02       		.byte	0x2
 916 0113 3F       		.byte	0x3f
 917 0114 AE010000 		.4byte	0x1ae
 918 0118 0B       		.uleb128 0xb
 919 0119 91000000 		.4byte	.LASF15
 920 011d 02       		.byte	0x2
 921 011e 41       		.byte	0x41
 922 011f 00010000 		.4byte	0x100
 923 0123 02       		.byte	0x2
 924 0124 23       		.byte	0x23
 925 0125 00       		.uleb128 0
 926 0126 0B       		.uleb128 0xb
 927 0127 F5000000 		.4byte	.LASF16
 928 012b 02       		.byte	0x2
 929 012c 43       		.byte	0x43
 930 012d 78000000 		.4byte	0x78
 931 0131 03       		.byte	0x3
 932 0132 23       		.byte	0x23
 933 0133 8C02     		.uleb128 0x10c
 934 0135 0B       		.uleb128 0xb
 935 0136 43010000 		.4byte	.LASF17
ARM GAS  /var/folders/dt/0wfd0knj7gs46m8vwfzktm600000gn/T//ccadM7KO.s 			page 19


 936 013a 02       		.byte	0x2
 937 013b 44       		.byte	0x44
 938 013c AE010000 		.4byte	0x1ae
 939 0140 03       		.byte	0x3
 940 0141 23       		.byte	0x23
 941 0142 9002     		.uleb128 0x110
 942 0144 0B       		.uleb128 0xb
 943 0145 25020000 		.4byte	.LASF18
 944 0149 02       		.byte	0x2
 945 014a 45       		.byte	0x45
 946 014b 45000000 		.4byte	0x45
 947 014f 03       		.byte	0x3
 948 0150 23       		.byte	0x23
 949 0151 F802     		.uleb128 0x178
 950 0153 0B       		.uleb128 0xb
 951 0154 11030000 		.4byte	.LASF19
 952 0158 02       		.byte	0x2
 953 0159 46       		.byte	0x46
 954 015a 45000000 		.4byte	0x45
 955 015e 03       		.byte	0x3
 956 015f 23       		.byte	0x23
 957 0160 FC02     		.uleb128 0x17c
 958 0162 0B       		.uleb128 0xb
 959 0163 D2010000 		.4byte	.LASF20
 960 0167 02       		.byte	0x2
 961 0168 47       		.byte	0x47
 962 0169 BE010000 		.4byte	0x1be
 963 016d 03       		.byte	0x3
 964 016e 23       		.byte	0x23
 965 016f 8003     		.uleb128 0x180
 966 0171 0B       		.uleb128 0xb
 967 0172 9A030000 		.4byte	.LASF21
 968 0176 02       		.byte	0x2
 969 0177 48       		.byte	0x48
 970 0178 EE010000 		.4byte	0x1ee
 971 017c 03       		.byte	0x3
 972 017d 23       		.byte	0x23
 973 017e A003     		.uleb128 0x1a0
 974 0180 0B       		.uleb128 0xb
 975 0181 40030000 		.4byte	.LASF22
 976 0185 02       		.byte	0x2
 977 0186 49       		.byte	0x49
 978 0187 0F020000 		.4byte	0x20f
 979 018b 03       		.byte	0x3
 980 018c 23       		.byte	0x23
 981 018d A403     		.uleb128 0x1a4
 982 018f 0B       		.uleb128 0xb
 983 0190 8B000000 		.4byte	.LASF23
 984 0194 02       		.byte	0x2
 985 0195 4A       		.byte	0x4a
 986 0196 21020000 		.4byte	0x221
 987 019a 03       		.byte	0x3
 988 019b 23       		.byte	0x23
 989 019c A803     		.uleb128 0x1a8
 990 019e 0B       		.uleb128 0xb
 991 019f 18020000 		.4byte	.LASF24
 992 01a3 02       		.byte	0x2
ARM GAS  /var/folders/dt/0wfd0knj7gs46m8vwfzktm600000gn/T//ccadM7KO.s 			page 20


 993 01a4 4C       		.byte	0x4c
 994 01a5 39020000 		.4byte	0x239
 995 01a9 03       		.byte	0x3
 996 01aa 23       		.byte	0x23
 997 01ab AC03     		.uleb128 0x1ac
 998 01ad 00       		.byte	0
 999 01ae 07       		.uleb128 0x7
 1000 01af 7E000000 		.4byte	0x7e
 1001 01b3 BE010000 		.4byte	0x1be
 1002 01b7 08       		.uleb128 0x8
 1003 01b8 68000000 		.4byte	0x68
 1004 01bc 64       		.byte	0x64
 1005 01bd 00       		.byte	0
 1006 01be 07       		.uleb128 0x7
 1007 01bf 85000000 		.4byte	0x85
 1008 01c3 CE010000 		.4byte	0x1ce
 1009 01c7 08       		.uleb128 0x8
 1010 01c8 68000000 		.4byte	0x68
 1011 01cc 07       		.byte	0x7
 1012 01cd 00       		.byte	0
 1013 01ce 0E       		.uleb128 0xe
 1014 01cf 01       		.byte	0x1
 1015 01d0 45000000 		.4byte	0x45
 1016 01d4 E3010000 		.4byte	0x1e3
 1017 01d8 0F       		.uleb128 0xf
 1018 01d9 45000000 		.4byte	0x45
 1019 01dd 0F       		.uleb128 0xf
 1020 01de E3010000 		.4byte	0x1e3
 1021 01e2 00       		.byte	0
 1022 01e3 05       		.uleb128 0x5
 1023 01e4 04       		.byte	0x4
 1024 01e5 E9010000 		.4byte	0x1e9
 1025 01e9 06       		.uleb128 0x6
 1026 01ea 85000000 		.4byte	0x85
 1027 01ee 05       		.uleb128 0x5
 1028 01ef 04       		.byte	0x4
 1029 01f0 CE010000 		.4byte	0x1ce
 1030 01f4 0E       		.uleb128 0xe
 1031 01f5 01       		.byte	0x1
 1032 01f6 09020000 		.4byte	0x209
 1033 01fa 09020000 		.4byte	0x209
 1034 01fe 0F       		.uleb128 0xf
 1035 01ff 45000000 		.4byte	0x45
 1036 0203 0F       		.uleb128 0xf
 1037 0204 E3010000 		.4byte	0x1e3
 1038 0208 00       		.byte	0
 1039 0209 05       		.uleb128 0x5
 1040 020a 04       		.byte	0x4
 1041 020b 78000000 		.4byte	0x78
 1042 020f 05       		.uleb128 0x5
 1043 0210 04       		.byte	0x4
 1044 0211 F4010000 		.4byte	0x1f4
 1045 0215 10       		.uleb128 0x10
 1046 0216 01       		.byte	0x1
 1047 0217 21020000 		.4byte	0x221
 1048 021b 0F       		.uleb128 0xf
 1049 021c 85000000 		.4byte	0x85
ARM GAS  /var/folders/dt/0wfd0knj7gs46m8vwfzktm600000gn/T//ccadM7KO.s 			page 21


 1050 0220 00       		.byte	0
 1051 0221 05       		.uleb128 0x5
 1052 0222 04       		.byte	0x4
 1053 0223 15020000 		.4byte	0x215
 1054 0227 10       		.uleb128 0x10
 1055 0228 01       		.byte	0x1
 1056 0229 33020000 		.4byte	0x233
 1057 022d 0F       		.uleb128 0xf
 1058 022e 33020000 		.4byte	0x233
 1059 0232 00       		.byte	0
 1060 0233 05       		.uleb128 0x5
 1061 0234 04       		.byte	0x4
 1062 0235 0B010000 		.4byte	0x10b
 1063 0239 05       		.uleb128 0x5
 1064 023a 04       		.byte	0x4
 1065 023b 27020000 		.4byte	0x227
 1066 023f 09       		.uleb128 0x9
 1067 0240 A9010000 		.4byte	.LASF25
 1068 0244 02       		.byte	0x2
 1069 0245 50       		.byte	0x50
 1070 0246 0B010000 		.4byte	0x10b
 1071 024a 09       		.uleb128 0x9
 1072 024b 43050000 		.4byte	.LASF26
 1073 024f 04       		.byte	0x4
 1074 0250 2A       		.byte	0x2a
 1075 0251 30000000 		.4byte	0x30
 1076 0255 09       		.uleb128 0x9
 1077 0256 DA010000 		.4byte	.LASF27
 1078 025a 04       		.byte	0x4
 1079 025b 36       		.byte	0x36
 1080 025c 3E000000 		.4byte	0x3e
 1081 0260 09       		.uleb128 0x9
 1082 0261 B2030000 		.4byte	.LASF28
 1083 0265 04       		.byte	0x4
 1084 0266 4F       		.byte	0x4f
 1085 0267 61000000 		.4byte	0x61
 1086 026b 09       		.uleb128 0x9
 1087 026c 42040000 		.4byte	.LASF29
 1088 0270 04       		.byte	0x4
 1089 0271 50       		.byte	0x50
 1090 0272 71000000 		.4byte	0x71
 1091 0276 09       		.uleb128 0x9
 1092 0277 07000000 		.4byte	.LASF30
 1093 027b 04       		.byte	0x4
 1094 027c 78       		.byte	0x78
 1095 027d 5A000000 		.4byte	0x5a
 1096 0281 09       		.uleb128 0x9
 1097 0282 4E000000 		.4byte	.LASF31
 1098 0286 04       		.byte	0x4
 1099 0287 A6       		.byte	0xa6
 1100 0288 4C000000 		.4byte	0x4c
 1101 028c 09       		.uleb128 0x9
 1102 028d E6000000 		.4byte	.LASF32
 1103 0291 05       		.byte	0x5
 1104 0292 2E       		.byte	0x2e
 1105 0293 60020000 		.4byte	0x260
 1106 0297 09       		.uleb128 0x9
ARM GAS  /var/folders/dt/0wfd0knj7gs46m8vwfzktm600000gn/T//ccadM7KO.s 			page 22


 1107 0298 61020000 		.4byte	.LASF33
 1108 029c 05       		.byte	0x5
 1109 029d 2F       		.byte	0x2f
 1110 029e 4A020000 		.4byte	0x24a
 1111 02a2 09       		.uleb128 0x9
 1112 02a3 0F010000 		.4byte	.LASF34
 1113 02a7 05       		.byte	0x5
 1114 02a8 30       		.byte	0x30
 1115 02a9 4A020000 		.4byte	0x24a
 1116 02ad 09       		.uleb128 0x9
 1117 02ae 4F030000 		.4byte	.LASF35
 1118 02b2 05       		.byte	0x5
 1119 02b3 31       		.byte	0x31
 1120 02b4 4A020000 		.4byte	0x24a
 1121 02b8 09       		.uleb128 0x9
 1122 02b9 A2030000 		.4byte	.LASF36
 1123 02bd 05       		.byte	0x5
 1124 02be 32       		.byte	0x32
 1125 02bf 6B020000 		.4byte	0x26b
 1126 02c3 09       		.uleb128 0x9
 1127 02c4 3F020000 		.4byte	.LASF37
 1128 02c8 05       		.byte	0x5
 1129 02c9 33       		.byte	0x33
 1130 02ca 60020000 		.4byte	0x260
 1131 02ce 09       		.uleb128 0x9
 1132 02cf 75020000 		.4byte	.LASF38
 1133 02d3 05       		.byte	0x5
 1134 02d4 35       		.byte	0x35
 1135 02d5 6B020000 		.4byte	0x26b
 1136 02d9 09       		.uleb128 0x9
 1137 02da 85040000 		.4byte	.LASF39
 1138 02de 05       		.byte	0x5
 1139 02df 36       		.byte	0x36
 1140 02e0 6B020000 		.4byte	0x26b
 1141 02e4 09       		.uleb128 0x9
 1142 02e5 2D050000 		.4byte	.LASF40
 1143 02e9 06       		.byte	0x6
 1144 02ea 2A       		.byte	0x2a
 1145 02eb EF020000 		.4byte	0x2ef
 1146 02ef 11       		.uleb128 0x11
 1147 02f0 2D050000 		.4byte	.LASF40
 1148 02f4 4C       		.byte	0x4c
 1149 02f5 07       		.byte	0x7
 1150 02f6 5E       		.byte	0x5e
 1151 02f7 14040000 		.4byte	0x414
 1152 02fb 0B       		.uleb128 0xb
 1153 02fc F7030000 		.4byte	.LASF41
 1154 0300 07       		.byte	0x7
 1155 0301 5F       		.byte	0x5f
 1156 0302 39040000 		.4byte	0x439
 1157 0306 02       		.byte	0x2
 1158 0307 23       		.byte	0x23
 1159 0308 00       		.uleb128 0
 1160 0309 0B       		.uleb128 0xb
 1161 030a 89030000 		.4byte	.LASF42
 1162 030e 07       		.byte	0x7
 1163 030f 61       		.byte	0x61
ARM GAS  /var/folders/dt/0wfd0knj7gs46m8vwfzktm600000gn/T//ccadM7KO.s 			page 23


 1164 0310 39040000 		.4byte	0x439
 1165 0314 02       		.byte	0x2
 1166 0315 23       		.byte	0x23
 1167 0316 04       		.uleb128 0x4
 1168 0317 0B       		.uleb128 0xb
 1169 0318 A8000000 		.4byte	.LASF43
 1170 031c 07       		.byte	0x7
 1171 031d 63       		.byte	0x63
 1172 031e B8020000 		.4byte	0x2b8
 1173 0322 02       		.byte	0x2
 1174 0323 23       		.byte	0x23
 1175 0324 08       		.uleb128 0x8
 1176 0325 0B       		.uleb128 0xb
 1177 0326 B7050000 		.4byte	.LASF44
 1178 032a 07       		.byte	0x7
 1179 032b 64       		.byte	0x64
 1180 032c 0F050000 		.4byte	0x50f
 1181 0330 02       		.byte	0x2
 1182 0331 23       		.byte	0x23
 1183 0332 0C       		.uleb128 0xc
 1184 0333 0B       		.uleb128 0xb
 1185 0334 50010000 		.4byte	.LASF45
 1186 0338 07       		.byte	0x7
 1187 0339 66       		.byte	0x66
 1188 033a 39040000 		.4byte	0x439
 1189 033e 02       		.byte	0x2
 1190 033f 23       		.byte	0x23
 1191 0340 10       		.uleb128 0x10
 1192 0341 0B       		.uleb128 0xb
 1193 0342 E7020000 		.4byte	.LASF46
 1194 0346 07       		.byte	0x7
 1195 0347 67       		.byte	0x67
 1196 0348 39040000 		.4byte	0x439
 1197 034c 02       		.byte	0x2
 1198 034d 23       		.byte	0x23
 1199 034e 14       		.uleb128 0x14
 1200 034f 0B       		.uleb128 0xb
 1201 0350 A6040000 		.4byte	.LASF47
 1202 0354 07       		.byte	0x7
 1203 0355 6E       		.byte	0x6e
 1204 0356 85000000 		.4byte	0x85
 1205 035a 02       		.byte	0x2
 1206 035b 23       		.byte	0x23
 1207 035c 18       		.uleb128 0x18
 1208 035d 0B       		.uleb128 0xb
 1209 035e 06030000 		.4byte	.LASF48
 1210 0362 07       		.byte	0x7
 1211 0363 74       		.byte	0x74
 1212 0364 22060000 		.4byte	0x622
 1213 0368 02       		.byte	0x2
 1214 0369 23       		.byte	0x23
 1215 036a 1C       		.uleb128 0x1c
 1216 036b 0B       		.uleb128 0xb
 1217 036c E8030000 		.4byte	.LASF49
 1218 0370 07       		.byte	0x7
 1219 0371 79       		.byte	0x79
 1220 0372 A2020000 		.4byte	0x2a2
ARM GAS  /var/folders/dt/0wfd0knj7gs46m8vwfzktm600000gn/T//ccadM7KO.s 			page 24


 1221 0376 02       		.byte	0x2
 1222 0377 23       		.byte	0x23
 1223 0378 20       		.uleb128 0x20
 1224 0379 0B       		.uleb128 0xb
 1225 037a FE030000 		.4byte	.LASF50
 1226 037e 07       		.byte	0x7
 1227 037f 7D       		.byte	0x7d
 1228 0380 97020000 		.4byte	0x297
 1229 0384 02       		.byte	0x2
 1230 0385 23       		.byte	0x23
 1231 0386 21       		.uleb128 0x21
 1232 0387 0B       		.uleb128 0xb
 1233 0388 1F010000 		.4byte	.LASF51
 1234 038c 07       		.byte	0x7
 1235 038d 82       		.byte	0x82
 1236 038e AD020000 		.4byte	0x2ad
 1237 0392 02       		.byte	0x2
 1238 0393 23       		.byte	0x23
 1239 0394 22       		.uleb128 0x22
 1240 0395 0B       		.uleb128 0xb
 1241 0396 F3010000 		.4byte	.LASF52
 1242 039a 07       		.byte	0x7
 1243 039b 89       		.byte	0x89
 1244 039c 32050000 		.4byte	0x532
 1245 03a0 02       		.byte	0x2
 1246 03a1 23       		.byte	0x23
 1247 03a2 24       		.uleb128 0x24
 1248 03a3 0C       		.uleb128 0xc
 1249 03a4 705F7500 		.ascii	"p_u\000"
 1250 03a8 07       		.byte	0x7
 1251 03a9 AE       		.byte	0xae
 1252 03aa ED050000 		.4byte	0x5ed
 1253 03ae 02       		.byte	0x2
 1254 03af 23       		.byte	0x23
 1255 03b0 28       		.uleb128 0x28
 1256 03b1 0B       		.uleb128 0xb
 1257 03b2 BD050000 		.4byte	.LASF53
 1258 03b6 07       		.byte	0x7
 1259 03b7 B3       		.byte	0xb3
 1260 03b8 61040000 		.4byte	0x461
 1261 03bc 02       		.byte	0x2
 1262 03bd 23       		.byte	0x23
 1263 03be 2C       		.uleb128 0x2c
 1264 03bf 0B       		.uleb128 0xb
 1265 03c0 08020000 		.4byte	.LASF54
 1266 03c4 07       		.byte	0x7
 1267 03c5 B9       		.byte	0xb9
 1268 03c6 3F040000 		.4byte	0x43f
 1269 03ca 02       		.byte	0x2
 1270 03cb 23       		.byte	0x23
 1271 03cc 30       		.uleb128 0x30
 1272 03cd 0B       		.uleb128 0xb
 1273 03ce 3D050000 		.4byte	.LASF55
 1274 03d2 07       		.byte	0x7
 1275 03d3 BD       		.byte	0xbd
 1276 03d4 C3020000 		.4byte	0x2c3
 1277 03d8 02       		.byte	0x2
ARM GAS  /var/folders/dt/0wfd0knj7gs46m8vwfzktm600000gn/T//ccadM7KO.s 			page 25


 1278 03d9 23       		.byte	0x23
 1279 03da 38       		.uleb128 0x38
 1280 03db 0B       		.uleb128 0xb
 1281 03dc 23040000 		.4byte	.LASF56
 1282 03e0 07       		.byte	0x7
 1283 03e1 C3       		.byte	0xc3
 1284 03e2 CE020000 		.4byte	0x2ce
 1285 03e6 02       		.byte	0x2
 1286 03e7 23       		.byte	0x23
 1287 03e8 3C       		.uleb128 0x3c
 1288 03e9 0B       		.uleb128 0xb
 1289 03ea D4030000 		.4byte	.LASF57
 1290 03ee 07       		.byte	0x7
 1291 03ef CA       		.byte	0xca
 1292 03f0 28060000 		.4byte	0x628
 1293 03f4 02       		.byte	0x2
 1294 03f5 23       		.byte	0x23
 1295 03f6 40       		.uleb128 0x40
 1296 03f7 0B       		.uleb128 0xb
 1297 03f8 8F040000 		.4byte	.LASF58
 1298 03fc 07       		.byte	0x7
 1299 03fd CE       		.byte	0xce
 1300 03fe B8020000 		.4byte	0x2b8
 1301 0402 02       		.byte	0x2
 1302 0403 23       		.byte	0x23
 1303 0404 44       		.uleb128 0x44
 1304 0405 0B       		.uleb128 0xb
 1305 0406 DE000000 		.4byte	.LASF59
 1306 040a 07       		.byte	0x7
 1307 040b D4       		.byte	0xd4
 1308 040c 6F000000 		.4byte	0x6f
 1309 0410 02       		.byte	0x2
 1310 0411 23       		.byte	0x23
 1311 0412 48       		.uleb128 0x48
 1312 0413 00       		.byte	0
 1313 0414 12       		.uleb128 0x12
 1314 0415 08       		.byte	0x8
 1315 0416 06       		.byte	0x6
 1316 0417 61       		.byte	0x61
 1317 0418 39040000 		.4byte	0x439
 1318 041c 0B       		.uleb128 0xb
 1319 041d F7030000 		.4byte	.LASF41
 1320 0421 06       		.byte	0x6
 1321 0422 62       		.byte	0x62
 1322 0423 39040000 		.4byte	0x439
 1323 0427 02       		.byte	0x2
 1324 0428 23       		.byte	0x23
 1325 0429 00       		.uleb128 0
 1326 042a 0B       		.uleb128 0xb
 1327 042b 89030000 		.4byte	.LASF42
 1328 042f 06       		.byte	0x6
 1329 0430 64       		.byte	0x64
 1330 0431 39040000 		.4byte	0x439
 1331 0435 02       		.byte	0x2
 1332 0436 23       		.byte	0x23
 1333 0437 04       		.uleb128 0x4
 1334 0438 00       		.byte	0
ARM GAS  /var/folders/dt/0wfd0knj7gs46m8vwfzktm600000gn/T//ccadM7KO.s 			page 26


 1335 0439 05       		.uleb128 0x5
 1336 043a 04       		.byte	0x4
 1337 043b E4020000 		.4byte	0x2e4
 1338 043f 09       		.uleb128 0x9
 1339 0440 F9020000 		.4byte	.LASF60
 1340 0444 06       		.byte	0x6
 1341 0445 66       		.byte	0x66
 1342 0446 14040000 		.4byte	0x414
 1343 044a 12       		.uleb128 0x12
 1344 044b 04       		.byte	0x4
 1345 044c 06       		.byte	0x6
 1346 044d 6B       		.byte	0x6b
 1347 044e 61040000 		.4byte	0x461
 1348 0452 0B       		.uleb128 0xb
 1349 0453 F7030000 		.4byte	.LASF41
 1350 0457 06       		.byte	0x6
 1351 0458 6D       		.byte	0x6d
 1352 0459 39040000 		.4byte	0x439
 1353 045d 02       		.byte	0x2
 1354 045e 23       		.byte	0x23
 1355 045f 00       		.uleb128 0
 1356 0460 00       		.byte	0
 1357 0461 09       		.uleb128 0x9
 1358 0462 69020000 		.4byte	.LASF61
 1359 0466 06       		.byte	0x6
 1360 0467 70       		.byte	0x70
 1361 0468 4A040000 		.4byte	0x44a
 1362 046c 09       		.uleb128 0x9
 1363 046d 84010000 		.4byte	.LASF62
 1364 0471 08       		.byte	0x8
 1365 0472 D7       		.byte	0xd7
 1366 0473 6F000000 		.4byte	0x6f
 1367 0477 09       		.uleb128 0x9
 1368 0478 AB020000 		.4byte	.LASF63
 1369 047c 08       		.byte	0x8
 1370 047d DD       		.byte	0xdd
 1371 047e 76020000 		.4byte	0x276
 1372 0482 11       		.uleb128 0x11
 1373 0483 EC040000 		.4byte	.LASF64
 1374 0487 24       		.byte	0x24
 1375 0488 08       		.byte	0x8
 1376 0489 FE       		.byte	0xfe
 1377 048a 0F050000 		.4byte	0x50f
 1378 048e 13       		.uleb128 0x13
 1379 048f 723400   		.ascii	"r4\000"
 1380 0492 08       		.byte	0x8
 1381 0493 1101     		.2byte	0x111
 1382 0495 6C040000 		.4byte	0x46c
 1383 0499 02       		.byte	0x2
 1384 049a 23       		.byte	0x23
 1385 049b 00       		.uleb128 0
 1386 049c 13       		.uleb128 0x13
 1387 049d 723500   		.ascii	"r5\000"
 1388 04a0 08       		.byte	0x8
 1389 04a1 1201     		.2byte	0x112
 1390 04a3 6C040000 		.4byte	0x46c
 1391 04a7 02       		.byte	0x2
ARM GAS  /var/folders/dt/0wfd0knj7gs46m8vwfzktm600000gn/T//ccadM7KO.s 			page 27


 1392 04a8 23       		.byte	0x23
 1393 04a9 04       		.uleb128 0x4
 1394 04aa 13       		.uleb128 0x13
 1395 04ab 723600   		.ascii	"r6\000"
 1396 04ae 08       		.byte	0x8
 1397 04af 1301     		.2byte	0x113
 1398 04b1 6C040000 		.4byte	0x46c
 1399 04b5 02       		.byte	0x2
 1400 04b6 23       		.byte	0x23
 1401 04b7 08       		.uleb128 0x8
 1402 04b8 13       		.uleb128 0x13
 1403 04b9 723700   		.ascii	"r7\000"
 1404 04bc 08       		.byte	0x8
 1405 04bd 1401     		.2byte	0x114
 1406 04bf 6C040000 		.4byte	0x46c
 1407 04c3 02       		.byte	0x2
 1408 04c4 23       		.byte	0x23
 1409 04c5 0C       		.uleb128 0xc
 1410 04c6 13       		.uleb128 0x13
 1411 04c7 723800   		.ascii	"r8\000"
 1412 04ca 08       		.byte	0x8
 1413 04cb 1501     		.2byte	0x115
 1414 04cd 6C040000 		.4byte	0x46c
 1415 04d1 02       		.byte	0x2
 1416 04d2 23       		.byte	0x23
 1417 04d3 10       		.uleb128 0x10
 1418 04d4 13       		.uleb128 0x13
 1419 04d5 723900   		.ascii	"r9\000"
 1420 04d8 08       		.byte	0x8
 1421 04d9 1601     		.2byte	0x116
 1422 04db 6C040000 		.4byte	0x46c
 1423 04df 02       		.byte	0x2
 1424 04e0 23       		.byte	0x23
 1425 04e1 14       		.uleb128 0x14
 1426 04e2 13       		.uleb128 0x13
 1427 04e3 72313000 		.ascii	"r10\000"
 1428 04e7 08       		.byte	0x8
 1429 04e8 1701     		.2byte	0x117
 1430 04ea 6C040000 		.4byte	0x46c
 1431 04ee 02       		.byte	0x2
 1432 04ef 23       		.byte	0x23
 1433 04f0 18       		.uleb128 0x18
 1434 04f1 13       		.uleb128 0x13
 1435 04f2 72313100 		.ascii	"r11\000"
 1436 04f6 08       		.byte	0x8
 1437 04f7 1801     		.2byte	0x118
 1438 04f9 6C040000 		.4byte	0x46c
 1439 04fd 02       		.byte	0x2
 1440 04fe 23       		.byte	0x23
 1441 04ff 1C       		.uleb128 0x1c
 1442 0500 13       		.uleb128 0x13
 1443 0501 6C7200   		.ascii	"lr\000"
 1444 0504 08       		.byte	0x8
 1445 0505 1901     		.2byte	0x119
 1446 0507 6C040000 		.4byte	0x46c
 1447 050b 02       		.byte	0x2
 1448 050c 23       		.byte	0x23
ARM GAS  /var/folders/dt/0wfd0knj7gs46m8vwfzktm600000gn/T//ccadM7KO.s 			page 28


 1449 050d 20       		.uleb128 0x20
 1450 050e 00       		.byte	0
 1451 050f 14       		.uleb128 0x14
 1452 0510 E4040000 		.4byte	.LASF65
 1453 0514 04       		.byte	0x4
 1454 0515 08       		.byte	0x8
 1455 0516 2301     		.2byte	0x123
 1456 0518 2C050000 		.4byte	0x52c
 1457 051c 13       		.uleb128 0x13
 1458 051d 72313300 		.ascii	"r13\000"
 1459 0521 08       		.byte	0x8
 1460 0522 2401     		.2byte	0x124
 1461 0524 2C050000 		.4byte	0x52c
 1462 0528 02       		.byte	0x2
 1463 0529 23       		.byte	0x23
 1464 052a 00       		.uleb128 0
 1465 052b 00       		.byte	0
 1466 052c 05       		.uleb128 0x5
 1467 052d 04       		.byte	0x4
 1468 052e 82040000 		.4byte	0x482
 1469 0532 15       		.uleb128 0x15
 1470 0533 D9020000 		.4byte	0x2d9
 1471 0537 11       		.uleb128 0x11
 1472 0538 D8020000 		.4byte	.LASF66
 1473 053c 10       		.byte	0x10
 1474 053d 09       		.byte	0x9
 1475 053e 2C       		.byte	0x2c
 1476 053f 6E050000 		.4byte	0x56e
 1477 0543 0B       		.uleb128 0xb
 1478 0544 ED000000 		.4byte	.LASF67
 1479 0548 09       		.byte	0x9
 1480 0549 2D       		.byte	0x2d
 1481 054a 3F040000 		.4byte	0x43f
 1482 054e 02       		.byte	0x2
 1483 054f 23       		.byte	0x23
 1484 0550 00       		.uleb128 0
 1485 0551 0B       		.uleb128 0xb
 1486 0552 AF050000 		.4byte	.LASF68
 1487 0556 09       		.byte	0x9
 1488 0557 2F       		.byte	0x2f
 1489 0558 39040000 		.4byte	0x439
 1490 055c 02       		.byte	0x2
 1491 055d 23       		.byte	0x23
 1492 055e 08       		.uleb128 0x8
 1493 055f 0B       		.uleb128 0xb
 1494 0560 7E040000 		.4byte	.LASF69
 1495 0564 09       		.byte	0x9
 1496 0565 31       		.byte	0x31
 1497 0566 6E050000 		.4byte	0x56e
 1498 056a 02       		.byte	0x2
 1499 056b 23       		.byte	0x23
 1500 056c 0C       		.uleb128 0xc
 1501 056d 00       		.byte	0
 1502 056e 05       		.uleb128 0x5
 1503 056f 04       		.byte	0x4
 1504 0570 37050000 		.4byte	0x537
 1505 0574 09       		.uleb128 0x9
ARM GAS  /var/folders/dt/0wfd0knj7gs46m8vwfzktm600000gn/T//ccadM7KO.s 			page 29


 1506 0575 D8020000 		.4byte	.LASF66
 1507 0579 09       		.byte	0x9
 1508 057a 33       		.byte	0x33
 1509 057b 37050000 		.4byte	0x537
 1510 057f 09       		.uleb128 0x9
 1511 0580 73050000 		.4byte	.LASF70
 1512 0584 0A       		.byte	0xa
 1513 0585 29       		.byte	0x29
 1514 0586 8A050000 		.4byte	0x58a
 1515 058a 11       		.uleb128 0x11
 1516 058b 73050000 		.4byte	.LASF70
 1517 058f 0C       		.byte	0xc
 1518 0590 0A       		.byte	0xa
 1519 0591 2E       		.byte	0x2e
 1520 0592 C1050000 		.4byte	0x5c1
 1521 0596 0B       		.uleb128 0xb
 1522 0597 06040000 		.4byte	.LASF71
 1523 059b 0A       		.byte	0xa
 1524 059c 2F       		.byte	0x2f
 1525 059d C1050000 		.4byte	0x5c1
 1526 05a1 02       		.byte	0x2
 1527 05a2 23       		.byte	0x23
 1528 05a3 00       		.uleb128 0
 1529 05a4 0B       		.uleb128 0xb
 1530 05a5 C8030000 		.4byte	.LASF72
 1531 05a9 0A       		.byte	0xa
 1532 05aa 32       		.byte	0x32
 1533 05ab 39040000 		.4byte	0x439
 1534 05af 02       		.byte	0x2
 1535 05b0 23       		.byte	0x23
 1536 05b1 04       		.uleb128 0x4
 1537 05b2 0B       		.uleb128 0xb
 1538 05b3 24030000 		.4byte	.LASF73
 1539 05b7 0A       		.byte	0xa
 1540 05b8 34       		.byte	0x34
 1541 05b9 CE020000 		.4byte	0x2ce
 1542 05bd 02       		.byte	0x2
 1543 05be 23       		.byte	0x23
 1544 05bf 08       		.uleb128 0x8
 1545 05c0 00       		.byte	0
 1546 05c1 05       		.uleb128 0x5
 1547 05c2 04       		.byte	0x4
 1548 05c3 7F050000 		.4byte	0x57f
 1549 05c7 11       		.uleb128 0x11
 1550 05c8 B3010000 		.4byte	.LASF74
 1551 05cc 04       		.byte	0x4
 1552 05cd 0A       		.byte	0xa
 1553 05ce 3C       		.byte	0x3c
 1554 05cf E2050000 		.4byte	0x5e2
 1555 05d3 0B       		.uleb128 0xb
 1556 05d4 25050000 		.4byte	.LASF75
 1557 05d8 0A       		.byte	0xa
 1558 05d9 3D       		.byte	0x3d
 1559 05da C1050000 		.4byte	0x5c1
 1560 05de 02       		.byte	0x2
 1561 05df 23       		.byte	0x23
 1562 05e0 00       		.uleb128 0
ARM GAS  /var/folders/dt/0wfd0knj7gs46m8vwfzktm600000gn/T//ccadM7KO.s 			page 30


 1563 05e1 00       		.byte	0
 1564 05e2 09       		.uleb128 0x9
 1565 05e3 B3010000 		.4byte	.LASF74
 1566 05e7 0A       		.byte	0xa
 1567 05e8 40       		.byte	0x40
 1568 05e9 C7050000 		.4byte	0x5c7
 1569 05ed 16       		.uleb128 0x16
 1570 05ee 04       		.byte	0x4
 1571 05ef 07       		.byte	0x7
 1572 05f0 90       		.byte	0x90
 1573 05f1 22060000 		.4byte	0x622
 1574 05f5 17       		.uleb128 0x17
 1575 05f6 1E050000 		.4byte	.LASF76
 1576 05fa 07       		.byte	0x7
 1577 05fb 97       		.byte	0x97
 1578 05fc C3020000 		.4byte	0x2c3
 1579 0600 17       		.uleb128 0x17
 1580 0601 82000000 		.4byte	.LASF77
 1581 0605 07       		.byte	0x7
 1582 0606 9E       		.byte	0x9e
 1583 0607 C3020000 		.4byte	0x2c3
 1584 060b 17       		.uleb128 0x17
 1585 060c 81050000 		.4byte	.LASF78
 1586 0610 07       		.byte	0x7
 1587 0611 A5       		.byte	0xa5
 1588 0612 6F000000 		.4byte	0x6f
 1589 0616 17       		.uleb128 0x17
 1590 0617 F0030000 		.4byte	.LASF79
 1591 061b 07       		.byte	0x7
 1592 061c AC       		.byte	0xac
 1593 061d CE020000 		.4byte	0x2ce
 1594 0621 00       		.byte	0
 1595 0622 05       		.uleb128 0x5
 1596 0623 04       		.byte	0x4
 1597 0624 77040000 		.4byte	0x477
 1598 0628 05       		.uleb128 0x5
 1599 0629 04       		.byte	0x4
 1600 062a 74050000 		.4byte	0x574
 1601 062e 09       		.uleb128 0x9
 1602 062f 97020000 		.4byte	.LASF80
 1603 0633 0B       		.byte	0xb
 1604 0634 37       		.byte	0x37
 1605 0635 39060000 		.4byte	0x639
 1606 0639 11       		.uleb128 0x11
 1607 063a 97020000 		.4byte	.LASF80
 1608 063e 20       		.byte	0x20
 1609 063f 0B       		.byte	0xb
 1610 0640 45       		.byte	0x45
 1611 0641 A8060000 		.4byte	0x6a8
 1612 0645 0B       		.uleb128 0xb
 1613 0646 B5000000 		.4byte	.LASF81
 1614 064a 0B       		.byte	0xb
 1615 064b 46       		.byte	0x46
 1616 064c 3F040000 		.4byte	0x43f
 1617 0650 02       		.byte	0x2
 1618 0651 23       		.byte	0x23
 1619 0652 00       		.uleb128 0
ARM GAS  /var/folders/dt/0wfd0knj7gs46m8vwfzktm600000gn/T//ccadM7KO.s 			page 31


 1620 0653 0B       		.uleb128 0xb
 1621 0654 CE020000 		.4byte	.LASF82
 1622 0658 0B       		.byte	0xb
 1623 0659 47       		.byte	0x47
 1624 065a A0000000 		.4byte	0xa0
 1625 065e 02       		.byte	0x2
 1626 065f 23       		.byte	0x23
 1627 0660 08       		.uleb128 0x8
 1628 0661 0B       		.uleb128 0xb
 1629 0662 26010000 		.4byte	.LASF83
 1630 0666 0B       		.byte	0xb
 1631 0667 48       		.byte	0x48
 1632 0668 CB060000 		.4byte	0x6cb
 1633 066c 02       		.byte	0x2
 1634 066d 23       		.byte	0x23
 1635 066e 0C       		.uleb128 0xc
 1636 066f 0B       		.uleb128 0xb
 1637 0670 18050000 		.4byte	.LASF84
 1638 0674 0B       		.byte	0xb
 1639 0675 49       		.byte	0x49
 1640 0676 CB060000 		.4byte	0x6cb
 1641 067a 02       		.byte	0x2
 1642 067b 23       		.byte	0x23
 1643 067c 10       		.uleb128 0x10
 1644 067d 0B       		.uleb128 0xb
 1645 067e 2F010000 		.4byte	.LASF85
 1646 0682 0B       		.byte	0xb
 1647 0683 4B       		.byte	0x4b
 1648 0684 CB060000 		.4byte	0x6cb
 1649 0688 02       		.byte	0x2
 1650 0689 23       		.byte	0x23
 1651 068a 14       		.uleb128 0x14
 1652 068b 0B       		.uleb128 0xb
 1653 068c AA030000 		.4byte	.LASF86
 1654 0690 0B       		.byte	0xb
 1655 0691 4C       		.byte	0x4c
 1656 0692 CB060000 		.4byte	0x6cb
 1657 0696 02       		.byte	0x2
 1658 0697 23       		.byte	0x23
 1659 0698 18       		.uleb128 0x18
 1660 0699 0B       		.uleb128 0xb
 1661 069a 34050000 		.4byte	.LASF87
 1662 069e 0B       		.byte	0xb
 1663 069f 4D       		.byte	0x4d
 1664 06a0 A8060000 		.4byte	0x6a8
 1665 06a4 02       		.byte	0x2
 1666 06a5 23       		.byte	0x23
 1667 06a6 1C       		.uleb128 0x1c
 1668 06a7 00       		.byte	0
 1669 06a8 09       		.uleb128 0x9
 1670 06a9 81020000 		.4byte	.LASF88
 1671 06ad 0B       		.byte	0xb
 1672 06ae 3A       		.byte	0x3a
 1673 06af B3060000 		.4byte	0x6b3
 1674 06b3 05       		.uleb128 0x5
 1675 06b4 04       		.byte	0x4
 1676 06b5 B9060000 		.4byte	0x6b9
ARM GAS  /var/folders/dt/0wfd0knj7gs46m8vwfzktm600000gn/T//ccadM7KO.s 			page 32


 1677 06b9 10       		.uleb128 0x10
 1678 06ba 01       		.byte	0x1
 1679 06bb C5060000 		.4byte	0x6c5
 1680 06bf 0F       		.uleb128 0xf
 1681 06c0 C5060000 		.4byte	0x6c5
 1682 06c4 00       		.byte	0
 1683 06c5 05       		.uleb128 0x5
 1684 06c6 04       		.byte	0x4
 1685 06c7 2E060000 		.4byte	0x62e
 1686 06cb 05       		.uleb128 0x5
 1687 06cc 04       		.byte	0x4
 1688 06cd 4A020000 		.4byte	0x24a
 1689 06d1 09       		.uleb128 0x9
 1690 06d2 4B050000 		.4byte	.LASF89
 1691 06d6 0B       		.byte	0xb
 1692 06d7 76       		.byte	0x76
 1693 06d8 2E060000 		.4byte	0x62e
 1694 06dc 09       		.uleb128 0x9
 1695 06dd 1E000000 		.4byte	.LASF90
 1696 06e1 0B       		.byte	0xb
 1697 06e2 E6       		.byte	0xe6
 1698 06e3 2E060000 		.4byte	0x62e
 1699 06e7 0E       		.uleb128 0xe
 1700 06e8 01       		.byte	0x1
 1701 06e9 A0000000 		.4byte	0xa0
 1702 06ed 01070000 		.4byte	0x701
 1703 06f1 0F       		.uleb128 0xf
 1704 06f2 6F000000 		.4byte	0x6f
 1705 06f6 0F       		.uleb128 0xf
 1706 06f7 01070000 		.4byte	0x701
 1707 06fb 0F       		.uleb128 0xf
 1708 06fc A0000000 		.4byte	0xa0
 1709 0700 00       		.byte	0
 1710 0701 05       		.uleb128 0x5
 1711 0702 04       		.byte	0x4
 1712 0703 07070000 		.4byte	0x707
 1713 0707 06       		.uleb128 0x6
 1714 0708 4A020000 		.4byte	0x24a
 1715 070c 05       		.uleb128 0x5
 1716 070d 04       		.byte	0x4
 1717 070e E7060000 		.4byte	0x6e7
 1718 0712 0E       		.uleb128 0xe
 1719 0713 01       		.byte	0x1
 1720 0714 A0000000 		.4byte	0xa0
 1721 0718 2C070000 		.4byte	0x72c
 1722 071c 0F       		.uleb128 0xf
 1723 071d 6F000000 		.4byte	0x6f
 1724 0721 0F       		.uleb128 0xf
 1725 0722 CB060000 		.4byte	0x6cb
 1726 0726 0F       		.uleb128 0xf
 1727 0727 A0000000 		.4byte	0xa0
 1728 072b 00       		.byte	0
 1729 072c 05       		.uleb128 0x5
 1730 072d 04       		.byte	0x4
 1731 072e 12070000 		.4byte	0x712
 1732 0732 11       		.uleb128 0x11
 1733 0733 73000000 		.4byte	.LASF91
ARM GAS  /var/folders/dt/0wfd0knj7gs46m8vwfzktm600000gn/T//ccadM7KO.s 			page 33


 1734 0737 20       		.byte	0x20
 1735 0738 0C       		.byte	0xc
 1736 0739 51       		.byte	0x51
 1737 073a AF070000 		.4byte	0x7af
 1738 073e 0B       		.uleb128 0xb
 1739 073f BF020000 		.4byte	.LASF92
 1740 0743 0C       		.byte	0xc
 1741 0744 52       		.byte	0x52
 1742 0745 0C070000 		.4byte	0x70c
 1743 0749 02       		.byte	0x2
 1744 074a 23       		.byte	0x23
 1745 074b 00       		.uleb128 0
 1746 074c 0B       		.uleb128 0xb
 1747 074d 74040000 		.4byte	.LASF93
 1748 0751 0C       		.byte	0xc
 1749 0752 52       		.byte	0x52
 1750 0753 2C070000 		.4byte	0x72c
 1751 0757 02       		.byte	0x2
 1752 0758 23       		.byte	0x23
 1753 0759 04       		.uleb128 0x4
 1754 075a 0B       		.uleb128 0xb
 1755 075b 58010000 		.4byte	.LASF94
 1756 075f 0C       		.byte	0xc
 1757 0760 52       		.byte	0x52
 1758 0761 BF070000 		.4byte	0x7bf
 1759 0765 02       		.byte	0x2
 1760 0766 23       		.byte	0x23
 1761 0767 08       		.uleb128 0x8
 1762 0768 0B       		.uleb128 0xb
 1763 0769 96050000 		.4byte	.LASF95
 1764 076d 0C       		.byte	0xc
 1765 076e 52       		.byte	0x52
 1766 076f BF070000 		.4byte	0x7bf
 1767 0773 02       		.byte	0x2
 1768 0774 23       		.byte	0x23
 1769 0775 0C       		.uleb128 0xc
 1770 0776 0C       		.uleb128 0xc
 1771 0777 70757400 		.ascii	"put\000"
 1772 077b 0C       		.byte	0xc
 1773 077c 52       		.byte	0x52
 1774 077d DF070000 		.4byte	0x7df
 1775 0781 02       		.byte	0x2
 1776 0782 23       		.byte	0x23
 1777 0783 10       		.uleb128 0x10
 1778 0784 0C       		.uleb128 0xc
 1779 0785 67657400 		.ascii	"get\000"
 1780 0789 0C       		.byte	0xc
 1781 078a 52       		.byte	0x52
 1782 078b FA070000 		.4byte	0x7fa
 1783 078f 02       		.byte	0x2
 1784 0790 23       		.byte	0x23
 1785 0791 14       		.uleb128 0x14
 1786 0792 0B       		.uleb128 0xb
 1787 0793 5A020000 		.4byte	.LASF96
 1788 0797 0C       		.byte	0xc
 1789 0798 52       		.byte	0x52
 1790 0799 1F080000 		.4byte	0x81f
ARM GAS  /var/folders/dt/0wfd0knj7gs46m8vwfzktm600000gn/T//ccadM7KO.s 			page 34


 1791 079d 02       		.byte	0x2
 1792 079e 23       		.byte	0x23
 1793 079f 18       		.uleb128 0x18
 1794 07a0 0B       		.uleb128 0xb
 1795 07a1 AF000000 		.4byte	.LASF97
 1796 07a5 0C       		.byte	0xc
 1797 07a6 52       		.byte	0x52
 1798 07a7 44080000 		.4byte	0x844
 1799 07ab 02       		.byte	0x2
 1800 07ac 23       		.byte	0x23
 1801 07ad 1C       		.uleb128 0x1c
 1802 07ae 00       		.byte	0
 1803 07af 0E       		.uleb128 0xe
 1804 07b0 01       		.byte	0x1
 1805 07b1 8C020000 		.4byte	0x28c
 1806 07b5 BF070000 		.4byte	0x7bf
 1807 07b9 0F       		.uleb128 0xf
 1808 07ba 6F000000 		.4byte	0x6f
 1809 07be 00       		.byte	0
 1810 07bf 05       		.uleb128 0x5
 1811 07c0 04       		.byte	0x4
 1812 07c1 AF070000 		.4byte	0x7af
 1813 07c5 0E       		.uleb128 0xe
 1814 07c6 01       		.byte	0x1
 1815 07c7 C3020000 		.4byte	0x2c3
 1816 07cb DF070000 		.4byte	0x7df
 1817 07cf 0F       		.uleb128 0xf
 1818 07d0 6F000000 		.4byte	0x6f
 1819 07d4 0F       		.uleb128 0xf
 1820 07d5 4A020000 		.4byte	0x24a
 1821 07d9 0F       		.uleb128 0xf
 1822 07da D9020000 		.4byte	0x2d9
 1823 07de 00       		.byte	0
 1824 07df 05       		.uleb128 0x5
 1825 07e0 04       		.byte	0x4
 1826 07e1 C5070000 		.4byte	0x7c5
 1827 07e5 0E       		.uleb128 0xe
 1828 07e6 01       		.byte	0x1
 1829 07e7 C3020000 		.4byte	0x2c3
 1830 07eb FA070000 		.4byte	0x7fa
 1831 07ef 0F       		.uleb128 0xf
 1832 07f0 6F000000 		.4byte	0x6f
 1833 07f4 0F       		.uleb128 0xf
 1834 07f5 D9020000 		.4byte	0x2d9
 1835 07f9 00       		.byte	0
 1836 07fa 05       		.uleb128 0x5
 1837 07fb 04       		.byte	0x4
 1838 07fc E5070000 		.4byte	0x7e5
 1839 0800 0E       		.uleb128 0xe
 1840 0801 01       		.byte	0x1
 1841 0802 A0000000 		.4byte	0xa0
 1842 0806 1F080000 		.4byte	0x81f
 1843 080a 0F       		.uleb128 0xf
 1844 080b 6F000000 		.4byte	0x6f
 1845 080f 0F       		.uleb128 0xf
 1846 0810 01070000 		.4byte	0x701
 1847 0814 0F       		.uleb128 0xf
ARM GAS  /var/folders/dt/0wfd0knj7gs46m8vwfzktm600000gn/T//ccadM7KO.s 			page 35


 1848 0815 A0000000 		.4byte	0xa0
 1849 0819 0F       		.uleb128 0xf
 1850 081a D9020000 		.4byte	0x2d9
 1851 081e 00       		.byte	0
 1852 081f 05       		.uleb128 0x5
 1853 0820 04       		.byte	0x4
 1854 0821 00080000 		.4byte	0x800
 1855 0825 0E       		.uleb128 0xe
 1856 0826 01       		.byte	0x1
 1857 0827 A0000000 		.4byte	0xa0
 1858 082b 44080000 		.4byte	0x844
 1859 082f 0F       		.uleb128 0xf
 1860 0830 6F000000 		.4byte	0x6f
 1861 0834 0F       		.uleb128 0xf
 1862 0835 CB060000 		.4byte	0x6cb
 1863 0839 0F       		.uleb128 0xf
 1864 083a A0000000 		.4byte	0xa0
 1865 083e 0F       		.uleb128 0xf
 1866 083f D9020000 		.4byte	0x2d9
 1867 0843 00       		.byte	0
 1868 0844 05       		.uleb128 0x5
 1869 0845 04       		.byte	0x4
 1870 0846 25080000 		.4byte	0x825
 1871 084a 12       		.uleb128 0x12
 1872 084b 04       		.byte	0x4
 1873 084c 0C       		.byte	0xc
 1874 084d 5C       		.byte	0x5c
 1875 084e 61080000 		.4byte	0x861
 1876 0852 0C       		.uleb128 0xc
 1877 0853 766D7400 		.ascii	"vmt\000"
 1878 0857 0C       		.byte	0xc
 1879 0858 5E       		.byte	0x5e
 1880 0859 61080000 		.4byte	0x861
 1881 085d 02       		.byte	0x2
 1882 085e 23       		.byte	0x23
 1883 085f 00       		.uleb128 0
 1884 0860 00       		.byte	0
 1885 0861 05       		.uleb128 0x5
 1886 0862 04       		.byte	0x4
 1887 0863 67080000 		.4byte	0x867
 1888 0867 06       		.uleb128 0x6
 1889 0868 32070000 		.4byte	0x732
 1890 086c 09       		.uleb128 0x9
 1891 086d 56050000 		.4byte	.LASF98
 1892 0871 0C       		.byte	0xc
 1893 0872 60       		.byte	0x60
 1894 0873 4A080000 		.4byte	0x84a
 1895 0877 18       		.uleb128 0x18
 1896 0878 EF020000 		.4byte	.LASF99
 1897 087c 0C       		.byte	0xc
 1898 087d 0B01     		.2byte	0x10b
 1899 087f 81020000 		.4byte	0x281
 1900 0883 0E       		.uleb128 0xe
 1901 0884 01       		.byte	0x1
 1902 0885 77080000 		.4byte	0x877
 1903 0889 93080000 		.4byte	0x893
 1904 088d 0F       		.uleb128 0xf
ARM GAS  /var/folders/dt/0wfd0knj7gs46m8vwfzktm600000gn/T//ccadM7KO.s 			page 36


 1905 088e 6F000000 		.4byte	0x6f
 1906 0892 00       		.byte	0
 1907 0893 05       		.uleb128 0x5
 1908 0894 04       		.byte	0x4
 1909 0895 83080000 		.4byte	0x883
 1910 0899 15       		.uleb128 0x15
 1911 089a 55020000 		.4byte	0x255
 1912 089e 15       		.uleb128 0x15
 1913 089f 60020000 		.4byte	0x260
 1914 08a3 19       		.uleb128 0x19
 1915 08a4 1C       		.byte	0x1c
 1916 08a5 0D       		.byte	0xd
 1917 08a6 E104     		.2byte	0x4e1
 1918 08a8 7D090000 		.4byte	0x97d
 1919 08ac 13       		.uleb128 0x13
 1920 08ad 535200   		.ascii	"SR\000"
 1921 08b0 0D       		.byte	0xd
 1922 08b1 E304     		.2byte	0x4e3
 1923 08b3 99080000 		.4byte	0x899
 1924 08b7 02       		.byte	0x2
 1925 08b8 23       		.byte	0x23
 1926 08b9 00       		.uleb128 0
 1927 08ba 1A       		.uleb128 0x1a
 1928 08bb 57030000 		.4byte	.LASF100
 1929 08bf 0D       		.byte	0xd
 1930 08c0 E404     		.2byte	0x4e4
 1931 08c2 55020000 		.4byte	0x255
 1932 08c6 02       		.byte	0x2
 1933 08c7 23       		.byte	0x23
 1934 08c8 02       		.uleb128 0x2
 1935 08c9 13       		.uleb128 0x13
 1936 08ca 445200   		.ascii	"DR\000"
 1937 08cd 0D       		.byte	0xd
 1938 08ce E504     		.2byte	0x4e5
 1939 08d0 99080000 		.4byte	0x899
 1940 08d4 02       		.byte	0x2
 1941 08d5 23       		.byte	0x23
 1942 08d6 04       		.uleb128 0x4
 1943 08d7 1A       		.uleb128 0x1a
 1944 08d8 61030000 		.4byte	.LASF101
 1945 08dc 0D       		.byte	0xd
 1946 08dd E604     		.2byte	0x4e6
 1947 08df 55020000 		.4byte	0x255
 1948 08e3 02       		.byte	0x2
 1949 08e4 23       		.byte	0x23
 1950 08e5 06       		.uleb128 0x6
 1951 08e6 13       		.uleb128 0x13
 1952 08e7 42525200 		.ascii	"BRR\000"
 1953 08eb 0D       		.byte	0xd
 1954 08ec E704     		.2byte	0x4e7
 1955 08ee 99080000 		.4byte	0x899
 1956 08f2 02       		.byte	0x2
 1957 08f3 23       		.byte	0x23
 1958 08f4 08       		.uleb128 0x8
 1959 08f5 1A       		.uleb128 0x1a
 1960 08f6 6B030000 		.4byte	.LASF102
 1961 08fa 0D       		.byte	0xd
ARM GAS  /var/folders/dt/0wfd0knj7gs46m8vwfzktm600000gn/T//ccadM7KO.s 			page 37


 1962 08fb E804     		.2byte	0x4e8
 1963 08fd 55020000 		.4byte	0x255
 1964 0901 02       		.byte	0x2
 1965 0902 23       		.byte	0x23
 1966 0903 0A       		.uleb128 0xa
 1967 0904 13       		.uleb128 0x13
 1968 0905 43523100 		.ascii	"CR1\000"
 1969 0909 0D       		.byte	0xd
 1970 090a E904     		.2byte	0x4e9
 1971 090c 99080000 		.4byte	0x899
 1972 0910 02       		.byte	0x2
 1973 0911 23       		.byte	0x23
 1974 0912 0C       		.uleb128 0xc
 1975 0913 1A       		.uleb128 0x1a
 1976 0914 75030000 		.4byte	.LASF103
 1977 0918 0D       		.byte	0xd
 1978 0919 EA04     		.2byte	0x4ea
 1979 091b 55020000 		.4byte	0x255
 1980 091f 02       		.byte	0x2
 1981 0920 23       		.byte	0x23
 1982 0921 0E       		.uleb128 0xe
 1983 0922 13       		.uleb128 0x13
 1984 0923 43523200 		.ascii	"CR2\000"
 1985 0927 0D       		.byte	0xd
 1986 0928 EB04     		.2byte	0x4eb
 1987 092a 99080000 		.4byte	0x899
 1988 092e 02       		.byte	0x2
 1989 092f 23       		.byte	0x23
 1990 0930 10       		.uleb128 0x10
 1991 0931 1A       		.uleb128 0x1a
 1992 0932 7F030000 		.4byte	.LASF104
 1993 0936 0D       		.byte	0xd
 1994 0937 EC04     		.2byte	0x4ec
 1995 0939 55020000 		.4byte	0x255
 1996 093d 02       		.byte	0x2
 1997 093e 23       		.byte	0x23
 1998 093f 12       		.uleb128 0x12
 1999 0940 13       		.uleb128 0x13
 2000 0941 43523300 		.ascii	"CR3\000"
 2001 0945 0D       		.byte	0xd
 2002 0946 ED04     		.2byte	0x4ed
 2003 0948 99080000 		.4byte	0x899
 2004 094c 02       		.byte	0x2
 2005 094d 23       		.byte	0x23
 2006 094e 14       		.uleb128 0x14
 2007 094f 1A       		.uleb128 0x1a
 2008 0950 38040000 		.4byte	.LASF105
 2009 0954 0D       		.byte	0xd
 2010 0955 EE04     		.2byte	0x4ee
 2011 0957 55020000 		.4byte	0x255
 2012 095b 02       		.byte	0x2
 2013 095c 23       		.byte	0x23
 2014 095d 16       		.uleb128 0x16
 2015 095e 1A       		.uleb128 0x1a
 2016 095f D9000000 		.4byte	.LASF106
 2017 0963 0D       		.byte	0xd
 2018 0964 EF04     		.2byte	0x4ef
ARM GAS  /var/folders/dt/0wfd0knj7gs46m8vwfzktm600000gn/T//ccadM7KO.s 			page 38


 2019 0966 99080000 		.4byte	0x899
 2020 096a 02       		.byte	0x2
 2021 096b 23       		.byte	0x23
 2022 096c 18       		.uleb128 0x18
 2023 096d 1A       		.uleb128 0x1a
 2024 096e 90030000 		.4byte	.LASF107
 2025 0972 0D       		.byte	0xd
 2026 0973 F004     		.2byte	0x4f0
 2027 0975 55020000 		.4byte	0x255
 2028 0979 02       		.byte	0x2
 2029 097a 23       		.byte	0x23
 2030 097b 1A       		.uleb128 0x1a
 2031 097c 00       		.byte	0
 2032 097d 18       		.uleb128 0x18
 2033 097e 4C020000 		.4byte	.LASF108
 2034 0982 0D       		.byte	0xd
 2035 0983 F104     		.2byte	0x4f1
 2036 0985 A3080000 		.4byte	0x8a3
 2037 0989 1B       		.uleb128 0x1b
 2038 098a 01       		.byte	0x1
 2039 098b 0E       		.byte	0xe
 2040 098c 64       		.byte	0x64
 2041 098d A4090000 		.4byte	0x9a4
 2042 0991 1C       		.uleb128 0x1c
 2043 0992 2E040000 		.4byte	.LASF109
 2044 0996 00       		.sleb128 0
 2045 0997 1C       		.uleb128 0x1c
 2046 0998 0E040000 		.4byte	.LASF110
 2047 099c 01       		.sleb128 1
 2048 099d 1C       		.uleb128 0x1c
 2049 099e F3040000 		.4byte	.LASF111
 2050 09a2 02       		.sleb128 2
 2051 09a3 00       		.byte	0
 2052 09a4 09       		.uleb128 0x9
 2053 09a5 4B040000 		.4byte	.LASF112
 2054 09a9 0E       		.byte	0xe
 2055 09aa 68       		.byte	0x68
 2056 09ab 89090000 		.4byte	0x989
 2057 09af 09       		.uleb128 0x9
 2058 09b0 55040000 		.4byte	.LASF113
 2059 09b4 0E       		.byte	0xe
 2060 09b5 6D       		.byte	0x6d
 2061 09b6 BA090000 		.4byte	0x9ba
 2062 09ba 11       		.uleb128 0x11
 2063 09bb 55040000 		.4byte	.LASF113
 2064 09bf 74       		.byte	0x74
 2065 09c0 0E       		.byte	0xe
 2066 09c1 87       		.byte	0x87
 2067 09c2 430A0000 		.4byte	0xa43
 2068 09c6 0C       		.uleb128 0xc
 2069 09c7 766D7400 		.ascii	"vmt\000"
 2070 09cb 0E       		.byte	0xe
 2071 09cc 89       		.byte	0x89
 2072 09cd CE0A0000 		.4byte	0xace
 2073 09d1 02       		.byte	0x2
 2074 09d2 23       		.byte	0x23
 2075 09d3 00       		.uleb128 0
ARM GAS  /var/folders/dt/0wfd0knj7gs46m8vwfzktm600000gn/T//ccadM7KO.s 			page 39


 2076 09d4 0B       		.uleb128 0xb
 2077 09d5 1F020000 		.4byte	.LASF114
 2078 09d9 0E       		.byte	0xe
 2079 09da 8A       		.byte	0x8a
 2080 09db E2050000 		.4byte	0x5e2
 2081 09df 02       		.byte	0x2
 2082 09e0 23       		.byte	0x23
 2083 09e1 04       		.uleb128 0x4
 2084 09e2 0B       		.uleb128 0xb
 2085 09e3 62050000 		.4byte	.LASF115
 2086 09e7 0E       		.byte	0xe
 2087 09e8 8A       		.byte	0x8a
 2088 09e9 77080000 		.4byte	0x877
 2089 09ed 02       		.byte	0x2
 2090 09ee 23       		.byte	0x23
 2091 09ef 08       		.uleb128 0x8
 2092 09f0 0B       		.uleb128 0xb
 2093 09f1 00010000 		.4byte	.LASF116
 2094 09f5 0E       		.byte	0xe
 2095 09f6 8A       		.byte	0x8a
 2096 09f7 A4090000 		.4byte	0x9a4
 2097 09fb 02       		.byte	0x2
 2098 09fc 23       		.byte	0x23
 2099 09fd 0C       		.uleb128 0xc
 2100 09fe 0B       		.uleb128 0xb
 2101 09ff 01020000 		.4byte	.LASF117
 2102 0a03 0E       		.byte	0xe
 2103 0a04 8A       		.byte	0x8a
 2104 0a05 D1060000 		.4byte	0x6d1
 2105 0a09 02       		.byte	0x2
 2106 0a0a 23       		.byte	0x23
 2107 0a0b 10       		.uleb128 0x10
 2108 0a0c 0B       		.uleb128 0xb
 2109 0a0d 45020000 		.4byte	.LASF118
 2110 0a11 0E       		.byte	0xe
 2111 0a12 8A       		.byte	0x8a
 2112 0a13 DC060000 		.4byte	0x6dc
 2113 0a17 02       		.byte	0x2
 2114 0a18 23       		.byte	0x23
 2115 0a19 30       		.uleb128 0x30
 2116 0a1a 0C       		.uleb128 0xc
 2117 0a1b 696200   		.ascii	"ib\000"
 2118 0a1e 0E       		.byte	0xe
 2119 0a1f 8A       		.byte	0x8a
 2120 0a20 D90A0000 		.4byte	0xad9
 2121 0a24 02       		.byte	0x2
 2122 0a25 23       		.byte	0x23
 2123 0a26 50       		.uleb128 0x50
 2124 0a27 0C       		.uleb128 0xc
 2125 0a28 6F6200   		.ascii	"ob\000"
 2126 0a2b 0E       		.byte	0xe
 2127 0a2c 8A       		.byte	0x8a
 2128 0a2d D90A0000 		.4byte	0xad9
 2129 0a31 02       		.byte	0x2
 2130 0a32 23       		.byte	0x23
 2131 0a33 60       		.uleb128 0x60
 2132 0a34 0B       		.uleb128 0xb
ARM GAS  /var/folders/dt/0wfd0knj7gs46m8vwfzktm600000gn/T//ccadM7KO.s 			page 40


 2133 0a35 BF010000 		.4byte	.LASF119
 2134 0a39 0E       		.byte	0xe
 2135 0a3a 8A       		.byte	0x8a
 2136 0a3b E90A0000 		.4byte	0xae9
 2137 0a3f 02       		.byte	0x2
 2138 0a40 23       		.byte	0x23
 2139 0a41 70       		.uleb128 0x70
 2140 0a42 00       		.byte	0
 2141 0a43 11       		.uleb128 0x11
 2142 0a44 E3010000 		.4byte	.LASF120
 2143 0a48 24       		.byte	0x24
 2144 0a49 0E       		.byte	0xe
 2145 0a4a 7C       		.byte	0x7c
 2146 0a4b CE0A0000 		.4byte	0xace
 2147 0a4f 0B       		.uleb128 0xb
 2148 0a50 BF020000 		.4byte	.LASF92
 2149 0a54 0E       		.byte	0xe
 2150 0a55 7D       		.byte	0x7d
 2151 0a56 0C070000 		.4byte	0x70c
 2152 0a5a 02       		.byte	0x2
 2153 0a5b 23       		.byte	0x23
 2154 0a5c 00       		.uleb128 0
 2155 0a5d 0B       		.uleb128 0xb
 2156 0a5e 74040000 		.4byte	.LASF93
 2157 0a62 0E       		.byte	0xe
 2158 0a63 7D       		.byte	0x7d
 2159 0a64 2C070000 		.4byte	0x72c
 2160 0a68 02       		.byte	0x2
 2161 0a69 23       		.byte	0x23
 2162 0a6a 04       		.uleb128 0x4
 2163 0a6b 0B       		.uleb128 0xb
 2164 0a6c 58010000 		.4byte	.LASF94
 2165 0a70 0E       		.byte	0xe
 2166 0a71 7D       		.byte	0x7d
 2167 0a72 BF070000 		.4byte	0x7bf
 2168 0a76 02       		.byte	0x2
 2169 0a77 23       		.byte	0x23
 2170 0a78 08       		.uleb128 0x8
 2171 0a79 0B       		.uleb128 0xb
 2172 0a7a 96050000 		.4byte	.LASF95
 2173 0a7e 0E       		.byte	0xe
 2174 0a7f 7D       		.byte	0x7d
 2175 0a80 BF070000 		.4byte	0x7bf
 2176 0a84 02       		.byte	0x2
 2177 0a85 23       		.byte	0x23
 2178 0a86 0C       		.uleb128 0xc
 2179 0a87 0C       		.uleb128 0xc
 2180 0a88 70757400 		.ascii	"put\000"
 2181 0a8c 0E       		.byte	0xe
 2182 0a8d 7D       		.byte	0x7d
 2183 0a8e DF070000 		.4byte	0x7df
 2184 0a92 02       		.byte	0x2
 2185 0a93 23       		.byte	0x23
 2186 0a94 10       		.uleb128 0x10
 2187 0a95 0C       		.uleb128 0xc
 2188 0a96 67657400 		.ascii	"get\000"
 2189 0a9a 0E       		.byte	0xe
ARM GAS  /var/folders/dt/0wfd0knj7gs46m8vwfzktm600000gn/T//ccadM7KO.s 			page 41


 2190 0a9b 7D       		.byte	0x7d
 2191 0a9c FA070000 		.4byte	0x7fa
 2192 0aa0 02       		.byte	0x2
 2193 0aa1 23       		.byte	0x23
 2194 0aa2 14       		.uleb128 0x14
 2195 0aa3 0B       		.uleb128 0xb
 2196 0aa4 5A020000 		.4byte	.LASF96
 2197 0aa8 0E       		.byte	0xe
 2198 0aa9 7D       		.byte	0x7d
 2199 0aaa 1F080000 		.4byte	0x81f
 2200 0aae 02       		.byte	0x2
 2201 0aaf 23       		.byte	0x23
 2202 0ab0 18       		.uleb128 0x18
 2203 0ab1 0B       		.uleb128 0xb
 2204 0ab2 AF000000 		.4byte	.LASF97
 2205 0ab6 0E       		.byte	0xe
 2206 0ab7 7D       		.byte	0x7d
 2207 0ab8 44080000 		.4byte	0x844
 2208 0abc 02       		.byte	0x2
 2209 0abd 23       		.byte	0x23
 2210 0abe 1C       		.uleb128 0x1c
 2211 0abf 0B       		.uleb128 0xb
 2212 0ac0 DB040000 		.4byte	.LASF121
 2213 0ac4 0E       		.byte	0xe
 2214 0ac5 7D       		.byte	0x7d
 2215 0ac6 93080000 		.4byte	0x893
 2216 0aca 02       		.byte	0x2
 2217 0acb 23       		.byte	0x23
 2218 0acc 20       		.uleb128 0x20
 2219 0acd 00       		.byte	0
 2220 0ace 05       		.uleb128 0x5
 2221 0acf 04       		.byte	0x4
 2222 0ad0 D40A0000 		.4byte	0xad4
 2223 0ad4 06       		.uleb128 0x6
 2224 0ad5 430A0000 		.4byte	0xa43
 2225 0ad9 07       		.uleb128 0x7
 2226 0ada 4A020000 		.4byte	0x24a
 2227 0ade E90A0000 		.4byte	0xae9
 2228 0ae2 08       		.uleb128 0x8
 2229 0ae3 68000000 		.4byte	0x68
 2230 0ae7 0F       		.byte	0xf
 2231 0ae8 00       		.byte	0
 2232 0ae9 05       		.uleb128 0x5
 2233 0aea 04       		.byte	0x4
 2234 0aeb 7D090000 		.4byte	0x97d
 2235 0aef 1D       		.uleb128 0x1d
 2236 0af0 01       		.byte	0x1
 2237 0af1 B6020000 		.4byte	.LASF126
 2238 0af5 01       		.byte	0x1
 2239 0af6 79       		.byte	0x79
 2240 0af7 01       		.byte	0x1
 2241 0af8 09020000 		.4byte	0x209
 2242 0afc 00000000 		.4byte	.LFB66
 2243 0b00 BC000000 		.4byte	.LFE66
 2244 0b04 00000000 		.4byte	.LLST0
 2245 0b08 01       		.byte	0x1
 2246 0b09 DD0B0000 		.4byte	0xbdd
ARM GAS  /var/folders/dt/0wfd0knj7gs46m8vwfzktm600000gn/T//ccadM7KO.s 			page 42


 2247 0b0d 1E       		.uleb128 0x1e
 2248 0b0e 88050000 		.4byte	.LASF122
 2249 0b12 01       		.byte	0x1
 2250 0b13 79       		.byte	0x79
 2251 0b14 45000000 		.4byte	0x45
 2252 0b18 20000000 		.4byte	.LLST1
 2253 0b1c 1E       		.uleb128 0x1e
 2254 0b1d AA050000 		.4byte	.LASF123
 2255 0b21 01       		.byte	0x1
 2256 0b22 79       		.byte	0x79
 2257 0b23 E3010000 		.4byte	0x1e3
 2258 0b27 AE000000 		.4byte	.LLST2
 2259 0b2b 1F       		.uleb128 0x1f
 2260 0b2c 6A00     		.ascii	"j\000"
 2261 0b2e 01       		.byte	0x1
 2262 0b2f 7B       		.byte	0x7b
 2263 0b30 45000000 		.4byte	0x45
 2264 0b34 09010000 		.4byte	.LLST3
 2265 0b38 20       		.uleb128 0x20
 2266 0b39 00000000 		.4byte	.Ldebug_ranges0+0
 2267 0b3d 7F0B0000 		.4byte	0xb7f
 2268 0b41 1F       		.uleb128 0x1f
 2269 0b42 6900     		.ascii	"i\000"
 2270 0b44 01       		.byte	0x1
 2271 0b45 8D       		.byte	0x8d
 2272 0b46 45000000 		.4byte	0x45
 2273 0b4a 6E010000 		.4byte	.LLST4
 2274 0b4e 21       		.uleb128 0x21
 2275 0b4f 36000000 		.4byte	.LVL5
 2276 0b53 71110000 		.4byte	0x1171
 2277 0b57 680B0000 		.4byte	0xb68
 2278 0b5b 22       		.uleb128 0x22
 2279 0b5c 01       		.byte	0x1
 2280 0b5d 51       		.byte	0x51
 2281 0b5e 02       		.byte	0x2
 2282 0b5f 79       		.byte	0x79
 2283 0b60 00       		.sleb128 0
 2284 0b61 22       		.uleb128 0x22
 2285 0b62 01       		.byte	0x1
 2286 0b63 50       		.byte	0x50
 2287 0b64 02       		.byte	0x2
 2288 0b65 77       		.byte	0x77
 2289 0b66 00       		.sleb128 0
 2290 0b67 00       		.byte	0
 2291 0b68 23       		.uleb128 0x23
 2292 0b69 4A000000 		.4byte	.LVL8
 2293 0b6d 71110000 		.4byte	0x1171
 2294 0b71 22       		.uleb128 0x22
 2295 0b72 01       		.byte	0x1
 2296 0b73 51       		.byte	0x51
 2297 0b74 02       		.byte	0x2
 2298 0b75 79       		.byte	0x79
 2299 0b76 00       		.sleb128 0
 2300 0b77 22       		.uleb128 0x22
 2301 0b78 01       		.byte	0x1
 2302 0b79 50       		.byte	0x50
 2303 0b7a 02       		.byte	0x2
ARM GAS  /var/folders/dt/0wfd0knj7gs46m8vwfzktm600000gn/T//ccadM7KO.s 			page 43


 2304 0b7b 75       		.byte	0x75
 2305 0b7c 00       		.sleb128 0
 2306 0b7d 00       		.byte	0
 2307 0b7e 00       		.byte	0
 2308 0b7f 24       		.uleb128 0x24
 2309 0b80 72000000 		.4byte	.LBB3
 2310 0b84 98000000 		.4byte	.LBE3
 2311 0b88 C90B0000 		.4byte	0xbc9
 2312 0b8c 1F       		.uleb128 0x1f
 2313 0b8d 62697400 		.ascii	"bit\000"
 2314 0b91 01       		.byte	0x1
 2315 0b92 82       		.byte	0x82
 2316 0b93 78000000 		.4byte	0x78
 2317 0b97 8E010000 		.4byte	.LLST5
 2318 0b9b 25       		.uleb128 0x25
 2319 0b9c 7C000000 		.4byte	.LBB4
 2320 0ba0 98000000 		.4byte	.LBE4
 2321 0ba4 1F       		.uleb128 0x1f
 2322 0ba5 6900     		.ascii	"i\000"
 2323 0ba7 01       		.byte	0x1
 2324 0ba8 84       		.byte	0x84
 2325 0ba9 45000000 		.4byte	0x45
 2326 0bad A1010000 		.4byte	.LLST6
 2327 0bb1 23       		.uleb128 0x23
 2328 0bb2 88000000 		.4byte	.LVL16
 2329 0bb6 71110000 		.4byte	0x1171
 2330 0bba 22       		.uleb128 0x22
 2331 0bbb 01       		.byte	0x1
 2332 0bbc 51       		.byte	0x51
 2333 0bbd 02       		.byte	0x2
 2334 0bbe 79       		.byte	0x79
 2335 0bbf 00       		.sleb128 0
 2336 0bc0 22       		.uleb128 0x22
 2337 0bc1 01       		.byte	0x1
 2338 0bc2 50       		.byte	0x50
 2339 0bc3 02       		.byte	0x2
 2340 0bc4 76       		.byte	0x76
 2341 0bc5 00       		.sleb128 0
 2342 0bc6 00       		.byte	0
 2343 0bc7 00       		.byte	0
 2344 0bc8 00       		.byte	0
 2345 0bc9 23       		.uleb128 0x23
 2346 0bca 1C000000 		.4byte	.LVL3
 2347 0bce 8E110000 		.4byte	0x118e
 2348 0bd2 22       		.uleb128 0x22
 2349 0bd3 01       		.byte	0x1
 2350 0bd4 51       		.byte	0x51
 2351 0bd5 05       		.byte	0x5
 2352 0bd6 03       		.byte	0x3
 2353 0bd7 00000000 		.4byte	.LC0
 2354 0bdb 00       		.byte	0
 2355 0bdc 00       		.byte	0
 2356 0bdd 26       		.uleb128 0x26
 2357 0bde 01       		.byte	0x1
 2358 0bdf 18020000 		.4byte	.LASF24
 2359 0be3 01       		.byte	0x1
 2360 0be4 71       		.byte	0x71
ARM GAS  /var/folders/dt/0wfd0knj7gs46m8vwfzktm600000gn/T//ccadM7KO.s 			page 44


 2361 0be5 01       		.byte	0x1
 2362 0be6 00000000 		.4byte	.LFB65
 2363 0bea 04000000 		.4byte	.LFE65
 2364 0bee 02       		.byte	0x2
 2365 0bef 7D       		.byte	0x7d
 2366 0bf0 00       		.sleb128 0
 2367 0bf1 01       		.byte	0x1
 2368 0bf2 180C0000 		.4byte	0xc18
 2369 0bf6 1E       		.uleb128 0x1e
 2370 0bf7 4B010000 		.4byte	.LASF124
 2371 0bfb 01       		.byte	0x1
 2372 0bfc 71       		.byte	0x71
 2373 0bfd 180C0000 		.4byte	0xc18
 2374 0c01 B5010000 		.4byte	.LLST7
 2375 0c05 27       		.uleb128 0x27
 2376 0c06 04000000 		.4byte	.LVL23
 2377 0c0a 01       		.byte	0x1
 2378 0c0b AB110000 		.4byte	0x11ab
 2379 0c0f 22       		.uleb128 0x22
 2380 0c10 01       		.byte	0x1
 2381 0c11 50       		.byte	0x50
 2382 0c12 03       		.byte	0x3
 2383 0c13 F3       		.byte	0xf3
 2384 0c14 01       		.uleb128 0x1
 2385 0c15 50       		.byte	0x50
 2386 0c16 00       		.byte	0
 2387 0c17 00       		.byte	0
 2388 0c18 05       		.uleb128 0x5
 2389 0c19 04       		.byte	0x4
 2390 0c1a 3F020000 		.4byte	0x23f
 2391 0c1e 26       		.uleb128 0x26
 2392 0c1f 01       		.byte	0x1
 2393 0c20 8B000000 		.4byte	.LASF23
 2394 0c24 01       		.byte	0x1
 2395 0c25 2C       		.byte	0x2c
 2396 0c26 01       		.byte	0x1
 2397 0c27 00000000 		.4byte	.LFB62
 2398 0c2b 16000000 		.4byte	.LFE62
 2399 0c2f 02       		.byte	0x2
 2400 0c30 7D       		.byte	0x7d
 2401 0c31 00       		.sleb128 0
 2402 0c32 01       		.byte	0x1
 2403 0c33 620C0000 		.4byte	0xc62
 2404 0c37 28       		.uleb128 0x28
 2405 0c38 73747200 		.ascii	"str\000"
 2406 0c3c 01       		.byte	0x1
 2407 0c3d 2C       		.byte	0x2c
 2408 0c3e 85000000 		.4byte	0x85
 2409 0c42 D6010000 		.4byte	.LLST8
 2410 0c46 27       		.uleb128 0x27
 2411 0c47 16000000 		.4byte	.LVL26
 2412 0c4b 01       		.byte	0x1
 2413 0c4c BF110000 		.4byte	0x11bf
 2414 0c50 22       		.uleb128 0x22
 2415 0c51 01       		.byte	0x1
 2416 0c52 52       		.byte	0x52
 2417 0c53 03       		.byte	0x3
ARM GAS  /var/folders/dt/0wfd0knj7gs46m8vwfzktm600000gn/T//ccadM7KO.s 			page 45


 2418 0c54 F3       		.byte	0xf3
 2419 0c55 01       		.uleb128 0x1
 2420 0c56 50       		.byte	0x50
 2421 0c57 22       		.uleb128 0x22
 2422 0c58 01       		.byte	0x1
 2423 0c59 51       		.byte	0x51
 2424 0c5a 05       		.byte	0x5
 2425 0c5b 03       		.byte	0x3
 2426 0c5c 08000000 		.4byte	.LC1
 2427 0c60 00       		.byte	0
 2428 0c61 00       		.byte	0
 2429 0c62 29       		.uleb128 0x29
 2430 0c63 01       		.byte	0x1
 2431 0c64 68050000 		.4byte	.LASF125
 2432 0c68 01       		.byte	0x1
 2433 0c69 32       		.byte	0x32
 2434 0c6a 01       		.byte	0x1
 2435 0c6b 00000000 		.4byte	.LFB63
 2436 0c6f 5A000000 		.4byte	.LFE63
 2437 0c73 02020000 		.4byte	.LLST9
 2438 0c77 01       		.byte	0x1
 2439 0c78 1B0D0000 		.4byte	0xd1b
 2440 0c7c 21       		.uleb128 0x21
 2441 0c7d 0E000000 		.4byte	.LVL27
 2442 0c81 1E0C0000 		.4byte	0xc1e
 2443 0c85 930C0000 		.4byte	0xc93
 2444 0c89 22       		.uleb128 0x22
 2445 0c8a 01       		.byte	0x1
 2446 0c8b 50       		.byte	0x50
 2447 0c8c 05       		.byte	0x5
 2448 0c8d 03       		.byte	0x3
 2449 0c8e 0C000000 		.4byte	.LC2
 2450 0c92 00       		.byte	0
 2451 0c93 21       		.uleb128 0x21
 2452 0c94 1A000000 		.4byte	.LVL28
 2453 0c98 1E0C0000 		.4byte	0xc1e
 2454 0c9c AA0C0000 		.4byte	0xcaa
 2455 0ca0 22       		.uleb128 0x22
 2456 0ca1 01       		.byte	0x1
 2457 0ca2 50       		.byte	0x50
 2458 0ca3 05       		.byte	0x5
 2459 0ca4 03       		.byte	0x3
 2460 0ca5 34000000 		.4byte	.LC3
 2461 0ca9 00       		.byte	0
 2462 0caa 21       		.uleb128 0x21
 2463 0cab 26000000 		.4byte	.LVL29
 2464 0caf 1E0C0000 		.4byte	0xc1e
 2465 0cb3 C10C0000 		.4byte	0xcc1
 2466 0cb7 22       		.uleb128 0x22
 2467 0cb8 01       		.byte	0x1
 2468 0cb9 50       		.byte	0x50
 2469 0cba 05       		.byte	0x5
 2470 0cbb 03       		.byte	0x3
 2471 0cbc 8C000000 		.4byte	.LC4
 2472 0cc0 00       		.byte	0
 2473 0cc1 21       		.uleb128 0x21
 2474 0cc2 32000000 		.4byte	.LVL30
ARM GAS  /var/folders/dt/0wfd0knj7gs46m8vwfzktm600000gn/T//ccadM7KO.s 			page 46


 2475 0cc6 1E0C0000 		.4byte	0xc1e
 2476 0cca D80C0000 		.4byte	0xcd8
 2477 0cce 22       		.uleb128 0x22
 2478 0ccf 01       		.byte	0x1
 2479 0cd0 50       		.byte	0x50
 2480 0cd1 05       		.byte	0x5
 2481 0cd2 03       		.byte	0x3
 2482 0cd3 A4000000 		.4byte	.LC5
 2483 0cd7 00       		.byte	0
 2484 0cd8 21       		.uleb128 0x21
 2485 0cd9 3E000000 		.4byte	.LVL31
 2486 0cdd 1E0C0000 		.4byte	0xc1e
 2487 0ce1 EF0C0000 		.4byte	0xcef
 2488 0ce5 22       		.uleb128 0x22
 2489 0ce6 01       		.byte	0x1
 2490 0ce7 50       		.byte	0x50
 2491 0ce8 05       		.byte	0x5
 2492 0ce9 03       		.byte	0x3
 2493 0cea BC000000 		.4byte	.LC6
 2494 0cee 00       		.byte	0
 2495 0cef 21       		.uleb128 0x21
 2496 0cf0 4A000000 		.4byte	.LVL32
 2497 0cf4 1E0C0000 		.4byte	0xc1e
 2498 0cf8 060D0000 		.4byte	0xd06
 2499 0cfc 22       		.uleb128 0x22
 2500 0cfd 01       		.byte	0x1
 2501 0cfe 50       		.byte	0x50
 2502 0cff 05       		.byte	0x5
 2503 0d00 03       		.byte	0x3
 2504 0d01 E4000000 		.4byte	.LC7
 2505 0d05 00       		.byte	0
 2506 0d06 27       		.uleb128 0x27
 2507 0d07 5A000000 		.4byte	.LVL33
 2508 0d0b 01       		.byte	0x1
 2509 0d0c 1E0C0000 		.4byte	0xc1e
 2510 0d10 22       		.uleb128 0x22
 2511 0d11 01       		.byte	0x1
 2512 0d12 50       		.byte	0x50
 2513 0d13 05       		.byte	0x5
 2514 0d14 03       		.byte	0x3
 2515 0d15 4C010000 		.4byte	.LC8
 2516 0d19 00       		.byte	0
 2517 0d1a 00       		.byte	0
 2518 0d1b 1D       		.uleb128 0x1d
 2519 0d1c 01       		.byte	0x1
 2520 0d1d 9A030000 		.4byte	.LASF21
 2521 0d21 01       		.byte	0x1
 2522 0d22 3D       		.byte	0x3d
 2523 0d23 01       		.byte	0x1
 2524 0d24 45000000 		.4byte	0x45
 2525 0d28 00000000 		.4byte	.LFB64
 2526 0d2c 88010000 		.4byte	.LFE64
 2527 0d30 22020000 		.4byte	.LLST10
 2528 0d34 01       		.byte	0x1
 2529 0d35 FC0F0000 		.4byte	0xffc
 2530 0d39 1E       		.uleb128 0x1e
 2531 0d3a 88050000 		.4byte	.LASF122
ARM GAS  /var/folders/dt/0wfd0knj7gs46m8vwfzktm600000gn/T//ccadM7KO.s 			page 47


 2532 0d3e 01       		.byte	0x1
 2533 0d3f 3D       		.byte	0x3d
 2534 0d40 45000000 		.4byte	0x45
 2535 0d44 42020000 		.4byte	.LLST11
 2536 0d48 1E       		.uleb128 0x1e
 2537 0d49 AA050000 		.4byte	.LASF123
 2538 0d4d 01       		.byte	0x1
 2539 0d4e 3D       		.byte	0x3d
 2540 0d4f E3010000 		.4byte	0x1e3
 2541 0d53 60020000 		.4byte	.LLST12
 2542 0d57 1F       		.uleb128 0x1f
 2543 0d58 6900     		.ascii	"i\000"
 2544 0d5a 01       		.byte	0x1
 2545 0d5b 3F       		.byte	0x3f
 2546 0d5c 45000000 		.4byte	0x45
 2547 0d60 7E020000 		.4byte	.LLST13
 2548 0d64 24       		.uleb128 0x24
 2549 0d65 BA000000 		.4byte	.LBB6
 2550 0d69 D4000000 		.4byte	.LBE6
 2551 0d6d B20D0000 		.4byte	0xdb2
 2552 0d71 1F       		.uleb128 0x1f
 2553 0d72 6900     		.ascii	"i\000"
 2554 0d74 01       		.byte	0x1
 2555 0d75 62       		.byte	0x62
 2556 0d76 45000000 		.4byte	0x45
 2557 0d7a E1020000 		.4byte	.LLST14
 2558 0d7e 21       		.uleb128 0x21
 2559 0d7f C0000000 		.4byte	.LVL56
 2560 0d83 1E0C0000 		.4byte	0xc1e
 2561 0d87 950D0000 		.4byte	0xd95
 2562 0d8b 22       		.uleb128 0x22
 2563 0d8c 01       		.byte	0x1
 2564 0d8d 50       		.byte	0x50
 2565 0d8e 05       		.byte	0x5
 2566 0d8f 03       		.byte	0x3
 2567 0d90 94020000 		.4byte	.LC25
 2568 0d94 00       		.byte	0
 2569 0d95 2A       		.uleb128 0x2a
 2570 0d96 C8000000 		.4byte	.LVL57
 2571 0d9a 1E0C0000 		.4byte	0xc1e
 2572 0d9e 23       		.uleb128 0x23
 2573 0d9f CE000000 		.4byte	.LVL58
 2574 0da3 1E0C0000 		.4byte	0xc1e
 2575 0da7 22       		.uleb128 0x22
 2576 0da8 01       		.byte	0x1
 2577 0da9 50       		.byte	0x50
 2578 0daa 05       		.byte	0x5
 2579 0dab 03       		.byte	0x3
 2580 0dac EC010000 		.4byte	.LC13
 2581 0db0 00       		.byte	0
 2582 0db1 00       		.byte	0
 2583 0db2 21       		.uleb128 0x21
 2584 0db3 22000000 		.4byte	.LVL37
 2585 0db7 DF110000 		.4byte	0x11df
 2586 0dbb C60D0000 		.4byte	0xdc6
 2587 0dbf 22       		.uleb128 0x22
 2588 0dc0 01       		.byte	0x1
ARM GAS  /var/folders/dt/0wfd0knj7gs46m8vwfzktm600000gn/T//ccadM7KO.s 			page 48


 2589 0dc1 50       		.byte	0x50
 2590 0dc2 02       		.byte	0x2
 2591 0dc3 75       		.byte	0x75
 2592 0dc4 00       		.sleb128 0
 2593 0dc5 00       		.byte	0
 2594 0dc6 21       		.uleb128 0x21
 2595 0dc7 30000000 		.4byte	.LVL38
 2596 0dcb F7110000 		.4byte	0x11f7
 2597 0dcf E30D0000 		.4byte	0xde3
 2598 0dd3 22       		.uleb128 0x22
 2599 0dd4 01       		.byte	0x1
 2600 0dd5 51       		.byte	0x51
 2601 0dd6 02       		.byte	0x2
 2602 0dd7 75       		.byte	0x75
 2603 0dd8 00       		.sleb128 0
 2604 0dd9 22       		.uleb128 0x22
 2605 0dda 01       		.byte	0x1
 2606 0ddb 50       		.byte	0x50
 2607 0ddc 05       		.byte	0x5
 2608 0ddd 03       		.byte	0x3
 2609 0dde 00000000 		.4byte	.LANCHOR3
 2610 0de2 00       		.byte	0
 2611 0de3 21       		.uleb128 0x21
 2612 0de4 46000000 		.4byte	.LVL41
 2613 0de8 8E110000 		.4byte	0x118e
 2614 0dec 000E0000 		.4byte	0xe00
 2615 0df0 22       		.uleb128 0x22
 2616 0df1 01       		.byte	0x1
 2617 0df2 51       		.byte	0x51
 2618 0df3 05       		.byte	0x5
 2619 0df4 03       		.byte	0x3
 2620 0df5 A0010000 		.4byte	.LC9
 2621 0df9 22       		.uleb128 0x22
 2622 0dfa 01       		.byte	0x1
 2623 0dfb 50       		.byte	0x50
 2624 0dfc 02       		.byte	0x2
 2625 0dfd 75       		.byte	0x75
 2626 0dfe 00       		.sleb128 0
 2627 0dff 00       		.byte	0
 2628 0e00 21       		.uleb128 0x21
 2629 0e01 50000000 		.4byte	.LVL42
 2630 0e05 8E110000 		.4byte	0x118e
 2631 0e09 1D0E0000 		.4byte	0xe1d
 2632 0e0d 22       		.uleb128 0x22
 2633 0e0e 01       		.byte	0x1
 2634 0e0f 51       		.byte	0x51
 2635 0e10 05       		.byte	0x5
 2636 0e11 03       		.byte	0x3
 2637 0e12 CC010000 		.4byte	.LC11
 2638 0e16 22       		.uleb128 0x22
 2639 0e17 01       		.byte	0x1
 2640 0e18 50       		.byte	0x50
 2641 0e19 02       		.byte	0x2
 2642 0e1a 75       		.byte	0x75
 2643 0e1b 00       		.sleb128 0
 2644 0e1c 00       		.byte	0
 2645 0e1d 21       		.uleb128 0x21
ARM GAS  /var/folders/dt/0wfd0knj7gs46m8vwfzktm600000gn/T//ccadM7KO.s 			page 49


 2646 0e1e 5C000000 		.4byte	.LVL43
 2647 0e22 8E110000 		.4byte	0x118e
 2648 0e26 3A0E0000 		.4byte	0xe3a
 2649 0e2a 22       		.uleb128 0x22
 2650 0e2b 01       		.byte	0x1
 2651 0e2c 51       		.byte	0x51
 2652 0e2d 05       		.byte	0x5
 2653 0e2e 03       		.byte	0x3
 2654 0e2f 00000000 		.4byte	.LC0
 2655 0e33 22       		.uleb128 0x22
 2656 0e34 01       		.byte	0x1
 2657 0e35 50       		.byte	0x50
 2658 0e36 02       		.byte	0x2
 2659 0e37 75       		.byte	0x75
 2660 0e38 00       		.sleb128 0
 2661 0e39 00       		.byte	0
 2662 0e3a 21       		.uleb128 0x21
 2663 0e3b 70000000 		.4byte	.LVL45
 2664 0e3f 8E110000 		.4byte	0x118e
 2665 0e43 570E0000 		.4byte	0xe57
 2666 0e47 22       		.uleb128 0x22
 2667 0e48 01       		.byte	0x1
 2668 0e49 51       		.byte	0x51
 2669 0e4a 05       		.byte	0x5
 2670 0e4b 03       		.byte	0x3
 2671 0e4c F0010000 		.4byte	.LC14
 2672 0e50 22       		.uleb128 0x22
 2673 0e51 01       		.byte	0x1
 2674 0e52 50       		.byte	0x50
 2675 0e53 02       		.byte	0x2
 2676 0e54 75       		.byte	0x75
 2677 0e55 00       		.sleb128 0
 2678 0e56 00       		.byte	0
 2679 0e57 21       		.uleb128 0x21
 2680 0e58 7C000000 		.4byte	.LVL46
 2681 0e5c 8E110000 		.4byte	0x118e
 2682 0e60 740E0000 		.4byte	0xe74
 2683 0e64 22       		.uleb128 0x22
 2684 0e65 01       		.byte	0x1
 2685 0e66 51       		.byte	0x51
 2686 0e67 05       		.byte	0x5
 2687 0e68 03       		.byte	0x3
 2688 0e69 08020000 		.4byte	.LC16
 2689 0e6d 22       		.uleb128 0x22
 2690 0e6e 01       		.byte	0x1
 2691 0e6f 50       		.byte	0x50
 2692 0e70 02       		.byte	0x2
 2693 0e71 75       		.byte	0x75
 2694 0e72 00       		.sleb128 0
 2695 0e73 00       		.byte	0
 2696 0e74 21       		.uleb128 0x21
 2697 0e75 88000000 		.4byte	.LVL48
 2698 0e79 1E0C0000 		.4byte	0xc1e
 2699 0e7d 8B0E0000 		.4byte	0xe8b
 2700 0e81 22       		.uleb128 0x22
 2701 0e82 01       		.byte	0x1
 2702 0e83 50       		.byte	0x50
ARM GAS  /var/folders/dt/0wfd0knj7gs46m8vwfzktm600000gn/T//ccadM7KO.s 			page 50


 2703 0e84 05       		.byte	0x5
 2704 0e85 03       		.byte	0x3
 2705 0e86 10020000 		.4byte	.LC17
 2706 0e8a 00       		.byte	0
 2707 0e8b 21       		.uleb128 0x21
 2708 0e8c 98000000 		.4byte	.LVL50
 2709 0e90 1E0C0000 		.4byte	0xc1e
 2710 0e94 A20E0000 		.4byte	0xea2
 2711 0e98 22       		.uleb128 0x22
 2712 0e99 01       		.byte	0x1
 2713 0e9a 50       		.byte	0x50
 2714 0e9b 05       		.byte	0x5
 2715 0e9c 03       		.byte	0x3
 2716 0e9d A8010000 		.4byte	.LC10
 2717 0ea1 00       		.byte	0
 2718 0ea2 2A       		.uleb128 0x2a
 2719 0ea3 9C000000 		.4byte	.LVL51
 2720 0ea7 620C0000 		.4byte	0xc62
 2721 0eab 21       		.uleb128 0x21
 2722 0eac A6000000 		.4byte	.LVL52
 2723 0eb0 8E110000 		.4byte	0x118e
 2724 0eb4 C80E0000 		.4byte	0xec8
 2725 0eb8 22       		.uleb128 0x22
 2726 0eb9 01       		.byte	0x1
 2727 0eba 51       		.byte	0x51
 2728 0ebb 05       		.byte	0x5
 2729 0ebc 03       		.byte	0x3
 2730 0ebd 64020000 		.4byte	.LC20
 2731 0ec1 22       		.uleb128 0x22
 2732 0ec2 01       		.byte	0x1
 2733 0ec3 50       		.byte	0x50
 2734 0ec4 02       		.byte	0x2
 2735 0ec5 75       		.byte	0x75
 2736 0ec6 00       		.sleb128 0
 2737 0ec7 00       		.byte	0
 2738 0ec8 21       		.uleb128 0x21
 2739 0ec9 B0000000 		.4byte	.LVL53
 2740 0ecd 8E110000 		.4byte	0x118e
 2741 0ed1 E50E0000 		.4byte	0xee5
 2742 0ed5 22       		.uleb128 0x22
 2743 0ed6 01       		.byte	0x1
 2744 0ed7 51       		.byte	0x51
 2745 0ed8 05       		.byte	0x5
 2746 0ed9 03       		.byte	0x3
 2747 0eda 78020000 		.4byte	.LC23
 2748 0ede 22       		.uleb128 0x22
 2749 0edf 01       		.byte	0x1
 2750 0ee0 50       		.byte	0x50
 2751 0ee1 02       		.byte	0x2
 2752 0ee2 75       		.byte	0x75
 2753 0ee3 00       		.sleb128 0
 2754 0ee4 00       		.byte	0
 2755 0ee5 21       		.uleb128 0x21
 2756 0ee6 B8000000 		.4byte	.LVL54
 2757 0eea 1E0C0000 		.4byte	0xc1e
 2758 0eee FC0E0000 		.4byte	0xefc
 2759 0ef2 22       		.uleb128 0x22
ARM GAS  /var/folders/dt/0wfd0knj7gs46m8vwfzktm600000gn/T//ccadM7KO.s 			page 51


 2760 0ef3 01       		.byte	0x1
 2761 0ef4 50       		.byte	0x50
 2762 0ef5 05       		.byte	0x5
 2763 0ef6 03       		.byte	0x3
 2764 0ef7 80020000 		.4byte	.LC24
 2765 0efb 00       		.byte	0
 2766 0efc 21       		.uleb128 0x21
 2767 0efd DA000000 		.4byte	.LVL60
 2768 0f01 1E0C0000 		.4byte	0xc1e
 2769 0f05 130F0000 		.4byte	0xf13
 2770 0f09 22       		.uleb128 0x22
 2771 0f0a 01       		.byte	0x1
 2772 0f0b 50       		.byte	0x50
 2773 0f0c 05       		.byte	0x5
 2774 0f0d 03       		.byte	0x3
 2775 0f0e D4010000 		.4byte	.LC12
 2776 0f12 00       		.byte	0
 2777 0f13 21       		.uleb128 0x21
 2778 0f14 E2000000 		.4byte	.LVL61
 2779 0f18 1E0C0000 		.4byte	0xc1e
 2780 0f1c 2A0F0000 		.4byte	0xf2a
 2781 0f20 22       		.uleb128 0x22
 2782 0f21 01       		.byte	0x1
 2783 0f22 50       		.byte	0x50
 2784 0f23 05       		.byte	0x5
 2785 0f24 03       		.byte	0x3
 2786 0f25 00000000 		.4byte	.LANCHOR3
 2787 0f29 00       		.byte	0
 2788 0f2a 21       		.uleb128 0x21
 2789 0f2b E8000000 		.4byte	.LVL62
 2790 0f2f 1E0C0000 		.4byte	0xc1e
 2791 0f33 410F0000 		.4byte	0xf41
 2792 0f37 22       		.uleb128 0x22
 2793 0f38 01       		.byte	0x1
 2794 0f39 50       		.byte	0x50
 2795 0f3a 05       		.byte	0x5
 2796 0f3b 03       		.byte	0x3
 2797 0f3c EC010000 		.4byte	.LC13
 2798 0f40 00       		.byte	0
 2799 0f41 21       		.uleb128 0x21
 2800 0f42 F0000000 		.4byte	.LVL64
 2801 0f46 1E0C0000 		.4byte	0xc1e
 2802 0f4a 580F0000 		.4byte	0xf58
 2803 0f4e 22       		.uleb128 0x22
 2804 0f4f 01       		.byte	0x1
 2805 0f50 50       		.byte	0x50
 2806 0f51 05       		.byte	0x5
 2807 0f52 03       		.byte	0x3
 2808 0f53 98020000 		.4byte	.LC26
 2809 0f57 00       		.byte	0
 2810 0f58 2A       		.uleb128 0x2a
 2811 0f59 F8000000 		.4byte	.LVL65
 2812 0f5d 1E0C0000 		.4byte	0xc1e
 2813 0f61 21       		.uleb128 0x21
 2814 0f62 FE000000 		.4byte	.LVL66
 2815 0f66 1E0C0000 		.4byte	0xc1e
 2816 0f6a 780F0000 		.4byte	0xf78
ARM GAS  /var/folders/dt/0wfd0knj7gs46m8vwfzktm600000gn/T//ccadM7KO.s 			page 52


 2817 0f6e 22       		.uleb128 0x22
 2818 0f6f 01       		.byte	0x1
 2819 0f70 50       		.byte	0x50
 2820 0f71 05       		.byte	0x5
 2821 0f72 03       		.byte	0x3
 2822 0f73 A4020000 		.4byte	.LC27
 2823 0f77 00       		.byte	0
 2824 0f78 21       		.uleb128 0x21
 2825 0f79 06010000 		.4byte	.LVL68
 2826 0f7d 1E0C0000 		.4byte	0xc1e
 2827 0f81 8F0F0000 		.4byte	0xf8f
 2828 0f85 22       		.uleb128 0x22
 2829 0f86 01       		.byte	0x1
 2830 0f87 50       		.byte	0x50
 2831 0f88 05       		.byte	0x5
 2832 0f89 03       		.byte	0x3
 2833 0f8a 3C020000 		.4byte	.LC19
 2834 0f8e 00       		.byte	0
 2835 0f8f 21       		.uleb128 0x21
 2836 0f90 0E010000 		.4byte	.LVL70
 2837 0f94 1E0C0000 		.4byte	0xc1e
 2838 0f98 A60F0000 		.4byte	0xfa6
 2839 0f9c 22       		.uleb128 0x22
 2840 0f9d 01       		.byte	0x1
 2841 0f9e 50       		.byte	0x50
 2842 0f9f 05       		.byte	0x5
 2843 0fa0 03       		.byte	0x3
 2844 0fa1 6C020000 		.4byte	.LC21
 2845 0fa5 00       		.byte	0
 2846 0fa6 21       		.uleb128 0x21
 2847 0fa7 14010000 		.4byte	.LVL71
 2848 0fab 1E0C0000 		.4byte	0xc1e
 2849 0faf BD0F0000 		.4byte	0xfbd
 2850 0fb3 22       		.uleb128 0x22
 2851 0fb4 01       		.byte	0x1
 2852 0fb5 50       		.byte	0x50
 2853 0fb6 05       		.byte	0x5
 2854 0fb7 03       		.byte	0x3
 2855 0fb8 74020000 		.4byte	.LC22
 2856 0fbc 00       		.byte	0
 2857 0fbd 21       		.uleb128 0x21
 2858 0fbe 1C010000 		.4byte	.LVL73
 2859 0fc2 1E0C0000 		.4byte	0xc1e
 2860 0fc6 D10F0000 		.4byte	0xfd1
 2861 0fca 22       		.uleb128 0x22
 2862 0fcb 01       		.byte	0x1
 2863 0fcc 50       		.byte	0x50
 2864 0fcd 02       		.byte	0x2
 2865 0fce 75       		.byte	0x75
 2866 0fcf 00       		.sleb128 0
 2867 0fd0 00       		.byte	0
 2868 0fd1 21       		.uleb128 0x21
 2869 0fd2 22010000 		.4byte	.LVL74
 2870 0fd6 1E0C0000 		.4byte	0xc1e
 2871 0fda E80F0000 		.4byte	0xfe8
 2872 0fde 22       		.uleb128 0x22
 2873 0fdf 01       		.byte	0x1
ARM GAS  /var/folders/dt/0wfd0knj7gs46m8vwfzktm600000gn/T//ccadM7KO.s 			page 53


 2874 0fe0 50       		.byte	0x50
 2875 0fe1 05       		.byte	0x5
 2876 0fe2 03       		.byte	0x3
 2877 0fe3 20020000 		.4byte	.LC18
 2878 0fe7 00       		.byte	0
 2879 0fe8 23       		.uleb128 0x23
 2880 0fe9 2A010000 		.4byte	.LVL75
 2881 0fed 1E0C0000 		.4byte	0xc1e
 2882 0ff1 22       		.uleb128 0x22
 2883 0ff2 01       		.byte	0x1
 2884 0ff3 50       		.byte	0x50
 2885 0ff4 05       		.byte	0x5
 2886 0ff5 03       		.byte	0x3
 2887 0ff6 F8010000 		.4byte	.LC15
 2888 0ffa 00       		.byte	0
 2889 0ffb 00       		.byte	0
 2890 0ffc 29       		.uleb128 0x29
 2891 0ffd 01       		.byte	0x1
 2892 0ffe 9A040000 		.4byte	.LASF127
 2893 1002 01       		.byte	0x1
 2894 1003 9F       		.byte	0x9f
 2895 1004 01       		.byte	0x1
 2896 1005 00000000 		.4byte	.LFB67
 2897 1009 50000000 		.4byte	.LFE67
 2898 100d F5020000 		.4byte	.LLST15
 2899 1011 01       		.byte	0x1
 2900 1012 CC100000 		.4byte	0x10cc
 2901 1016 2B       		.uleb128 0x2b
 2902 1017 726C00   		.ascii	"rl\000"
 2903 101a 01       		.byte	0x1
 2904 101b A1       		.byte	0xa1
 2905 101c 3F020000 		.4byte	0x23f
 2906 1020 03       		.byte	0x3
 2907 1021 91       		.byte	0x91
 2908 1022 C87C     		.sleb128 -440
 2909 1024 1F       		.uleb128 0x1f
 2910 1025 6300     		.ascii	"c\000"
 2911 1027 01       		.byte	0x1
 2912 1028 A2       		.byte	0xa2
 2913 1029 C3020000 		.4byte	0x2c3
 2914 102d 22030000 		.4byte	.LLST16
 2915 1031 21       		.uleb128 0x21
 2916 1032 0C000000 		.4byte	.LVL76
 2917 1036 1F120000 		.4byte	0x121f
 2918 103a 4E100000 		.4byte	0x104e
 2919 103e 22       		.uleb128 0x22
 2920 103f 01       		.byte	0x1
 2921 1040 51       		.byte	0x51
 2922 1041 05       		.byte	0x5
 2923 1042 03       		.byte	0x3
 2924 1043 00000000 		.4byte	print
 2925 1047 22       		.uleb128 0x22
 2926 1048 01       		.byte	0x1
 2927 1049 50       		.byte	0x50
 2928 104a 02       		.byte	0x2
 2929 104b 7D       		.byte	0x7d
 2930 104c 00       		.sleb128 0
ARM GAS  /var/folders/dt/0wfd0knj7gs46m8vwfzktm600000gn/T//ccadM7KO.s 			page 54


 2931 104d 00       		.byte	0
 2932 104e 21       		.uleb128 0x21
 2933 104f 14000000 		.4byte	.LVL77
 2934 1053 38120000 		.4byte	0x1238
 2935 1057 6B100000 		.4byte	0x106b
 2936 105b 22       		.uleb128 0x22
 2937 105c 01       		.byte	0x1
 2938 105d 51       		.byte	0x51
 2939 105e 05       		.byte	0x5
 2940 105f 03       		.byte	0x3
 2941 1060 00000000 		.4byte	execute
 2942 1064 22       		.uleb128 0x22
 2943 1065 01       		.byte	0x1
 2944 1066 50       		.byte	0x50
 2945 1067 02       		.byte	0x2
 2946 1068 7D       		.byte	0x7d
 2947 1069 00       		.sleb128 0
 2948 106a 00       		.byte	0
 2949 106b 21       		.uleb128 0x21
 2950 106c 1C000000 		.4byte	.LVL78
 2951 1070 51120000 		.4byte	0x1251
 2952 1074 88100000 		.4byte	0x1088
 2953 1078 22       		.uleb128 0x22
 2954 1079 01       		.byte	0x1
 2955 107a 51       		.byte	0x51
 2956 107b 05       		.byte	0x5
 2957 107c 03       		.byte	0x3
 2958 107d 00000000 		.4byte	complete
 2959 1081 22       		.uleb128 0x22
 2960 1082 01       		.byte	0x1
 2961 1083 50       		.byte	0x50
 2962 1084 02       		.byte	0x2
 2963 1085 7D       		.byte	0x7d
 2964 1086 00       		.sleb128 0
 2965 1087 00       		.byte	0
 2966 1088 21       		.uleb128 0x21
 2967 1089 24000000 		.4byte	.LVL79
 2968 108d 6A120000 		.4byte	0x126a
 2969 1091 A5100000 		.4byte	0x10a5
 2970 1095 22       		.uleb128 0x22
 2971 1096 01       		.byte	0x1
 2972 1097 51       		.byte	0x51
 2973 1098 05       		.byte	0x5
 2974 1099 03       		.byte	0x3
 2975 109a 00000000 		.4byte	sigint
 2976 109e 22       		.uleb128 0x22
 2977 109f 01       		.byte	0x1
 2978 10a0 50       		.byte	0x50
 2979 10a1 02       		.byte	0x2
 2980 10a2 7D       		.byte	0x7d
 2981 10a3 00       		.sleb128 0
 2982 10a4 00       		.byte	0
 2983 10a5 2C       		.uleb128 0x2c
 2984 10a6 32000000 		.4byte	.LVL80
 2985 10aa BB100000 		.4byte	0x10bb
 2986 10ae 22       		.uleb128 0x22
 2987 10af 01       		.byte	0x1
ARM GAS  /var/folders/dt/0wfd0knj7gs46m8vwfzktm600000gn/T//ccadM7KO.s 			page 55


 2988 10b0 51       		.byte	0x51
 2989 10b1 02       		.byte	0x2
 2990 10b2 09       		.byte	0x9
 2991 10b3 FF       		.byte	0xff
 2992 10b4 22       		.uleb128 0x22
 2993 10b5 01       		.byte	0x1
 2994 10b6 50       		.byte	0x50
 2995 10b7 02       		.byte	0x2
 2996 10b8 74       		.byte	0x74
 2997 10b9 00       		.sleb128 0
 2998 10ba 00       		.byte	0
 2999 10bb 23       		.uleb128 0x23
 3000 10bc 3A000000 		.4byte	.LVL83
 3001 10c0 83120000 		.4byte	0x1283
 3002 10c4 22       		.uleb128 0x22
 3003 10c5 01       		.byte	0x1
 3004 10c6 50       		.byte	0x50
 3005 10c7 02       		.byte	0x2
 3006 10c8 7D       		.byte	0x7d
 3007 10c9 00       		.sleb128 0
 3008 10ca 00       		.byte	0
 3009 10cb 00       		.byte	0
 3010 10cc 2D       		.uleb128 0x2d
 3011 10cd 9B000000 		.4byte	.LASF128
 3012 10d1 0F       		.byte	0xf
 3013 10d2 9404     		.2byte	0x494
 3014 10d4 9E080000 		.4byte	0x89e
 3015 10d8 01       		.byte	0x1
 3016 10d9 01       		.byte	0x1
 3017 10da 2E       		.uleb128 0x2e
 3018 10db 53443200 		.ascii	"SD2\000"
 3019 10df 10       		.byte	0x10
 3020 10e0 FE       		.byte	0xfe
 3021 10e1 AF090000 		.4byte	0x9af
 3022 10e5 01       		.byte	0x1
 3023 10e6 01       		.byte	0x1
 3024 10e7 07       		.uleb128 0x7
 3025 10e8 78000000 		.4byte	0x78
 3026 10ec F7100000 		.4byte	0x10f7
 3027 10f0 08       		.uleb128 0x8
 3028 10f1 68000000 		.4byte	0x68
 3029 10f5 05       		.byte	0x5
 3030 10f6 00       		.byte	0
 3031 10f7 2F       		.uleb128 0x2f
 3032 10f8 8D050000 		.4byte	.LASF129
 3033 10fc 01       		.byte	0x1
 3034 10fd 20       		.byte	0x20
 3035 10fe E7100000 		.4byte	0x10e7
 3036 1102 01       		.byte	0x1
 3037 1103 05       		.byte	0x5
 3038 1104 03       		.byte	0x3
 3039 1105 00000000 		.4byte	keyworld
 3040 1109 07       		.uleb128 0x7
 3041 110a 78000000 		.4byte	0x78
 3042 110e 19110000 		.4byte	0x1119
 3043 1112 08       		.uleb128 0x8
 3044 1113 68000000 		.4byte	0x68
ARM GAS  /var/folders/dt/0wfd0knj7gs46m8vwfzktm600000gn/T//ccadM7KO.s 			page 56


 3045 1117 01       		.byte	0x1
 3046 1118 00       		.byte	0
 3047 1119 2F       		.uleb128 0x2f
 3048 111a 8D010000 		.4byte	.LASF130
 3049 111e 01       		.byte	0x1
 3050 111f 22       		.byte	0x22
 3051 1120 09110000 		.4byte	0x1109
 3052 1124 01       		.byte	0x1
 3053 1125 05       		.byte	0x5
 3054 1126 03       		.byte	0x3
 3055 1127 00000000 		.4byte	ver_keyworld
 3056 112b 07       		.uleb128 0x7
 3057 112c 78000000 		.4byte	0x78
 3058 1130 3B110000 		.4byte	0x113b
 3059 1134 08       		.uleb128 0x8
 3060 1135 68000000 		.4byte	0x68
 3061 1139 06       		.byte	0x6
 3062 113a 00       		.byte	0
 3063 113b 2F       		.uleb128 0x2f
 3064 113c 8B020000 		.4byte	.LASF131
 3065 1140 01       		.byte	0x1
 3066 1141 25       		.byte	0x25
 3067 1142 2B110000 		.4byte	0x112b
 3068 1146 01       		.byte	0x1
 3069 1147 05       		.byte	0x5
 3070 1148 03       		.byte	0x3
 3071 1149 00000000 		.4byte	compl_world
 3072 114d 2F       		.uleb128 0x2f
 3073 114e 13020000 		.4byte	.LASF132
 3074 1152 01       		.byte	0x1
 3075 1153 29       		.byte	0x29
 3076 1154 90000000 		.4byte	0x90
 3077 1158 01       		.byte	0x1
 3078 1159 05       		.byte	0x5
 3079 115a 03       		.byte	0x3
 3080 115b 00000000 		.4byte	name
 3081 115f 30       		.uleb128 0x30
 3082 1160 76616C00 		.ascii	"val\000"
 3083 1164 01       		.byte	0x1
 3084 1165 2A       		.byte	0x2a
 3085 1166 45000000 		.4byte	0x45
 3086 116a 01       		.byte	0x1
 3087 116b 05       		.byte	0x5
 3088 116c 03       		.byte	0x3
 3089 116d 00000000 		.4byte	val
 3090 1171 31       		.uleb128 0x31
 3091 1172 01       		.byte	0x1
 3092 1173 2A000000 		.4byte	.LASF133
 3093 1177 11       		.byte	0x11
 3094 1178 2A       		.byte	0x2a
 3095 1179 01       		.byte	0x1
 3096 117a 78000000 		.4byte	0x78
 3097 117e 01       		.byte	0x1
 3098 117f 8E110000 		.4byte	0x118e
 3099 1183 0F       		.uleb128 0xf
 3100 1184 85000000 		.4byte	0x85
 3101 1188 0F       		.uleb128 0xf
ARM GAS  /var/folders/dt/0wfd0knj7gs46m8vwfzktm600000gn/T//ccadM7KO.s 			page 57


 3102 1189 85000000 		.4byte	0x85
 3103 118d 00       		.byte	0
 3104 118e 31       		.uleb128 0x31
 3105 118f 01       		.byte	0x1
 3106 1190 A4020000 		.4byte	.LASF134
 3107 1194 11       		.byte	0x11
 3108 1195 1E       		.byte	0x1e
 3109 1196 01       		.byte	0x1
 3110 1197 45000000 		.4byte	0x45
 3111 119b 01       		.byte	0x1
 3112 119c AB110000 		.4byte	0x11ab
 3113 11a0 0F       		.uleb128 0xf
 3114 11a1 85000000 		.4byte	0x85
 3115 11a5 0F       		.uleb128 0xf
 3116 11a6 85000000 		.4byte	0x85
 3117 11aa 00       		.byte	0
 3118 11ab 32       		.uleb128 0x32
 3119 11ac 01       		.byte	0x1
 3120 11ad 37010000 		.4byte	.LASF135
 3121 11b1 02       		.byte	0x2
 3122 11b2 52       		.byte	0x52
 3123 11b3 01       		.byte	0x1
 3124 11b4 01       		.byte	0x1
 3125 11b5 BF110000 		.4byte	0x11bf
 3126 11b9 0F       		.uleb128 0xf
 3127 11ba 180C0000 		.4byte	0xc18
 3128 11be 00       		.byte	0
 3129 11bf 32       		.uleb128 0x32
 3130 11c0 01       		.byte	0x1
 3131 11c1 C7050000 		.4byte	.LASF136
 3132 11c5 12       		.byte	0x12
 3133 11c6 2A       		.byte	0x2a
 3134 11c7 01       		.byte	0x1
 3135 11c8 01       		.byte	0x1
 3136 11c9 D9110000 		.4byte	0x11d9
 3137 11cd 0F       		.uleb128 0xf
 3138 11ce D9110000 		.4byte	0x11d9
 3139 11d2 0F       		.uleb128 0xf
 3140 11d3 85000000 		.4byte	0x85
 3141 11d7 33       		.uleb128 0x33
 3142 11d8 00       		.byte	0
 3143 11d9 05       		.uleb128 0x5
 3144 11da 04       		.byte	0x4
 3145 11db 6C080000 		.4byte	0x86c
 3146 11df 31       		.uleb128 0x31
 3147 11e0 01       		.byte	0x1
 3148 11e1 FA010000 		.4byte	.LASF137
 3149 11e5 11       		.byte	0x11
 3150 11e6 23       		.byte	0x23
 3151 11e7 01       		.byte	0x1
 3152 11e8 A0000000 		.4byte	0xa0
 3153 11ec 01       		.byte	0x1
 3154 11ed F7110000 		.4byte	0x11f7
 3155 11f1 0F       		.uleb128 0xf
 3156 11f2 85000000 		.4byte	0x85
 3157 11f6 00       		.byte	0
 3158 11f7 34       		.uleb128 0x34
ARM GAS  /var/folders/dt/0wfd0knj7gs46m8vwfzktm600000gn/T//ccadM7KO.s 			page 58


 3159 11f8 01       		.byte	0x1
 3160 11f9 18010000 		.4byte	.LASF138
 3161 11fd 01       		.byte	0x1
 3162 11fe 6F000000 		.4byte	0x6f
 3163 1202 01       		.byte	0x1
 3164 1203 01       		.byte	0x1
 3165 1204 18120000 		.4byte	0x1218
 3166 1208 0F       		.uleb128 0xf
 3167 1209 6F000000 		.4byte	0x6f
 3168 120d 0F       		.uleb128 0xf
 3169 120e 18120000 		.4byte	0x1218
 3170 1212 0F       		.uleb128 0xf
 3171 1213 68000000 		.4byte	0x68
 3172 1217 00       		.byte	0
 3173 1218 05       		.uleb128 0x5
 3174 1219 04       		.byte	0x4
 3175 121a 1E120000 		.4byte	0x121e
 3176 121e 35       		.uleb128 0x35
 3177 121f 32       		.uleb128 0x32
 3178 1220 01       		.byte	0x1
 3179 1221 16040000 		.4byte	.LASF139
 3180 1225 02       		.byte	0x2
 3181 1226 59       		.byte	0x59
 3182 1227 01       		.byte	0x1
 3183 1228 01       		.byte	0x1
 3184 1229 38120000 		.4byte	0x1238
 3185 122d 0F       		.uleb128 0xf
 3186 122e 180C0000 		.4byte	0xc18
 3187 1232 0F       		.uleb128 0xf
 3188 1233 21020000 		.4byte	0x221
 3189 1237 00       		.byte	0
 3190 1238 32       		.uleb128 0x32
 3191 1239 01       		.byte	0x1
 3192 123a 31000000 		.4byte	.LASF140
 3193 123e 02       		.byte	0x2
 3194 123f 69       		.byte	0x69
 3195 1240 01       		.byte	0x1
 3196 1241 01       		.byte	0x1
 3197 1242 51120000 		.4byte	0x1251
 3198 1246 0F       		.uleb128 0xf
 3199 1247 180C0000 		.4byte	0xc18
 3200 124b 0F       		.uleb128 0xf
 3201 124c EE010000 		.4byte	0x1ee
 3202 1250 00       		.byte	0
 3203 1251 32       		.uleb128 0x32
 3204 1252 01       		.byte	0x1
 3205 1253 66010000 		.4byte	.LASF141
 3206 1257 02       		.byte	0x2
 3207 1258 65       		.byte	0x65
 3208 1259 01       		.byte	0x1
 3209 125a 01       		.byte	0x1
 3210 125b 6A120000 		.4byte	0x126a
 3211 125f 0F       		.uleb128 0xf
 3212 1260 180C0000 		.4byte	0xc18
 3213 1264 0F       		.uleb128 0xf
 3214 1265 0F020000 		.4byte	0x20f
 3215 1269 00       		.byte	0
ARM GAS  /var/folders/dt/0wfd0knj7gs46m8vwfzktm600000gn/T//ccadM7KO.s 			page 59


 3216 126a 32       		.uleb128 0x32
 3217 126b 01       		.byte	0x1
 3218 126c FC040000 		.4byte	.LASF142
 3219 1270 02       		.byte	0x2
 3220 1271 6D       		.byte	0x6d
 3221 1272 01       		.byte	0x1
 3222 1273 01       		.byte	0x1
 3223 1274 83120000 		.4byte	0x1283
 3224 1278 0F       		.uleb128 0xf
 3225 1279 180C0000 		.4byte	0xc18
 3226 127d 0F       		.uleb128 0xf
 3227 127e 39020000 		.4byte	0x239
 3228 1282 00       		.byte	0
 3229 1283 36       		.uleb128 0x36
 3230 1284 01       		.byte	0x1
 3231 1285 2C030000 		.4byte	.LASF146
 3232 1289 02       		.byte	0x2
 3233 128a 71       		.byte	0x71
 3234 128b 01       		.byte	0x1
 3235 128c 01       		.byte	0x1
 3236 128d 0F       		.uleb128 0xf
 3237 128e 180C0000 		.4byte	0xc18
 3238 1292 0F       		.uleb128 0xf
 3239 1293 45000000 		.4byte	0x45
 3240 1297 00       		.byte	0
 3241 1298 00       		.byte	0
 3242              		.section	.debug_abbrev,"",%progbits
 3243              	.Ldebug_abbrev0:
 3244 0000 01       		.uleb128 0x1
 3245 0001 11       		.uleb128 0x11
 3246 0002 01       		.byte	0x1
 3247 0003 25       		.uleb128 0x25
 3248 0004 0E       		.uleb128 0xe
 3249 0005 13       		.uleb128 0x13
 3250 0006 0B       		.uleb128 0xb
 3251 0007 03       		.uleb128 0x3
 3252 0008 0E       		.uleb128 0xe
 3253 0009 1B       		.uleb128 0x1b
 3254 000a 0E       		.uleb128 0xe
 3255 000b 55       		.uleb128 0x55
 3256 000c 06       		.uleb128 0x6
 3257 000d 11       		.uleb128 0x11
 3258 000e 01       		.uleb128 0x1
 3259 000f 52       		.uleb128 0x52
 3260 0010 01       		.uleb128 0x1
 3261 0011 10       		.uleb128 0x10
 3262 0012 06       		.uleb128 0x6
 3263 0013 00       		.byte	0
 3264 0014 00       		.byte	0
 3265 0015 02       		.uleb128 0x2
 3266 0016 24       		.uleb128 0x24
 3267 0017 00       		.byte	0
 3268 0018 0B       		.uleb128 0xb
 3269 0019 0B       		.uleb128 0xb
 3270 001a 3E       		.uleb128 0x3e
 3271 001b 0B       		.uleb128 0xb
 3272 001c 03       		.uleb128 0x3
ARM GAS  /var/folders/dt/0wfd0knj7gs46m8vwfzktm600000gn/T//ccadM7KO.s 			page 60


 3273 001d 0E       		.uleb128 0xe
 3274 001e 00       		.byte	0
 3275 001f 00       		.byte	0
 3276 0020 03       		.uleb128 0x3
 3277 0021 24       		.uleb128 0x24
 3278 0022 00       		.byte	0
 3279 0023 0B       		.uleb128 0xb
 3280 0024 0B       		.uleb128 0xb
 3281 0025 3E       		.uleb128 0x3e
 3282 0026 0B       		.uleb128 0xb
 3283 0027 03       		.uleb128 0x3
 3284 0028 08       		.uleb128 0x8
 3285 0029 00       		.byte	0
 3286 002a 00       		.byte	0
 3287 002b 04       		.uleb128 0x4
 3288 002c 0F       		.uleb128 0xf
 3289 002d 00       		.byte	0
 3290 002e 0B       		.uleb128 0xb
 3291 002f 0B       		.uleb128 0xb
 3292 0030 00       		.byte	0
 3293 0031 00       		.byte	0
 3294 0032 05       		.uleb128 0x5
 3295 0033 0F       		.uleb128 0xf
 3296 0034 00       		.byte	0
 3297 0035 0B       		.uleb128 0xb
 3298 0036 0B       		.uleb128 0xb
 3299 0037 49       		.uleb128 0x49
 3300 0038 13       		.uleb128 0x13
 3301 0039 00       		.byte	0
 3302 003a 00       		.byte	0
 3303 003b 06       		.uleb128 0x6
 3304 003c 26       		.uleb128 0x26
 3305 003d 00       		.byte	0
 3306 003e 49       		.uleb128 0x49
 3307 003f 13       		.uleb128 0x13
 3308 0040 00       		.byte	0
 3309 0041 00       		.byte	0
 3310 0042 07       		.uleb128 0x7
 3311 0043 01       		.uleb128 0x1
 3312 0044 01       		.byte	0x1
 3313 0045 49       		.uleb128 0x49
 3314 0046 13       		.uleb128 0x13
 3315 0047 01       		.uleb128 0x1
 3316 0048 13       		.uleb128 0x13
 3317 0049 00       		.byte	0
 3318 004a 00       		.byte	0
 3319 004b 08       		.uleb128 0x8
 3320 004c 21       		.uleb128 0x21
 3321 004d 00       		.byte	0
 3322 004e 49       		.uleb128 0x49
 3323 004f 13       		.uleb128 0x13
 3324 0050 2F       		.uleb128 0x2f
 3325 0051 0B       		.uleb128 0xb
 3326 0052 00       		.byte	0
 3327 0053 00       		.byte	0
 3328 0054 09       		.uleb128 0x9
 3329 0055 16       		.uleb128 0x16
ARM GAS  /var/folders/dt/0wfd0knj7gs46m8vwfzktm600000gn/T//ccadM7KO.s 			page 61


 3330 0056 00       		.byte	0
 3331 0057 03       		.uleb128 0x3
 3332 0058 0E       		.uleb128 0xe
 3333 0059 3A       		.uleb128 0x3a
 3334 005a 0B       		.uleb128 0xb
 3335 005b 3B       		.uleb128 0x3b
 3336 005c 0B       		.uleb128 0xb
 3337 005d 49       		.uleb128 0x49
 3338 005e 13       		.uleb128 0x13
 3339 005f 00       		.byte	0
 3340 0060 00       		.byte	0
 3341 0061 0A       		.uleb128 0xa
 3342 0062 13       		.uleb128 0x13
 3343 0063 01       		.byte	0x1
 3344 0064 0B       		.uleb128 0xb
 3345 0065 05       		.uleb128 0x5
 3346 0066 3A       		.uleb128 0x3a
 3347 0067 0B       		.uleb128 0xb
 3348 0068 3B       		.uleb128 0x3b
 3349 0069 0B       		.uleb128 0xb
 3350 006a 01       		.uleb128 0x1
 3351 006b 13       		.uleb128 0x13
 3352 006c 00       		.byte	0
 3353 006d 00       		.byte	0
 3354 006e 0B       		.uleb128 0xb
 3355 006f 0D       		.uleb128 0xd
 3356 0070 00       		.byte	0
 3357 0071 03       		.uleb128 0x3
 3358 0072 0E       		.uleb128 0xe
 3359 0073 3A       		.uleb128 0x3a
 3360 0074 0B       		.uleb128 0xb
 3361 0075 3B       		.uleb128 0x3b
 3362 0076 0B       		.uleb128 0xb
 3363 0077 49       		.uleb128 0x49
 3364 0078 13       		.uleb128 0x13
 3365 0079 38       		.uleb128 0x38
 3366 007a 0A       		.uleb128 0xa
 3367 007b 00       		.byte	0
 3368 007c 00       		.byte	0
 3369 007d 0C       		.uleb128 0xc
 3370 007e 0D       		.uleb128 0xd
 3371 007f 00       		.byte	0
 3372 0080 03       		.uleb128 0x3
 3373 0081 08       		.uleb128 0x8
 3374 0082 3A       		.uleb128 0x3a
 3375 0083 0B       		.uleb128 0xb
 3376 0084 3B       		.uleb128 0x3b
 3377 0085 0B       		.uleb128 0xb
 3378 0086 49       		.uleb128 0x49
 3379 0087 13       		.uleb128 0x13
 3380 0088 38       		.uleb128 0x38
 3381 0089 0A       		.uleb128 0xa
 3382 008a 00       		.byte	0
 3383 008b 00       		.byte	0
 3384 008c 0D       		.uleb128 0xd
 3385 008d 13       		.uleb128 0x13
 3386 008e 01       		.byte	0x1
ARM GAS  /var/folders/dt/0wfd0knj7gs46m8vwfzktm600000gn/T//ccadM7KO.s 			page 62


 3387 008f 03       		.uleb128 0x3
 3388 0090 0E       		.uleb128 0xe
 3389 0091 0B       		.uleb128 0xb
 3390 0092 05       		.uleb128 0x5
 3391 0093 3A       		.uleb128 0x3a
 3392 0094 0B       		.uleb128 0xb
 3393 0095 3B       		.uleb128 0x3b
 3394 0096 0B       		.uleb128 0xb
 3395 0097 01       		.uleb128 0x1
 3396 0098 13       		.uleb128 0x13
 3397 0099 00       		.byte	0
 3398 009a 00       		.byte	0
 3399 009b 0E       		.uleb128 0xe
 3400 009c 15       		.uleb128 0x15
 3401 009d 01       		.byte	0x1
 3402 009e 27       		.uleb128 0x27
 3403 009f 0C       		.uleb128 0xc
 3404 00a0 49       		.uleb128 0x49
 3405 00a1 13       		.uleb128 0x13
 3406 00a2 01       		.uleb128 0x1
 3407 00a3 13       		.uleb128 0x13
 3408 00a4 00       		.byte	0
 3409 00a5 00       		.byte	0
 3410 00a6 0F       		.uleb128 0xf
 3411 00a7 05       		.uleb128 0x5
 3412 00a8 00       		.byte	0
 3413 00a9 49       		.uleb128 0x49
 3414 00aa 13       		.uleb128 0x13
 3415 00ab 00       		.byte	0
 3416 00ac 00       		.byte	0
 3417 00ad 10       		.uleb128 0x10
 3418 00ae 15       		.uleb128 0x15
 3419 00af 01       		.byte	0x1
 3420 00b0 27       		.uleb128 0x27
 3421 00b1 0C       		.uleb128 0xc
 3422 00b2 01       		.uleb128 0x1
 3423 00b3 13       		.uleb128 0x13
 3424 00b4 00       		.byte	0
 3425 00b5 00       		.byte	0
 3426 00b6 11       		.uleb128 0x11
 3427 00b7 13       		.uleb128 0x13
 3428 00b8 01       		.byte	0x1
 3429 00b9 03       		.uleb128 0x3
 3430 00ba 0E       		.uleb128 0xe
 3431 00bb 0B       		.uleb128 0xb
 3432 00bc 0B       		.uleb128 0xb
 3433 00bd 3A       		.uleb128 0x3a
 3434 00be 0B       		.uleb128 0xb
 3435 00bf 3B       		.uleb128 0x3b
 3436 00c0 0B       		.uleb128 0xb
 3437 00c1 01       		.uleb128 0x1
 3438 00c2 13       		.uleb128 0x13
 3439 00c3 00       		.byte	0
 3440 00c4 00       		.byte	0
 3441 00c5 12       		.uleb128 0x12
 3442 00c6 13       		.uleb128 0x13
 3443 00c7 01       		.byte	0x1
ARM GAS  /var/folders/dt/0wfd0knj7gs46m8vwfzktm600000gn/T//ccadM7KO.s 			page 63


 3444 00c8 0B       		.uleb128 0xb
 3445 00c9 0B       		.uleb128 0xb
 3446 00ca 3A       		.uleb128 0x3a
 3447 00cb 0B       		.uleb128 0xb
 3448 00cc 3B       		.uleb128 0x3b
 3449 00cd 0B       		.uleb128 0xb
 3450 00ce 01       		.uleb128 0x1
 3451 00cf 13       		.uleb128 0x13
 3452 00d0 00       		.byte	0
 3453 00d1 00       		.byte	0
 3454 00d2 13       		.uleb128 0x13
 3455 00d3 0D       		.uleb128 0xd
 3456 00d4 00       		.byte	0
 3457 00d5 03       		.uleb128 0x3
 3458 00d6 08       		.uleb128 0x8
 3459 00d7 3A       		.uleb128 0x3a
 3460 00d8 0B       		.uleb128 0xb
 3461 00d9 3B       		.uleb128 0x3b
 3462 00da 05       		.uleb128 0x5
 3463 00db 49       		.uleb128 0x49
 3464 00dc 13       		.uleb128 0x13
 3465 00dd 38       		.uleb128 0x38
 3466 00de 0A       		.uleb128 0xa
 3467 00df 00       		.byte	0
 3468 00e0 00       		.byte	0
 3469 00e1 14       		.uleb128 0x14
 3470 00e2 13       		.uleb128 0x13
 3471 00e3 01       		.byte	0x1
 3472 00e4 03       		.uleb128 0x3
 3473 00e5 0E       		.uleb128 0xe
 3474 00e6 0B       		.uleb128 0xb
 3475 00e7 0B       		.uleb128 0xb
 3476 00e8 3A       		.uleb128 0x3a
 3477 00e9 0B       		.uleb128 0xb
 3478 00ea 3B       		.uleb128 0x3b
 3479 00eb 05       		.uleb128 0x5
 3480 00ec 01       		.uleb128 0x1
 3481 00ed 13       		.uleb128 0x13
 3482 00ee 00       		.byte	0
 3483 00ef 00       		.byte	0
 3484 00f0 15       		.uleb128 0x15
 3485 00f1 35       		.uleb128 0x35
 3486 00f2 00       		.byte	0
 3487 00f3 49       		.uleb128 0x49
 3488 00f4 13       		.uleb128 0x13
 3489 00f5 00       		.byte	0
 3490 00f6 00       		.byte	0
 3491 00f7 16       		.uleb128 0x16
 3492 00f8 17       		.uleb128 0x17
 3493 00f9 01       		.byte	0x1
 3494 00fa 0B       		.uleb128 0xb
 3495 00fb 0B       		.uleb128 0xb
 3496 00fc 3A       		.uleb128 0x3a
 3497 00fd 0B       		.uleb128 0xb
 3498 00fe 3B       		.uleb128 0x3b
 3499 00ff 0B       		.uleb128 0xb
 3500 0100 01       		.uleb128 0x1
ARM GAS  /var/folders/dt/0wfd0knj7gs46m8vwfzktm600000gn/T//ccadM7KO.s 			page 64


 3501 0101 13       		.uleb128 0x13
 3502 0102 00       		.byte	0
 3503 0103 00       		.byte	0
 3504 0104 17       		.uleb128 0x17
 3505 0105 0D       		.uleb128 0xd
 3506 0106 00       		.byte	0
 3507 0107 03       		.uleb128 0x3
 3508 0108 0E       		.uleb128 0xe
 3509 0109 3A       		.uleb128 0x3a
 3510 010a 0B       		.uleb128 0xb
 3511 010b 3B       		.uleb128 0x3b
 3512 010c 0B       		.uleb128 0xb
 3513 010d 49       		.uleb128 0x49
 3514 010e 13       		.uleb128 0x13
 3515 010f 00       		.byte	0
 3516 0110 00       		.byte	0
 3517 0111 18       		.uleb128 0x18
 3518 0112 16       		.uleb128 0x16
 3519 0113 00       		.byte	0
 3520 0114 03       		.uleb128 0x3
 3521 0115 0E       		.uleb128 0xe
 3522 0116 3A       		.uleb128 0x3a
 3523 0117 0B       		.uleb128 0xb
 3524 0118 3B       		.uleb128 0x3b
 3525 0119 05       		.uleb128 0x5
 3526 011a 49       		.uleb128 0x49
 3527 011b 13       		.uleb128 0x13
 3528 011c 00       		.byte	0
 3529 011d 00       		.byte	0
 3530 011e 19       		.uleb128 0x19
 3531 011f 13       		.uleb128 0x13
 3532 0120 01       		.byte	0x1
 3533 0121 0B       		.uleb128 0xb
 3534 0122 0B       		.uleb128 0xb
 3535 0123 3A       		.uleb128 0x3a
 3536 0124 0B       		.uleb128 0xb
 3537 0125 3B       		.uleb128 0x3b
 3538 0126 05       		.uleb128 0x5
 3539 0127 01       		.uleb128 0x1
 3540 0128 13       		.uleb128 0x13
 3541 0129 00       		.byte	0
 3542 012a 00       		.byte	0
 3543 012b 1A       		.uleb128 0x1a
 3544 012c 0D       		.uleb128 0xd
 3545 012d 00       		.byte	0
 3546 012e 03       		.uleb128 0x3
 3547 012f 0E       		.uleb128 0xe
 3548 0130 3A       		.uleb128 0x3a
 3549 0131 0B       		.uleb128 0xb
 3550 0132 3B       		.uleb128 0x3b
 3551 0133 05       		.uleb128 0x5
 3552 0134 49       		.uleb128 0x49
 3553 0135 13       		.uleb128 0x13
 3554 0136 38       		.uleb128 0x38
 3555 0137 0A       		.uleb128 0xa
 3556 0138 00       		.byte	0
 3557 0139 00       		.byte	0
ARM GAS  /var/folders/dt/0wfd0knj7gs46m8vwfzktm600000gn/T//ccadM7KO.s 			page 65


 3558 013a 1B       		.uleb128 0x1b
 3559 013b 04       		.uleb128 0x4
 3560 013c 01       		.byte	0x1
 3561 013d 0B       		.uleb128 0xb
 3562 013e 0B       		.uleb128 0xb
 3563 013f 3A       		.uleb128 0x3a
 3564 0140 0B       		.uleb128 0xb
 3565 0141 3B       		.uleb128 0x3b
 3566 0142 0B       		.uleb128 0xb
 3567 0143 01       		.uleb128 0x1
 3568 0144 13       		.uleb128 0x13
 3569 0145 00       		.byte	0
 3570 0146 00       		.byte	0
 3571 0147 1C       		.uleb128 0x1c
 3572 0148 28       		.uleb128 0x28
 3573 0149 00       		.byte	0
 3574 014a 03       		.uleb128 0x3
 3575 014b 0E       		.uleb128 0xe
 3576 014c 1C       		.uleb128 0x1c
 3577 014d 0D       		.uleb128 0xd
 3578 014e 00       		.byte	0
 3579 014f 00       		.byte	0
 3580 0150 1D       		.uleb128 0x1d
 3581 0151 2E       		.uleb128 0x2e
 3582 0152 01       		.byte	0x1
 3583 0153 3F       		.uleb128 0x3f
 3584 0154 0C       		.uleb128 0xc
 3585 0155 03       		.uleb128 0x3
 3586 0156 0E       		.uleb128 0xe
 3587 0157 3A       		.uleb128 0x3a
 3588 0158 0B       		.uleb128 0xb
 3589 0159 3B       		.uleb128 0x3b
 3590 015a 0B       		.uleb128 0xb
 3591 015b 27       		.uleb128 0x27
 3592 015c 0C       		.uleb128 0xc
 3593 015d 49       		.uleb128 0x49
 3594 015e 13       		.uleb128 0x13
 3595 015f 11       		.uleb128 0x11
 3596 0160 01       		.uleb128 0x1
 3597 0161 12       		.uleb128 0x12
 3598 0162 01       		.uleb128 0x1
 3599 0163 40       		.uleb128 0x40
 3600 0164 06       		.uleb128 0x6
 3601 0165 9742     		.uleb128 0x2117
 3602 0167 0C       		.uleb128 0xc
 3603 0168 01       		.uleb128 0x1
 3604 0169 13       		.uleb128 0x13
 3605 016a 00       		.byte	0
 3606 016b 00       		.byte	0
 3607 016c 1E       		.uleb128 0x1e
 3608 016d 05       		.uleb128 0x5
 3609 016e 00       		.byte	0
 3610 016f 03       		.uleb128 0x3
 3611 0170 0E       		.uleb128 0xe
 3612 0171 3A       		.uleb128 0x3a
 3613 0172 0B       		.uleb128 0xb
 3614 0173 3B       		.uleb128 0x3b
ARM GAS  /var/folders/dt/0wfd0knj7gs46m8vwfzktm600000gn/T//ccadM7KO.s 			page 66


 3615 0174 0B       		.uleb128 0xb
 3616 0175 49       		.uleb128 0x49
 3617 0176 13       		.uleb128 0x13
 3618 0177 02       		.uleb128 0x2
 3619 0178 06       		.uleb128 0x6
 3620 0179 00       		.byte	0
 3621 017a 00       		.byte	0
 3622 017b 1F       		.uleb128 0x1f
 3623 017c 34       		.uleb128 0x34
 3624 017d 00       		.byte	0
 3625 017e 03       		.uleb128 0x3
 3626 017f 08       		.uleb128 0x8
 3627 0180 3A       		.uleb128 0x3a
 3628 0181 0B       		.uleb128 0xb
 3629 0182 3B       		.uleb128 0x3b
 3630 0183 0B       		.uleb128 0xb
 3631 0184 49       		.uleb128 0x49
 3632 0185 13       		.uleb128 0x13
 3633 0186 02       		.uleb128 0x2
 3634 0187 06       		.uleb128 0x6
 3635 0188 00       		.byte	0
 3636 0189 00       		.byte	0
 3637 018a 20       		.uleb128 0x20
 3638 018b 0B       		.uleb128 0xb
 3639 018c 01       		.byte	0x1
 3640 018d 55       		.uleb128 0x55
 3641 018e 06       		.uleb128 0x6
 3642 018f 01       		.uleb128 0x1
 3643 0190 13       		.uleb128 0x13
 3644 0191 00       		.byte	0
 3645 0192 00       		.byte	0
 3646 0193 21       		.uleb128 0x21
 3647 0194 898201   		.uleb128 0x4109
 3648 0197 01       		.byte	0x1
 3649 0198 11       		.uleb128 0x11
 3650 0199 01       		.uleb128 0x1
 3651 019a 31       		.uleb128 0x31
 3652 019b 13       		.uleb128 0x13
 3653 019c 01       		.uleb128 0x1
 3654 019d 13       		.uleb128 0x13
 3655 019e 00       		.byte	0
 3656 019f 00       		.byte	0
 3657 01a0 22       		.uleb128 0x22
 3658 01a1 8A8201   		.uleb128 0x410a
 3659 01a4 00       		.byte	0
 3660 01a5 02       		.uleb128 0x2
 3661 01a6 0A       		.uleb128 0xa
 3662 01a7 9142     		.uleb128 0x2111
 3663 01a9 0A       		.uleb128 0xa
 3664 01aa 00       		.byte	0
 3665 01ab 00       		.byte	0
 3666 01ac 23       		.uleb128 0x23
 3667 01ad 898201   		.uleb128 0x4109
 3668 01b0 01       		.byte	0x1
 3669 01b1 11       		.uleb128 0x11
 3670 01b2 01       		.uleb128 0x1
 3671 01b3 31       		.uleb128 0x31
ARM GAS  /var/folders/dt/0wfd0knj7gs46m8vwfzktm600000gn/T//ccadM7KO.s 			page 67


 3672 01b4 13       		.uleb128 0x13
 3673 01b5 00       		.byte	0
 3674 01b6 00       		.byte	0
 3675 01b7 24       		.uleb128 0x24
 3676 01b8 0B       		.uleb128 0xb
 3677 01b9 01       		.byte	0x1
 3678 01ba 11       		.uleb128 0x11
 3679 01bb 01       		.uleb128 0x1
 3680 01bc 12       		.uleb128 0x12
 3681 01bd 01       		.uleb128 0x1
 3682 01be 01       		.uleb128 0x1
 3683 01bf 13       		.uleb128 0x13
 3684 01c0 00       		.byte	0
 3685 01c1 00       		.byte	0
 3686 01c2 25       		.uleb128 0x25
 3687 01c3 0B       		.uleb128 0xb
 3688 01c4 01       		.byte	0x1
 3689 01c5 11       		.uleb128 0x11
 3690 01c6 01       		.uleb128 0x1
 3691 01c7 12       		.uleb128 0x12
 3692 01c8 01       		.uleb128 0x1
 3693 01c9 00       		.byte	0
 3694 01ca 00       		.byte	0
 3695 01cb 26       		.uleb128 0x26
 3696 01cc 2E       		.uleb128 0x2e
 3697 01cd 01       		.byte	0x1
 3698 01ce 3F       		.uleb128 0x3f
 3699 01cf 0C       		.uleb128 0xc
 3700 01d0 03       		.uleb128 0x3
 3701 01d1 0E       		.uleb128 0xe
 3702 01d2 3A       		.uleb128 0x3a
 3703 01d3 0B       		.uleb128 0xb
 3704 01d4 3B       		.uleb128 0x3b
 3705 01d5 0B       		.uleb128 0xb
 3706 01d6 27       		.uleb128 0x27
 3707 01d7 0C       		.uleb128 0xc
 3708 01d8 11       		.uleb128 0x11
 3709 01d9 01       		.uleb128 0x1
 3710 01da 12       		.uleb128 0x12
 3711 01db 01       		.uleb128 0x1
 3712 01dc 40       		.uleb128 0x40
 3713 01dd 0A       		.uleb128 0xa
 3714 01de 9742     		.uleb128 0x2117
 3715 01e0 0C       		.uleb128 0xc
 3716 01e1 01       		.uleb128 0x1
 3717 01e2 13       		.uleb128 0x13
 3718 01e3 00       		.byte	0
 3719 01e4 00       		.byte	0
 3720 01e5 27       		.uleb128 0x27
 3721 01e6 898201   		.uleb128 0x4109
 3722 01e9 01       		.byte	0x1
 3723 01ea 11       		.uleb128 0x11
 3724 01eb 01       		.uleb128 0x1
 3725 01ec 9542     		.uleb128 0x2115
 3726 01ee 0C       		.uleb128 0xc
 3727 01ef 31       		.uleb128 0x31
 3728 01f0 13       		.uleb128 0x13
ARM GAS  /var/folders/dt/0wfd0knj7gs46m8vwfzktm600000gn/T//ccadM7KO.s 			page 68


 3729 01f1 00       		.byte	0
 3730 01f2 00       		.byte	0
 3731 01f3 28       		.uleb128 0x28
 3732 01f4 05       		.uleb128 0x5
 3733 01f5 00       		.byte	0
 3734 01f6 03       		.uleb128 0x3
 3735 01f7 08       		.uleb128 0x8
 3736 01f8 3A       		.uleb128 0x3a
 3737 01f9 0B       		.uleb128 0xb
 3738 01fa 3B       		.uleb128 0x3b
 3739 01fb 0B       		.uleb128 0xb
 3740 01fc 49       		.uleb128 0x49
 3741 01fd 13       		.uleb128 0x13
 3742 01fe 02       		.uleb128 0x2
 3743 01ff 06       		.uleb128 0x6
 3744 0200 00       		.byte	0
 3745 0201 00       		.byte	0
 3746 0202 29       		.uleb128 0x29
 3747 0203 2E       		.uleb128 0x2e
 3748 0204 01       		.byte	0x1
 3749 0205 3F       		.uleb128 0x3f
 3750 0206 0C       		.uleb128 0xc
 3751 0207 03       		.uleb128 0x3
 3752 0208 0E       		.uleb128 0xe
 3753 0209 3A       		.uleb128 0x3a
 3754 020a 0B       		.uleb128 0xb
 3755 020b 3B       		.uleb128 0x3b
 3756 020c 0B       		.uleb128 0xb
 3757 020d 27       		.uleb128 0x27
 3758 020e 0C       		.uleb128 0xc
 3759 020f 11       		.uleb128 0x11
 3760 0210 01       		.uleb128 0x1
 3761 0211 12       		.uleb128 0x12
 3762 0212 01       		.uleb128 0x1
 3763 0213 40       		.uleb128 0x40
 3764 0214 06       		.uleb128 0x6
 3765 0215 9742     		.uleb128 0x2117
 3766 0217 0C       		.uleb128 0xc
 3767 0218 01       		.uleb128 0x1
 3768 0219 13       		.uleb128 0x13
 3769 021a 00       		.byte	0
 3770 021b 00       		.byte	0
 3771 021c 2A       		.uleb128 0x2a
 3772 021d 898201   		.uleb128 0x4109
 3773 0220 00       		.byte	0
 3774 0221 11       		.uleb128 0x11
 3775 0222 01       		.uleb128 0x1
 3776 0223 31       		.uleb128 0x31
 3777 0224 13       		.uleb128 0x13
 3778 0225 00       		.byte	0
 3779 0226 00       		.byte	0
 3780 0227 2B       		.uleb128 0x2b
 3781 0228 34       		.uleb128 0x34
 3782 0229 00       		.byte	0
 3783 022a 03       		.uleb128 0x3
 3784 022b 08       		.uleb128 0x8
 3785 022c 3A       		.uleb128 0x3a
ARM GAS  /var/folders/dt/0wfd0knj7gs46m8vwfzktm600000gn/T//ccadM7KO.s 			page 69


 3786 022d 0B       		.uleb128 0xb
 3787 022e 3B       		.uleb128 0x3b
 3788 022f 0B       		.uleb128 0xb
 3789 0230 49       		.uleb128 0x49
 3790 0231 13       		.uleb128 0x13
 3791 0232 02       		.uleb128 0x2
 3792 0233 0A       		.uleb128 0xa
 3793 0234 00       		.byte	0
 3794 0235 00       		.byte	0
 3795 0236 2C       		.uleb128 0x2c
 3796 0237 898201   		.uleb128 0x4109
 3797 023a 01       		.byte	0x1
 3798 023b 11       		.uleb128 0x11
 3799 023c 01       		.uleb128 0x1
 3800 023d 01       		.uleb128 0x1
 3801 023e 13       		.uleb128 0x13
 3802 023f 00       		.byte	0
 3803 0240 00       		.byte	0
 3804 0241 2D       		.uleb128 0x2d
 3805 0242 34       		.uleb128 0x34
 3806 0243 00       		.byte	0
 3807 0244 03       		.uleb128 0x3
 3808 0245 0E       		.uleb128 0xe
 3809 0246 3A       		.uleb128 0x3a
 3810 0247 0B       		.uleb128 0xb
 3811 0248 3B       		.uleb128 0x3b
 3812 0249 05       		.uleb128 0x5
 3813 024a 49       		.uleb128 0x49
 3814 024b 13       		.uleb128 0x13
 3815 024c 3F       		.uleb128 0x3f
 3816 024d 0C       		.uleb128 0xc
 3817 024e 3C       		.uleb128 0x3c
 3818 024f 0C       		.uleb128 0xc
 3819 0250 00       		.byte	0
 3820 0251 00       		.byte	0
 3821 0252 2E       		.uleb128 0x2e
 3822 0253 34       		.uleb128 0x34
 3823 0254 00       		.byte	0
 3824 0255 03       		.uleb128 0x3
 3825 0256 08       		.uleb128 0x8
 3826 0257 3A       		.uleb128 0x3a
 3827 0258 0B       		.uleb128 0xb
 3828 0259 3B       		.uleb128 0x3b
 3829 025a 0B       		.uleb128 0xb
 3830 025b 49       		.uleb128 0x49
 3831 025c 13       		.uleb128 0x13
 3832 025d 3F       		.uleb128 0x3f
 3833 025e 0C       		.uleb128 0xc
 3834 025f 3C       		.uleb128 0x3c
 3835 0260 0C       		.uleb128 0xc
 3836 0261 00       		.byte	0
 3837 0262 00       		.byte	0
 3838 0263 2F       		.uleb128 0x2f
 3839 0264 34       		.uleb128 0x34
 3840 0265 00       		.byte	0
 3841 0266 03       		.uleb128 0x3
 3842 0267 0E       		.uleb128 0xe
ARM GAS  /var/folders/dt/0wfd0knj7gs46m8vwfzktm600000gn/T//ccadM7KO.s 			page 70


 3843 0268 3A       		.uleb128 0x3a
 3844 0269 0B       		.uleb128 0xb
 3845 026a 3B       		.uleb128 0x3b
 3846 026b 0B       		.uleb128 0xb
 3847 026c 49       		.uleb128 0x49
 3848 026d 13       		.uleb128 0x13
 3849 026e 3F       		.uleb128 0x3f
 3850 026f 0C       		.uleb128 0xc
 3851 0270 02       		.uleb128 0x2
 3852 0271 0A       		.uleb128 0xa
 3853 0272 00       		.byte	0
 3854 0273 00       		.byte	0
 3855 0274 30       		.uleb128 0x30
 3856 0275 34       		.uleb128 0x34
 3857 0276 00       		.byte	0
 3858 0277 03       		.uleb128 0x3
 3859 0278 08       		.uleb128 0x8
 3860 0279 3A       		.uleb128 0x3a
 3861 027a 0B       		.uleb128 0xb
 3862 027b 3B       		.uleb128 0x3b
 3863 027c 0B       		.uleb128 0xb
 3864 027d 49       		.uleb128 0x49
 3865 027e 13       		.uleb128 0x13
 3866 027f 3F       		.uleb128 0x3f
 3867 0280 0C       		.uleb128 0xc
 3868 0281 02       		.uleb128 0x2
 3869 0282 0A       		.uleb128 0xa
 3870 0283 00       		.byte	0
 3871 0284 00       		.byte	0
 3872 0285 31       		.uleb128 0x31
 3873 0286 2E       		.uleb128 0x2e
 3874 0287 01       		.byte	0x1
 3875 0288 3F       		.uleb128 0x3f
 3876 0289 0C       		.uleb128 0xc
 3877 028a 03       		.uleb128 0x3
 3878 028b 0E       		.uleb128 0xe
 3879 028c 3A       		.uleb128 0x3a
 3880 028d 0B       		.uleb128 0xb
 3881 028e 3B       		.uleb128 0x3b
 3882 028f 0B       		.uleb128 0xb
 3883 0290 27       		.uleb128 0x27
 3884 0291 0C       		.uleb128 0xc
 3885 0292 49       		.uleb128 0x49
 3886 0293 13       		.uleb128 0x13
 3887 0294 3C       		.uleb128 0x3c
 3888 0295 0C       		.uleb128 0xc
 3889 0296 01       		.uleb128 0x1
 3890 0297 13       		.uleb128 0x13
 3891 0298 00       		.byte	0
 3892 0299 00       		.byte	0
 3893 029a 32       		.uleb128 0x32
 3894 029b 2E       		.uleb128 0x2e
 3895 029c 01       		.byte	0x1
 3896 029d 3F       		.uleb128 0x3f
 3897 029e 0C       		.uleb128 0xc
 3898 029f 03       		.uleb128 0x3
 3899 02a0 0E       		.uleb128 0xe
ARM GAS  /var/folders/dt/0wfd0knj7gs46m8vwfzktm600000gn/T//ccadM7KO.s 			page 71


 3900 02a1 3A       		.uleb128 0x3a
 3901 02a2 0B       		.uleb128 0xb
 3902 02a3 3B       		.uleb128 0x3b
 3903 02a4 0B       		.uleb128 0xb
 3904 02a5 27       		.uleb128 0x27
 3905 02a6 0C       		.uleb128 0xc
 3906 02a7 3C       		.uleb128 0x3c
 3907 02a8 0C       		.uleb128 0xc
 3908 02a9 01       		.uleb128 0x1
 3909 02aa 13       		.uleb128 0x13
 3910 02ab 00       		.byte	0
 3911 02ac 00       		.byte	0
 3912 02ad 33       		.uleb128 0x33
 3913 02ae 18       		.uleb128 0x18
 3914 02af 00       		.byte	0
 3915 02b0 00       		.byte	0
 3916 02b1 00       		.byte	0
 3917 02b2 34       		.uleb128 0x34
 3918 02b3 2E       		.uleb128 0x2e
 3919 02b4 01       		.byte	0x1
 3920 02b5 3F       		.uleb128 0x3f
 3921 02b6 0C       		.uleb128 0xc
 3922 02b7 03       		.uleb128 0x3
 3923 02b8 0E       		.uleb128 0xe
 3924 02b9 27       		.uleb128 0x27
 3925 02ba 0C       		.uleb128 0xc
 3926 02bb 49       		.uleb128 0x49
 3927 02bc 13       		.uleb128 0x13
 3928 02bd 34       		.uleb128 0x34
 3929 02be 0C       		.uleb128 0xc
 3930 02bf 3C       		.uleb128 0x3c
 3931 02c0 0C       		.uleb128 0xc
 3932 02c1 01       		.uleb128 0x1
 3933 02c2 13       		.uleb128 0x13
 3934 02c3 00       		.byte	0
 3935 02c4 00       		.byte	0
 3936 02c5 35       		.uleb128 0x35
 3937 02c6 26       		.uleb128 0x26
 3938 02c7 00       		.byte	0
 3939 02c8 00       		.byte	0
 3940 02c9 00       		.byte	0
 3941 02ca 36       		.uleb128 0x36
 3942 02cb 2E       		.uleb128 0x2e
 3943 02cc 01       		.byte	0x1
 3944 02cd 3F       		.uleb128 0x3f
 3945 02ce 0C       		.uleb128 0xc
 3946 02cf 03       		.uleb128 0x3
 3947 02d0 0E       		.uleb128 0xe
 3948 02d1 3A       		.uleb128 0x3a
 3949 02d2 0B       		.uleb128 0xb
 3950 02d3 3B       		.uleb128 0x3b
 3951 02d4 0B       		.uleb128 0xb
 3952 02d5 27       		.uleb128 0x27
 3953 02d6 0C       		.uleb128 0xc
 3954 02d7 3C       		.uleb128 0x3c
 3955 02d8 0C       		.uleb128 0xc
 3956 02d9 00       		.byte	0
ARM GAS  /var/folders/dt/0wfd0knj7gs46m8vwfzktm600000gn/T//ccadM7KO.s 			page 72


 3957 02da 00       		.byte	0
 3958 02db 00       		.byte	0
 3959              		.section	.debug_loc,"",%progbits
 3960              	.Ldebug_loc0:
 3961              	.LLST0:
 3962 0000 00000000 		.4byte	.LFB66
 3963 0004 04000000 		.4byte	.LCFI0
 3964 0008 0200     		.2byte	0x2
 3965 000a 7D       		.byte	0x7d
 3966 000b 00       		.sleb128 0
 3967 000c 04000000 		.4byte	.LCFI0
 3968 0010 BC000000 		.4byte	.LFE66
 3969 0014 0200     		.2byte	0x2
 3970 0016 7D       		.byte	0x7d
 3971 0017 20       		.sleb128 32
 3972 0018 00000000 		.4byte	0
 3973 001c 00000000 		.4byte	0
 3974              	.LLST1:
 3975 0020 00000000 		.4byte	.LVL0
 3976 0024 16000000 		.4byte	.LVL1
 3977 0028 0100     		.2byte	0x1
 3978 002a 50       		.byte	0x50
 3979 002b 16000000 		.4byte	.LVL1
 3980 002f 26000000 		.4byte	.LVL4
 3981 0033 0100     		.2byte	0x1
 3982 0035 55       		.byte	0x55
 3983 0036 26000000 		.4byte	.LVL4
 3984 003a 42000000 		.4byte	.LVL7
 3985 003e 0300     		.2byte	0x3
 3986 0040 75       		.byte	0x75
 3987 0041 01       		.sleb128 1
 3988 0042 9F       		.byte	0x9f
 3989 0043 42000000 		.4byte	.LVL7
 3990 0047 56000000 		.4byte	.LVL10
 3991 004b 0400     		.2byte	0x4
 3992 004d F3       		.byte	0xf3
 3993 004e 01       		.uleb128 0x1
 3994 004f 50       		.byte	0x50
 3995 0050 9F       		.byte	0x9f
 3996 0051 56000000 		.4byte	.LVL10
 3997 0055 66000000 		.4byte	.LVL12
 3998 0059 0100     		.2byte	0x1
 3999 005b 55       		.byte	0x55
 4000 005c 66000000 		.4byte	.LVL12
 4001 0060 72000000 		.4byte	.LVL13
 4002 0064 0400     		.2byte	0x4
 4003 0066 F3       		.byte	0xf3
 4004 0067 01       		.uleb128 0x1
 4005 0068 50       		.byte	0x50
 4006 0069 9F       		.byte	0x9f
 4007 006a 72000000 		.4byte	.LVL13
 4008 006e 7C000000 		.4byte	.LVL15
 4009 0072 0100     		.2byte	0x1
 4010 0074 50       		.byte	0x50
 4011 0075 7C000000 		.4byte	.LVL15
 4012 0079 98000000 		.4byte	.LVL18
 4013 007d 0400     		.2byte	0x4
ARM GAS  /var/folders/dt/0wfd0knj7gs46m8vwfzktm600000gn/T//ccadM7KO.s 			page 73


 4014 007f F3       		.byte	0xf3
 4015 0080 01       		.uleb128 0x1
 4016 0081 50       		.byte	0x50
 4017 0082 9F       		.byte	0x9f
 4018 0083 98000000 		.4byte	.LVL18
 4019 0087 9A000000 		.4byte	.LVL19
 4020 008b 0100     		.2byte	0x1
 4021 008d 50       		.byte	0x50
 4022 008e 9A000000 		.4byte	.LVL19
 4023 0092 9E000000 		.4byte	.LVL20
 4024 0096 0100     		.2byte	0x1
 4025 0098 55       		.byte	0x55
 4026 0099 9E000000 		.4byte	.LVL20
 4027 009d BC000000 		.4byte	.LFE66
 4028 00a1 0300     		.2byte	0x3
 4029 00a3 75       		.byte	0x75
 4030 00a4 01       		.sleb128 1
 4031 00a5 9F       		.byte	0x9f
 4032 00a6 00000000 		.4byte	0
 4033 00aa 00000000 		.4byte	0
 4034              	.LLST2:
 4035 00ae 00000000 		.4byte	.LVL0
 4036 00b2 18000000 		.4byte	.LVL2
 4037 00b6 0100     		.2byte	0x1
 4038 00b8 51       		.byte	0x51
 4039 00b9 18000000 		.4byte	.LVL2
 4040 00bd 66000000 		.4byte	.LVL12
 4041 00c1 0100     		.2byte	0x1
 4042 00c3 56       		.byte	0x56
 4043 00c4 66000000 		.4byte	.LVL12
 4044 00c8 72000000 		.4byte	.LVL13
 4045 00cc 0400     		.2byte	0x4
 4046 00ce F3       		.byte	0xf3
 4047 00cf 01       		.uleb128 0x1
 4048 00d0 51       		.byte	0x51
 4049 00d1 9F       		.byte	0x9f
 4050 00d2 72000000 		.4byte	.LVL13
 4051 00d6 7C000000 		.4byte	.LVL15
 4052 00da 0100     		.2byte	0x1
 4053 00dc 51       		.byte	0x51
 4054 00dd 7C000000 		.4byte	.LVL15
 4055 00e1 98000000 		.4byte	.LVL18
 4056 00e5 0400     		.2byte	0x4
 4057 00e7 F3       		.byte	0xf3
 4058 00e8 01       		.uleb128 0x1
 4059 00e9 51       		.byte	0x51
 4060 00ea 9F       		.byte	0x9f
 4061 00eb 98000000 		.4byte	.LVL18
 4062 00ef 9E000000 		.4byte	.LVL20
 4063 00f3 0100     		.2byte	0x1
 4064 00f5 51       		.byte	0x51
 4065 00f6 9E000000 		.4byte	.LVL20
 4066 00fa BC000000 		.4byte	.LFE66
 4067 00fe 0100     		.2byte	0x1
 4068 0100 56       		.byte	0x56
 4069 0101 00000000 		.4byte	0
 4070 0105 00000000 		.4byte	0
ARM GAS  /var/folders/dt/0wfd0knj7gs46m8vwfzktm600000gn/T//ccadM7KO.s 			page 74


 4071              	.LLST3:
 4072 0109 00000000 		.4byte	.LVL0
 4073 010d 3E000000 		.4byte	.LVL6
 4074 0111 0200     		.2byte	0x2
 4075 0113 30       		.byte	0x30
 4076 0114 9F       		.byte	0x9f
 4077 0115 3E000000 		.4byte	.LVL6
 4078 0119 56000000 		.4byte	.LVL10
 4079 011d 0100     		.2byte	0x1
 4080 011f 57       		.byte	0x57
 4081 0120 56000000 		.4byte	.LVL10
 4082 0124 5A000000 		.4byte	.LVL11
 4083 0128 0200     		.2byte	0x2
 4084 012a 30       		.byte	0x30
 4085 012b 9F       		.byte	0x9f
 4086 012c 66000000 		.4byte	.LVL12
 4087 0130 72000000 		.4byte	.LVL13
 4088 0134 0100     		.2byte	0x1
 4089 0136 57       		.byte	0x57
 4090 0137 72000000 		.4byte	.LVL13
 4091 013b 7C000000 		.4byte	.LVL15
 4092 013f 0200     		.2byte	0x2
 4093 0141 30       		.byte	0x30
 4094 0142 9F       		.byte	0x9f
 4095 0143 92000000 		.4byte	.LVL17
 4096 0147 98000000 		.4byte	.LVL18
 4097 014b 0100     		.2byte	0x1
 4098 014d 57       		.byte	0x57
 4099 014e 98000000 		.4byte	.LVL18
 4100 0152 A0000000 		.4byte	.LVL21
 4101 0156 0200     		.2byte	0x2
 4102 0158 30       		.byte	0x30
 4103 0159 9F       		.byte	0x9f
 4104 015a A0000000 		.4byte	.LVL21
 4105 015e BC000000 		.4byte	.LFE66
 4106 0162 0200     		.2byte	0x2
 4107 0164 31       		.byte	0x31
 4108 0165 9F       		.byte	0x9f
 4109 0166 00000000 		.4byte	0
 4110 016a 00000000 		.4byte	0
 4111              	.LLST4:
 4112 016e 3E000000 		.4byte	.LVL6
 4113 0172 54000000 		.4byte	.LVL9
 4114 0176 0200     		.2byte	0x2
 4115 0178 31       		.byte	0x31
 4116 0179 9F       		.byte	0x9f
 4117 017a 54000000 		.4byte	.LVL9
 4118 017e 56000000 		.4byte	.LVL10
 4119 0182 0200     		.2byte	0x2
 4120 0184 32       		.byte	0x32
 4121 0185 9F       		.byte	0x9f
 4122 0186 00000000 		.4byte	0
 4123 018a 00000000 		.4byte	0
 4124              	.LLST5:
 4125 018e 78000000 		.4byte	.LVL14
 4126 0192 98000000 		.4byte	.LVL18
 4127 0196 0100     		.2byte	0x1
ARM GAS  /var/folders/dt/0wfd0knj7gs46m8vwfzktm600000gn/T//ccadM7KO.s 			page 75


 4128 0198 59       		.byte	0x59
 4129 0199 00000000 		.4byte	0
 4130 019d 00000000 		.4byte	0
 4131              	.LLST6:
 4132 01a1 78000000 		.4byte	.LVL14
 4133 01a5 7C000000 		.4byte	.LVL15
 4134 01a9 0200     		.2byte	0x2
 4135 01ab 30       		.byte	0x30
 4136 01ac 9F       		.byte	0x9f
 4137 01ad 00000000 		.4byte	0
 4138 01b1 00000000 		.4byte	0
 4139              	.LLST7:
 4140 01b5 00000000 		.4byte	.LVL22
 4141 01b9 03000000 		.4byte	.LVL23-1
 4142 01bd 0100     		.2byte	0x1
 4143 01bf 50       		.byte	0x50
 4144 01c0 03000000 		.4byte	.LVL23-1
 4145 01c4 04000000 		.4byte	.LFE65
 4146 01c8 0400     		.2byte	0x4
 4147 01ca F3       		.byte	0xf3
 4148 01cb 01       		.uleb128 0x1
 4149 01cc 50       		.byte	0x50
 4150 01cd 9F       		.byte	0x9f
 4151 01ce 00000000 		.4byte	0
 4152 01d2 00000000 		.4byte	0
 4153              	.LLST8:
 4154 01d6 00000000 		.4byte	.LVL24
 4155 01da 0A000000 		.4byte	.LVL25
 4156 01de 0100     		.2byte	0x1
 4157 01e0 50       		.byte	0x50
 4158 01e1 0A000000 		.4byte	.LVL25
 4159 01e5 15000000 		.4byte	.LVL26-1
 4160 01e9 0100     		.2byte	0x1
 4161 01eb 52       		.byte	0x52
 4162 01ec 15000000 		.4byte	.LVL26-1
 4163 01f0 16000000 		.4byte	.LFE62
 4164 01f4 0400     		.2byte	0x4
 4165 01f6 F3       		.byte	0xf3
 4166 01f7 01       		.uleb128 0x1
 4167 01f8 50       		.byte	0x50
 4168 01f9 9F       		.byte	0x9f
 4169 01fa 00000000 		.4byte	0
 4170 01fe 00000000 		.4byte	0
 4171              	.LLST9:
 4172 0202 00000000 		.4byte	.LFB63
 4173 0206 06000000 		.4byte	.LCFI1
 4174 020a 0200     		.2byte	0x2
 4175 020c 7D       		.byte	0x7d
 4176 020d 00       		.sleb128 0
 4177 020e 06000000 		.4byte	.LCFI1
 4178 0212 5A000000 		.4byte	.LFE63
 4179 0216 0200     		.2byte	0x2
 4180 0218 7D       		.byte	0x7d
 4181 0219 08       		.sleb128 8
 4182 021a 00000000 		.4byte	0
 4183 021e 00000000 		.4byte	0
 4184              	.LLST10:
ARM GAS  /var/folders/dt/0wfd0knj7gs46m8vwfzktm600000gn/T//ccadM7KO.s 			page 76


 4185 0222 00000000 		.4byte	.LFB64
 4186 0226 04000000 		.4byte	.LCFI2
 4187 022a 0200     		.2byte	0x2
 4188 022c 7D       		.byte	0x7d
 4189 022d 00       		.sleb128 0
 4190 022e 04000000 		.4byte	.LCFI2
 4191 0232 88010000 		.4byte	.LFE64
 4192 0236 0200     		.2byte	0x2
 4193 0238 7D       		.byte	0x7d
 4194 0239 20       		.sleb128 32
 4195 023a 00000000 		.4byte	0
 4196 023e 00000000 		.4byte	0
 4197              	.LLST11:
 4198 0242 00000000 		.4byte	.LVL34
 4199 0246 12000000 		.4byte	.LVL35
 4200 024a 0100     		.2byte	0x1
 4201 024c 50       		.byte	0x50
 4202 024d 12000000 		.4byte	.LVL35
 4203 0251 88010000 		.4byte	.LFE64
 4204 0255 0100     		.2byte	0x1
 4205 0257 56       		.byte	0x56
 4206 0258 00000000 		.4byte	0
 4207 025c 00000000 		.4byte	0
 4208              	.LLST12:
 4209 0260 00000000 		.4byte	.LVL34
 4210 0264 12000000 		.4byte	.LVL35
 4211 0268 0100     		.2byte	0x1
 4212 026a 51       		.byte	0x51
 4213 026b 12000000 		.4byte	.LVL35
 4214 026f 88010000 		.4byte	.LFE64
 4215 0273 0100     		.2byte	0x1
 4216 0275 57       		.byte	0x57
 4217 0276 00000000 		.4byte	0
 4218 027a 00000000 		.4byte	0
 4219              	.LLST13:
 4220 027e 00000000 		.4byte	.LVL34
 4221 0282 12000000 		.4byte	.LVL35
 4222 0286 0200     		.2byte	0x2
 4223 0288 30       		.byte	0x30
 4224 0289 9F       		.byte	0x9f
 4225 028a 14000000 		.4byte	.LVL36
 4226 028e 36000000 		.4byte	.LVL40
 4227 0292 0100     		.2byte	0x1
 4228 0294 54       		.byte	0x54
 4229 0295 60000000 		.4byte	.LVL44
 4230 0299 84000000 		.4byte	.LVL47
 4231 029d 0100     		.2byte	0x1
 4232 029f 54       		.byte	0x54
 4233 02a0 84000000 		.4byte	.LVL47
 4234 02a4 88000000 		.4byte	.LVL48
 4235 02a8 0300     		.2byte	0x3
 4236 02aa 74       		.byte	0x74
 4237 02ab 7F       		.sleb128 -1
 4238 02ac 9F       		.byte	0x9f
 4239 02ad 88000000 		.4byte	.LVL48
 4240 02b1 8C000000 		.4byte	.LVL49
 4241 02b5 0100     		.2byte	0x1
ARM GAS  /var/folders/dt/0wfd0knj7gs46m8vwfzktm600000gn/T//ccadM7KO.s 			page 77


 4242 02b7 54       		.byte	0x54
 4243 02b8 D4000000 		.4byte	.LVL59
 4244 02bc EA000000 		.4byte	.LVL63
 4245 02c0 0100     		.2byte	0x1
 4246 02c2 54       		.byte	0x54
 4247 02c3 00010000 		.4byte	.LVL67
 4248 02c7 08010000 		.4byte	.LVL69
 4249 02cb 0100     		.2byte	0x1
 4250 02cd 54       		.byte	0x54
 4251 02ce 16010000 		.4byte	.LVL72
 4252 02d2 88010000 		.4byte	.LFE64
 4253 02d6 0100     		.2byte	0x1
 4254 02d8 54       		.byte	0x54
 4255 02d9 00000000 		.4byte	0
 4256 02dd 00000000 		.4byte	0
 4257              	.LLST14:
 4258 02e1 B8000000 		.4byte	.LVL54
 4259 02e5 BA000000 		.4byte	.LVL55
 4260 02e9 0200     		.2byte	0x2
 4261 02eb 30       		.byte	0x30
 4262 02ec 9F       		.byte	0x9f
 4263 02ed 00000000 		.4byte	0
 4264 02f1 00000000 		.4byte	0
 4265              	.LLST15:
 4266 02f5 00000000 		.4byte	.LFB67
 4267 02f9 02000000 		.4byte	.LCFI3
 4268 02fd 0200     		.2byte	0x2
 4269 02ff 7D       		.byte	0x7d
 4270 0300 00       		.sleb128 0
 4271 0301 02000000 		.4byte	.LCFI3
 4272 0305 04000000 		.4byte	.LCFI4
 4273 0309 0200     		.2byte	0x2
 4274 030b 7D       		.byte	0x7d
 4275 030c 08       		.sleb128 8
 4276 030d 04000000 		.4byte	.LCFI4
 4277 0311 50000000 		.4byte	.LFE67
 4278 0315 0300     		.2byte	0x3
 4279 0317 7D       		.byte	0x7d
 4280 0318 B803     		.sleb128 440
 4281 031a 00000000 		.4byte	0
 4282 031e 00000000 		.4byte	0
 4283              	.LLST16:
 4284 0322 34000000 		.4byte	.LVL81
 4285 0326 36000000 		.4byte	.LVL82
 4286 032a 0100     		.2byte	0x1
 4287 032c 50       		.byte	0x50
 4288 032d 36000000 		.4byte	.LVL82
 4289 0331 39000000 		.4byte	.LVL83-1
 4290 0335 0100     		.2byte	0x1
 4291 0337 51       		.byte	0x51
 4292 0338 00000000 		.4byte	0
 4293 033c 00000000 		.4byte	0
 4294              		.section	.debug_aranges,"",%progbits
 4295 0000 44000000 		.4byte	0x44
 4296 0004 0200     		.2byte	0x2
 4297 0006 00000000 		.4byte	.Ldebug_info0
 4298 000a 04       		.byte	0x4
ARM GAS  /var/folders/dt/0wfd0knj7gs46m8vwfzktm600000gn/T//ccadM7KO.s 			page 78


 4299 000b 00       		.byte	0
 4300 000c 0000     		.2byte	0
 4301 000e 0000     		.2byte	0
 4302 0010 00000000 		.4byte	.LFB66
 4303 0014 BC000000 		.4byte	.LFE66-.LFB66
 4304 0018 00000000 		.4byte	.LFB65
 4305 001c 04000000 		.4byte	.LFE65-.LFB65
 4306 0020 00000000 		.4byte	.LFB62
 4307 0024 16000000 		.4byte	.LFE62-.LFB62
 4308 0028 00000000 		.4byte	.LFB63
 4309 002c 5A000000 		.4byte	.LFE63-.LFB63
 4310 0030 00000000 		.4byte	.LFB64
 4311 0034 88010000 		.4byte	.LFE64-.LFB64
 4312 0038 00000000 		.4byte	.LFB67
 4313 003c 50000000 		.4byte	.LFE67-.LFB67
 4314 0040 00000000 		.4byte	0
 4315 0044 00000000 		.4byte	0
 4316              		.section	.debug_ranges,"",%progbits
 4317              	.Ldebug_ranges0:
 4318 0000 20000000 		.4byte	.LBB2
 4319 0004 58000000 		.4byte	.LBE2
 4320 0008 9E000000 		.4byte	.LBB5
 4321 000c BC000000 		.4byte	.LBE5
 4322 0010 00000000 		.4byte	0
 4323 0014 00000000 		.4byte	0
 4324 0018 00000000 		.4byte	.LFB66
 4325 001c BC000000 		.4byte	.LFE66
 4326 0020 00000000 		.4byte	.LFB65
 4327 0024 04000000 		.4byte	.LFE65
 4328 0028 00000000 		.4byte	.LFB62
 4329 002c 16000000 		.4byte	.LFE62
 4330 0030 00000000 		.4byte	.LFB63
 4331 0034 5A000000 		.4byte	.LFE63
 4332 0038 00000000 		.4byte	.LFB64
 4333 003c 88010000 		.4byte	.LFE64
 4334 0040 00000000 		.4byte	.LFB67
 4335 0044 50000000 		.4byte	.LFE67
 4336 0048 00000000 		.4byte	0
 4337 004c 00000000 		.4byte	0
 4338              		.section	.debug_line,"",%progbits
 4339              	.Ldebug_line0:
 4340 0000 A3030000 		.section	.debug_str,"MS",%progbits,1
 4340      02009102 
 4340      00000201 
 4340      FB0E0D00 
 4340      01010101 
 4341              	.LASF13:
 4342 0000 73697A65 		.ascii	"size_t\000"
 4342      5F7400
 4343              	.LASF30:
 4344 0007 75696E74 		.ascii	"uint64_t\000"
 4344      36345F74 
 4344      00
 4345              	.LASF144:
 4346 0010 6D696372 		.ascii	"microshell2.c\000"
 4346      6F736865 
 4346      6C6C322E 
ARM GAS  /var/folders/dt/0wfd0knj7gs46m8vwfzktm600000gn/T//ccadM7KO.s 			page 79


 4346      6300
 4347              	.LASF90:
 4348 001e 4F757470 		.ascii	"OutputQueue\000"
 4348      75745175 
 4348      65756500 
 4349              	.LASF133:
 4350 002a 73747273 		.ascii	"strstr\000"
 4350      747200
 4351              	.LASF140:
 4352 0031 6D696372 		.ascii	"microrl_set_execute_callback\000"
 4352      6F726C5F 
 4352      7365745F 
 4352      65786563 
 4352      7574655F 
 4353              	.LASF31:
 4354 004e 75696E74 		.ascii	"uint_fast16_t\000"
 4354      5F666173 
 4354      7431365F 
 4354      7400
 4355              	.LASF6:
 4356 005c 6C6F6E67 		.ascii	"long long unsigned int\000"
 4356      206C6F6E 
 4356      6720756E 
 4356      7369676E 
 4356      65642069 
 4357              	.LASF91:
 4358 0073 42617365 		.ascii	"BaseChannelVMT\000"
 4358      4368616E 
 4358      6E656C56 
 4358      4D5400
 4359              	.LASF77:
 4360 0082 65786974 		.ascii	"exitcode\000"
 4360      636F6465 
 4360      00
 4361              	.LASF23:
 4362 008b 7072696E 		.ascii	"print\000"
 4362      7400
 4363              	.LASF15:
 4364 0091 72696E67 		.ascii	"ring_hist\000"
 4364      5F686973 
 4364      7400
 4365              	.LASF128:
 4366 009b 49544D5F 		.ascii	"ITM_RxBuffer\000"
 4366      52784275 
 4366      66666572 
 4366      00
 4367              	.LASF43:
 4368 00a8 705F7072 		.ascii	"p_prio\000"
 4368      696F00
 4369              	.LASF97:
 4370 00af 72656164 		.ascii	"readt\000"
 4370      7400
 4371              	.LASF81:
 4372 00b5 715F7761 		.ascii	"q_waiting\000"
 4372      6974696E 
 4372      6700
 4373              	.LASF5:
ARM GAS  /var/folders/dt/0wfd0knj7gs46m8vwfzktm600000gn/T//ccadM7KO.s 			page 80


 4374 00bf 6C6F6E67 		.ascii	"long long int\000"
 4374      206C6F6E 
 4374      6720696E 
 4374      7400
 4375              	.LASF0:
 4376 00cd 7369676E 		.ascii	"signed char\000"
 4376      65642063 
 4376      68617200 
 4377              	.LASF106:
 4378 00d9 47545052 		.ascii	"GTPR\000"
 4378      00
 4379              	.LASF59:
 4380 00de 705F6D70 		.ascii	"p_mpool\000"
 4380      6F6F6C00 
 4381              	.LASF32:
 4382 00e6 626F6F6C 		.ascii	"bool_t\000"
 4382      5F7400
 4383              	.LASF67:
 4384 00ed 6D5F7175 		.ascii	"m_queue\000"
 4384      65756500 
 4385              	.LASF16:
 4386 00f5 70726F6D 		.ascii	"prompt_str\000"
 4386      70745F73 
 4386      747200
 4387              	.LASF116:
 4388 0100 73746174 		.ascii	"state\000"
 4388      6500
 4389              	.LASF7:
 4390 0106 6C6F6E67 		.ascii	"long int\000"
 4390      20696E74 
 4390      00
 4391              	.LASF34:
 4392 010f 74737461 		.ascii	"tstate_t\000"
 4392      74655F74 
 4392      00
 4393              	.LASF138:
 4394 0118 6D656D63 		.ascii	"memcpy\000"
 4394      707900
 4395              	.LASF51:
 4396 011f 705F7265 		.ascii	"p_refs\000"
 4396      667300
 4397              	.LASF83:
 4398 0126 715F6275 		.ascii	"q_buffer\000"
 4398      66666572 
 4398      00
 4399              	.LASF85:
 4400 012f 715F7772 		.ascii	"q_wrptr\000"
 4400      70747200 
 4401              	.LASF135:
 4402 0137 6D6C6162 		.ascii	"mlab_sigint\000"
 4402      5F736967 
 4402      696E7400 
 4403              	.LASF17:
 4404 0143 636D646C 		.ascii	"cmdline\000"
 4404      696E6500 
 4405              	.LASF124:
 4406 014b 74686973 		.ascii	"this\000"
ARM GAS  /var/folders/dt/0wfd0knj7gs46m8vwfzktm600000gn/T//ccadM7KO.s 			page 81


 4406      00
 4407              	.LASF45:
 4408 0150 705F6E65 		.ascii	"p_newer\000"
 4408      77657200 
 4409              	.LASF94:
 4410 0158 70757477 		.ascii	"putwouldblock\000"
 4410      6F756C64 
 4410      626C6F63 
 4410      6B00
 4411              	.LASF141:
 4412 0166 6D696372 		.ascii	"microrl_set_complete_callback\000"
 4412      6F726C5F 
 4412      7365745F 
 4412      636F6D70 
 4412      6C657465 
 4413              	.LASF62:
 4414 0184 72656761 		.ascii	"regarm_t\000"
 4414      726D5F74 
 4414      00
 4415              	.LASF130:
 4416 018d 7665725F 		.ascii	"ver_keyworld\000"
 4416      6B657977 
 4416      6F726C64 
 4416      00
 4417              	.LASF14:
 4418 019a 72696E67 		.ascii	"ring_history_t\000"
 4418      5F686973 
 4418      746F7279 
 4418      5F7400
 4419              	.LASF25:
 4420 01a9 6D696372 		.ascii	"microrl_t\000"
 4420      6F726C5F 
 4420      7400
 4421              	.LASF74:
 4422 01b3 4576656E 		.ascii	"EventSource\000"
 4422      74536F75 
 4422      72636500 
 4423              	.LASF119:
 4424 01bf 75736172 		.ascii	"usart\000"
 4424      7400
 4425              	.LASF4:
 4426 01c5 756E7369 		.ascii	"unsigned int\000"
 4426      676E6564 
 4426      20696E74 
 4426      00
 4427              	.LASF20:
 4428 01d2 746B6E5F 		.ascii	"tkn_arr\000"
 4428      61727200 
 4429              	.LASF27:
 4430 01da 75696E74 		.ascii	"uint16_t\000"
 4430      31365F74 
 4430      00
 4431              	.LASF120:
 4432 01e3 53657269 		.ascii	"SerialDriverVMT\000"
 4432      616C4472 
 4432      69766572 
 4432      564D5400 
ARM GAS  /var/folders/dt/0wfd0knj7gs46m8vwfzktm600000gn/T//ccadM7KO.s 			page 82


 4433              	.LASF52:
 4434 01f3 705F7469 		.ascii	"p_time\000"
 4434      6D6500
 4435              	.LASF137:
 4436 01fa 7374726C 		.ascii	"strlen\000"
 4436      656E00
 4437              	.LASF117:
 4438 0201 69717565 		.ascii	"iqueue\000"
 4438      756500
 4439              	.LASF54:
 4440 0208 705F6D73 		.ascii	"p_msgqueue\000"
 4440      67717565 
 4440      756500
 4441              	.LASF132:
 4442 0213 6E616D65 		.ascii	"name\000"
 4442      00
 4443              	.LASF24:
 4444 0218 73696769 		.ascii	"sigint\000"
 4444      6E7400
 4445              	.LASF114:
 4446 021f 6576656E 		.ascii	"event\000"
 4446      7400
 4447              	.LASF18:
 4448 0225 636D646C 		.ascii	"cmdlen\000"
 4448      656E00
 4449              	.LASF3:
 4450 022c 73686F72 		.ascii	"short unsigned int\000"
 4450      7420756E 
 4450      7369676E 
 4450      65642069 
 4450      6E7400
 4451              	.LASF37:
 4452 023f 6D73675F 		.ascii	"msg_t\000"
 4452      7400
 4453              	.LASF118:
 4454 0245 6F717565 		.ascii	"oqueue\000"
 4454      756500
 4455              	.LASF108:
 4456 024c 55534152 		.ascii	"USART_TypeDef\000"
 4456      545F5479 
 4456      70654465 
 4456      6600
 4457              	.LASF96:
 4458 025a 77726974 		.ascii	"writet\000"
 4458      657400
 4459              	.LASF33:
 4460 0261 746D6F64 		.ascii	"tmode_t\000"
 4460      655F7400 
 4461              	.LASF61:
 4462 0269 54687265 		.ascii	"ThreadsList\000"
 4462      6164734C 
 4462      69737400 
 4463              	.LASF38:
 4464 0275 6576656E 		.ascii	"eventmask_t\000"
 4464      746D6173 
 4464      6B5F7400 
 4465              	.LASF88:
ARM GAS  /var/folders/dt/0wfd0knj7gs46m8vwfzktm600000gn/T//ccadM7KO.s 			page 83


 4466 0281 716E6F74 		.ascii	"qnotify_t\000"
 4466      6966795F 
 4466      7400
 4467              	.LASF131:
 4468 028b 636F6D70 		.ascii	"compl_world\000"
 4468      6C5F776F 
 4468      726C6400 
 4469              	.LASF80:
 4470 0297 47656E65 		.ascii	"GenericQueue\000"
 4470      72696351 
 4470      75657565 
 4470      00
 4471              	.LASF134:
 4472 02a4 73747263 		.ascii	"strcmp\000"
 4472      6D7000
 4473              	.LASF63:
 4474 02ab 73746B61 		.ascii	"stkalign_t\000"
 4474      6C69676E 
 4474      5F7400
 4475              	.LASF126:
 4476 02b6 636F6D70 		.ascii	"complete\000"
 4476      6C657465 
 4476      00
 4477              	.LASF92:
 4478 02bf 77726974 		.ascii	"write\000"
 4478      6500
 4479              	.LASF8:
 4480 02c5 73697A65 		.ascii	"sizetype\000"
 4480      74797065 
 4480      00
 4481              	.LASF82:
 4482 02ce 715F636F 		.ascii	"q_counter\000"
 4482      756E7465 
 4482      7200
 4483              	.LASF66:
 4484 02d8 4D757465 		.ascii	"Mutex\000"
 4484      7800
 4485              	.LASF11:
 4486 02de 72696E67 		.ascii	"ring_buf\000"
 4486      5F627566 
 4486      00
 4487              	.LASF46:
 4488 02e7 705F6F6C 		.ascii	"p_older\000"
 4488      64657200 
 4489              	.LASF99:
 4490 02ef 696F666C 		.ascii	"ioflags_t\000"
 4490      6167735F 
 4490      7400
 4491              	.LASF60:
 4492 02f9 54687265 		.ascii	"ThreadsQueue\000"
 4492      61647351 
 4492      75657565 
 4492      00
 4493              	.LASF48:
 4494 0306 705F7374 		.ascii	"p_stklimit\000"
 4494      6B6C696D 
 4494      697400
ARM GAS  /var/folders/dt/0wfd0knj7gs46m8vwfzktm600000gn/T//ccadM7KO.s 			page 84


 4495              	.LASF19:
 4496 0311 63757273 		.ascii	"cursor\000"
 4496      6F7200
 4497              	.LASF143:
 4498 0318 474E5520 		.ascii	"GNU C 4.7.2\000"
 4498      4320342E 
 4498      372E3200 
 4499              	.LASF73:
 4500 0324 656C5F6D 		.ascii	"el_mask\000"
 4500      61736B00 
 4501              	.LASF146:
 4502 032c 6D696372 		.ascii	"microrl_insert_char\000"
 4502      6F726C5F 
 4502      696E7365 
 4502      72745F63 
 4502      68617200 
 4503              	.LASF22:
 4504 0340 6765745F 		.ascii	"get_completion\000"
 4504      636F6D70 
 4504      6C657469 
 4504      6F6E00
 4505              	.LASF35:
 4506 034f 74726566 		.ascii	"trefs_t\000"
 4506      735F7400 
 4507              	.LASF100:
 4508 0357 52455345 		.ascii	"RESERVED0\000"
 4508      52564544 
 4508      3000
 4509              	.LASF101:
 4510 0361 52455345 		.ascii	"RESERVED1\000"
 4510      52564544 
 4510      3100
 4511              	.LASF102:
 4512 036b 52455345 		.ascii	"RESERVED2\000"
 4512      52564544 
 4512      3200
 4513              	.LASF103:
 4514 0375 52455345 		.ascii	"RESERVED3\000"
 4514      52564544 
 4514      3300
 4515              	.LASF104:
 4516 037f 52455345 		.ascii	"RESERVED4\000"
 4516      52564544 
 4516      3400
 4517              	.LASF42:
 4518 0389 705F7072 		.ascii	"p_prev\000"
 4518      657600
 4519              	.LASF107:
 4520 0390 52455345 		.ascii	"RESERVED6\000"
 4520      52564544 
 4520      3600
 4521              	.LASF21:
 4522 039a 65786563 		.ascii	"execute\000"
 4522      75746500 
 4523              	.LASF36:
 4524 03a2 74707269 		.ascii	"tprio_t\000"
 4524      6F5F7400 
ARM GAS  /var/folders/dt/0wfd0knj7gs46m8vwfzktm600000gn/T//ccadM7KO.s 			page 85


 4525              	.LASF86:
 4526 03aa 715F7264 		.ascii	"q_rdptr\000"
 4526      70747200 
 4527              	.LASF28:
 4528 03b2 696E7433 		.ascii	"int32_t\000"
 4528      325F7400 
 4529              	.LASF1:
 4530 03ba 756E7369 		.ascii	"unsigned char\000"
 4530      676E6564 
 4530      20636861 
 4530      7200
 4531              	.LASF72:
 4532 03c8 656C5F6C 		.ascii	"el_listener\000"
 4532      69737465 
 4532      6E657200 
 4533              	.LASF57:
 4534 03d4 705F6D74 		.ascii	"p_mtxlist\000"
 4534      786C6973 
 4534      7400
 4535              	.LASF2:
 4536 03de 73686F72 		.ascii	"short int\000"
 4536      7420696E 
 4536      7400
 4537              	.LASF49:
 4538 03e8 705F7374 		.ascii	"p_state\000"
 4538      61746500 
 4539              	.LASF79:
 4540 03f0 65776D61 		.ascii	"ewmask\000"
 4540      736B00
 4541              	.LASF41:
 4542 03f7 705F6E65 		.ascii	"p_next\000"
 4542      787400
 4543              	.LASF50:
 4544 03fe 705F666C 		.ascii	"p_flags\000"
 4544      61677300 
 4545              	.LASF71:
 4546 0406 656C5F6E 		.ascii	"el_next\000"
 4546      65787400 
 4547              	.LASF110:
 4548 040e 53445F53 		.ascii	"SD_STOP\000"
 4548      544F5000 
 4549              	.LASF139:
 4550 0416 6D696372 		.ascii	"microrl_init\000"
 4550      6F726C5F 
 4550      696E6974 
 4550      00
 4551              	.LASF56:
 4552 0423 705F6570 		.ascii	"p_epending\000"
 4552      656E6469 
 4552      6E6700
 4553              	.LASF109:
 4554 042e 53445F55 		.ascii	"SD_UNINIT\000"
 4554      4E494E49 
 4554      5400
 4555              	.LASF105:
 4556 0438 52455345 		.ascii	"RESERVED5\000"
 4556      52564544 
ARM GAS  /var/folders/dt/0wfd0knj7gs46m8vwfzktm600000gn/T//ccadM7KO.s 			page 86


 4556      3500
 4557              	.LASF29:
 4558 0442 75696E74 		.ascii	"uint32_t\000"
 4558      33325F74 
 4558      00
 4559              	.LASF112:
 4560 044b 73647374 		.ascii	"sdstate_t\000"
 4560      6174655F 
 4560      7400
 4561              	.LASF113:
 4562 0455 53657269 		.ascii	"SerialDriver\000"
 4562      616C4472 
 4562      69766572 
 4562      00
 4563              	.LASF9:
 4564 0462 6C6F6E67 		.ascii	"long unsigned int\000"
 4564      20756E73 
 4564      69676E65 
 4564      6420696E 
 4564      7400
 4565              	.LASF93:
 4566 0474 72656164 		.ascii	"read\000"
 4566      00
 4567              	.LASF10:
 4568 0479 63686172 		.ascii	"char\000"
 4568      00
 4569              	.LASF69:
 4570 047e 6D5F6E65 		.ascii	"m_next\000"
 4570      787400
 4571              	.LASF39:
 4572 0485 73797374 		.ascii	"systime_t\000"
 4572      696D655F 
 4572      7400
 4573              	.LASF58:
 4574 048f 705F7265 		.ascii	"p_realprio\000"
 4574      616C7072 
 4574      696F00
 4575              	.LASF127:
 4576 049a 73746172 		.ascii	"start_shell\000"
 4576      745F7368 
 4576      656C6C00 
 4577              	.LASF47:
 4578 04a6 705F6E61 		.ascii	"p_name\000"
 4578      6D6500
 4579              	.LASF145:
 4580 04ad 2F746D70 		.ascii	"/tmp/mlab-chibios/demos/STM32F107-serialshell\000"
 4580      2F6D6C61 
 4580      622D6368 
 4580      6962696F 
 4580      732F6465 
 4581              	.LASF121:
 4582 04db 67657466 		.ascii	"getflags\000"
 4582      6C616773 
 4582      00
 4583              	.LASF65:
 4584 04e4 636F6E74 		.ascii	"context\000"
 4584      65787400 
ARM GAS  /var/folders/dt/0wfd0knj7gs46m8vwfzktm600000gn/T//ccadM7KO.s 			page 87


 4585              	.LASF64:
 4586 04ec 696E7463 		.ascii	"intctx\000"
 4586      747800
 4587              	.LASF111:
 4588 04f3 53445F52 		.ascii	"SD_READY\000"
 4588      45414459 
 4588      00
 4589              	.LASF142:
 4590 04fc 6D696372 		.ascii	"microrl_set_sigint_callback\000"
 4590      6F726C5F 
 4590      7365745F 
 4590      73696769 
 4590      6E745F63 
 4591              	.LASF84:
 4592 0518 715F746F 		.ascii	"q_top\000"
 4592      7000
 4593              	.LASF76:
 4594 051e 7264796D 		.ascii	"rdymsg\000"
 4594      736700
 4595              	.LASF75:
 4596 0525 65735F6E 		.ascii	"es_next\000"
 4596      65787400 
 4597              	.LASF40:
 4598 052d 54687265 		.ascii	"Thread\000"
 4598      616400
 4599              	.LASF87:
 4600 0534 715F6E6F 		.ascii	"q_notify\000"
 4600      74696679 
 4600      00
 4601              	.LASF55:
 4602 053d 705F6D73 		.ascii	"p_msg\000"
 4602      6700
 4603              	.LASF26:
 4604 0543 75696E74 		.ascii	"uint8_t\000"
 4604      385F7400 
 4605              	.LASF89:
 4606 054b 496E7075 		.ascii	"InputQueue\000"
 4606      74517565 
 4606      756500
 4607              	.LASF98:
 4608 0556 42617365 		.ascii	"BaseChannel\000"
 4608      4368616E 
 4608      6E656C00 
 4609              	.LASF115:
 4610 0562 666C6167 		.ascii	"flags\000"
 4610      7300
 4611              	.LASF125:
 4612 0568 7072696E 		.ascii	"print_help\000"
 4612      745F6865 
 4612      6C7000
 4613              	.LASF70:
 4614 0573 4576656E 		.ascii	"EventListener\000"
 4614      744C6973 
 4614      74656E65 
 4614      7200
 4615              	.LASF78:
 4616 0581 77746F62 		.ascii	"wtobjp\000"
ARM GAS  /var/folders/dt/0wfd0knj7gs46m8vwfzktm600000gn/T//ccadM7KO.s 			page 88


 4616      6A7000
 4617              	.LASF122:
 4618 0588 61726763 		.ascii	"argc\000"
 4618      00
 4619              	.LASF129:
 4620 058d 6B657977 		.ascii	"keyworld\000"
 4620      6F726C64 
 4620      00
 4621              	.LASF95:
 4622 0596 67657477 		.ascii	"getwouldblock\000"
 4622      6F756C64 
 4622      626C6F63 
 4622      6B00
 4623              	.LASF12:
 4624 05a4 62656769 		.ascii	"begin\000"
 4624      6E00
 4625              	.LASF123:
 4626 05aa 61726776 		.ascii	"argv\000"
 4626      00
 4627              	.LASF68:
 4628 05af 6D5F6F77 		.ascii	"m_owner\000"
 4628      6E657200 
 4629              	.LASF44:
 4630 05b7 705F6374 		.ascii	"p_ctx\000"
 4630      7800
 4631              	.LASF53:
 4632 05bd 705F7761 		.ascii	"p_waiting\000"
 4632      6974696E 
 4632      6700
 4633              	.LASF136:
 4634 05c7 63687072 		.ascii	"chprintf\000"
 4634      696E7466 
 4634      00
 4635              		.ident	"GCC: (GNU) 4.7.2"
ARM GAS  /var/folders/dt/0wfd0knj7gs46m8vwfzktm600000gn/T//ccadM7KO.s 			page 89


DEFINED SYMBOLS
                            *ABS*:0000000000000000 microshell2.c
/var/folders/dt/0wfd0knj7gs46m8vwfzktm600000gn/T//ccadM7KO.s:19     .text.complete:0000000000000000 $t
/var/folders/dt/0wfd0knj7gs46m8vwfzktm600000gn/T//ccadM7KO.s:25     .text.complete:0000000000000000 complete
/var/folders/dt/0wfd0knj7gs46m8vwfzktm600000gn/T//ccadM7KO.s:173    .text.complete:00000000000000a8 $d
/var/folders/dt/0wfd0knj7gs46m8vwfzktm600000gn/T//ccadM7KO.s:183    .text.sigint:0000000000000000 $t
/var/folders/dt/0wfd0knj7gs46m8vwfzktm600000gn/T//ccadM7KO.s:189    .text.sigint:0000000000000000 sigint
/var/folders/dt/0wfd0knj7gs46m8vwfzktm600000gn/T//ccadM7KO.s:205    .text.print:0000000000000000 $t
/var/folders/dt/0wfd0knj7gs46m8vwfzktm600000gn/T//ccadM7KO.s:211    .text.print:0000000000000000 print
/var/folders/dt/0wfd0knj7gs46m8vwfzktm600000gn/T//ccadM7KO.s:646    .rodata.str1.4:0000000000000008 .LC1
/var/folders/dt/0wfd0knj7gs46m8vwfzktm600000gn/T//ccadM7KO.s:235    .text.print_help:0000000000000000 $t
/var/folders/dt/0wfd0knj7gs46m8vwfzktm600000gn/T//ccadM7KO.s:241    .text.print_help:0000000000000000 print_help
/var/folders/dt/0wfd0knj7gs46m8vwfzktm600000gn/T//ccadM7KO.s:649    .rodata.str1.4:000000000000000c .LC2
/var/folders/dt/0wfd0knj7gs46m8vwfzktm600000gn/T//ccadM7KO.s:652    .rodata.str1.4:0000000000000034 .LC3
/var/folders/dt/0wfd0knj7gs46m8vwfzktm600000gn/T//ccadM7KO.s:656    .rodata.str1.4:000000000000008c .LC4
/var/folders/dt/0wfd0knj7gs46m8vwfzktm600000gn/T//ccadM7KO.s:658    .rodata.str1.4:00000000000000a4 .LC5
/var/folders/dt/0wfd0knj7gs46m8vwfzktm600000gn/T//ccadM7KO.s:660    .rodata.str1.4:00000000000000bc .LC6
/var/folders/dt/0wfd0knj7gs46m8vwfzktm600000gn/T//ccadM7KO.s:663    .rodata.str1.4:00000000000000e4 .LC7
/var/folders/dt/0wfd0knj7gs46m8vwfzktm600000gn/T//ccadM7KO.s:668    .rodata.str1.4:000000000000014c .LC8
/var/folders/dt/0wfd0knj7gs46m8vwfzktm600000gn/T//ccadM7KO.s:296    .text.execute:0000000000000000 $t
/var/folders/dt/0wfd0knj7gs46m8vwfzktm600000gn/T//ccadM7KO.s:302    .text.execute:0000000000000000 execute
/var/folders/dt/0wfd0knj7gs46m8vwfzktm600000gn/T//ccadM7KO.s:535    .text.execute:000000000000012c $d
/var/folders/dt/0wfd0knj7gs46m8vwfzktm600000gn/T//ccadM7KO.s:562    .text.start_shell:0000000000000000 $t
/var/folders/dt/0wfd0knj7gs46m8vwfzktm600000gn/T//ccadM7KO.s:568    .text.start_shell:0000000000000000 start_shell
/var/folders/dt/0wfd0knj7gs46m8vwfzktm600000gn/T//ccadM7KO.s:622    .text.start_shell:000000000000003c $d
/var/folders/dt/0wfd0knj7gs46m8vwfzktm600000gn/T//ccadM7KO.s:737    .bss.val:0000000000000000 val
/var/folders/dt/0wfd0knj7gs46m8vwfzktm600000gn/T//ccadM7KO.s:756    .bss.name:0000000000000000 name
/var/folders/dt/0wfd0knj7gs46m8vwfzktm600000gn/T//ccadM7KO.s:640    .bss.compl_world:0000000000000000 compl_world
/var/folders/dt/0wfd0knj7gs46m8vwfzktm600000gn/T//ccadM7KO.s:730    .data.ver_keyworld:0000000000000000 ver_keyworld
/var/folders/dt/0wfd0knj7gs46m8vwfzktm600000gn/T//ccadM7KO.s:744    .data.keyworld:0000000000000000 keyworld
/var/folders/dt/0wfd0knj7gs46m8vwfzktm600000gn/T//ccadM7KO.s:636    .bss.compl_world:0000000000000000 $d
/var/folders/dt/0wfd0knj7gs46m8vwfzktm600000gn/T//ccadM7KO.s:643    .rodata.str1.4:0000000000000000 $d
/var/folders/dt/0wfd0knj7gs46m8vwfzktm600000gn/T//ccadM7KO.s:726    .data.ver_keyworld:0000000000000000 $d
/var/folders/dt/0wfd0knj7gs46m8vwfzktm600000gn/T//ccadM7KO.s:734    .bss.val:0000000000000000 $d
/var/folders/dt/0wfd0knj7gs46m8vwfzktm600000gn/T//ccadM7KO.s:740    .data.keyworld:0000000000000000 $d
/var/folders/dt/0wfd0knj7gs46m8vwfzktm600000gn/T//ccadM7KO.s:752    .bss.name:0000000000000000 $d
                     .debug_frame:0000000000000010 $d
/var/folders/dt/0wfd0knj7gs46m8vwfzktm600000gn/T//ccadM7KO.s:182    .text.complete:00000000000000bc $t
/var/folders/dt/0wfd0knj7gs46m8vwfzktm600000gn/T//ccadM7KO.s:561    .text.execute:0000000000000188 $t

UNDEFINED SYMBOLS
strcmp
strstr
mlab_sigint
SD2
chprintf
strlen
memcpy
microrl_init
microrl_set_execute_callback
microrl_set_complete_callback
microrl_set_sigint_callback
microrl_insert_char
