ARM GAS  /var/folders/dt/0wfd0knj7gs46m8vwfzktm600000gn/T//ccadM7KO.s 			page 1


   1              		.syntax unified
   2              		.cpu cortex-m3
   3              		.fpu softvfp
   4              		.eabi_attribute 20, 1
   5              		.eabi_attribute 21, 1
   6              		.eabi_attribute 23, 3
   7              		.eabi_attribute 24, 1
   8              		.eabi_attribute 25, 1
   9              		.eabi_attribute 26, 1
  10              		.eabi_attribute 30, 2
  11              		.eabi_attribute 34, 1
  12              		.eabi_attribute 18, 4
  13              		.thumb
  14              		.file	"microshell2.c"
  15              		.text
  16              	.Ltext0:
  17              		.cfi_sections	.debug_frame
  18              		.section	.text.complete,"ax",%progbits
  19              		.align	2
  20              		.p2align 4,,15
  21              		.global	complete
  22              		.thumb
  23              		.thumb_func
  24              		.type	complete, %function
  25              	complete:
  26              	.LFB66:
  27              		.file 1 "microshell2.c"
  28              		.loc 1 122 0
  29              		.cfi_startproc
  30              		@ args = 0, pretend = 0, frame = 0
  31              		@ frame_needed = 0, uses_anonymous_args = 0
  32              	.LVL0:
  33 0000 2DE9F047 		push	{r4, r5, r6, r7, r8, r9, sl, lr}
  34              	.LCFI0:
  35              		.cfi_def_cfa_offset 32
  36              		.cfi_offset 4, -32
  37              		.cfi_offset 5, -28
  38              		.cfi_offset 6, -24
  39              		.cfi_offset 7, -20
  40              		.cfi_offset 8, -16
  41              		.cfi_offset 9, -12
  42              		.cfi_offset 10, -8
  43              		.cfi_offset 14, -4
  44              		.loc 1 125 0
  45 0004 284C     		ldr	r4, .L18
  46 0006 0027     		movs	r7, #0
  47              		.loc 1 128 0
  48 0008 0128     		cmp	r0, #1
  49              		.loc 1 122 0
  50 000a 0546     		mov	r5, r0
  51              		.loc 1 125 0
  52 000c 2760     		str	r7, [r4, #0]
  53              		.loc 1 122 0
  54 000e 0E46     		mov	r6, r1
  55              		.loc 1 128 0
  56 0010 2FD0     		beq	.L16
  57              		.loc 1 139 0
ARM GAS  /var/folders/dt/0wfd0knj7gs46m8vwfzktm600000gn/T//ccadM7KO.s 			page 2


  58 0012 41DD     		ble	.L9
  59              		.loc 1 139 0 is_stmt 0 discriminator 1
  60 0014 0868     		ldr	r0, [r1, #0]
  61              	.LVL1:
  62 0016 2549     		ldr	r1, .L18+4
  63              	.LVL2:
  64 0018 FFF7FEFF 		bl	strcmp
  65              	.LVL3:
  66 001c 8046     		mov	r8, r0
  67 001e D0B9     		cbnz	r0, .L10
  68              	.LBB2:
  69              		.loc 1 142 0 is_stmt 1
  70 0020 DFF894A0 		ldr	sl, .L18+16
  71 0024 013D     		subs	r5, r5, #1
  72              	.LVL4:
  73 0026 DAF80070 		ldr	r7, [sl, #0]
  74 002a 56F82590 		ldr	r9, [r6, r5, lsl #2]
  75 002e 3846     		mov	r0, r7
  76 0030 4946     		mov	r1, r9
  77 0032 FFF7FEFF 		bl	strstr
  78              	.LVL5:
  79 0036 8742     		cmp	r7, r0
  80 0038 18BF     		it	ne
  81 003a 4746     		movne	r7, r8
  82 003c 2FD0     		beq	.L17
  83              	.LVL6:
  84              	.L7:
  85 003e DAF80450 		ldr	r5, [sl, #4]
  86              	.LVL7:
  87 0042 4946     		mov	r1, r9
  88 0044 2846     		mov	r0, r5
  89 0046 FFF7FEFF 		bl	strstr
  90              	.LVL8:
  91 004a 8542     		cmp	r5, r0
  92 004c 0BD1     		bne	.L5
  93              		.loc 1 143 0
  94 004e 44F82750 		str	r5, [r4, r7, lsl #2]
  95 0052 0137     		adds	r7, r7, #1
  96              	.LVL9:
  97 0054 07E0     		b	.L5
  98              	.LVL10:
  99              	.L10:
 100 0056 164A     		ldr	r2, .L18+8
 101              	.LBE2:
 102              		.loc 1 139 0
 103 0058 3846     		mov	r0, r7
 104              	.LVL11:
 105              	.L12:
 106              		.loc 1 148 0 discriminator 2
 107 005a 1358     		ldr	r3, [r2, r0]
 108 005c 2350     		str	r3, [r4, r0]
 109 005e 0430     		adds	r0, r0, #4
 110              		.loc 1 147 0 discriminator 2
 111 0060 1828     		cmp	r0, #24
 112 0062 FAD1     		bne	.L12
 113              		.loc 1 147 0 is_stmt 0
 114 0064 0627     		movs	r7, #6
ARM GAS  /var/folders/dt/0wfd0knj7gs46m8vwfzktm600000gn/T//ccadM7KO.s 			page 3


 115              	.LVL12:
 116              	.L5:
 117              		.loc 1 153 0 is_stmt 1
 118 0066 0023     		movs	r3, #0
 119 0068 44F82730 		str	r3, [r4, r7, lsl #2]
 120              		.loc 1 156 0
 121 006c 0E48     		ldr	r0, .L18
 122 006e BDE8F087 		pop	{r4, r5, r6, r7, r8, r9, sl, pc}
 123              	.LVL13:
 124              	.L16:
 125              	.LBB3:
 126              		.loc 1 121 0
 127 0072 104D     		ldr	r5, .L18+12
 128              		.loc 1 130 0
 129 0074 D1F80090 		ldr	r9, [r1, #0]
 130              	.LVL14:
 131              		.loc 1 121 0
 132 0078 05F11808 		add	r8, r5, #24
 133              	.LVL15:
 134              	.L4:
 135              	.LBB4:
 136              		.loc 1 134 0
 137 007c 55F8046F 		ldr	r6, [r5, #4]!
 138 0080 4946     		mov	r1, r9
 139 0082 3046     		mov	r0, r6
 140 0084 FFF7FEFF 		bl	strstr
 141              	.LVL16:
 142 0088 8642     		cmp	r6, r0
 143              		.loc 1 136 0
 144 008a 04BF     		itt	eq
 145 008c 44F82760 		streq	r6, [r4, r7, lsl #2]
 146 0090 0137     		addeq	r7, r7, #1
 147              	.LVL17:
 148              		.loc 1 132 0
 149 0092 4545     		cmp	r5, r8
 150 0094 F2D1     		bne	.L4
 151 0096 E6E7     		b	.L5
 152              	.LVL18:
 153              	.L9:
 154              	.LBE4:
 155              	.LBE3:
 156              		.loc 1 139 0
 157 0098 3846     		mov	r0, r7
 158              	.LVL19:
 159 009a 054A     		ldr	r2, .L18+8
 160 009c DDE7     		b	.L12
 161              	.LVL20:
 162              	.L17:
 163              	.LBB5:
 164              		.loc 1 143 0
 165 009e 2760     		str	r7, [r4, #0]
 166              	.LVL21:
 167 00a0 56F82590 		ldr	r9, [r6, r5, lsl #2]
 168 00a4 0127     		movs	r7, #1
 169 00a6 CAE7     		b	.L7
 170              	.L19:
 171              		.align	2
ARM GAS  /var/folders/dt/0wfd0knj7gs46m8vwfzktm600000gn/T//ccadM7KO.s 			page 4


 172              	.L18:
 173 00a8 00000000 		.word	.LANCHOR0
 174 00ac 00000000 		.word	.LC0
 175 00b0 00000000 		.word	.LANCHOR1
 176 00b4 FCFFFFFF 		.word	.LANCHOR1-4
 177 00b8 00000000 		.word	.LANCHOR2
 178              	.LBE5:
 179              		.cfi_endproc
 180              	.LFE66:
 181              		.size	complete, .-complete
 182 00bc AFF30080 		.section	.text.sigint,"ax",%progbits
 183              		.align	2
 184              		.p2align 4,,15
 185              		.global	sigint
 186              		.thumb
 187              		.thumb_func
 188              		.type	sigint, %function
 189              	sigint:
 190              	.LFB65:
 191              		.loc 1 114 0
 192              		.cfi_startproc
 193              		@ args = 0, pretend = 0, frame = 0
 194              		@ frame_needed = 0, uses_anonymous_args = 0
 195              		@ link register save eliminated.
 196              	.LVL22:
 197              		.loc 1 116 0
 198              		.loc 1 115 0
 199 0000 FFF7FEBF 		b	mlab_sigint
 200              	.LVL23:
 201              		.cfi_endproc
 202              	.LFE65:
 203              		.size	sigint, .-sigint
 204 0004 AFF30080 		.section	.text.print,"ax",%progbits
 204      AFF30080 
 204      AFF30080 
 205              		.align	2
 206              		.p2align 4,,15
 207              		.global	print
 208              		.thumb
 209              		.thumb_func
 210              		.type	print, %function
 211              	print:
 212              	.LFB62:
 213              		.loc 1 45 0
 214              		.cfi_startproc
 215              		@ args = 0, pretend = 0, frame = 0
 216              		@ frame_needed = 0, uses_anonymous_args = 0
 217              		@ link register save eliminated.
 218              	.LVL24:
 219              		.loc 1 45 0
 220 0000 0246     		mov	r2, r0
 221              		.loc 1 46 0
 222 0002 40F20001 		movw	r1, #:lower16:.LC1
 223 0006 40F20000 		movw	r0, #:lower16:SD2
 224              	.LVL25:
 225 000a C0F20000 		movt	r0, #:upper16:SD2
 226 000e C0F20001 		movt	r1, #:upper16:.LC1
ARM GAS  /var/folders/dt/0wfd0knj7gs46m8vwfzktm600000gn/T//ccadM7KO.s 			page 5


 227              		.loc 1 47 0
 228              		.loc 1 46 0
 229 0012 FFF7FEBF 		b	chprintf
 230              	.LVL26:
 231              		.cfi_endproc
 232              	.LFE62:
 233              		.size	print, .-print
 234 0016 00BFAFF3 		.section	.text.print_help,"ax",%progbits
 234      0080AFF3 
 234      0080
 235              		.align	2
 236              		.p2align 4,,15
 237              		.global	print_help
 238              		.thumb
 239              		.thumb_func
 240              		.type	print_help, %function
 241              	print_help:
 242              	.LFB63:
 243              		.loc 1 51 0
 244              		.cfi_startproc
 245              		@ args = 0, pretend = 0, frame = 0
 246              		@ frame_needed = 0, uses_anonymous_args = 0
 247              		.loc 1 52 0
 248 0000 40F20000 		movw	r0, #:lower16:.LC2
 249              		.loc 1 51 0
 250 0004 08B5     		push	{r3, lr}
 251              	.LCFI1:
 252              		.cfi_def_cfa_offset 8
 253              		.cfi_offset 3, -8
 254              		.cfi_offset 14, -4
 255              		.loc 1 52 0
 256 0006 C0F20000 		movt	r0, #:upper16:.LC2
 257 000a FFF7FEFF 		bl	print
 258              	.LVL27:
 259              		.loc 1 53 0
 260 000e 40F20000 		movw	r0, #:lower16:.LC3
 261 0012 C0F20000 		movt	r0, #:upper16:.LC3
 262 0016 FFF7FEFF 		bl	print
 263              	.LVL28:
 264              		.loc 1 54 0
 265 001a 40F20000 		movw	r0, #:lower16:.LC4
 266 001e C0F20000 		movt	r0, #:upper16:.LC4
 267 0022 FFF7FEFF 		bl	print
 268              	.LVL29:
 269              		.loc 1 55 0
 270 0026 40F20000 		movw	r0, #:lower16:.LC5
 271 002a C0F20000 		movt	r0, #:upper16:.LC5
 272 002e FFF7FEFF 		bl	print
 273              	.LVL30:
 274              		.loc 1 56 0
 275 0032 40F20000 		movw	r0, #:lower16:.LC6
 276 0036 C0F20000 		movt	r0, #:upper16:.LC6
 277 003a FFF7FEFF 		bl	print
 278              	.LVL31:
 279              		.loc 1 57 0
 280 003e 40F20000 		movw	r0, #:lower16:.LC7
 281 0042 C0F20000 		movt	r0, #:upper16:.LC7
ARM GAS  /var/folders/dt/0wfd0knj7gs46m8vwfzktm600000gn/T//ccadM7KO.s 			page 6


 282 0046 FFF7FEFF 		bl	print
 283              	.LVL32:
 284              		.loc 1 58 0
 285 004a 40F20000 		movw	r0, #:lower16:.LC8
 286 004e C0F20000 		movt	r0, #:upper16:.LC8
 287              		.loc 1 59 0
 288 0052 BDE80840 		pop	{r3, lr}
 289              		.loc 1 58 0
 290 0056 FFF7FEBF 		b	print
 291              	.LVL33:
 292              		.cfi_endproc
 293              	.LFE63:
 294              		.size	print_help, .-print_help
 295 005a 00BFAFF3 		.section	.text.execute,"ax",%progbits
 295      0080
 296              		.align	2
 297              		.p2align 4,,15
 298              		.global	execute
 299              		.thumb
 300              		.thumb_func
 301              		.type	execute, %function
 302              	execute:
 303              	.LFB64:
 304              		.loc 1 62 0
 305              		.cfi_startproc
 306              		@ args = 0, pretend = 0, frame = 0
 307              		@ frame_needed = 0, uses_anonymous_args = 0
 308              	.LVL34:
 309 0000 2DE9F843 		push	{r3, r4, r5, r6, r7, r8, r9, lr}
 310              	.LCFI2:
 311              		.cfi_def_cfa_offset 32
 312              		.cfi_offset 3, -32
 313              		.cfi_offset 4, -28
 314              		.cfi_offset 5, -24
 315              		.cfi_offset 6, -20
 316              		.cfi_offset 7, -16
 317              		.cfi_offset 8, -12
 318              		.cfi_offset 9, -8
 319              		.cfi_offset 14, -4
 320              		.loc 1 65 0
 321 0004 061E     		subs	r6, r0, #0
 322              		.loc 1 62 0
 323 0006 0F46     		mov	r7, r1
 324              		.loc 1 65 0
 325 0008 40DD     		ble	.L41
 326              		.loc 1 61 0
 327 000a DFF87891 		ldr	r9, .L46+88
 328              		.loc 1 65 0
 329 000e 0024     		movs	r4, #0
 330 0010 11E0     		b	.L24
 331              	.LVL35:
 332              	.L43:
 333              		.loc 1 70 0
 334 0012 0134     		adds	r4, r4, #1
 335              	.LVL36:
 336 0014 A642     		cmp	r6, r4
 337 0016 61DD     		ble	.L28
ARM GAS  /var/folders/dt/0wfd0knj7gs46m8vwfzktm600000gn/T//ccadM7KO.s 			page 7


 338              		.loc 1 71 0
 339 0018 57F82450 		ldr	r5, [r7, r4, lsl #2]
 340 001c 2846     		mov	r0, r5
 341 001e FFF7FEFF 		bl	strlen
 342              	.LVL37:
 343 0022 0728     		cmp	r0, #7
 344 0024 56D8     		bhi	.L29
 345              		.loc 1 72 0
 346 0026 421C     		adds	r2, r0, #1
 347 0028 2946     		mov	r1, r5
 348 002a 4048     		ldr	r0, .L46
 349 002c FFF7FEFF 		bl	memcpy
 350              	.LVL38:
 351              	.L26:
 352              		.loc 1 108 0
 353 0030 0134     		adds	r4, r4, #1
 354              	.LVL39:
 355              		.loc 1 65 0
 356 0032 A642     		cmp	r6, r4
 357 0034 2ADD     		ble	.L41
 358              	.LVL40:
 359              	.L24:
 360              		.loc 1 66 0
 361 0036 57F82450 		ldr	r5, [r7, r4, lsl #2]
 362 003a 3D49     		ldr	r1, .L46+4
 363 003c 2846     		mov	r0, r5
 364 003e 4FEA8408 		lsl	r8, r4, #2
 365 0042 FFF7FEFF 		bl	strcmp
 366              	.LVL41:
 367 0046 20B3     		cbz	r0, .L42
 368              		.loc 1 69 0
 369 0048 2846     		mov	r0, r5
 370 004a 3A49     		ldr	r1, .L46+8
 371 004c FFF7FEFF 		bl	strcmp
 372              	.LVL42:
 373 0050 0028     		cmp	r0, #0
 374 0052 DED0     		beq	.L43
 375              		.loc 1 80 0
 376 0054 2846     		mov	r0, r5
 377 0056 3849     		ldr	r1, .L46+12
 378 0058 FFF7FEFF 		bl	strcmp
 379              	.LVL43:
 380 005c F8B9     		cbnz	r0, .L30
 381              		.loc 1 81 0
 382 005e 0134     		adds	r4, r4, #1
 383              	.LVL44:
 384 0060 A642     		cmp	r6, r4
 385 0062 4DDD     		ble	.L31
 386              		.loc 1 82 0
 387 0064 57F82450 		ldr	r5, [r7, r4, lsl #2]
 388 0068 3449     		ldr	r1, .L46+16
 389 006a 2846     		mov	r0, r5
 390 006c FFF7FEFF 		bl	strcmp
 391              	.LVL45:
 392 0070 0028     		cmp	r0, #0
 393 0072 57D0     		beq	.L44
 394              		.loc 1 84 0
ARM GAS  /var/folders/dt/0wfd0knj7gs46m8vwfzktm600000gn/T//ccadM7KO.s 			page 8


 395 0074 2846     		mov	r0, r5
 396 0076 3249     		ldr	r1, .L46+20
 397 0078 FFF7FEFF 		bl	strcmp
 398              	.LVL46:
 399 007c 0028     		cmp	r0, #0
 400 007e 4AD1     		bne	.L33
 401              		.loc 1 85 0
 402 0080 3048     		ldr	r0, .L46+24
 403              		.loc 1 108 0
 404 0082 0134     		adds	r4, r4, #1
 405              	.LVL47:
 406              		.loc 1 85 0
 407 0084 FFF7FEFF 		bl	print
 408              	.LVL48:
 409              		.loc 1 65 0
 410 0088 A642     		cmp	r6, r4
 411 008a D4DC     		bgt	.L24
 412              	.LVL49:
 413              	.L41:
 414              		.loc 1 111 0
 415 008c 0020     		movs	r0, #0
 416 008e BDE8F883 		pop	{r3, r4, r5, r6, r7, r8, r9, pc}
 417              	.L42:
 418              		.loc 1 67 0
 419 0092 2D48     		ldr	r0, .L46+28
 420 0094 FFF7FEFF 		bl	print
 421              	.LVL50:
 422              		.loc 1 68 0
 423 0098 FFF7FEFF 		bl	print_help
 424              	.LVL51:
 425 009c C8E7     		b	.L26
 426              	.L30:
 427              		.loc 1 93 0
 428 009e 2846     		mov	r0, r5
 429 00a0 2A49     		ldr	r1, .L46+32
 430 00a2 FFF7FEFF 		bl	strcmp
 431              	.LVL52:
 432 00a6 78B3     		cbz	r0, .L45
 433              		.loc 1 96 0
 434 00a8 2846     		mov	r0, r5
 435 00aa 2949     		ldr	r1, .L46+36
 436 00ac FFF7FEFF 		bl	strcmp
 437              	.LVL53:
 438 00b0 D8B9     		cbnz	r0, .L35
 439              		.loc 1 97 0
 440 00b2 2848     		ldr	r0, .L46+40
 441 00b4 FFF7FEFF 		bl	print
 442              	.LVL54:
 443              		.loc 1 61 0
 444 00b8 274D     		ldr	r5, .L46+44
 445              	.LVL55:
 446              	.L36:
 447              	.LBB6:
 448              		.loc 1 99 0 discriminator 2
 449 00ba 2848     		ldr	r0, .L46+48
 450 00bc FFF7FEFF 		bl	print
 451              	.LVL56:
ARM GAS  /var/folders/dt/0wfd0knj7gs46m8vwfzktm600000gn/T//ccadM7KO.s 			page 9


 452              		.loc 1 100 0 discriminator 2
 453 00c0 55F8040F 		ldr	r0, [r5, #4]!
 454 00c4 FFF7FEFF 		bl	print
 455              	.LVL57:
 456              		.loc 1 101 0 discriminator 2
 457 00c8 2548     		ldr	r0, .L46+52
 458 00ca FFF7FEFF 		bl	print
 459              	.LVL58:
 460              		.loc 1 98 0 discriminator 2
 461 00ce 4D45     		cmp	r5, r9
 462 00d0 F3D1     		bne	.L36
 463 00d2 ADE7     		b	.L26
 464              	.LVL59:
 465              	.L29:
 466              	.LBE6:
 467              		.loc 1 74 0
 468 00d4 2348     		ldr	r0, .L46+56
 469 00d6 FFF7FEFF 		bl	print
 470              	.LVL60:
 471 00da A9E7     		b	.L26
 472              	.L28:
 473              		.loc 1 77 0
 474 00dc 1348     		ldr	r0, .L46
 475 00de FFF7FEFF 		bl	print
 476              	.LVL61:
 477              		.loc 1 78 0
 478 00e2 1F48     		ldr	r0, .L46+52
 479 00e4 FFF7FEFF 		bl	print
 480              	.LVL62:
 481 00e8 A2E7     		b	.L26
 482              	.LVL63:
 483              	.L35:
 484              		.loc 1 104 0
 485 00ea 1F48     		ldr	r0, .L46+60
 486 00ec FFF7FEFF 		bl	print
 487              	.LVL64:
 488              		.loc 1 105 0
 489 00f0 57F80800 		ldr	r0, [r7, r8]
 490 00f4 FFF7FEFF 		bl	print
 491              	.LVL65:
 492              		.loc 1 106 0
 493 00f8 1C48     		ldr	r0, .L46+64
 494 00fa FFF7FEFF 		bl	print
 495              	.LVL66:
 496 00fe 97E7     		b	.L26
 497              	.LVL67:
 498              	.L31:
 499              		.loc 1 91 0
 500 0100 1B48     		ldr	r0, .L46+68
 501 0102 FFF7FEFF 		bl	print
 502              	.LVL68:
 503 0106 93E7     		b	.L26
 504              	.LVL69:
 505              	.L45:
 506              		.loc 1 94 0
 507 0108 1A48     		ldr	r0, .L46+72
 508 010a FFF7FEFF 		bl	print
ARM GAS  /var/folders/dt/0wfd0knj7gs46m8vwfzktm600000gn/T//ccadM7KO.s 			page 10


 509              	.LVL70:
 510              		.loc 1 95 0
 511 010e 1A48     		ldr	r0, .L46+76
 512 0110 FFF7FEFF 		bl	print
 513              	.LVL71:
 514 0114 8CE7     		b	.L26
 515              	.LVL72:
 516              	.L33:
 517              		.loc 1 87 0
 518 0116 2846     		mov	r0, r5
 519 0118 FFF7FEFF 		bl	print
 520              	.LVL73:
 521              		.loc 1 88 0
 522 011c 1748     		ldr	r0, .L46+80
 523 011e FFF7FEFF 		bl	print
 524              	.LVL74:
 525 0122 85E7     		b	.L26
 526              	.L44:
 527              		.loc 1 83 0
 528 0124 1648     		ldr	r0, .L46+84
 529 0126 FFF7FEFF 		bl	print
 530              	.LVL75:
 531 012a 81E7     		b	.L26
 532              	.L47:
 533              		.align	2
 534              	.L46:
 535 012c 00000000 		.word	.LANCHOR3
 536 0130 A0010000 		.word	.LC9
 537 0134 CC010000 		.word	.LC11
 538 0138 00000000 		.word	.LC0
 539 013c F0010000 		.word	.LC14
 540 0140 08020000 		.word	.LC16
 541 0144 10020000 		.word	.LC17
 542 0148 A8010000 		.word	.LC10
 543 014c 64020000 		.word	.LC20
 544 0150 78020000 		.word	.LC23
 545 0154 80020000 		.word	.LC24
 546 0158 FCFFFFFF 		.word	.LANCHOR1-4
 547 015c 94020000 		.word	.LC25
 548 0160 EC010000 		.word	.LC13
 549 0164 D4010000 		.word	.LC12
 550 0168 98020000 		.word	.LC26
 551 016c A4020000 		.word	.LC27
 552 0170 3C020000 		.word	.LC19
 553 0174 6C020000 		.word	.LC21
 554 0178 74020000 		.word	.LC22
 555 017c 20020000 		.word	.LC18
 556 0180 F8010000 		.word	.LC15
 557 0184 14000000 		.word	.LANCHOR1+20
 558              		.cfi_endproc
 559              	.LFE64:
 560              		.size	execute, .-execute
 561 0188 AFF30080 		.section	.text.start_shell,"ax",%progbits
 561      AFF30080 
 562              		.align	2
 563              		.p2align 4,,15
 564              		.global	start_shell
ARM GAS  /var/folders/dt/0wfd0knj7gs46m8vwfzktm600000gn/T//ccadM7KO.s 			page 11


 565              		.thumb
 566              		.thumb_func
 567              		.type	start_shell, %function
 568              	start_shell:
 569              	.LFB67:
 570              		.loc 1 160 0
 571              		.cfi_startproc
 572              		@ args = 0, pretend = 0, frame = 432
 573              		@ frame_needed = 0, uses_anonymous_args = 0
 574 0000 10B5     		push	{r4, lr}
 575              	.LCFI3:
 576              		.cfi_def_cfa_offset 8
 577              		.cfi_offset 4, -8
 578              		.cfi_offset 14, -4
 579 0002 ECB0     		sub	sp, sp, #432
 580              	.LCFI4:
 581              		.cfi_def_cfa_offset 440
 582              		.loc 1 164 0
 583 0004 0D49     		ldr	r1, .L50
 584 0006 6846     		mov	r0, sp
 585 0008 FFF7FEFF 		bl	microrl_init
 586              	.LVL76:
 587              		.loc 1 165 0
 588 000c 6846     		mov	r0, sp
 589 000e 0C49     		ldr	r1, .L50+4
 590 0010 FFF7FEFF 		bl	microrl_set_execute_callback
 591              	.LVL77:
 592              		.loc 1 166 0
 593 0014 6846     		mov	r0, sp
 594 0016 0B49     		ldr	r1, .L50+8
 595 0018 FFF7FEFF 		bl	microrl_set_complete_callback
 596              	.LVL78:
 597              		.loc 1 167 0
 598 001c 6846     		mov	r0, sp
 599 001e 0A49     		ldr	r1, .L50+12
 600 0020 FFF7FEFF 		bl	microrl_set_sigint_callback
 601              	.LVL79:
 602 0024 094C     		ldr	r4, .L50+16
 603              	.L49:
 604              		.loc 1 171 0 discriminator 1
 605 0026 2368     		ldr	r3, [r4, #0]
 606 0028 4FF0FF31 		mov	r1, #-1
 607 002c 5B69     		ldr	r3, [r3, #20]
 608 002e 0748     		ldr	r0, .L50+16
 609 0030 9847     		blx	r3
 610              	.LVL80:
 611 0032 0146     		mov	r1, r0
 612              	.LVL81:
 613              		.loc 1 173 0 discriminator 1
 614 0034 6846     		mov	r0, sp
 615              	.LVL82:
 616 0036 FFF7FEFF 		bl	microrl_insert_char
 617              	.LVL83:
 618 003a F4E7     		b	.L49
 619              	.L51:
 620              		.align	2
 621              	.L50:
ARM GAS  /var/folders/dt/0wfd0knj7gs46m8vwfzktm600000gn/T//ccadM7KO.s 			page 12


 622 003c 00000000 		.word	print
 623 0040 00000000 		.word	execute
 624 0044 00000000 		.word	complete
 625 0048 00000000 		.word	sigint
 626 004c 00000000 		.word	SD2
 627              		.cfi_endproc
 628              	.LFE67:
 629              		.size	start_shell, .-start_shell
 630              		.global	val
 631              		.global	name
 632              		.global	compl_world
 633              		.global	ver_keyworld
 634              		.global	keyworld
 635              		.section	.bss.compl_world,"aw",%nobits
 636              		.align	2
 637              		.set	.LANCHOR0,. + 0
 638              		.type	compl_world, %object
 639              		.size	compl_world, 28
 640              	compl_world:
 641 0000 00000000 		.space	28
 641      00000000 
 641      00000000 
 641      00000000 
 641      00000000 
 642              		.section	.rodata.str1.4,"aMS",%progbits,1
 643              		.align	2
 644              	.LC0:
 645 0000 76657273 		.ascii	"version\000"
 645      696F6E00 
 646              	.LC1:
 647 0008 257300   		.ascii	"%s\000"
 648 000b 00       		.space	1
 649              	.LC2:
 650 000c 55736520 		.ascii	"Use TAB key for completion\012\015Command:\012\015\000"
 650      54414220 
 650      6B657920 
 650      666F7220 
 650      636F6D70 
 651 0033 00       		.space	1
 652              	.LC3:
 653 0034 09766572 		.ascii	"\011version {microrl | demo} - print version of mic"
 653      73696F6E 
 653      207B6D69 
 653      63726F72 
 653      6C207C20 
 654 0064 726F726C 		.ascii	"rorl lib or version of this demo src\012\015\000"
 654      206C6962 
 654      206F7220 
 654      76657273 
 654      696F6E20 
 655 008b 00       		.space	1
 656              	.LC4:
 657 008c 0968656C 		.ascii	"\011help  - this message\012\015\000"
 657      7020202D 
 657      20746869 
 657      73206D65 
 657      73736167 
ARM GAS  /var/folders/dt/0wfd0knj7gs46m8vwfzktm600000gn/T//ccadM7KO.s 			page 13


 658              	.LC5:
 659 00a4 09636C65 		.ascii	"\011clear - clear screen\012\015\000"
 659      6172202D 
 659      20636C65 
 659      61722073 
 659      63726565 
 660              	.LC6:
 661 00bc 096C6973 		.ascii	"\011list  - list all commands in tree\012\015\000"
 661      7420202D 
 661      206C6973 
 661      7420616C 
 661      6C20636F 
 662 00e1 000000   		.space	3
 663              	.LC7:
 664 00e4 096E616D 		.ascii	"\011name [string] - print 'name' value if no 'strin"
 664      65205B73 
 664      7472696E 
 664      675D202D 
 664      20707269 
 665 0114 67272C20 		.ascii	"g', set name value to 'string' if 'string' present\012"
 665      73657420 
 665      6E616D65 
 665      2076616C 
 665      75652074 
 666 0147 0D00     		.ascii	"\015\000"
 667 0149 000000   		.space	3
 668              	.LC8:
 669 014c 096C6973 		.ascii	"\011lisp - dummy command for demonstation auto-comp"
 669      70202D20 
 669      64756D6D 
 669      7920636F 
 669      6D6D616E 
 670 017c 6C657469 		.ascii	"letion, while inputed 'l+<TAB>'\012\015\000"
 670      6F6E2C20 
 670      7768696C 
 670      6520696E 
 670      70757465 
 671 019e 0000     		.space	2
 672              	.LC9:
 673 01a0 68656C70 		.ascii	"help\000"
 673      00
 674 01a5 000000   		.space	3
 675              	.LC10:
 676 01a8 6D696372 		.ascii	"microrl library based shell v 1.0\012\015\000"
 676      6F726C20 
 676      6C696272 
 676      61727920 
 676      62617365 
 677              	.LC11:
 678 01cc 6E616D65 		.ascii	"name\000"
 678      00
 679 01d1 000000   		.space	3
 680              	.LC12:
 681 01d4 6E616D65 		.ascii	"name value too long!\012\015\000"
 681      2076616C 
 681      75652074 
 681      6F6F206C 
ARM GAS  /var/folders/dt/0wfd0knj7gs46m8vwfzktm600000gn/T//ccadM7KO.s 			page 14


 681      6F6E6721 
 682 01eb 00       		.space	1
 683              	.LC13:
 684 01ec 0A0D00   		.ascii	"\012\015\000"
 685 01ef 00       		.space	1
 686              	.LC14:
 687 01f0 64656D6F 		.ascii	"demo\000"
 687      00
 688 01f5 000000   		.space	3
 689              	.LC15:
 690 01f8 64656D6F 		.ascii	"demo v 1.0\012\015\000"
 690      20762031 
 690      2E300A0D 
 690      00
 691 0205 000000   		.space	3
 692              	.LC16:
 693 0208 6D696372 		.ascii	"microrl\000"
 693      6F726C00 
 694              	.LC17:
 695 0210 6D696372 		.ascii	"microrl v 1.2\012\015\000"
 695      6F726C20 
 695      7620312E 
 695      320A0D00 
 696              	.LC18:
 697 0220 2077726F 		.ascii	" wrong argument, see help\012\015\000"
 697      6E672061 
 697      7267756D 
 697      656E742C 
 697      20736565 
 698              	.LC19:
 699 023c 76657273 		.ascii	"version needs 1 parametr, see help\012\015\000"
 699      696F6E20 
 699      6E656564 
 699      73203120 
 699      70617261 
 700 0261 000000   		.space	3
 701              	.LC20:
 702 0264 636C6561 		.ascii	"clear\000"
 702      7200
 703 026a 0000     		.space	2
 704              	.LC21:
 705 026c 1B5B324A 		.ascii	"\033[2J\000"
 705      00
 706 0271 000000   		.space	3
 707              	.LC22:
 708 0274 1B5B4800 		.ascii	"\033[H\000"
 709              	.LC23:
 710 0278 6C697374 		.ascii	"list\000"
 710      00
 711 027d 000000   		.space	3
 712              	.LC24:
 713 0280 61766169 		.ascii	"available command:\012\000"
 713      6C61626C 
 713      6520636F 
 713      6D6D616E 
 713      643A0A00 
 714              	.LC25:
ARM GAS  /var/folders/dt/0wfd0knj7gs46m8vwfzktm600000gn/T//ccadM7KO.s 			page 15


 715 0294 0900     		.ascii	"\011\000"
 716 0296 0000     		.space	2
 717              	.LC26:
 718 0298 636F6D6D 		.ascii	"command: '\000"
 718      616E643A 
 718      202700
 719 02a3 00       		.space	1
 720              	.LC27:
 721 02a4 27204E6F 		.ascii	"' Not found.\012\015\000"
 721      7420666F 
 721      756E642E 
 721      0A0D00
 722 02b3 00       		.space	1
 723              	.LC28:
 724 02b4 6C697370 		.ascii	"lisp\000"
 724      00
 725 02b9 000000   		.section	.data.ver_keyworld,"aw",%progbits
 726              		.align	2
 727              		.set	.LANCHOR2,. + 0
 728              		.type	ver_keyworld, %object
 729              		.size	ver_keyworld, 8
 730              	ver_keyworld:
 731 0000 08020000 		.word	.LC16
 732 0004 F0010000 		.word	.LC14
 733              		.section	.bss.val,"aw",%nobits
 734              		.align	2
 735              		.type	val, %object
 736              		.size	val, 4
 737              	val:
 738 0000 00000000 		.space	4
 739              		.section	.data.keyworld,"aw",%progbits
 740              		.align	2
 741              		.set	.LANCHOR1,. + 0
 742              		.type	keyworld, %object
 743              		.size	keyworld, 24
 744              	keyworld:
 745 0000 A0010000 		.word	.LC9
 746 0004 64020000 		.word	.LC20
 747 0008 78020000 		.word	.LC23
 748 000c CC010000 		.word	.LC11
 749 0010 00000000 		.word	.LC0
 750 0014 B4020000 		.word	.LC28
 751              		.section	.bss.name,"aw",%nobits
 752              		.align	2
 753              		.set	.LANCHOR3,. + 0
 754              		.type	name, %object
 755              		.size	name, 8
 756              	name:
 757 0000 00000000 		.space	8
 757      00000000 
 758              		.text
 759              	.Letext0:
 760              		.file 2 "microrl.h"
 761              		.file 3 "/Users/toxygen/Applications/yagarto-4.7.2/bin/../lib/gcc/arm-none-eabi/4.7.2/include/stdd
 762              		.file 4 "/Users/toxygen/Applications/yagarto-4.7.2/bin/../lib/gcc/arm-none-eabi/4.7.2/../../../../
 763              		.file 5 "../../os/ports/GCC/ARMCMx/chtypes.h"
 764              		.file 6 "../../os/kernel/include/chlists.h"
ARM GAS  /var/folders/dt/0wfd0knj7gs46m8vwfzktm600000gn/T//ccadM7KO.s 			page 16


 765              		.file 7 "../../os/kernel/include/chthreads.h"
 766              		.file 8 "../../os/ports/GCC/ARMCMx/chcore_v7m.h"
 767              		.file 9 "../../os/kernel/include/chmtx.h"
 768              		.file 10 "../../os/kernel/include/chevents.h"
 769              		.file 11 "../../os/kernel/include/chqueues.h"
 770              		.file 12 "../../os/kernel/include/chioch.h"
 771              		.file 13 "../../os/hal/platforms/STM32F1xx/stm32f10x.h"
 772              		.file 14 "../../os/hal/include/serial.h"
 773              		.file 15 "../../os/ports/common/ARMCMx/CMSIS/include/core_cm3.h"
 774              		.file 16 "../../os/hal/platforms/STM32/serial_lld.h"
 775              		.file 17 "/Users/toxygen/Applications/yagarto-4.7.2/bin/../lib/gcc/arm-none-eabi/4.7.2/../../../..
 776              		.file 18 "../../os/various/chprintf.h"