ARM GAS  /tmp/ccwzIquL.s 			page 1


   1              		.syntax unified
   2              		.cpu cortex-m3
   3              		.fpu softvfp
   4              		.eabi_attribute 20, 1
   5              		.eabi_attribute 21, 1
   6              		.eabi_attribute 23, 3
   7              		.eabi_attribute 24, 1
   8              		.eabi_attribute 25, 1
   9              		.eabi_attribute 26, 1
  10              		.eabi_attribute 30, 2
  11              		.eabi_attribute 34, 1
  12              		.eabi_attribute 18, 4
  13              		.thumb
  14              		.file	"nvic.c"
  15              		.text
  16              	.Ltext0:
  17              		.cfi_sections	.debug_frame
  18              		.section	.text.nvicEnableVector,"ax",%progbits
  19              		.align	2
  20              		.p2align 4,,15
  21              		.global	nvicEnableVector
  22              		.thumb
  23              		.thumb_func
  24              		.type	nvicEnableVector, %function
  25              	nvicEnableVector:
  26              	.LFB7:
  27              		.file 1 "../../os/ports/common/ARMCMx/nvic.c"
  28              		.loc 1 46 0
  29              		.cfi_startproc
  30              		@ args = 0, pretend = 0, frame = 0
  31              		@ frame_needed = 0, uses_anonymous_args = 0
  32              		@ link register save eliminated.
  33              	.LVL0:
  34              		.loc 1 47 0
  35 0000 00F00303 		and	r3, r0, #3
  36              		.loc 1 46 0
  37 0004 70B4     		push	{r4, r5, r6}
  38              	.LCFI0:
  39              		.cfi_def_cfa_offset 12
  40              		.cfi_offset 4, -12
  41              		.cfi_offset 5, -8
  42              		.cfi_offset 6, -4
  43              		.loc 1 47 0
  44 0006 DA00     		lsls	r2, r3, #3
  45              	.LVL1:
  46              		.loc 1 49 0
  47 0008 FF25     		movs	r5, #255
  48 000a 05FA02F5 		lsl	r5, r5, r2
  49              		.loc 1 50 0
  50 000e 00F01F04 		and	r4, r0, #31
  51              		.loc 1 49 0
  52 0012 01FA02F1 		lsl	r1, r1, r2
  53              	.LVL2:
  54              		.loc 1 50 0
  55 0016 0122     		movs	r2, #1
  56              	.LVL3:
  57 0018 02FA04F2 		lsl	r2, r2, r4
ARM GAS  /tmp/ccwzIquL.s 			page 2


  58              		.loc 1 49 0
  59 001c 4FF46143 		mov	r3, #57600
  60 0020 8408     		lsrs	r4, r0, #2
  61 0022 CEF20003 		movt	r3, 57344
  62 0026 C034     		adds	r4, r4, #192
  63 0028 53F82460 		ldr	r6, [r3, r4, lsl #2]
  64              		.loc 1 50 0
  65 002c 4009     		lsrs	r0, r0, #5
  66              	.LVL4:
  67              		.loc 1 49 0
  68 002e 26EA0505 		bic	r5, r6, r5
  69 0032 0D43     		orrs	r5, r5, r1
  70              		.loc 1 50 0
  71 0034 00F16006 		add	r6, r0, #96
  72              		.loc 1 49 0
  73 0038 43F82450 		str	r5, [r3, r4, lsl #2]
  74              		.loc 1 50 0
  75 003c 43F82620 		str	r2, [r3, r6, lsl #2]
  76              		.loc 1 51 0
  77 0040 43F82020 		str	r2, [r3, r0, lsl #2]
  78              		.loc 1 52 0
  79 0044 70BC     		pop	{r4, r5, r6}
  80 0046 7047     		bx	lr
  81              		.cfi_endproc
  82              	.LFE7:
  83              		.size	nvicEnableVector, .-nvicEnableVector
  84 0048 AFF30080 		.section	.text.nvicDisableVector,"ax",%progbits
  84      AFF30080 
  85              		.align	2
  86              		.p2align 4,,15
  87              		.global	nvicDisableVector
  88              		.thumb
  89              		.thumb_func
  90              		.type	nvicDisableVector, %function
  91              	nvicDisableVector:
  92              	.LFB8:
  93              		.loc 1 60 0
  94              		.cfi_startproc
  95              		@ args = 0, pretend = 0, frame = 0
  96              		@ frame_needed = 0, uses_anonymous_args = 0
  97              		@ link register save eliminated.
  98              	.LVL5:
  99 0000 10B4     		push	{r4}
 100              	.LCFI1:
 101              		.cfi_def_cfa_offset 4
 102              		.cfi_offset 4, -4
 103              		.loc 1 63 0
 104 0002 00F01F03 		and	r3, r0, #31
 105 0006 0124     		movs	r4, #1
 106 0008 04FA03F4 		lsl	r4, r4, r3
 107              		.loc 1 61 0
 108 000c 00F00302 		and	r2, r0, #3
 109 0010 D100     		lsls	r1, r2, #3
 110              	.LVL6:
 111              		.loc 1 64 0
 112 0012 FF23     		movs	r3, #255
 113 0014 03FA01F2 		lsl	r2, r3, r1
ARM GAS  /tmp/ccwzIquL.s 			page 3


 114              		.loc 1 63 0
 115 0018 4109     		lsrs	r1, r0, #5
 116              	.LVL7:
 117 001a 4FF46143 		mov	r3, #57600
 118 001e CEF20003 		movt	r3, 57344
 119 0022 2031     		adds	r1, r1, #32
 120              		.loc 1 64 0
 121 0024 8008     		lsrs	r0, r0, #2
 122              	.LVL8:
 123              		.loc 1 63 0
 124 0026 43F82140 		str	r4, [r3, r1, lsl #2]
 125              		.loc 1 64 0
 126 002a C030     		adds	r0, r0, #192
 127 002c 53F82010 		ldr	r1, [r3, r0, lsl #2]
 128 0030 21EA0202 		bic	r2, r1, r2
 129 0034 43F82020 		str	r2, [r3, r0, lsl #2]
 130              		.loc 1 65 0
 131 0038 10BC     		pop	{r4}
 132 003a 7047     		bx	lr
 133              		.cfi_endproc
 134              	.LFE8:
 135              		.size	nvicDisableVector, .-nvicDisableVector
 136 003c AFF30080 		.section	.text.nvicSetSystemHandlerPriority,"ax",%progbits
 137              		.align	2
 138              		.p2align 4,,15
 139              		.global	nvicSetSystemHandlerPriority
 140              		.thumb
 141              		.thumb_func
 142              		.type	nvicSetSystemHandlerPriority, %function
 143              	nvicSetSystemHandlerPriority:
 144              	.LFB9:
 145              		.loc 1 74 0
 146              		.cfi_startproc
 147              		@ args = 0, pretend = 0, frame = 0
 148              		@ frame_needed = 0, uses_anonymous_args = 0
 149              		@ link register save eliminated.
 150              	.LVL9:
 151              		.loc 1 75 0
 152 0000 00F00303 		and	r3, r0, #3
 153              		.loc 1 74 0
 154 0004 10B4     		push	{r4}
 155              	.LCFI2:
 156              		.cfi_def_cfa_offset 4
 157              		.cfi_offset 4, -4
 158              		.loc 1 78 0
 159 0006 FF22     		movs	r2, #255
 160              		.loc 1 75 0
 161 0008 DC00     		lsls	r4, r3, #3
 162              	.LVL10:
 163              		.loc 1 78 0
 164 000a 02FA04F2 		lsl	r2, r2, r4
 165 000e 01FA04F1 		lsl	r1, r1, r4
 166              	.LVL11:
 167              		.loc 1 77 0
 168 0012 8008     		lsrs	r0, r0, #2
 169              	.LVL12:
 170 0014 4FF46D43 		mov	r3, #60672
ARM GAS  /tmp/ccwzIquL.s 			page 4


 171 0018 CEF20003 		movt	r3, 57344
 172 001c 0630     		adds	r0, r0, #6
 173 001e 53F82040 		ldr	r4, [r3, r0, lsl #2]
 174              	.LVL13:
 175 0022 24EA0202 		bic	r2, r4, r2
 176              		.loc 1 78 0
 177 0026 0A43     		orrs	r2, r2, r1
 178              		.loc 1 77 0
 179 0028 43F82020 		str	r2, [r3, r0, lsl #2]
 180              		.loc 1 79 0
 181 002c 10BC     		pop	{r4}
 182 002e 7047     		bx	lr
 183              		.cfi_endproc
 184              	.LFE9:
 185              		.size	nvicSetSystemHandlerPriority, .-nvicSetSystemHandlerPriority
 186              		.text
 187              	.Letext0:
 188              		.file 2 "/usr/bin/../lib/gcc/arm-none-eabi/4.7.4/../../../../arm-none-eabi/include/stdint.h"
 189              		.file 3 "../../os/ports/common/ARMCMx/nvic.h"