ARM GAS  /var/folders/dt/0wfd0knj7gs46m8vwfzktm600000gn/T//ccq9AvHq.s 			page 1


   1              		.syntax unified
   2              		.cpu cortex-m3
   3              		.fpu softvfp
   4              		.eabi_attribute 20, 1
   5              		.eabi_attribute 21, 1
   6              		.eabi_attribute 23, 3
   7              		.eabi_attribute 24, 1
   8              		.eabi_attribute 25, 1
   9              		.eabi_attribute 26, 1
  10              		.eabi_attribute 30, 2
  11              		.eabi_attribute 34, 1
  12              		.eabi_attribute 18, 4
  13              		.thumb
  14              		.file	"pal.c"
  15              		.text
  16              	.Ltext0:
  17              		.cfi_sections	.debug_frame
  18              		.section	.text.palReadBus,"ax",%progbits
  19              		.align	2
  20              		.p2align 4,,15
  21              		.global	palReadBus
  22              		.thumb
  23              		.thumb_func
  24              		.type	palReadBus, %function
  25              	palReadBus:
  26              	.LFB62:
  27              		.file 1 "../../os/hal/src/pal.c"
  28              		.loc 1 76 0
  29              		.cfi_startproc
  30              		@ args = 0, pretend = 0, frame = 0
  31              		@ frame_needed = 0, uses_anonymous_args = 0
  32              	.LVL0:
  33 0000 10B5     		push	{r4, lr}
  34              	.LCFI0:
  35              		.cfi_def_cfa_offset 8
  36              		.cfi_offset 4, -8
  37              		.cfi_offset 14, -4
  38              		.loc 1 78 0
  39 0002 0446     		mov	r4, r0
  40 0004 10B1     		cbz	r0, .L2
  41              		.loc 1 78 0 is_stmt 0 discriminator 2
  42 0006 8368     		ldr	r3, [r0, #8]
  43 0008 0F2B     		cmp	r3, #15
  44 000a 03D9     		bls	.L3
  45              	.L2:
  46              		.loc 1 78 0 discriminator 1
  47 000c 0548     		ldr	r0, .L8
  48              	.LVL1:
  49 000e FFF7FEFF 		bl	chDbgPanic
  50              	.LVL2:
  51 0012 A368     		ldr	r3, [r4, #8]
  52              	.L3:
  53              		.loc 1 81 0 is_stmt 1
  54 0014 2168     		ldr	r1, [r4, #0]
  55 0016 6068     		ldr	r0, [r4, #4]
  56 0018 8968     		ldr	r1, [r1, #8]
  57 001a 21FA03F3 		lsr	r3, r1, r3
ARM GAS  /var/folders/dt/0wfd0knj7gs46m8vwfzktm600000gn/T//ccq9AvHq.s 			page 2


  58              		.loc 1 82 0
  59 001e 1840     		ands	r0, r0, r3
  60 0020 10BD     		pop	{r4, pc}
  61              	.L9:
  62 0022 00BF     		.align	2
  63              	.L8:
  64 0024 00000000 		.word	.LC0
  65              		.cfi_endproc
  66              	.LFE62:
  67              		.size	palReadBus, .-palReadBus
  68 0028 AFF30080 		.section	.text.palWriteBus,"ax",%progbits
  68      AFF30080 
  69              		.align	2
  70              		.p2align 4,,15
  71              		.global	palWriteBus
  72              		.thumb
  73              		.thumb_func
  74              		.type	palWriteBus, %function
  75              	palWriteBus:
  76              	.LFB63:
  77              		.loc 1 101 0
  78              		.cfi_startproc
  79              		@ args = 0, pretend = 0, frame = 0
  80              		@ frame_needed = 0, uses_anonymous_args = 0
  81              	.LVL3:
  82 0000 38B5     		push	{r3, r4, r5, lr}
  83              	.LCFI1:
  84              		.cfi_def_cfa_offset 16
  85              		.cfi_offset 3, -16
  86              		.cfi_offset 4, -12
  87              		.cfi_offset 5, -8
  88              		.cfi_offset 14, -4
  89              		.loc 1 103 0
  90 0002 0446     		mov	r4, r0
  91              		.loc 1 101 0
  92 0004 0D46     		mov	r5, r1
  93              		.loc 1 103 0
  94 0006 10B1     		cbz	r0, .L11
  95              		.loc 1 103 0 is_stmt 0 discriminator 2
  96 0008 8368     		ldr	r3, [r0, #8]
  97 000a 0F2B     		cmp	r3, #15
  98 000c 03D9     		bls	.L12
  99              	.L11:
 100              		.loc 1 103 0 discriminator 1
 101 000e 0948     		ldr	r0, .L16
 102              	.LVL4:
 103 0010 FFF7FEFF 		bl	chDbgPanic
 104              	.LVL5:
 105 0014 A368     		ldr	r3, [r4, #8]
 106              	.L12:
 107              		.loc 1 106 0 is_stmt 1
 108 0016 6268     		ldr	r2, [r4, #4]
 109 0018 03F11001 		add	r1, r3, #16
 110 001c 22EA0500 		bic	r0, r2, r5
 111 0020 1540     		ands	r5, r5, r2
 112              	.LVL6:
 113 0022 00FA01F0 		lsl	r0, r0, r1
ARM GAS  /var/folders/dt/0wfd0knj7gs46m8vwfzktm600000gn/T//ccq9AvHq.s 			page 3


 114 0026 05FA03F3 		lsl	r3, r5, r3
 115 002a 2168     		ldr	r1, [r4, #0]
 116 002c 0343     		orrs	r3, r3, r0
 117 002e 0B61     		str	r3, [r1, #16]
 118 0030 38BD     		pop	{r3, r4, r5, pc}
 119              	.L17:
 120 0032 00BF     		.align	2
 121              	.L16:
 122 0034 10000000 		.word	.LC1
 123              		.cfi_endproc
 124              	.LFE63:
 125              		.size	palWriteBus, .-palWriteBus
 126 0038 AFF30080 		.section	.text.palSetBusMode,"ax",%progbits
 126      AFF30080 
 127              		.align	2
 128              		.p2align 4,,15
 129              		.global	palSetBusMode
 130              		.thumb
 131              		.thumb_func
 132              		.type	palSetBusMode, %function
 133              	palSetBusMode:
 134              	.LFB64:
 135              		.loc 1 124 0
 136              		.cfi_startproc
 137              		@ args = 0, pretend = 0, frame = 0
 138              		@ frame_needed = 0, uses_anonymous_args = 0
 139              	.LVL7:
 140 0000 38B5     		push	{r3, r4, r5, lr}
 141              	.LCFI2:
 142              		.cfi_def_cfa_offset 16
 143              		.cfi_offset 3, -16
 144              		.cfi_offset 4, -12
 145              		.cfi_offset 5, -8
 146              		.cfi_offset 14, -4
 147              		.loc 1 126 0
 148 0002 0446     		mov	r4, r0
 149              		.loc 1 124 0
 150 0004 0D46     		mov	r5, r1
 151              		.loc 1 126 0
 152 0006 10B1     		cbz	r0, .L19
 153              		.loc 1 126 0 is_stmt 0 discriminator 2
 154 0008 8368     		ldr	r3, [r0, #8]
 155 000a 0F2B     		cmp	r3, #15
 156 000c 03D9     		bls	.L20
 157              	.L19:
 158              		.loc 1 126 0 discriminator 1
 159 000e 0648     		ldr	r0, .L24
 160              	.LVL8:
 161 0010 FFF7FEFF 		bl	chDbgPanic
 162              	.LVL9:
 163 0014 A368     		ldr	r3, [r4, #8]
 164              	.L20:
 165              		.loc 1 129 0 is_stmt 1
 166 0016 94E80300 		ldmia	r4, {r0, r1}
 167 001a 01FA03F1 		lsl	r1, r1, r3
 168 001e 2A46     		mov	r2, r5
 169              		.loc 1 130 0
ARM GAS  /var/folders/dt/0wfd0knj7gs46m8vwfzktm600000gn/T//ccq9AvHq.s 			page 4


 170 0020 BDE83840 		pop	{r3, r4, r5, lr}
 171              		.loc 1 129 0
 172 0024 FFF7FEBF 		b	_pal_lld_setgroupmode
 173              	.LVL10:
 174              	.L25:
 175              		.align	2
 176              	.L24:
 177 0028 20000000 		.word	.LC2
 178              		.cfi_endproc
 179              	.LFE64:
 180              		.size	palSetBusMode, .-palSetBusMode
 181 002c AFF30080 		.section	.rodata.str1.4,"aMS",%progbits,1
 182              		.align	2
 183              	.LC0:
 184 0000 2270616C 		.ascii	"\"palReadBus\"()\000"
 184      52656164 
 184      42757322 
 184      282900
 185 000f 00       		.space	1
 186              	.LC1:
 187 0010 2270616C 		.ascii	"\"palWriteBus\"()\000"
 187      57726974 
 187      65427573 
 187      22282900 
 188              	.LC2:
 189 0020 2270616C 		.ascii	"\"palSetBusMode\"()\000"
 189      53657442 
 189      75734D6F 
 189      64652228 
 189      2900
 190 0032 0000     		.text
 191              	.Letext0:
 192              		.file 2 "/Users/toxygen/Applications/yagarto-4.7.2/bin/../lib/gcc/arm-none-eabi/4.7.2/../../../../
 193              		.file 3 "../../os/hal/platforms/STM32F1xx/stm32f10x.h"
 194              		.file 4 "../../os/hal/platforms/STM32/GPIOv1/pal_lld.h"
 195              		.file 5 "../../os/hal/include/pal.h"
 196              		.file 6 "../../os/ports/common/ARMCMx/CMSIS/include/core_cm3.h"
 197              		.file 7 "../../os/kernel/include/chdebug.h"