ARM GAS  /var/folders/dt/0wfd0knj7gs46m8vwfzktm600000gn/T//ccfLNI7n.s 			page 1


   1              		.syntax unified
   2              		.cpu cortex-m3
   3              		.fpu softvfp
   4              		.eabi_attribute 20, 1
   5              		.eabi_attribute 21, 1
   6              		.eabi_attribute 23, 3
   7              		.eabi_attribute 24, 1
   8              		.eabi_attribute 25, 1
   9              		.eabi_attribute 26, 1
  10              		.eabi_attribute 30, 2
  11              		.eabi_attribute 34, 1
  12              		.eabi_attribute 18, 4
  13              		.thumb
  14              		.file	"serial.c"
  15              		.text
  16              	.Ltext0:
  17              		.cfi_sections	.debug_frame
  18              		.section	.text.putwouldblock,"ax",%progbits
  19              		.align	2
  20              		.p2align 4,,15
  21              		.thumb
  22              		.thumb_func
  23              		.type	putwouldblock, %function
  24              	putwouldblock:
  25              	.LFB64:
  26              		.file 1 "../../os/hal/src/serial.c"
  27              		.loc 1 74 0
  28              		.cfi_startproc
  29              		@ args = 0, pretend = 0, frame = 0
  30              		@ frame_needed = 0, uses_anonymous_args = 0
  31              		@ link register save eliminated.
  32              	.LVL0:
  33              		.loc 1 76 0
  34 0000 806B     		ldr	r0, [r0, #56]
  35              	.LVL1:
  36              		.loc 1 77 0
  37 0002 D0F10100 		rsbs	r0, r0, #1
  38 0006 38BF     		it	cc
  39 0008 0020     		movcc	r0, #0
  40 000a 7047     		bx	lr
  41              		.cfi_endproc
  42              	.LFE64:
  43              		.size	putwouldblock, .-putwouldblock
  44 000c AFF30080 		.section	.text.getwouldblock,"ax",%progbits
  45              		.align	2
  46              		.p2align 4,,15
  47              		.thumb
  48              		.thumb_func
  49              		.type	getwouldblock, %function
  50              	getwouldblock:
  51              	.LFB65:
  52              		.loc 1 79 0
  53              		.cfi_startproc
  54              		@ args = 0, pretend = 0, frame = 0
  55              		@ frame_needed = 0, uses_anonymous_args = 0
  56              		@ link register save eliminated.
  57              	.LVL2:
ARM GAS  /var/folders/dt/0wfd0knj7gs46m8vwfzktm600000gn/T//ccfLNI7n.s 			page 2


  58              		.loc 1 81 0
  59 0000 8069     		ldr	r0, [r0, #24]
  60              	.LVL3:
  61              		.loc 1 82 0
  62 0002 D0F10100 		rsbs	r0, r0, #1
  63 0006 38BF     		it	cc
  64 0008 0020     		movcc	r0, #0
  65 000a 7047     		bx	lr
  66              		.cfi_endproc
  67              	.LFE65:
  68              		.size	getwouldblock, .-getwouldblock
  69              		.section	.text.getflags,"ax",%progbits
  70              		.align	2
  71              		.p2align 4,,15
  72              		.thumb
  73              		.thumb_func
  74              		.type	getflags, %function
  75              	getflags:
  76              	.LFB70:
  77              		.loc 1 104 0
  78              		.cfi_startproc
  79              		@ args = 0, pretend = 0, frame = 0
  80              		@ frame_needed = 0, uses_anonymous_args = 0
  81              	.LVL4:
  82 0000 70B5     		push	{r4, r5, r6, lr}
  83              	.LCFI0:
  84              		.cfi_def_cfa_offset 16
  85              		.cfi_offset 4, -16
  86              		.cfi_offset 5, -12
  87              		.cfi_offset 6, -8
  88              		.cfi_offset 14, -4
  89              	.LBB2:
  90              		.loc 1 105 0
  91 0002 2023     		movs	r3, #32
  92              	.LVL5:
  93              	.LBE2:
  94              		.loc 1 104 0
  95 0004 0546     		mov	r5, r0
  96              	.LBB3:
  97              		.loc 1 105 0
  98              	@ 105 "../../os/hal/src/serial.c" 1
  99 0006 83F31188 		msr     BASEPRI, r3
 100              	@ 0 "" 2
 101              	.LVL6:
 102              		.thumb
 103              	.LBE3:
 104 000a 0024     		movs	r4, #0
 105 000c FFF7FEFF 		bl	dbg_check_lock
 106              	.LVL7:
 107 0010 AE68     		ldr	r6, [r5, #8]
 108              	.LVL8:
 109 0012 AC60     		str	r4, [r5, #8]
 110 0014 FFF7FEFF 		bl	dbg_check_unlock
 111              	.LVL9:
 112              	.LBB4:
 113 0018 2346     		mov	r3, r4
 114              	.LVL10:
ARM GAS  /var/folders/dt/0wfd0knj7gs46m8vwfzktm600000gn/T//ccfLNI7n.s 			page 3


 115              	@ 105 "../../os/hal/src/serial.c" 1
 116 001a 83F31188 		msr     BASEPRI, r3
 117              	@ 0 "" 2
 118              	.LVL11:
 119              		.thumb
 120              	.LBE4:
 121              		.loc 1 106 0
 122 001e 3046     		mov	r0, r6
 123 0020 70BD     		pop	{r4, r5, r6, pc}
 124              		.cfi_endproc
 125              	.LFE70:
 126              		.size	getflags, .-getflags
 127 0022 00BFAFF3 		.section	.text.readt,"ax",%progbits
 127      0080AFF3 
 127      0080AFF3 
 127      0080
 128              		.align	2
 129              		.p2align 4,,15
 130              		.thumb
 131              		.thumb_func
 132              		.type	readt, %function
 133              	readt:
 134              	.LFB69:
 135              		.loc 1 99 0
 136              		.cfi_startproc
 137              		@ args = 0, pretend = 0, frame = 0
 138              		@ frame_needed = 0, uses_anonymous_args = 0
 139              		@ link register save eliminated.
 140              	.LVL12:
 141              		.loc 1 101 0
 142 0000 1030     		adds	r0, r0, #16
 143              	.LVL13:
 144              		.loc 1 102 0
 145              		.loc 1 101 0
 146 0002 FFF7FEBF 		b	chIQReadTimeout
 147              	.LVL14:
 148              		.cfi_endproc
 149              	.LFE69:
 150              		.size	readt, .-readt
 151 0006 00BFAFF3 		.section	.text.reads,"ax",%progbits
 151      0080AFF3 
 151      0080
 152              		.align	2
 153              		.p2align 4,,15
 154              		.thumb
 155              		.thumb_func
 156              		.type	reads, %function
 157              	reads:
 158              	.LFB63:
 159              		.loc 1 68 0
 160              		.cfi_startproc
 161              		@ args = 0, pretend = 0, frame = 0
 162              		@ frame_needed = 0, uses_anonymous_args = 0
 163              		@ link register save eliminated.
 164              	.LVL15:
 165              		.loc 1 70 0
 166 0000 1030     		adds	r0, r0, #16
ARM GAS  /var/folders/dt/0wfd0knj7gs46m8vwfzktm600000gn/T//ccfLNI7n.s 			page 4


 167              	.LVL16:
 168 0002 4FF0FF33 		mov	r3, #-1
 169              		.loc 1 72 0
 170              		.loc 1 70 0
 171 0006 FFF7FEBF 		b	chIQReadTimeout
 172              	.LVL17:
 173              		.cfi_endproc
 174              	.LFE63:
 175              		.size	reads, .-reads
 176 000a 00BFAFF3 		.section	.text.writet,"ax",%progbits
 176      0080
 177              		.align	2
 178              		.p2align 4,,15
 179              		.thumb
 180              		.thumb_func
 181              		.type	writet, %function
 182              	writet:
 183              	.LFB68:
 184              		.loc 1 94 0
 185              		.cfi_startproc
 186              		@ args = 0, pretend = 0, frame = 0
 187              		@ frame_needed = 0, uses_anonymous_args = 0
 188              		@ link register save eliminated.
 189              	.LVL18:
 190              		.loc 1 96 0
 191 0000 3030     		adds	r0, r0, #48
 192              	.LVL19:
 193              		.loc 1 97 0
 194              		.loc 1 96 0
 195 0002 FFF7FEBF 		b	chOQWriteTimeout
 196              	.LVL20:
 197              		.cfi_endproc
 198              	.LFE68:
 199              		.size	writet, .-writet
 200 0006 00BFAFF3 		.section	.text.writes,"ax",%progbits
 200      0080AFF3 
 200      0080
 201              		.align	2
 202              		.p2align 4,,15
 203              		.thumb
 204              		.thumb_func
 205              		.type	writes, %function
 206              	writes:
 207              	.LFB62:
 208              		.loc 1 62 0
 209              		.cfi_startproc
 210              		@ args = 0, pretend = 0, frame = 0
 211              		@ frame_needed = 0, uses_anonymous_args = 0
 212              		@ link register save eliminated.
 213              	.LVL21:
 214              		.loc 1 64 0
 215 0000 3030     		adds	r0, r0, #48
 216              	.LVL22:
 217 0002 4FF0FF33 		mov	r3, #-1
 218              		.loc 1 66 0
 219              		.loc 1 64 0
 220 0006 FFF7FEBF 		b	chOQWriteTimeout
ARM GAS  /var/folders/dt/0wfd0knj7gs46m8vwfzktm600000gn/T//ccfLNI7n.s 			page 5


 221              	.LVL23:
 222              		.cfi_endproc
 223              	.LFE62:
 224              		.size	writes, .-writes
 225 000a 00BFAFF3 		.section	.text.gett,"ax",%progbits
 225      0080
 226              		.align	2
 227              		.p2align 4,,15
 228              		.thumb
 229              		.thumb_func
 230              		.type	gett, %function
 231              	gett:
 232              	.LFB67:
 233              		.loc 1 89 0
 234              		.cfi_startproc
 235              		@ args = 0, pretend = 0, frame = 0
 236              		@ frame_needed = 0, uses_anonymous_args = 0
 237              		@ link register save eliminated.
 238              	.LVL24:
 239              		.loc 1 91 0
 240 0000 1030     		adds	r0, r0, #16
 241              	.LVL25:
 242              		.loc 1 92 0
 243              		.loc 1 91 0
 244 0002 FFF7FEBF 		b	chIQGetTimeout
 245              	.LVL26:
 246              		.cfi_endproc
 247              	.LFE67:
 248              		.size	gett, .-gett
 249 0006 00BFAFF3 		.section	.text.putt,"ax",%progbits
 249      0080AFF3 
 249      0080
 250              		.align	2
 251              		.p2align 4,,15
 252              		.thumb
 253              		.thumb_func
 254              		.type	putt, %function
 255              	putt:
 256              	.LFB66:
 257              		.loc 1 84 0
 258              		.cfi_startproc
 259              		@ args = 0, pretend = 0, frame = 0
 260              		@ frame_needed = 0, uses_anonymous_args = 0
 261              		@ link register save eliminated.
 262              	.LVL27:
 263              		.loc 1 86 0
 264 0000 3030     		adds	r0, r0, #48
 265              	.LVL28:
 266              		.loc 1 87 0
 267              		.loc 1 86 0
 268 0002 FFF7FEBF 		b	chOQPutTimeout
 269              	.LVL29:
 270              		.cfi_endproc
 271              	.LFE66:
 272              		.size	putt, .-putt
 273 0006 00BFAFF3 		.section	.text.sdInit,"ax",%progbits
 273      0080AFF3 
ARM GAS  /var/folders/dt/0wfd0knj7gs46m8vwfzktm600000gn/T//ccfLNI7n.s 			page 6


 273      0080
 274              		.align	2
 275              		.p2align 4,,15
 276              		.global	sdInit
 277              		.thumb
 278              		.thumb_func
 279              		.type	sdInit, %function
 280              	sdInit:
 281              	.LFB71:
 282              		.loc 1 125 0
 283              		.cfi_startproc
 284              		@ args = 0, pretend = 0, frame = 0
 285              		@ frame_needed = 0, uses_anonymous_args = 0
 286              		@ link register save eliminated.
 287              		.loc 1 128 0
 288              		.loc 1 127 0
 289 0000 FFF7FEBF 		b	sd_lld_init
 290              	.LVL30:
 291              		.cfi_endproc
 292              	.LFE71:
 293              		.size	sdInit, .-sdInit
 294 0004 AFF30080 		.section	.text.sdObjectInit,"ax",%progbits
 294      AFF30080 
 294      AFF30080 
 295              		.align	2
 296              		.p2align 4,,15
 297              		.global	sdObjectInit
 298              		.thumb
 299              		.thumb_func
 300              		.type	sdObjectInit, %function
 301              	sdObjectInit:
 302              	.LFB72:
 303              		.loc 1 145 0
 304              		.cfi_startproc
 305              		@ args = 0, pretend = 0, frame = 0
 306              		@ frame_needed = 0, uses_anonymous_args = 0
 307              	.LVL31:
 308 0000 0B46     		mov	r3, r1
 309              		.loc 1 147 0
 310 0002 40F20001 		movw	r1, #:lower16:.LANCHOR0
 311              	.LVL32:
 312              		.loc 1 145 0
 313 0006 70B5     		push	{r4, r5, r6, lr}
 314              	.LCFI1:
 315              		.cfi_def_cfa_offset 16
 316              		.cfi_offset 4, -16
 317              		.cfi_offset 5, -12
 318              		.cfi_offset 6, -8
 319              		.cfi_offset 14, -4
 320              		.loc 1 147 0
 321 0008 C0F20001 		movt	r1, #:upper16:.LANCHOR0
 322 000c 0546     		mov	r5, r0
 323              		.loc 1 145 0
 324 000e 0446     		mov	r4, r0
 325              		.loc 1 147 0
 326 0010 45F8041B 		str	r1, [r5], #4
 327              		.loc 1 148 0
ARM GAS  /var/folders/dt/0wfd0knj7gs46m8vwfzktm600000gn/T//ccfLNI7n.s 			page 7


 328 0014 6560     		str	r5, [r4, #4]
 329              		.loc 1 149 0
 330 0016 0025     		movs	r5, #0
 331 0018 A560     		str	r5, [r4, #8]
 332              		.loc 1 150 0
 333 001a 0125     		movs	r5, #1
 334              		.loc 1 145 0
 335 001c 1646     		mov	r6, r2
 336              		.loc 1 151 0
 337 001e 04F15001 		add	r1, r4, #80
 338 0022 1022     		movs	r2, #16
 339              	.LVL33:
 340 0024 00F11000 		add	r0, r0, #16
 341              	.LVL34:
 342              		.loc 1 150 0
 343 0028 2573     		strb	r5, [r4, #12]
 344              		.loc 1 151 0
 345 002a FFF7FEFF 		bl	chIQInit
 346              	.LVL35:
 347              		.loc 1 152 0
 348 002e 04F13000 		add	r0, r4, #48
 349 0032 04F16001 		add	r1, r4, #96
 350 0036 1022     		movs	r2, #16
 351 0038 3346     		mov	r3, r6
 352              		.loc 1 153 0
 353 003a BDE87040 		pop	{r4, r5, r6, lr}
 354              		.loc 1 152 0
 355 003e FFF7FEBF 		b	chOQInit
 356              	.LVL36:
 357              		.cfi_endproc
 358              	.LFE72:
 359              		.size	sdObjectInit, .-sdObjectInit
 360 0042 00BFAFF3 		.section	.text.sdStart,"ax",%progbits
 360      0080AFF3 
 360      0080AFF3 
 360      0080
 361              		.align	2
 362              		.p2align 4,,15
 363              		.global	sdStart
 364              		.thumb
 365              		.thumb_func
 366              		.type	sdStart, %function
 367              	sdStart:
 368              	.LFB73:
 369              		.loc 1 165 0
 370              		.cfi_startproc
 371              		@ args = 0, pretend = 0, frame = 0
 372              		@ frame_needed = 0, uses_anonymous_args = 0
 373              	.LVL37:
 374 0000 38B5     		push	{r3, r4, r5, lr}
 375              	.LCFI2:
 376              		.cfi_def_cfa_offset 16
 377              		.cfi_offset 3, -16
 378              		.cfi_offset 4, -12
 379              		.cfi_offset 5, -8
 380              		.cfi_offset 14, -4
 381              		.loc 1 167 0
ARM GAS  /var/folders/dt/0wfd0knj7gs46m8vwfzktm600000gn/T//ccfLNI7n.s 			page 8


 382 0002 0446     		mov	r4, r0
 383              		.loc 1 165 0
 384 0004 0D46     		mov	r5, r1
 385              		.loc 1 167 0
 386 0006 B8B1     		cbz	r0, .L16
 387              	.LVL38:
 388              	.L13:
 389              	.LBB5:
 390              		.loc 1 169 0
 391 0008 2023     		movs	r3, #32
 392              	.LVL39:
 393              	@ 169 "../../os/hal/src/serial.c" 1
 394 000a 83F31188 		msr     BASEPRI, r3
 395              	@ 0 "" 2
 396              	.LVL40:
 397              		.thumb
 398              	.LBE5:
 399 000e FFF7FEFF 		bl	dbg_check_lock
 400              	.LVL41:
 401              		.loc 1 170 0
 402 0012 237B     		ldrb	r3, [r4, #12]	@ zero_extendqisi2
 403 0014 013B     		subs	r3, r3, #1
 404 0016 012B     		cmp	r3, #1
 405 0018 02D9     		bls	.L14
 406              		.loc 1 170 0 is_stmt 0 discriminator 1
 407 001a 0948     		ldr	r0, .L17
 408 001c FFF7FEFF 		bl	chDbgPanic
 409              	.LVL42:
 410              	.L14:
 411              		.loc 1 173 0 is_stmt 1
 412 0020 2046     		mov	r0, r4
 413 0022 2946     		mov	r1, r5
 414 0024 FFF7FEFF 		bl	sd_lld_start
 415              	.LVL43:
 416              		.loc 1 174 0
 417 0028 0223     		movs	r3, #2
 418 002a 2373     		strb	r3, [r4, #12]
 419              		.loc 1 175 0
 420 002c FFF7FEFF 		bl	dbg_check_unlock
 421              	.LVL44:
 422              	.LBB6:
 423 0030 0023     		movs	r3, #0
 424              	.LVL45:
 425              	@ 175 "../../os/hal/src/serial.c" 1
 426 0032 83F31188 		msr     BASEPRI, r3
 427              	@ 0 "" 2
 428              	.LVL46:
 429              		.thumb
 430 0036 38BD     		pop	{r3, r4, r5, pc}
 431              	.LVL47:
 432              	.L16:
 433              	.LBE6:
 434              		.loc 1 167 0 discriminator 1
 435 0038 0248     		ldr	r0, .L17+4
 436              	.LVL48:
 437 003a FFF7FEFF 		bl	chDbgPanic
 438              	.LVL49:
ARM GAS  /var/folders/dt/0wfd0knj7gs46m8vwfzktm600000gn/T//ccfLNI7n.s 			page 9


 439 003e E3E7     		b	.L13
 440              	.L18:
 441              		.align	2
 442              	.L17:
 443 0040 0C000000 		.word	.LC1
 444 0044 00000000 		.word	.LC0
 445              		.cfi_endproc
 446              	.LFE73:
 447              		.size	sdStart, .-sdStart
 448 0048 AFF30080 		.section	.text.sdStop,"ax",%progbits
 448      AFF30080 
 449              		.align	2
 450              		.p2align 4,,15
 451              		.global	sdStop
 452              		.thumb
 453              		.thumb_func
 454              		.type	sdStop, %function
 455              	sdStop:
 456              	.LFB74:
 457              		.loc 1 187 0
 458              		.cfi_startproc
 459              		@ args = 0, pretend = 0, frame = 0
 460              		@ frame_needed = 0, uses_anonymous_args = 0
 461              	.LVL50:
 462 0000 10B5     		push	{r4, lr}
 463              	.LCFI3:
 464              		.cfi_def_cfa_offset 8
 465              		.cfi_offset 4, -8
 466              		.cfi_offset 14, -4
 467              		.loc 1 189 0
 468 0002 0446     		mov	r4, r0
 469 0004 00B3     		cbz	r0, .L22
 470              	.LVL51:
 471              	.L20:
 472              	.LBB7:
 473              		.loc 1 191 0
 474 0006 2023     		movs	r3, #32
 475              	.LVL52:
 476              	@ 191 "../../os/hal/src/serial.c" 1
 477 0008 83F31188 		msr     BASEPRI, r3
 478              	@ 0 "" 2
 479              	.LVL53:
 480              		.thumb
 481              	.LBE7:
 482 000c FFF7FEFF 		bl	dbg_check_lock
 483              	.LVL54:
 484              		.loc 1 192 0
 485 0010 237B     		ldrb	r3, [r4, #12]	@ zero_extendqisi2
 486 0012 013B     		subs	r3, r3, #1
 487 0014 012B     		cmp	r3, #1
 488 0016 02D9     		bls	.L21
 489              		.loc 1 192 0 is_stmt 0 discriminator 1
 490 0018 0D48     		ldr	r0, .L23
 491 001a FFF7FEFF 		bl	chDbgPanic
 492              	.LVL55:
 493              	.L21:
 494              		.loc 1 195 0 is_stmt 1
ARM GAS  /var/folders/dt/0wfd0knj7gs46m8vwfzktm600000gn/T//ccfLNI7n.s 			page 10


 495 001e 2046     		mov	r0, r4
 496 0020 FFF7FEFF 		bl	sd_lld_stop
 497              	.LVL56:
 498              		.loc 1 196 0
 499 0024 0123     		movs	r3, #1
 500 0026 2373     		strb	r3, [r4, #12]
 501              		.loc 1 197 0
 502 0028 04F13000 		add	r0, r4, #48
 503 002c FFF7FEFF 		bl	chOQResetI
 504              	.LVL57:
 505              		.loc 1 198 0
 506 0030 04F11000 		add	r0, r4, #16
 507 0034 FFF7FEFF 		bl	chIQResetI
 508              	.LVL58:
 509              		.loc 1 199 0
 510 0038 FFF7FEFF 		bl	chSchRescheduleS
 511              	.LVL59:
 512              		.loc 1 200 0
 513 003c FFF7FEFF 		bl	dbg_check_unlock
 514              	.LVL60:
 515              	.LBB8:
 516 0040 0023     		movs	r3, #0
 517              	.LVL61:
 518              	@ 200 "../../os/hal/src/serial.c" 1
 519 0042 83F31188 		msr     BASEPRI, r3
 520              	@ 0 "" 2
 521              	.LVL62:
 522              		.thumb
 523 0046 10BD     		pop	{r4, pc}
 524              	.LVL63:
 525              	.L22:
 526              	.LBE8:
 527              		.loc 1 189 0 discriminator 1
 528 0048 0248     		ldr	r0, .L23+4
 529              	.LVL64:
 530 004a FFF7FEFF 		bl	chDbgPanic
 531              	.LVL65:
 532 004e DAE7     		b	.L20
 533              	.L24:
 534              		.align	2
 535              	.L23:
 536 0050 28000000 		.word	.LC3
 537 0054 1C000000 		.word	.LC2
 538              		.cfi_endproc
 539              	.LFE74:
 540              		.size	sdStop, .-sdStop
 541 0058 AFF30080 		.section	.text.sdIncomingDataI,"ax",%progbits
 541      AFF30080 
 542              		.align	2
 543              		.p2align 4,,15
 544              		.global	sdIncomingDataI
 545              		.thumb
 546              		.thumb_func
 547              		.type	sdIncomingDataI, %function
 548              	sdIncomingDataI:
 549              	.LFB75:
 550              		.loc 1 219 0
ARM GAS  /var/folders/dt/0wfd0knj7gs46m8vwfzktm600000gn/T//ccfLNI7n.s 			page 11


 551              		.cfi_startproc
 552              		@ args = 0, pretend = 0, frame = 0
 553              		@ frame_needed = 0, uses_anonymous_args = 0
 554              	.LVL66:
 555 0000 38B5     		push	{r3, r4, r5, lr}
 556              	.LCFI4:
 557              		.cfi_def_cfa_offset 16
 558              		.cfi_offset 3, -16
 559              		.cfi_offset 4, -12
 560              		.cfi_offset 5, -8
 561              		.cfi_offset 14, -4
 562              		.loc 1 219 0
 563 0002 0446     		mov	r4, r0
 564 0004 0D46     		mov	r5, r1
 565              		.loc 1 221 0
 566 0006 FFF7FEFF 		bl	chDbgCheckClassI
 567              	.LVL67:
 568              		.loc 1 222 0
 569 000a 002C     		cmp	r4, #0
 570 000c 21D0     		beq	.L29
 571              	.L26:
 572              		.loc 1 224 0
 573 000e A169     		ldr	r1, [r4, #24]
 574 0010 39B1     		cbz	r1, .L30
 575              		.loc 1 226 0
 576 0012 04F11000 		add	r0, r4, #16
 577 0016 2946     		mov	r1, r5
 578 0018 FFF7FEFF 		bl	chIQPutI
 579              	.LVL68:
 580 001c 0028     		cmp	r0, #0
 581 001e 0EDB     		blt	.L31
 582              	.L25:
 583 0020 38BD     		pop	{r3, r4, r5, pc}
 584              	.L30:
 585              		.loc 1 225 0
 586 0022 A268     		ldr	r2, [r4, #8]
 587 0024 201D     		adds	r0, r4, #4
 588 0026 42F00402 		orr	r2, r2, #4
 589 002a A260     		str	r2, [r4, #8]
 590 002c FFF7FEFF 		bl	chEvtBroadcastFlagsI
 591              	.LVL69:
 592              		.loc 1 226 0
 593 0030 04F11000 		add	r0, r4, #16
 594 0034 2946     		mov	r1, r5
 595 0036 FFF7FEFF 		bl	chIQPutI
 596              	.LVL70:
 597 003a 0028     		cmp	r0, #0
 598 003c F0DA     		bge	.L25
 599              	.L31:
 600              		.loc 1 227 0
 601 003e A368     		ldr	r3, [r4, #8]
 602 0040 201D     		adds	r0, r4, #4
 603 0042 43F08003 		orr	r3, r3, #128
 604 0046 0021     		movs	r1, #0
 605 0048 A360     		str	r3, [r4, #8]
 606              		.loc 1 228 0
 607 004a BDE83840 		pop	{r3, r4, r5, lr}
ARM GAS  /var/folders/dt/0wfd0knj7gs46m8vwfzktm600000gn/T//ccfLNI7n.s 			page 12


 608              		.loc 1 227 0
 609 004e FFF7FEBF 		b	chEvtBroadcastFlagsI
 610              	.LVL71:
 611              	.L29:
 612              		.loc 1 222 0 discriminator 1
 613 0052 0248     		ldr	r0, .L32
 614 0054 FFF7FEFF 		bl	chDbgPanic
 615              	.LVL72:
 616 0058 D9E7     		b	.L26
 617              	.L33:
 618 005a 00BF     		.align	2
 619              	.L32:
 620 005c 38000000 		.word	.LC4
 621              		.cfi_endproc
 622              	.LFE75:
 623              		.size	sdIncomingDataI, .-sdIncomingDataI
 624              		.section	.text.sdRequestDataI,"ax",%progbits
 625              		.align	2
 626              		.p2align 4,,15
 627              		.global	sdRequestDataI
 628              		.thumb
 629              		.thumb_func
 630              		.type	sdRequestDataI, %function
 631              	sdRequestDataI:
 632              	.LFB76:
 633              		.loc 1 245 0
 634              		.cfi_startproc
 635              		@ args = 0, pretend = 0, frame = 0
 636              		@ frame_needed = 0, uses_anonymous_args = 0
 637              	.LVL73:
 638 0000 38B5     		push	{r3, r4, r5, lr}
 639              	.LCFI5:
 640              		.cfi_def_cfa_offset 16
 641              		.cfi_offset 3, -16
 642              		.cfi_offset 4, -12
 643              		.cfi_offset 5, -8
 644              		.cfi_offset 14, -4
 645              		.loc 1 245 0
 646 0002 0446     		mov	r4, r0
 647              		.loc 1 248 0
 648 0004 FFF7FEFF 		bl	chDbgCheckClassI
 649              	.LVL74:
 650              		.loc 1 249 0
 651 0008 8CB1     		cbz	r4, .L37
 652              	.L35:
 653              		.loc 1 251 0
 654 000a 04F13000 		add	r0, r4, #48
 655 000e FFF7FEFF 		bl	chOQGetI
 656              	.LVL75:
 657              		.loc 1 252 0
 658 0012 051E     		subs	r5, r0, #0
 659 0014 01DB     		blt	.L38
 660              		.loc 1 255 0
 661 0016 2846     		mov	r0, r5
 662 0018 38BD     		pop	{r3, r4, r5, pc}
 663              	.L38:
 664              		.loc 1 253 0
ARM GAS  /var/folders/dt/0wfd0knj7gs46m8vwfzktm600000gn/T//ccfLNI7n.s 			page 13


 665 001a A368     		ldr	r3, [r4, #8]
 666 001c 201D     		adds	r0, r4, #4
 667 001e 43F00803 		orr	r3, r3, #8
 668 0022 A360     		str	r3, [r4, #8]
 669 0024 0021     		movs	r1, #0
 670 0026 FFF7FEFF 		bl	chEvtBroadcastFlagsI
 671              	.LVL76:
 672              		.loc 1 255 0
 673 002a 2846     		mov	r0, r5
 674 002c 38BD     		pop	{r3, r4, r5, pc}
 675              	.LVL77:
 676              	.L37:
 677              		.loc 1 249 0 discriminator 1
 678 002e 0248     		ldr	r0, .L39
 679 0030 FFF7FEFF 		bl	chDbgPanic
 680              	.LVL78:
 681 0034 E9E7     		b	.L35
 682              	.L40:
 683 0036 00BF     		.align	2
 684              	.L39:
 685 0038 4C000000 		.word	.LC5
 686              		.cfi_endproc
 687              	.LFE76:
 688              		.size	sdRequestDataI, .-sdRequestDataI
 689 003c AFF30080 		.section	.rodata.str1.4,"aMS",%progbits,1
 690              		.align	2
 691              	.LC0:
 692 0000 22736453 		.ascii	"\"sdStart\"()\000"
 692      74617274 
 692      22282900 
 693              	.LC1:
 694 000c 73645374 		.ascii	"sdStart(), #1\000"
 694      61727428 
 694      292C2023 
 694      3100
 695 001a 0000     		.space	2
 696              	.LC2:
 697 001c 22736453 		.ascii	"\"sdStop\"()\000"
 697      746F7022 
 697      282900
 698 0027 00       		.space	1
 699              	.LC3:
 700 0028 73645374 		.ascii	"sdStop(), #1\000"
 700      6F702829 
 700      2C202331 
 700      00
 701 0035 000000   		.space	3
 702              	.LC4:
 703 0038 22736449 		.ascii	"\"sdIncomingDataI\"()\000"
 703      6E636F6D 
 703      696E6744 
 703      61746149 
 703      22282900 
 704              	.LC5:
 705 004c 22736452 		.ascii	"\"sdRequestDataI\"()\000"
 705      65717565 
 705      73744461 
ARM GAS  /var/folders/dt/0wfd0knj7gs46m8vwfzktm600000gn/T//ccfLNI7n.s 			page 14


 705      74614922 
 705      282900
 706 005f 00       		.section	.rodata.vmt,"a",%progbits
 707              		.align	2
 708              		.set	.LANCHOR0,. + 0
 709              		.type	vmt, %object
 710              		.size	vmt, 36
 711              	vmt:
 712 0000 00000000 		.word	writes
 713 0004 00000000 		.word	reads
 714 0008 00000000 		.word	putwouldblock
 715 000c 00000000 		.word	getwouldblock
 716 0010 00000000 		.word	putt
 717 0014 00000000 		.word	gett
 718 0018 00000000 		.word	writet
 719 001c 00000000 		.word	readt
 720 0020 00000000 		.word	getflags
 721              		.text
 722              	.Letext0:
 723              		.file 2 "/Users/toxygen/Applications/yagarto-4.7.2/bin/../lib/gcc/arm-none-eabi/4.7.2/include/stdd
 724              		.file 3 "/Users/toxygen/Applications/yagarto-4.7.2/bin/../lib/gcc/arm-none-eabi/4.7.2/../../../../
 725              		.file 4 "../../os/ports/GCC/ARMCMx/chtypes.h"
 726              		.file 5 "../../os/kernel/include/chlists.h"
 727              		.file 6 "../../os/kernel/include/chthreads.h"
 728              		.file 7 "../../os/ports/GCC/ARMCMx/chcore_v7m.h"
 729              		.file 8 "../../os/kernel/include/chmtx.h"
 730              		.file 9 "../../os/kernel/include/chevents.h"
 731              		.file 10 "../../os/kernel/include/chqueues.h"
 732              		.file 11 "../../os/kernel/include/chioch.h"
 733              		.file 12 "../../os/hal/platforms/STM32F1xx/stm32f10x.h"
 734              		.file 13 "../../os/hal/include/serial.h"
 735              		.file 14 "../../os/hal/platforms/STM32/serial_lld.h"
 736              		.file 15 "../../os/kernel/include/chdebug.h"
 737              		.file 16 "../../os/kernel/include/chschd.h"
 738              		.file 17 "../../os/ports/common/ARMCMx/CMSIS/include/core_cm3.h"
 739              		.section	.debug_info,"",%progbits
 740              	.Ldebug_info0:
 741 0000 CC120000 		.4byte	0x12cc
 742 0004 0200     		.2byte	0x2
 743 0006 00000000 		.4byte	.Ldebug_abbrev0
 744 000a 04       		.byte	0x4
 745 000b 01       		.uleb128 0x1
 746 000c 2C030000 		.4byte	.LASF147
 747 0010 01       		.byte	0x1
 748 0011 83050000 		.4byte	.LASF148
 749 0015 CE040000 		.4byte	.LASF149
 750 0019 18000000 		.4byte	.Ldebug_ranges0+0x18
 751 001d 00000000 		.4byte	0
 752 0021 00000000 		.4byte	0
 753 0025 00000000 		.4byte	.Ldebug_line0
 754 0029 02       		.uleb128 0x2
 755 002a 04       		.byte	0x4
 756 002b 05       		.byte	0x5
 757 002c 696E7400 		.ascii	"int\000"
 758 0030 03       		.uleb128 0x3
 759 0031 18000000 		.4byte	.LASF2
 760 0035 02       		.byte	0x2
ARM GAS  /var/folders/dt/0wfd0knj7gs46m8vwfzktm600000gn/T//ccfLNI7n.s 			page 15


 761 0036 D5       		.byte	0xd5
 762 0037 3B000000 		.4byte	0x3b
 763 003b 04       		.uleb128 0x4
 764 003c 04       		.byte	0x4
 765 003d 07       		.byte	0x7
 766 003e C4010000 		.4byte	.LASF0
 767 0042 04       		.uleb128 0x4
 768 0043 01       		.byte	0x1
 769 0044 06       		.byte	0x6
 770 0045 E9000000 		.4byte	.LASF1
 771 0049 03       		.uleb128 0x3
 772 004a 7B050000 		.4byte	.LASF3
 773 004e 03       		.byte	0x3
 774 004f 2A       		.byte	0x2a
 775 0050 54000000 		.4byte	0x54
 776 0054 04       		.uleb128 0x4
 777 0055 01       		.byte	0x1
 778 0056 08       		.byte	0x8
 779 0057 C8030000 		.4byte	.LASF4
 780 005b 04       		.uleb128 0x4
 781 005c 02       		.byte	0x2
 782 005d 05       		.byte	0x5
 783 005e 01040000 		.4byte	.LASF5
 784 0062 03       		.uleb128 0x3
 785 0063 D1010000 		.4byte	.LASF6
 786 0067 03       		.byte	0x3
 787 0068 36       		.byte	0x36
 788 0069 6D000000 		.4byte	0x6d
 789 006d 04       		.uleb128 0x4
 790 006e 02       		.byte	0x2
 791 006f 07       		.byte	0x7
 792 0070 22020000 		.4byte	.LASF7
 793 0074 03       		.uleb128 0x3
 794 0075 C0030000 		.4byte	.LASF8
 795 0079 03       		.byte	0x3
 796 007a 4F       		.byte	0x4f
 797 007b 7F000000 		.4byte	0x7f
 798 007f 04       		.uleb128 0x4
 799 0080 04       		.byte	0x4
 800 0081 05       		.byte	0x5
 801 0082 17010000 		.4byte	.LASF9
 802 0086 03       		.uleb128 0x3
 803 0087 57040000 		.4byte	.LASF10
 804 008b 03       		.byte	0x3
 805 008c 50       		.byte	0x50
 806 008d 91000000 		.4byte	0x91
 807 0091 04       		.uleb128 0x4
 808 0092 04       		.byte	0x4
 809 0093 07       		.byte	0x7
 810 0094 77040000 		.4byte	.LASF11
 811 0098 04       		.uleb128 0x4
 812 0099 08       		.byte	0x8
 813 009a 05       		.byte	0x5
 814 009b DB000000 		.4byte	.LASF12
 815 009f 03       		.uleb128 0x3
 816 00a0 26000000 		.4byte	.LASF13
 817 00a4 03       		.byte	0x3
ARM GAS  /var/folders/dt/0wfd0knj7gs46m8vwfzktm600000gn/T//ccfLNI7n.s 			page 16


 818 00a5 78       		.byte	0x78
 819 00a6 AA000000 		.4byte	0xaa
 820 00aa 04       		.uleb128 0x4
 821 00ab 08       		.byte	0x8
 822 00ac 07       		.byte	0x7
 823 00ad 65000000 		.4byte	.LASF14
 824 00b1 03       		.uleb128 0x3
 825 00b2 57000000 		.4byte	.LASF15
 826 00b6 03       		.byte	0x3
 827 00b7 A6       		.byte	0xa6
 828 00b8 3B000000 		.4byte	0x3b
 829 00bc 03       		.uleb128 0x3
 830 00bd 02010000 		.4byte	.LASF16
 831 00c1 04       		.byte	0x4
 832 00c2 2E       		.byte	0x2e
 833 00c3 74000000 		.4byte	0x74
 834 00c7 03       		.uleb128 0x3
 835 00c8 61020000 		.4byte	.LASF17
 836 00cc 04       		.byte	0x4
 837 00cd 2F       		.byte	0x2f
 838 00ce 49000000 		.4byte	0x49
 839 00d2 03       		.uleb128 0x3
 840 00d3 20010000 		.4byte	.LASF18
 841 00d7 04       		.byte	0x4
 842 00d8 30       		.byte	0x30
 843 00d9 49000000 		.4byte	0x49
 844 00dd 03       		.uleb128 0x3
 845 00de 65030000 		.4byte	.LASF19
 846 00e2 04       		.byte	0x4
 847 00e3 31       		.byte	0x31
 848 00e4 49000000 		.4byte	0x49
 849 00e8 03       		.uleb128 0x3
 850 00e9 B0030000 		.4byte	.LASF20
 851 00ed 04       		.byte	0x4
 852 00ee 32       		.byte	0x32
 853 00ef 86000000 		.4byte	0x86
 854 00f3 03       		.uleb128 0x3
 855 00f4 35020000 		.4byte	.LASF21
 856 00f8 04       		.byte	0x4
 857 00f9 33       		.byte	0x33
 858 00fa 74000000 		.4byte	0x74
 859 00fe 03       		.uleb128 0x3
 860 00ff 3B000000 		.4byte	.LASF22
 861 0103 04       		.byte	0x4
 862 0104 35       		.byte	0x35
 863 0105 86000000 		.4byte	0x86
 864 0109 03       		.uleb128 0x3
 865 010a B9040000 		.4byte	.LASF23
 866 010e 04       		.byte	0x4
 867 010f 36       		.byte	0x36
 868 0110 86000000 		.4byte	0x86
 869 0114 03       		.uleb128 0x3
 870 0115 31040000 		.4byte	.LASF24
 871 0119 05       		.byte	0x5
 872 011a 2A       		.byte	0x2a
 873 011b 1F010000 		.4byte	0x11f
 874 011f 05       		.uleb128 0x5
ARM GAS  /var/folders/dt/0wfd0knj7gs46m8vwfzktm600000gn/T//ccfLNI7n.s 			page 17


 875 0120 31040000 		.4byte	.LASF24
 876 0124 4C       		.byte	0x4c
 877 0125 06       		.byte	0x6
 878 0126 5E       		.byte	0x5e
 879 0127 44020000 		.4byte	0x244
 880 012b 06       		.uleb128 0x6
 881 012c 12040000 		.4byte	.LASF25
 882 0130 06       		.byte	0x6
 883 0131 5F       		.byte	0x5f
 884 0132 69020000 		.4byte	0x269
 885 0136 02       		.byte	0x2
 886 0137 23       		.byte	0x23
 887 0138 00       		.uleb128 0
 888 0139 06       		.uleb128 0x6
 889 013a 9F030000 		.4byte	.LASF26
 890 013e 06       		.byte	0x6
 891 013f 61       		.byte	0x61
 892 0140 69020000 		.4byte	0x269
 893 0144 02       		.byte	0x2
 894 0145 23       		.byte	0x23
 895 0146 04       		.uleb128 0x4
 896 0147 06       		.uleb128 0x6
 897 0148 DD020000 		.4byte	.LASF27
 898 014c 06       		.byte	0x6
 899 014d 63       		.byte	0x63
 900 014e E8000000 		.4byte	0xe8
 901 0152 02       		.byte	0x2
 902 0153 23       		.byte	0x23
 903 0154 08       		.uleb128 0x8
 904 0155 06       		.uleb128 0x6
 905 0156 04060000 		.4byte	.LASF28
 906 015a 06       		.byte	0x6
 907 015b 64       		.byte	0x64
 908 015c 41030000 		.4byte	0x341
 909 0160 02       		.byte	0x2
 910 0161 23       		.byte	0x23
 911 0162 0C       		.uleb128 0xc
 912 0163 06       		.uleb128 0x6
 913 0164 5F010000 		.4byte	.LASF29
 914 0168 06       		.byte	0x6
 915 0169 66       		.byte	0x66
 916 016a 69020000 		.4byte	0x269
 917 016e 02       		.byte	0x2
 918 016f 23       		.byte	0x23
 919 0170 10       		.uleb128 0x10
 920 0171 06       		.uleb128 0x6
 921 0172 EC020000 		.4byte	.LASF30
 922 0176 06       		.byte	0x6
 923 0177 67       		.byte	0x67
 924 0178 69020000 		.4byte	0x269
 925 017c 02       		.byte	0x2
 926 017d 23       		.byte	0x23
 927 017e 14       		.uleb128 0x14
 928 017f 06       		.uleb128 0x6
 929 0180 40050000 		.4byte	.LASF31
 930 0184 06       		.byte	0x6
 931 0185 6E       		.byte	0x6e
ARM GAS  /var/folders/dt/0wfd0knj7gs46m8vwfzktm600000gn/T//ccfLNI7n.s 			page 18


 932 0186 5B040000 		.4byte	0x45b
 933 018a 02       		.byte	0x2
 934 018b 23       		.byte	0x23
 935 018c 18       		.uleb128 0x18
 936 018d 06       		.uleb128 0x6
 937 018e 14030000 		.4byte	.LASF32
 938 0192 06       		.byte	0x6
 939 0193 74       		.byte	0x74
 940 0194 6D040000 		.4byte	0x46d
 941 0198 02       		.byte	0x2
 942 0199 23       		.byte	0x23
 943 019a 1C       		.uleb128 0x1c
 944 019b 06       		.uleb128 0x6
 945 019c EF030000 		.4byte	.LASF33
 946 01a0 06       		.byte	0x6
 947 01a1 79       		.byte	0x79
 948 01a2 D2000000 		.4byte	0xd2
 949 01a6 02       		.byte	0x2
 950 01a7 23       		.byte	0x23
 951 01a8 20       		.uleb128 0x20
 952 01a9 06       		.uleb128 0x6
 953 01aa 19040000 		.4byte	.LASF34
 954 01ae 06       		.byte	0x6
 955 01af 7D       		.byte	0x7d
 956 01b0 C7000000 		.4byte	0xc7
 957 01b4 02       		.byte	0x2
 958 01b5 23       		.byte	0x23
 959 01b6 21       		.uleb128 0x21
 960 01b7 06       		.uleb128 0x6
 961 01b8 32010000 		.4byte	.LASF35
 962 01bc 06       		.byte	0x6
 963 01bd 82       		.byte	0x82
 964 01be DD000000 		.4byte	0xdd
 965 01c2 02       		.byte	0x2
 966 01c3 23       		.byte	0x23
 967 01c4 22       		.uleb128 0x22
 968 01c5 06       		.uleb128 0x6
 969 01c6 EA010000 		.4byte	.LASF36
 970 01ca 06       		.byte	0x6
 971 01cb 89       		.byte	0x89
 972 01cc 6B030000 		.4byte	0x36b
 973 01d0 02       		.byte	0x2
 974 01d1 23       		.byte	0x23
 975 01d2 24       		.uleb128 0x24
 976 01d3 07       		.uleb128 0x7
 977 01d4 705F7500 		.ascii	"p_u\000"
 978 01d8 06       		.byte	0x6
 979 01d9 AE       		.byte	0xae
 980 01da 26040000 		.4byte	0x426
 981 01de 02       		.byte	0x2
 982 01df 23       		.byte	0x23
 983 01e0 28       		.uleb128 0x28
 984 01e1 06       		.uleb128 0x6
 985 01e2 0A060000 		.4byte	.LASF37
 986 01e6 06       		.byte	0x6
 987 01e7 B3       		.byte	0xb3
 988 01e8 91020000 		.4byte	0x291
ARM GAS  /var/folders/dt/0wfd0knj7gs46m8vwfzktm600000gn/T//ccfLNI7n.s 			page 19


 989 01ec 02       		.byte	0x2
 990 01ed 23       		.byte	0x23
 991 01ee 2C       		.uleb128 0x2c
 992 01ef 06       		.uleb128 0x6
 993 01f0 00020000 		.4byte	.LASF38
 994 01f4 06       		.byte	0x6
 995 01f5 B9       		.byte	0xb9
 996 01f6 6F020000 		.4byte	0x26f
 997 01fa 02       		.byte	0x2
 998 01fb 23       		.byte	0x23
 999 01fc 30       		.uleb128 0x30
 1000 01fd 06       		.uleb128 0x6
 1001 01fe 66050000 		.4byte	.LASF39
 1002 0202 06       		.byte	0x6
 1003 0203 BD       		.byte	0xbd
 1004 0204 F3000000 		.4byte	0xf3
 1005 0208 02       		.byte	0x2
 1006 0209 23       		.byte	0x23
 1007 020a 38       		.uleb128 0x38
 1008 020b 06       		.uleb128 0x6
 1009 020c 38040000 		.4byte	.LASF40
 1010 0210 06       		.byte	0x6
 1011 0211 C3       		.byte	0xc3
 1012 0212 FE000000 		.4byte	0xfe
 1013 0216 02       		.byte	0x2
 1014 0217 23       		.byte	0x23
 1015 0218 3C       		.uleb128 0x3c
 1016 0219 06       		.uleb128 0x6
 1017 021a F7030000 		.4byte	.LASF41
 1018 021e 06       		.byte	0x6
 1019 021f CA       		.byte	0xca
 1020 0220 73040000 		.4byte	0x473
 1021 0224 02       		.byte	0x2
 1022 0225 23       		.byte	0x23
 1023 0226 40       		.uleb128 0x40
 1024 0227 06       		.uleb128 0x6
 1025 0228 C3040000 		.4byte	.LASF42
 1026 022c 06       		.byte	0x6
 1027 022d CE       		.byte	0xce
 1028 022e E8000000 		.4byte	0xe8
 1029 0232 02       		.byte	0x2
 1030 0233 23       		.byte	0x23
 1031 0234 44       		.uleb128 0x44
 1032 0235 06       		.uleb128 0x6
 1033 0236 FA000000 		.4byte	.LASF43
 1034 023a 06       		.byte	0x6
 1035 023b D4       		.byte	0xd4
 1036 023c A7020000 		.4byte	0x2a7
 1037 0240 02       		.byte	0x2
 1038 0241 23       		.byte	0x23
 1039 0242 48       		.uleb128 0x48
 1040 0243 00       		.byte	0
 1041 0244 08       		.uleb128 0x8
 1042 0245 08       		.byte	0x8
 1043 0246 05       		.byte	0x5
 1044 0247 61       		.byte	0x61
 1045 0248 69020000 		.4byte	0x269
ARM GAS  /var/folders/dt/0wfd0knj7gs46m8vwfzktm600000gn/T//ccfLNI7n.s 			page 20


 1046 024c 06       		.uleb128 0x6
 1047 024d 12040000 		.4byte	.LASF25
 1048 0251 05       		.byte	0x5
 1049 0252 62       		.byte	0x62
 1050 0253 69020000 		.4byte	0x269
 1051 0257 02       		.byte	0x2
 1052 0258 23       		.byte	0x23
 1053 0259 00       		.uleb128 0
 1054 025a 06       		.uleb128 0x6
 1055 025b 9F030000 		.4byte	.LASF26
 1056 025f 05       		.byte	0x5
 1057 0260 64       		.byte	0x64
 1058 0261 69020000 		.4byte	0x269
 1059 0265 02       		.byte	0x2
 1060 0266 23       		.byte	0x23
 1061 0267 04       		.uleb128 0x4
 1062 0268 00       		.byte	0
 1063 0269 09       		.uleb128 0x9
 1064 026a 04       		.byte	0x4
 1065 026b 14010000 		.4byte	0x114
 1066 026f 03       		.uleb128 0x3
 1067 0270 07030000 		.4byte	.LASF44
 1068 0274 05       		.byte	0x5
 1069 0275 66       		.byte	0x66
 1070 0276 44020000 		.4byte	0x244
 1071 027a 08       		.uleb128 0x8
 1072 027b 04       		.byte	0x4
 1073 027c 05       		.byte	0x5
 1074 027d 6B       		.byte	0x6b
 1075 027e 91020000 		.4byte	0x291
 1076 0282 06       		.uleb128 0x6
 1077 0283 12040000 		.4byte	.LASF25
 1078 0287 05       		.byte	0x5
 1079 0288 6D       		.byte	0x6d
 1080 0289 69020000 		.4byte	0x269
 1081 028d 02       		.byte	0x2
 1082 028e 23       		.byte	0x23
 1083 028f 00       		.uleb128 0
 1084 0290 00       		.byte	0
 1085 0291 03       		.uleb128 0x3
 1086 0292 69020000 		.4byte	.LASF45
 1087 0296 05       		.byte	0x5
 1088 0297 70       		.byte	0x70
 1089 0298 7A020000 		.4byte	0x27a
 1090 029c 03       		.uleb128 0x3
 1091 029d 8B010000 		.4byte	.LASF46
 1092 02a1 07       		.byte	0x7
 1093 02a2 D7       		.byte	0xd7
 1094 02a3 A7020000 		.4byte	0x2a7
 1095 02a7 0A       		.uleb128 0xa
 1096 02a8 04       		.byte	0x4
 1097 02a9 03       		.uleb128 0x3
 1098 02aa 9D020000 		.4byte	.LASF47
 1099 02ae 07       		.byte	0x7
 1100 02af DD       		.byte	0xdd
 1101 02b0 9F000000 		.4byte	0x9f
 1102 02b4 05       		.uleb128 0x5
ARM GAS  /var/folders/dt/0wfd0knj7gs46m8vwfzktm600000gn/T//ccfLNI7n.s 			page 21


 1103 02b5 2A050000 		.4byte	.LASF48
 1104 02b9 24       		.byte	0x24
 1105 02ba 07       		.byte	0x7
 1106 02bb FE       		.byte	0xfe
 1107 02bc 41030000 		.4byte	0x341
 1108 02c0 0B       		.uleb128 0xb
 1109 02c1 723400   		.ascii	"r4\000"
 1110 02c4 07       		.byte	0x7
 1111 02c5 1101     		.2byte	0x111
 1112 02c7 9C020000 		.4byte	0x29c
 1113 02cb 02       		.byte	0x2
 1114 02cc 23       		.byte	0x23
 1115 02cd 00       		.uleb128 0
 1116 02ce 0B       		.uleb128 0xb
 1117 02cf 723500   		.ascii	"r5\000"
 1118 02d2 07       		.byte	0x7
 1119 02d3 1201     		.2byte	0x112
 1120 02d5 9C020000 		.4byte	0x29c
 1121 02d9 02       		.byte	0x2
 1122 02da 23       		.byte	0x23
 1123 02db 04       		.uleb128 0x4
 1124 02dc 0B       		.uleb128 0xb
 1125 02dd 723600   		.ascii	"r6\000"
 1126 02e0 07       		.byte	0x7
 1127 02e1 1301     		.2byte	0x113
 1128 02e3 9C020000 		.4byte	0x29c
 1129 02e7 02       		.byte	0x2
 1130 02e8 23       		.byte	0x23
 1131 02e9 08       		.uleb128 0x8
 1132 02ea 0B       		.uleb128 0xb
 1133 02eb 723700   		.ascii	"r7\000"
 1134 02ee 07       		.byte	0x7
 1135 02ef 1401     		.2byte	0x114
 1136 02f1 9C020000 		.4byte	0x29c
 1137 02f5 02       		.byte	0x2
 1138 02f6 23       		.byte	0x23
 1139 02f7 0C       		.uleb128 0xc
 1140 02f8 0B       		.uleb128 0xb
 1141 02f9 723800   		.ascii	"r8\000"
 1142 02fc 07       		.byte	0x7
 1143 02fd 1501     		.2byte	0x115
 1144 02ff 9C020000 		.4byte	0x29c
 1145 0303 02       		.byte	0x2
 1146 0304 23       		.byte	0x23
 1147 0305 10       		.uleb128 0x10
 1148 0306 0B       		.uleb128 0xb
 1149 0307 723900   		.ascii	"r9\000"
 1150 030a 07       		.byte	0x7
 1151 030b 1601     		.2byte	0x116
 1152 030d 9C020000 		.4byte	0x29c
 1153 0311 02       		.byte	0x2
 1154 0312 23       		.byte	0x23
 1155 0313 14       		.uleb128 0x14
 1156 0314 0B       		.uleb128 0xb
 1157 0315 72313000 		.ascii	"r10\000"
 1158 0319 07       		.byte	0x7
 1159 031a 1701     		.2byte	0x117
ARM GAS  /var/folders/dt/0wfd0knj7gs46m8vwfzktm600000gn/T//ccfLNI7n.s 			page 22


 1160 031c 9C020000 		.4byte	0x29c
 1161 0320 02       		.byte	0x2
 1162 0321 23       		.byte	0x23
 1163 0322 18       		.uleb128 0x18
 1164 0323 0B       		.uleb128 0xb
 1165 0324 72313100 		.ascii	"r11\000"
 1166 0328 07       		.byte	0x7
 1167 0329 1801     		.2byte	0x118
 1168 032b 9C020000 		.4byte	0x29c
 1169 032f 02       		.byte	0x2
 1170 0330 23       		.byte	0x23
 1171 0331 1C       		.uleb128 0x1c
 1172 0332 0B       		.uleb128 0xb
 1173 0333 6C7200   		.ascii	"lr\000"
 1174 0336 07       		.byte	0x7
 1175 0337 1901     		.2byte	0x119
 1176 0339 9C020000 		.4byte	0x29c
 1177 033d 02       		.byte	0x2
 1178 033e 23       		.byte	0x23
 1179 033f 20       		.uleb128 0x20
 1180 0340 00       		.byte	0
 1181 0341 0C       		.uleb128 0xc
 1182 0342 14050000 		.4byte	.LASF49
 1183 0346 04       		.byte	0x4
 1184 0347 07       		.byte	0x7
 1185 0348 2301     		.2byte	0x123
 1186 034a 5E030000 		.4byte	0x35e
 1187 034e 0B       		.uleb128 0xb
 1188 034f 72313300 		.ascii	"r13\000"
 1189 0353 07       		.byte	0x7
 1190 0354 2401     		.2byte	0x124
 1191 0356 5E030000 		.4byte	0x35e
 1192 035a 02       		.byte	0x2
 1193 035b 23       		.byte	0x23
 1194 035c 00       		.uleb128 0
 1195 035d 00       		.byte	0
 1196 035e 09       		.uleb128 0x9
 1197 035f 04       		.byte	0x4
 1198 0360 B4020000 		.4byte	0x2b4
 1199 0364 04       		.uleb128 0x4
 1200 0365 04       		.byte	0x4
 1201 0366 07       		.byte	0x7
 1202 0367 C4020000 		.4byte	.LASF50
 1203 036b 0D       		.uleb128 0xd
 1204 036c 09010000 		.4byte	0x109
 1205 0370 05       		.uleb128 0x5
 1206 0371 D7020000 		.4byte	.LASF51
 1207 0375 10       		.byte	0x10
 1208 0376 08       		.byte	0x8
 1209 0377 2C       		.byte	0x2c
 1210 0378 A7030000 		.4byte	0x3a7
 1211 037c 06       		.uleb128 0x6
 1212 037d 09010000 		.4byte	.LASF52
 1213 0381 08       		.byte	0x8
 1214 0382 2D       		.byte	0x2d
 1215 0383 6F020000 		.4byte	0x26f
 1216 0387 02       		.byte	0x2
ARM GAS  /var/folders/dt/0wfd0knj7gs46m8vwfzktm600000gn/T//ccfLNI7n.s 			page 23


 1217 0388 23       		.byte	0x23
 1218 0389 00       		.uleb128 0
 1219 038a 06       		.uleb128 0x6
 1220 038b FC050000 		.4byte	.LASF53
 1221 038f 08       		.byte	0x8
 1222 0390 2F       		.byte	0x2f
 1223 0391 69020000 		.4byte	0x269
 1224 0395 02       		.byte	0x2
 1225 0396 23       		.byte	0x23
 1226 0397 08       		.uleb128 0x8
 1227 0398 06       		.uleb128 0x6
 1228 0399 B2040000 		.4byte	.LASF54
 1229 039d 08       		.byte	0x8
 1230 039e 31       		.byte	0x31
 1231 039f A7030000 		.4byte	0x3a7
 1232 03a3 02       		.byte	0x2
 1233 03a4 23       		.byte	0x23
 1234 03a5 0C       		.uleb128 0xc
 1235 03a6 00       		.byte	0
 1236 03a7 09       		.uleb128 0x9
 1237 03a8 04       		.byte	0x4
 1238 03a9 70030000 		.4byte	0x370
 1239 03ad 03       		.uleb128 0x3
 1240 03ae D7020000 		.4byte	.LASF51
 1241 03b2 08       		.byte	0x8
 1242 03b3 33       		.byte	0x33
 1243 03b4 70030000 		.4byte	0x370
 1244 03b8 03       		.uleb128 0x3
 1245 03b9 1C050000 		.4byte	.LASF55
 1246 03bd 09       		.byte	0x9
 1247 03be 29       		.byte	0x29
 1248 03bf C3030000 		.4byte	0x3c3
 1249 03c3 05       		.uleb128 0x5
 1250 03c4 1C050000 		.4byte	.LASF55
 1251 03c8 0C       		.byte	0xc
 1252 03c9 09       		.byte	0x9
 1253 03ca 2E       		.byte	0x2e
 1254 03cb FA030000 		.4byte	0x3fa
 1255 03cf 06       		.uleb128 0x6
 1256 03d0 21040000 		.4byte	.LASF56
 1257 03d4 09       		.byte	0x9
 1258 03d5 2F       		.byte	0x2f
 1259 03d6 FA030000 		.4byte	0x3fa
 1260 03da 02       		.byte	0x2
 1261 03db 23       		.byte	0x23
 1262 03dc 00       		.uleb128 0
 1263 03dd 06       		.uleb128 0x6
 1264 03de E3030000 		.4byte	.LASF57
 1265 03e2 09       		.byte	0x9
 1266 03e3 32       		.byte	0x32
 1267 03e4 69020000 		.4byte	0x269
 1268 03e8 02       		.byte	0x2
 1269 03e9 23       		.byte	0x23
 1270 03ea 04       		.uleb128 0x4
 1271 03eb 06       		.uleb128 0x6
 1272 03ec E4020000 		.4byte	.LASF58
 1273 03f0 09       		.byte	0x9
ARM GAS  /var/folders/dt/0wfd0knj7gs46m8vwfzktm600000gn/T//ccfLNI7n.s 			page 24


 1274 03f1 34       		.byte	0x34
 1275 03f2 FE000000 		.4byte	0xfe
 1276 03f6 02       		.byte	0x2
 1277 03f7 23       		.byte	0x23
 1278 03f8 08       		.uleb128 0x8
 1279 03f9 00       		.byte	0
 1280 03fa 09       		.uleb128 0x9
 1281 03fb 04       		.byte	0x4
 1282 03fc B8030000 		.4byte	0x3b8
 1283 0400 05       		.uleb128 0x5
 1284 0401 9D010000 		.4byte	.LASF59
 1285 0405 04       		.byte	0x4
 1286 0406 09       		.byte	0x9
 1287 0407 3C       		.byte	0x3c
 1288 0408 1B040000 		.4byte	0x41b
 1289 040c 06       		.uleb128 0x6
 1290 040d 47050000 		.4byte	.LASF60
 1291 0411 09       		.byte	0x9
 1292 0412 3D       		.byte	0x3d
 1293 0413 FA030000 		.4byte	0x3fa
 1294 0417 02       		.byte	0x2
 1295 0418 23       		.byte	0x23
 1296 0419 00       		.uleb128 0
 1297 041a 00       		.byte	0
 1298 041b 03       		.uleb128 0x3
 1299 041c 9D010000 		.4byte	.LASF59
 1300 0420 09       		.byte	0x9
 1301 0421 40       		.byte	0x40
 1302 0422 00040000 		.4byte	0x400
 1303 0426 0E       		.uleb128 0xe
 1304 0427 04       		.byte	0x4
 1305 0428 06       		.byte	0x6
 1306 0429 90       		.byte	0x90
 1307 042a 5B040000 		.4byte	0x45b
 1308 042e 0F       		.uleb128 0xf
 1309 042f 1F000000 		.4byte	.LASF61
 1310 0433 06       		.byte	0x6
 1311 0434 97       		.byte	0x97
 1312 0435 F3000000 		.4byte	0xf3
 1313 0439 0F       		.uleb128 0xf
 1314 043a 90000000 		.4byte	.LASF62
 1315 043e 06       		.byte	0x6
 1316 043f 9E       		.byte	0x9e
 1317 0440 F3000000 		.4byte	0xf3
 1318 0444 0F       		.uleb128 0xf
 1319 0445 B6050000 		.4byte	.LASF63
 1320 0449 06       		.byte	0x6
 1321 044a A5       		.byte	0xa5
 1322 044b A7020000 		.4byte	0x2a7
 1323 044f 0F       		.uleb128 0xf
 1324 0450 0B040000 		.4byte	.LASF64
 1325 0454 06       		.byte	0x6
 1326 0455 AC       		.byte	0xac
 1327 0456 FE000000 		.4byte	0xfe
 1328 045a 00       		.byte	0
 1329 045b 09       		.uleb128 0x9
 1330 045c 04       		.byte	0x4
ARM GAS  /var/folders/dt/0wfd0knj7gs46m8vwfzktm600000gn/T//ccfLNI7n.s 			page 25


 1331 045d 61040000 		.4byte	0x461
 1332 0461 10       		.uleb128 0x10
 1333 0462 66040000 		.4byte	0x466
 1334 0466 04       		.uleb128 0x4
 1335 0467 01       		.byte	0x1
 1336 0468 08       		.byte	0x8
 1337 0469 8E040000 		.4byte	.LASF65
 1338 046d 09       		.uleb128 0x9
 1339 046e 04       		.byte	0x4
 1340 046f A9020000 		.4byte	0x2a9
 1341 0473 09       		.uleb128 0x9
 1342 0474 04       		.byte	0x4
 1343 0475 AD030000 		.4byte	0x3ad
 1344 0479 03       		.uleb128 0x3
 1345 047a 90020000 		.4byte	.LASF66
 1346 047e 0A       		.byte	0xa
 1347 047f 37       		.byte	0x37
 1348 0480 84040000 		.4byte	0x484
 1349 0484 05       		.uleb128 0x5
 1350 0485 90020000 		.4byte	.LASF66
 1351 0489 20       		.byte	0x20
 1352 048a 0A       		.byte	0xa
 1353 048b 45       		.byte	0x45
 1354 048c F3040000 		.4byte	0x4f3
 1355 0490 06       		.uleb128 0x6
 1356 0491 D1000000 		.4byte	.LASF67
 1357 0495 0A       		.byte	0xa
 1358 0496 46       		.byte	0x46
 1359 0497 6F020000 		.4byte	0x26f
 1360 049b 02       		.byte	0x2
 1361 049c 23       		.byte	0x23
 1362 049d 00       		.uleb128 0
 1363 049e 06       		.uleb128 0x6
 1364 049f CD020000 		.4byte	.LASF68
 1365 04a3 0A       		.byte	0xa
 1366 04a4 47       		.byte	0x47
 1367 04a5 30000000 		.4byte	0x30
 1368 04a9 02       		.byte	0x2
 1369 04aa 23       		.byte	0x23
 1370 04ab 08       		.uleb128 0x8
 1371 04ac 06       		.uleb128 0x6
 1372 04ad 39010000 		.4byte	.LASF69
 1373 04b1 0A       		.byte	0xa
 1374 04b2 48       		.byte	0x48
 1375 04b3 16050000 		.4byte	0x516
 1376 04b7 02       		.byte	0x2
 1377 04b8 23       		.byte	0x23
 1378 04b9 0C       		.uleb128 0xc
 1379 04ba 06       		.uleb128 0x6
 1380 04bb 3A050000 		.4byte	.LASF70
 1381 04bf 0A       		.byte	0xa
 1382 04c0 49       		.byte	0x49
 1383 04c1 16050000 		.4byte	0x516
 1384 04c5 02       		.byte	0x2
 1385 04c6 23       		.byte	0x23
 1386 04c7 10       		.uleb128 0x10
 1387 04c8 06       		.uleb128 0x6
ARM GAS  /var/folders/dt/0wfd0knj7gs46m8vwfzktm600000gn/T//ccfLNI7n.s 			page 26


 1388 04c9 42010000 		.4byte	.LASF71
 1389 04cd 0A       		.byte	0xa
 1390 04ce 4B       		.byte	0x4b
 1391 04cf 16050000 		.4byte	0x516
 1392 04d3 02       		.byte	0x2
 1393 04d4 23       		.byte	0x23
 1394 04d5 14       		.uleb128 0x14
 1395 04d6 06       		.uleb128 0x6
 1396 04d7 B8030000 		.4byte	.LASF72
 1397 04db 0A       		.byte	0xa
 1398 04dc 4C       		.byte	0x4c
 1399 04dd 16050000 		.4byte	0x516
 1400 04e1 02       		.byte	0x2
 1401 04e2 23       		.byte	0x23
 1402 04e3 18       		.uleb128 0x18
 1403 04e4 06       		.uleb128 0x6
 1404 04e5 5D050000 		.4byte	.LASF73
 1405 04e9 0A       		.byte	0xa
 1406 04ea 4D       		.byte	0x4d
 1407 04eb F3040000 		.4byte	0x4f3
 1408 04ef 02       		.byte	0x2
 1409 04f0 23       		.byte	0x23
 1410 04f1 1C       		.uleb128 0x1c
 1411 04f2 00       		.byte	0
 1412 04f3 03       		.uleb128 0x3
 1413 04f4 86020000 		.4byte	.LASF74
 1414 04f8 0A       		.byte	0xa
 1415 04f9 3A       		.byte	0x3a
 1416 04fa FE040000 		.4byte	0x4fe
 1417 04fe 09       		.uleb128 0x9
 1418 04ff 04       		.byte	0x4
 1419 0500 04050000 		.4byte	0x504
 1420 0504 11       		.uleb128 0x11
 1421 0505 01       		.byte	0x1
 1422 0506 10050000 		.4byte	0x510
 1423 050a 12       		.uleb128 0x12
 1424 050b 10050000 		.4byte	0x510
 1425 050f 00       		.byte	0
 1426 0510 09       		.uleb128 0x9
 1427 0511 04       		.byte	0x4
 1428 0512 79040000 		.4byte	0x479
 1429 0516 09       		.uleb128 0x9
 1430 0517 04       		.byte	0x4
 1431 0518 49000000 		.4byte	0x49
 1432 051c 03       		.uleb128 0x3
 1433 051d 7B020000 		.4byte	.LASF75
 1434 0521 0A       		.byte	0xa
 1435 0522 76       		.byte	0x76
 1436 0523 79040000 		.4byte	0x479
 1437 0527 03       		.uleb128 0x3
 1438 0528 2F000000 		.4byte	.LASF76
 1439 052c 0A       		.byte	0xa
 1440 052d E6       		.byte	0xe6
 1441 052e 79040000 		.4byte	0x479
 1442 0532 13       		.uleb128 0x13
 1443 0533 01       		.byte	0x1
 1444 0534 30000000 		.4byte	0x30
ARM GAS  /var/folders/dt/0wfd0knj7gs46m8vwfzktm600000gn/T//ccfLNI7n.s 			page 27


 1445 0538 4C050000 		.4byte	0x54c
 1446 053c 12       		.uleb128 0x12
 1447 053d A7020000 		.4byte	0x2a7
 1448 0541 12       		.uleb128 0x12
 1449 0542 4C050000 		.4byte	0x54c
 1450 0546 12       		.uleb128 0x12
 1451 0547 30000000 		.4byte	0x30
 1452 054b 00       		.byte	0
 1453 054c 09       		.uleb128 0x9
 1454 054d 04       		.byte	0x4
 1455 054e 52050000 		.4byte	0x552
 1456 0552 10       		.uleb128 0x10
 1457 0553 49000000 		.4byte	0x49
 1458 0557 09       		.uleb128 0x9
 1459 0558 04       		.byte	0x4
 1460 0559 32050000 		.4byte	0x532
 1461 055d 13       		.uleb128 0x13
 1462 055e 01       		.byte	0x1
 1463 055f 30000000 		.4byte	0x30
 1464 0563 77050000 		.4byte	0x577
 1465 0567 12       		.uleb128 0x12
 1466 0568 A7020000 		.4byte	0x2a7
 1467 056c 12       		.uleb128 0x12
 1468 056d 16050000 		.4byte	0x516
 1469 0571 12       		.uleb128 0x12
 1470 0572 30000000 		.4byte	0x30
 1471 0576 00       		.byte	0
 1472 0577 09       		.uleb128 0x9
 1473 0578 04       		.byte	0x4
 1474 0579 5D050000 		.4byte	0x55d
 1475 057d 13       		.uleb128 0x13
 1476 057e 01       		.byte	0x1
 1477 057f BC000000 		.4byte	0xbc
 1478 0583 8D050000 		.4byte	0x58d
 1479 0587 12       		.uleb128 0x12
 1480 0588 A7020000 		.4byte	0x2a7
 1481 058c 00       		.byte	0
 1482 058d 09       		.uleb128 0x9
 1483 058e 04       		.byte	0x4
 1484 058f 7D050000 		.4byte	0x57d
 1485 0593 13       		.uleb128 0x13
 1486 0594 01       		.byte	0x1
 1487 0595 F3000000 		.4byte	0xf3
 1488 0599 AD050000 		.4byte	0x5ad
 1489 059d 12       		.uleb128 0x12
 1490 059e A7020000 		.4byte	0x2a7
 1491 05a2 12       		.uleb128 0x12
 1492 05a3 49000000 		.4byte	0x49
 1493 05a7 12       		.uleb128 0x12
 1494 05a8 09010000 		.4byte	0x109
 1495 05ac 00       		.byte	0
 1496 05ad 09       		.uleb128 0x9
 1497 05ae 04       		.byte	0x4
 1498 05af 93050000 		.4byte	0x593
 1499 05b3 13       		.uleb128 0x13
 1500 05b4 01       		.byte	0x1
 1501 05b5 F3000000 		.4byte	0xf3
ARM GAS  /var/folders/dt/0wfd0knj7gs46m8vwfzktm600000gn/T//ccfLNI7n.s 			page 28


 1502 05b9 C8050000 		.4byte	0x5c8
 1503 05bd 12       		.uleb128 0x12
 1504 05be A7020000 		.4byte	0x2a7
 1505 05c2 12       		.uleb128 0x12
 1506 05c3 09010000 		.4byte	0x109
 1507 05c7 00       		.byte	0
 1508 05c8 09       		.uleb128 0x9
 1509 05c9 04       		.byte	0x4
 1510 05ca B3050000 		.4byte	0x5b3
 1511 05ce 13       		.uleb128 0x13
 1512 05cf 01       		.byte	0x1
 1513 05d0 30000000 		.4byte	0x30
 1514 05d4 ED050000 		.4byte	0x5ed
 1515 05d8 12       		.uleb128 0x12
 1516 05d9 A7020000 		.4byte	0x2a7
 1517 05dd 12       		.uleb128 0x12
 1518 05de 4C050000 		.4byte	0x54c
 1519 05e2 12       		.uleb128 0x12
 1520 05e3 30000000 		.4byte	0x30
 1521 05e7 12       		.uleb128 0x12
 1522 05e8 09010000 		.4byte	0x109
 1523 05ec 00       		.byte	0
 1524 05ed 09       		.uleb128 0x9
 1525 05ee 04       		.byte	0x4
 1526 05ef CE050000 		.4byte	0x5ce
 1527 05f3 13       		.uleb128 0x13
 1528 05f4 01       		.byte	0x1
 1529 05f5 30000000 		.4byte	0x30
 1530 05f9 12060000 		.4byte	0x612
 1531 05fd 12       		.uleb128 0x12
 1532 05fe A7020000 		.4byte	0x2a7
 1533 0602 12       		.uleb128 0x12
 1534 0603 16050000 		.4byte	0x516
 1535 0607 12       		.uleb128 0x12
 1536 0608 30000000 		.4byte	0x30
 1537 060c 12       		.uleb128 0x12
 1538 060d 09010000 		.4byte	0x109
 1539 0611 00       		.byte	0
 1540 0612 09       		.uleb128 0x9
 1541 0613 04       		.byte	0x4
 1542 0614 F3050000 		.4byte	0x5f3
 1543 0618 14       		.uleb128 0x14
 1544 0619 FD020000 		.4byte	.LASF77
 1545 061d 0B       		.byte	0xb
 1546 061e 0B01     		.2byte	0x10b
 1547 0620 B1000000 		.4byte	0xb1
 1548 0624 0C       		.uleb128 0xc
 1549 0625 A9010000 		.4byte	.LASF78
 1550 0629 24       		.byte	0x24
 1551 062a 0B       		.byte	0xb
 1552 062b 2401     		.2byte	0x124
 1553 062d B9060000 		.4byte	0x6b9
 1554 0631 15       		.uleb128 0x15
 1555 0632 B9020000 		.4byte	.LASF79
 1556 0636 0B       		.byte	0xb
 1557 0637 2501     		.2byte	0x125
 1558 0639 57050000 		.4byte	0x557
ARM GAS  /var/folders/dt/0wfd0knj7gs46m8vwfzktm600000gn/T//ccfLNI7n.s 			page 29


 1559 063d 02       		.byte	0x2
 1560 063e 23       		.byte	0x23
 1561 063f 00       		.uleb128 0
 1562 0640 15       		.uleb128 0x15
 1563 0641 89040000 		.4byte	.LASF80
 1564 0645 0B       		.byte	0xb
 1565 0646 2501     		.2byte	0x125
 1566 0648 77050000 		.4byte	0x577
 1567 064c 02       		.byte	0x2
 1568 064d 23       		.byte	0x23
 1569 064e 04       		.uleb128 0x4
 1570 064f 15       		.uleb128 0x15
 1571 0650 67010000 		.4byte	.LASF81
 1572 0654 0B       		.byte	0xb
 1573 0655 2501     		.2byte	0x125
 1574 0657 8D050000 		.4byte	0x58d
 1575 065b 02       		.byte	0x2
 1576 065c 23       		.byte	0x23
 1577 065d 08       		.uleb128 0x8
 1578 065e 15       		.uleb128 0x15
 1579 065f C9050000 		.4byte	.LASF82
 1580 0663 0B       		.byte	0xb
 1581 0664 2501     		.2byte	0x125
 1582 0666 8D050000 		.4byte	0x58d
 1583 066a 02       		.byte	0x2
 1584 066b 23       		.byte	0x23
 1585 066c 0C       		.uleb128 0xc
 1586 066d 0B       		.uleb128 0xb
 1587 066e 70757400 		.ascii	"put\000"
 1588 0672 0B       		.byte	0xb
 1589 0673 2501     		.2byte	0x125
 1590 0675 AD050000 		.4byte	0x5ad
 1591 0679 02       		.byte	0x2
 1592 067a 23       		.byte	0x23
 1593 067b 10       		.uleb128 0x10
 1594 067c 0B       		.uleb128 0xb
 1595 067d 67657400 		.ascii	"get\000"
 1596 0681 0B       		.byte	0xb
 1597 0682 2501     		.2byte	0x125
 1598 0684 C8050000 		.4byte	0x5c8
 1599 0688 02       		.byte	0x2
 1600 0689 23       		.byte	0x23
 1601 068a 14       		.uleb128 0x14
 1602 068b 15       		.uleb128 0x15
 1603 068c 5A020000 		.4byte	.LASF83
 1604 0690 0B       		.byte	0xb
 1605 0691 2501     		.2byte	0x125
 1606 0693 ED050000 		.4byte	0x5ed
 1607 0697 02       		.byte	0x2
 1608 0698 23       		.byte	0x23
 1609 0699 18       		.uleb128 0x18
 1610 069a 15       		.uleb128 0x15
 1611 069b CB000000 		.4byte	.LASF84
 1612 069f 0B       		.byte	0xb
 1613 06a0 2501     		.2byte	0x125
 1614 06a2 12060000 		.4byte	0x612
 1615 06a6 02       		.byte	0x2
ARM GAS  /var/folders/dt/0wfd0knj7gs46m8vwfzktm600000gn/T//ccfLNI7n.s 			page 30


 1616 06a7 23       		.byte	0x23
 1617 06a8 1C       		.uleb128 0x1c
 1618 06a9 15       		.uleb128 0x15
 1619 06aa F4020000 		.4byte	.LASF85
 1620 06ae 0B       		.byte	0xb
 1621 06af 2501     		.2byte	0x125
 1622 06b1 C9060000 		.4byte	0x6c9
 1623 06b5 02       		.byte	0x2
 1624 06b6 23       		.byte	0x23
 1625 06b7 20       		.uleb128 0x20
 1626 06b8 00       		.byte	0
 1627 06b9 13       		.uleb128 0x13
 1628 06ba 01       		.byte	0x1
 1629 06bb 18060000 		.4byte	0x618
 1630 06bf C9060000 		.4byte	0x6c9
 1631 06c3 12       		.uleb128 0x12
 1632 06c4 A7020000 		.4byte	0x2a7
 1633 06c8 00       		.byte	0
 1634 06c9 09       		.uleb128 0x9
 1635 06ca 04       		.byte	0x4
 1636 06cb B9060000 		.4byte	0x6b9
 1637 06cf 16       		.uleb128 0x16
 1638 06d0 0C       		.byte	0xc
 1639 06d1 0B       		.byte	0xb
 1640 06d2 2F01     		.2byte	0x12f
 1641 06d4 06070000 		.4byte	0x706
 1642 06d8 0B       		.uleb128 0xb
 1643 06d9 766D7400 		.ascii	"vmt\000"
 1644 06dd 0B       		.byte	0xb
 1645 06de 3101     		.2byte	0x131
 1646 06e0 06070000 		.4byte	0x706
 1647 06e4 02       		.byte	0x2
 1648 06e5 23       		.byte	0x23
 1649 06e6 00       		.uleb128 0
 1650 06e7 15       		.uleb128 0x15
 1651 06e8 1C020000 		.4byte	.LASF86
 1652 06ec 0B       		.byte	0xb
 1653 06ed 3201     		.2byte	0x132
 1654 06ef 1B040000 		.4byte	0x41b
 1655 06f3 02       		.byte	0x2
 1656 06f4 23       		.byte	0x23
 1657 06f5 04       		.uleb128 0x4
 1658 06f6 15       		.uleb128 0x15
 1659 06f7 9D050000 		.4byte	.LASF87
 1660 06fb 0B       		.byte	0xb
 1661 06fc 3201     		.2byte	0x132
 1662 06fe 18060000 		.4byte	0x618
 1663 0702 02       		.byte	0x2
 1664 0703 23       		.byte	0x23
 1665 0704 08       		.uleb128 0x8
 1666 0705 00       		.byte	0
 1667 0706 09       		.uleb128 0x9
 1668 0707 04       		.byte	0x4
 1669 0708 0C070000 		.4byte	0x70c
 1670 070c 10       		.uleb128 0x10
 1671 070d 24060000 		.4byte	0x624
 1672 0711 14       		.uleb128 0x14
ARM GAS  /var/folders/dt/0wfd0knj7gs46m8vwfzktm600000gn/T//ccfLNI7n.s 			page 31


 1673 0712 FC040000 		.4byte	.LASF88
 1674 0716 0B       		.byte	0xb
 1675 0717 3301     		.2byte	0x133
 1676 0719 CF060000 		.4byte	0x6cf
 1677 071d 0D       		.uleb128 0xd
 1678 071e 62000000 		.4byte	0x62
 1679 0722 0D       		.uleb128 0xd
 1680 0723 74000000 		.4byte	0x74
 1681 0727 16       		.uleb128 0x16
 1682 0728 1C       		.byte	0x1c
 1683 0729 0C       		.byte	0xc
 1684 072a E104     		.2byte	0x4e1
 1685 072c 01080000 		.4byte	0x801
 1686 0730 0B       		.uleb128 0xb
 1687 0731 535200   		.ascii	"SR\000"
 1688 0734 0C       		.byte	0xc
 1689 0735 E304     		.2byte	0x4e3
 1690 0737 1D070000 		.4byte	0x71d
 1691 073b 02       		.byte	0x2
 1692 073c 23       		.byte	0x23
 1693 073d 00       		.uleb128 0
 1694 073e 15       		.uleb128 0x15
 1695 073f 6D030000 		.4byte	.LASF89
 1696 0743 0C       		.byte	0xc
 1697 0744 E404     		.2byte	0x4e4
 1698 0746 62000000 		.4byte	0x62
 1699 074a 02       		.byte	0x2
 1700 074b 23       		.byte	0x23
 1701 074c 02       		.uleb128 0x2
 1702 074d 0B       		.uleb128 0xb
 1703 074e 445200   		.ascii	"DR\000"
 1704 0751 0C       		.byte	0xc
 1705 0752 E504     		.2byte	0x4e5
 1706 0754 1D070000 		.4byte	0x71d
 1707 0758 02       		.byte	0x2
 1708 0759 23       		.byte	0x23
 1709 075a 04       		.uleb128 0x4
 1710 075b 15       		.uleb128 0x15
 1711 075c 77030000 		.4byte	.LASF90
 1712 0760 0C       		.byte	0xc
 1713 0761 E604     		.2byte	0x4e6
 1714 0763 62000000 		.4byte	0x62
 1715 0767 02       		.byte	0x2
 1716 0768 23       		.byte	0x23
 1717 0769 06       		.uleb128 0x6
 1718 076a 0B       		.uleb128 0xb
 1719 076b 42525200 		.ascii	"BRR\000"
 1720 076f 0C       		.byte	0xc
 1721 0770 E704     		.2byte	0x4e7
 1722 0772 1D070000 		.4byte	0x71d
 1723 0776 02       		.byte	0x2
 1724 0777 23       		.byte	0x23
 1725 0778 08       		.uleb128 0x8
 1726 0779 15       		.uleb128 0x15
 1727 077a 81030000 		.4byte	.LASF91
 1728 077e 0C       		.byte	0xc
 1729 077f E804     		.2byte	0x4e8
ARM GAS  /var/folders/dt/0wfd0knj7gs46m8vwfzktm600000gn/T//ccfLNI7n.s 			page 32


 1730 0781 62000000 		.4byte	0x62
 1731 0785 02       		.byte	0x2
 1732 0786 23       		.byte	0x23
 1733 0787 0A       		.uleb128 0xa
 1734 0788 0B       		.uleb128 0xb
 1735 0789 43523100 		.ascii	"CR1\000"
 1736 078d 0C       		.byte	0xc
 1737 078e E904     		.2byte	0x4e9
 1738 0790 1D070000 		.4byte	0x71d
 1739 0794 02       		.byte	0x2
 1740 0795 23       		.byte	0x23
 1741 0796 0C       		.uleb128 0xc
 1742 0797 15       		.uleb128 0x15
 1743 0798 8B030000 		.4byte	.LASF92
 1744 079c 0C       		.byte	0xc
 1745 079d EA04     		.2byte	0x4ea
 1746 079f 62000000 		.4byte	0x62
 1747 07a3 02       		.byte	0x2
 1748 07a4 23       		.byte	0x23
 1749 07a5 0E       		.uleb128 0xe
 1750 07a6 0B       		.uleb128 0xb
 1751 07a7 43523200 		.ascii	"CR2\000"
 1752 07ab 0C       		.byte	0xc
 1753 07ac EB04     		.2byte	0x4eb
 1754 07ae 1D070000 		.4byte	0x71d
 1755 07b2 02       		.byte	0x2
 1756 07b3 23       		.byte	0x23
 1757 07b4 10       		.uleb128 0x10
 1758 07b5 15       		.uleb128 0x15
 1759 07b6 95030000 		.4byte	.LASF93
 1760 07ba 0C       		.byte	0xc
 1761 07bb EC04     		.2byte	0x4ec
 1762 07bd 62000000 		.4byte	0x62
 1763 07c1 02       		.byte	0x2
 1764 07c2 23       		.byte	0x23
 1765 07c3 12       		.uleb128 0x12
 1766 07c4 0B       		.uleb128 0xb
 1767 07c5 43523300 		.ascii	"CR3\000"
 1768 07c9 0C       		.byte	0xc
 1769 07ca ED04     		.2byte	0x4ed
 1770 07cc 1D070000 		.4byte	0x71d
 1771 07d0 02       		.byte	0x2
 1772 07d1 23       		.byte	0x23
 1773 07d2 14       		.uleb128 0x14
 1774 07d3 15       		.uleb128 0x15
 1775 07d4 4D040000 		.4byte	.LASF94
 1776 07d8 0C       		.byte	0xc
 1777 07d9 EE04     		.2byte	0x4ee
 1778 07db 62000000 		.4byte	0x62
 1779 07df 02       		.byte	0x2
 1780 07e0 23       		.byte	0x23
 1781 07e1 16       		.uleb128 0x16
 1782 07e2 15       		.uleb128 0x15
 1783 07e3 F5000000 		.4byte	.LASF95
 1784 07e7 0C       		.byte	0xc
 1785 07e8 EF04     		.2byte	0x4ef
 1786 07ea 1D070000 		.4byte	0x71d
ARM GAS  /var/folders/dt/0wfd0knj7gs46m8vwfzktm600000gn/T//ccfLNI7n.s 			page 33


 1787 07ee 02       		.byte	0x2
 1788 07ef 23       		.byte	0x23
 1789 07f0 18       		.uleb128 0x18
 1790 07f1 15       		.uleb128 0x15
 1791 07f2 A6030000 		.4byte	.LASF96
 1792 07f6 0C       		.byte	0xc
 1793 07f7 F004     		.2byte	0x4f0
 1794 07f9 62000000 		.4byte	0x62
 1795 07fd 02       		.byte	0x2
 1796 07fe 23       		.byte	0x23
 1797 07ff 1A       		.uleb128 0x1a
 1798 0800 00       		.byte	0
 1799 0801 14       		.uleb128 0x14
 1800 0802 4F050000 		.4byte	.LASF97
 1801 0806 0C       		.byte	0xc
 1802 0807 F104     		.2byte	0x4f1
 1803 0809 27070000 		.4byte	0x727
 1804 080d 17       		.uleb128 0x17
 1805 080e 01       		.byte	0x1
 1806 080f 0D       		.byte	0xd
 1807 0810 64       		.byte	0x64
 1808 0811 28080000 		.4byte	0x828
 1809 0815 18       		.uleb128 0x18
 1810 0816 43040000 		.4byte	.LASF98
 1811 081a 00       		.sleb128 0
 1812 081b 18       		.uleb128 0x18
 1813 081c 29040000 		.4byte	.LASF99
 1814 0820 01       		.sleb128 1
 1815 0821 18       		.uleb128 0x18
 1816 0822 31050000 		.4byte	.LASF100
 1817 0826 02       		.sleb128 2
 1818 0827 00       		.byte	0
 1819 0828 03       		.uleb128 0x3
 1820 0829 60040000 		.4byte	.LASF101
 1821 082d 0D       		.byte	0xd
 1822 082e 68       		.byte	0x68
 1823 082f 0D080000 		.4byte	0x80d
 1824 0833 03       		.uleb128 0x3
 1825 0834 6A040000 		.4byte	.LASF102
 1826 0838 0D       		.byte	0xd
 1827 0839 6D       		.byte	0x6d
 1828 083a 3E080000 		.4byte	0x83e
 1829 083e 05       		.uleb128 0x5
 1830 083f 6A040000 		.4byte	.LASF102
 1831 0843 74       		.byte	0x74
 1832 0844 0D       		.byte	0xd
 1833 0845 87       		.byte	0x87
 1834 0846 C7080000 		.4byte	0x8c7
 1835 084a 07       		.uleb128 0x7
 1836 084b 766D7400 		.ascii	"vmt\000"
 1837 084f 0D       		.byte	0xd
 1838 0850 89       		.byte	0x89
 1839 0851 9E090000 		.4byte	0x99e
 1840 0855 02       		.byte	0x2
 1841 0856 23       		.byte	0x23
 1842 0857 00       		.uleb128 0
 1843 0858 06       		.uleb128 0x6
ARM GAS  /var/folders/dt/0wfd0knj7gs46m8vwfzktm600000gn/T//ccfLNI7n.s 			page 34


 1844 0859 1C020000 		.4byte	.LASF86
 1845 085d 0D       		.byte	0xd
 1846 085e 8A       		.byte	0x8a
 1847 085f 1B040000 		.4byte	0x41b
 1848 0863 02       		.byte	0x2
 1849 0864 23       		.byte	0x23
 1850 0865 04       		.uleb128 0x4
 1851 0866 06       		.uleb128 0x6
 1852 0867 9D050000 		.4byte	.LASF87
 1853 086b 0D       		.byte	0xd
 1854 086c 8A       		.byte	0x8a
 1855 086d 18060000 		.4byte	0x618
 1856 0871 02       		.byte	0x2
 1857 0872 23       		.byte	0x23
 1858 0873 08       		.uleb128 0x8
 1859 0874 06       		.uleb128 0x6
 1860 0875 11010000 		.4byte	.LASF103
 1861 0879 0D       		.byte	0xd
 1862 087a 8A       		.byte	0x8a
 1863 087b 28080000 		.4byte	0x828
 1864 087f 02       		.byte	0x2
 1865 0880 23       		.byte	0x23
 1866 0881 0C       		.uleb128 0xc
 1867 0882 06       		.uleb128 0x6
 1868 0883 F9010000 		.4byte	.LASF104
 1869 0887 0D       		.byte	0xd
 1870 0888 8A       		.byte	0x8a
 1871 0889 1C050000 		.4byte	0x51c
 1872 088d 02       		.byte	0x2
 1873 088e 23       		.byte	0x23
 1874 088f 10       		.uleb128 0x10
 1875 0890 06       		.uleb128 0x6
 1876 0891 3B020000 		.4byte	.LASF105
 1877 0895 0D       		.byte	0xd
 1878 0896 8A       		.byte	0x8a
 1879 0897 27050000 		.4byte	0x527
 1880 089b 02       		.byte	0x2
 1881 089c 23       		.byte	0x23
 1882 089d 30       		.uleb128 0x30
 1883 089e 07       		.uleb128 0x7
 1884 089f 696200   		.ascii	"ib\000"
 1885 08a2 0D       		.byte	0xd
 1886 08a3 8A       		.byte	0x8a
 1887 08a4 A9090000 		.4byte	0x9a9
 1888 08a8 02       		.byte	0x2
 1889 08a9 23       		.byte	0x23
 1890 08aa 50       		.uleb128 0x50
 1891 08ab 07       		.uleb128 0x7
 1892 08ac 6F6200   		.ascii	"ob\000"
 1893 08af 0D       		.byte	0xd
 1894 08b0 8A       		.byte	0x8a
 1895 08b1 A9090000 		.4byte	0x9a9
 1896 08b5 02       		.byte	0x2
 1897 08b6 23       		.byte	0x23
 1898 08b7 60       		.uleb128 0x60
 1899 08b8 06       		.uleb128 0x6
 1900 08b9 75020000 		.4byte	.LASF106
ARM GAS  /var/folders/dt/0wfd0knj7gs46m8vwfzktm600000gn/T//ccfLNI7n.s 			page 35


 1901 08bd 0D       		.byte	0xd
 1902 08be 8A       		.byte	0x8a
 1903 08bf B9090000 		.4byte	0x9b9
 1904 08c3 02       		.byte	0x2
 1905 08c4 23       		.byte	0x23
 1906 08c5 70       		.uleb128 0x70
 1907 08c6 00       		.byte	0
 1908 08c7 08       		.uleb128 0x8
 1909 08c8 0C       		.byte	0xc
 1910 08c9 0E       		.byte	0xe
 1911 08ca C4       		.byte	0xc4
 1912 08cb 08090000 		.4byte	0x908
 1913 08cf 06       		.uleb128 0x6
 1914 08d0 0F000000 		.4byte	.LASF107
 1915 08d4 0E       		.byte	0xe
 1916 08d5 C8       		.byte	0xc8
 1917 08d6 86000000 		.4byte	0x86
 1918 08da 02       		.byte	0x2
 1919 08db 23       		.byte	0x23
 1920 08dc 00       		.uleb128 0
 1921 08dd 06       		.uleb128 0x6
 1922 08de D7050000 		.4byte	.LASF108
 1923 08e2 0E       		.byte	0xe
 1924 08e3 CC       		.byte	0xcc
 1925 08e4 62000000 		.4byte	0x62
 1926 08e8 02       		.byte	0x2
 1927 08e9 23       		.byte	0x23
 1928 08ea 04       		.uleb128 0x4
 1929 08eb 06       		.uleb128 0x6
 1930 08ec DE050000 		.4byte	.LASF109
 1931 08f0 0E       		.byte	0xe
 1932 08f1 D0       		.byte	0xd0
 1933 08f2 62000000 		.4byte	0x62
 1934 08f6 02       		.byte	0x2
 1935 08f7 23       		.byte	0x23
 1936 08f8 06       		.uleb128 0x6
 1937 08f9 06       		.uleb128 0x6
 1938 08fa E5050000 		.4byte	.LASF110
 1939 08fe 0E       		.byte	0xe
 1940 08ff D4       		.byte	0xd4
 1941 0900 62000000 		.4byte	0x62
 1942 0904 02       		.byte	0x2
 1943 0905 23       		.byte	0x23
 1944 0906 08       		.uleb128 0x8
 1945 0907 00       		.byte	0
 1946 0908 03       		.uleb128 0x3
 1947 0909 58030000 		.4byte	.LASF111
 1948 090d 0E       		.byte	0xe
 1949 090e D5       		.byte	0xd5
 1950 090f C7080000 		.4byte	0x8c7
 1951 0913 05       		.uleb128 0x5
 1952 0914 DA010000 		.4byte	.LASF112
 1953 0918 24       		.byte	0x24
 1954 0919 0D       		.byte	0xd
 1955 091a 7C       		.byte	0x7c
 1956 091b 9E090000 		.4byte	0x99e
 1957 091f 06       		.uleb128 0x6
ARM GAS  /var/folders/dt/0wfd0knj7gs46m8vwfzktm600000gn/T//ccfLNI7n.s 			page 36


 1958 0920 B9020000 		.4byte	.LASF79
 1959 0924 0D       		.byte	0xd
 1960 0925 7D       		.byte	0x7d
 1961 0926 57050000 		.4byte	0x557
 1962 092a 02       		.byte	0x2
 1963 092b 23       		.byte	0x23
 1964 092c 00       		.uleb128 0
 1965 092d 06       		.uleb128 0x6
 1966 092e 89040000 		.4byte	.LASF80
 1967 0932 0D       		.byte	0xd
 1968 0933 7D       		.byte	0x7d
 1969 0934 77050000 		.4byte	0x577
 1970 0938 02       		.byte	0x2
 1971 0939 23       		.byte	0x23
 1972 093a 04       		.uleb128 0x4
 1973 093b 06       		.uleb128 0x6
 1974 093c 67010000 		.4byte	.LASF81
 1975 0940 0D       		.byte	0xd
 1976 0941 7D       		.byte	0x7d
 1977 0942 8D050000 		.4byte	0x58d
 1978 0946 02       		.byte	0x2
 1979 0947 23       		.byte	0x23
 1980 0948 08       		.uleb128 0x8
 1981 0949 06       		.uleb128 0x6
 1982 094a C9050000 		.4byte	.LASF82
 1983 094e 0D       		.byte	0xd
 1984 094f 7D       		.byte	0x7d
 1985 0950 8D050000 		.4byte	0x58d
 1986 0954 02       		.byte	0x2
 1987 0955 23       		.byte	0x23
 1988 0956 0C       		.uleb128 0xc
 1989 0957 07       		.uleb128 0x7
 1990 0958 70757400 		.ascii	"put\000"
 1991 095c 0D       		.byte	0xd
 1992 095d 7D       		.byte	0x7d
 1993 095e AD050000 		.4byte	0x5ad
 1994 0962 02       		.byte	0x2
 1995 0963 23       		.byte	0x23
 1996 0964 10       		.uleb128 0x10
 1997 0965 07       		.uleb128 0x7
 1998 0966 67657400 		.ascii	"get\000"
 1999 096a 0D       		.byte	0xd
 2000 096b 7D       		.byte	0x7d
 2001 096c C8050000 		.4byte	0x5c8
 2002 0970 02       		.byte	0x2
 2003 0971 23       		.byte	0x23
 2004 0972 14       		.uleb128 0x14
 2005 0973 06       		.uleb128 0x6
 2006 0974 5A020000 		.4byte	.LASF83
 2007 0978 0D       		.byte	0xd
 2008 0979 7D       		.byte	0x7d
 2009 097a ED050000 		.4byte	0x5ed
 2010 097e 02       		.byte	0x2
 2011 097f 23       		.byte	0x23
 2012 0980 18       		.uleb128 0x18
 2013 0981 06       		.uleb128 0x6
 2014 0982 CB000000 		.4byte	.LASF84
ARM GAS  /var/folders/dt/0wfd0knj7gs46m8vwfzktm600000gn/T//ccfLNI7n.s 			page 37


 2015 0986 0D       		.byte	0xd
 2016 0987 7D       		.byte	0x7d
 2017 0988 12060000 		.4byte	0x612
 2018 098c 02       		.byte	0x2
 2019 098d 23       		.byte	0x23
 2020 098e 1C       		.uleb128 0x1c
 2021 098f 06       		.uleb128 0x6
 2022 0990 F4020000 		.4byte	.LASF85
 2023 0994 0D       		.byte	0xd
 2024 0995 7D       		.byte	0x7d
 2025 0996 C9060000 		.4byte	0x6c9
 2026 099a 02       		.byte	0x2
 2027 099b 23       		.byte	0x23
 2028 099c 20       		.uleb128 0x20
 2029 099d 00       		.byte	0
 2030 099e 09       		.uleb128 0x9
 2031 099f 04       		.byte	0x4
 2032 09a0 A4090000 		.4byte	0x9a4
 2033 09a4 10       		.uleb128 0x10
 2034 09a5 13090000 		.4byte	0x913
 2035 09a9 19       		.uleb128 0x19
 2036 09aa 49000000 		.4byte	0x49
 2037 09ae B9090000 		.4byte	0x9b9
 2038 09b2 1A       		.uleb128 0x1a
 2039 09b3 64030000 		.4byte	0x364
 2040 09b7 0F       		.byte	0xf
 2041 09b8 00       		.byte	0
 2042 09b9 09       		.uleb128 0x9
 2043 09ba 04       		.byte	0x4
 2044 09bb 01080000 		.4byte	0x801
 2045 09bf 1B       		.uleb128 0x1b
 2046 09c0 67010000 		.4byte	.LASF81
 2047 09c4 01       		.byte	0x1
 2048 09c5 4A       		.byte	0x4a
 2049 09c6 01       		.byte	0x1
 2050 09c7 BC000000 		.4byte	0xbc
 2051 09cb 00000000 		.4byte	.LFB64
 2052 09cf 0C000000 		.4byte	.LFE64
 2053 09d3 02       		.byte	0x2
 2054 09d4 7D       		.byte	0x7d
 2055 09d5 00       		.sleb128 0
 2056 09d6 01       		.byte	0x1
 2057 09d7 EA090000 		.4byte	0x9ea
 2058 09db 1C       		.uleb128 0x1c
 2059 09dc 697000   		.ascii	"ip\000"
 2060 09df 01       		.byte	0x1
 2061 09e0 4A       		.byte	0x4a
 2062 09e1 A7020000 		.4byte	0x2a7
 2063 09e5 00000000 		.4byte	.LLST0
 2064 09e9 00       		.byte	0
 2065 09ea 1B       		.uleb128 0x1b
 2066 09eb C9050000 		.4byte	.LASF82
 2067 09ef 01       		.byte	0x1
 2068 09f0 4F       		.byte	0x4f
 2069 09f1 01       		.byte	0x1
 2070 09f2 BC000000 		.4byte	0xbc
 2071 09f6 00000000 		.4byte	.LFB65
ARM GAS  /var/folders/dt/0wfd0knj7gs46m8vwfzktm600000gn/T//ccfLNI7n.s 			page 38


 2072 09fa 0C000000 		.4byte	.LFE65
 2073 09fe 02       		.byte	0x2
 2074 09ff 7D       		.byte	0x7d
 2075 0a00 00       		.sleb128 0
 2076 0a01 01       		.byte	0x1
 2077 0a02 150A0000 		.4byte	0xa15
 2078 0a06 1C       		.uleb128 0x1c
 2079 0a07 697000   		.ascii	"ip\000"
 2080 0a0a 01       		.byte	0x1
 2081 0a0b 4F       		.byte	0x4f
 2082 0a0c A7020000 		.4byte	0x2a7
 2083 0a10 21000000 		.4byte	.LLST1
 2084 0a14 00       		.byte	0
 2085 0a15 1D       		.uleb128 0x1d
 2086 0a16 F4020000 		.4byte	.LASF85
 2087 0a1a 01       		.byte	0x1
 2088 0a1b 68       		.byte	0x68
 2089 0a1c 01       		.byte	0x1
 2090 0a1d 18060000 		.4byte	0x618
 2091 0a21 00000000 		.4byte	.LFB70
 2092 0a25 22000000 		.4byte	.LFE70
 2093 0a29 42000000 		.4byte	.LLST2
 2094 0a2d 01       		.byte	0x1
 2095 0a2e 960A0000 		.4byte	0xa96
 2096 0a32 1C       		.uleb128 0x1c
 2097 0a33 697000   		.ascii	"ip\000"
 2098 0a36 01       		.byte	0x1
 2099 0a37 68       		.byte	0x68
 2100 0a38 A7020000 		.4byte	0x2a7
 2101 0a3c 62000000 		.4byte	.LLST3
 2102 0a40 1E       		.uleb128 0x1e
 2103 0a41 86010000 		.4byte	.LASF113
 2104 0a45 01       		.byte	0x1
 2105 0a46 69       		.byte	0x69
 2106 0a47 18060000 		.4byte	0x618
 2107 0a4b 01       		.byte	0x1
 2108 0a4c 56       		.byte	0x56
 2109 0a4d 1F       		.uleb128 0x1f
 2110 0a4e 00000000 		.4byte	.Ldebug_ranges0+0
 2111 0a52 660A0000 		.4byte	0xa66
 2112 0a56 20       		.uleb128 0x20
 2113 0a57 746D7000 		.ascii	"tmp\000"
 2114 0a5b 01       		.byte	0x1
 2115 0a5c 69       		.byte	0x69
 2116 0a5d 86000000 		.4byte	0x86
 2117 0a61 80000000 		.4byte	.LLST4
 2118 0a65 00       		.byte	0
 2119 0a66 21       		.uleb128 0x21
 2120 0a67 18000000 		.4byte	.LBB4
 2121 0a6b 1E000000 		.4byte	.LBE4
 2122 0a6f 830A0000 		.4byte	0xa83
 2123 0a73 20       		.uleb128 0x20
 2124 0a74 746D7000 		.ascii	"tmp\000"
 2125 0a78 01       		.byte	0x1
 2126 0a79 69       		.byte	0x69
 2127 0a7a 86000000 		.4byte	0x86
 2128 0a7e 93000000 		.4byte	.LLST5
ARM GAS  /var/folders/dt/0wfd0knj7gs46m8vwfzktm600000gn/T//ccfLNI7n.s 			page 39


 2129 0a82 00       		.byte	0
 2130 0a83 22       		.uleb128 0x22
 2131 0a84 10000000 		.4byte	.LVL7
 2132 0a88 F2100000 		.4byte	0x10f2
 2133 0a8c 22       		.uleb128 0x22
 2134 0a8d 18000000 		.4byte	.LVL9
 2135 0a91 FC100000 		.4byte	0x10fc
 2136 0a95 00       		.byte	0
 2137 0a96 1B       		.uleb128 0x1b
 2138 0a97 CB000000 		.4byte	.LASF84
 2139 0a9b 01       		.byte	0x1
 2140 0a9c 63       		.byte	0x63
 2141 0a9d 01       		.byte	0x1
 2142 0a9e 30000000 		.4byte	0x30
 2143 0aa2 00000000 		.4byte	.LFB69
 2144 0aa6 06000000 		.4byte	.LFE69
 2145 0aaa 02       		.byte	0x2
 2146 0aab 7D       		.byte	0x7d
 2147 0aac 00       		.sleb128 0
 2148 0aad 01       		.byte	0x1
 2149 0aae 140B0000 		.4byte	0xb14
 2150 0ab2 1C       		.uleb128 0x1c
 2151 0ab3 697000   		.ascii	"ip\000"
 2152 0ab6 01       		.byte	0x1
 2153 0ab7 63       		.byte	0x63
 2154 0ab8 A7020000 		.4byte	0x2a7
 2155 0abc A6000000 		.4byte	.LLST6
 2156 0ac0 1C       		.uleb128 0x1c
 2157 0ac1 627000   		.ascii	"bp\000"
 2158 0ac4 01       		.byte	0x1
 2159 0ac5 63       		.byte	0x63
 2160 0ac6 16050000 		.4byte	0x516
 2161 0aca D4000000 		.4byte	.LLST7
 2162 0ace 1C       		.uleb128 0x1c
 2163 0acf 6E00     		.ascii	"n\000"
 2164 0ad1 01       		.byte	0x1
 2165 0ad2 63       		.byte	0x63
 2166 0ad3 30000000 		.4byte	0x30
 2167 0ad7 F5000000 		.4byte	.LLST8
 2168 0adb 23       		.uleb128 0x23
 2169 0adc 27030000 		.4byte	.LASF114
 2170 0ae0 01       		.byte	0x1
 2171 0ae1 63       		.byte	0x63
 2172 0ae2 09010000 		.4byte	0x109
 2173 0ae6 16010000 		.4byte	.LLST9
 2174 0aea 24       		.uleb128 0x24
 2175 0aeb 06000000 		.4byte	.LVL14
 2176 0aef 01       		.byte	0x1
 2177 0af0 06110000 		.4byte	0x1106
 2178 0af4 25       		.uleb128 0x25
 2179 0af5 01       		.byte	0x1
 2180 0af6 53       		.byte	0x53
 2181 0af7 03       		.byte	0x3
 2182 0af8 F3       		.byte	0xf3
 2183 0af9 01       		.uleb128 0x1
 2184 0afa 53       		.byte	0x53
 2185 0afb 25       		.uleb128 0x25
ARM GAS  /var/folders/dt/0wfd0knj7gs46m8vwfzktm600000gn/T//ccfLNI7n.s 			page 40


 2186 0afc 01       		.byte	0x1
 2187 0afd 52       		.byte	0x52
 2188 0afe 03       		.byte	0x3
 2189 0aff F3       		.byte	0xf3
 2190 0b00 01       		.uleb128 0x1
 2191 0b01 52       		.byte	0x52
 2192 0b02 25       		.uleb128 0x25
 2193 0b03 01       		.byte	0x1
 2194 0b04 51       		.byte	0x51
 2195 0b05 03       		.byte	0x3
 2196 0b06 F3       		.byte	0xf3
 2197 0b07 01       		.uleb128 0x1
 2198 0b08 51       		.byte	0x51
 2199 0b09 25       		.uleb128 0x25
 2200 0b0a 01       		.byte	0x1
 2201 0b0b 50       		.byte	0x50
 2202 0b0c 05       		.byte	0x5
 2203 0b0d F3       		.byte	0xf3
 2204 0b0e 01       		.uleb128 0x1
 2205 0b0f 50       		.byte	0x50
 2206 0b10 23       		.byte	0x23
 2207 0b11 10       		.uleb128 0x10
 2208 0b12 00       		.byte	0
 2209 0b13 00       		.byte	0
 2210 0b14 1B       		.uleb128 0x1b
 2211 0b15 C5000000 		.4byte	.LASF115
 2212 0b19 01       		.byte	0x1
 2213 0b1a 44       		.byte	0x44
 2214 0b1b 01       		.byte	0x1
 2215 0b1c 30000000 		.4byte	0x30
 2216 0b20 00000000 		.4byte	.LFB63
 2217 0b24 0A000000 		.4byte	.LFE63
 2218 0b28 02       		.byte	0x2
 2219 0b29 7D       		.byte	0x7d
 2220 0b2a 00       		.sleb128 0
 2221 0b2b 01       		.byte	0x1
 2222 0b2c 820B0000 		.4byte	0xb82
 2223 0b30 1C       		.uleb128 0x1c
 2224 0b31 697000   		.ascii	"ip\000"
 2225 0b34 01       		.byte	0x1
 2226 0b35 44       		.byte	0x44
 2227 0b36 A7020000 		.4byte	0x2a7
 2228 0b3a 37010000 		.4byte	.LLST10
 2229 0b3e 1C       		.uleb128 0x1c
 2230 0b3f 627000   		.ascii	"bp\000"
 2231 0b42 01       		.byte	0x1
 2232 0b43 44       		.byte	0x44
 2233 0b44 16050000 		.4byte	0x516
 2234 0b48 65010000 		.4byte	.LLST11
 2235 0b4c 1C       		.uleb128 0x1c
 2236 0b4d 6E00     		.ascii	"n\000"
 2237 0b4f 01       		.byte	0x1
 2238 0b50 44       		.byte	0x44
 2239 0b51 30000000 		.4byte	0x30
 2240 0b55 86010000 		.4byte	.LLST12
 2241 0b59 24       		.uleb128 0x24
 2242 0b5a 0A000000 		.4byte	.LVL17
ARM GAS  /var/folders/dt/0wfd0knj7gs46m8vwfzktm600000gn/T//ccfLNI7n.s 			page 41


 2243 0b5e 01       		.byte	0x1
 2244 0b5f 06110000 		.4byte	0x1106
 2245 0b63 25       		.uleb128 0x25
 2246 0b64 01       		.byte	0x1
 2247 0b65 53       		.byte	0x53
 2248 0b66 02       		.byte	0x2
 2249 0b67 09       		.byte	0x9
 2250 0b68 FF       		.byte	0xff
 2251 0b69 25       		.uleb128 0x25
 2252 0b6a 01       		.byte	0x1
 2253 0b6b 52       		.byte	0x52
 2254 0b6c 03       		.byte	0x3
 2255 0b6d F3       		.byte	0xf3
 2256 0b6e 01       		.uleb128 0x1
 2257 0b6f 52       		.byte	0x52
 2258 0b70 25       		.uleb128 0x25
 2259 0b71 01       		.byte	0x1
 2260 0b72 51       		.byte	0x51
 2261 0b73 03       		.byte	0x3
 2262 0b74 F3       		.byte	0xf3
 2263 0b75 01       		.uleb128 0x1
 2264 0b76 51       		.byte	0x51
 2265 0b77 25       		.uleb128 0x25
 2266 0b78 01       		.byte	0x1
 2267 0b79 50       		.byte	0x50
 2268 0b7a 05       		.byte	0x5
 2269 0b7b F3       		.byte	0xf3
 2270 0b7c 01       		.uleb128 0x1
 2271 0b7d 50       		.byte	0x50
 2272 0b7e 23       		.byte	0x23
 2273 0b7f 10       		.uleb128 0x10
 2274 0b80 00       		.byte	0
 2275 0b81 00       		.byte	0
 2276 0b82 1B       		.uleb128 0x1b
 2277 0b83 5A020000 		.4byte	.LASF83
 2278 0b87 01       		.byte	0x1
 2279 0b88 5E       		.byte	0x5e
 2280 0b89 01       		.byte	0x1
 2281 0b8a 30000000 		.4byte	0x30
 2282 0b8e 00000000 		.4byte	.LFB68
 2283 0b92 06000000 		.4byte	.LFE68
 2284 0b96 02       		.byte	0x2
 2285 0b97 7D       		.byte	0x7d
 2286 0b98 00       		.sleb128 0
 2287 0b99 01       		.byte	0x1
 2288 0b9a 000C0000 		.4byte	0xc00
 2289 0b9e 1C       		.uleb128 0x1c
 2290 0b9f 697000   		.ascii	"ip\000"
 2291 0ba2 01       		.byte	0x1
 2292 0ba3 5E       		.byte	0x5e
 2293 0ba4 A7020000 		.4byte	0x2a7
 2294 0ba8 A7010000 		.4byte	.LLST13
 2295 0bac 1C       		.uleb128 0x1c
 2296 0bad 627000   		.ascii	"bp\000"
 2297 0bb0 01       		.byte	0x1
 2298 0bb1 5E       		.byte	0x5e
 2299 0bb2 4C050000 		.4byte	0x54c
ARM GAS  /var/folders/dt/0wfd0knj7gs46m8vwfzktm600000gn/T//ccfLNI7n.s 			page 42


 2300 0bb6 D5010000 		.4byte	.LLST14
 2301 0bba 1C       		.uleb128 0x1c
 2302 0bbb 6E00     		.ascii	"n\000"
 2303 0bbd 01       		.byte	0x1
 2304 0bbe 5E       		.byte	0x5e
 2305 0bbf 30000000 		.4byte	0x30
 2306 0bc3 F6010000 		.4byte	.LLST15
 2307 0bc7 23       		.uleb128 0x23
 2308 0bc8 27030000 		.4byte	.LASF114
 2309 0bcc 01       		.byte	0x1
 2310 0bcd 5E       		.byte	0x5e
 2311 0bce 09010000 		.4byte	0x109
 2312 0bd2 17020000 		.4byte	.LLST16
 2313 0bd6 24       		.uleb128 0x24
 2314 0bd7 06000000 		.4byte	.LVL20
 2315 0bdb 01       		.byte	0x1
 2316 0bdc 34110000 		.4byte	0x1134
 2317 0be0 25       		.uleb128 0x25
 2318 0be1 01       		.byte	0x1
 2319 0be2 53       		.byte	0x53
 2320 0be3 03       		.byte	0x3
 2321 0be4 F3       		.byte	0xf3
 2322 0be5 01       		.uleb128 0x1
 2323 0be6 53       		.byte	0x53
 2324 0be7 25       		.uleb128 0x25
 2325 0be8 01       		.byte	0x1
 2326 0be9 52       		.byte	0x52
 2327 0bea 03       		.byte	0x3
 2328 0beb F3       		.byte	0xf3
 2329 0bec 01       		.uleb128 0x1
 2330 0bed 52       		.byte	0x52
 2331 0bee 25       		.uleb128 0x25
 2332 0bef 01       		.byte	0x1
 2333 0bf0 51       		.byte	0x51
 2334 0bf1 03       		.byte	0x3
 2335 0bf2 F3       		.byte	0xf3
 2336 0bf3 01       		.uleb128 0x1
 2337 0bf4 51       		.byte	0x51
 2338 0bf5 25       		.uleb128 0x25
 2339 0bf6 01       		.byte	0x1
 2340 0bf7 50       		.byte	0x50
 2341 0bf8 05       		.byte	0x5
 2342 0bf9 F3       		.byte	0xf3
 2343 0bfa 01       		.uleb128 0x1
 2344 0bfb 50       		.byte	0x50
 2345 0bfc 23       		.byte	0x23
 2346 0bfd 30       		.uleb128 0x30
 2347 0bfe 00       		.byte	0
 2348 0bff 00       		.byte	0
 2349 0c00 1B       		.uleb128 0x1b
 2350 0c01 53020000 		.4byte	.LASF116
 2351 0c05 01       		.byte	0x1
 2352 0c06 3E       		.byte	0x3e
 2353 0c07 01       		.byte	0x1
 2354 0c08 30000000 		.4byte	0x30
 2355 0c0c 00000000 		.4byte	.LFB62
 2356 0c10 0A000000 		.4byte	.LFE62
ARM GAS  /var/folders/dt/0wfd0knj7gs46m8vwfzktm600000gn/T//ccfLNI7n.s 			page 43


 2357 0c14 02       		.byte	0x2
 2358 0c15 7D       		.byte	0x7d
 2359 0c16 00       		.sleb128 0
 2360 0c17 01       		.byte	0x1
 2361 0c18 6E0C0000 		.4byte	0xc6e
 2362 0c1c 1C       		.uleb128 0x1c
 2363 0c1d 697000   		.ascii	"ip\000"
 2364 0c20 01       		.byte	0x1
 2365 0c21 3E       		.byte	0x3e
 2366 0c22 A7020000 		.4byte	0x2a7
 2367 0c26 38020000 		.4byte	.LLST17
 2368 0c2a 1C       		.uleb128 0x1c
 2369 0c2b 627000   		.ascii	"bp\000"
 2370 0c2e 01       		.byte	0x1
 2371 0c2f 3E       		.byte	0x3e
 2372 0c30 4C050000 		.4byte	0x54c
 2373 0c34 66020000 		.4byte	.LLST18
 2374 0c38 1C       		.uleb128 0x1c
 2375 0c39 6E00     		.ascii	"n\000"
 2376 0c3b 01       		.byte	0x1
 2377 0c3c 3E       		.byte	0x3e
 2378 0c3d 30000000 		.4byte	0x30
 2379 0c41 87020000 		.4byte	.LLST19
 2380 0c45 24       		.uleb128 0x24
 2381 0c46 0A000000 		.4byte	.LVL23
 2382 0c4a 01       		.byte	0x1
 2383 0c4b 34110000 		.4byte	0x1134
 2384 0c4f 25       		.uleb128 0x25
 2385 0c50 01       		.byte	0x1
 2386 0c51 53       		.byte	0x53
 2387 0c52 02       		.byte	0x2
 2388 0c53 09       		.byte	0x9
 2389 0c54 FF       		.byte	0xff
 2390 0c55 25       		.uleb128 0x25
 2391 0c56 01       		.byte	0x1
 2392 0c57 52       		.byte	0x52
 2393 0c58 03       		.byte	0x3
 2394 0c59 F3       		.byte	0xf3
 2395 0c5a 01       		.uleb128 0x1
 2396 0c5b 52       		.byte	0x52
 2397 0c5c 25       		.uleb128 0x25
 2398 0c5d 01       		.byte	0x1
 2399 0c5e 51       		.byte	0x51
 2400 0c5f 03       		.byte	0x3
 2401 0c60 F3       		.byte	0xf3
 2402 0c61 01       		.uleb128 0x1
 2403 0c62 51       		.byte	0x51
 2404 0c63 25       		.uleb128 0x25
 2405 0c64 01       		.byte	0x1
 2406 0c65 50       		.byte	0x50
 2407 0c66 05       		.byte	0x5
 2408 0c67 F3       		.byte	0xf3
 2409 0c68 01       		.uleb128 0x1
 2410 0c69 50       		.byte	0x50
 2411 0c6a 23       		.byte	0x23
 2412 0c6b 30       		.uleb128 0x30
 2413 0c6c 00       		.byte	0
ARM GAS  /var/folders/dt/0wfd0knj7gs46m8vwfzktm600000gn/T//ccfLNI7n.s 			page 44


 2414 0c6d 00       		.byte	0
 2415 0c6e 1B       		.uleb128 0x1b
 2416 0c6f 17020000 		.4byte	.LASF117
 2417 0c73 01       		.byte	0x1
 2418 0c74 59       		.byte	0x59
 2419 0c75 01       		.byte	0x1
 2420 0c76 F3000000 		.4byte	0xf3
 2421 0c7a 00000000 		.4byte	.LFB67
 2422 0c7e 06000000 		.4byte	.LFE67
 2423 0c82 02       		.byte	0x2
 2424 0c83 7D       		.byte	0x7d
 2425 0c84 00       		.sleb128 0
 2426 0c85 01       		.byte	0x1
 2427 0c86 C30C0000 		.4byte	0xcc3
 2428 0c8a 1C       		.uleb128 0x1c
 2429 0c8b 697000   		.ascii	"ip\000"
 2430 0c8e 01       		.byte	0x1
 2431 0c8f 59       		.byte	0x59
 2432 0c90 A7020000 		.4byte	0x2a7
 2433 0c94 A8020000 		.4byte	.LLST20
 2434 0c98 23       		.uleb128 0x23
 2435 0c99 1F030000 		.4byte	.LASF118
 2436 0c9d 01       		.byte	0x1
 2437 0c9e 59       		.byte	0x59
 2438 0c9f 09010000 		.4byte	0x109
 2439 0ca3 D6020000 		.4byte	.LLST21
 2440 0ca7 24       		.uleb128 0x24
 2441 0ca8 06000000 		.4byte	.LVL26
 2442 0cac 01       		.byte	0x1
 2443 0cad 62110000 		.4byte	0x1162
 2444 0cb1 25       		.uleb128 0x25
 2445 0cb2 01       		.byte	0x1
 2446 0cb3 51       		.byte	0x51
 2447 0cb4 03       		.byte	0x3
 2448 0cb5 F3       		.byte	0xf3
 2449 0cb6 01       		.uleb128 0x1
 2450 0cb7 51       		.byte	0x51
 2451 0cb8 25       		.uleb128 0x25
 2452 0cb9 01       		.byte	0x1
 2453 0cba 50       		.byte	0x50
 2454 0cbb 05       		.byte	0x5
 2455 0cbc F3       		.byte	0xf3
 2456 0cbd 01       		.uleb128 0x1
 2457 0cbe 50       		.byte	0x50
 2458 0cbf 23       		.byte	0x23
 2459 0cc0 10       		.uleb128 0x10
 2460 0cc1 00       		.byte	0
 2461 0cc2 00       		.byte	0
 2462 0cc3 1B       		.uleb128 0x1b
 2463 0cc4 BF020000 		.4byte	.LASF119
 2464 0cc8 01       		.byte	0x1
 2465 0cc9 54       		.byte	0x54
 2466 0cca 01       		.byte	0x1
 2467 0ccb F3000000 		.4byte	0xf3
 2468 0ccf 00000000 		.4byte	.LFB66
 2469 0cd3 06000000 		.4byte	.LFE66
 2470 0cd7 02       		.byte	0x2
ARM GAS  /var/folders/dt/0wfd0knj7gs46m8vwfzktm600000gn/T//ccfLNI7n.s 			page 45


 2471 0cd8 7D       		.byte	0x7d
 2472 0cd9 00       		.sleb128 0
 2473 0cda 01       		.byte	0x1
 2474 0cdb 250D0000 		.4byte	0xd25
 2475 0cdf 1C       		.uleb128 0x1c
 2476 0ce0 697000   		.ascii	"ip\000"
 2477 0ce3 01       		.byte	0x1
 2478 0ce4 54       		.byte	0x54
 2479 0ce5 A7020000 		.4byte	0x2a7
 2480 0ce9 F7020000 		.4byte	.LLST22
 2481 0ced 1C       		.uleb128 0x1c
 2482 0cee 6200     		.ascii	"b\000"
 2483 0cf0 01       		.byte	0x1
 2484 0cf1 54       		.byte	0x54
 2485 0cf2 49000000 		.4byte	0x49
 2486 0cf6 25030000 		.4byte	.LLST23
 2487 0cfa 23       		.uleb128 0x23
 2488 0cfb 1F030000 		.4byte	.LASF118
 2489 0cff 01       		.byte	0x1
 2490 0d00 54       		.byte	0x54
 2491 0d01 09010000 		.4byte	0x109
 2492 0d05 46030000 		.4byte	.LLST24
 2493 0d09 24       		.uleb128 0x24
 2494 0d0a 06000000 		.4byte	.LVL29
 2495 0d0e 01       		.byte	0x1
 2496 0d0f 80110000 		.4byte	0x1180
 2497 0d13 25       		.uleb128 0x25
 2498 0d14 01       		.byte	0x1
 2499 0d15 52       		.byte	0x52
 2500 0d16 03       		.byte	0x3
 2501 0d17 F3       		.byte	0xf3
 2502 0d18 01       		.uleb128 0x1
 2503 0d19 52       		.byte	0x52
 2504 0d1a 25       		.uleb128 0x25
 2505 0d1b 01       		.byte	0x1
 2506 0d1c 50       		.byte	0x50
 2507 0d1d 05       		.byte	0x5
 2508 0d1e F3       		.byte	0xf3
 2509 0d1f 01       		.uleb128 0x1
 2510 0d20 50       		.byte	0x50
 2511 0d21 23       		.byte	0x23
 2512 0d22 30       		.uleb128 0x30
 2513 0d23 00       		.byte	0
 2514 0d24 00       		.byte	0
 2515 0d25 26       		.uleb128 0x26
 2516 0d26 01       		.byte	0x1
 2517 0d27 EC050000 		.4byte	.LASF120
 2518 0d2b 01       		.byte	0x1
 2519 0d2c 7D       		.byte	0x7d
 2520 0d2d 01       		.byte	0x1
 2521 0d2e 00000000 		.4byte	.LFB71
 2522 0d32 04000000 		.4byte	.LFE71
 2523 0d36 02       		.byte	0x2
 2524 0d37 7D       		.byte	0x7d
 2525 0d38 00       		.sleb128 0
 2526 0d39 01       		.byte	0x1
 2527 0d3a 490D0000 		.4byte	0xd49
ARM GAS  /var/folders/dt/0wfd0knj7gs46m8vwfzktm600000gn/T//ccfLNI7n.s 			page 46


 2528 0d3e 27       		.uleb128 0x27
 2529 0d3f 04000000 		.4byte	.LVL30
 2530 0d43 01       		.byte	0x1
 2531 0d44 A3110000 		.4byte	0x11a3
 2532 0d48 00       		.byte	0
 2533 0d49 28       		.uleb128 0x28
 2534 0d4a 01       		.byte	0x1
 2535 0d4b B8000000 		.4byte	.LASF121
 2536 0d4f 01       		.byte	0x1
 2537 0d50 91       		.byte	0x91
 2538 0d51 01       		.byte	0x1
 2539 0d52 00000000 		.4byte	.LFB72
 2540 0d56 42000000 		.4byte	.LFE72
 2541 0d5a 67030000 		.4byte	.LLST25
 2542 0d5e 01       		.byte	0x1
 2543 0d5f DB0D0000 		.4byte	0xddb
 2544 0d63 1C       		.uleb128 0x1c
 2545 0d64 73647000 		.ascii	"sdp\000"
 2546 0d68 01       		.byte	0x1
 2547 0d69 91       		.byte	0x91
 2548 0d6a DB0D0000 		.4byte	0xddb
 2549 0d6e 87030000 		.4byte	.LLST26
 2550 0d72 23       		.uleb128 0x23
 2551 0d73 F1010000 		.4byte	.LASF122
 2552 0d77 01       		.byte	0x1
 2553 0d78 91       		.byte	0x91
 2554 0d79 F3040000 		.4byte	0x4f3
 2555 0d7d A5030000 		.4byte	.LLST27
 2556 0d81 23       		.uleb128 0x23
 2557 0d82 A3050000 		.4byte	.LASF123
 2558 0d86 01       		.byte	0x1
 2559 0d87 91       		.byte	0x91
 2560 0d88 F3040000 		.4byte	0x4f3
 2561 0d8c D1030000 		.4byte	.LLST28
 2562 0d90 29       		.uleb128 0x29
 2563 0d91 2E000000 		.4byte	.LVL35
 2564 0d95 AE110000 		.4byte	0x11ae
 2565 0d99 B70D0000 		.4byte	0xdb7
 2566 0d9d 25       		.uleb128 0x25
 2567 0d9e 01       		.byte	0x1
 2568 0d9f 53       		.byte	0x53
 2569 0da0 03       		.byte	0x3
 2570 0da1 F3       		.byte	0xf3
 2571 0da2 01       		.uleb128 0x1
 2572 0da3 51       		.byte	0x51
 2573 0da4 25       		.uleb128 0x25
 2574 0da5 01       		.byte	0x1
 2575 0da6 52       		.byte	0x52
 2576 0da7 01       		.byte	0x1
 2577 0da8 40       		.byte	0x40
 2578 0da9 25       		.uleb128 0x25
 2579 0daa 01       		.byte	0x1
 2580 0dab 51       		.byte	0x51
 2581 0dac 03       		.byte	0x3
 2582 0dad 74       		.byte	0x74
 2583 0dae D000     		.sleb128 80
 2584 0db0 25       		.uleb128 0x25
ARM GAS  /var/folders/dt/0wfd0knj7gs46m8vwfzktm600000gn/T//ccfLNI7n.s 			page 47


 2585 0db1 01       		.byte	0x1
 2586 0db2 50       		.byte	0x50
 2587 0db3 02       		.byte	0x2
 2588 0db4 74       		.byte	0x74
 2589 0db5 10       		.sleb128 16
 2590 0db6 00       		.byte	0
 2591 0db7 24       		.uleb128 0x24
 2592 0db8 42000000 		.4byte	.LVL36
 2593 0dbc 01       		.byte	0x1
 2594 0dbd D2110000 		.4byte	0x11d2
 2595 0dc1 25       		.uleb128 0x25
 2596 0dc2 01       		.byte	0x1
 2597 0dc3 53       		.byte	0x53
 2598 0dc4 02       		.byte	0x2
 2599 0dc5 76       		.byte	0x76
 2600 0dc6 00       		.sleb128 0
 2601 0dc7 25       		.uleb128 0x25
 2602 0dc8 01       		.byte	0x1
 2603 0dc9 52       		.byte	0x52
 2604 0dca 01       		.byte	0x1
 2605 0dcb 40       		.byte	0x40
 2606 0dcc 25       		.uleb128 0x25
 2607 0dcd 01       		.byte	0x1
 2608 0dce 51       		.byte	0x51
 2609 0dcf 03       		.byte	0x3
 2610 0dd0 74       		.byte	0x74
 2611 0dd1 E000     		.sleb128 96
 2612 0dd3 25       		.uleb128 0x25
 2613 0dd4 01       		.byte	0x1
 2614 0dd5 50       		.byte	0x50
 2615 0dd6 02       		.byte	0x2
 2616 0dd7 74       		.byte	0x74
 2617 0dd8 30       		.sleb128 48
 2618 0dd9 00       		.byte	0
 2619 0dda 00       		.byte	0
 2620 0ddb 09       		.uleb128 0x9
 2621 0ddc 04       		.byte	0x4
 2622 0ddd 33080000 		.4byte	0x833
 2623 0de1 28       		.uleb128 0x28
 2624 0de2 01       		.byte	0x1
 2625 0de3 AA040000 		.4byte	.LASF124
 2626 0de7 01       		.byte	0x1
 2627 0de8 A5       		.byte	0xa5
 2628 0de9 01       		.byte	0x1
 2629 0dea 00000000 		.4byte	.LFB73
 2630 0dee 48000000 		.4byte	.LFE73
 2631 0df2 EF030000 		.4byte	.LLST29
 2632 0df6 01       		.byte	0x1
 2633 0df7 AA0E0000 		.4byte	0xeaa
 2634 0dfb 1C       		.uleb128 0x1c
 2635 0dfc 73647000 		.ascii	"sdp\000"
 2636 0e00 01       		.byte	0x1
 2637 0e01 A5       		.byte	0xa5
 2638 0e02 DB0D0000 		.4byte	0xddb
 2639 0e06 0F040000 		.4byte	.LLST30
 2640 0e0a 23       		.uleb128 0x23
 2641 0e0b A3040000 		.4byte	.LASF125
ARM GAS  /var/folders/dt/0wfd0knj7gs46m8vwfzktm600000gn/T//ccfLNI7n.s 			page 48


 2642 0e0f 01       		.byte	0x1
 2643 0e10 A5       		.byte	0xa5
 2644 0e11 AA0E0000 		.4byte	0xeaa
 2645 0e15 43040000 		.4byte	.LLST31
 2646 0e19 21       		.uleb128 0x21
 2647 0e1a 08000000 		.4byte	.LBB5
 2648 0e1e 0E000000 		.4byte	.LBE5
 2649 0e22 360E0000 		.4byte	0xe36
 2650 0e26 20       		.uleb128 0x20
 2651 0e27 746D7000 		.ascii	"tmp\000"
 2652 0e2b 01       		.byte	0x1
 2653 0e2c A9       		.byte	0xa9
 2654 0e2d 86000000 		.4byte	0x86
 2655 0e31 77040000 		.4byte	.LLST32
 2656 0e35 00       		.byte	0
 2657 0e36 21       		.uleb128 0x21
 2658 0e37 30000000 		.4byte	.LBB6
 2659 0e3b 38000000 		.4byte	.LBE6
 2660 0e3f 530E0000 		.4byte	0xe53
 2661 0e43 20       		.uleb128 0x20
 2662 0e44 746D7000 		.ascii	"tmp\000"
 2663 0e48 01       		.byte	0x1
 2664 0e49 AF       		.byte	0xaf
 2665 0e4a 86000000 		.4byte	0x86
 2666 0e4e 8A040000 		.4byte	.LLST33
 2667 0e52 00       		.byte	0
 2668 0e53 22       		.uleb128 0x22
 2669 0e54 12000000 		.4byte	.LVL41
 2670 0e58 F2100000 		.4byte	0x10f2
 2671 0e5c 29       		.uleb128 0x29
 2672 0e5d 20000000 		.4byte	.LVL42
 2673 0e61 F6110000 		.4byte	0x11f6
 2674 0e65 730E0000 		.4byte	0xe73
 2675 0e69 25       		.uleb128 0x25
 2676 0e6a 01       		.byte	0x1
 2677 0e6b 50       		.byte	0x50
 2678 0e6c 05       		.byte	0x5
 2679 0e6d 03       		.byte	0x3
 2680 0e6e 0C000000 		.4byte	.LC1
 2681 0e72 00       		.byte	0
 2682 0e73 29       		.uleb128 0x29
 2683 0e74 28000000 		.4byte	.LVL43
 2684 0e78 10120000 		.4byte	0x1210
 2685 0e7c 8D0E0000 		.4byte	0xe8d
 2686 0e80 25       		.uleb128 0x25
 2687 0e81 01       		.byte	0x1
 2688 0e82 51       		.byte	0x51
 2689 0e83 02       		.byte	0x2
 2690 0e84 75       		.byte	0x75
 2691 0e85 00       		.sleb128 0
 2692 0e86 25       		.uleb128 0x25
 2693 0e87 01       		.byte	0x1
 2694 0e88 50       		.byte	0x50
 2695 0e89 02       		.byte	0x2
 2696 0e8a 74       		.byte	0x74
 2697 0e8b 00       		.sleb128 0
 2698 0e8c 00       		.byte	0
ARM GAS  /var/folders/dt/0wfd0knj7gs46m8vwfzktm600000gn/T//ccfLNI7n.s 			page 49


 2699 0e8d 22       		.uleb128 0x22
 2700 0e8e 30000000 		.4byte	.LVL44
 2701 0e92 FC100000 		.4byte	0x10fc
 2702 0e96 2A       		.uleb128 0x2a
 2703 0e97 3E000000 		.4byte	.LVL49
 2704 0e9b F6110000 		.4byte	0x11f6
 2705 0e9f 25       		.uleb128 0x25
 2706 0ea0 01       		.byte	0x1
 2707 0ea1 50       		.byte	0x50
 2708 0ea2 05       		.byte	0x5
 2709 0ea3 03       		.byte	0x3
 2710 0ea4 00000000 		.4byte	.LC0
 2711 0ea8 00       		.byte	0
 2712 0ea9 00       		.byte	0
 2713 0eaa 09       		.uleb128 0x9
 2714 0eab 04       		.byte	0x4
 2715 0eac B00E0000 		.4byte	0xeb0
 2716 0eb0 10       		.uleb128 0x10
 2717 0eb1 08090000 		.4byte	0x908
 2718 0eb5 28       		.uleb128 0x28
 2719 0eb6 01       		.byte	0x1
 2720 0eb7 B1000000 		.4byte	.LASF126
 2721 0ebb 01       		.byte	0x1
 2722 0ebc BB       		.byte	0xbb
 2723 0ebd 01       		.byte	0x1
 2724 0ebe 00000000 		.4byte	.LFB74
 2725 0ec2 58000000 		.4byte	.LFE74
 2726 0ec6 9D040000 		.4byte	.LLST34
 2727 0eca 01       		.byte	0x1
 2728 0ecb 9A0F0000 		.4byte	0xf9a
 2729 0ecf 1C       		.uleb128 0x1c
 2730 0ed0 73647000 		.ascii	"sdp\000"
 2731 0ed4 01       		.byte	0x1
 2732 0ed5 BB       		.byte	0xbb
 2733 0ed6 DB0D0000 		.4byte	0xddb
 2734 0eda BD040000 		.4byte	.LLST35
 2735 0ede 21       		.uleb128 0x21
 2736 0edf 06000000 		.4byte	.LBB7
 2737 0ee3 0C000000 		.4byte	.LBE7
 2738 0ee7 FB0E0000 		.4byte	0xefb
 2739 0eeb 20       		.uleb128 0x20
 2740 0eec 746D7000 		.ascii	"tmp\000"
 2741 0ef0 01       		.byte	0x1
 2742 0ef1 BF       		.byte	0xbf
 2743 0ef2 86000000 		.4byte	0x86
 2744 0ef6 F1040000 		.4byte	.LLST36
 2745 0efa 00       		.byte	0
 2746 0efb 21       		.uleb128 0x21
 2747 0efc 40000000 		.4byte	.LBB8
 2748 0f00 48000000 		.4byte	.LBE8
 2749 0f04 180F0000 		.4byte	0xf18
 2750 0f08 20       		.uleb128 0x20
 2751 0f09 746D7000 		.ascii	"tmp\000"
 2752 0f0d 01       		.byte	0x1
 2753 0f0e C8       		.byte	0xc8
 2754 0f0f 86000000 		.4byte	0x86
 2755 0f13 04050000 		.4byte	.LLST37
ARM GAS  /var/folders/dt/0wfd0knj7gs46m8vwfzktm600000gn/T//ccfLNI7n.s 			page 50


 2756 0f17 00       		.byte	0
 2757 0f18 22       		.uleb128 0x22
 2758 0f19 10000000 		.4byte	.LVL54
 2759 0f1d F2100000 		.4byte	0x10f2
 2760 0f21 29       		.uleb128 0x29
 2761 0f22 1E000000 		.4byte	.LVL55
 2762 0f26 F6110000 		.4byte	0x11f6
 2763 0f2a 380F0000 		.4byte	0xf38
 2764 0f2e 25       		.uleb128 0x25
 2765 0f2f 01       		.byte	0x1
 2766 0f30 50       		.byte	0x50
 2767 0f31 05       		.byte	0x5
 2768 0f32 03       		.byte	0x3
 2769 0f33 28000000 		.4byte	.LC3
 2770 0f37 00       		.byte	0
 2771 0f38 29       		.uleb128 0x29
 2772 0f39 24000000 		.4byte	.LVL56
 2773 0f3d 2A120000 		.4byte	0x122a
 2774 0f41 4C0F0000 		.4byte	0xf4c
 2775 0f45 25       		.uleb128 0x25
 2776 0f46 01       		.byte	0x1
 2777 0f47 50       		.byte	0x50
 2778 0f48 02       		.byte	0x2
 2779 0f49 74       		.byte	0x74
 2780 0f4a 00       		.sleb128 0
 2781 0f4b 00       		.byte	0
 2782 0f4c 29       		.uleb128 0x29
 2783 0f4d 30000000 		.4byte	.LVL57
 2784 0f51 3F120000 		.4byte	0x123f
 2785 0f55 600F0000 		.4byte	0xf60
 2786 0f59 25       		.uleb128 0x25
 2787 0f5a 01       		.byte	0x1
 2788 0f5b 50       		.byte	0x50
 2789 0f5c 02       		.byte	0x2
 2790 0f5d 74       		.byte	0x74
 2791 0f5e 30       		.sleb128 48
 2792 0f5f 00       		.byte	0
 2793 0f60 29       		.uleb128 0x29
 2794 0f61 38000000 		.4byte	.LVL58
 2795 0f65 54120000 		.4byte	0x1254
 2796 0f69 740F0000 		.4byte	0xf74
 2797 0f6d 25       		.uleb128 0x25
 2798 0f6e 01       		.byte	0x1
 2799 0f6f 50       		.byte	0x50
 2800 0f70 02       		.byte	0x2
 2801 0f71 74       		.byte	0x74
 2802 0f72 10       		.sleb128 16
 2803 0f73 00       		.byte	0
 2804 0f74 22       		.uleb128 0x22
 2805 0f75 3C000000 		.4byte	.LVL59
 2806 0f79 69120000 		.4byte	0x1269
 2807 0f7d 22       		.uleb128 0x22
 2808 0f7e 40000000 		.4byte	.LVL60
 2809 0f82 FC100000 		.4byte	0x10fc
 2810 0f86 2A       		.uleb128 0x2a
 2811 0f87 4E000000 		.4byte	.LVL65
 2812 0f8b F6110000 		.4byte	0x11f6
ARM GAS  /var/folders/dt/0wfd0knj7gs46m8vwfzktm600000gn/T//ccfLNI7n.s 			page 51


 2813 0f8f 25       		.uleb128 0x25
 2814 0f90 01       		.byte	0x1
 2815 0f91 50       		.byte	0x50
 2816 0f92 05       		.byte	0x5
 2817 0f93 03       		.byte	0x3
 2818 0f94 1C000000 		.4byte	.LC2
 2819 0f98 00       		.byte	0
 2820 0f99 00       		.byte	0
 2821 0f9a 28       		.uleb128 0x28
 2822 0f9b 01       		.byte	0x1
 2823 0f9c 93040000 		.4byte	.LASF127
 2824 0fa0 01       		.byte	0x1
 2825 0fa1 DB       		.byte	0xdb
 2826 0fa2 01       		.byte	0x1
 2827 0fa3 00000000 		.4byte	.LFB75
 2828 0fa7 60000000 		.4byte	.LFE75
 2829 0fab 17050000 		.4byte	.LLST38
 2830 0faf 01       		.byte	0x1
 2831 0fb0 4F100000 		.4byte	0x104f
 2832 0fb4 1C       		.uleb128 0x1c
 2833 0fb5 73647000 		.ascii	"sdp\000"
 2834 0fb9 01       		.byte	0x1
 2835 0fba DB       		.byte	0xdb
 2836 0fbb DB0D0000 		.4byte	0xddb
 2837 0fbf 37050000 		.4byte	.LLST39
 2838 0fc3 1C       		.uleb128 0x1c
 2839 0fc4 6200     		.ascii	"b\000"
 2840 0fc6 01       		.byte	0x1
 2841 0fc7 DB       		.byte	0xdb
 2842 0fc8 49000000 		.4byte	0x49
 2843 0fcc 55050000 		.4byte	.LLST40
 2844 0fd0 22       		.uleb128 0x22
 2845 0fd1 0A000000 		.4byte	.LVL67
 2846 0fd5 73120000 		.4byte	0x1273
 2847 0fd9 29       		.uleb128 0x29
 2848 0fda 1C000000 		.4byte	.LVL68
 2849 0fde 7D120000 		.4byte	0x127d
 2850 0fe2 F30F0000 		.4byte	0xff3
 2851 0fe6 25       		.uleb128 0x25
 2852 0fe7 01       		.byte	0x1
 2853 0fe8 51       		.byte	0x51
 2854 0fe9 02       		.byte	0x2
 2855 0fea 75       		.byte	0x75
 2856 0feb 00       		.sleb128 0
 2857 0fec 25       		.uleb128 0x25
 2858 0fed 01       		.byte	0x1
 2859 0fee 50       		.byte	0x50
 2860 0fef 02       		.byte	0x2
 2861 0ff0 74       		.byte	0x74
 2862 0ff1 10       		.sleb128 16
 2863 0ff2 00       		.byte	0
 2864 0ff3 29       		.uleb128 0x29
 2865 0ff4 30000000 		.4byte	.LVL69
 2866 0ff8 9B120000 		.4byte	0x129b
 2867 0ffc 07100000 		.4byte	0x1007
 2868 1000 25       		.uleb128 0x25
 2869 1001 01       		.byte	0x1
ARM GAS  /var/folders/dt/0wfd0knj7gs46m8vwfzktm600000gn/T//ccfLNI7n.s 			page 52


 2870 1002 50       		.byte	0x50
 2871 1003 02       		.byte	0x2
 2872 1004 74       		.byte	0x74
 2873 1005 04       		.sleb128 4
 2874 1006 00       		.byte	0
 2875 1007 29       		.uleb128 0x29
 2876 1008 3A000000 		.4byte	.LVL70
 2877 100c 7D120000 		.4byte	0x127d
 2878 1010 21100000 		.4byte	0x1021
 2879 1014 25       		.uleb128 0x25
 2880 1015 01       		.byte	0x1
 2881 1016 51       		.byte	0x51
 2882 1017 02       		.byte	0x2
 2883 1018 75       		.byte	0x75
 2884 1019 00       		.sleb128 0
 2885 101a 25       		.uleb128 0x25
 2886 101b 01       		.byte	0x1
 2887 101c 50       		.byte	0x50
 2888 101d 02       		.byte	0x2
 2889 101e 74       		.byte	0x74
 2890 101f 10       		.sleb128 16
 2891 1020 00       		.byte	0
 2892 1021 2B       		.uleb128 0x2b
 2893 1022 52000000 		.4byte	.LVL71
 2894 1026 01       		.byte	0x1
 2895 1027 9B120000 		.4byte	0x129b
 2896 102b 3B100000 		.4byte	0x103b
 2897 102f 25       		.uleb128 0x25
 2898 1030 01       		.byte	0x1
 2899 1031 51       		.byte	0x51
 2900 1032 01       		.byte	0x1
 2901 1033 30       		.byte	0x30
 2902 1034 25       		.uleb128 0x25
 2903 1035 01       		.byte	0x1
 2904 1036 50       		.byte	0x50
 2905 1037 02       		.byte	0x2
 2906 1038 74       		.byte	0x74
 2907 1039 04       		.sleb128 4
 2908 103a 00       		.byte	0
 2909 103b 2A       		.uleb128 0x2a
 2910 103c 58000000 		.4byte	.LVL72
 2911 1040 F6110000 		.4byte	0x11f6
 2912 1044 25       		.uleb128 0x25
 2913 1045 01       		.byte	0x1
 2914 1046 50       		.byte	0x50
 2915 1047 05       		.byte	0x5
 2916 1048 03       		.byte	0x3
 2917 1049 38000000 		.4byte	.LC4
 2918 104d 00       		.byte	0
 2919 104e 00       		.byte	0
 2920 104f 2C       		.uleb128 0x2c
 2921 1050 01       		.byte	0x1
 2922 1051 6C050000 		.4byte	.LASF150
 2923 1055 01       		.byte	0x1
 2924 1056 F5       		.byte	0xf5
 2925 1057 01       		.byte	0x1
 2926 1058 F3000000 		.4byte	0xf3
ARM GAS  /var/folders/dt/0wfd0knj7gs46m8vwfzktm600000gn/T//ccfLNI7n.s 			page 53


 2927 105c 00000000 		.4byte	.LFB76
 2928 1060 3C000000 		.4byte	.LFE76
 2929 1064 76050000 		.4byte	.LLST41
 2930 1068 01       		.byte	0x1
 2931 1069 D3100000 		.4byte	0x10d3
 2932 106d 1C       		.uleb128 0x1c
 2933 106e 73647000 		.ascii	"sdp\000"
 2934 1072 01       		.byte	0x1
 2935 1073 F5       		.byte	0xf5
 2936 1074 DB0D0000 		.4byte	0xddb
 2937 1078 96050000 		.4byte	.LLST42
 2938 107c 20       		.uleb128 0x20
 2939 107d 6200     		.ascii	"b\000"
 2940 107f 01       		.byte	0x1
 2941 1080 F6       		.byte	0xf6
 2942 1081 F3000000 		.4byte	0xf3
 2943 1085 B4050000 		.4byte	.LLST43
 2944 1089 22       		.uleb128 0x22
 2945 108a 08000000 		.4byte	.LVL74
 2946 108e 73120000 		.4byte	0x1273
 2947 1092 29       		.uleb128 0x29
 2948 1093 12000000 		.4byte	.LVL75
 2949 1097 BA120000 		.4byte	0x12ba
 2950 109b A6100000 		.4byte	0x10a6
 2951 109f 25       		.uleb128 0x25
 2952 10a0 01       		.byte	0x1
 2953 10a1 50       		.byte	0x50
 2954 10a2 02       		.byte	0x2
 2955 10a3 74       		.byte	0x74
 2956 10a4 30       		.sleb128 48
 2957 10a5 00       		.byte	0
 2958 10a6 29       		.uleb128 0x29
 2959 10a7 2A000000 		.4byte	.LVL76
 2960 10ab 9B120000 		.4byte	0x129b
 2961 10af BF100000 		.4byte	0x10bf
 2962 10b3 25       		.uleb128 0x25
 2963 10b4 01       		.byte	0x1
 2964 10b5 51       		.byte	0x51
 2965 10b6 01       		.byte	0x1
 2966 10b7 30       		.byte	0x30
 2967 10b8 25       		.uleb128 0x25
 2968 10b9 01       		.byte	0x1
 2969 10ba 50       		.byte	0x50
 2970 10bb 02       		.byte	0x2
 2971 10bc 74       		.byte	0x74
 2972 10bd 04       		.sleb128 4
 2973 10be 00       		.byte	0
 2974 10bf 2A       		.uleb128 0x2a
 2975 10c0 34000000 		.4byte	.LVL78
 2976 10c4 F6110000 		.4byte	0x11f6
 2977 10c8 25       		.uleb128 0x25
 2978 10c9 01       		.byte	0x1
 2979 10ca 50       		.byte	0x50
 2980 10cb 05       		.byte	0x5
 2981 10cc 03       		.byte	0x3
 2982 10cd 4C000000 		.4byte	.LC5
 2983 10d1 00       		.byte	0
ARM GAS  /var/folders/dt/0wfd0knj7gs46m8vwfzktm600000gn/T//ccfLNI7n.s 			page 54


 2984 10d2 00       		.byte	0
 2985 10d3 2D       		.uleb128 0x2d
 2986 10d4 766D7400 		.ascii	"vmt\000"
 2987 10d8 01       		.byte	0x1
 2988 10d9 6C       		.byte	0x6c
 2989 10da A4090000 		.4byte	0x9a4
 2990 10de 05       		.byte	0x5
 2991 10df 03       		.byte	0x3
 2992 10e0 00000000 		.4byte	vmt
 2993 10e4 2E       		.uleb128 0x2e
 2994 10e5 A4000000 		.4byte	.LASF151
 2995 10e9 11       		.byte	0x11
 2996 10ea 9404     		.2byte	0x494
 2997 10ec 22070000 		.4byte	0x722
 2998 10f0 01       		.byte	0x1
 2999 10f1 01       		.byte	0x1
 3000 10f2 2F       		.uleb128 0x2f
 3001 10f3 01       		.byte	0x1
 3002 10f4 38030000 		.4byte	.LASF128
 3003 10f8 0F       		.byte	0xf
 3004 10f9 E2       		.byte	0xe2
 3005 10fa 01       		.byte	0x1
 3006 10fb 01       		.byte	0x1
 3007 10fc 2F       		.uleb128 0x2f
 3008 10fd 01       		.byte	0x1
 3009 10fe 47030000 		.4byte	.LASF129
 3010 1102 0F       		.byte	0xf
 3011 1103 E3       		.byte	0xe3
 3012 1104 01       		.byte	0x1
 3013 1105 01       		.byte	0x1
 3014 1106 30       		.uleb128 0x30
 3015 1107 01       		.byte	0x1
 3016 1108 47000000 		.4byte	.LASF130
 3017 110c 0A       		.byte	0xa
 3018 110d 5401     		.2byte	0x154
 3019 110f 01       		.byte	0x1
 3020 1110 30000000 		.4byte	0x30
 3021 1114 01       		.byte	0x1
 3022 1115 2E110000 		.4byte	0x112e
 3023 1119 12       		.uleb128 0x12
 3024 111a 2E110000 		.4byte	0x112e
 3025 111e 12       		.uleb128 0x12
 3026 111f 16050000 		.4byte	0x516
 3027 1123 12       		.uleb128 0x12
 3028 1124 30000000 		.4byte	0x30
 3029 1128 12       		.uleb128 0x12
 3030 1129 09010000 		.4byte	0x109
 3031 112d 00       		.byte	0
 3032 112e 09       		.uleb128 0x9
 3033 112f 04       		.byte	0x4
 3034 1130 1C050000 		.4byte	0x51c
 3035 1134 30       		.uleb128 0x30
 3036 1135 01       		.byte	0x1
 3037 1136 A8020000 		.4byte	.LASF131
 3038 113a 0A       		.byte	0xa
 3039 113b 5B01     		.2byte	0x15b
 3040 113d 01       		.byte	0x1
ARM GAS  /var/folders/dt/0wfd0knj7gs46m8vwfzktm600000gn/T//ccfLNI7n.s 			page 55


 3041 113e 30000000 		.4byte	0x30
 3042 1142 01       		.byte	0x1
 3043 1143 5C110000 		.4byte	0x115c
 3044 1147 12       		.uleb128 0x12
 3045 1148 5C110000 		.4byte	0x115c
 3046 114c 12       		.uleb128 0x12
 3047 114d 4C050000 		.4byte	0x54c
 3048 1151 12       		.uleb128 0x12
 3049 1152 30000000 		.4byte	0x30
 3050 1156 12       		.uleb128 0x12
 3051 1157 09010000 		.4byte	0x109
 3052 115b 00       		.byte	0
 3053 115c 09       		.uleb128 0x9
 3054 115d 04       		.byte	0x4
 3055 115e 27050000 		.4byte	0x527
 3056 1162 30       		.uleb128 0x30
 3057 1163 01       		.byte	0x1
 3058 1164 14060000 		.4byte	.LASF132
 3059 1168 0A       		.byte	0xa
 3060 1169 5301     		.2byte	0x153
 3061 116b 01       		.byte	0x1
 3062 116c F3000000 		.4byte	0xf3
 3063 1170 01       		.byte	0x1
 3064 1171 80110000 		.4byte	0x1180
 3065 1175 12       		.uleb128 0x12
 3066 1176 2E110000 		.4byte	0x112e
 3067 117a 12       		.uleb128 0x12
 3068 117b 09010000 		.4byte	0x109
 3069 117f 00       		.byte	0
 3070 1180 30       		.uleb128 0x30
 3071 1181 01       		.byte	0x1
 3072 1182 00000000 		.4byte	.LASF133
 3073 1186 0A       		.byte	0xa
 3074 1187 5901     		.2byte	0x159
 3075 1189 01       		.byte	0x1
 3076 118a F3000000 		.4byte	0xf3
 3077 118e 01       		.byte	0x1
 3078 118f A3110000 		.4byte	0x11a3
 3079 1193 12       		.uleb128 0x12
 3080 1194 5C110000 		.4byte	0x115c
 3081 1198 12       		.uleb128 0x12
 3082 1199 49000000 		.4byte	0x49
 3083 119d 12       		.uleb128 0x12
 3084 119e 09010000 		.4byte	0x109
 3085 11a2 00       		.byte	0
 3086 11a3 31       		.uleb128 0x31
 3087 11a4 01       		.byte	0x1
 3088 11a5 0B020000 		.4byte	.LASF134
 3089 11a9 0E       		.byte	0xe
 3090 11aa 1001     		.2byte	0x110
 3091 11ac 01       		.byte	0x1
 3092 11ad 01       		.byte	0x1
 3093 11ae 32       		.uleb128 0x32
 3094 11af 01       		.byte	0x1
 3095 11b0 F3050000 		.4byte	.LASF135
 3096 11b4 0A       		.byte	0xa
 3097 11b5 5001     		.2byte	0x150
ARM GAS  /var/folders/dt/0wfd0knj7gs46m8vwfzktm600000gn/T//ccfLNI7n.s 			page 56


 3098 11b7 01       		.byte	0x1
 3099 11b8 01       		.byte	0x1
 3100 11b9 D2110000 		.4byte	0x11d2
 3101 11bd 12       		.uleb128 0x12
 3102 11be 2E110000 		.4byte	0x112e
 3103 11c2 12       		.uleb128 0x12
 3104 11c3 16050000 		.4byte	0x516
 3105 11c7 12       		.uleb128 0x12
 3106 11c8 30000000 		.4byte	0x30
 3107 11cc 12       		.uleb128 0x12
 3108 11cd F3040000 		.4byte	0x4f3
 3109 11d1 00       		.byte	0
 3110 11d2 32       		.uleb128 0x32
 3111 11d3 01       		.byte	0x1
 3112 11d4 87000000 		.4byte	.LASF136
 3113 11d8 0A       		.byte	0xa
 3114 11d9 5701     		.2byte	0x157
 3115 11db 01       		.byte	0x1
 3116 11dc 01       		.byte	0x1
 3117 11dd F6110000 		.4byte	0x11f6
 3118 11e1 12       		.uleb128 0x12
 3119 11e2 5C110000 		.4byte	0x115c
 3120 11e6 12       		.uleb128 0x12
 3121 11e7 16050000 		.4byte	0x516
 3122 11eb 12       		.uleb128 0x12
 3123 11ec 30000000 		.4byte	0x30
 3124 11f0 12       		.uleb128 0x12
 3125 11f1 F3040000 		.4byte	0x4f3
 3126 11f5 00       		.byte	0
 3127 11f6 33       		.uleb128 0x33
 3128 11f7 01       		.byte	0x1
 3129 11f8 99000000 		.4byte	.LASF137
 3130 11fc 0F       		.byte	0xf
 3131 11fd F0       		.byte	0xf0
 3132 11fe 01       		.byte	0x1
 3133 11ff 01       		.byte	0x1
 3134 1200 0A120000 		.4byte	0x120a
 3135 1204 12       		.uleb128 0x12
 3136 1205 0A120000 		.4byte	0x120a
 3137 1209 00       		.byte	0
 3138 120a 09       		.uleb128 0x9
 3139 120b 04       		.byte	0x4
 3140 120c 66040000 		.4byte	0x466
 3141 1210 32       		.uleb128 0x32
 3142 1211 01       		.byte	0x1
 3143 1212 D6030000 		.4byte	.LASF138
 3144 1216 0E       		.byte	0xe
 3145 1217 1101     		.2byte	0x111
 3146 1219 01       		.byte	0x1
 3147 121a 01       		.byte	0x1
 3148 121b 2A120000 		.4byte	0x122a
 3149 121f 12       		.uleb128 0x12
 3150 1220 DB0D0000 		.4byte	0xddb
 3151 1224 12       		.uleb128 0x12
 3152 1225 AA0E0000 		.4byte	0xeaa
 3153 1229 00       		.byte	0
 3154 122a 32       		.uleb128 0x32
ARM GAS  /var/folders/dt/0wfd0knj7gs46m8vwfzktm600000gn/T//ccfLNI7n.s 			page 57


 3155 122b 01       		.byte	0x1
 3156 122c BD050000 		.4byte	.LASF139
 3157 1230 0E       		.byte	0xe
 3158 1231 1201     		.2byte	0x112
 3159 1233 01       		.byte	0x1
 3160 1234 01       		.byte	0x1
 3161 1235 3F120000 		.4byte	0x123f
 3162 1239 12       		.uleb128 0x12
 3163 123a DB0D0000 		.4byte	0xddb
 3164 123e 00       		.byte	0
 3165 123f 32       		.uleb128 0x32
 3166 1240 01       		.byte	0x1
 3167 1241 AB050000 		.4byte	.LASF140
 3168 1245 0A       		.byte	0xa
 3169 1246 5801     		.2byte	0x158
 3170 1248 01       		.byte	0x1
 3171 1249 01       		.byte	0x1
 3172 124a 54120000 		.4byte	0x1254
 3173 124e 12       		.uleb128 0x12
 3174 124f 5C110000 		.4byte	0x115c
 3175 1253 00       		.byte	0
 3176 1254 32       		.uleb128 0x32
 3177 1255 01       		.byte	0x1
 3178 1256 7C000000 		.4byte	.LASF141
 3179 125a 0A       		.byte	0xa
 3180 125b 5101     		.2byte	0x151
 3181 125d 01       		.byte	0x1
 3182 125e 01       		.byte	0x1
 3183 125f 69120000 		.4byte	0x1269
 3184 1263 12       		.uleb128 0x12
 3185 1264 2E110000 		.4byte	0x112e
 3186 1268 00       		.byte	0
 3187 1269 2F       		.uleb128 0x2f
 3188 126a 01       		.byte	0x1
 3189 126b 75010000 		.4byte	.LASF142
 3190 126f 10       		.byte	0x10
 3191 1270 9F       		.byte	0x9f
 3192 1271 01       		.byte	0x1
 3193 1272 01       		.byte	0x1
 3194 1273 2F       		.uleb128 0x2f
 3195 1274 01       		.byte	0x1
 3196 1275 42020000 		.4byte	.LASF143
 3197 1279 0F       		.byte	0xf
 3198 127a E8       		.byte	0xe8
 3199 127b 01       		.byte	0x1
 3200 127c 01       		.byte	0x1
 3201 127d 30       		.uleb128 0x30
 3202 127e 01       		.byte	0x1
 3203 127f 94010000 		.4byte	.LASF144
 3204 1283 0A       		.byte	0xa
 3205 1284 5201     		.2byte	0x152
 3206 1286 01       		.byte	0x1
 3207 1287 F3000000 		.4byte	0xf3
 3208 128b 01       		.byte	0x1
 3209 128c 9B120000 		.4byte	0x129b
 3210 1290 12       		.uleb128 0x12
 3211 1291 2E110000 		.4byte	0x112e
ARM GAS  /var/folders/dt/0wfd0knj7gs46m8vwfzktm600000gn/T//ccfLNI7n.s 			page 58


 3212 1295 12       		.uleb128 0x12
 3213 1296 49000000 		.4byte	0x49
 3214 129a 00       		.byte	0
 3215 129b 33       		.uleb128 0x33
 3216 129c 01       		.byte	0x1
 3217 129d 4A010000 		.4byte	.LASF145
 3218 12a1 09       		.byte	0x9
 3219 12a2 B3       		.byte	0xb3
 3220 12a3 01       		.byte	0x1
 3221 12a4 01       		.byte	0x1
 3222 12a5 B4120000 		.4byte	0x12b4
 3223 12a9 12       		.uleb128 0x12
 3224 12aa B4120000 		.4byte	0x12b4
 3225 12ae 12       		.uleb128 0x12
 3226 12af FE000000 		.4byte	0xfe
 3227 12b3 00       		.byte	0
 3228 12b4 09       		.uleb128 0x9
 3229 12b5 04       		.byte	0x4
 3230 12b6 1B040000 		.4byte	0x41b
 3231 12ba 34       		.uleb128 0x34
 3232 12bb 01       		.byte	0x1
 3233 12bc 29010000 		.4byte	.LASF146
 3234 12c0 0A       		.byte	0xa
 3235 12c1 5A01     		.2byte	0x15a
 3236 12c3 01       		.byte	0x1
 3237 12c4 F3000000 		.4byte	0xf3
 3238 12c8 01       		.byte	0x1
 3239 12c9 12       		.uleb128 0x12
 3240 12ca 5C110000 		.4byte	0x115c
 3241 12ce 00       		.byte	0
 3242 12cf 00       		.byte	0
 3243              		.section	.debug_abbrev,"",%progbits
 3244              	.Ldebug_abbrev0:
 3245 0000 01       		.uleb128 0x1
 3246 0001 11       		.uleb128 0x11
 3247 0002 01       		.byte	0x1
 3248 0003 25       		.uleb128 0x25
 3249 0004 0E       		.uleb128 0xe
 3250 0005 13       		.uleb128 0x13
 3251 0006 0B       		.uleb128 0xb
 3252 0007 03       		.uleb128 0x3
 3253 0008 0E       		.uleb128 0xe
 3254 0009 1B       		.uleb128 0x1b
 3255 000a 0E       		.uleb128 0xe
 3256 000b 55       		.uleb128 0x55
 3257 000c 06       		.uleb128 0x6
 3258 000d 11       		.uleb128 0x11
 3259 000e 01       		.uleb128 0x1
 3260 000f 52       		.uleb128 0x52
 3261 0010 01       		.uleb128 0x1
 3262 0011 10       		.uleb128 0x10
 3263 0012 06       		.uleb128 0x6
 3264 0013 00       		.byte	0
 3265 0014 00       		.byte	0
 3266 0015 02       		.uleb128 0x2
 3267 0016 24       		.uleb128 0x24
 3268 0017 00       		.byte	0
ARM GAS  /var/folders/dt/0wfd0knj7gs46m8vwfzktm600000gn/T//ccfLNI7n.s 			page 59


 3269 0018 0B       		.uleb128 0xb
 3270 0019 0B       		.uleb128 0xb
 3271 001a 3E       		.uleb128 0x3e
 3272 001b 0B       		.uleb128 0xb
 3273 001c 03       		.uleb128 0x3
 3274 001d 08       		.uleb128 0x8
 3275 001e 00       		.byte	0
 3276 001f 00       		.byte	0
 3277 0020 03       		.uleb128 0x3
 3278 0021 16       		.uleb128 0x16
 3279 0022 00       		.byte	0
 3280 0023 03       		.uleb128 0x3
 3281 0024 0E       		.uleb128 0xe
 3282 0025 3A       		.uleb128 0x3a
 3283 0026 0B       		.uleb128 0xb
 3284 0027 3B       		.uleb128 0x3b
 3285 0028 0B       		.uleb128 0xb
 3286 0029 49       		.uleb128 0x49
 3287 002a 13       		.uleb128 0x13
 3288 002b 00       		.byte	0
 3289 002c 00       		.byte	0
 3290 002d 04       		.uleb128 0x4
 3291 002e 24       		.uleb128 0x24
 3292 002f 00       		.byte	0
 3293 0030 0B       		.uleb128 0xb
 3294 0031 0B       		.uleb128 0xb
 3295 0032 3E       		.uleb128 0x3e
 3296 0033 0B       		.uleb128 0xb
 3297 0034 03       		.uleb128 0x3
 3298 0035 0E       		.uleb128 0xe
 3299 0036 00       		.byte	0
 3300 0037 00       		.byte	0
 3301 0038 05       		.uleb128 0x5
 3302 0039 13       		.uleb128 0x13
 3303 003a 01       		.byte	0x1
 3304 003b 03       		.uleb128 0x3
 3305 003c 0E       		.uleb128 0xe
 3306 003d 0B       		.uleb128 0xb
 3307 003e 0B       		.uleb128 0xb
 3308 003f 3A       		.uleb128 0x3a
 3309 0040 0B       		.uleb128 0xb
 3310 0041 3B       		.uleb128 0x3b
 3311 0042 0B       		.uleb128 0xb
 3312 0043 01       		.uleb128 0x1
 3313 0044 13       		.uleb128 0x13
 3314 0045 00       		.byte	0
 3315 0046 00       		.byte	0
 3316 0047 06       		.uleb128 0x6
 3317 0048 0D       		.uleb128 0xd
 3318 0049 00       		.byte	0
 3319 004a 03       		.uleb128 0x3
 3320 004b 0E       		.uleb128 0xe
 3321 004c 3A       		.uleb128 0x3a
 3322 004d 0B       		.uleb128 0xb
 3323 004e 3B       		.uleb128 0x3b
 3324 004f 0B       		.uleb128 0xb
 3325 0050 49       		.uleb128 0x49
ARM GAS  /var/folders/dt/0wfd0knj7gs46m8vwfzktm600000gn/T//ccfLNI7n.s 			page 60


 3326 0051 13       		.uleb128 0x13
 3327 0052 38       		.uleb128 0x38
 3328 0053 0A       		.uleb128 0xa
 3329 0054 00       		.byte	0
 3330 0055 00       		.byte	0
 3331 0056 07       		.uleb128 0x7
 3332 0057 0D       		.uleb128 0xd
 3333 0058 00       		.byte	0
 3334 0059 03       		.uleb128 0x3
 3335 005a 08       		.uleb128 0x8
 3336 005b 3A       		.uleb128 0x3a
 3337 005c 0B       		.uleb128 0xb
 3338 005d 3B       		.uleb128 0x3b
 3339 005e 0B       		.uleb128 0xb
 3340 005f 49       		.uleb128 0x49
 3341 0060 13       		.uleb128 0x13
 3342 0061 38       		.uleb128 0x38
 3343 0062 0A       		.uleb128 0xa
 3344 0063 00       		.byte	0
 3345 0064 00       		.byte	0
 3346 0065 08       		.uleb128 0x8
 3347 0066 13       		.uleb128 0x13
 3348 0067 01       		.byte	0x1
 3349 0068 0B       		.uleb128 0xb
 3350 0069 0B       		.uleb128 0xb
 3351 006a 3A       		.uleb128 0x3a
 3352 006b 0B       		.uleb128 0xb
 3353 006c 3B       		.uleb128 0x3b
 3354 006d 0B       		.uleb128 0xb
 3355 006e 01       		.uleb128 0x1
 3356 006f 13       		.uleb128 0x13
 3357 0070 00       		.byte	0
 3358 0071 00       		.byte	0
 3359 0072 09       		.uleb128 0x9
 3360 0073 0F       		.uleb128 0xf
 3361 0074 00       		.byte	0
 3362 0075 0B       		.uleb128 0xb
 3363 0076 0B       		.uleb128 0xb
 3364 0077 49       		.uleb128 0x49
 3365 0078 13       		.uleb128 0x13
 3366 0079 00       		.byte	0
 3367 007a 00       		.byte	0
 3368 007b 0A       		.uleb128 0xa
 3369 007c 0F       		.uleb128 0xf
 3370 007d 00       		.byte	0
 3371 007e 0B       		.uleb128 0xb
 3372 007f 0B       		.uleb128 0xb
 3373 0080 00       		.byte	0
 3374 0081 00       		.byte	0
 3375 0082 0B       		.uleb128 0xb
 3376 0083 0D       		.uleb128 0xd
 3377 0084 00       		.byte	0
 3378 0085 03       		.uleb128 0x3
 3379 0086 08       		.uleb128 0x8
 3380 0087 3A       		.uleb128 0x3a
 3381 0088 0B       		.uleb128 0xb
 3382 0089 3B       		.uleb128 0x3b
ARM GAS  /var/folders/dt/0wfd0knj7gs46m8vwfzktm600000gn/T//ccfLNI7n.s 			page 61


 3383 008a 05       		.uleb128 0x5
 3384 008b 49       		.uleb128 0x49
 3385 008c 13       		.uleb128 0x13
 3386 008d 38       		.uleb128 0x38
 3387 008e 0A       		.uleb128 0xa
 3388 008f 00       		.byte	0
 3389 0090 00       		.byte	0
 3390 0091 0C       		.uleb128 0xc
 3391 0092 13       		.uleb128 0x13
 3392 0093 01       		.byte	0x1
 3393 0094 03       		.uleb128 0x3
 3394 0095 0E       		.uleb128 0xe
 3395 0096 0B       		.uleb128 0xb
 3396 0097 0B       		.uleb128 0xb
 3397 0098 3A       		.uleb128 0x3a
 3398 0099 0B       		.uleb128 0xb
 3399 009a 3B       		.uleb128 0x3b
 3400 009b 05       		.uleb128 0x5
 3401 009c 01       		.uleb128 0x1
 3402 009d 13       		.uleb128 0x13
 3403 009e 00       		.byte	0
 3404 009f 00       		.byte	0
 3405 00a0 0D       		.uleb128 0xd
 3406 00a1 35       		.uleb128 0x35
 3407 00a2 00       		.byte	0
 3408 00a3 49       		.uleb128 0x49
 3409 00a4 13       		.uleb128 0x13
 3410 00a5 00       		.byte	0
 3411 00a6 00       		.byte	0
 3412 00a7 0E       		.uleb128 0xe
 3413 00a8 17       		.uleb128 0x17
 3414 00a9 01       		.byte	0x1
 3415 00aa 0B       		.uleb128 0xb
 3416 00ab 0B       		.uleb128 0xb
 3417 00ac 3A       		.uleb128 0x3a
 3418 00ad 0B       		.uleb128 0xb
 3419 00ae 3B       		.uleb128 0x3b
 3420 00af 0B       		.uleb128 0xb
 3421 00b0 01       		.uleb128 0x1
 3422 00b1 13       		.uleb128 0x13
 3423 00b2 00       		.byte	0
 3424 00b3 00       		.byte	0
 3425 00b4 0F       		.uleb128 0xf
 3426 00b5 0D       		.uleb128 0xd
 3427 00b6 00       		.byte	0
 3428 00b7 03       		.uleb128 0x3
 3429 00b8 0E       		.uleb128 0xe
 3430 00b9 3A       		.uleb128 0x3a
 3431 00ba 0B       		.uleb128 0xb
 3432 00bb 3B       		.uleb128 0x3b
 3433 00bc 0B       		.uleb128 0xb
 3434 00bd 49       		.uleb128 0x49
 3435 00be 13       		.uleb128 0x13
 3436 00bf 00       		.byte	0
 3437 00c0 00       		.byte	0
 3438 00c1 10       		.uleb128 0x10
 3439 00c2 26       		.uleb128 0x26
ARM GAS  /var/folders/dt/0wfd0knj7gs46m8vwfzktm600000gn/T//ccfLNI7n.s 			page 62


 3440 00c3 00       		.byte	0
 3441 00c4 49       		.uleb128 0x49
 3442 00c5 13       		.uleb128 0x13
 3443 00c6 00       		.byte	0
 3444 00c7 00       		.byte	0
 3445 00c8 11       		.uleb128 0x11
 3446 00c9 15       		.uleb128 0x15
 3447 00ca 01       		.byte	0x1
 3448 00cb 27       		.uleb128 0x27
 3449 00cc 0C       		.uleb128 0xc
 3450 00cd 01       		.uleb128 0x1
 3451 00ce 13       		.uleb128 0x13
 3452 00cf 00       		.byte	0
 3453 00d0 00       		.byte	0
 3454 00d1 12       		.uleb128 0x12
 3455 00d2 05       		.uleb128 0x5
 3456 00d3 00       		.byte	0
 3457 00d4 49       		.uleb128 0x49
 3458 00d5 13       		.uleb128 0x13
 3459 00d6 00       		.byte	0
 3460 00d7 00       		.byte	0
 3461 00d8 13       		.uleb128 0x13
 3462 00d9 15       		.uleb128 0x15
 3463 00da 01       		.byte	0x1
 3464 00db 27       		.uleb128 0x27
 3465 00dc 0C       		.uleb128 0xc
 3466 00dd 49       		.uleb128 0x49
 3467 00de 13       		.uleb128 0x13
 3468 00df 01       		.uleb128 0x1
 3469 00e0 13       		.uleb128 0x13
 3470 00e1 00       		.byte	0
 3471 00e2 00       		.byte	0
 3472 00e3 14       		.uleb128 0x14
 3473 00e4 16       		.uleb128 0x16
 3474 00e5 00       		.byte	0
 3475 00e6 03       		.uleb128 0x3
 3476 00e7 0E       		.uleb128 0xe
 3477 00e8 3A       		.uleb128 0x3a
 3478 00e9 0B       		.uleb128 0xb
 3479 00ea 3B       		.uleb128 0x3b
 3480 00eb 05       		.uleb128 0x5
 3481 00ec 49       		.uleb128 0x49
 3482 00ed 13       		.uleb128 0x13
 3483 00ee 00       		.byte	0
 3484 00ef 00       		.byte	0
 3485 00f0 15       		.uleb128 0x15
 3486 00f1 0D       		.uleb128 0xd
 3487 00f2 00       		.byte	0
 3488 00f3 03       		.uleb128 0x3
 3489 00f4 0E       		.uleb128 0xe
 3490 00f5 3A       		.uleb128 0x3a
 3491 00f6 0B       		.uleb128 0xb
 3492 00f7 3B       		.uleb128 0x3b
 3493 00f8 05       		.uleb128 0x5
 3494 00f9 49       		.uleb128 0x49
 3495 00fa 13       		.uleb128 0x13
 3496 00fb 38       		.uleb128 0x38
ARM GAS  /var/folders/dt/0wfd0knj7gs46m8vwfzktm600000gn/T//ccfLNI7n.s 			page 63


 3497 00fc 0A       		.uleb128 0xa
 3498 00fd 00       		.byte	0
 3499 00fe 00       		.byte	0
 3500 00ff 16       		.uleb128 0x16
 3501 0100 13       		.uleb128 0x13
 3502 0101 01       		.byte	0x1
 3503 0102 0B       		.uleb128 0xb
 3504 0103 0B       		.uleb128 0xb
 3505 0104 3A       		.uleb128 0x3a
 3506 0105 0B       		.uleb128 0xb
 3507 0106 3B       		.uleb128 0x3b
 3508 0107 05       		.uleb128 0x5
 3509 0108 01       		.uleb128 0x1
 3510 0109 13       		.uleb128 0x13
 3511 010a 00       		.byte	0
 3512 010b 00       		.byte	0
 3513 010c 17       		.uleb128 0x17
 3514 010d 04       		.uleb128 0x4
 3515 010e 01       		.byte	0x1
 3516 010f 0B       		.uleb128 0xb
 3517 0110 0B       		.uleb128 0xb
 3518 0111 3A       		.uleb128 0x3a
 3519 0112 0B       		.uleb128 0xb
 3520 0113 3B       		.uleb128 0x3b
 3521 0114 0B       		.uleb128 0xb
 3522 0115 01       		.uleb128 0x1
 3523 0116 13       		.uleb128 0x13
 3524 0117 00       		.byte	0
 3525 0118 00       		.byte	0
 3526 0119 18       		.uleb128 0x18
 3527 011a 28       		.uleb128 0x28
 3528 011b 00       		.byte	0
 3529 011c 03       		.uleb128 0x3
 3530 011d 0E       		.uleb128 0xe
 3531 011e 1C       		.uleb128 0x1c
 3532 011f 0D       		.uleb128 0xd
 3533 0120 00       		.byte	0
 3534 0121 00       		.byte	0
 3535 0122 19       		.uleb128 0x19
 3536 0123 01       		.uleb128 0x1
 3537 0124 01       		.byte	0x1
 3538 0125 49       		.uleb128 0x49
 3539 0126 13       		.uleb128 0x13
 3540 0127 01       		.uleb128 0x1
 3541 0128 13       		.uleb128 0x13
 3542 0129 00       		.byte	0
 3543 012a 00       		.byte	0
 3544 012b 1A       		.uleb128 0x1a
 3545 012c 21       		.uleb128 0x21
 3546 012d 00       		.byte	0
 3547 012e 49       		.uleb128 0x49
 3548 012f 13       		.uleb128 0x13
 3549 0130 2F       		.uleb128 0x2f
 3550 0131 0B       		.uleb128 0xb
 3551 0132 00       		.byte	0
 3552 0133 00       		.byte	0
 3553 0134 1B       		.uleb128 0x1b
ARM GAS  /var/folders/dt/0wfd0knj7gs46m8vwfzktm600000gn/T//ccfLNI7n.s 			page 64


 3554 0135 2E       		.uleb128 0x2e
 3555 0136 01       		.byte	0x1
 3556 0137 03       		.uleb128 0x3
 3557 0138 0E       		.uleb128 0xe
 3558 0139 3A       		.uleb128 0x3a
 3559 013a 0B       		.uleb128 0xb
 3560 013b 3B       		.uleb128 0x3b
 3561 013c 0B       		.uleb128 0xb
 3562 013d 27       		.uleb128 0x27
 3563 013e 0C       		.uleb128 0xc
 3564 013f 49       		.uleb128 0x49
 3565 0140 13       		.uleb128 0x13
 3566 0141 11       		.uleb128 0x11
 3567 0142 01       		.uleb128 0x1
 3568 0143 12       		.uleb128 0x12
 3569 0144 01       		.uleb128 0x1
 3570 0145 40       		.uleb128 0x40
 3571 0146 0A       		.uleb128 0xa
 3572 0147 9742     		.uleb128 0x2117
 3573 0149 0C       		.uleb128 0xc
 3574 014a 01       		.uleb128 0x1
 3575 014b 13       		.uleb128 0x13
 3576 014c 00       		.byte	0
 3577 014d 00       		.byte	0
 3578 014e 1C       		.uleb128 0x1c
 3579 014f 05       		.uleb128 0x5
 3580 0150 00       		.byte	0
 3581 0151 03       		.uleb128 0x3
 3582 0152 08       		.uleb128 0x8
 3583 0153 3A       		.uleb128 0x3a
 3584 0154 0B       		.uleb128 0xb
 3585 0155 3B       		.uleb128 0x3b
 3586 0156 0B       		.uleb128 0xb
 3587 0157 49       		.uleb128 0x49
 3588 0158 13       		.uleb128 0x13
 3589 0159 02       		.uleb128 0x2
 3590 015a 06       		.uleb128 0x6
 3591 015b 00       		.byte	0
 3592 015c 00       		.byte	0
 3593 015d 1D       		.uleb128 0x1d
 3594 015e 2E       		.uleb128 0x2e
 3595 015f 01       		.byte	0x1
 3596 0160 03       		.uleb128 0x3
 3597 0161 0E       		.uleb128 0xe
 3598 0162 3A       		.uleb128 0x3a
 3599 0163 0B       		.uleb128 0xb
 3600 0164 3B       		.uleb128 0x3b
 3601 0165 0B       		.uleb128 0xb
 3602 0166 27       		.uleb128 0x27
 3603 0167 0C       		.uleb128 0xc
 3604 0168 49       		.uleb128 0x49
 3605 0169 13       		.uleb128 0x13
 3606 016a 11       		.uleb128 0x11
 3607 016b 01       		.uleb128 0x1
 3608 016c 12       		.uleb128 0x12
 3609 016d 01       		.uleb128 0x1
 3610 016e 40       		.uleb128 0x40
ARM GAS  /var/folders/dt/0wfd0knj7gs46m8vwfzktm600000gn/T//ccfLNI7n.s 			page 65


 3611 016f 06       		.uleb128 0x6
 3612 0170 9742     		.uleb128 0x2117
 3613 0172 0C       		.uleb128 0xc
 3614 0173 01       		.uleb128 0x1
 3615 0174 13       		.uleb128 0x13
 3616 0175 00       		.byte	0
 3617 0176 00       		.byte	0
 3618 0177 1E       		.uleb128 0x1e
 3619 0178 34       		.uleb128 0x34
 3620 0179 00       		.byte	0
 3621 017a 03       		.uleb128 0x3
 3622 017b 0E       		.uleb128 0xe
 3623 017c 3A       		.uleb128 0x3a
 3624 017d 0B       		.uleb128 0xb
 3625 017e 3B       		.uleb128 0x3b
 3626 017f 0B       		.uleb128 0xb
 3627 0180 49       		.uleb128 0x49
 3628 0181 13       		.uleb128 0x13
 3629 0182 02       		.uleb128 0x2
 3630 0183 0A       		.uleb128 0xa
 3631 0184 00       		.byte	0
 3632 0185 00       		.byte	0
 3633 0186 1F       		.uleb128 0x1f
 3634 0187 0B       		.uleb128 0xb
 3635 0188 01       		.byte	0x1
 3636 0189 55       		.uleb128 0x55
 3637 018a 06       		.uleb128 0x6
 3638 018b 01       		.uleb128 0x1
 3639 018c 13       		.uleb128 0x13
 3640 018d 00       		.byte	0
 3641 018e 00       		.byte	0
 3642 018f 20       		.uleb128 0x20
 3643 0190 34       		.uleb128 0x34
 3644 0191 00       		.byte	0
 3645 0192 03       		.uleb128 0x3
 3646 0193 08       		.uleb128 0x8
 3647 0194 3A       		.uleb128 0x3a
 3648 0195 0B       		.uleb128 0xb
 3649 0196 3B       		.uleb128 0x3b
 3650 0197 0B       		.uleb128 0xb
 3651 0198 49       		.uleb128 0x49
 3652 0199 13       		.uleb128 0x13
 3653 019a 02       		.uleb128 0x2
 3654 019b 06       		.uleb128 0x6
 3655 019c 00       		.byte	0
 3656 019d 00       		.byte	0
 3657 019e 21       		.uleb128 0x21
 3658 019f 0B       		.uleb128 0xb
 3659 01a0 01       		.byte	0x1
 3660 01a1 11       		.uleb128 0x11
 3661 01a2 01       		.uleb128 0x1
 3662 01a3 12       		.uleb128 0x12
 3663 01a4 01       		.uleb128 0x1
 3664 01a5 01       		.uleb128 0x1
 3665 01a6 13       		.uleb128 0x13
 3666 01a7 00       		.byte	0
 3667 01a8 00       		.byte	0
ARM GAS  /var/folders/dt/0wfd0knj7gs46m8vwfzktm600000gn/T//ccfLNI7n.s 			page 66


 3668 01a9 22       		.uleb128 0x22
 3669 01aa 898201   		.uleb128 0x4109
 3670 01ad 00       		.byte	0
 3671 01ae 11       		.uleb128 0x11
 3672 01af 01       		.uleb128 0x1
 3673 01b0 31       		.uleb128 0x31
 3674 01b1 13       		.uleb128 0x13
 3675 01b2 00       		.byte	0
 3676 01b3 00       		.byte	0
 3677 01b4 23       		.uleb128 0x23
 3678 01b5 05       		.uleb128 0x5
 3679 01b6 00       		.byte	0
 3680 01b7 03       		.uleb128 0x3
 3681 01b8 0E       		.uleb128 0xe
 3682 01b9 3A       		.uleb128 0x3a
 3683 01ba 0B       		.uleb128 0xb
 3684 01bb 3B       		.uleb128 0x3b
 3685 01bc 0B       		.uleb128 0xb
 3686 01bd 49       		.uleb128 0x49
 3687 01be 13       		.uleb128 0x13
 3688 01bf 02       		.uleb128 0x2
 3689 01c0 06       		.uleb128 0x6
 3690 01c1 00       		.byte	0
 3691 01c2 00       		.byte	0
 3692 01c3 24       		.uleb128 0x24
 3693 01c4 898201   		.uleb128 0x4109
 3694 01c7 01       		.byte	0x1
 3695 01c8 11       		.uleb128 0x11
 3696 01c9 01       		.uleb128 0x1
 3697 01ca 9542     		.uleb128 0x2115
 3698 01cc 0C       		.uleb128 0xc
 3699 01cd 31       		.uleb128 0x31
 3700 01ce 13       		.uleb128 0x13
 3701 01cf 00       		.byte	0
 3702 01d0 00       		.byte	0
 3703 01d1 25       		.uleb128 0x25
 3704 01d2 8A8201   		.uleb128 0x410a
 3705 01d5 00       		.byte	0
 3706 01d6 02       		.uleb128 0x2
 3707 01d7 0A       		.uleb128 0xa
 3708 01d8 9142     		.uleb128 0x2111
 3709 01da 0A       		.uleb128 0xa
 3710 01db 00       		.byte	0
 3711 01dc 00       		.byte	0
 3712 01dd 26       		.uleb128 0x26
 3713 01de 2E       		.uleb128 0x2e
 3714 01df 01       		.byte	0x1
 3715 01e0 3F       		.uleb128 0x3f
 3716 01e1 0C       		.uleb128 0xc
 3717 01e2 03       		.uleb128 0x3
 3718 01e3 0E       		.uleb128 0xe
 3719 01e4 3A       		.uleb128 0x3a
 3720 01e5 0B       		.uleb128 0xb
 3721 01e6 3B       		.uleb128 0x3b
 3722 01e7 0B       		.uleb128 0xb
 3723 01e8 27       		.uleb128 0x27
 3724 01e9 0C       		.uleb128 0xc
ARM GAS  /var/folders/dt/0wfd0knj7gs46m8vwfzktm600000gn/T//ccfLNI7n.s 			page 67


 3725 01ea 11       		.uleb128 0x11
 3726 01eb 01       		.uleb128 0x1
 3727 01ec 12       		.uleb128 0x12
 3728 01ed 01       		.uleb128 0x1
 3729 01ee 40       		.uleb128 0x40
 3730 01ef 0A       		.uleb128 0xa
 3731 01f0 9742     		.uleb128 0x2117
 3732 01f2 0C       		.uleb128 0xc
 3733 01f3 01       		.uleb128 0x1
 3734 01f4 13       		.uleb128 0x13
 3735 01f5 00       		.byte	0
 3736 01f6 00       		.byte	0
 3737 01f7 27       		.uleb128 0x27
 3738 01f8 898201   		.uleb128 0x4109
 3739 01fb 00       		.byte	0
 3740 01fc 11       		.uleb128 0x11
 3741 01fd 01       		.uleb128 0x1
 3742 01fe 9542     		.uleb128 0x2115
 3743 0200 0C       		.uleb128 0xc
 3744 0201 31       		.uleb128 0x31
 3745 0202 13       		.uleb128 0x13
 3746 0203 00       		.byte	0
 3747 0204 00       		.byte	0
 3748 0205 28       		.uleb128 0x28
 3749 0206 2E       		.uleb128 0x2e
 3750 0207 01       		.byte	0x1
 3751 0208 3F       		.uleb128 0x3f
 3752 0209 0C       		.uleb128 0xc
 3753 020a 03       		.uleb128 0x3
 3754 020b 0E       		.uleb128 0xe
 3755 020c 3A       		.uleb128 0x3a
 3756 020d 0B       		.uleb128 0xb
 3757 020e 3B       		.uleb128 0x3b
 3758 020f 0B       		.uleb128 0xb
 3759 0210 27       		.uleb128 0x27
 3760 0211 0C       		.uleb128 0xc
 3761 0212 11       		.uleb128 0x11
 3762 0213 01       		.uleb128 0x1
 3763 0214 12       		.uleb128 0x12
 3764 0215 01       		.uleb128 0x1
 3765 0216 40       		.uleb128 0x40
 3766 0217 06       		.uleb128 0x6
 3767 0218 9742     		.uleb128 0x2117
 3768 021a 0C       		.uleb128 0xc
 3769 021b 01       		.uleb128 0x1
 3770 021c 13       		.uleb128 0x13
 3771 021d 00       		.byte	0
 3772 021e 00       		.byte	0
 3773 021f 29       		.uleb128 0x29
 3774 0220 898201   		.uleb128 0x4109
 3775 0223 01       		.byte	0x1
 3776 0224 11       		.uleb128 0x11
 3777 0225 01       		.uleb128 0x1
 3778 0226 31       		.uleb128 0x31
 3779 0227 13       		.uleb128 0x13
 3780 0228 01       		.uleb128 0x1
 3781 0229 13       		.uleb128 0x13
ARM GAS  /var/folders/dt/0wfd0knj7gs46m8vwfzktm600000gn/T//ccfLNI7n.s 			page 68


 3782 022a 00       		.byte	0
 3783 022b 00       		.byte	0
 3784 022c 2A       		.uleb128 0x2a
 3785 022d 898201   		.uleb128 0x4109
 3786 0230 01       		.byte	0x1
 3787 0231 11       		.uleb128 0x11
 3788 0232 01       		.uleb128 0x1
 3789 0233 31       		.uleb128 0x31
 3790 0234 13       		.uleb128 0x13
 3791 0235 00       		.byte	0
 3792 0236 00       		.byte	0
 3793 0237 2B       		.uleb128 0x2b
 3794 0238 898201   		.uleb128 0x4109
 3795 023b 01       		.byte	0x1
 3796 023c 11       		.uleb128 0x11
 3797 023d 01       		.uleb128 0x1
 3798 023e 9542     		.uleb128 0x2115
 3799 0240 0C       		.uleb128 0xc
 3800 0241 31       		.uleb128 0x31
 3801 0242 13       		.uleb128 0x13
 3802 0243 01       		.uleb128 0x1
 3803 0244 13       		.uleb128 0x13
 3804 0245 00       		.byte	0
 3805 0246 00       		.byte	0
 3806 0247 2C       		.uleb128 0x2c
 3807 0248 2E       		.uleb128 0x2e
 3808 0249 01       		.byte	0x1
 3809 024a 3F       		.uleb128 0x3f
 3810 024b 0C       		.uleb128 0xc
 3811 024c 03       		.uleb128 0x3
 3812 024d 0E       		.uleb128 0xe
 3813 024e 3A       		.uleb128 0x3a
 3814 024f 0B       		.uleb128 0xb
 3815 0250 3B       		.uleb128 0x3b
 3816 0251 0B       		.uleb128 0xb
 3817 0252 27       		.uleb128 0x27
 3818 0253 0C       		.uleb128 0xc
 3819 0254 49       		.uleb128 0x49
 3820 0255 13       		.uleb128 0x13
 3821 0256 11       		.uleb128 0x11
 3822 0257 01       		.uleb128 0x1
 3823 0258 12       		.uleb128 0x12
 3824 0259 01       		.uleb128 0x1
 3825 025a 40       		.uleb128 0x40
 3826 025b 06       		.uleb128 0x6
 3827 025c 9742     		.uleb128 0x2117
 3828 025e 0C       		.uleb128 0xc
 3829 025f 01       		.uleb128 0x1
 3830 0260 13       		.uleb128 0x13
 3831 0261 00       		.byte	0
 3832 0262 00       		.byte	0
 3833 0263 2D       		.uleb128 0x2d
 3834 0264 34       		.uleb128 0x34
 3835 0265 00       		.byte	0
 3836 0266 03       		.uleb128 0x3
 3837 0267 08       		.uleb128 0x8
 3838 0268 3A       		.uleb128 0x3a
ARM GAS  /var/folders/dt/0wfd0knj7gs46m8vwfzktm600000gn/T//ccfLNI7n.s 			page 69


 3839 0269 0B       		.uleb128 0xb
 3840 026a 3B       		.uleb128 0x3b
 3841 026b 0B       		.uleb128 0xb
 3842 026c 49       		.uleb128 0x49
 3843 026d 13       		.uleb128 0x13
 3844 026e 02       		.uleb128 0x2
 3845 026f 0A       		.uleb128 0xa
 3846 0270 00       		.byte	0
 3847 0271 00       		.byte	0
 3848 0272 2E       		.uleb128 0x2e
 3849 0273 34       		.uleb128 0x34
 3850 0274 00       		.byte	0
 3851 0275 03       		.uleb128 0x3
 3852 0276 0E       		.uleb128 0xe
 3853 0277 3A       		.uleb128 0x3a
 3854 0278 0B       		.uleb128 0xb
 3855 0279 3B       		.uleb128 0x3b
 3856 027a 05       		.uleb128 0x5
 3857 027b 49       		.uleb128 0x49
 3858 027c 13       		.uleb128 0x13
 3859 027d 3F       		.uleb128 0x3f
 3860 027e 0C       		.uleb128 0xc
 3861 027f 3C       		.uleb128 0x3c
 3862 0280 0C       		.uleb128 0xc
 3863 0281 00       		.byte	0
 3864 0282 00       		.byte	0
 3865 0283 2F       		.uleb128 0x2f
 3866 0284 2E       		.uleb128 0x2e
 3867 0285 00       		.byte	0
 3868 0286 3F       		.uleb128 0x3f
 3869 0287 0C       		.uleb128 0xc
 3870 0288 03       		.uleb128 0x3
 3871 0289 0E       		.uleb128 0xe
 3872 028a 3A       		.uleb128 0x3a
 3873 028b 0B       		.uleb128 0xb
 3874 028c 3B       		.uleb128 0x3b
 3875 028d 0B       		.uleb128 0xb
 3876 028e 27       		.uleb128 0x27
 3877 028f 0C       		.uleb128 0xc
 3878 0290 3C       		.uleb128 0x3c
 3879 0291 0C       		.uleb128 0xc
 3880 0292 00       		.byte	0
 3881 0293 00       		.byte	0
 3882 0294 30       		.uleb128 0x30
 3883 0295 2E       		.uleb128 0x2e
 3884 0296 01       		.byte	0x1
 3885 0297 3F       		.uleb128 0x3f
 3886 0298 0C       		.uleb128 0xc
 3887 0299 03       		.uleb128 0x3
 3888 029a 0E       		.uleb128 0xe
 3889 029b 3A       		.uleb128 0x3a
 3890 029c 0B       		.uleb128 0xb
 3891 029d 3B       		.uleb128 0x3b
 3892 029e 05       		.uleb128 0x5
 3893 029f 27       		.uleb128 0x27
 3894 02a0 0C       		.uleb128 0xc
 3895 02a1 49       		.uleb128 0x49
ARM GAS  /var/folders/dt/0wfd0knj7gs46m8vwfzktm600000gn/T//ccfLNI7n.s 			page 70


 3896 02a2 13       		.uleb128 0x13
 3897 02a3 3C       		.uleb128 0x3c
 3898 02a4 0C       		.uleb128 0xc
 3899 02a5 01       		.uleb128 0x1
 3900 02a6 13       		.uleb128 0x13
 3901 02a7 00       		.byte	0
 3902 02a8 00       		.byte	0
 3903 02a9 31       		.uleb128 0x31
 3904 02aa 2E       		.uleb128 0x2e
 3905 02ab 00       		.byte	0
 3906 02ac 3F       		.uleb128 0x3f
 3907 02ad 0C       		.uleb128 0xc
 3908 02ae 03       		.uleb128 0x3
 3909 02af 0E       		.uleb128 0xe
 3910 02b0 3A       		.uleb128 0x3a
 3911 02b1 0B       		.uleb128 0xb
 3912 02b2 3B       		.uleb128 0x3b
 3913 02b3 05       		.uleb128 0x5
 3914 02b4 27       		.uleb128 0x27
 3915 02b5 0C       		.uleb128 0xc
 3916 02b6 3C       		.uleb128 0x3c
 3917 02b7 0C       		.uleb128 0xc
 3918 02b8 00       		.byte	0
 3919 02b9 00       		.byte	0
 3920 02ba 32       		.uleb128 0x32
 3921 02bb 2E       		.uleb128 0x2e
 3922 02bc 01       		.byte	0x1
 3923 02bd 3F       		.uleb128 0x3f
 3924 02be 0C       		.uleb128 0xc
 3925 02bf 03       		.uleb128 0x3
 3926 02c0 0E       		.uleb128 0xe
 3927 02c1 3A       		.uleb128 0x3a
 3928 02c2 0B       		.uleb128 0xb
 3929 02c3 3B       		.uleb128 0x3b
 3930 02c4 05       		.uleb128 0x5
 3931 02c5 27       		.uleb128 0x27
 3932 02c6 0C       		.uleb128 0xc
 3933 02c7 3C       		.uleb128 0x3c
 3934 02c8 0C       		.uleb128 0xc
 3935 02c9 01       		.uleb128 0x1
 3936 02ca 13       		.uleb128 0x13
 3937 02cb 00       		.byte	0
 3938 02cc 00       		.byte	0
 3939 02cd 33       		.uleb128 0x33
 3940 02ce 2E       		.uleb128 0x2e
 3941 02cf 01       		.byte	0x1
 3942 02d0 3F       		.uleb128 0x3f
 3943 02d1 0C       		.uleb128 0xc
 3944 02d2 03       		.uleb128 0x3
 3945 02d3 0E       		.uleb128 0xe
 3946 02d4 3A       		.uleb128 0x3a
 3947 02d5 0B       		.uleb128 0xb
 3948 02d6 3B       		.uleb128 0x3b
 3949 02d7 0B       		.uleb128 0xb
 3950 02d8 27       		.uleb128 0x27
 3951 02d9 0C       		.uleb128 0xc
 3952 02da 3C       		.uleb128 0x3c
ARM GAS  /var/folders/dt/0wfd0knj7gs46m8vwfzktm600000gn/T//ccfLNI7n.s 			page 71


 3953 02db 0C       		.uleb128 0xc
 3954 02dc 01       		.uleb128 0x1
 3955 02dd 13       		.uleb128 0x13
 3956 02de 00       		.byte	0
 3957 02df 00       		.byte	0
 3958 02e0 34       		.uleb128 0x34
 3959 02e1 2E       		.uleb128 0x2e
 3960 02e2 01       		.byte	0x1
 3961 02e3 3F       		.uleb128 0x3f
 3962 02e4 0C       		.uleb128 0xc
 3963 02e5 03       		.uleb128 0x3
 3964 02e6 0E       		.uleb128 0xe
 3965 02e7 3A       		.uleb128 0x3a
 3966 02e8 0B       		.uleb128 0xb
 3967 02e9 3B       		.uleb128 0x3b
 3968 02ea 05       		.uleb128 0x5
 3969 02eb 27       		.uleb128 0x27
 3970 02ec 0C       		.uleb128 0xc
 3971 02ed 49       		.uleb128 0x49
 3972 02ee 13       		.uleb128 0x13
 3973 02ef 3C       		.uleb128 0x3c
 3974 02f0 0C       		.uleb128 0xc
 3975 02f1 00       		.byte	0
 3976 02f2 00       		.byte	0
 3977 02f3 00       		.byte	0
 3978              		.section	.debug_loc,"",%progbits
 3979              	.Ldebug_loc0:
 3980              	.LLST0:
 3981 0000 00000000 		.4byte	.LVL0
 3982 0004 02000000 		.4byte	.LVL1
 3983 0008 0100     		.2byte	0x1
 3984 000a 50       		.byte	0x50
 3985 000b 02000000 		.4byte	.LVL1
 3986 000f 0C000000 		.4byte	.LFE64
 3987 0013 0400     		.2byte	0x4
 3988 0015 F3       		.byte	0xf3
 3989 0016 01       		.uleb128 0x1
 3990 0017 50       		.byte	0x50
 3991 0018 9F       		.byte	0x9f
 3992 0019 00000000 		.4byte	0
 3993 001d 00000000 		.4byte	0
 3994              	.LLST1:
 3995 0021 00000000 		.4byte	.LVL2
 3996 0025 02000000 		.4byte	.LVL3
 3997 0029 0100     		.2byte	0x1
 3998 002b 50       		.byte	0x50
 3999 002c 02000000 		.4byte	.LVL3
 4000 0030 0C000000 		.4byte	.LFE65
 4001 0034 0400     		.2byte	0x4
 4002 0036 F3       		.byte	0xf3
 4003 0037 01       		.uleb128 0x1
 4004 0038 50       		.byte	0x50
 4005 0039 9F       		.byte	0x9f
 4006 003a 00000000 		.4byte	0
 4007 003e 00000000 		.4byte	0
 4008              	.LLST2:
 4009 0042 00000000 		.4byte	.LFB70
ARM GAS  /var/folders/dt/0wfd0knj7gs46m8vwfzktm600000gn/T//ccfLNI7n.s 			page 72


 4010 0046 02000000 		.4byte	.LCFI0
 4011 004a 0200     		.2byte	0x2
 4012 004c 7D       		.byte	0x7d
 4013 004d 00       		.sleb128 0
 4014 004e 02000000 		.4byte	.LCFI0
 4015 0052 22000000 		.4byte	.LFE70
 4016 0056 0200     		.2byte	0x2
 4017 0058 7D       		.byte	0x7d
 4018 0059 10       		.sleb128 16
 4019 005a 00000000 		.4byte	0
 4020 005e 00000000 		.4byte	0
 4021              	.LLST3:
 4022 0062 00000000 		.4byte	.LVL4
 4023 0066 0F000000 		.4byte	.LVL7-1
 4024 006a 0100     		.2byte	0x1
 4025 006c 50       		.byte	0x50
 4026 006d 0F000000 		.4byte	.LVL7-1
 4027 0071 22000000 		.4byte	.LFE70
 4028 0075 0100     		.2byte	0x1
 4029 0077 55       		.byte	0x55
 4030 0078 00000000 		.4byte	0
 4031 007c 00000000 		.4byte	0
 4032              	.LLST4:
 4033 0080 0A000000 		.4byte	.LVL6
 4034 0084 0F000000 		.4byte	.LVL7-1
 4035 0088 0100     		.2byte	0x1
 4036 008a 53       		.byte	0x53
 4037 008b 00000000 		.4byte	0
 4038 008f 00000000 		.4byte	0
 4039              	.LLST5:
 4040 0093 1E000000 		.4byte	.LVL11
 4041 0097 22000000 		.4byte	.LFE70
 4042 009b 0100     		.2byte	0x1
 4043 009d 53       		.byte	0x53
 4044 009e 00000000 		.4byte	0
 4045 00a2 00000000 		.4byte	0
 4046              	.LLST6:
 4047 00a6 00000000 		.4byte	.LVL12
 4048 00aa 02000000 		.4byte	.LVL13
 4049 00ae 0100     		.2byte	0x1
 4050 00b0 50       		.byte	0x50
 4051 00b1 02000000 		.4byte	.LVL13
 4052 00b5 05000000 		.4byte	.LVL14-1
 4053 00b9 0300     		.2byte	0x3
 4054 00bb 70       		.byte	0x70
 4055 00bc 70       		.sleb128 -16
 4056 00bd 9F       		.byte	0x9f
 4057 00be 05000000 		.4byte	.LVL14-1
 4058 00c2 06000000 		.4byte	.LFE69
 4059 00c6 0400     		.2byte	0x4
 4060 00c8 F3       		.byte	0xf3
 4061 00c9 01       		.uleb128 0x1
 4062 00ca 50       		.byte	0x50
 4063 00cb 9F       		.byte	0x9f
 4064 00cc 00000000 		.4byte	0
 4065 00d0 00000000 		.4byte	0
 4066              	.LLST7:
ARM GAS  /var/folders/dt/0wfd0knj7gs46m8vwfzktm600000gn/T//ccfLNI7n.s 			page 73


 4067 00d4 00000000 		.4byte	.LVL12
 4068 00d8 05000000 		.4byte	.LVL14-1
 4069 00dc 0100     		.2byte	0x1
 4070 00de 51       		.byte	0x51
 4071 00df 05000000 		.4byte	.LVL14-1
 4072 00e3 06000000 		.4byte	.LFE69
 4073 00e7 0400     		.2byte	0x4
 4074 00e9 F3       		.byte	0xf3
 4075 00ea 01       		.uleb128 0x1
 4076 00eb 51       		.byte	0x51
 4077 00ec 9F       		.byte	0x9f
 4078 00ed 00000000 		.4byte	0
 4079 00f1 00000000 		.4byte	0
 4080              	.LLST8:
 4081 00f5 00000000 		.4byte	.LVL12
 4082 00f9 05000000 		.4byte	.LVL14-1
 4083 00fd 0100     		.2byte	0x1
 4084 00ff 52       		.byte	0x52
 4085 0100 05000000 		.4byte	.LVL14-1
 4086 0104 06000000 		.4byte	.LFE69
 4087 0108 0400     		.2byte	0x4
 4088 010a F3       		.byte	0xf3
 4089 010b 01       		.uleb128 0x1
 4090 010c 52       		.byte	0x52
 4091 010d 9F       		.byte	0x9f
 4092 010e 00000000 		.4byte	0
 4093 0112 00000000 		.4byte	0
 4094              	.LLST9:
 4095 0116 00000000 		.4byte	.LVL12
 4096 011a 05000000 		.4byte	.LVL14-1
 4097 011e 0100     		.2byte	0x1
 4098 0120 53       		.byte	0x53
 4099 0121 05000000 		.4byte	.LVL14-1
 4100 0125 06000000 		.4byte	.LFE69
 4101 0129 0400     		.2byte	0x4
 4102 012b F3       		.byte	0xf3
 4103 012c 01       		.uleb128 0x1
 4104 012d 53       		.byte	0x53
 4105 012e 9F       		.byte	0x9f
 4106 012f 00000000 		.4byte	0
 4107 0133 00000000 		.4byte	0
 4108              	.LLST10:
 4109 0137 00000000 		.4byte	.LVL15
 4110 013b 02000000 		.4byte	.LVL16
 4111 013f 0100     		.2byte	0x1
 4112 0141 50       		.byte	0x50
 4113 0142 02000000 		.4byte	.LVL16
 4114 0146 09000000 		.4byte	.LVL17-1
 4115 014a 0300     		.2byte	0x3
 4116 014c 70       		.byte	0x70
 4117 014d 70       		.sleb128 -16
 4118 014e 9F       		.byte	0x9f
 4119 014f 09000000 		.4byte	.LVL17-1
 4120 0153 0A000000 		.4byte	.LFE63
 4121 0157 0400     		.2byte	0x4
 4122 0159 F3       		.byte	0xf3
 4123 015a 01       		.uleb128 0x1
ARM GAS  /var/folders/dt/0wfd0knj7gs46m8vwfzktm600000gn/T//ccfLNI7n.s 			page 74


 4124 015b 50       		.byte	0x50
 4125 015c 9F       		.byte	0x9f
 4126 015d 00000000 		.4byte	0
 4127 0161 00000000 		.4byte	0
 4128              	.LLST11:
 4129 0165 00000000 		.4byte	.LVL15
 4130 0169 09000000 		.4byte	.LVL17-1
 4131 016d 0100     		.2byte	0x1
 4132 016f 51       		.byte	0x51
 4133 0170 09000000 		.4byte	.LVL17-1
 4134 0174 0A000000 		.4byte	.LFE63
 4135 0178 0400     		.2byte	0x4
 4136 017a F3       		.byte	0xf3
 4137 017b 01       		.uleb128 0x1
 4138 017c 51       		.byte	0x51
 4139 017d 9F       		.byte	0x9f
 4140 017e 00000000 		.4byte	0
 4141 0182 00000000 		.4byte	0
 4142              	.LLST12:
 4143 0186 00000000 		.4byte	.LVL15
 4144 018a 09000000 		.4byte	.LVL17-1
 4145 018e 0100     		.2byte	0x1
 4146 0190 52       		.byte	0x52
 4147 0191 09000000 		.4byte	.LVL17-1
 4148 0195 0A000000 		.4byte	.LFE63
 4149 0199 0400     		.2byte	0x4
 4150 019b F3       		.byte	0xf3
 4151 019c 01       		.uleb128 0x1
 4152 019d 52       		.byte	0x52
 4153 019e 9F       		.byte	0x9f
 4154 019f 00000000 		.4byte	0
 4155 01a3 00000000 		.4byte	0
 4156              	.LLST13:
 4157 01a7 00000000 		.4byte	.LVL18
 4158 01ab 02000000 		.4byte	.LVL19
 4159 01af 0100     		.2byte	0x1
 4160 01b1 50       		.byte	0x50
 4161 01b2 02000000 		.4byte	.LVL19
 4162 01b6 05000000 		.4byte	.LVL20-1
 4163 01ba 0300     		.2byte	0x3
 4164 01bc 70       		.byte	0x70
 4165 01bd 50       		.sleb128 -48
 4166 01be 9F       		.byte	0x9f
 4167 01bf 05000000 		.4byte	.LVL20-1
 4168 01c3 06000000 		.4byte	.LFE68
 4169 01c7 0400     		.2byte	0x4
 4170 01c9 F3       		.byte	0xf3
 4171 01ca 01       		.uleb128 0x1
 4172 01cb 50       		.byte	0x50
 4173 01cc 9F       		.byte	0x9f
 4174 01cd 00000000 		.4byte	0
 4175 01d1 00000000 		.4byte	0
 4176              	.LLST14:
 4177 01d5 00000000 		.4byte	.LVL18
 4178 01d9 05000000 		.4byte	.LVL20-1
 4179 01dd 0100     		.2byte	0x1
 4180 01df 51       		.byte	0x51
ARM GAS  /var/folders/dt/0wfd0knj7gs46m8vwfzktm600000gn/T//ccfLNI7n.s 			page 75


 4181 01e0 05000000 		.4byte	.LVL20-1
 4182 01e4 06000000 		.4byte	.LFE68
 4183 01e8 0400     		.2byte	0x4
 4184 01ea F3       		.byte	0xf3
 4185 01eb 01       		.uleb128 0x1
 4186 01ec 51       		.byte	0x51
 4187 01ed 9F       		.byte	0x9f
 4188 01ee 00000000 		.4byte	0
 4189 01f2 00000000 		.4byte	0
 4190              	.LLST15:
 4191 01f6 00000000 		.4byte	.LVL18
 4192 01fa 05000000 		.4byte	.LVL20-1
 4193 01fe 0100     		.2byte	0x1
 4194 0200 52       		.byte	0x52
 4195 0201 05000000 		.4byte	.LVL20-1
 4196 0205 06000000 		.4byte	.LFE68
 4197 0209 0400     		.2byte	0x4
 4198 020b F3       		.byte	0xf3
 4199 020c 01       		.uleb128 0x1
 4200 020d 52       		.byte	0x52
 4201 020e 9F       		.byte	0x9f
 4202 020f 00000000 		.4byte	0
 4203 0213 00000000 		.4byte	0
 4204              	.LLST16:
 4205 0217 00000000 		.4byte	.LVL18
 4206 021b 05000000 		.4byte	.LVL20-1
 4207 021f 0100     		.2byte	0x1
 4208 0221 53       		.byte	0x53
 4209 0222 05000000 		.4byte	.LVL20-1
 4210 0226 06000000 		.4byte	.LFE68
 4211 022a 0400     		.2byte	0x4
 4212 022c F3       		.byte	0xf3
 4213 022d 01       		.uleb128 0x1
 4214 022e 53       		.byte	0x53
 4215 022f 9F       		.byte	0x9f
 4216 0230 00000000 		.4byte	0
 4217 0234 00000000 		.4byte	0
 4218              	.LLST17:
 4219 0238 00000000 		.4byte	.LVL21
 4220 023c 02000000 		.4byte	.LVL22
 4221 0240 0100     		.2byte	0x1
 4222 0242 50       		.byte	0x50
 4223 0243 02000000 		.4byte	.LVL22
 4224 0247 09000000 		.4byte	.LVL23-1
 4225 024b 0300     		.2byte	0x3
 4226 024d 70       		.byte	0x70
 4227 024e 50       		.sleb128 -48
 4228 024f 9F       		.byte	0x9f
 4229 0250 09000000 		.4byte	.LVL23-1
 4230 0254 0A000000 		.4byte	.LFE62
 4231 0258 0400     		.2byte	0x4
 4232 025a F3       		.byte	0xf3
 4233 025b 01       		.uleb128 0x1
 4234 025c 50       		.byte	0x50
 4235 025d 9F       		.byte	0x9f
 4236 025e 00000000 		.4byte	0
 4237 0262 00000000 		.4byte	0
ARM GAS  /var/folders/dt/0wfd0knj7gs46m8vwfzktm600000gn/T//ccfLNI7n.s 			page 76


 4238              	.LLST18:
 4239 0266 00000000 		.4byte	.LVL21
 4240 026a 09000000 		.4byte	.LVL23-1
 4241 026e 0100     		.2byte	0x1
 4242 0270 51       		.byte	0x51
 4243 0271 09000000 		.4byte	.LVL23-1
 4244 0275 0A000000 		.4byte	.LFE62
 4245 0279 0400     		.2byte	0x4
 4246 027b F3       		.byte	0xf3
 4247 027c 01       		.uleb128 0x1
 4248 027d 51       		.byte	0x51
 4249 027e 9F       		.byte	0x9f
 4250 027f 00000000 		.4byte	0
 4251 0283 00000000 		.4byte	0
 4252              	.LLST19:
 4253 0287 00000000 		.4byte	.LVL21
 4254 028b 09000000 		.4byte	.LVL23-1
 4255 028f 0100     		.2byte	0x1
 4256 0291 52       		.byte	0x52
 4257 0292 09000000 		.4byte	.LVL23-1
 4258 0296 0A000000 		.4byte	.LFE62
 4259 029a 0400     		.2byte	0x4
 4260 029c F3       		.byte	0xf3
 4261 029d 01       		.uleb128 0x1
 4262 029e 52       		.byte	0x52
 4263 029f 9F       		.byte	0x9f
 4264 02a0 00000000 		.4byte	0
 4265 02a4 00000000 		.4byte	0
 4266              	.LLST20:
 4267 02a8 00000000 		.4byte	.LVL24
 4268 02ac 02000000 		.4byte	.LVL25
 4269 02b0 0100     		.2byte	0x1
 4270 02b2 50       		.byte	0x50
 4271 02b3 02000000 		.4byte	.LVL25
 4272 02b7 05000000 		.4byte	.LVL26-1
 4273 02bb 0300     		.2byte	0x3
 4274 02bd 70       		.byte	0x70
 4275 02be 70       		.sleb128 -16
 4276 02bf 9F       		.byte	0x9f
 4277 02c0 05000000 		.4byte	.LVL26-1
 4278 02c4 06000000 		.4byte	.LFE67
 4279 02c8 0400     		.2byte	0x4
 4280 02ca F3       		.byte	0xf3
 4281 02cb 01       		.uleb128 0x1
 4282 02cc 50       		.byte	0x50
 4283 02cd 9F       		.byte	0x9f
 4284 02ce 00000000 		.4byte	0
 4285 02d2 00000000 		.4byte	0
 4286              	.LLST21:
 4287 02d6 00000000 		.4byte	.LVL24
 4288 02da 05000000 		.4byte	.LVL26-1
 4289 02de 0100     		.2byte	0x1
 4290 02e0 51       		.byte	0x51
 4291 02e1 05000000 		.4byte	.LVL26-1
 4292 02e5 06000000 		.4byte	.LFE67
 4293 02e9 0400     		.2byte	0x4
 4294 02eb F3       		.byte	0xf3
ARM GAS  /var/folders/dt/0wfd0knj7gs46m8vwfzktm600000gn/T//ccfLNI7n.s 			page 77


 4295 02ec 01       		.uleb128 0x1
 4296 02ed 51       		.byte	0x51
 4297 02ee 9F       		.byte	0x9f
 4298 02ef 00000000 		.4byte	0
 4299 02f3 00000000 		.4byte	0
 4300              	.LLST22:
 4301 02f7 00000000 		.4byte	.LVL27
 4302 02fb 02000000 		.4byte	.LVL28
 4303 02ff 0100     		.2byte	0x1
 4304 0301 50       		.byte	0x50
 4305 0302 02000000 		.4byte	.LVL28
 4306 0306 05000000 		.4byte	.LVL29-1
 4307 030a 0300     		.2byte	0x3
 4308 030c 70       		.byte	0x70
 4309 030d 50       		.sleb128 -48
 4310 030e 9F       		.byte	0x9f
 4311 030f 05000000 		.4byte	.LVL29-1
 4312 0313 06000000 		.4byte	.LFE66
 4313 0317 0400     		.2byte	0x4
 4314 0319 F3       		.byte	0xf3
 4315 031a 01       		.uleb128 0x1
 4316 031b 50       		.byte	0x50
 4317 031c 9F       		.byte	0x9f
 4318 031d 00000000 		.4byte	0
 4319 0321 00000000 		.4byte	0
 4320              	.LLST23:
 4321 0325 00000000 		.4byte	.LVL27
 4322 0329 05000000 		.4byte	.LVL29-1
 4323 032d 0100     		.2byte	0x1
 4324 032f 51       		.byte	0x51
 4325 0330 05000000 		.4byte	.LVL29-1
 4326 0334 06000000 		.4byte	.LFE66
 4327 0338 0400     		.2byte	0x4
 4328 033a F3       		.byte	0xf3
 4329 033b 01       		.uleb128 0x1
 4330 033c 51       		.byte	0x51
 4331 033d 9F       		.byte	0x9f
 4332 033e 00000000 		.4byte	0
 4333 0342 00000000 		.4byte	0
 4334              	.LLST24:
 4335 0346 00000000 		.4byte	.LVL27
 4336 034a 05000000 		.4byte	.LVL29-1
 4337 034e 0100     		.2byte	0x1
 4338 0350 52       		.byte	0x52
 4339 0351 05000000 		.4byte	.LVL29-1
 4340 0355 06000000 		.4byte	.LFE66
 4341 0359 0400     		.2byte	0x4
 4342 035b F3       		.byte	0xf3
 4343 035c 01       		.uleb128 0x1
 4344 035d 52       		.byte	0x52
 4345 035e 9F       		.byte	0x9f
 4346 035f 00000000 		.4byte	0
 4347 0363 00000000 		.4byte	0
 4348              	.LLST25:
 4349 0367 00000000 		.4byte	.LFB72
 4350 036b 08000000 		.4byte	.LCFI1
 4351 036f 0200     		.2byte	0x2
ARM GAS  /var/folders/dt/0wfd0knj7gs46m8vwfzktm600000gn/T//ccfLNI7n.s 			page 78


 4352 0371 7D       		.byte	0x7d
 4353 0372 00       		.sleb128 0
 4354 0373 08000000 		.4byte	.LCFI1
 4355 0377 42000000 		.4byte	.LFE72
 4356 037b 0200     		.2byte	0x2
 4357 037d 7D       		.byte	0x7d
 4358 037e 10       		.sleb128 16
 4359 037f 00000000 		.4byte	0
 4360 0383 00000000 		.4byte	0
 4361              	.LLST26:
 4362 0387 00000000 		.4byte	.LVL31
 4363 038b 28000000 		.4byte	.LVL34
 4364 038f 0100     		.2byte	0x1
 4365 0391 50       		.byte	0x50
 4366 0392 28000000 		.4byte	.LVL34
 4367 0396 42000000 		.4byte	.LFE72
 4368 039a 0100     		.2byte	0x1
 4369 039c 54       		.byte	0x54
 4370 039d 00000000 		.4byte	0
 4371 03a1 00000000 		.4byte	0
 4372              	.LLST27:
 4373 03a5 00000000 		.4byte	.LVL31
 4374 03a9 06000000 		.4byte	.LVL32
 4375 03ad 0100     		.2byte	0x1
 4376 03af 51       		.byte	0x51
 4377 03b0 06000000 		.4byte	.LVL32
 4378 03b4 2D000000 		.4byte	.LVL35-1
 4379 03b8 0100     		.2byte	0x1
 4380 03ba 53       		.byte	0x53
 4381 03bb 2D000000 		.4byte	.LVL35-1
 4382 03bf 42000000 		.4byte	.LFE72
 4383 03c3 0400     		.2byte	0x4
 4384 03c5 F3       		.byte	0xf3
 4385 03c6 01       		.uleb128 0x1
 4386 03c7 51       		.byte	0x51
 4387 03c8 9F       		.byte	0x9f
 4388 03c9 00000000 		.4byte	0
 4389 03cd 00000000 		.4byte	0
 4390              	.LLST28:
 4391 03d1 00000000 		.4byte	.LVL31
 4392 03d5 24000000 		.4byte	.LVL33
 4393 03d9 0100     		.2byte	0x1
 4394 03db 52       		.byte	0x52
 4395 03dc 24000000 		.4byte	.LVL33
 4396 03e0 42000000 		.4byte	.LFE72
 4397 03e4 0100     		.2byte	0x1
 4398 03e6 56       		.byte	0x56
 4399 03e7 00000000 		.4byte	0
 4400 03eb 00000000 		.4byte	0
 4401              	.LLST29:
 4402 03ef 00000000 		.4byte	.LFB73
 4403 03f3 02000000 		.4byte	.LCFI2
 4404 03f7 0200     		.2byte	0x2
 4405 03f9 7D       		.byte	0x7d
 4406 03fa 00       		.sleb128 0
 4407 03fb 02000000 		.4byte	.LCFI2
 4408 03ff 48000000 		.4byte	.LFE73
ARM GAS  /var/folders/dt/0wfd0knj7gs46m8vwfzktm600000gn/T//ccfLNI7n.s 			page 79


 4409 0403 0200     		.2byte	0x2
 4410 0405 7D       		.byte	0x7d
 4411 0406 10       		.sleb128 16
 4412 0407 00000000 		.4byte	0
 4413 040b 00000000 		.4byte	0
 4414              	.LLST30:
 4415 040f 00000000 		.4byte	.LVL37
 4416 0413 08000000 		.4byte	.LVL38
 4417 0417 0100     		.2byte	0x1
 4418 0419 50       		.byte	0x50
 4419 041a 08000000 		.4byte	.LVL38
 4420 041e 38000000 		.4byte	.LVL47
 4421 0422 0100     		.2byte	0x1
 4422 0424 54       		.byte	0x54
 4423 0425 38000000 		.4byte	.LVL47
 4424 0429 3A000000 		.4byte	.LVL48
 4425 042d 0100     		.2byte	0x1
 4426 042f 50       		.byte	0x50
 4427 0430 3A000000 		.4byte	.LVL48
 4428 0434 48000000 		.4byte	.LFE73
 4429 0438 0100     		.2byte	0x1
 4430 043a 54       		.byte	0x54
 4431 043b 00000000 		.4byte	0
 4432 043f 00000000 		.4byte	0
 4433              	.LLST31:
 4434 0443 00000000 		.4byte	.LVL37
 4435 0447 08000000 		.4byte	.LVL38
 4436 044b 0100     		.2byte	0x1
 4437 044d 51       		.byte	0x51
 4438 044e 08000000 		.4byte	.LVL38
 4439 0452 38000000 		.4byte	.LVL47
 4440 0456 0100     		.2byte	0x1
 4441 0458 55       		.byte	0x55
 4442 0459 38000000 		.4byte	.LVL47
 4443 045d 3D000000 		.4byte	.LVL49-1
 4444 0461 0100     		.2byte	0x1
 4445 0463 51       		.byte	0x51
 4446 0464 3D000000 		.4byte	.LVL49-1
 4447 0468 48000000 		.4byte	.LFE73
 4448 046c 0100     		.2byte	0x1
 4449 046e 55       		.byte	0x55
 4450 046f 00000000 		.4byte	0
 4451 0473 00000000 		.4byte	0
 4452              	.LLST32:
 4453 0477 0E000000 		.4byte	.LVL40
 4454 047b 11000000 		.4byte	.LVL41-1
 4455 047f 0100     		.2byte	0x1
 4456 0481 53       		.byte	0x53
 4457 0482 00000000 		.4byte	0
 4458 0486 00000000 		.4byte	0
 4459              	.LLST33:
 4460 048a 36000000 		.4byte	.LVL46
 4461 048e 38000000 		.4byte	.LVL47
 4462 0492 0100     		.2byte	0x1
 4463 0494 53       		.byte	0x53
 4464 0495 00000000 		.4byte	0
 4465 0499 00000000 		.4byte	0
ARM GAS  /var/folders/dt/0wfd0knj7gs46m8vwfzktm600000gn/T//ccfLNI7n.s 			page 80


 4466              	.LLST34:
 4467 049d 00000000 		.4byte	.LFB74
 4468 04a1 02000000 		.4byte	.LCFI3
 4469 04a5 0200     		.2byte	0x2
 4470 04a7 7D       		.byte	0x7d
 4471 04a8 00       		.sleb128 0
 4472 04a9 02000000 		.4byte	.LCFI3
 4473 04ad 58000000 		.4byte	.LFE74
 4474 04b1 0200     		.2byte	0x2
 4475 04b3 7D       		.byte	0x7d
 4476 04b4 08       		.sleb128 8
 4477 04b5 00000000 		.4byte	0
 4478 04b9 00000000 		.4byte	0
 4479              	.LLST35:
 4480 04bd 00000000 		.4byte	.LVL50
 4481 04c1 06000000 		.4byte	.LVL51
 4482 04c5 0100     		.2byte	0x1
 4483 04c7 50       		.byte	0x50
 4484 04c8 06000000 		.4byte	.LVL51
 4485 04cc 48000000 		.4byte	.LVL63
 4486 04d0 0100     		.2byte	0x1
 4487 04d2 54       		.byte	0x54
 4488 04d3 48000000 		.4byte	.LVL63
 4489 04d7 4A000000 		.4byte	.LVL64
 4490 04db 0100     		.2byte	0x1
 4491 04dd 50       		.byte	0x50
 4492 04de 4A000000 		.4byte	.LVL64
 4493 04e2 58000000 		.4byte	.LFE74
 4494 04e6 0100     		.2byte	0x1
 4495 04e8 54       		.byte	0x54
 4496 04e9 00000000 		.4byte	0
 4497 04ed 00000000 		.4byte	0
 4498              	.LLST36:
 4499 04f1 0C000000 		.4byte	.LVL53
 4500 04f5 0F000000 		.4byte	.LVL54-1
 4501 04f9 0100     		.2byte	0x1
 4502 04fb 53       		.byte	0x53
 4503 04fc 00000000 		.4byte	0
 4504 0500 00000000 		.4byte	0
 4505              	.LLST37:
 4506 0504 46000000 		.4byte	.LVL62
 4507 0508 48000000 		.4byte	.LVL63
 4508 050c 0100     		.2byte	0x1
 4509 050e 53       		.byte	0x53
 4510 050f 00000000 		.4byte	0
 4511 0513 00000000 		.4byte	0
 4512              	.LLST38:
 4513 0517 00000000 		.4byte	.LFB75
 4514 051b 02000000 		.4byte	.LCFI4
 4515 051f 0200     		.2byte	0x2
 4516 0521 7D       		.byte	0x7d
 4517 0522 00       		.sleb128 0
 4518 0523 02000000 		.4byte	.LCFI4
 4519 0527 60000000 		.4byte	.LFE75
 4520 052b 0200     		.2byte	0x2
 4521 052d 7D       		.byte	0x7d
 4522 052e 10       		.sleb128 16
ARM GAS  /var/folders/dt/0wfd0knj7gs46m8vwfzktm600000gn/T//ccfLNI7n.s 			page 81


 4523 052f 00000000 		.4byte	0
 4524 0533 00000000 		.4byte	0
 4525              	.LLST39:
 4526 0537 00000000 		.4byte	.LVL66
 4527 053b 09000000 		.4byte	.LVL67-1
 4528 053f 0100     		.2byte	0x1
 4529 0541 50       		.byte	0x50
 4530 0542 09000000 		.4byte	.LVL67-1
 4531 0546 60000000 		.4byte	.LFE75
 4532 054a 0100     		.2byte	0x1
 4533 054c 54       		.byte	0x54
 4534 054d 00000000 		.4byte	0
 4535 0551 00000000 		.4byte	0
 4536              	.LLST40:
 4537 0555 00000000 		.4byte	.LVL66
 4538 0559 09000000 		.4byte	.LVL67-1
 4539 055d 0100     		.2byte	0x1
 4540 055f 51       		.byte	0x51
 4541 0560 09000000 		.4byte	.LVL67-1
 4542 0564 60000000 		.4byte	.LFE75
 4543 0568 0400     		.2byte	0x4
 4544 056a F3       		.byte	0xf3
 4545 056b 01       		.uleb128 0x1
 4546 056c 51       		.byte	0x51
 4547 056d 9F       		.byte	0x9f
 4548 056e 00000000 		.4byte	0
 4549 0572 00000000 		.4byte	0
 4550              	.LLST41:
 4551 0576 00000000 		.4byte	.LFB76
 4552 057a 02000000 		.4byte	.LCFI5
 4553 057e 0200     		.2byte	0x2
 4554 0580 7D       		.byte	0x7d
 4555 0581 00       		.sleb128 0
 4556 0582 02000000 		.4byte	.LCFI5
 4557 0586 3C000000 		.4byte	.LFE76
 4558 058a 0200     		.2byte	0x2
 4559 058c 7D       		.byte	0x7d
 4560 058d 10       		.sleb128 16
 4561 058e 00000000 		.4byte	0
 4562 0592 00000000 		.4byte	0
 4563              	.LLST42:
 4564 0596 00000000 		.4byte	.LVL73
 4565 059a 07000000 		.4byte	.LVL74-1
 4566 059e 0100     		.2byte	0x1
 4567 05a0 50       		.byte	0x50
 4568 05a1 07000000 		.4byte	.LVL74-1
 4569 05a5 3C000000 		.4byte	.LFE76
 4570 05a9 0100     		.2byte	0x1
 4571 05ab 54       		.byte	0x54
 4572 05ac 00000000 		.4byte	0
 4573 05b0 00000000 		.4byte	0
 4574              	.LLST43:
 4575 05b4 12000000 		.4byte	.LVL75
 4576 05b8 2E000000 		.4byte	.LVL77
 4577 05bc 0100     		.2byte	0x1
 4578 05be 50       		.byte	0x50
 4579 05bf 00000000 		.4byte	0
ARM GAS  /var/folders/dt/0wfd0knj7gs46m8vwfzktm600000gn/T//ccfLNI7n.s 			page 82


 4580 05c3 00000000 		.4byte	0
 4581              		.section	.debug_aranges,"",%progbits
 4582 0000 8C000000 		.4byte	0x8c
 4583 0004 0200     		.2byte	0x2
 4584 0006 00000000 		.4byte	.Ldebug_info0
 4585 000a 04       		.byte	0x4
 4586 000b 00       		.byte	0
 4587 000c 0000     		.2byte	0
 4588 000e 0000     		.2byte	0
 4589 0010 00000000 		.4byte	.LFB64
 4590 0014 0C000000 		.4byte	.LFE64-.LFB64
 4591 0018 00000000 		.4byte	.LFB65
 4592 001c 0C000000 		.4byte	.LFE65-.LFB65
 4593 0020 00000000 		.4byte	.LFB70
 4594 0024 22000000 		.4byte	.LFE70-.LFB70
 4595 0028 00000000 		.4byte	.LFB69
 4596 002c 06000000 		.4byte	.LFE69-.LFB69
 4597 0030 00000000 		.4byte	.LFB63
 4598 0034 0A000000 		.4byte	.LFE63-.LFB63
 4599 0038 00000000 		.4byte	.LFB68
 4600 003c 06000000 		.4byte	.LFE68-.LFB68
 4601 0040 00000000 		.4byte	.LFB62
 4602 0044 0A000000 		.4byte	.LFE62-.LFB62
 4603 0048 00000000 		.4byte	.LFB67
 4604 004c 06000000 		.4byte	.LFE67-.LFB67
 4605 0050 00000000 		.4byte	.LFB66
 4606 0054 06000000 		.4byte	.LFE66-.LFB66
 4607 0058 00000000 		.4byte	.LFB71
 4608 005c 04000000 		.4byte	.LFE71-.LFB71
 4609 0060 00000000 		.4byte	.LFB72
 4610 0064 42000000 		.4byte	.LFE72-.LFB72
 4611 0068 00000000 		.4byte	.LFB73
 4612 006c 48000000 		.4byte	.LFE73-.LFB73
 4613 0070 00000000 		.4byte	.LFB74
 4614 0074 58000000 		.4byte	.LFE74-.LFB74
 4615 0078 00000000 		.4byte	.LFB75
 4616 007c 60000000 		.4byte	.LFE75-.LFB75
 4617 0080 00000000 		.4byte	.LFB76
 4618 0084 3C000000 		.4byte	.LFE76-.LFB76
 4619 0088 00000000 		.4byte	0
 4620 008c 00000000 		.4byte	0
 4621              		.section	.debug_ranges,"",%progbits
 4622              	.Ldebug_ranges0:
 4623 0000 02000000 		.4byte	.LBB2
 4624 0004 04000000 		.4byte	.LBE2
 4625 0008 06000000 		.4byte	.LBB3
 4626 000c 0A000000 		.4byte	.LBE3
 4627 0010 00000000 		.4byte	0
 4628 0014 00000000 		.4byte	0
 4629 0018 00000000 		.4byte	.LFB64
 4630 001c 0C000000 		.4byte	.LFE64
 4631 0020 00000000 		.4byte	.LFB65
 4632 0024 0C000000 		.4byte	.LFE65
 4633 0028 00000000 		.4byte	.LFB70
 4634 002c 22000000 		.4byte	.LFE70
 4635 0030 00000000 		.4byte	.LFB69
 4636 0034 06000000 		.4byte	.LFE69
ARM GAS  /var/folders/dt/0wfd0knj7gs46m8vwfzktm600000gn/T//ccfLNI7n.s 			page 83


 4637 0038 00000000 		.4byte	.LFB63
 4638 003c 0A000000 		.4byte	.LFE63
 4639 0040 00000000 		.4byte	.LFB68
 4640 0044 06000000 		.4byte	.LFE68
 4641 0048 00000000 		.4byte	.LFB62
 4642 004c 0A000000 		.4byte	.LFE62
 4643 0050 00000000 		.4byte	.LFB67
 4644 0054 06000000 		.4byte	.LFE67
 4645 0058 00000000 		.4byte	.LFB66
 4646 005c 06000000 		.4byte	.LFE66
 4647 0060 00000000 		.4byte	.LFB71
 4648 0064 04000000 		.4byte	.LFE71
 4649 0068 00000000 		.4byte	.LFB72
 4650 006c 42000000 		.4byte	.LFE72
 4651 0070 00000000 		.4byte	.LFB73
 4652 0074 48000000 		.4byte	.LFE73
 4653 0078 00000000 		.4byte	.LFB74
 4654 007c 58000000 		.4byte	.LFE74
 4655 0080 00000000 		.4byte	.LFB75
 4656 0084 60000000 		.4byte	.LFE75
 4657 0088 00000000 		.4byte	.LFB76
 4658 008c 3C000000 		.4byte	.LFE76
 4659 0090 00000000 		.4byte	0
 4660 0094 00000000 		.4byte	0
 4661              		.section	.debug_line,"",%progbits
 4662              	.Ldebug_line0:
 4663 0000 E9030000 		.section	.debug_str,"MS",%progbits,1
 4663      02007E02 
 4663      00000201 
 4663      FB0E0D00 
 4663      01010101 
 4664              	.LASF133:
 4665 0000 63684F51 		.ascii	"chOQPutTimeout\000"
 4665      50757454 
 4665      696D656F 
 4665      757400
 4666              	.LASF107:
 4667 000f 73635F73 		.ascii	"sc_speed\000"
 4667      70656564 
 4667      00
 4668              	.LASF2:
 4669 0018 73697A65 		.ascii	"size_t\000"
 4669      5F7400
 4670              	.LASF61:
 4671 001f 7264796D 		.ascii	"rdymsg\000"
 4671      736700
 4672              	.LASF13:
 4673 0026 75696E74 		.ascii	"uint64_t\000"
 4673      36345F74 
 4673      00
 4674              	.LASF76:
 4675 002f 4F757470 		.ascii	"OutputQueue\000"
 4675      75745175 
 4675      65756500 
 4676              	.LASF22:
 4677 003b 6576656E 		.ascii	"eventmask_t\000"
 4677      746D6173 
ARM GAS  /var/folders/dt/0wfd0knj7gs46m8vwfzktm600000gn/T//ccfLNI7n.s 			page 84


 4677      6B5F7400 
 4678              	.LASF130:
 4679 0047 63684951 		.ascii	"chIQReadTimeout\000"
 4679      52656164 
 4679      54696D65 
 4679      6F757400 
 4680              	.LASF15:
 4681 0057 75696E74 		.ascii	"uint_fast16_t\000"
 4681      5F666173 
 4681      7431365F 
 4681      7400
 4682              	.LASF14:
 4683 0065 6C6F6E67 		.ascii	"long long unsigned int\000"
 4683      206C6F6E 
 4683      6720756E 
 4683      7369676E 
 4683      65642069 
 4684              	.LASF141:
 4685 007c 63684951 		.ascii	"chIQResetI\000"
 4685      52657365 
 4685      744900
 4686              	.LASF136:
 4687 0087 63684F51 		.ascii	"chOQInit\000"
 4687      496E6974 
 4687      00
 4688              	.LASF62:
 4689 0090 65786974 		.ascii	"exitcode\000"
 4689      636F6465 
 4689      00
 4690              	.LASF137:
 4691 0099 63684462 		.ascii	"chDbgPanic\000"
 4691      6750616E 
 4691      696300
 4692              	.LASF151:
 4693 00a4 49544D5F 		.ascii	"ITM_RxBuffer\000"
 4693      52784275 
 4693      66666572 
 4693      00
 4694              	.LASF126:
 4695 00b1 73645374 		.ascii	"sdStop\000"
 4695      6F7000
 4696              	.LASF121:
 4697 00b8 73644F62 		.ascii	"sdObjectInit\000"
 4697      6A656374 
 4697      496E6974 
 4697      00
 4698              	.LASF115:
 4699 00c5 72656164 		.ascii	"reads\000"
 4699      7300
 4700              	.LASF84:
 4701 00cb 72656164 		.ascii	"readt\000"
 4701      7400
 4702              	.LASF67:
 4703 00d1 715F7761 		.ascii	"q_waiting\000"
 4703      6974696E 
 4703      6700
 4704              	.LASF12:
ARM GAS  /var/folders/dt/0wfd0knj7gs46m8vwfzktm600000gn/T//ccfLNI7n.s 			page 85


 4705 00db 6C6F6E67 		.ascii	"long long int\000"
 4705      206C6F6E 
 4705      6720696E 
 4705      7400
 4706              	.LASF1:
 4707 00e9 7369676E 		.ascii	"signed char\000"
 4707      65642063 
 4707      68617200 
 4708              	.LASF95:
 4709 00f5 47545052 		.ascii	"GTPR\000"
 4709      00
 4710              	.LASF43:
 4711 00fa 705F6D70 		.ascii	"p_mpool\000"
 4711      6F6F6C00 
 4712              	.LASF16:
 4713 0102 626F6F6C 		.ascii	"bool_t\000"
 4713      5F7400
 4714              	.LASF52:
 4715 0109 6D5F7175 		.ascii	"m_queue\000"
 4715      65756500 
 4716              	.LASF103:
 4717 0111 73746174 		.ascii	"state\000"
 4717      6500
 4718              	.LASF9:
 4719 0117 6C6F6E67 		.ascii	"long int\000"
 4719      20696E74 
 4719      00
 4720              	.LASF18:
 4721 0120 74737461 		.ascii	"tstate_t\000"
 4721      74655F74 
 4721      00
 4722              	.LASF146:
 4723 0129 63684F51 		.ascii	"chOQGetI\000"
 4723      47657449 
 4723      00
 4724              	.LASF35:
 4725 0132 705F7265 		.ascii	"p_refs\000"
 4725      667300
 4726              	.LASF69:
 4727 0139 715F6275 		.ascii	"q_buffer\000"
 4727      66666572 
 4727      00
 4728              	.LASF71:
 4729 0142 715F7772 		.ascii	"q_wrptr\000"
 4729      70747200 
 4730              	.LASF145:
 4731 014a 63684576 		.ascii	"chEvtBroadcastFlagsI\000"
 4731      7442726F 
 4731      61646361 
 4731      7374466C 
 4731      61677349 
 4732              	.LASF29:
 4733 015f 705F6E65 		.ascii	"p_newer\000"
 4733      77657200 
 4734              	.LASF81:
 4735 0167 70757477 		.ascii	"putwouldblock\000"
 4735      6F756C64 
ARM GAS  /var/folders/dt/0wfd0knj7gs46m8vwfzktm600000gn/T//ccfLNI7n.s 			page 86


 4735      626C6F63 
 4735      6B00
 4736              	.LASF142:
 4737 0175 63685363 		.ascii	"chSchRescheduleS\000"
 4737      68526573 
 4737      63686564 
 4737      756C6553 
 4737      00
 4738              	.LASF113:
 4739 0186 6D61736B 		.ascii	"mask\000"
 4739      00
 4740              	.LASF46:
 4741 018b 72656761 		.ascii	"regarm_t\000"
 4741      726D5F74 
 4741      00
 4742              	.LASF144:
 4743 0194 63684951 		.ascii	"chIQPutI\000"
 4743      50757449 
 4743      00
 4744              	.LASF59:
 4745 019d 4576656E 		.ascii	"EventSource\000"
 4745      74536F75 
 4745      72636500 
 4746              	.LASF78:
 4747 01a9 42617365 		.ascii	"BaseAsynchronousChannelVMT\000"
 4747      4173796E 
 4747      6368726F 
 4747      6E6F7573 
 4747      4368616E 
 4748              	.LASF0:
 4749 01c4 756E7369 		.ascii	"unsigned int\000"
 4749      676E6564 
 4749      20696E74 
 4749      00
 4750              	.LASF6:
 4751 01d1 75696E74 		.ascii	"uint16_t\000"
 4751      31365F74 
 4751      00
 4752              	.LASF112:
 4753 01da 53657269 		.ascii	"SerialDriverVMT\000"
 4753      616C4472 
 4753      69766572 
 4753      564D5400 
 4754              	.LASF36:
 4755 01ea 705F7469 		.ascii	"p_time\000"
 4755      6D6500
 4756              	.LASF122:
 4757 01f1 696E6F74 		.ascii	"inotify\000"
 4757      69667900 
 4758              	.LASF104:
 4759 01f9 69717565 		.ascii	"iqueue\000"
 4759      756500
 4760              	.LASF38:
 4761 0200 705F6D73 		.ascii	"p_msgqueue\000"
 4761      67717565 
 4761      756500
 4762              	.LASF134:
ARM GAS  /var/folders/dt/0wfd0knj7gs46m8vwfzktm600000gn/T//ccfLNI7n.s 			page 87


 4763 020b 73645F6C 		.ascii	"sd_lld_init\000"
 4763      6C645F69 
 4763      6E697400 
 4764              	.LASF117:
 4765 0217 67657474 		.ascii	"gett\000"
 4765      00
 4766              	.LASF86:
 4767 021c 6576656E 		.ascii	"event\000"
 4767      7400
 4768              	.LASF7:
 4769 0222 73686F72 		.ascii	"short unsigned int\000"
 4769      7420756E 
 4769      7369676E 
 4769      65642069 
 4769      6E7400
 4770              	.LASF21:
 4771 0235 6D73675F 		.ascii	"msg_t\000"
 4771      7400
 4772              	.LASF105:
 4773 023b 6F717565 		.ascii	"oqueue\000"
 4773      756500
 4774              	.LASF143:
 4775 0242 63684462 		.ascii	"chDbgCheckClassI\000"
 4775      67436865 
 4775      636B436C 
 4775      61737349 
 4775      00
 4776              	.LASF116:
 4777 0253 77726974 		.ascii	"writes\000"
 4777      657300
 4778              	.LASF83:
 4779 025a 77726974 		.ascii	"writet\000"
 4779      657400
 4780              	.LASF17:
 4781 0261 746D6F64 		.ascii	"tmode_t\000"
 4781      655F7400 
 4782              	.LASF45:
 4783 0269 54687265 		.ascii	"ThreadsList\000"
 4783      6164734C 
 4783      69737400 
 4784              	.LASF106:
 4785 0275 75736172 		.ascii	"usart\000"
 4785      7400
 4786              	.LASF75:
 4787 027b 496E7075 		.ascii	"InputQueue\000"
 4787      74517565 
 4787      756500
 4788              	.LASF74:
 4789 0286 716E6F74 		.ascii	"qnotify_t\000"
 4789      6966795F 
 4789      7400
 4790              	.LASF66:
 4791 0290 47656E65 		.ascii	"GenericQueue\000"
 4791      72696351 
 4791      75657565 
 4791      00
 4792              	.LASF47:
ARM GAS  /var/folders/dt/0wfd0knj7gs46m8vwfzktm600000gn/T//ccfLNI7n.s 			page 88


 4793 029d 73746B61 		.ascii	"stkalign_t\000"
 4793      6C69676E 
 4793      5F7400
 4794              	.LASF131:
 4795 02a8 63684F51 		.ascii	"chOQWriteTimeout\000"
 4795      57726974 
 4795      6554696D 
 4795      656F7574 
 4795      00
 4796              	.LASF79:
 4797 02b9 77726974 		.ascii	"write\000"
 4797      6500
 4798              	.LASF119:
 4799 02bf 70757474 		.ascii	"putt\000"
 4799      00
 4800              	.LASF50:
 4801 02c4 73697A65 		.ascii	"sizetype\000"
 4801      74797065 
 4801      00
 4802              	.LASF68:
 4803 02cd 715F636F 		.ascii	"q_counter\000"
 4803      756E7465 
 4803      7200
 4804              	.LASF51:
 4805 02d7 4D757465 		.ascii	"Mutex\000"
 4805      7800
 4806              	.LASF27:
 4807 02dd 705F7072 		.ascii	"p_prio\000"
 4807      696F00
 4808              	.LASF58:
 4809 02e4 656C5F6D 		.ascii	"el_mask\000"
 4809      61736B00 
 4810              	.LASF30:
 4811 02ec 705F6F6C 		.ascii	"p_older\000"
 4811      64657200 
 4812              	.LASF85:
 4813 02f4 67657466 		.ascii	"getflags\000"
 4813      6C616773 
 4813      00
 4814              	.LASF77:
 4815 02fd 696F666C 		.ascii	"ioflags_t\000"
 4815      6167735F 
 4815      7400
 4816              	.LASF44:
 4817 0307 54687265 		.ascii	"ThreadsQueue\000"
 4817      61647351 
 4817      75657565 
 4817      00
 4818              	.LASF32:
 4819 0314 705F7374 		.ascii	"p_stklimit\000"
 4819      6B6C696D 
 4819      697400
 4820              	.LASF118:
 4821 031f 74696D65 		.ascii	"timeout\000"
 4821      6F757400 
 4822              	.LASF114:
 4823 0327 74696D65 		.ascii	"time\000"
ARM GAS  /var/folders/dt/0wfd0knj7gs46m8vwfzktm600000gn/T//ccfLNI7n.s 			page 89


 4823      00
 4824              	.LASF147:
 4825 032c 474E5520 		.ascii	"GNU C 4.7.2\000"
 4825      4320342E 
 4825      372E3200 
 4826              	.LASF128:
 4827 0338 6462675F 		.ascii	"dbg_check_lock\000"
 4827      63686563 
 4827      6B5F6C6F 
 4827      636B00
 4828              	.LASF129:
 4829 0347 6462675F 		.ascii	"dbg_check_unlock\000"
 4829      63686563 
 4829      6B5F756E 
 4829      6C6F636B 
 4829      00
 4830              	.LASF111:
 4831 0358 53657269 		.ascii	"SerialConfig\000"
 4831      616C436F 
 4831      6E666967 
 4831      00
 4832              	.LASF19:
 4833 0365 74726566 		.ascii	"trefs_t\000"
 4833      735F7400 
 4834              	.LASF89:
 4835 036d 52455345 		.ascii	"RESERVED0\000"
 4835      52564544 
 4835      3000
 4836              	.LASF90:
 4837 0377 52455345 		.ascii	"RESERVED1\000"
 4837      52564544 
 4837      3100
 4838              	.LASF91:
 4839 0381 52455345 		.ascii	"RESERVED2\000"
 4839      52564544 
 4839      3200
 4840              	.LASF92:
 4841 038b 52455345 		.ascii	"RESERVED3\000"
 4841      52564544 
 4841      3300
 4842              	.LASF93:
 4843 0395 52455345 		.ascii	"RESERVED4\000"
 4843      52564544 
 4843      3400
 4844              	.LASF26:
 4845 039f 705F7072 		.ascii	"p_prev\000"
 4845      657600
 4846              	.LASF96:
 4847 03a6 52455345 		.ascii	"RESERVED6\000"
 4847      52564544 
 4847      3600
 4848              	.LASF20:
 4849 03b0 74707269 		.ascii	"tprio_t\000"
 4849      6F5F7400 
 4850              	.LASF72:
 4851 03b8 715F7264 		.ascii	"q_rdptr\000"
 4851      70747200 
ARM GAS  /var/folders/dt/0wfd0knj7gs46m8vwfzktm600000gn/T//ccfLNI7n.s 			page 90


 4852              	.LASF8:
 4853 03c0 696E7433 		.ascii	"int32_t\000"
 4853      325F7400 
 4854              	.LASF4:
 4855 03c8 756E7369 		.ascii	"unsigned char\000"
 4855      676E6564 
 4855      20636861 
 4855      7200
 4856              	.LASF138:
 4857 03d6 73645F6C 		.ascii	"sd_lld_start\000"
 4857      6C645F73 
 4857      74617274 
 4857      00
 4858              	.LASF57:
 4859 03e3 656C5F6C 		.ascii	"el_listener\000"
 4859      69737465 
 4859      6E657200 
 4860              	.LASF33:
 4861 03ef 705F7374 		.ascii	"p_state\000"
 4861      61746500 
 4862              	.LASF41:
 4863 03f7 705F6D74 		.ascii	"p_mtxlist\000"
 4863      786C6973 
 4863      7400
 4864              	.LASF5:
 4865 0401 73686F72 		.ascii	"short int\000"
 4865      7420696E 
 4865      7400
 4866              	.LASF64:
 4867 040b 65776D61 		.ascii	"ewmask\000"
 4867      736B00
 4868              	.LASF25:
 4869 0412 705F6E65 		.ascii	"p_next\000"
 4869      787400
 4870              	.LASF34:
 4871 0419 705F666C 		.ascii	"p_flags\000"
 4871      61677300 
 4872              	.LASF56:
 4873 0421 656C5F6E 		.ascii	"el_next\000"
 4873      65787400 
 4874              	.LASF99:
 4875 0429 53445F53 		.ascii	"SD_STOP\000"
 4875      544F5000 
 4876              	.LASF24:
 4877 0431 54687265 		.ascii	"Thread\000"
 4877      616400
 4878              	.LASF40:
 4879 0438 705F6570 		.ascii	"p_epending\000"
 4879      656E6469 
 4879      6E6700
 4880              	.LASF98:
 4881 0443 53445F55 		.ascii	"SD_UNINIT\000"
 4881      4E494E49 
 4881      5400
 4882              	.LASF94:
 4883 044d 52455345 		.ascii	"RESERVED5\000"
 4883      52564544 
ARM GAS  /var/folders/dt/0wfd0knj7gs46m8vwfzktm600000gn/T//ccfLNI7n.s 			page 91


 4883      3500
 4884              	.LASF10:
 4885 0457 75696E74 		.ascii	"uint32_t\000"
 4885      33325F74 
 4885      00
 4886              	.LASF101:
 4887 0460 73647374 		.ascii	"sdstate_t\000"
 4887      6174655F 
 4887      7400
 4888              	.LASF102:
 4889 046a 53657269 		.ascii	"SerialDriver\000"
 4889      616C4472 
 4889      69766572 
 4889      00
 4890              	.LASF11:
 4891 0477 6C6F6E67 		.ascii	"long unsigned int\000"
 4891      20756E73 
 4891      69676E65 
 4891      6420696E 
 4891      7400
 4892              	.LASF80:
 4893 0489 72656164 		.ascii	"read\000"
 4893      00
 4894              	.LASF65:
 4895 048e 63686172 		.ascii	"char\000"
 4895      00
 4896              	.LASF127:
 4897 0493 7364496E 		.ascii	"sdIncomingDataI\000"
 4897      636F6D69 
 4897      6E674461 
 4897      74614900 
 4898              	.LASF125:
 4899 04a3 636F6E66 		.ascii	"config\000"
 4899      696700
 4900              	.LASF124:
 4901 04aa 73645374 		.ascii	"sdStart\000"
 4901      61727400 
 4902              	.LASF54:
 4903 04b2 6D5F6E65 		.ascii	"m_next\000"
 4903      787400
 4904              	.LASF23:
 4905 04b9 73797374 		.ascii	"systime_t\000"
 4905      696D655F 
 4905      7400
 4906              	.LASF42:
 4907 04c3 705F7265 		.ascii	"p_realprio\000"
 4907      616C7072 
 4907      696F00
 4908              	.LASF149:
 4909 04ce 2F746D70 		.ascii	"/tmp/mlab-chibios/demos/STM32F107-serialshell\000"
 4909      2F6D6C61 
 4909      622D6368 
 4909      6962696F 
 4909      732F6465 
 4910              	.LASF88:
 4911 04fc 42617365 		.ascii	"BaseAsynchronousChannel\000"
 4911      4173796E 
ARM GAS  /var/folders/dt/0wfd0knj7gs46m8vwfzktm600000gn/T//ccfLNI7n.s 			page 92


 4911      6368726F 
 4911      6E6F7573 
 4911      4368616E 
 4912              	.LASF49:
 4913 0514 636F6E74 		.ascii	"context\000"
 4913      65787400 
 4914              	.LASF55:
 4915 051c 4576656E 		.ascii	"EventListener\000"
 4915      744C6973 
 4915      74656E65 
 4915      7200
 4916              	.LASF48:
 4917 052a 696E7463 		.ascii	"intctx\000"
 4917      747800
 4918              	.LASF100:
 4919 0531 53445F52 		.ascii	"SD_READY\000"
 4919      45414459 
 4919      00
 4920              	.LASF70:
 4921 053a 715F746F 		.ascii	"q_top\000"
 4921      7000
 4922              	.LASF31:
 4923 0540 705F6E61 		.ascii	"p_name\000"
 4923      6D6500
 4924              	.LASF60:
 4925 0547 65735F6E 		.ascii	"es_next\000"
 4925      65787400 
 4926              	.LASF97:
 4927 054f 55534152 		.ascii	"USART_TypeDef\000"
 4927      545F5479 
 4927      70654465 
 4927      6600
 4928              	.LASF73:
 4929 055d 715F6E6F 		.ascii	"q_notify\000"
 4929      74696679 
 4929      00
 4930              	.LASF39:
 4931 0566 705F6D73 		.ascii	"p_msg\000"
 4931      6700
 4932              	.LASF150:
 4933 056c 73645265 		.ascii	"sdRequestDataI\000"
 4933      71756573 
 4933      74446174 
 4933      614900
 4934              	.LASF3:
 4935 057b 75696E74 		.ascii	"uint8_t\000"
 4935      385F7400 
 4936              	.LASF148:
 4937 0583 2E2E2F2E 		.ascii	"../../os/hal/src/serial.c\000"
 4937      2E2F6F73 
 4937      2F68616C 
 4937      2F737263 
 4937      2F736572 
 4938              	.LASF87:
 4939 059d 666C6167 		.ascii	"flags\000"
 4939      7300
 4940              	.LASF123:
ARM GAS  /var/folders/dt/0wfd0knj7gs46m8vwfzktm600000gn/T//ccfLNI7n.s 			page 93


 4941 05a3 6F6E6F74 		.ascii	"onotify\000"
 4941      69667900 
 4942              	.LASF140:
 4943 05ab 63684F51 		.ascii	"chOQResetI\000"
 4943      52657365 
 4943      744900
 4944              	.LASF63:
 4945 05b6 77746F62 		.ascii	"wtobjp\000"
 4945      6A7000
 4946              	.LASF139:
 4947 05bd 73645F6C 		.ascii	"sd_lld_stop\000"
 4947      6C645F73 
 4947      746F7000 
 4948              	.LASF82:
 4949 05c9 67657477 		.ascii	"getwouldblock\000"
 4949      6F756C64 
 4949      626C6F63 
 4949      6B00
 4950              	.LASF108:
 4951 05d7 73635F63 		.ascii	"sc_cr1\000"
 4951      723100
 4952              	.LASF109:
 4953 05de 73635F63 		.ascii	"sc_cr2\000"
 4953      723200
 4954              	.LASF110:
 4955 05e5 73635F63 		.ascii	"sc_cr3\000"
 4955      723300
 4956              	.LASF120:
 4957 05ec 7364496E 		.ascii	"sdInit\000"
 4957      697400
 4958              	.LASF135:
 4959 05f3 63684951 		.ascii	"chIQInit\000"
 4959      496E6974 
 4959      00
 4960              	.LASF53:
 4961 05fc 6D5F6F77 		.ascii	"m_owner\000"
 4961      6E657200 
 4962              	.LASF28:
 4963 0604 705F6374 		.ascii	"p_ctx\000"
 4963      7800
 4964              	.LASF37:
 4965 060a 705F7761 		.ascii	"p_waiting\000"
 4965      6974696E 
 4965      6700
 4966              	.LASF132:
 4967 0614 63684951 		.ascii	"chIQGetTimeout\000"
 4967      47657454 
 4967      696D656F 
 4967      757400
 4968              		.ident	"GCC: (GNU) 4.7.2"
ARM GAS  /var/folders/dt/0wfd0knj7gs46m8vwfzktm600000gn/T//ccfLNI7n.s 			page 94


DEFINED SYMBOLS
                            *ABS*:0000000000000000 serial.c
/var/folders/dt/0wfd0knj7gs46m8vwfzktm600000gn/T//ccfLNI7n.s:19     .text.putwouldblock:0000000000000000 $t
/var/folders/dt/0wfd0knj7gs46m8vwfzktm600000gn/T//ccfLNI7n.s:24     .text.putwouldblock:0000000000000000 putwouldblock
/var/folders/dt/0wfd0knj7gs46m8vwfzktm600000gn/T//ccfLNI7n.s:45     .text.getwouldblock:0000000000000000 $t
/var/folders/dt/0wfd0knj7gs46m8vwfzktm600000gn/T//ccfLNI7n.s:50     .text.getwouldblock:0000000000000000 getwouldblock
/var/folders/dt/0wfd0knj7gs46m8vwfzktm600000gn/T//ccfLNI7n.s:70     .text.getflags:0000000000000000 $t
/var/folders/dt/0wfd0knj7gs46m8vwfzktm600000gn/T//ccfLNI7n.s:75     .text.getflags:0000000000000000 getflags
/var/folders/dt/0wfd0knj7gs46m8vwfzktm600000gn/T//ccfLNI7n.s:128    .text.readt:0000000000000000 $t
/var/folders/dt/0wfd0knj7gs46m8vwfzktm600000gn/T//ccfLNI7n.s:133    .text.readt:0000000000000000 readt
/var/folders/dt/0wfd0knj7gs46m8vwfzktm600000gn/T//ccfLNI7n.s:152    .text.reads:0000000000000000 $t
/var/folders/dt/0wfd0knj7gs46m8vwfzktm600000gn/T//ccfLNI7n.s:157    .text.reads:0000000000000000 reads
/var/folders/dt/0wfd0knj7gs46m8vwfzktm600000gn/T//ccfLNI7n.s:177    .text.writet:0000000000000000 $t
/var/folders/dt/0wfd0knj7gs46m8vwfzktm600000gn/T//ccfLNI7n.s:182    .text.writet:0000000000000000 writet
/var/folders/dt/0wfd0knj7gs46m8vwfzktm600000gn/T//ccfLNI7n.s:201    .text.writes:0000000000000000 $t
/var/folders/dt/0wfd0knj7gs46m8vwfzktm600000gn/T//ccfLNI7n.s:206    .text.writes:0000000000000000 writes
/var/folders/dt/0wfd0knj7gs46m8vwfzktm600000gn/T//ccfLNI7n.s:226    .text.gett:0000000000000000 $t
/var/folders/dt/0wfd0knj7gs46m8vwfzktm600000gn/T//ccfLNI7n.s:231    .text.gett:0000000000000000 gett
/var/folders/dt/0wfd0knj7gs46m8vwfzktm600000gn/T//ccfLNI7n.s:250    .text.putt:0000000000000000 $t
/var/folders/dt/0wfd0knj7gs46m8vwfzktm600000gn/T//ccfLNI7n.s:255    .text.putt:0000000000000000 putt
/var/folders/dt/0wfd0knj7gs46m8vwfzktm600000gn/T//ccfLNI7n.s:274    .text.sdInit:0000000000000000 $t
/var/folders/dt/0wfd0knj7gs46m8vwfzktm600000gn/T//ccfLNI7n.s:280    .text.sdInit:0000000000000000 sdInit
/var/folders/dt/0wfd0knj7gs46m8vwfzktm600000gn/T//ccfLNI7n.s:295    .text.sdObjectInit:0000000000000000 $t
/var/folders/dt/0wfd0knj7gs46m8vwfzktm600000gn/T//ccfLNI7n.s:301    .text.sdObjectInit:0000000000000000 sdObjectInit
/var/folders/dt/0wfd0knj7gs46m8vwfzktm600000gn/T//ccfLNI7n.s:708    .rodata.vmt:0000000000000000 .LANCHOR0
/var/folders/dt/0wfd0knj7gs46m8vwfzktm600000gn/T//ccfLNI7n.s:361    .text.sdStart:0000000000000000 $t
/var/folders/dt/0wfd0knj7gs46m8vwfzktm600000gn/T//ccfLNI7n.s:367    .text.sdStart:0000000000000000 sdStart
/var/folders/dt/0wfd0knj7gs46m8vwfzktm600000gn/T//ccfLNI7n.s:443    .text.sdStart:0000000000000040 $d
/var/folders/dt/0wfd0knj7gs46m8vwfzktm600000gn/T//ccfLNI7n.s:449    .text.sdStop:0000000000000000 $t
/var/folders/dt/0wfd0knj7gs46m8vwfzktm600000gn/T//ccfLNI7n.s:455    .text.sdStop:0000000000000000 sdStop
/var/folders/dt/0wfd0knj7gs46m8vwfzktm600000gn/T//ccfLNI7n.s:536    .text.sdStop:0000000000000050 $d
/var/folders/dt/0wfd0knj7gs46m8vwfzktm600000gn/T//ccfLNI7n.s:542    .text.sdIncomingDataI:0000000000000000 $t
/var/folders/dt/0wfd0knj7gs46m8vwfzktm600000gn/T//ccfLNI7n.s:548    .text.sdIncomingDataI:0000000000000000 sdIncomingDataI
/var/folders/dt/0wfd0knj7gs46m8vwfzktm600000gn/T//ccfLNI7n.s:620    .text.sdIncomingDataI:000000000000005c $d
/var/folders/dt/0wfd0knj7gs46m8vwfzktm600000gn/T//ccfLNI7n.s:625    .text.sdRequestDataI:0000000000000000 $t
/var/folders/dt/0wfd0knj7gs46m8vwfzktm600000gn/T//ccfLNI7n.s:631    .text.sdRequestDataI:0000000000000000 sdRequestDataI
/var/folders/dt/0wfd0knj7gs46m8vwfzktm600000gn/T//ccfLNI7n.s:685    .text.sdRequestDataI:0000000000000038 $d
/var/folders/dt/0wfd0knj7gs46m8vwfzktm600000gn/T//ccfLNI7n.s:690    .rodata.str1.4:0000000000000000 $d
/var/folders/dt/0wfd0knj7gs46m8vwfzktm600000gn/T//ccfLNI7n.s:707    .rodata.vmt:0000000000000000 $d
/var/folders/dt/0wfd0knj7gs46m8vwfzktm600000gn/T//ccfLNI7n.s:711    .rodata.vmt:0000000000000000 vmt
                     .debug_frame:0000000000000010 $d
/var/folders/dt/0wfd0knj7gs46m8vwfzktm600000gn/T//ccfLNI7n.s:448    .text.sdStart:0000000000000048 $t
/var/folders/dt/0wfd0knj7gs46m8vwfzktm600000gn/T//ccfLNI7n.s:541    .text.sdStop:0000000000000058 $t
/var/folders/dt/0wfd0knj7gs46m8vwfzktm600000gn/T//ccfLNI7n.s:689    .text.sdRequestDataI:000000000000003c $t

UNDEFINED SYMBOLS
dbg_check_lock
dbg_check_unlock
chIQReadTimeout
chOQWriteTimeout
chIQGetTimeout
chOQPutTimeout
sd_lld_init
chIQInit
chOQInit
chDbgPanic
sd_lld_start
ARM GAS  /var/folders/dt/0wfd0knj7gs46m8vwfzktm600000gn/T//ccfLNI7n.s 			page 95


sd_lld_stop
chOQResetI
chIQResetI
chSchRescheduleS
chDbgCheckClassI
chIQPutI
chEvtBroadcastFlagsI
chOQGetI
