ARM GAS  /var/folders/dt/0wfd0knj7gs46m8vwfzktm600000gn/T//ccfLNI7n.s 			page 1


   1              		.syntax unified
   2              		.cpu cortex-m3
   3              		.fpu softvfp
   4              		.eabi_attribute 20, 1
   5              		.eabi_attribute 21, 1
   6              		.eabi_attribute 23, 3
   7              		.eabi_attribute 24, 1
   8              		.eabi_attribute 25, 1
   9              		.eabi_attribute 26, 1
  10              		.eabi_attribute 30, 2
  11              		.eabi_attribute 34, 1
  12              		.eabi_attribute 18, 4
  13              		.thumb
  14              		.file	"serial.c"
  15              		.text
  16              	.Ltext0:
  17              		.cfi_sections	.debug_frame
  18              		.section	.text.putwouldblock,"ax",%progbits
  19              		.align	2
  20              		.p2align 4,,15
  21              		.thumb
  22              		.thumb_func
  23              		.type	putwouldblock, %function
  24              	putwouldblock:
  25              	.LFB64:
  26              		.file 1 "../../os/hal/src/serial.c"
  27              		.loc 1 74 0
  28              		.cfi_startproc
  29              		@ args = 0, pretend = 0, frame = 0
  30              		@ frame_needed = 0, uses_anonymous_args = 0
  31              		@ link register save eliminated.
  32              	.LVL0:
  33              		.loc 1 76 0
  34 0000 806B     		ldr	r0, [r0, #56]
  35              	.LVL1:
  36              		.loc 1 77 0
  37 0002 D0F10100 		rsbs	r0, r0, #1
  38 0006 38BF     		it	cc
  39 0008 0020     		movcc	r0, #0
  40 000a 7047     		bx	lr
  41              		.cfi_endproc
  42              	.LFE64:
  43              		.size	putwouldblock, .-putwouldblock
  44 000c AFF30080 		.section	.text.getwouldblock,"ax",%progbits
  45              		.align	2
  46              		.p2align 4,,15
  47              		.thumb
  48              		.thumb_func
  49              		.type	getwouldblock, %function
  50              	getwouldblock:
  51              	.LFB65:
  52              		.loc 1 79 0
  53              		.cfi_startproc
  54              		@ args = 0, pretend = 0, frame = 0
  55              		@ frame_needed = 0, uses_anonymous_args = 0
  56              		@ link register save eliminated.
  57              	.LVL2:
ARM GAS  /var/folders/dt/0wfd0knj7gs46m8vwfzktm600000gn/T//ccfLNI7n.s 			page 2


  58              		.loc 1 81 0
  59 0000 8069     		ldr	r0, [r0, #24]
  60              	.LVL3:
  61              		.loc 1 82 0
  62 0002 D0F10100 		rsbs	r0, r0, #1
  63 0006 38BF     		it	cc
  64 0008 0020     		movcc	r0, #0
  65 000a 7047     		bx	lr
  66              		.cfi_endproc
  67              	.LFE65:
  68              		.size	getwouldblock, .-getwouldblock
  69              		.section	.text.getflags,"ax",%progbits
  70              		.align	2
  71              		.p2align 4,,15
  72              		.thumb
  73              		.thumb_func
  74              		.type	getflags, %function
  75              	getflags:
  76              	.LFB70:
  77              		.loc 1 104 0
  78              		.cfi_startproc
  79              		@ args = 0, pretend = 0, frame = 0
  80              		@ frame_needed = 0, uses_anonymous_args = 0
  81              	.LVL4:
  82 0000 70B5     		push	{r4, r5, r6, lr}
  83              	.LCFI0:
  84              		.cfi_def_cfa_offset 16
  85              		.cfi_offset 4, -16
  86              		.cfi_offset 5, -12
  87              		.cfi_offset 6, -8
  88              		.cfi_offset 14, -4
  89              	.LBB2:
  90              		.loc 1 105 0
  91 0002 2023     		movs	r3, #32
  92              	.LVL5:
  93              	.LBE2:
  94              		.loc 1 104 0
  95 0004 0546     		mov	r5, r0
  96              	.LBB3:
  97              		.loc 1 105 0
  98              	@ 105 "../../os/hal/src/serial.c" 1
  99 0006 83F31188 		msr     BASEPRI, r3
 100              	@ 0 "" 2
 101              	.LVL6:
 102              		.thumb
 103              	.LBE3:
 104 000a 0024     		movs	r4, #0
 105 000c FFF7FEFF 		bl	dbg_check_lock
 106              	.LVL7:
 107 0010 AE68     		ldr	r6, [r5, #8]
 108              	.LVL8:
 109 0012 AC60     		str	r4, [r5, #8]
 110 0014 FFF7FEFF 		bl	dbg_check_unlock
 111              	.LVL9:
 112              	.LBB4:
 113 0018 2346     		mov	r3, r4
 114              	.LVL10:
ARM GAS  /var/folders/dt/0wfd0knj7gs46m8vwfzktm600000gn/T//ccfLNI7n.s 			page 3


 115              	@ 105 "../../os/hal/src/serial.c" 1
 116 001a 83F31188 		msr     BASEPRI, r3
 117              	@ 0 "" 2
 118              	.LVL11:
 119              		.thumb
 120              	.LBE4:
 121              		.loc 1 106 0
 122 001e 3046     		mov	r0, r6
 123 0020 70BD     		pop	{r4, r5, r6, pc}
 124              		.cfi_endproc
 125              	.LFE70:
 126              		.size	getflags, .-getflags
 127 0022 00BFAFF3 		.section	.text.readt,"ax",%progbits
 127      0080AFF3 
 127      0080AFF3 
 127      0080
 128              		.align	2
 129              		.p2align 4,,15
 130              		.thumb
 131              		.thumb_func
 132              		.type	readt, %function
 133              	readt:
 134              	.LFB69:
 135              		.loc 1 99 0
 136              		.cfi_startproc
 137              		@ args = 0, pretend = 0, frame = 0
 138              		@ frame_needed = 0, uses_anonymous_args = 0
 139              		@ link register save eliminated.
 140              	.LVL12:
 141              		.loc 1 101 0
 142 0000 1030     		adds	r0, r0, #16
 143              	.LVL13:
 144              		.loc 1 102 0
 145              		.loc 1 101 0
 146 0002 FFF7FEBF 		b	chIQReadTimeout
 147              	.LVL14:
 148              		.cfi_endproc
 149              	.LFE69:
 150              		.size	readt, .-readt
 151 0006 00BFAFF3 		.section	.text.reads,"ax",%progbits
 151      0080AFF3 
 151      0080
 152              		.align	2
 153              		.p2align 4,,15
 154              		.thumb
 155              		.thumb_func
 156              		.type	reads, %function
 157              	reads:
 158              	.LFB63:
 159              		.loc 1 68 0
 160              		.cfi_startproc
 161              		@ args = 0, pretend = 0, frame = 0
 162              		@ frame_needed = 0, uses_anonymous_args = 0
 163              		@ link register save eliminated.
 164              	.LVL15:
 165              		.loc 1 70 0
 166 0000 1030     		adds	r0, r0, #16
ARM GAS  /var/folders/dt/0wfd0knj7gs46m8vwfzktm600000gn/T//ccfLNI7n.s 			page 4


 167              	.LVL16:
 168 0002 4FF0FF33 		mov	r3, #-1
 169              		.loc 1 72 0
 170              		.loc 1 70 0
 171 0006 FFF7FEBF 		b	chIQReadTimeout
 172              	.LVL17:
 173              		.cfi_endproc
 174              	.LFE63:
 175              		.size	reads, .-reads
 176 000a 00BFAFF3 		.section	.text.writet,"ax",%progbits
 176      0080
 177              		.align	2
 178              		.p2align 4,,15
 179              		.thumb
 180              		.thumb_func
 181              		.type	writet, %function
 182              	writet:
 183              	.LFB68:
 184              		.loc 1 94 0
 185              		.cfi_startproc
 186              		@ args = 0, pretend = 0, frame = 0
 187              		@ frame_needed = 0, uses_anonymous_args = 0
 188              		@ link register save eliminated.
 189              	.LVL18:
 190              		.loc 1 96 0
 191 0000 3030     		adds	r0, r0, #48
 192              	.LVL19:
 193              		.loc 1 97 0
 194              		.loc 1 96 0
 195 0002 FFF7FEBF 		b	chOQWriteTimeout
 196              	.LVL20:
 197              		.cfi_endproc
 198              	.LFE68:
 199              		.size	writet, .-writet
 200 0006 00BFAFF3 		.section	.text.writes,"ax",%progbits
 200      0080AFF3 
 200      0080
 201              		.align	2
 202              		.p2align 4,,15
 203              		.thumb
 204              		.thumb_func
 205              		.type	writes, %function
 206              	writes:
 207              	.LFB62:
 208              		.loc 1 62 0
 209              		.cfi_startproc
 210              		@ args = 0, pretend = 0, frame = 0
 211              		@ frame_needed = 0, uses_anonymous_args = 0
 212              		@ link register save eliminated.
 213              	.LVL21:
 214              		.loc 1 64 0
 215 0000 3030     		adds	r0, r0, #48
 216              	.LVL22:
 217 0002 4FF0FF33 		mov	r3, #-1
 218              		.loc 1 66 0
 219              		.loc 1 64 0
 220 0006 FFF7FEBF 		b	chOQWriteTimeout
ARM GAS  /var/folders/dt/0wfd0knj7gs46m8vwfzktm600000gn/T//ccfLNI7n.s 			page 5


 221              	.LVL23:
 222              		.cfi_endproc
 223              	.LFE62:
 224              		.size	writes, .-writes
 225 000a 00BFAFF3 		.section	.text.gett,"ax",%progbits
 225      0080
 226              		.align	2
 227              		.p2align 4,,15
 228              		.thumb
 229              		.thumb_func
 230              		.type	gett, %function
 231              	gett:
 232              	.LFB67:
 233              		.loc 1 89 0
 234              		.cfi_startproc
 235              		@ args = 0, pretend = 0, frame = 0
 236              		@ frame_needed = 0, uses_anonymous_args = 0
 237              		@ link register save eliminated.
 238              	.LVL24:
 239              		.loc 1 91 0
 240 0000 1030     		adds	r0, r0, #16
 241              	.LVL25:
 242              		.loc 1 92 0
 243              		.loc 1 91 0
 244 0002 FFF7FEBF 		b	chIQGetTimeout
 245              	.LVL26:
 246              		.cfi_endproc
 247              	.LFE67:
 248              		.size	gett, .-gett
 249 0006 00BFAFF3 		.section	.text.putt,"ax",%progbits
 249      0080AFF3 
 249      0080
 250              		.align	2
 251              		.p2align 4,,15
 252              		.thumb
 253              		.thumb_func
 254              		.type	putt, %function
 255              	putt:
 256              	.LFB66:
 257              		.loc 1 84 0
 258              		.cfi_startproc
 259              		@ args = 0, pretend = 0, frame = 0
 260              		@ frame_needed = 0, uses_anonymous_args = 0
 261              		@ link register save eliminated.
 262              	.LVL27:
 263              		.loc 1 86 0
 264 0000 3030     		adds	r0, r0, #48
 265              	.LVL28:
 266              		.loc 1 87 0
 267              		.loc 1 86 0
 268 0002 FFF7FEBF 		b	chOQPutTimeout
 269              	.LVL29:
 270              		.cfi_endproc
 271              	.LFE66:
 272              		.size	putt, .-putt
 273 0006 00BFAFF3 		.section	.text.sdInit,"ax",%progbits
 273      0080AFF3 
ARM GAS  /var/folders/dt/0wfd0knj7gs46m8vwfzktm600000gn/T//ccfLNI7n.s 			page 6


 273      0080
 274              		.align	2
 275              		.p2align 4,,15
 276              		.global	sdInit
 277              		.thumb
 278              		.thumb_func
 279              		.type	sdInit, %function
 280              	sdInit:
 281              	.LFB71:
 282              		.loc 1 125 0
 283              		.cfi_startproc
 284              		@ args = 0, pretend = 0, frame = 0
 285              		@ frame_needed = 0, uses_anonymous_args = 0
 286              		@ link register save eliminated.
 287              		.loc 1 128 0
 288              		.loc 1 127 0
 289 0000 FFF7FEBF 		b	sd_lld_init
 290              	.LVL30:
 291              		.cfi_endproc
 292              	.LFE71:
 293              		.size	sdInit, .-sdInit
 294 0004 AFF30080 		.section	.text.sdObjectInit,"ax",%progbits
 294      AFF30080 
 294      AFF30080 
 295              		.align	2
 296              		.p2align 4,,15
 297              		.global	sdObjectInit
 298              		.thumb
 299              		.thumb_func
 300              		.type	sdObjectInit, %function
 301              	sdObjectInit:
 302              	.LFB72:
 303              		.loc 1 145 0
 304              		.cfi_startproc
 305              		@ args = 0, pretend = 0, frame = 0
 306              		@ frame_needed = 0, uses_anonymous_args = 0
 307              	.LVL31:
 308 0000 0B46     		mov	r3, r1
 309              		.loc 1 147 0
 310 0002 40F20001 		movw	r1, #:lower16:.LANCHOR0
 311              	.LVL32:
 312              		.loc 1 145 0
 313 0006 70B5     		push	{r4, r5, r6, lr}
 314              	.LCFI1:
 315              		.cfi_def_cfa_offset 16
 316              		.cfi_offset 4, -16
 317              		.cfi_offset 5, -12
 318              		.cfi_offset 6, -8
 319              		.cfi_offset 14, -4
 320              		.loc 1 147 0
 321 0008 C0F20001 		movt	r1, #:upper16:.LANCHOR0
 322 000c 0546     		mov	r5, r0
 323              		.loc 1 145 0
 324 000e 0446     		mov	r4, r0
 325              		.loc 1 147 0
 326 0010 45F8041B 		str	r1, [r5], #4
 327              		.loc 1 148 0
ARM GAS  /var/folders/dt/0wfd0knj7gs46m8vwfzktm600000gn/T//ccfLNI7n.s 			page 7


 328 0014 6560     		str	r5, [r4, #4]
 329              		.loc 1 149 0
 330 0016 0025     		movs	r5, #0
 331 0018 A560     		str	r5, [r4, #8]
 332              		.loc 1 150 0
 333 001a 0125     		movs	r5, #1
 334              		.loc 1 145 0
 335 001c 1646     		mov	r6, r2
 336              		.loc 1 151 0
 337 001e 04F15001 		add	r1, r4, #80
 338 0022 1022     		movs	r2, #16
 339              	.LVL33:
 340 0024 00F11000 		add	r0, r0, #16
 341              	.LVL34:
 342              		.loc 1 150 0
 343 0028 2573     		strb	r5, [r4, #12]
 344              		.loc 1 151 0
 345 002a FFF7FEFF 		bl	chIQInit
 346              	.LVL35:
 347              		.loc 1 152 0
 348 002e 04F13000 		add	r0, r4, #48
 349 0032 04F16001 		add	r1, r4, #96
 350 0036 1022     		movs	r2, #16
 351 0038 3346     		mov	r3, r6
 352              		.loc 1 153 0
 353 003a BDE87040 		pop	{r4, r5, r6, lr}
 354              		.loc 1 152 0
 355 003e FFF7FEBF 		b	chOQInit
 356              	.LVL36:
 357              		.cfi_endproc
 358              	.LFE72:
 359              		.size	sdObjectInit, .-sdObjectInit
 360 0042 00BFAFF3 		.section	.text.sdStart,"ax",%progbits
 360      0080AFF3 
 360      0080AFF3 
 360      0080
 361              		.align	2
 362              		.p2align 4,,15
 363              		.global	sdStart
 364              		.thumb
 365              		.thumb_func
 366              		.type	sdStart, %function
 367              	sdStart:
 368              	.LFB73:
 369              		.loc 1 165 0
 370              		.cfi_startproc
 371              		@ args = 0, pretend = 0, frame = 0
 372              		@ frame_needed = 0, uses_anonymous_args = 0
 373              	.LVL37:
 374 0000 38B5     		push	{r3, r4, r5, lr}
 375              	.LCFI2:
 376              		.cfi_def_cfa_offset 16
 377              		.cfi_offset 3, -16
 378              		.cfi_offset 4, -12
 379              		.cfi_offset 5, -8
 380              		.cfi_offset 14, -4
 381              		.loc 1 167 0
ARM GAS  /var/folders/dt/0wfd0knj7gs46m8vwfzktm600000gn/T//ccfLNI7n.s 			page 8


 382 0002 0446     		mov	r4, r0
 383              		.loc 1 165 0
 384 0004 0D46     		mov	r5, r1
 385              		.loc 1 167 0
 386 0006 B8B1     		cbz	r0, .L16
 387              	.LVL38:
 388              	.L13:
 389              	.LBB5:
 390              		.loc 1 169 0
 391 0008 2023     		movs	r3, #32
 392              	.LVL39:
 393              	@ 169 "../../os/hal/src/serial.c" 1
 394 000a 83F31188 		msr     BASEPRI, r3
 395              	@ 0 "" 2
 396              	.LVL40:
 397              		.thumb
 398              	.LBE5:
 399 000e FFF7FEFF 		bl	dbg_check_lock
 400              	.LVL41:
 401              		.loc 1 170 0
 402 0012 237B     		ldrb	r3, [r4, #12]	@ zero_extendqisi2
 403 0014 013B     		subs	r3, r3, #1
 404 0016 012B     		cmp	r3, #1
 405 0018 02D9     		bls	.L14
 406              		.loc 1 170 0 is_stmt 0 discriminator 1
 407 001a 0948     		ldr	r0, .L17
 408 001c FFF7FEFF 		bl	chDbgPanic
 409              	.LVL42:
 410              	.L14:
 411              		.loc 1 173 0 is_stmt 1
 412 0020 2046     		mov	r0, r4
 413 0022 2946     		mov	r1, r5
 414 0024 FFF7FEFF 		bl	sd_lld_start
 415              	.LVL43:
 416              		.loc 1 174 0
 417 0028 0223     		movs	r3, #2
 418 002a 2373     		strb	r3, [r4, #12]
 419              		.loc 1 175 0
 420 002c FFF7FEFF 		bl	dbg_check_unlock
 421              	.LVL44:
 422              	.LBB6:
 423 0030 0023     		movs	r3, #0
 424              	.LVL45:
 425              	@ 175 "../../os/hal/src/serial.c" 1
 426 0032 83F31188 		msr     BASEPRI, r3
 427              	@ 0 "" 2
 428              	.LVL46:
 429              		.thumb
 430 0036 38BD     		pop	{r3, r4, r5, pc}
 431              	.LVL47:
 432              	.L16:
 433              	.LBE6:
 434              		.loc 1 167 0 discriminator 1
 435 0038 0248     		ldr	r0, .L17+4
 436              	.LVL48:
 437 003a FFF7FEFF 		bl	chDbgPanic
 438              	.LVL49:
ARM GAS  /var/folders/dt/0wfd0knj7gs46m8vwfzktm600000gn/T//ccfLNI7n.s 			page 9


 439 003e E3E7     		b	.L13
 440              	.L18:
 441              		.align	2
 442              	.L17:
 443 0040 0C000000 		.word	.LC1
 444 0044 00000000 		.word	.LC0
 445              		.cfi_endproc
 446              	.LFE73:
 447              		.size	sdStart, .-sdStart
 448 0048 AFF30080 		.section	.text.sdStop,"ax",%progbits
 448      AFF30080 
 449              		.align	2
 450              		.p2align 4,,15
 451              		.global	sdStop
 452              		.thumb
 453              		.thumb_func
 454              		.type	sdStop, %function
 455              	sdStop:
 456              	.LFB74:
 457              		.loc 1 187 0
 458              		.cfi_startproc
 459              		@ args = 0, pretend = 0, frame = 0
 460              		@ frame_needed = 0, uses_anonymous_args = 0
 461              	.LVL50:
 462 0000 10B5     		push	{r4, lr}
 463              	.LCFI3:
 464              		.cfi_def_cfa_offset 8
 465              		.cfi_offset 4, -8
 466              		.cfi_offset 14, -4
 467              		.loc 1 189 0
 468 0002 0446     		mov	r4, r0
 469 0004 00B3     		cbz	r0, .L22
 470              	.LVL51:
 471              	.L20:
 472              	.LBB7:
 473              		.loc 1 191 0
 474 0006 2023     		movs	r3, #32
 475              	.LVL52:
 476              	@ 191 "../../os/hal/src/serial.c" 1
 477 0008 83F31188 		msr     BASEPRI, r3
 478              	@ 0 "" 2
 479              	.LVL53:
 480              		.thumb
 481              	.LBE7:
 482 000c FFF7FEFF 		bl	dbg_check_lock
 483              	.LVL54:
 484              		.loc 1 192 0
 485 0010 237B     		ldrb	r3, [r4, #12]	@ zero_extendqisi2
 486 0012 013B     		subs	r3, r3, #1
 487 0014 012B     		cmp	r3, #1
 488 0016 02D9     		bls	.L21
 489              		.loc 1 192 0 is_stmt 0 discriminator 1
 490 0018 0D48     		ldr	r0, .L23
 491 001a FFF7FEFF 		bl	chDbgPanic
 492              	.LVL55:
 493              	.L21:
 494              		.loc 1 195 0 is_stmt 1
ARM GAS  /var/folders/dt/0wfd0knj7gs46m8vwfzktm600000gn/T//ccfLNI7n.s 			page 10


 495 001e 2046     		mov	r0, r4
 496 0020 FFF7FEFF 		bl	sd_lld_stop
 497              	.LVL56:
 498              		.loc 1 196 0
 499 0024 0123     		movs	r3, #1
 500 0026 2373     		strb	r3, [r4, #12]
 501              		.loc 1 197 0
 502 0028 04F13000 		add	r0, r4, #48
 503 002c FFF7FEFF 		bl	chOQResetI
 504              	.LVL57:
 505              		.loc 1 198 0
 506 0030 04F11000 		add	r0, r4, #16
 507 0034 FFF7FEFF 		bl	chIQResetI
 508              	.LVL58:
 509              		.loc 1 199 0
 510 0038 FFF7FEFF 		bl	chSchRescheduleS
 511              	.LVL59:
 512              		.loc 1 200 0
 513 003c FFF7FEFF 		bl	dbg_check_unlock
 514              	.LVL60:
 515              	.LBB8:
 516 0040 0023     		movs	r3, #0
 517              	.LVL61:
 518              	@ 200 "../../os/hal/src/serial.c" 1
 519 0042 83F31188 		msr     BASEPRI, r3
 520              	@ 0 "" 2
 521              	.LVL62:
 522              		.thumb
 523 0046 10BD     		pop	{r4, pc}
 524              	.LVL63:
 525              	.L22:
 526              	.LBE8:
 527              		.loc 1 189 0 discriminator 1
 528 0048 0248     		ldr	r0, .L23+4
 529              	.LVL64:
 530 004a FFF7FEFF 		bl	chDbgPanic
 531              	.LVL65:
 532 004e DAE7     		b	.L20
 533              	.L24:
 534              		.align	2
 535              	.L23:
 536 0050 28000000 		.word	.LC3
 537 0054 1C000000 		.word	.LC2
 538              		.cfi_endproc
 539              	.LFE74:
 540              		.size	sdStop, .-sdStop
 541 0058 AFF30080 		.section	.text.sdIncomingDataI,"ax",%progbits
 541      AFF30080 
 542              		.align	2
 543              		.p2align 4,,15
 544              		.global	sdIncomingDataI
 545              		.thumb
 546              		.thumb_func
 547              		.type	sdIncomingDataI, %function
 548              	sdIncomingDataI:
 549              	.LFB75:
 550              		.loc 1 219 0
ARM GAS  /var/folders/dt/0wfd0knj7gs46m8vwfzktm600000gn/T//ccfLNI7n.s 			page 11


 551              		.cfi_startproc
 552              		@ args = 0, pretend = 0, frame = 0
 553              		@ frame_needed = 0, uses_anonymous_args = 0
 554              	.LVL66:
 555 0000 38B5     		push	{r3, r4, r5, lr}
 556              	.LCFI4:
 557              		.cfi_def_cfa_offset 16
 558              		.cfi_offset 3, -16
 559              		.cfi_offset 4, -12
 560              		.cfi_offset 5, -8
 561              		.cfi_offset 14, -4
 562              		.loc 1 219 0
 563 0002 0446     		mov	r4, r0
 564 0004 0D46     		mov	r5, r1
 565              		.loc 1 221 0
 566 0006 FFF7FEFF 		bl	chDbgCheckClassI
 567              	.LVL67:
 568              		.loc 1 222 0
 569 000a 002C     		cmp	r4, #0
 570 000c 21D0     		beq	.L29
 571              	.L26:
 572              		.loc 1 224 0
 573 000e A169     		ldr	r1, [r4, #24]
 574 0010 39B1     		cbz	r1, .L30
 575              		.loc 1 226 0
 576 0012 04F11000 		add	r0, r4, #16
 577 0016 2946     		mov	r1, r5
 578 0018 FFF7FEFF 		bl	chIQPutI
 579              	.LVL68:
 580 001c 0028     		cmp	r0, #0
 581 001e 0EDB     		blt	.L31
 582              	.L25:
 583 0020 38BD     		pop	{r3, r4, r5, pc}
 584              	.L30:
 585              		.loc 1 225 0
 586 0022 A268     		ldr	r2, [r4, #8]
 587 0024 201D     		adds	r0, r4, #4
 588 0026 42F00402 		orr	r2, r2, #4
 589 002a A260     		str	r2, [r4, #8]
 590 002c FFF7FEFF 		bl	chEvtBroadcastFlagsI
 591              	.LVL69:
 592              		.loc 1 226 0
 593 0030 04F11000 		add	r0, r4, #16
 594 0034 2946     		mov	r1, r5
 595 0036 FFF7FEFF 		bl	chIQPutI
 596              	.LVL70:
 597 003a 0028     		cmp	r0, #0
 598 003c F0DA     		bge	.L25
 599              	.L31:
 600              		.loc 1 227 0
 601 003e A368     		ldr	r3, [r4, #8]
 602 0040 201D     		adds	r0, r4, #4
 603 0042 43F08003 		orr	r3, r3, #128
 604 0046 0021     		movs	r1, #0
 605 0048 A360     		str	r3, [r4, #8]
 606              		.loc 1 228 0
 607 004a BDE83840 		pop	{r3, r4, r5, lr}
ARM GAS  /var/folders/dt/0wfd0knj7gs46m8vwfzktm600000gn/T//ccfLNI7n.s 			page 12


 608              		.loc 1 227 0
 609 004e FFF7FEBF 		b	chEvtBroadcastFlagsI
 610              	.LVL71:
 611              	.L29:
 612              		.loc 1 222 0 discriminator 1
 613 0052 0248     		ldr	r0, .L32
 614 0054 FFF7FEFF 		bl	chDbgPanic
 615              	.LVL72:
 616 0058 D9E7     		b	.L26
 617              	.L33:
 618 005a 00BF     		.align	2
 619              	.L32:
 620 005c 38000000 		.word	.LC4
 621              		.cfi_endproc
 622              	.LFE75:
 623              		.size	sdIncomingDataI, .-sdIncomingDataI
 624              		.section	.text.sdRequestDataI,"ax",%progbits
 625              		.align	2
 626              		.p2align 4,,15
 627              		.global	sdRequestDataI
 628              		.thumb
 629              		.thumb_func
 630              		.type	sdRequestDataI, %function
 631              	sdRequestDataI:
 632              	.LFB76:
 633              		.loc 1 245 0
 634              		.cfi_startproc
 635              		@ args = 0, pretend = 0, frame = 0
 636              		@ frame_needed = 0, uses_anonymous_args = 0
 637              	.LVL73:
 638 0000 38B5     		push	{r3, r4, r5, lr}
 639              	.LCFI5:
 640              		.cfi_def_cfa_offset 16
 641              		.cfi_offset 3, -16
 642              		.cfi_offset 4, -12
 643              		.cfi_offset 5, -8
 644              		.cfi_offset 14, -4
 645              		.loc 1 245 0
 646 0002 0446     		mov	r4, r0
 647              		.loc 1 248 0
 648 0004 FFF7FEFF 		bl	chDbgCheckClassI
 649              	.LVL74:
 650              		.loc 1 249 0
 651 0008 8CB1     		cbz	r4, .L37
 652              	.L35:
 653              		.loc 1 251 0
 654 000a 04F13000 		add	r0, r4, #48
 655 000e FFF7FEFF 		bl	chOQGetI
 656              	.LVL75:
 657              		.loc 1 252 0
 658 0012 051E     		subs	r5, r0, #0
 659 0014 01DB     		blt	.L38
 660              		.loc 1 255 0
 661 0016 2846     		mov	r0, r5
 662 0018 38BD     		pop	{r3, r4, r5, pc}
 663              	.L38:
 664              		.loc 1 253 0
ARM GAS  /var/folders/dt/0wfd0knj7gs46m8vwfzktm600000gn/T//ccfLNI7n.s 			page 13


 665 001a A368     		ldr	r3, [r4, #8]
 666 001c 201D     		adds	r0, r4, #4
 667 001e 43F00803 		orr	r3, r3, #8
 668 0022 A360     		str	r3, [r4, #8]
 669 0024 0021     		movs	r1, #0
 670 0026 FFF7FEFF 		bl	chEvtBroadcastFlagsI
 671              	.LVL76:
 672              		.loc 1 255 0
 673 002a 2846     		mov	r0, r5
 674 002c 38BD     		pop	{r3, r4, r5, pc}
 675              	.LVL77:
 676              	.L37:
 677              		.loc 1 249 0 discriminator 1
 678 002e 0248     		ldr	r0, .L39
 679 0030 FFF7FEFF 		bl	chDbgPanic
 680              	.LVL78:
 681 0034 E9E7     		b	.L35
 682              	.L40:
 683 0036 00BF     		.align	2
 684              	.L39:
 685 0038 4C000000 		.word	.LC5
 686              		.cfi_endproc
 687              	.LFE76:
 688              		.size	sdRequestDataI, .-sdRequestDataI
 689 003c AFF30080 		.section	.rodata.str1.4,"aMS",%progbits,1
 690              		.align	2
 691              	.LC0:
 692 0000 22736453 		.ascii	"\"sdStart\"()\000"
 692      74617274 
 692      22282900 
 693              	.LC1:
 694 000c 73645374 		.ascii	"sdStart(), #1\000"
 694      61727428 
 694      292C2023 
 694      3100
 695 001a 0000     		.space	2
 696              	.LC2:
 697 001c 22736453 		.ascii	"\"sdStop\"()\000"
 697      746F7022 
 697      282900
 698 0027 00       		.space	1
 699              	.LC3:
 700 0028 73645374 		.ascii	"sdStop(), #1\000"
 700      6F702829 
 700      2C202331 
 700      00
 701 0035 000000   		.space	3
 702              	.LC4:
 703 0038 22736449 		.ascii	"\"sdIncomingDataI\"()\000"
 703      6E636F6D 
 703      696E6744 
 703      61746149 
 703      22282900 
 704              	.LC5:
 705 004c 22736452 		.ascii	"\"sdRequestDataI\"()\000"
 705      65717565 
 705      73744461 
ARM GAS  /var/folders/dt/0wfd0knj7gs46m8vwfzktm600000gn/T//ccfLNI7n.s 			page 14


 705      74614922 
 705      282900
 706 005f 00       		.section	.rodata.vmt,"a",%progbits
 707              		.align	2
 708              		.set	.LANCHOR0,. + 0
 709              		.type	vmt, %object
 710              		.size	vmt, 36
 711              	vmt:
 712 0000 00000000 		.word	writes
 713 0004 00000000 		.word	reads
 714 0008 00000000 		.word	putwouldblock
 715 000c 00000000 		.word	getwouldblock
 716 0010 00000000 		.word	putt
 717 0014 00000000 		.word	gett
 718 0018 00000000 		.word	writet
 719 001c 00000000 		.word	readt
 720 0020 00000000 		.word	getflags
 721              		.text
 722              	.Letext0:
 723              		.file 2 "/Users/toxygen/Applications/yagarto-4.7.2/bin/../lib/gcc/arm-none-eabi/4.7.2/include/stdd
 724              		.file 3 "/Users/toxygen/Applications/yagarto-4.7.2/bin/../lib/gcc/arm-none-eabi/4.7.2/../../../../
 725              		.file 4 "../../os/ports/GCC/ARMCMx/chtypes.h"
 726              		.file 5 "../../os/kernel/include/chlists.h"
 727              		.file 6 "../../os/kernel/include/chthreads.h"
 728              		.file 7 "../../os/ports/GCC/ARMCMx/chcore_v7m.h"
 729              		.file 8 "../../os/kernel/include/chmtx.h"
 730              		.file 9 "../../os/kernel/include/chevents.h"
 731              		.file 10 "../../os/kernel/include/chqueues.h"
 732              		.file 11 "../../os/kernel/include/chioch.h"
 733              		.file 12 "../../os/hal/platforms/STM32F1xx/stm32f10x.h"
 734              		.file 13 "../../os/hal/include/serial.h"
 735              		.file 14 "../../os/hal/platforms/STM32/serial_lld.h"
 736              		.file 15 "../../os/kernel/include/chdebug.h"
 737              		.file 16 "../../os/kernel/include/chschd.h"
 738              		.file 17 "../../os/ports/common/ARMCMx/CMSIS/include/core_cm3.h"