ARM GAS  /var/folders/dt/0wfd0knj7gs46m8vwfzktm600000gn/T//cchz2uND.s 			page 1


   1              		.syntax unified
   2              		.cpu cortex-m3
   3              		.fpu softvfp
   4              		.eabi_attribute 20, 1
   5              		.eabi_attribute 21, 1
   6              		.eabi_attribute 23, 3
   7              		.eabi_attribute 24, 1
   8              		.eabi_attribute 25, 1
   9              		.eabi_attribute 26, 1
  10              		.eabi_attribute 30, 2
  11              		.eabi_attribute 34, 1
  12              		.eabi_attribute 18, 4
  13              		.thumb
  14              		.file	"chqueues.c"
  15              		.text
  16              	.Ltext0:
  17              		.cfi_sections	.debug_frame
  18              		.section	.text.qwait,"ax",%progbits
  19              		.align	2
  20              		.p2align 4,,15
  21              		.thumb
  22              		.thumb_func
  23              		.type	qwait, %function
  24              	qwait:
  25              	.LFB7:
  26              		.file 1 "../../os/kernel/src/chqueues.c"
  27              		.loc 1 70 0
  28              		.cfi_startproc
  29              		@ args = 0, pretend = 0, frame = 0
  30              		@ frame_needed = 0, uses_anonymous_args = 0
  31              		@ link register save eliminated.
  32              	.LVL0:
  33 0000 10B4     		push	{r4}
  34              	.LCFI0:
  35              		.cfi_def_cfa_offset 4
  36              		.cfi_offset 4, -4
  37              		.loc 1 70 0
  38 0002 0246     		mov	r2, r0
  39              		.loc 1 72 0
  40 0004 59B1     		cbz	r1, .L2
  41              		.loc 1 74 0
  42 0006 084B     		ldr	r3, .L4
  43              		.loc 1 76 0
  44 0008 0D20     		movs	r0, #13
  45              	.LVL1:
  46              		.loc 1 74 0
  47 000a 9B69     		ldr	r3, [r3, #24]
  48 000c 5A62     		str	r2, [r3, #36]
  49              	.LVL2:
  50              	.LBB12:
  51              	.LBB13:
  52              		.file 2 "../../os/kernel/include/chinline.h"
  53              		.loc 2 55 0
  54 000e 5468     		ldr	r4, [r2, #4]
  55 0010 83E81400 		stmia	r3, {r2, r4}
  56              		.loc 2 56 0
  57 0014 5360     		str	r3, [r2, #4]
ARM GAS  /var/folders/dt/0wfd0knj7gs46m8vwfzktm600000gn/T//cchz2uND.s 			page 2


  58 0016 2360     		str	r3, [r4, #0]
  59              	.LBE13:
  60              	.LBE12:
  61              		.loc 1 77 0
  62 0018 10BC     		pop	{r4}
  63              		.loc 1 76 0
  64 001a FFF7FEBF 		b	chSchGoSleepTimeoutS
  65              	.LVL3:
  66              	.L2:
  67              		.loc 1 77 0
  68 001e 4FF0FF30 		mov	r0, #-1
  69              	.LVL4:
  70 0022 10BC     		pop	{r4}
  71 0024 7047     		bx	lr
  72              	.L5:
  73 0026 00BF     		.align	2
  74              	.L4:
  75 0028 00000000 		.word	rlist
  76              		.cfi_endproc
  77              	.LFE7:
  78              		.size	qwait, .-qwait
  79 002c AFF30080 		.section	.text.chIQInit,"ax",%progbits
  80              		.align	2
  81              		.p2align 4,,15
  82              		.global	chIQInit
  83              		.thumb
  84              		.thumb_func
  85              		.type	chIQInit, %function
  86              	chIQInit:
  87              	.LFB8:
  88              		.loc 1 96 0
  89              		.cfi_startproc
  90              		@ args = 4, pretend = 0, frame = 0
  91              		@ frame_needed = 0, uses_anonymous_args = 0
  92              		@ link register save eliminated.
  93              	.LVL5:
  94 0000 10B4     		push	{r4}
  95              	.LCFI1:
  96              		.cfi_def_cfa_offset 4
  97              		.cfi_offset 4, -4
  98              		.loc 1 102 0
  99 0002 C361     		str	r3, [r0, #28]
 100              		.loc 1 103 0
 101 0004 019B     		ldr	r3, [sp, #4]
 102              	.LVL6:
 103              		.loc 1 101 0
 104 0006 8A18     		adds	r2, r1, r2
 105              	.LVL7:
 106              		.loc 1 99 0
 107 0008 0024     		movs	r4, #0
 108              		.loc 1 98 0
 109 000a 4060     		str	r0, [r0, #4]
 110 000c 0060     		str	r0, [r0, #0]
 111              		.loc 1 99 0
 112 000e 8460     		str	r4, [r0, #8]
 113              		.loc 1 100 0
 114 0010 4161     		str	r1, [r0, #20]
ARM GAS  /var/folders/dt/0wfd0knj7gs46m8vwfzktm600000gn/T//cchz2uND.s 			page 3


 115 0012 8161     		str	r1, [r0, #24]
 116 0014 C160     		str	r1, [r0, #12]
 117              		.loc 1 101 0
 118 0016 0261     		str	r2, [r0, #16]
 119              		.loc 1 103 0
 120 0018 0362     		str	r3, [r0, #32]
 121              		.loc 1 104 0
 122 001a 10BC     		pop	{r4}
 123 001c 7047     		bx	lr
 124              		.cfi_endproc
 125              	.LFE8:
 126              		.size	chIQInit, .-chIQInit
 127 001e 00BF     		.section	.text.chIQResetI,"ax",%progbits
 128              		.align	2
 129              		.p2align 4,,15
 130              		.global	chIQResetI
 131              		.thumb
 132              		.thumb_func
 133              		.type	chIQResetI, %function
 134              	chIQResetI:
 135              	.LFB9:
 136              		.loc 1 117 0
 137              		.cfi_startproc
 138              		@ args = 0, pretend = 0, frame = 0
 139              		@ frame_needed = 0, uses_anonymous_args = 0
 140              	.LVL8:
 141 0000 38B5     		push	{r3, r4, r5, lr}
 142              	.LCFI2:
 143              		.cfi_def_cfa_offset 16
 144              		.cfi_offset 3, -16
 145              		.cfi_offset 4, -12
 146              		.cfi_offset 5, -8
 147              		.cfi_offset 14, -4
 148              		.loc 1 117 0
 149 0002 0446     		mov	r4, r0
 150              		.loc 1 121 0
 151 0004 C368     		ldr	r3, [r0, #12]
 152              		.loc 1 123 0
 153 0006 0068     		ldr	r0, [r0, #0]
 154              	.LVL9:
 155              		.loc 1 121 0
 156 0008 6361     		str	r3, [r4, #20]
 157 000a A361     		str	r3, [r4, #24]
 158              		.loc 1 122 0
 159 000c 0023     		movs	r3, #0
 160              		.loc 1 123 0
 161 000e A042     		cmp	r0, r4
 162              		.loc 1 122 0
 163 0010 A360     		str	r3, [r4, #8]
 164              		.loc 1 123 0
 165 0012 0AD0     		beq	.L7
 166              		.loc 1 124 0
 167 0014 6FF00105 		mvn	r5, #1
 168              	.L11:
 169              	.LVL10:
 170              	.LBB14:
 171              	.LBB15:
ARM GAS  /var/folders/dt/0wfd0knj7gs46m8vwfzktm600000gn/T//cchz2uND.s 			page 4


 172              		.loc 2 62 0
 173 0018 0368     		ldr	r3, [r0, #0]
 174 001a 2360     		str	r3, [r4, #0]
 175 001c 5C60     		str	r4, [r3, #4]
 176              	.LBE15:
 177              	.LBE14:
 178              		.loc 1 124 0
 179 001e FFF7FEFF 		bl	chSchReadyI
 180              	.LVL11:
 181 0022 4562     		str	r5, [r0, #36]
 182              		.loc 1 123 0
 183 0024 2068     		ldr	r0, [r4, #0]
 184 0026 A042     		cmp	r0, r4
 185 0028 F6D1     		bne	.L11
 186              	.LVL12:
 187              	.L7:
 188 002a 38BD     		pop	{r3, r4, r5, pc}
 189              		.cfi_endproc
 190              	.LFE9:
 191              		.size	chIQResetI, .-chIQResetI
 192 002c AFF30080 		.section	.text.chIQPutI,"ax",%progbits
 193              		.align	2
 194              		.p2align 4,,15
 195              		.global	chIQPutI
 196              		.thumb
 197              		.thumb_func
 198              		.type	chIQPutI, %function
 199              	chIQPutI:
 200              	.LFB10:
 201              		.loc 1 140 0
 202              		.cfi_startproc
 203              		@ args = 0, pretend = 0, frame = 0
 204              		@ frame_needed = 0, uses_anonymous_args = 0
 205              	.LVL13:
 206              		.loc 1 144 0
 207 0000 4269     		ldr	r2, [r0, #20]
 208              		.loc 1 140 0
 209 0002 08B5     		push	{r3, lr}
 210              	.LCFI3:
 211              		.cfi_def_cfa_offset 8
 212              		.cfi_offset 3, -8
 213              		.cfi_offset 14, -4
 214              		.loc 1 140 0
 215 0004 0346     		mov	r3, r0
 216              		.loc 1 144 0
 217 0006 8069     		ldr	r0, [r0, #24]
 218              	.LVL14:
 219 0008 8242     		cmp	r2, r0
 220 000a 9868     		ldr	r0, [r3, #8]
 221 000c 1AD0     		beq	.L22
 222              	.L16:
 223              		.loc 1 147 0
 224 000e 0130     		adds	r0, r0, #1
 225 0010 9860     		str	r0, [r3, #8]
 226              		.loc 1 148 0
 227 0012 02F8011B 		strb	r1, [r2], #1
 228              		.loc 1 149 0
ARM GAS  /var/folders/dt/0wfd0knj7gs46m8vwfzktm600000gn/T//cchz2uND.s 			page 5


 229 0016 1969     		ldr	r1, [r3, #16]
 230              	.LVL15:
 231              		.loc 1 148 0
 232 0018 5A61     		str	r2, [r3, #20]
 233              		.loc 1 149 0
 234 001a 8A42     		cmp	r2, r1
 235 001c 0BD2     		bcs	.L17
 236              		.loc 1 152 0
 237 001e 1868     		ldr	r0, [r3, #0]
 238 0020 9842     		cmp	r0, r3
 239 0022 0DD0     		beq	.L20
 240              	.L23:
 241              	.LVL16:
 242              	.LBB16:
 243              	.LBB17:
 244              		.loc 2 62 0
 245 0024 0268     		ldr	r2, [r0, #0]
 246 0026 1A60     		str	r2, [r3, #0]
 247 0028 5360     		str	r3, [r2, #4]
 248              	.LBE17:
 249              	.LBE16:
 250              		.loc 1 153 0
 251 002a FFF7FEFF 		bl	chSchReadyI
 252              	.LVL17:
 253 002e 0023     		movs	r3, #0
 254 0030 4362     		str	r3, [r0, #36]
 255              		.loc 1 155 0
 256 0032 1846     		mov	r0, r3
 257 0034 08BD     		pop	{r3, pc}
 258              	.LVL18:
 259              	.L17:
 260              		.loc 1 152 0
 261 0036 1868     		ldr	r0, [r3, #0]
 262              		.loc 1 150 0
 263 0038 DA68     		ldr	r2, [r3, #12]
 264              		.loc 1 152 0
 265 003a 9842     		cmp	r0, r3
 266              		.loc 1 150 0
 267 003c 5A61     		str	r2, [r3, #20]
 268              		.loc 1 152 0
 269 003e F1D1     		bne	.L23
 270              	.L20:
 271              		.loc 1 155 0
 272 0040 0020     		movs	r0, #0
 273 0042 08BD     		pop	{r3, pc}
 274              	.LVL19:
 275              	.L22:
 276              		.loc 1 144 0 discriminator 1
 277 0044 0028     		cmp	r0, #0
 278 0046 E2D0     		beq	.L16
 279              		.loc 1 145 0
 280 0048 6FF00300 		mvn	r0, #3
 281 004c 08BD     		pop	{r3, pc}
 282              		.cfi_endproc
 283              	.LFE10:
 284              		.size	chIQPutI, .-chIQPutI
 285 004e 00BF     		.section	.text.chIQGetTimeout,"ax",%progbits
ARM GAS  /var/folders/dt/0wfd0knj7gs46m8vwfzktm600000gn/T//cchz2uND.s 			page 6


 286              		.align	2
 287              		.p2align 4,,15
 288              		.global	chIQGetTimeout
 289              		.thumb
 290              		.thumb_func
 291              		.type	chIQGetTimeout, %function
 292              	chIQGetTimeout:
 293              	.LFB11:
 294              		.loc 1 178 0
 295              		.cfi_startproc
 296              		@ args = 0, pretend = 0, frame = 0
 297              		@ frame_needed = 0, uses_anonymous_args = 0
 298              	.LVL20:
 299 0000 70B5     		push	{r4, r5, r6, lr}
 300              	.LCFI4:
 301              		.cfi_def_cfa_offset 16
 302              		.cfi_offset 4, -16
 303              		.cfi_offset 5, -12
 304              		.cfi_offset 6, -8
 305              		.cfi_offset 14, -4
 306              	.LBB18:
 307              		.loc 1 181 0
 308 0002 2023     		movs	r3, #32
 309              	.LVL21:
 310              	.LBE18:
 311              		.loc 1 178 0
 312 0004 0446     		mov	r4, r0
 313 0006 0E46     		mov	r6, r1
 314              	.LBB19:
 315              		.loc 1 181 0
 316              	@ 181 "../../os/kernel/src/chqueues.c" 1
 317 0008 83F31188 		msr     BASEPRI, r3
 318              	@ 0 "" 2
 319              	.LVL22:
 320              		.thumb
 321              	.LBE19:
 322              		.loc 1 182 0
 323 000c C369     		ldr	r3, [r0, #28]
 324              	.LVL23:
 325 000e 03B1     		cbz	r3, .L32
 326              		.loc 1 183 0
 327 0010 9847     		blx	r3
 328              	.LVL24:
 329              	.L32:
 330              		.loc 1 185 0 discriminator 1
 331 0012 A568     		ldr	r5, [r4, #8]
 332              	.LBB20:
 333              		.loc 1 187 0 discriminator 1
 334 0014 2046     		mov	r0, r4
 335 0016 3146     		mov	r1, r6
 336              	.LBE20:
 337              		.loc 1 185 0 discriminator 1
 338 0018 3DB9     		cbnz	r5, .L35
 339              	.LVL25:
 340              	.LBB22:
 341              		.loc 1 187 0
 342 001a FFF7FEFF 		bl	qwait
ARM GAS  /var/folders/dt/0wfd0knj7gs46m8vwfzktm600000gn/T//cchz2uND.s 			page 7


 343              	.LVL26:
 344 001e 0028     		cmp	r0, #0
 345 0020 F7DA     		bge	.L32
 346              	.LBB21:
 347              		.loc 1 188 0
 348 0022 2B46     		mov	r3, r5
 349              	.LVL27:
 350              	@ 188 "../../os/kernel/src/chqueues.c" 1
 351 0024 83F31188 		msr     BASEPRI, r3
 352              	@ 0 "" 2
 353              	.LVL28:
 354              		.thumb
 355              	.LBE21:
 356              		.loc 1 189 0
 357 0028 70BD     		pop	{r4, r5, r6, pc}
 358              	.LVL29:
 359              	.L35:
 360              	.LBE22:
 361              		.loc 1 194 0
 362 002a A369     		ldr	r3, [r4, #24]
 363              		.loc 1 193 0
 364 002c 013D     		subs	r5, r5, #1
 365 002e A560     		str	r5, [r4, #8]
 366              		.loc 1 194 0
 367 0030 13F8010B 		ldrb	r0, [r3], #1	@ zero_extendqisi2
 368              	.LVL30:
 369              		.loc 1 195 0
 370 0034 2269     		ldr	r2, [r4, #16]
 371              		.loc 1 194 0
 372 0036 A361     		str	r3, [r4, #24]
 373              		.loc 1 195 0
 374 0038 9342     		cmp	r3, r2
 375              		.loc 1 196 0
 376 003a 24BF     		itt	cs
 377 003c E368     		ldrcs	r3, [r4, #12]
 378 003e A361     		strcs	r3, [r4, #24]
 379              	.LBB23:
 380              		.loc 1 198 0
 381 0040 0023     		movs	r3, #0
 382              	.LVL31:
 383              	@ 198 "../../os/kernel/src/chqueues.c" 1
 384 0042 83F31188 		msr     BASEPRI, r3
 385              	@ 0 "" 2
 386              	.LVL32:
 387              		.thumb
 388              	.LBE23:
 389              		.loc 1 200 0
 390 0046 70BD     		pop	{r4, r5, r6, pc}
 391              		.cfi_endproc
 392              	.LFE11:
 393              		.size	chIQGetTimeout, .-chIQGetTimeout
 394 0048 AFF30080 		.section	.text.chIQReadTimeout,"ax",%progbits
 394      AFF30080 
 395              		.align	2
 396              		.p2align 4,,15
 397              		.global	chIQReadTimeout
 398              		.thumb
ARM GAS  /var/folders/dt/0wfd0knj7gs46m8vwfzktm600000gn/T//cchz2uND.s 			page 8


 399              		.thumb_func
 400              		.type	chIQReadTimeout, %function
 401              	chIQReadTimeout:
 402              	.LFB12:
 403              		.loc 1 227 0
 404              		.cfi_startproc
 405              		@ args = 0, pretend = 0, frame = 0
 406              		@ frame_needed = 0, uses_anonymous_args = 0
 407              	.LVL33:
 408 0000 2DE9F047 		push	{r4, r5, r6, r7, r8, r9, sl, lr}
 409              	.LCFI5:
 410              		.cfi_def_cfa_offset 32
 411              		.cfi_offset 4, -32
 412              		.cfi_offset 5, -28
 413              		.cfi_offset 6, -24
 414              		.cfi_offset 7, -20
 415              		.cfi_offset 8, -16
 416              		.cfi_offset 9, -12
 417              		.cfi_offset 10, -8
 418              		.cfi_offset 14, -4
 419              		.loc 1 227 0
 420 0004 1E46     		mov	r6, r3
 421 0006 0446     		mov	r4, r0
 422              		.loc 1 228 0
 423 0008 C769     		ldr	r7, [r0, #28]
 424              	.LVL34:
 425              	.LBB24:
 426              		.loc 1 233 0
 427 000a 2023     		movs	r3, #32
 428              	.LVL35:
 429              	@ 233 "../../os/kernel/src/chqueues.c" 1
 430 000c 83F31188 		msr     BASEPRI, r3
 431              	@ 0 "" 2
 432              	.LVL36:
 433              		.thumb
 434              	.LBE24:
 435              		.loc 1 229 0
 436 0010 4FF00008 		mov	r8, #0
 437              	.LBB25:
 438              		.loc 1 226 0
 439 0014 01F10109 		add	r9, r1, #1
 440 0018 01EB020A 		add	sl, r1, r2
 441              	.LVL37:
 442              	.L42:
 443              	.LBE25:
 444              		.loc 1 235 0
 445 001c 0FB1     		cbz	r7, .L47
 446              		.loc 1 236 0
 447 001e 2046     		mov	r0, r4
 448              	.LVL38:
 449 0020 B847     		blx	r7
 450              	.LVL39:
 451              	.L47:
 452              		.loc 1 238 0 discriminator 1
 453 0022 A568     		ldr	r5, [r4, #8]
 454              		.loc 1 239 0 discriminator 1
 455 0024 2046     		mov	r0, r4
ARM GAS  /var/folders/dt/0wfd0knj7gs46m8vwfzktm600000gn/T//cchz2uND.s 			page 9


 456 0026 3146     		mov	r1, r6
 457              		.loc 1 238 0 discriminator 1
 458 0028 4DB9     		cbnz	r5, .L51
 459              	.LVL40:
 460              		.loc 1 239 0
 461 002a FFF7FEFF 		bl	qwait
 462              	.LVL41:
 463 002e 0028     		cmp	r0, #0
 464 0030 F7D0     		beq	.L47
 465              	.LBB26:
 466              		.loc 1 240 0
 467 0032 2B46     		mov	r3, r5
 468              	.LVL42:
 469              	@ 240 "../../os/kernel/src/chqueues.c" 1
 470 0034 83F31188 		msr     BASEPRI, r3
 471              	@ 0 "" 2
 472              	.LVL43:
 473              		.thumb
 474              	.L39:
 475              	.LBE26:
 476              		.loc 1 257 0
 477 0038 4046     		mov	r0, r8
 478 003a BDE8F087 		pop	{r4, r5, r6, r7, r8, r9, sl, pc}
 479              	.LVL44:
 480              	.L51:
 481              		.loc 1 246 0
 482 003e A369     		ldr	r3, [r4, #24]
 483              	.LVL45:
 484              		.loc 1 245 0
 485 0040 013D     		subs	r5, r5, #1
 486 0042 A560     		str	r5, [r4, #8]
 487              		.loc 1 246 0
 488 0044 13F8012B 		ldrb	r2, [r3], #1	@ zero_extendqisi2
 489 0048 09F8012C 		strb	r2, [r9, #-1]
 490              		.loc 1 247 0
 491 004c 2269     		ldr	r2, [r4, #16]
 492              		.loc 1 246 0
 493 004e A361     		str	r3, [r4, #24]
 494              		.loc 1 247 0
 495 0050 9342     		cmp	r3, r2
 496              		.loc 1 248 0
 497 0052 24BF     		itt	cs
 498 0054 E368     		ldrcs	r3, [r4, #12]
 499 0056 A361     		strcs	r3, [r4, #24]
 500              	.LBB27:
 501              		.loc 1 250 0
 502 0058 0023     		movs	r3, #0
 503              	@ 250 "../../os/kernel/src/chqueues.c" 1
 504 005a 83F31188 		msr     BASEPRI, r3
 505              	@ 0 "" 2
 506              	.LVL46:
 507              		.thumb
 508              	.LBE27:
 509              		.loc 1 252 0
 510 005e D145     		cmp	r9, sl
 511              		.loc 1 251 0
 512 0060 08F10108 		add	r8, r8, #1
ARM GAS  /var/folders/dt/0wfd0knj7gs46m8vwfzktm600000gn/T//cchz2uND.s 			page 10


 513              	.LVL47:
 514              		.loc 1 252 0
 515 0064 E8D0     		beq	.L39
 516              	.LBB28:
 517              		.loc 1 255 0
 518 0066 2023     		movs	r3, #32
 519              	.LVL48:
 520              	@ 255 "../../os/kernel/src/chqueues.c" 1
 521 0068 83F31188 		msr     BASEPRI, r3
 522              	@ 0 "" 2
 523              	.LVL49:
 524              		.thumb
 525 006c 09F10109 		add	r9, r9, #1
 526              	.LBE28:
 527              		.loc 1 256 0
 528 0070 D4E7     		b	.L42
 529              		.cfi_endproc
 530              	.LFE12:
 531              		.size	chIQReadTimeout, .-chIQReadTimeout
 532 0072 00BFAFF3 		.section	.text.chOQInit,"ax",%progbits
 532      0080AFF3 
 532      0080AFF3 
 532      0080
 533              		.align	2
 534              		.p2align 4,,15
 535              		.global	chOQInit
 536              		.thumb
 537              		.thumb_func
 538              		.type	chOQInit, %function
 539              	chOQInit:
 540              	.LFB13:
 541              		.loc 1 276 0
 542              		.cfi_startproc
 543              		@ args = 4, pretend = 0, frame = 0
 544              		@ frame_needed = 0, uses_anonymous_args = 0
 545              		@ link register save eliminated.
 546              	.LVL50:
 547 0000 10B4     		push	{r4}
 548              	.LCFI6:
 549              		.cfi_def_cfa_offset 4
 550              		.cfi_offset 4, -4
 551              		.loc 1 282 0
 552 0002 C361     		str	r3, [r0, #28]
 553              		.loc 1 283 0
 554 0004 019B     		ldr	r3, [sp, #4]
 555              	.LVL51:
 556              		.loc 1 281 0
 557 0006 8C18     		adds	r4, r1, r2
 558              		.loc 1 278 0
 559 0008 4060     		str	r0, [r0, #4]
 560 000a 0060     		str	r0, [r0, #0]
 561              		.loc 1 279 0
 562 000c 8260     		str	r2, [r0, #8]
 563              		.loc 1 280 0
 564 000e 4161     		str	r1, [r0, #20]
 565 0010 8161     		str	r1, [r0, #24]
 566 0012 C160     		str	r1, [r0, #12]
ARM GAS  /var/folders/dt/0wfd0knj7gs46m8vwfzktm600000gn/T//cchz2uND.s 			page 11


 567              		.loc 1 281 0
 568 0014 0461     		str	r4, [r0, #16]
 569              		.loc 1 283 0
 570 0016 0362     		str	r3, [r0, #32]
 571              		.loc 1 284 0
 572 0018 10BC     		pop	{r4}
 573 001a 7047     		bx	lr
 574              		.cfi_endproc
 575              	.LFE13:
 576              		.size	chOQInit, .-chOQInit
 577              		.section	.text.chOQResetI,"ax",%progbits
 578              		.align	2
 579              		.p2align 4,,15
 580              		.global	chOQResetI
 581              		.thumb
 582              		.thumb_func
 583              		.type	chOQResetI, %function
 584              	chOQResetI:
 585              	.LFB14:
 586              		.loc 1 297 0
 587              		.cfi_startproc
 588              		@ args = 0, pretend = 0, frame = 0
 589              		@ frame_needed = 0, uses_anonymous_args = 0
 590              	.LVL52:
 591 0000 38B5     		push	{r3, r4, r5, lr}
 592              	.LCFI7:
 593              		.cfi_def_cfa_offset 16
 594              		.cfi_offset 3, -16
 595              		.cfi_offset 4, -12
 596              		.cfi_offset 5, -8
 597              		.cfi_offset 14, -4
 598              		.loc 1 302 0
 599 0002 0269     		ldr	r2, [r0, #16]
 600              		.loc 1 297 0
 601 0004 0446     		mov	r4, r0
 602              		.loc 1 301 0
 603 0006 C368     		ldr	r3, [r0, #12]
 604              		.loc 1 303 0
 605 0008 0068     		ldr	r0, [r0, #0]
 606              	.LVL53:
 607              		.loc 1 302 0
 608 000a D21A     		subs	r2, r2, r3
 609              		.loc 1 303 0
 610 000c A042     		cmp	r0, r4
 611              		.loc 1 301 0
 612 000e 6361     		str	r3, [r4, #20]
 613 0010 A361     		str	r3, [r4, #24]
 614              		.loc 1 302 0
 615 0012 A260     		str	r2, [r4, #8]
 616              		.loc 1 303 0
 617 0014 0AD0     		beq	.L53
 618              		.loc 1 304 0
 619 0016 6FF00105 		mvn	r5, #1
 620              	.L57:
 621              	.LVL54:
 622              	.LBB29:
 623              	.LBB30:
ARM GAS  /var/folders/dt/0wfd0knj7gs46m8vwfzktm600000gn/T//cchz2uND.s 			page 12


 624              		.loc 2 62 0
 625 001a 0368     		ldr	r3, [r0, #0]
 626 001c 2360     		str	r3, [r4, #0]
 627 001e 5C60     		str	r4, [r3, #4]
 628              	.LBE30:
 629              	.LBE29:
 630              		.loc 1 304 0
 631 0020 FFF7FEFF 		bl	chSchReadyI
 632              	.LVL55:
 633 0024 4562     		str	r5, [r0, #36]
 634              		.loc 1 303 0
 635 0026 2068     		ldr	r0, [r4, #0]
 636 0028 A042     		cmp	r0, r4
 637 002a F6D1     		bne	.L57
 638              	.LVL56:
 639              	.L53:
 640 002c 38BD     		pop	{r3, r4, r5, pc}
 641              		.cfi_endproc
 642              	.LFE14:
 643              		.size	chOQResetI, .-chOQResetI
 644 002e 00BF     		.section	.text.chOQPutTimeout,"ax",%progbits
 645              		.align	2
 646              		.p2align 4,,15
 647              		.global	chOQPutTimeout
 648              		.thumb
 649              		.thumb_func
 650              		.type	chOQPutTimeout, %function
 651              	chOQPutTimeout:
 652              	.LFB15:
 653              		.loc 1 329 0
 654              		.cfi_startproc
 655              		@ args = 0, pretend = 0, frame = 0
 656              		@ frame_needed = 0, uses_anonymous_args = 0
 657              	.LVL57:
 658 0000 F8B5     		push	{r3, r4, r5, r6, r7, lr}
 659              	.LCFI8:
 660              		.cfi_def_cfa_offset 24
 661              		.cfi_offset 3, -24
 662              		.cfi_offset 4, -20
 663              		.cfi_offset 5, -16
 664              		.cfi_offset 6, -12
 665              		.cfi_offset 7, -8
 666              		.cfi_offset 14, -4
 667              		.loc 1 329 0
 668 0002 0446     		mov	r4, r0
 669 0004 0F46     		mov	r7, r1
 670 0006 1646     		mov	r6, r2
 671              	.LBB31:
 672              		.loc 1 331 0
 673 0008 2023     		movs	r3, #32
 674              	.LVL58:
 675              	@ 331 "../../os/kernel/src/chqueues.c" 1
 676 000a 83F31188 		msr     BASEPRI, r3
 677              	@ 0 "" 2
 678              	.LVL59:
 679              		.thumb
 680              	.L60:
ARM GAS  /var/folders/dt/0wfd0knj7gs46m8vwfzktm600000gn/T//cchz2uND.s 			page 13


 681              	.LBE31:
 682              		.loc 1 332 0 discriminator 1
 683 000e A568     		ldr	r5, [r4, #8]
 684              	.LBB32:
 685              		.loc 1 335 0 discriminator 1
 686 0010 2046     		mov	r0, r4
 687 0012 3146     		mov	r1, r6
 688              	.LBE32:
 689              		.loc 1 332 0 discriminator 1
 690 0014 3DB9     		cbnz	r5, .L69
 691              	.LVL60:
 692              	.LBB34:
 693              		.loc 1 335 0
 694 0016 FFF7FEFF 		bl	qwait
 695              	.LVL61:
 696 001a 0028     		cmp	r0, #0
 697 001c F7DA     		bge	.L60
 698              	.LBB33:
 699              		.loc 1 336 0
 700 001e 2B46     		mov	r3, r5
 701              	.LVL62:
 702              	@ 336 "../../os/kernel/src/chqueues.c" 1
 703 0020 83F31188 		msr     BASEPRI, r3
 704              	@ 0 "" 2
 705              	.LVL63:
 706              		.thumb
 707              	.LBE33:
 708              		.loc 1 337 0
 709 0024 F8BD     		pop	{r3, r4, r5, r6, r7, pc}
 710              	.LVL64:
 711              	.L69:
 712              	.LBE34:
 713              		.loc 1 342 0
 714 0026 6369     		ldr	r3, [r4, #20]
 715              	.LVL65:
 716              		.loc 1 341 0
 717 0028 013D     		subs	r5, r5, #1
 718 002a A560     		str	r5, [r4, #8]
 719              		.loc 1 342 0
 720 002c 03F8017B 		strb	r7, [r3], #1
 721              		.loc 1 343 0
 722 0030 2269     		ldr	r2, [r4, #16]
 723              		.loc 1 342 0
 724 0032 6361     		str	r3, [r4, #20]
 725              		.loc 1 343 0
 726 0034 9342     		cmp	r3, r2
 727              		.loc 1 344 0
 728 0036 24BF     		itt	cs
 729 0038 E368     		ldrcs	r3, [r4, #12]
 730 003a 6361     		strcs	r3, [r4, #20]
 731              		.loc 1 346 0
 732 003c E369     		ldr	r3, [r4, #28]
 733 003e 0BB1     		cbz	r3, .L64
 734              		.loc 1 347 0
 735 0040 2046     		mov	r0, r4
 736              	.LVL66:
 737 0042 9847     		blx	r3
ARM GAS  /var/folders/dt/0wfd0knj7gs46m8vwfzktm600000gn/T//cchz2uND.s 			page 14


 738              	.LVL67:
 739              	.L64:
 740              	.LBB35:
 741              		.loc 1 349 0
 742 0044 0023     		movs	r3, #0
 743              	.LVL68:
 744              	@ 349 "../../os/kernel/src/chqueues.c" 1
 745 0046 83F31188 		msr     BASEPRI, r3
 746              	@ 0 "" 2
 747              	.LVL69:
 748              		.thumb
 749              	.LBE35:
 750              		.loc 1 350 0
 751 004a 1846     		mov	r0, r3
 752              		.loc 1 351 0
 753 004c F8BD     		pop	{r3, r4, r5, r6, r7, pc}
 754              		.cfi_endproc
 755              	.LFE15:
 756              		.size	chOQPutTimeout, .-chOQPutTimeout
 757 004e 00BF     		.section	.text.chOQGetI,"ax",%progbits
 758              		.align	2
 759              		.p2align 4,,15
 760              		.global	chOQGetI
 761              		.thumb
 762              		.thumb_func
 763              		.type	chOQGetI, %function
 764              	chOQGetI:
 765              	.LFB16:
 766              		.loc 1 363 0
 767              		.cfi_startproc
 768              		@ args = 0, pretend = 0, frame = 0
 769              		@ frame_needed = 0, uses_anonymous_args = 0
 770              	.LVL70:
 771              		.loc 1 368 0
 772 0000 4169     		ldr	r1, [r0, #20]
 773 0002 8269     		ldr	r2, [r0, #24]
 774              		.loc 1 363 0
 775 0004 10B5     		push	{r4, lr}
 776              	.LCFI9:
 777              		.cfi_def_cfa_offset 8
 778              		.cfi_offset 4, -8
 779              		.cfi_offset 14, -4
 780              		.loc 1 368 0
 781 0006 9142     		cmp	r1, r2
 782              		.loc 1 363 0
 783 0008 0346     		mov	r3, r0
 784              		.loc 1 368 0
 785 000a 8168     		ldr	r1, [r0, #8]
 786 000c 16D0     		beq	.L79
 787              	.L73:
 788              		.loc 1 371 0
 789 000e 0131     		adds	r1, r1, #1
 790 0010 9960     		str	r1, [r3, #8]
 791              		.loc 1 372 0
 792 0012 12F8014B 		ldrb	r4, [r2], #1	@ zero_extendqisi2
 793              	.LVL71:
 794              		.loc 1 373 0
ARM GAS  /var/folders/dt/0wfd0knj7gs46m8vwfzktm600000gn/T//cchz2uND.s 			page 15


 795 0016 1969     		ldr	r1, [r3, #16]
 796              		.loc 1 372 0
 797 0018 9A61     		str	r2, [r3, #24]
 798              		.loc 1 373 0
 799 001a 8A42     		cmp	r2, r1
 800 001c 0BD2     		bcs	.L75
 801              	.L76:
 802              		.loc 1 376 0
 803 001e 1868     		ldr	r0, [r3, #0]
 804              	.LVL72:
 805 0020 9842     		cmp	r0, r3
 806 0022 06D0     		beq	.L74
 807              	.LVL73:
 808              	.LBB36:
 809              	.LBB37:
 810              		.loc 2 62 0
 811 0024 0268     		ldr	r2, [r0, #0]
 812 0026 1A60     		str	r2, [r3, #0]
 813 0028 5360     		str	r3, [r2, #4]
 814              	.LBE37:
 815              	.LBE36:
 816              		.loc 1 377 0
 817 002a FFF7FEFF 		bl	chSchReadyI
 818              	.LVL74:
 819 002e 0023     		movs	r3, #0
 820 0030 4362     		str	r3, [r0, #36]
 821              	.LVL75:
 822              	.L74:
 823              		.loc 1 379 0
 824 0032 2046     		mov	r0, r4
 825 0034 10BD     		pop	{r4, pc}
 826              	.LVL76:
 827              	.L75:
 828              		.loc 1 374 0
 829 0036 DA68     		ldr	r2, [r3, #12]
 830 0038 9A61     		str	r2, [r3, #24]
 831 003a F0E7     		b	.L76
 832              	.LVL77:
 833              	.L79:
 834              		.loc 1 368 0 discriminator 1
 835 003c 0029     		cmp	r1, #0
 836 003e E6D0     		beq	.L73
 837              		.loc 1 369 0
 838 0040 6FF00200 		mvn	r0, #2
 839              	.LVL78:
 840 0044 10BD     		pop	{r4, pc}
 841              		.cfi_endproc
 842              	.LFE16:
 843              		.size	chOQGetI, .-chOQGetI
 844 0046 00BFAFF3 		.section	.text.chOQWriteTimeout,"ax",%progbits
 844      0080AFF3 
 844      0080
 845              		.align	2
 846              		.p2align 4,,15
 847              		.global	chOQWriteTimeout
 848              		.thumb
 849              		.thumb_func
ARM GAS  /var/folders/dt/0wfd0knj7gs46m8vwfzktm600000gn/T//cchz2uND.s 			page 16


 850              		.type	chOQWriteTimeout, %function
 851              	chOQWriteTimeout:
 852              	.LFB17:
 853              		.loc 1 407 0
 854              		.cfi_startproc
 855              		@ args = 0, pretend = 0, frame = 0
 856              		@ frame_needed = 0, uses_anonymous_args = 0
 857              	.LVL79:
 858 0000 2DE9F047 		push	{r4, r5, r6, r7, r8, r9, sl, lr}
 859              	.LCFI10:
 860              		.cfi_def_cfa_offset 32
 861              		.cfi_offset 4, -32
 862              		.cfi_offset 5, -28
 863              		.cfi_offset 6, -24
 864              		.cfi_offset 7, -20
 865              		.cfi_offset 8, -16
 866              		.cfi_offset 9, -12
 867              		.cfi_offset 10, -8
 868              		.cfi_offset 14, -4
 869              		.loc 1 407 0
 870 0004 9A46     		mov	sl, r3
 871 0006 0446     		mov	r4, r0
 872 0008 8846     		mov	r8, r1
 873 000a 1646     		mov	r6, r2
 874              		.loc 1 408 0
 875 000c D0F81C90 		ldr	r9, [r0, #28]
 876              	.LVL80:
 877              	.LBB38:
 878              		.loc 1 413 0
 879 0010 2023     		movs	r3, #32
 880              	.LVL81:
 881              	@ 413 "../../os/kernel/src/chqueues.c" 1
 882 0012 83F31188 		msr     BASEPRI, r3
 883              	@ 0 "" 2
 884              	.LVL82:
 885              		.loc 1 409 0
 886              		.thumb
 887 0016 0027     		movs	r7, #0
 888              	.LVL83:
 889              	.L98:
 890              	.LBE38:
 891              		.loc 1 415 0 discriminator 1
 892 0018 A568     		ldr	r5, [r4, #8]
 893              		.loc 1 427 0 discriminator 1
 894 001a 2046     		mov	r0, r4
 895              		.loc 1 421 0 discriminator 1
 896 001c 6B1E     		subs	r3, r5, #1
 897              	.LVL84:
 898              		.loc 1 415 0 discriminator 1
 899 001e EDB1     		cbz	r5, .L84
 900              	.LVL85:
 901              	.L99:
 902              		.loc 1 421 0
 903 0020 A360     		str	r3, [r4, #8]
 904              		.loc 1 422 0
 905 0022 18F8013B 		ldrb	r3, [r8], #1	@ zero_extendqisi2
 906              	.LVL86:
ARM GAS  /var/folders/dt/0wfd0knj7gs46m8vwfzktm600000gn/T//cchz2uND.s 			page 17


 907 0026 6569     		ldr	r5, [r4, #20]
 908 0028 05F8013B 		strb	r3, [r5], #1
 909              		.loc 1 423 0
 910 002c 2369     		ldr	r3, [r4, #16]
 911              		.loc 1 422 0
 912 002e 6561     		str	r5, [r4, #20]
 913              	.LVL87:
 914              		.loc 1 423 0
 915 0030 9D42     		cmp	r5, r3
 916              		.loc 1 424 0
 917 0032 24BF     		itt	cs
 918 0034 E368     		ldrcs	r3, [r4, #12]
 919 0036 6361     		strcs	r3, [r4, #20]
 920              		.loc 1 426 0
 921 0038 B9F1000F 		cmp	r9, #0
 922 003c 00D0     		beq	.L86
 923              		.loc 1 427 0
 924 003e C847     		blx	r9
 925              	.LVL88:
 926              	.L86:
 927              	.LBB39:
 928              		.loc 1 429 0
 929 0040 0023     		movs	r3, #0
 930              	.LVL89:
 931              	@ 429 "../../os/kernel/src/chqueues.c" 1
 932 0042 83F31188 		msr     BASEPRI, r3
 933              	@ 0 "" 2
 934              	.LVL90:
 935              		.thumb
 936              	.LBE39:
 937              		.loc 1 430 0
 938 0046 0137     		adds	r7, r7, #1
 939              	.LVL91:
 940              		.loc 1 431 0
 941 0048 013E     		subs	r6, r6, #1
 942              	.LVL92:
 943 004a 10D0     		beq	.L83
 944              	.LBB40:
 945              		.loc 1 433 0
 946 004c 2023     		movs	r3, #32
 947              	.LVL93:
 948              	@ 433 "../../os/kernel/src/chqueues.c" 1
 949 004e 83F31188 		msr     BASEPRI, r3
 950              	@ 0 "" 2
 951              	.LVL94:
 952              		.thumb
 953              	.LBE40:
 954              		.loc 1 415 0
 955 0052 A568     		ldr	r5, [r4, #8]
 956              		.loc 1 427 0
 957 0054 2046     		mov	r0, r4
 958              		.loc 1 421 0
 959 0056 6B1E     		subs	r3, r5, #1
 960              	.LVL95:
 961              		.loc 1 415 0
 962 0058 002D     		cmp	r5, #0
 963 005a E1D1     		bne	.L99
ARM GAS  /var/folders/dt/0wfd0knj7gs46m8vwfzktm600000gn/T//cchz2uND.s 			page 18


 964              	.LVL96:
 965              	.L84:
 966              		.loc 1 416 0
 967 005c 2046     		mov	r0, r4
 968              	.LVL97:
 969 005e 5146     		mov	r1, sl
 970 0060 FFF7FEFF 		bl	qwait
 971              	.LVL98:
 972 0064 0028     		cmp	r0, #0
 973 0066 D7D0     		beq	.L98
 974              	.LBB41:
 975              		.loc 1 417 0
 976 0068 2B46     		mov	r3, r5
 977              	.LVL99:
 978              	@ 417 "../../os/kernel/src/chqueues.c" 1
 979 006a 83F31188 		msr     BASEPRI, r3
 980              	@ 0 "" 2
 981              	.LVL100:
 982              		.thumb
 983              	.L83:
 984              	.LBE41:
 985              		.loc 1 435 0
 986 006e 3846     		mov	r0, r7
 987 0070 BDE8F087 		pop	{r4, r5, r6, r7, r8, r9, sl, pc}
 988              		.cfi_endproc
 989              	.LFE17:
 990              		.size	chOQWriteTimeout, .-chOQWriteTimeout
 991 0074 AFF30080 		.text
 991      AFF30080 
 991      AFF30080 
 992              	.Letext0:
 993              		.file 3 "/Users/toxygen/Applications/yagarto-4.7.2/bin/../lib/gcc/arm-none-eabi/4.7.2/include/stdd
 994              		.file 4 "/Users/toxygen/Applications/yagarto-4.7.2/bin/../lib/gcc/arm-none-eabi/4.7.2/../../../../
 995              		.file 5 "../../os/ports/GCC/ARMCMx/chtypes.h"
 996              		.file 6 "../../os/kernel/include/chlists.h"
 997              		.file 7 "../../os/kernel/include/chthreads.h"
 998              		.file 8 "../../os/ports/GCC/ARMCMx/chcore_v7m.h"
 999              		.file 9 "../../os/kernel/include/chschd.h"
 1000              		.file 10 "../../os/kernel/include/chmtx.h"
 1001              		.file 11 "../../os/kernel/include/chqueues.h"