ARM GAS  /var/folders/dt/0wfd0knj7gs46m8vwfzktm600000gn/T//ccGzbHF2.s 			page 1


   1              		.syntax unified
   2              		.cpu cortex-m3
   3              		.fpu softvfp
   4              		.eabi_attribute 20, 1
   5              		.eabi_attribute 21, 1
   6              		.eabi_attribute 23, 3
   7              		.eabi_attribute 24, 1
   8              		.eabi_attribute 25, 1
   9              		.eabi_attribute 26, 1
  10              		.eabi_attribute 30, 2
  11              		.eabi_attribute 34, 1
  12              		.eabi_attribute 18, 4
  13              		.thumb
  14              		.file	"chsem.c"
  15              		.text
  16              	.Ltext0:
  17              		.cfi_sections	.debug_frame
  18              		.section	.text.chSemInit,"ax",%progbits
  19              		.align	2
  20              		.p2align 4,,15
  21              		.global	chSemInit
  22              		.thumb
  23              		.thumb_func
  24              		.type	chSemInit, %function
  25              	chSemInit:
  26              	.LFB7:
  27              		.file 1 "../../os/kernel/src/chsem.c"
  28              		.loc 1 86 0
  29              		.cfi_startproc
  30              		@ args = 0, pretend = 0, frame = 0
  31              		@ frame_needed = 0, uses_anonymous_args = 0
  32              		@ link register save eliminated.
  33              	.LVL0:
  34              		.loc 1 90 0
  35 0000 4060     		str	r0, [r0, #4]
  36 0002 0060     		str	r0, [r0, #0]
  37              		.loc 1 91 0
  38 0004 8160     		str	r1, [r0, #8]
  39 0006 7047     		bx	lr
  40              		.cfi_endproc
  41              	.LFE7:
  42              		.size	chSemInit, .-chSemInit
  43 0008 AFF30080 		.section	.text.chSemResetI,"ax",%progbits
  43      AFF30080 
  44              		.align	2
  45              		.p2align 4,,15
  46              		.global	chSemResetI
  47              		.thumb
  48              		.thumb_func
  49              		.type	chSemResetI, %function
  50              	chSemResetI:
  51              	.LFB9:
  52              		.loc 1 136 0
  53              		.cfi_startproc
  54              		@ args = 0, pretend = 0, frame = 0
  55              		@ frame_needed = 0, uses_anonymous_args = 0
  56              	.LVL1:
ARM GAS  /var/folders/dt/0wfd0knj7gs46m8vwfzktm600000gn/T//ccGzbHF2.s 			page 2


  57 0000 70B5     		push	{r4, r5, r6, lr}
  58              	.LCFI0:
  59              		.cfi_def_cfa_offset 16
  60              		.cfi_offset 4, -16
  61              		.cfi_offset 5, -12
  62              		.cfi_offset 6, -8
  63              		.cfi_offset 14, -4
  64              		.loc 1 141 0
  65 0002 8568     		ldr	r5, [r0, #8]
  66              	.LVL2:
  67              		.loc 1 136 0
  68 0004 0446     		mov	r4, r0
  69              		.loc 1 148 0
  70 0006 0135     		adds	r5, r5, #1
  71              	.LVL3:
  72 0008 002D     		cmp	r5, #0
  73              		.loc 1 147 0
  74 000a 8160     		str	r1, [r0, #8]
  75              	.LVL4:
  76              		.loc 1 148 0
  77 000c 0BDC     		bgt	.L2
  78              		.loc 1 149 0
  79 000e 6FF00106 		mvn	r6, #1
  80              	.LVL5:
  81              	.L6:
  82              	.LBB24:
  83              	.LBB25:
  84              		.file 2 "../../os/kernel/include/chinline.h"
  85              		.loc 2 67 0
  86 0012 6068     		ldr	r0, [r4, #4]
  87              	.LVL6:
  88              	.LBE25:
  89              	.LBE24:
  90              		.loc 1 148 0
  91 0014 0135     		adds	r5, r5, #1
  92              	.LVL7:
  93              	.LBB27:
  94              	.LBB26:
  95              		.loc 2 69 0
  96 0016 4368     		ldr	r3, [r0, #4]
  97 0018 6360     		str	r3, [r4, #4]
  98 001a 1C60     		str	r4, [r3, #0]
  99              	.LBE26:
 100              	.LBE27:
 101              		.loc 1 149 0
 102 001c FFF7FEFF 		bl	chSchReadyI
 103              	.LVL8:
 104              		.loc 1 148 0
 105 0020 012D     		cmp	r5, #1
 106              		.loc 1 149 0
 107 0022 4662     		str	r6, [r0, #36]
 108              	.LVL9:
 109              		.loc 1 148 0
 110 0024 F5D1     		bne	.L6
 111              	.LVL10:
 112              	.L2:
 113 0026 70BD     		pop	{r4, r5, r6, pc}
ARM GAS  /var/folders/dt/0wfd0knj7gs46m8vwfzktm600000gn/T//ccGzbHF2.s 			page 3


 114              		.cfi_endproc
 115              	.LFE9:
 116              		.size	chSemResetI, .-chSemResetI
 117 0028 AFF30080 		.section	.text.chSemReset,"ax",%progbits
 117      AFF30080 
 118              		.align	2
 119              		.p2align 4,,15
 120              		.global	chSemReset
 121              		.thumb
 122              		.thumb_func
 123              		.type	chSemReset, %function
 124              	chSemReset:
 125              	.LFB8:
 126              		.loc 1 109 0
 127              		.cfi_startproc
 128              		@ args = 0, pretend = 0, frame = 0
 129              		@ frame_needed = 0, uses_anonymous_args = 0
 130              	.LVL11:
 131 0000 08B5     		push	{r3, lr}
 132              	.LCFI1:
 133              		.cfi_def_cfa_offset 8
 134              		.cfi_offset 3, -8
 135              		.cfi_offset 14, -4
 136              	.LBB28:
 137              		.loc 1 111 0
 138 0002 2023     		movs	r3, #32
 139              	.LVL12:
 140              	@ 111 "../../os/kernel/src/chsem.c" 1
 141 0004 83F31188 		msr     BASEPRI, r3
 142              	@ 0 "" 2
 143              	.LVL13:
 144              		.thumb
 145              	.LBE28:
 146              		.loc 1 112 0
 147 0008 FFF7FEFF 		bl	chSemResetI
 148              	.LVL14:
 149              		.loc 1 113 0
 150 000c FFF7FEFF 		bl	chSchRescheduleS
 151              	.LVL15:
 152              	.LBB29:
 153              		.loc 1 114 0
 154 0010 0023     		movs	r3, #0
 155              	.LVL16:
 156              	@ 114 "../../os/kernel/src/chsem.c" 1
 157 0012 83F31188 		msr     BASEPRI, r3
 158              	@ 0 "" 2
 159              	.LVL17:
 160              		.thumb
 161 0016 08BD     		pop	{r3, pc}
 162              	.LBE29:
 163              		.cfi_endproc
 164              	.LFE8:
 165              		.size	chSemReset, .-chSemReset
 166 0018 AFF30080 		.section	.text.chSemWaitS,"ax",%progbits
 166      AFF30080 
 167              		.align	2
 168              		.p2align 4,,15
ARM GAS  /var/folders/dt/0wfd0knj7gs46m8vwfzktm600000gn/T//ccGzbHF2.s 			page 4


 169              		.global	chSemWaitS
 170              		.thumb
 171              		.thumb_func
 172              		.type	chSemWaitS, %function
 173              	chSemWaitS:
 174              	.LFB11:
 175              		.loc 1 185 0
 176              		.cfi_startproc
 177              		@ args = 0, pretend = 0, frame = 0
 178              		@ frame_needed = 0, uses_anonymous_args = 0
 179              	.LVL18:
 180              		.loc 1 194 0
 181 0000 8268     		ldr	r2, [r0, #8]
 182              		.loc 1 185 0
 183 0002 10B5     		push	{r4, lr}
 184              	.LCFI2:
 185              		.cfi_def_cfa_offset 8
 186              		.cfi_offset 4, -8
 187              		.cfi_offset 14, -4
 188              		.loc 1 194 0
 189 0004 013A     		subs	r2, r2, #1
 190 0006 002A     		cmp	r2, #0
 191              		.loc 1 185 0
 192 0008 0346     		mov	r3, r0
 193              		.loc 1 194 0
 194 000a 8260     		str	r2, [r0, #8]
 195 000c 01DB     		blt	.L13
 196              		.loc 1 200 0
 197 000e 0020     		movs	r0, #0
 198              	.LVL19:
 199              		.loc 1 201 0
 200 0010 10BD     		pop	{r4, pc}
 201              	.LVL20:
 202              	.L13:
 203              		.loc 1 195 0
 204 0012 074C     		ldr	r4, .L14
 205              		.loc 1 197 0
 206 0014 0320     		movs	r0, #3
 207              	.LVL21:
 208              		.loc 1 195 0
 209 0016 A269     		ldr	r2, [r4, #24]
 210 0018 5362     		str	r3, [r2, #36]
 211              	.LVL22:
 212              	.LBB30:
 213              	.LBB31:
 214              		.loc 2 55 0
 215 001a 5968     		ldr	r1, [r3, #4]
 216              		.loc 2 54 0
 217 001c 1360     		str	r3, [r2, #0]
 218              		.loc 2 55 0
 219 001e 5160     		str	r1, [r2, #4]
 220              		.loc 2 56 0
 221 0020 5A60     		str	r2, [r3, #4]
 222 0022 0A60     		str	r2, [r1, #0]
 223              	.LBE31:
 224              	.LBE30:
 225              		.loc 1 197 0
ARM GAS  /var/folders/dt/0wfd0knj7gs46m8vwfzktm600000gn/T//ccGzbHF2.s 			page 5


 226 0024 FFF7FEFF 		bl	chSchGoSleepS
 227              	.LVL23:
 228              		.loc 1 198 0
 229 0028 A369     		ldr	r3, [r4, #24]
 230 002a 586A     		ldr	r0, [r3, #36]
 231 002c 10BD     		pop	{r4, pc}
 232              	.L15:
 233 002e 00BF     		.align	2
 234              	.L14:
 235 0030 00000000 		.word	rlist
 236              		.cfi_endproc
 237              	.LFE11:
 238              		.size	chSemWaitS, .-chSemWaitS
 239 0034 AFF30080 		.section	.text.chSemWait,"ax",%progbits
 239      AFF30080 
 239      AFF30080 
 240              		.align	2
 241              		.p2align 4,,15
 242              		.global	chSemWait
 243              		.thumb
 244              		.thumb_func
 245              		.type	chSemWait, %function
 246              	chSemWait:
 247              	.LFB10:
 248              		.loc 1 164 0
 249              		.cfi_startproc
 250              		@ args = 0, pretend = 0, frame = 0
 251              		@ frame_needed = 0, uses_anonymous_args = 0
 252              	.LVL24:
 253 0000 08B5     		push	{r3, lr}
 254              	.LCFI3:
 255              		.cfi_def_cfa_offset 8
 256              		.cfi_offset 3, -8
 257              		.cfi_offset 14, -4
 258              	.LBB32:
 259              		.loc 1 167 0
 260 0002 2023     		movs	r3, #32
 261              	.LVL25:
 262              	@ 167 "../../os/kernel/src/chsem.c" 1
 263 0004 83F31188 		msr     BASEPRI, r3
 264              	@ 0 "" 2
 265              	.LVL26:
 266              		.thumb
 267              	.LBE32:
 268              		.loc 1 168 0
 269 0008 FFF7FEFF 		bl	chSemWaitS
 270              	.LVL27:
 271              	.LBB33:
 272              		.loc 1 169 0
 273 000c 0023     		movs	r3, #0
 274              	.LVL28:
 275              	@ 169 "../../os/kernel/src/chsem.c" 1
 276 000e 83F31188 		msr     BASEPRI, r3
 277              	@ 0 "" 2
 278              	.LVL29:
 279              		.thumb
 280              	.LBE33:
ARM GAS  /var/folders/dt/0wfd0knj7gs46m8vwfzktm600000gn/T//ccGzbHF2.s 			page 6


 281              		.loc 1 171 0
 282 0012 08BD     		pop	{r3, pc}
 283              		.cfi_endproc
 284              	.LFE10:
 285              		.size	chSemWait, .-chSemWait
 286 0014 AFF30080 		.section	.text.chSemWaitTimeoutS,"ax",%progbits
 286      AFF30080 
 286      AFF30080 
 287              		.align	2
 288              		.p2align 4,,15
 289              		.global	chSemWaitTimeoutS
 290              		.thumb
 291              		.thumb_func
 292              		.type	chSemWaitTimeoutS, %function
 293              	chSemWaitTimeoutS:
 294              	.LFB13:
 295              		.loc 1 250 0
 296              		.cfi_startproc
 297              		@ args = 0, pretend = 0, frame = 0
 298              		@ frame_needed = 0, uses_anonymous_args = 0
 299              		@ link register save eliminated.
 300              	.LVL30:
 301 0000 0346     		mov	r3, r0
 302              		.loc 1 254 0
 303 0002 8068     		ldr	r0, [r0, #8]
 304              	.LVL31:
 305              		.loc 1 250 0
 306 0004 10B4     		push	{r4}
 307              	.LCFI4:
 308              		.cfi_def_cfa_offset 4
 309              		.cfi_offset 4, -4
 310              		.loc 1 259 0
 311 0006 421E     		subs	r2, r0, #1
 312 0008 002A     		cmp	r2, #0
 313              		.loc 1 250 0
 314 000a 0C46     		mov	r4, r1
 315              		.loc 1 259 0
 316 000c 9A60     		str	r2, [r3, #8]
 317 000e 02DB     		blt	.L21
 318              		.loc 1 268 0
 319 0010 0020     		movs	r0, #0
 320              	.L18:
 321              		.loc 1 269 0
 322 0012 10BC     		pop	{r4}
 323 0014 7047     		bx	lr
 324              	.L21:
 325              		.loc 1 260 0
 326 0016 59B1     		cbz	r1, .L22
 327              		.loc 1 264 0
 328 0018 074A     		ldr	r2, .L23
 329              		.loc 1 266 0
 330 001a 0320     		movs	r0, #3
 331              		.loc 1 264 0
 332 001c 9269     		ldr	r2, [r2, #24]
 333 001e 5362     		str	r3, [r2, #36]
 334              	.LVL32:
 335              	.LBB34:
ARM GAS  /var/folders/dt/0wfd0knj7gs46m8vwfzktm600000gn/T//ccGzbHF2.s 			page 7


 336              	.LBB35:
 337              		.loc 2 55 0
 338 0020 5C68     		ldr	r4, [r3, #4]
 339 0022 82E81800 		stmia	r2, {r3, r4}
 340              		.loc 2 56 0
 341 0026 5A60     		str	r2, [r3, #4]
 342 0028 2260     		str	r2, [r4, #0]
 343              	.LBE35:
 344              	.LBE34:
 345              		.loc 1 269 0
 346 002a 10BC     		pop	{r4}
 347              		.loc 1 266 0
 348 002c FFF7FEBF 		b	chSchGoSleepTimeoutS
 349              	.LVL33:
 350              	.L22:
 351              		.loc 1 261 0
 352 0030 9860     		str	r0, [r3, #8]
 353              		.loc 1 262 0
 354 0032 4FF0FF30 		mov	r0, #-1
 355 0036 ECE7     		b	.L18
 356              	.L24:
 357              		.align	2
 358              	.L23:
 359 0038 00000000 		.word	rlist
 360              		.cfi_endproc
 361              	.LFE13:
 362              		.size	chSemWaitTimeoutS, .-chSemWaitTimeoutS
 363 003c AFF30080 		.section	.text.chSemWaitTimeout,"ax",%progbits
 364              		.align	2
 365              		.p2align 4,,15
 366              		.global	chSemWaitTimeout
 367              		.thumb
 368              		.thumb_func
 369              		.type	chSemWaitTimeout, %function
 370              	chSemWaitTimeout:
 371              	.LFB12:
 372              		.loc 1 222 0
 373              		.cfi_startproc
 374              		@ args = 0, pretend = 0, frame = 0
 375              		@ frame_needed = 0, uses_anonymous_args = 0
 376              	.LVL34:
 377 0000 08B5     		push	{r3, lr}
 378              	.LCFI5:
 379              		.cfi_def_cfa_offset 8
 380              		.cfi_offset 3, -8
 381              		.cfi_offset 14, -4
 382              	.LBB36:
 383              		.loc 1 225 0
 384 0002 2023     		movs	r3, #32
 385              	.LVL35:
 386              	@ 225 "../../os/kernel/src/chsem.c" 1
 387 0004 83F31188 		msr     BASEPRI, r3
 388              	@ 0 "" 2
 389              	.LVL36:
 390              		.thumb
 391              	.LBE36:
 392              		.loc 1 226 0
ARM GAS  /var/folders/dt/0wfd0knj7gs46m8vwfzktm600000gn/T//ccGzbHF2.s 			page 8


 393 0008 FFF7FEFF 		bl	chSemWaitTimeoutS
 394              	.LVL37:
 395              	.LBB37:
 396              		.loc 1 227 0
 397 000c 0023     		movs	r3, #0
 398              	.LVL38:
 399              	@ 227 "../../os/kernel/src/chsem.c" 1
 400 000e 83F31188 		msr     BASEPRI, r3
 401              	@ 0 "" 2
 402              	.LVL39:
 403              		.thumb
 404              	.LBE37:
 405              		.loc 1 229 0
 406 0012 08BD     		pop	{r3, pc}
 407              		.cfi_endproc
 408              	.LFE12:
 409              		.size	chSemWaitTimeout, .-chSemWaitTimeout
 410 0014 AFF30080 		.section	.text.chSemSignal,"ax",%progbits
 410      AFF30080 
 410      AFF30080 
 411              		.align	2
 412              		.p2align 4,,15
 413              		.global	chSemSignal
 414              		.thumb
 415              		.thumb_func
 416              		.type	chSemSignal, %function
 417              	chSemSignal:
 418              	.LFB14:
 419              		.loc 1 278 0
 420              		.cfi_startproc
 421              		@ args = 0, pretend = 0, frame = 0
 422              		@ frame_needed = 0, uses_anonymous_args = 0
 423              	.LVL40:
 424 0000 08B5     		push	{r3, lr}
 425              	.LCFI6:
 426              		.cfi_def_cfa_offset 8
 427              		.cfi_offset 3, -8
 428              		.cfi_offset 14, -4
 429              		.loc 1 278 0
 430 0002 0246     		mov	r2, r0
 431              	.LBB38:
 432              		.loc 1 286 0
 433 0004 2023     		movs	r3, #32
 434              	.LVL41:
 435              	@ 286 "../../os/kernel/src/chsem.c" 1
 436 0006 83F31188 		msr     BASEPRI, r3
 437              	@ 0 "" 2
 438              	.LVL42:
 439              		.thumb
 440              	.LBE38:
 441              		.loc 1 287 0
 442 000a 8368     		ldr	r3, [r0, #8]
 443              	.LVL43:
 444 000c 0133     		adds	r3, r3, #1
 445 000e 002B     		cmp	r3, #0
 446 0010 8360     		str	r3, [r0, #8]
 447 0012 03DD     		ble	.L28
ARM GAS  /var/folders/dt/0wfd0knj7gs46m8vwfzktm600000gn/T//ccGzbHF2.s 			page 9


 448              	.LVL44:
 449              	.L27:
 450              	.LBB39:
 451              		.loc 1 289 0
 452 0014 0023     		movs	r3, #0
 453              	.LVL45:
 454              	@ 289 "../../os/kernel/src/chsem.c" 1
 455 0016 83F31188 		msr     BASEPRI, r3
 456              	@ 0 "" 2
 457              	.LVL46:
 458              		.thumb
 459 001a 08BD     		pop	{r3, pc}
 460              	.LVL47:
 461              	.L28:
 462              	.LBE39:
 463              	.LBB40:
 464              	.LBB41:
 465              		.loc 2 60 0
 466 001c 0068     		ldr	r0, [r0, #0]
 467              	.LVL48:
 468              	.LBE41:
 469              	.LBE40:
 470              		.loc 1 288 0
 471 001e 0021     		movs	r1, #0
 472              	.LBB43:
 473              	.LBB42:
 474              		.loc 2 62 0
 475 0020 0368     		ldr	r3, [r0, #0]
 476 0022 1360     		str	r3, [r2, #0]
 477 0024 5A60     		str	r2, [r3, #4]
 478              	.LBE42:
 479              	.LBE43:
 480              		.loc 1 288 0
 481 0026 FFF7FEFF 		bl	chSchWakeupS
 482              	.LVL49:
 483 002a F3E7     		b	.L27
 484              		.cfi_endproc
 485              	.LFE14:
 486              		.size	chSemSignal, .-chSemSignal
 487 002c AFF30080 		.section	.text.chSemSignalI,"ax",%progbits
 488              		.align	2
 489              		.p2align 4,,15
 490              		.global	chSemSignalI
 491              		.thumb
 492              		.thumb_func
 493              		.type	chSemSignalI, %function
 494              	chSemSignalI:
 495              	.LFB15:
 496              		.loc 1 303 0
 497              		.cfi_startproc
 498              		@ args = 0, pretend = 0, frame = 0
 499              		@ frame_needed = 0, uses_anonymous_args = 0
 500              		@ link register save eliminated.
 501              	.LVL50:
 502              		.loc 1 312 0
 503 0000 8268     		ldr	r2, [r0, #8]
 504              		.loc 1 303 0
ARM GAS  /var/folders/dt/0wfd0knj7gs46m8vwfzktm600000gn/T//ccGzbHF2.s 			page 10


 505 0002 0346     		mov	r3, r0
 506              		.loc 1 312 0
 507 0004 0132     		adds	r2, r2, #1
 508 0006 002A     		cmp	r2, #0
 509 0008 8260     		str	r2, [r0, #8]
 510 000a 00DD     		ble	.L31
 511 000c 7047     		bx	lr
 512              	.L31:
 513              	.LVL51:
 514              	.LBB44:
 515              	.LBB45:
 516              	.LBB46:
 517              		.loc 2 60 0
 518 000e 0268     		ldr	r2, [r0, #0]
 519              	.LVL52:
 520              		.loc 2 62 0
 521 0010 1168     		ldr	r1, [r2, #0]
 522              	.LBE46:
 523              	.LBE45:
 524              		.loc 1 317 0
 525 0012 1046     		mov	r0, r2
 526              	.LVL53:
 527              	.LBB48:
 528              	.LBB47:
 529              		.loc 2 62 0
 530 0014 1960     		str	r1, [r3, #0]
 531 0016 4B60     		str	r3, [r1, #4]
 532              	.LBE47:
 533              	.LBE48:
 534              		.loc 1 316 0
 535 0018 0023     		movs	r3, #0
 536              	.LVL54:
 537 001a 5362     		str	r3, [r2, #36]
 538              	.LBE44:
 539              		.loc 1 319 0
 540              	.LBB49:
 541              		.loc 1 317 0
 542 001c FFF7FEBF 		b	chSchReadyI
 543              	.LVL55:
 544              	.LBE49:
 545              		.cfi_endproc
 546              	.LFE15:
 547              		.size	chSemSignalI, .-chSemSignalI
 548              		.section	.text.chSemAddCounterI,"ax",%progbits
 549              		.align	2
 550              		.p2align 4,,15
 551              		.global	chSemAddCounterI
 552              		.thumb
 553              		.thumb_func
 554              		.type	chSemAddCounterI, %function
 555              	chSemAddCounterI:
 556              	.LFB16:
 557              		.loc 1 334 0
 558              		.cfi_startproc
 559              		@ args = 0, pretend = 0, frame = 0
 560              		@ frame_needed = 0, uses_anonymous_args = 0
 561              	.LVL56:
ARM GAS  /var/folders/dt/0wfd0knj7gs46m8vwfzktm600000gn/T//ccGzbHF2.s 			page 11


 562 0000 70B5     		push	{r4, r5, r6, lr}
 563              	.LCFI7:
 564              		.cfi_def_cfa_offset 16
 565              		.cfi_offset 4, -16
 566              		.cfi_offset 5, -12
 567              		.cfi_offset 6, -8
 568              		.cfi_offset 14, -4
 569              		.loc 1 343 0
 570 0002 0C1E     		subs	r4, r1, #0
 571              		.loc 1 334 0
 572 0004 0546     		mov	r5, r0
 573              		.loc 1 343 0
 574 0006 11DD     		ble	.L32
 575              		.loc 1 345 0
 576 0008 0026     		movs	r6, #0
 577 000a 01E0     		b	.L37
 578              	.LVL57:
 579              	.L34:
 580              		.loc 1 343 0
 581 000c 013C     		subs	r4, r4, #1
 582              	.LVL58:
 583 000e 0DD0     		beq	.L32
 584              	.LVL59:
 585              	.L37:
 586              		.loc 1 344 0
 587 0010 AB68     		ldr	r3, [r5, #8]
 588 0012 0133     		adds	r3, r3, #1
 589 0014 002B     		cmp	r3, #0
 590 0016 AB60     		str	r3, [r5, #8]
 591 0018 F8DC     		bgt	.L34
 592              	.LVL60:
 593              	.LBB50:
 594              	.LBB51:
 595              		.loc 2 60 0
 596 001a 2868     		ldr	r0, [r5, #0]
 597              	.LVL61:
 598              		.loc 2 62 0
 599 001c 0368     		ldr	r3, [r0, #0]
 600 001e 2B60     		str	r3, [r5, #0]
 601 0020 5D60     		str	r5, [r3, #4]
 602              	.LBE51:
 603              	.LBE50:
 604              		.loc 1 345 0
 605 0022 FFF7FEFF 		bl	chSchReadyI
 606              	.LVL62:
 607              		.loc 1 343 0
 608 0026 013C     		subs	r4, r4, #1
 609              		.loc 1 345 0
 610 0028 4662     		str	r6, [r0, #36]
 611              		.loc 1 343 0
 612 002a F1D1     		bne	.L37
 613              	.LVL63:
 614              	.L32:
 615 002c 70BD     		pop	{r4, r5, r6, pc}
 616              		.cfi_endproc
 617              	.LFE16:
 618              		.size	chSemAddCounterI, .-chSemAddCounterI
ARM GAS  /var/folders/dt/0wfd0knj7gs46m8vwfzktm600000gn/T//ccGzbHF2.s 			page 12


 619 002e 00BF     		.section	.text.chSemSignalWait,"ax",%progbits
 620              		.align	2
 621              		.p2align 4,,15
 622              		.global	chSemSignalWait
 623              		.thumb
 624              		.thumb_func
 625              		.type	chSemSignalWait, %function
 626              	chSemSignalWait:
 627              	.LFB17:
 628              		.loc 1 366 0
 629              		.cfi_startproc
 630              		@ args = 0, pretend = 0, frame = 8
 631              		@ frame_needed = 0, uses_anonymous_args = 0
 632              	.LVL64:
 633 0000 10B5     		push	{r4, lr}
 634              	.LCFI8:
 635              		.cfi_def_cfa_offset 8
 636              		.cfi_offset 4, -8
 637              		.cfi_offset 14, -4
 638 0002 0246     		mov	r2, r0
 639 0004 82B0     		sub	sp, sp, #8
 640              	.LCFI9:
 641              		.cfi_def_cfa_offset 16
 642              	.LBB52:
 643              		.loc 1 379 0
 644 0006 2023     		movs	r3, #32
 645              	.LVL65:
 646              	@ 379 "../../os/kernel/src/chsem.c" 1
 647 0008 83F31188 		msr     BASEPRI, r3
 648              	@ 0 "" 2
 649              	.LVL66:
 650              		.thumb
 651              	.LBE52:
 652              		.loc 1 380 0
 653 000c 8368     		ldr	r3, [r0, #8]
 654              	.LVL67:
 655 000e 0133     		adds	r3, r3, #1
 656 0010 002B     		cmp	r3, #0
 657 0012 8360     		str	r3, [r0, #8]
 658 0014 19DD     		ble	.L43
 659              	.LVL68:
 660              	.L40:
 661              		.loc 1 382 0
 662 0016 8B68     		ldr	r3, [r1, #8]
 663 0018 013B     		subs	r3, r3, #1
 664 001a 002B     		cmp	r3, #0
 665 001c 8B60     		str	r3, [r1, #8]
 666 001e 07DB     		blt	.L44
 667              		.loc 1 390 0
 668 0020 FFF7FEFF 		bl	chSchRescheduleS
 669              	.LVL69:
 670              		.loc 1 391 0
 671 0024 0020     		movs	r0, #0
 672              	.LVL70:
 673              	.L42:
 674              	.LBB53:
 675              		.loc 1 393 0
ARM GAS  /var/folders/dt/0wfd0knj7gs46m8vwfzktm600000gn/T//ccGzbHF2.s 			page 13


 676 0026 0023     		movs	r3, #0
 677              	.LVL71:
 678              	@ 393 "../../os/kernel/src/chsem.c" 1
 679 0028 83F31188 		msr     BASEPRI, r3
 680              	@ 0 "" 2
 681              	.LVL72:
 682              		.thumb
 683              	.LBE53:
 684              		.loc 1 395 0
 685 002c 02B0     		add	sp, sp, #8
 686 002e 10BD     		pop	{r4, pc}
 687              	.LVL73:
 688              	.L44:
 689              	.LBB54:
 690              		.loc 1 383 0
 691 0030 0B4A     		ldr	r2, .L45
 692              	.LBB55:
 693              	.LBB56:
 694              		.loc 2 55 0
 695 0032 4B68     		ldr	r3, [r1, #4]
 696              	.LBE56:
 697              	.LBE55:
 698              		.loc 1 383 0
 699 0034 9469     		ldr	r4, [r2, #24]
 700              	.LVL74:
 701              		.loc 1 386 0
 702 0036 0320     		movs	r0, #3
 703              	.LBB58:
 704              	.LBB57:
 705              		.loc 2 55 0
 706 0038 84E80A00 		stmia	r4, {r1, r3}
 707              		.loc 2 56 0
 708 003c 4C60     		str	r4, [r1, #4]
 709 003e 1C60     		str	r4, [r3, #0]
 710              	.LBE57:
 711              	.LBE58:
 712              		.loc 1 385 0
 713 0040 6162     		str	r1, [r4, #36]
 714              		.loc 1 386 0
 715 0042 FFF7FEFF 		bl	chSchGoSleepS
 716              	.LVL75:
 717              		.loc 1 387 0
 718 0046 606A     		ldr	r0, [r4, #36]
 719              	.LVL76:
 720 0048 EDE7     		b	.L42
 721              	.LVL77:
 722              	.L43:
 723              	.LBE54:
 724              	.LBB59:
 725              	.LBB60:
 726              		.loc 2 60 0
 727 004a 0068     		ldr	r0, [r0, #0]
 728              	.LVL78:
 729              		.loc 2 62 0
 730 004c 0368     		ldr	r3, [r0, #0]
 731 004e 1360     		str	r3, [r2, #0]
 732 0050 5A60     		str	r2, [r3, #4]
ARM GAS  /var/folders/dt/0wfd0knj7gs46m8vwfzktm600000gn/T//ccGzbHF2.s 			page 14


 733              	.LBE60:
 734              	.LBE59:
 735              		.loc 1 381 0
 736 0052 0191     		str	r1, [sp, #4]
 737 0054 FFF7FEFF 		bl	chSchReadyI
 738              	.LVL79:
 739 0058 0023     		movs	r3, #0
 740 005a 4362     		str	r3, [r0, #36]
 741 005c 0199     		ldr	r1, [sp, #4]
 742 005e DAE7     		b	.L40
 743              	.L46:
 744              		.align	2
 745              	.L45:
 746 0060 00000000 		.word	rlist
 747              		.cfi_endproc
 748              	.LFE17:
 749              		.size	chSemSignalWait, .-chSemSignalWait
 750 0064 AFF30080 		.text
 750      AFF30080 
 750      AFF30080 
 751              	.Letext0:
 752              		.file 3 "/Users/toxygen/Applications/yagarto-4.7.2/bin/../lib/gcc/arm-none-eabi/4.7.2/../../../../
 753              		.file 4 "../../os/ports/GCC/ARMCMx/chtypes.h"
 754              		.file 5 "../../os/kernel/include/chlists.h"
 755              		.file 6 "../../os/kernel/include/chthreads.h"
 756              		.file 7 "../../os/ports/GCC/ARMCMx/chcore_v7m.h"
 757              		.file 8 "../../os/kernel/include/chschd.h"
 758              		.file 9 "../../os/kernel/include/chsem.h"
 759              		.file 10 "../../os/kernel/include/chmtx.h"
 760              		.section	.debug_info,"",%progbits
 761              	.Ldebug_info0:
 762 0000 4E0B0000 		.4byte	0xb4e
 763 0004 0200     		.2byte	0x2
 764 0006 00000000 		.4byte	.Ldebug_abbrev0
 765 000a 04       		.byte	0x4
 766 000b 01       		.uleb128 0x1
 767 000c 04020000 		.4byte	.LASF83
 768 0010 01       		.byte	0x1
 769 0011 A3000000 		.4byte	.LASF84
 770 0015 C8000000 		.4byte	.LASF85
 771 0019 C0000000 		.4byte	.Ldebug_ranges0+0xc0
 772 001d 00000000 		.4byte	0
 773 0021 00000000 		.4byte	0
 774 0025 00000000 		.4byte	.Ldebug_line0
 775 0029 02       		.uleb128 0x2
 776 002a 04       		.byte	0x4
 777 002b 05       		.byte	0x5
 778 002c 696E7400 		.ascii	"int\000"
 779 0030 03       		.uleb128 0x3
 780 0031 04       		.byte	0x4
 781 0032 07       		.byte	0x7
 782 0033 53010000 		.4byte	.LASF0
 783 0037 03       		.uleb128 0x3
 784 0038 01       		.byte	0x1
 785 0039 06       		.byte	0x6
 786 003a 6D000000 		.4byte	.LASF1
 787 003e 04       		.uleb128 0x4
ARM GAS  /var/folders/dt/0wfd0knj7gs46m8vwfzktm600000gn/T//ccGzbHF2.s 			page 15


 788 003f 88030000 		.4byte	.LASF5
 789 0043 03       		.byte	0x3
 790 0044 2A       		.byte	0x2a
 791 0045 49000000 		.4byte	0x49
 792 0049 03       		.uleb128 0x3
 793 004a 01       		.byte	0x1
 794 004b 08       		.byte	0x8
 795 004c 47020000 		.4byte	.LASF2
 796 0050 03       		.uleb128 0x3
 797 0051 02       		.byte	0x2
 798 0052 05       		.byte	0x5
 799 0053 5F020000 		.4byte	.LASF3
 800 0057 03       		.uleb128 0x3
 801 0058 02       		.byte	0x2
 802 0059 07       		.byte	0x7
 803 005a 91010000 		.4byte	.LASF4
 804 005e 04       		.uleb128 0x4
 805 005f 3F020000 		.4byte	.LASF6
 806 0063 03       		.byte	0x3
 807 0064 4F       		.byte	0x4f
 808 0065 69000000 		.4byte	0x69
 809 0069 03       		.uleb128 0x3
 810 006a 04       		.byte	0x4
 811 006b 05       		.byte	0x5
 812 006c BF000000 		.4byte	.LASF7
 813 0070 04       		.uleb128 0x4
 814 0071 C3020000 		.4byte	.LASF8
 815 0075 03       		.byte	0x3
 816 0076 50       		.byte	0x50
 817 0077 7B000000 		.4byte	0x7b
 818 007b 03       		.uleb128 0x3
 819 007c 04       		.byte	0x4
 820 007d 07       		.byte	0x7
 821 007e 71010000 		.4byte	.LASF9
 822 0082 03       		.uleb128 0x3
 823 0083 08       		.byte	0x8
 824 0084 05       		.byte	0x5
 825 0085 5F000000 		.4byte	.LASF10
 826 0089 03       		.uleb128 0x3
 827 008a 08       		.byte	0x8
 828 008b 07       		.byte	0x7
 829 008c 27000000 		.4byte	.LASF11
 830 0090 03       		.uleb128 0x3
 831 0091 01       		.byte	0x1
 832 0092 02       		.byte	0x2
 833 0093 39020000 		.4byte	.LASF12
 834 0097 04       		.uleb128 0x4
 835 0098 B5010000 		.4byte	.LASF13
 836 009c 04       		.byte	0x4
 837 009d 2C       		.byte	0x2c
 838 009e 3E000000 		.4byte	0x3e
 839 00a2 04       		.uleb128 0x4
 840 00a3 06010000 		.4byte	.LASF14
 841 00a7 04       		.byte	0x4
 842 00a8 2D       		.byte	0x2d
 843 00a9 3E000000 		.4byte	0x3e
 844 00ad 04       		.uleb128 0x4
ARM GAS  /var/folders/dt/0wfd0knj7gs46m8vwfzktm600000gn/T//ccGzbHF2.s 			page 16


 845 00ae 22020000 		.4byte	.LASF15
 846 00b2 04       		.byte	0x4
 847 00b3 2E       		.byte	0x2e
 848 00b4 3E000000 		.4byte	0x3e
 849 00b8 04       		.uleb128 0x4
 850 00b9 99000000 		.4byte	.LASF16
 851 00bd 04       		.byte	0x4
 852 00be 2F       		.byte	0x2f
 853 00bf 3E000000 		.4byte	0x3e
 854 00c3 04       		.uleb128 0x4
 855 00c4 31020000 		.4byte	.LASF17
 856 00c8 04       		.byte	0x4
 857 00c9 30       		.byte	0x30
 858 00ca 70000000 		.4byte	0x70
 859 00ce 04       		.uleb128 0x4
 860 00cf AF010000 		.4byte	.LASF18
 861 00d3 04       		.byte	0x4
 862 00d4 31       		.byte	0x31
 863 00d5 5E000000 		.4byte	0x5e
 864 00d9 04       		.uleb128 0x4
 865 00da C9010000 		.4byte	.LASF19
 866 00de 04       		.byte	0x4
 867 00df 33       		.byte	0x33
 868 00e0 70000000 		.4byte	0x70
 869 00e4 04       		.uleb128 0x4
 870 00e5 0A030000 		.4byte	.LASF20
 871 00e9 04       		.byte	0x4
 872 00ea 35       		.byte	0x35
 873 00eb 70000000 		.4byte	0x70
 874 00ef 04       		.uleb128 0x4
 875 00f0 4D010000 		.4byte	.LASF21
 876 00f4 04       		.byte	0x4
 877 00f5 36       		.byte	0x36
 878 00f6 5E000000 		.4byte	0x5e
 879 00fa 04       		.uleb128 0x4
 880 00fb A3020000 		.4byte	.LASF22
 881 00ff 05       		.byte	0x5
 882 0100 2A       		.byte	0x2a
 883 0101 05010000 		.4byte	0x105
 884 0105 05       		.uleb128 0x5
 885 0106 A3020000 		.4byte	.LASF22
 886 010a 48       		.byte	0x48
 887 010b 06       		.byte	0x6
 888 010c 5E       		.byte	0x5e
 889 010d 2A020000 		.4byte	0x22a
 890 0111 06       		.uleb128 0x6
 891 0112 89020000 		.4byte	.LASF23
 892 0116 06       		.byte	0x6
 893 0117 5F       		.byte	0x5f
 894 0118 4F020000 		.4byte	0x24f
 895 011c 02       		.byte	0x2
 896 011d 23       		.byte	0x23
 897 011e 00       		.uleb128 0
 898 011f 06       		.uleb128 0x6
 899 0120 2A020000 		.4byte	.LASF24
 900 0124 06       		.byte	0x6
 901 0125 61       		.byte	0x61
ARM GAS  /var/folders/dt/0wfd0knj7gs46m8vwfzktm600000gn/T//ccGzbHF2.s 			page 17


 902 0126 4F020000 		.4byte	0x24f
 903 012a 02       		.byte	0x2
 904 012b 23       		.byte	0x23
 905 012c 04       		.uleb128 0x4
 906 012d 06       		.uleb128 0x6
 907 012e 58000000 		.4byte	.LASF25
 908 0132 06       		.byte	0x6
 909 0133 63       		.byte	0x63
 910 0134 C3000000 		.4byte	0xc3
 911 0138 02       		.byte	0x2
 912 0139 23       		.byte	0x23
 913 013a 08       		.uleb128 0x8
 914 013b 06       		.uleb128 0x6
 915 013c BB030000 		.4byte	.LASF26
 916 0140 06       		.byte	0x6
 917 0141 64       		.byte	0x64
 918 0142 1D030000 		.4byte	0x31d
 919 0146 02       		.byte	0x2
 920 0147 23       		.byte	0x23
 921 0148 0C       		.uleb128 0xc
 922 0149 06       		.uleb128 0x6
 923 014a 1B010000 		.4byte	.LASF27
 924 014e 06       		.byte	0x6
 925 014f 66       		.byte	0x66
 926 0150 4F020000 		.4byte	0x24f
 927 0154 02       		.byte	0x2
 928 0155 23       		.byte	0x23
 929 0156 10       		.uleb128 0x10
 930 0157 06       		.uleb128 0x6
 931 0158 E4010000 		.4byte	.LASF28
 932 015c 06       		.byte	0x6
 933 015d 67       		.byte	0x67
 934 015e 4F020000 		.4byte	0x24f
 935 0162 02       		.byte	0x2
 936 0163 23       		.byte	0x23
 937 0164 14       		.uleb128 0x14
 938 0165 06       		.uleb128 0x6
 939 0166 97030000 		.4byte	.LASF29
 940 016a 06       		.byte	0x6
 941 016b 6E       		.byte	0x6e
 942 016c 65040000 		.4byte	0x465
 943 0170 02       		.byte	0x2
 944 0171 23       		.byte	0x23
 945 0172 18       		.uleb128 0x18
 946 0173 06       		.uleb128 0x6
 947 0174 69020000 		.4byte	.LASF30
 948 0178 06       		.byte	0x6
 949 0179 79       		.byte	0x79
 950 017a A2000000 		.4byte	0xa2
 951 017e 02       		.byte	0x2
 952 017f 23       		.byte	0x23
 953 0180 1C       		.uleb128 0x1c
 954 0181 06       		.uleb128 0x6
 955 0182 90020000 		.4byte	.LASF31
 956 0186 06       		.byte	0x6
 957 0187 7D       		.byte	0x7d
 958 0188 97000000 		.4byte	0x97
ARM GAS  /var/folders/dt/0wfd0knj7gs46m8vwfzktm600000gn/T//ccGzbHF2.s 			page 18


 959 018c 02       		.byte	0x2
 960 018d 23       		.byte	0x23
 961 018e 1D       		.uleb128 0x1d
 962 018f 06       		.uleb128 0x6
 963 0190 65030000 		.4byte	.LASF32
 964 0194 06       		.byte	0x6
 965 0195 82       		.byte	0x82
 966 0196 AD000000 		.4byte	0xad
 967 019a 02       		.byte	0x2
 968 019b 23       		.byte	0x23
 969 019c 1E       		.uleb128 0x1e
 970 019d 06       		.uleb128 0x6
 971 019e 71020000 		.4byte	.LASF33
 972 01a2 06       		.byte	0x6
 973 01a3 88       		.byte	0x88
 974 01a4 B8000000 		.4byte	0xb8
 975 01a8 02       		.byte	0x2
 976 01a9 23       		.byte	0x23
 977 01aa 1F       		.uleb128 0x1f
 978 01ab 06       		.uleb128 0x6
 979 01ac 29030000 		.4byte	.LASF34
 980 01b0 06       		.byte	0x6
 981 01b1 8F       		.byte	0x8f
 982 01b2 47030000 		.4byte	0x347
 983 01b6 02       		.byte	0x2
 984 01b7 23       		.byte	0x23
 985 01b8 20       		.uleb128 0x20
 986 01b9 07       		.uleb128 0x7
 987 01ba 705F7500 		.ascii	"p_u\000"
 988 01be 06       		.byte	0x6
 989 01bf B4       		.byte	0xb4
 990 01c0 30040000 		.4byte	0x430
 991 01c4 02       		.byte	0x2
 992 01c5 23       		.byte	0x23
 993 01c6 24       		.uleb128 0x24
 994 01c7 06       		.uleb128 0x6
 995 01c8 C1030000 		.4byte	.LASF35
 996 01cc 06       		.byte	0x6
 997 01cd B9       		.byte	0xb9
 998 01ce 77020000 		.4byte	0x277
 999 01d2 02       		.byte	0x2
 1000 01d3 23       		.byte	0x23
 1001 01d4 28       		.uleb128 0x28
 1002 01d5 06       		.uleb128 0x6
 1003 01d6 43030000 		.4byte	.LASF36
 1004 01da 06       		.byte	0x6
 1005 01db BF       		.byte	0xbf
 1006 01dc 55020000 		.4byte	0x255
 1007 01e0 02       		.byte	0x2
 1008 01e1 23       		.byte	0x23
 1009 01e2 2C       		.uleb128 0x2c
 1010 01e3 06       		.uleb128 0x6
 1011 01e4 00000000 		.4byte	.LASF37
 1012 01e8 06       		.byte	0x6
 1013 01e9 C3       		.byte	0xc3
 1014 01ea CE000000 		.4byte	0xce
 1015 01ee 02       		.byte	0x2
ARM GAS  /var/folders/dt/0wfd0knj7gs46m8vwfzktm600000gn/T//ccGzbHF2.s 			page 19


 1016 01ef 23       		.byte	0x23
 1017 01f0 34       		.uleb128 0x34
 1018 01f1 06       		.uleb128 0x6
 1019 01f2 B8020000 		.4byte	.LASF38
 1020 01f6 06       		.byte	0x6
 1021 01f7 C9       		.byte	0xc9
 1022 01f8 D9000000 		.4byte	0xd9
 1023 01fc 02       		.byte	0x2
 1024 01fd 23       		.byte	0x23
 1025 01fe 38       		.uleb128 0x38
 1026 01ff 06       		.uleb128 0x6
 1027 0200 55020000 		.4byte	.LASF39
 1028 0204 06       		.byte	0x6
 1029 0205 D0       		.byte	0xd0
 1030 0206 77040000 		.4byte	0x477
 1031 020a 02       		.byte	0x2
 1032 020b 23       		.byte	0x23
 1033 020c 3C       		.uleb128 0x3c
 1034 020d 06       		.uleb128 0x6
 1035 020e 14030000 		.4byte	.LASF40
 1036 0212 06       		.byte	0x6
 1037 0213 D4       		.byte	0xd4
 1038 0214 C3000000 		.4byte	0xc3
 1039 0218 02       		.byte	0x2
 1040 0219 23       		.byte	0x23
 1041 021a 40       		.uleb128 0x40
 1042 021b 06       		.uleb128 0x6
 1043 021c 89000000 		.4byte	.LASF41
 1044 0220 06       		.byte	0x6
 1045 0221 DA       		.byte	0xda
 1046 0222 8D020000 		.4byte	0x28d
 1047 0226 02       		.byte	0x2
 1048 0227 23       		.byte	0x23
 1049 0228 44       		.uleb128 0x44
 1050 0229 00       		.byte	0
 1051 022a 08       		.uleb128 0x8
 1052 022b 08       		.byte	0x8
 1053 022c 05       		.byte	0x5
 1054 022d 61       		.byte	0x61
 1055 022e 4F020000 		.4byte	0x24f
 1056 0232 06       		.uleb128 0x6
 1057 0233 89020000 		.4byte	.LASF23
 1058 0237 05       		.byte	0x5
 1059 0238 62       		.byte	0x62
 1060 0239 4F020000 		.4byte	0x24f
 1061 023d 02       		.byte	0x2
 1062 023e 23       		.byte	0x23
 1063 023f 00       		.uleb128 0
 1064 0240 06       		.uleb128 0x6
 1065 0241 2A020000 		.4byte	.LASF24
 1066 0245 05       		.byte	0x5
 1067 0246 64       		.byte	0x64
 1068 0247 4F020000 		.4byte	0x24f
 1069 024b 02       		.byte	0x2
 1070 024c 23       		.byte	0x23
 1071 024d 04       		.uleb128 0x4
 1072 024e 00       		.byte	0
ARM GAS  /var/folders/dt/0wfd0knj7gs46m8vwfzktm600000gn/T//ccGzbHF2.s 			page 20


 1073 024f 09       		.uleb128 0x9
 1074 0250 04       		.byte	0x4
 1075 0251 FA000000 		.4byte	0xfa
 1076 0255 04       		.uleb128 0x4
 1077 0256 F2010000 		.4byte	.LASF42
 1078 025a 05       		.byte	0x5
 1079 025b 66       		.byte	0x66
 1080 025c 2A020000 		.4byte	0x22a
 1081 0260 08       		.uleb128 0x8
 1082 0261 04       		.byte	0x4
 1083 0262 05       		.byte	0x5
 1084 0263 6B       		.byte	0x6b
 1085 0264 77020000 		.4byte	0x277
 1086 0268 06       		.uleb128 0x6
 1087 0269 89020000 		.4byte	.LASF23
 1088 026d 05       		.byte	0x5
 1089 026e 6D       		.byte	0x6d
 1090 026f 4F020000 		.4byte	0x24f
 1091 0273 02       		.byte	0x2
 1092 0274 23       		.byte	0x23
 1093 0275 00       		.uleb128 0
 1094 0276 00       		.byte	0
 1095 0277 04       		.uleb128 0x4
 1096 0278 BD010000 		.4byte	.LASF43
 1097 027c 05       		.byte	0x5
 1098 027d 70       		.byte	0x70
 1099 027e 60020000 		.4byte	0x260
 1100 0282 04       		.uleb128 0x4
 1101 0283 44010000 		.4byte	.LASF44
 1102 0287 07       		.byte	0x7
 1103 0288 E5       		.byte	0xe5
 1104 0289 8D020000 		.4byte	0x28d
 1105 028d 0A       		.uleb128 0xa
 1106 028e 04       		.byte	0x4
 1107 028f 0B       		.uleb128 0xb
 1108 0290 3C030000 		.4byte	.LASF45
 1109 0294 24       		.byte	0x24
 1110 0295 07       		.byte	0x7
 1111 0296 0C01     		.2byte	0x10c
 1112 0298 1D030000 		.4byte	0x31d
 1113 029c 0C       		.uleb128 0xc
 1114 029d 723400   		.ascii	"r4\000"
 1115 02a0 07       		.byte	0x7
 1116 02a1 1F01     		.2byte	0x11f
 1117 02a3 82020000 		.4byte	0x282
 1118 02a7 02       		.byte	0x2
 1119 02a8 23       		.byte	0x23
 1120 02a9 00       		.uleb128 0
 1121 02aa 0C       		.uleb128 0xc
 1122 02ab 723500   		.ascii	"r5\000"
 1123 02ae 07       		.byte	0x7
 1124 02af 2001     		.2byte	0x120
 1125 02b1 82020000 		.4byte	0x282
 1126 02b5 02       		.byte	0x2
 1127 02b6 23       		.byte	0x23
 1128 02b7 04       		.uleb128 0x4
 1129 02b8 0C       		.uleb128 0xc
ARM GAS  /var/folders/dt/0wfd0knj7gs46m8vwfzktm600000gn/T//ccGzbHF2.s 			page 21


 1130 02b9 723600   		.ascii	"r6\000"
 1131 02bc 07       		.byte	0x7
 1132 02bd 2101     		.2byte	0x121
 1133 02bf 82020000 		.4byte	0x282
 1134 02c3 02       		.byte	0x2
 1135 02c4 23       		.byte	0x23
 1136 02c5 08       		.uleb128 0x8
 1137 02c6 0C       		.uleb128 0xc
 1138 02c7 723700   		.ascii	"r7\000"
 1139 02ca 07       		.byte	0x7
 1140 02cb 2201     		.2byte	0x122
 1141 02cd 82020000 		.4byte	0x282
 1142 02d1 02       		.byte	0x2
 1143 02d2 23       		.byte	0x23
 1144 02d3 0C       		.uleb128 0xc
 1145 02d4 0C       		.uleb128 0xc
 1146 02d5 723800   		.ascii	"r8\000"
 1147 02d8 07       		.byte	0x7
 1148 02d9 2301     		.2byte	0x123
 1149 02db 82020000 		.4byte	0x282
 1150 02df 02       		.byte	0x2
 1151 02e0 23       		.byte	0x23
 1152 02e1 10       		.uleb128 0x10
 1153 02e2 0C       		.uleb128 0xc
 1154 02e3 723900   		.ascii	"r9\000"
 1155 02e6 07       		.byte	0x7
 1156 02e7 2401     		.2byte	0x124
 1157 02e9 82020000 		.4byte	0x282
 1158 02ed 02       		.byte	0x2
 1159 02ee 23       		.byte	0x23
 1160 02ef 14       		.uleb128 0x14
 1161 02f0 0C       		.uleb128 0xc
 1162 02f1 72313000 		.ascii	"r10\000"
 1163 02f5 07       		.byte	0x7
 1164 02f6 2501     		.2byte	0x125
 1165 02f8 82020000 		.4byte	0x282
 1166 02fc 02       		.byte	0x2
 1167 02fd 23       		.byte	0x23
 1168 02fe 18       		.uleb128 0x18
 1169 02ff 0C       		.uleb128 0xc
 1170 0300 72313100 		.ascii	"r11\000"
 1171 0304 07       		.byte	0x7
 1172 0305 2601     		.2byte	0x126
 1173 0307 82020000 		.4byte	0x282
 1174 030b 02       		.byte	0x2
 1175 030c 23       		.byte	0x23
 1176 030d 1C       		.uleb128 0x1c
 1177 030e 0C       		.uleb128 0xc
 1178 030f 6C7200   		.ascii	"lr\000"
 1179 0312 07       		.byte	0x7
 1180 0313 2701     		.2byte	0x127
 1181 0315 82020000 		.4byte	0x282
 1182 0319 02       		.byte	0x2
 1183 031a 23       		.byte	0x23
 1184 031b 20       		.uleb128 0x20
 1185 031c 00       		.byte	0
 1186 031d 0B       		.uleb128 0xb
ARM GAS  /var/folders/dt/0wfd0knj7gs46m8vwfzktm600000gn/T//ccGzbHF2.s 			page 22


 1187 031e 89010000 		.4byte	.LASF46
 1188 0322 04       		.byte	0x4
 1189 0323 07       		.byte	0x7
 1190 0324 3101     		.2byte	0x131
 1191 0326 3A030000 		.4byte	0x33a
 1192 032a 0C       		.uleb128 0xc
 1193 032b 72313300 		.ascii	"r13\000"
 1194 032f 07       		.byte	0x7
 1195 0330 3201     		.2byte	0x132
 1196 0332 3A030000 		.4byte	0x33a
 1197 0336 02       		.byte	0x2
 1198 0337 23       		.byte	0x23
 1199 0338 00       		.uleb128 0
 1200 0339 00       		.byte	0
 1201 033a 09       		.uleb128 0x9
 1202 033b 04       		.byte	0x4
 1203 033c 8F020000 		.4byte	0x28f
 1204 0340 03       		.uleb128 0x3
 1205 0341 04       		.byte	0x4
 1206 0342 07       		.byte	0x7
 1207 0343 DB010000 		.4byte	.LASF47
 1208 0347 0D       		.uleb128 0xd
 1209 0348 E4000000 		.4byte	0xe4
 1210 034c 08       		.uleb128 0x8
 1211 034d 1C       		.byte	0x1c
 1212 034e 08       		.byte	0x8
 1213 034f 5E       		.byte	0x5e
 1214 0350 A9030000 		.4byte	0x3a9
 1215 0354 06       		.uleb128 0x6
 1216 0355 CC020000 		.4byte	.LASF48
 1217 0359 08       		.byte	0x8
 1218 035a 5F       		.byte	0x5f
 1219 035b 55020000 		.4byte	0x255
 1220 035f 02       		.byte	0x2
 1221 0360 23       		.byte	0x23
 1222 0361 00       		.uleb128 0
 1223 0362 06       		.uleb128 0x6
 1224 0363 7B020000 		.4byte	.LASF49
 1225 0367 08       		.byte	0x8
 1226 0368 60       		.byte	0x60
 1227 0369 C3000000 		.4byte	0xc3
 1228 036d 02       		.byte	0x2
 1229 036e 23       		.byte	0x23
 1230 036f 08       		.uleb128 0x8
 1231 0370 06       		.uleb128 0x6
 1232 0371 EC010000 		.4byte	.LASF50
 1233 0375 08       		.byte	0x8
 1234 0376 62       		.byte	0x62
 1235 0377 1D030000 		.4byte	0x31d
 1236 037b 02       		.byte	0x2
 1237 037c 23       		.byte	0x23
 1238 037d 0C       		.uleb128 0xc
 1239 037e 06       		.uleb128 0x6
 1240 037f 3C010000 		.4byte	.LASF51
 1241 0383 08       		.byte	0x8
 1242 0384 65       		.byte	0x65
 1243 0385 4F020000 		.4byte	0x24f
ARM GAS  /var/folders/dt/0wfd0knj7gs46m8vwfzktm600000gn/T//ccGzbHF2.s 			page 23


 1244 0389 02       		.byte	0x2
 1245 038a 23       		.byte	0x23
 1246 038b 10       		.uleb128 0x10
 1247 038c 06       		.uleb128 0x6
 1248 038d 1A020000 		.4byte	.LASF52
 1249 0391 08       		.byte	0x8
 1250 0392 66       		.byte	0x66
 1251 0393 4F020000 		.4byte	0x24f
 1252 0397 02       		.byte	0x2
 1253 0398 23       		.byte	0x23
 1254 0399 14       		.uleb128 0x14
 1255 039a 06       		.uleb128 0x6
 1256 039b 10020000 		.4byte	.LASF53
 1257 039f 08       		.byte	0x8
 1258 03a0 69       		.byte	0x69
 1259 03a1 4F020000 		.4byte	0x24f
 1260 03a5 02       		.byte	0x2
 1261 03a6 23       		.byte	0x23
 1262 03a7 18       		.uleb128 0x18
 1263 03a8 00       		.byte	0
 1264 03a9 04       		.uleb128 0x4
 1265 03aa 6C030000 		.4byte	.LASF54
 1266 03ae 08       		.byte	0x8
 1267 03af 6B       		.byte	0x6b
 1268 03b0 4C030000 		.4byte	0x34c
 1269 03b4 05       		.uleb128 0x5
 1270 03b5 5B030000 		.4byte	.LASF55
 1271 03b9 0C       		.byte	0xc
 1272 03ba 09       		.byte	0x9
 1273 03bb 2C       		.byte	0x2c
 1274 03bc DD030000 		.4byte	0x3dd
 1275 03c0 06       		.uleb128 0x6
 1276 03c1 23010000 		.4byte	.LASF56
 1277 03c5 09       		.byte	0x9
 1278 03c6 2D       		.byte	0x2d
 1279 03c7 55020000 		.4byte	0x255
 1280 03cb 02       		.byte	0x2
 1281 03cc 23       		.byte	0x23
 1282 03cd 00       		.uleb128 0
 1283 03ce 06       		.uleb128 0x6
 1284 03cf 83010000 		.4byte	.LASF57
 1285 03d3 09       		.byte	0x9
 1286 03d4 2F       		.byte	0x2f
 1287 03d5 EF000000 		.4byte	0xef
 1288 03d9 02       		.byte	0x2
 1289 03da 23       		.byte	0x23
 1290 03db 08       		.uleb128 0x8
 1291 03dc 00       		.byte	0
 1292 03dd 04       		.uleb128 0x4
 1293 03de 5B030000 		.4byte	.LASF55
 1294 03e2 09       		.byte	0x9
 1295 03e3 30       		.byte	0x30
 1296 03e4 B4030000 		.4byte	0x3b4
 1297 03e8 05       		.uleb128 0x5
 1298 03e9 D5010000 		.4byte	.LASF58
 1299 03ed 10       		.byte	0x10
 1300 03ee 0A       		.byte	0xa
ARM GAS  /var/folders/dt/0wfd0knj7gs46m8vwfzktm600000gn/T//ccGzbHF2.s 			page 24


 1301 03ef 2C       		.byte	0x2c
 1302 03f0 1F040000 		.4byte	0x41f
 1303 03f4 06       		.uleb128 0x6
 1304 03f5 91000000 		.4byte	.LASF59
 1305 03f9 0A       		.byte	0xa
 1306 03fa 2D       		.byte	0x2d
 1307 03fb 55020000 		.4byte	0x255
 1308 03ff 02       		.byte	0x2
 1309 0400 23       		.byte	0x23
 1310 0401 00       		.uleb128 0
 1311 0402 06       		.uleb128 0x6
 1312 0403 B3030000 		.4byte	.LASF60
 1313 0407 0A       		.byte	0xa
 1314 0408 2F       		.byte	0x2f
 1315 0409 4F020000 		.4byte	0x24f
 1316 040d 02       		.byte	0x2
 1317 040e 23       		.byte	0x23
 1318 040f 08       		.uleb128 0x8
 1319 0410 06       		.uleb128 0x6
 1320 0411 03030000 		.4byte	.LASF61
 1321 0415 0A       		.byte	0xa
 1322 0416 31       		.byte	0x31
 1323 0417 1F040000 		.4byte	0x41f
 1324 041b 02       		.byte	0x2
 1325 041c 23       		.byte	0x23
 1326 041d 0C       		.uleb128 0xc
 1327 041e 00       		.byte	0
 1328 041f 09       		.uleb128 0x9
 1329 0420 04       		.byte	0x4
 1330 0421 E8030000 		.4byte	0x3e8
 1331 0425 04       		.uleb128 0x4
 1332 0426 D5010000 		.4byte	.LASF58
 1333 042a 0A       		.byte	0xa
 1334 042b 33       		.byte	0x33
 1335 042c E8030000 		.4byte	0x3e8
 1336 0430 0E       		.uleb128 0xe
 1337 0431 04       		.byte	0x4
 1338 0432 06       		.byte	0x6
 1339 0433 96       		.byte	0x96
 1340 0434 65040000 		.4byte	0x465
 1341 0438 0F       		.uleb128 0xf
 1342 0439 20000000 		.4byte	.LASF62
 1343 043d 06       		.byte	0x6
 1344 043e 9D       		.byte	0x9d
 1345 043f CE000000 		.4byte	0xce
 1346 0443 0F       		.uleb128 0xf
 1347 0444 3E000000 		.4byte	.LASF63
 1348 0448 06       		.byte	0x6
 1349 0449 A4       		.byte	0xa4
 1350 044a CE000000 		.4byte	0xce
 1351 044e 0F       		.uleb128 0xf
 1352 044f 90030000 		.4byte	.LASF64
 1353 0453 06       		.byte	0x6
 1354 0454 AB       		.byte	0xab
 1355 0455 8D020000 		.4byte	0x28d
 1356 0459 0F       		.uleb128 0xf
 1357 045a 82020000 		.4byte	.LASF65
ARM GAS  /var/folders/dt/0wfd0knj7gs46m8vwfzktm600000gn/T//ccGzbHF2.s 			page 25


 1358 045e 06       		.byte	0x6
 1359 045f B2       		.byte	0xb2
 1360 0460 D9000000 		.4byte	0xd9
 1361 0464 00       		.byte	0
 1362 0465 09       		.uleb128 0x9
 1363 0466 04       		.byte	0x4
 1364 0467 6B040000 		.4byte	0x46b
 1365 046b 10       		.uleb128 0x10
 1366 046c 70040000 		.4byte	0x470
 1367 0470 03       		.uleb128 0x3
 1368 0471 01       		.byte	0x1
 1369 0472 08       		.byte	0x8
 1370 0473 E0020000 		.4byte	.LASF66
 1371 0477 09       		.uleb128 0x9
 1372 0478 04       		.byte	0x4
 1373 0479 25040000 		.4byte	0x425
 1374 047d 11       		.uleb128 0x11
 1375 047e 30030000 		.4byte	.LASF67
 1376 0482 02       		.byte	0x2
 1377 0483 42       		.byte	0x42
 1378 0484 01       		.byte	0x1
 1379 0485 4F020000 		.4byte	0x24f
 1380 0489 03       		.byte	0x3
 1381 048a A4040000 		.4byte	0x4a4
 1382 048e 12       		.uleb128 0x12
 1383 048f 74717000 		.ascii	"tqp\000"
 1384 0493 02       		.byte	0x2
 1385 0494 42       		.byte	0x42
 1386 0495 A4040000 		.4byte	0x4a4
 1387 0499 13       		.uleb128 0x13
 1388 049a 747000   		.ascii	"tp\000"
 1389 049d 02       		.byte	0x2
 1390 049e 43       		.byte	0x43
 1391 049f 4F020000 		.4byte	0x24f
 1392 04a3 00       		.byte	0
 1393 04a4 09       		.uleb128 0x9
 1394 04a5 04       		.byte	0x4
 1395 04a6 55020000 		.4byte	0x255
 1396 04aa 14       		.uleb128 0x14
 1397 04ab 06000000 		.4byte	.LASF86
 1398 04af 02       		.byte	0x2
 1399 04b0 34       		.byte	0x34
 1400 04b1 01       		.byte	0x1
 1401 04b2 03       		.byte	0x3
 1402 04b3 CD040000 		.4byte	0x4cd
 1403 04b7 12       		.uleb128 0x12
 1404 04b8 747000   		.ascii	"tp\000"
 1405 04bb 02       		.byte	0x2
 1406 04bc 34       		.byte	0x34
 1407 04bd 4F020000 		.4byte	0x24f
 1408 04c1 12       		.uleb128 0x12
 1409 04c2 74717000 		.ascii	"tqp\000"
 1410 04c6 02       		.byte	0x2
 1411 04c7 34       		.byte	0x34
 1412 04c8 A4040000 		.4byte	0x4a4
 1413 04cc 00       		.byte	0
 1414 04cd 11       		.uleb128 0x11
ARM GAS  /var/folders/dt/0wfd0knj7gs46m8vwfzktm600000gn/T//ccGzbHF2.s 			page 26


 1415 04ce E5020000 		.4byte	.LASF68
 1416 04d2 02       		.byte	0x2
 1417 04d3 3B       		.byte	0x3b
 1418 04d4 01       		.byte	0x1
 1419 04d5 4F020000 		.4byte	0x24f
 1420 04d9 03       		.byte	0x3
 1421 04da F4040000 		.4byte	0x4f4
 1422 04de 12       		.uleb128 0x12
 1423 04df 74717000 		.ascii	"tqp\000"
 1424 04e3 02       		.byte	0x2
 1425 04e4 3B       		.byte	0x3b
 1426 04e5 A4040000 		.4byte	0x4a4
 1427 04e9 13       		.uleb128 0x13
 1428 04ea 747000   		.ascii	"tp\000"
 1429 04ed 02       		.byte	0x2
 1430 04ee 3C       		.byte	0x3c
 1431 04ef 4F020000 		.4byte	0x24f
 1432 04f3 00       		.byte	0
 1433 04f4 15       		.uleb128 0x15
 1434 04f5 01       		.byte	0x1
 1435 04f6 CB030000 		.4byte	.LASF69
 1436 04fa 01       		.byte	0x1
 1437 04fb 56       		.byte	0x56
 1438 04fc 01       		.byte	0x1
 1439 04fd 00000000 		.4byte	.LFB7
 1440 0501 08000000 		.4byte	.LFE7
 1441 0505 02       		.byte	0x2
 1442 0506 7D       		.byte	0x7d
 1443 0507 00       		.sleb128 0
 1444 0508 01       		.byte	0x1
 1445 0509 25050000 		.4byte	0x525
 1446 050d 16       		.uleb128 0x16
 1447 050e 737000   		.ascii	"sp\000"
 1448 0511 01       		.byte	0x1
 1449 0512 56       		.byte	0x56
 1450 0513 25050000 		.4byte	0x525
 1451 0517 01       		.byte	0x1
 1452 0518 50       		.byte	0x50
 1453 0519 16       		.uleb128 0x16
 1454 051a 6E00     		.ascii	"n\000"
 1455 051c 01       		.byte	0x1
 1456 051d 56       		.byte	0x56
 1457 051e EF000000 		.4byte	0xef
 1458 0522 01       		.byte	0x1
 1459 0523 51       		.byte	0x51
 1460 0524 00       		.byte	0
 1461 0525 09       		.uleb128 0x9
 1462 0526 04       		.byte	0x4
 1463 0527 DD030000 		.4byte	0x3dd
 1464 052b 17       		.uleb128 0x17
 1465 052c 01       		.byte	0x1
 1466 052d 76030000 		.4byte	.LASF70
 1467 0531 01       		.byte	0x1
 1468 0532 88       		.byte	0x88
 1469 0533 01       		.byte	0x1
 1470 0534 00000000 		.4byte	.LFB9
 1471 0538 28000000 		.4byte	.LFE9
ARM GAS  /var/folders/dt/0wfd0knj7gs46m8vwfzktm600000gn/T//ccGzbHF2.s 			page 27


 1472 053c 00000000 		.4byte	.LLST0
 1473 0540 01       		.byte	0x1
 1474 0541 A5050000 		.4byte	0x5a5
 1475 0545 18       		.uleb128 0x18
 1476 0546 737000   		.ascii	"sp\000"
 1477 0549 01       		.byte	0x1
 1478 054a 88       		.byte	0x88
 1479 054b 25050000 		.4byte	0x525
 1480 054f 20000000 		.4byte	.LLST1
 1481 0553 18       		.uleb128 0x18
 1482 0554 6E00     		.ascii	"n\000"
 1483 0556 01       		.byte	0x1
 1484 0557 88       		.byte	0x88
 1485 0558 EF000000 		.4byte	0xef
 1486 055c 3E000000 		.4byte	.LLST2
 1487 0560 19       		.uleb128 0x19
 1488 0561 636E7400 		.ascii	"cnt\000"
 1489 0565 01       		.byte	0x1
 1490 0566 89       		.byte	0x89
 1491 0567 EF000000 		.4byte	0xef
 1492 056b 5F000000 		.4byte	.LLST3
 1493 056f 1A       		.uleb128 0x1a
 1494 0570 7D040000 		.4byte	0x47d
 1495 0574 12000000 		.4byte	.LBB24
 1496 0578 00000000 		.4byte	.Ldebug_ranges0+0
 1497 057c 01       		.byte	0x1
 1498 057d 95       		.byte	0x95
 1499 057e 9B050000 		.4byte	0x59b
 1500 0582 1B       		.uleb128 0x1b
 1501 0583 8E040000 		.4byte	0x48e
 1502 0587 A1000000 		.4byte	.LLST4
 1503 058b 1C       		.uleb128 0x1c
 1504 058c 18000000 		.4byte	.Ldebug_ranges0+0x18
 1505 0590 1D       		.uleb128 0x1d
 1506 0591 99040000 		.4byte	0x499
 1507 0595 B4000000 		.4byte	.LLST5
 1508 0599 00       		.byte	0
 1509 059a 00       		.byte	0
 1510 059b 1E       		.uleb128 0x1e
 1511 059c 20000000 		.4byte	.LVL8
 1512 05a0 E90A0000 		.4byte	0xae9
 1513 05a4 00       		.byte	0
 1514 05a5 17       		.uleb128 0x17
 1515 05a6 01       		.byte	0x1
 1516 05a7 A4010000 		.4byte	.LASF71
 1517 05ab 01       		.byte	0x1
 1518 05ac 6D       		.byte	0x6d
 1519 05ad 01       		.byte	0x1
 1520 05ae 00000000 		.4byte	.LFB8
 1521 05b2 18000000 		.4byte	.LFE8
 1522 05b6 C7000000 		.4byte	.LLST6
 1523 05ba 01       		.byte	0x1
 1524 05bb 3A060000 		.4byte	0x63a
 1525 05bf 18       		.uleb128 0x18
 1526 05c0 737000   		.ascii	"sp\000"
 1527 05c3 01       		.byte	0x1
 1528 05c4 6D       		.byte	0x6d
ARM GAS  /var/folders/dt/0wfd0knj7gs46m8vwfzktm600000gn/T//ccGzbHF2.s 			page 28


 1529 05c5 25050000 		.4byte	0x525
 1530 05c9 E7000000 		.4byte	.LLST7
 1531 05cd 18       		.uleb128 0x18
 1532 05ce 6E00     		.ascii	"n\000"
 1533 05d0 01       		.byte	0x1
 1534 05d1 6D       		.byte	0x6d
 1535 05d2 EF000000 		.4byte	0xef
 1536 05d6 08010000 		.4byte	.LLST8
 1537 05da 1F       		.uleb128 0x1f
 1538 05db 02000000 		.4byte	.LBB28
 1539 05df 08000000 		.4byte	.LBE28
 1540 05e3 F7050000 		.4byte	0x5f7
 1541 05e7 19       		.uleb128 0x19
 1542 05e8 746D7000 		.ascii	"tmp\000"
 1543 05ec 01       		.byte	0x1
 1544 05ed 6F       		.byte	0x6f
 1545 05ee 70000000 		.4byte	0x70
 1546 05f2 29010000 		.4byte	.LLST9
 1547 05f6 00       		.byte	0
 1548 05f7 1F       		.uleb128 0x1f
 1549 05f8 10000000 		.4byte	.LBB29
 1550 05fc 18000000 		.4byte	.LBE29
 1551 0600 14060000 		.4byte	0x614
 1552 0604 19       		.uleb128 0x19
 1553 0605 746D7000 		.ascii	"tmp\000"
 1554 0609 01       		.byte	0x1
 1555 060a 72       		.byte	0x72
 1556 060b 70000000 		.4byte	0x70
 1557 060f 3C010000 		.4byte	.LLST10
 1558 0613 00       		.byte	0
 1559 0614 20       		.uleb128 0x20
 1560 0615 0C000000 		.4byte	.LVL14
 1561 0619 2B050000 		.4byte	0x52b
 1562 061d 30060000 		.4byte	0x630
 1563 0621 21       		.uleb128 0x21
 1564 0622 01       		.byte	0x1
 1565 0623 51       		.byte	0x51
 1566 0624 03       		.byte	0x3
 1567 0625 F3       		.byte	0xf3
 1568 0626 01       		.uleb128 0x1
 1569 0627 51       		.byte	0x51
 1570 0628 21       		.uleb128 0x21
 1571 0629 01       		.byte	0x1
 1572 062a 50       		.byte	0x50
 1573 062b 03       		.byte	0x3
 1574 062c F3       		.byte	0xf3
 1575 062d 01       		.uleb128 0x1
 1576 062e 50       		.byte	0x50
 1577 062f 00       		.byte	0
 1578 0630 1E       		.uleb128 0x1e
 1579 0631 10000000 		.4byte	.LVL15
 1580 0635 010B0000 		.4byte	0xb01
 1581 0639 00       		.byte	0
 1582 063a 22       		.uleb128 0x22
 1583 063b 01       		.byte	0x1
 1584 063c 98020000 		.4byte	.LASF72
 1585 0640 01       		.byte	0x1
ARM GAS  /var/folders/dt/0wfd0knj7gs46m8vwfzktm600000gn/T//ccGzbHF2.s 			page 29


 1586 0641 B9       		.byte	0xb9
 1587 0642 01       		.byte	0x1
 1588 0643 CE000000 		.4byte	0xce
 1589 0647 00000000 		.4byte	.LFB11
 1590 064b 34000000 		.4byte	.LFE11
 1591 064f 4F010000 		.4byte	.LLST11
 1592 0653 01       		.byte	0x1
 1593 0654 9C060000 		.4byte	0x69c
 1594 0658 18       		.uleb128 0x18
 1595 0659 737000   		.ascii	"sp\000"
 1596 065c 01       		.byte	0x1
 1597 065d B9       		.byte	0xb9
 1598 065e 25050000 		.4byte	0x525
 1599 0662 6F010000 		.4byte	.LLST12
 1600 0666 23       		.uleb128 0x23
 1601 0667 AA040000 		.4byte	0x4aa
 1602 066b 1A000000 		.4byte	.LBB30
 1603 066f 24000000 		.4byte	.LBE30
 1604 0673 01       		.byte	0x1
 1605 0674 C4       		.byte	0xc4
 1606 0675 8C060000 		.4byte	0x68c
 1607 0679 1B       		.uleb128 0x1b
 1608 067a C1040000 		.4byte	0x4c1
 1609 067e B1010000 		.4byte	.LLST13
 1610 0682 1B       		.uleb128 0x1b
 1611 0683 B7040000 		.4byte	0x4b7
 1612 0687 D3010000 		.4byte	.LLST14
 1613 068b 00       		.byte	0
 1614 068c 24       		.uleb128 0x24
 1615 068d 28000000 		.4byte	.LVL23
 1616 0691 0B0B0000 		.4byte	0xb0b
 1617 0695 21       		.uleb128 0x21
 1618 0696 01       		.byte	0x1
 1619 0697 50       		.byte	0x50
 1620 0698 01       		.byte	0x1
 1621 0699 33       		.byte	0x33
 1622 069a 00       		.byte	0
 1623 069b 00       		.byte	0
 1624 069c 22       		.uleb128 0x22
 1625 069d 01       		.byte	0x1
 1626 069e 1F030000 		.4byte	.LASF73
 1627 06a2 01       		.byte	0x1
 1628 06a3 A4       		.byte	0xa4
 1629 06a4 01       		.byte	0x1
 1630 06a5 CE000000 		.4byte	0xce
 1631 06a9 00000000 		.4byte	.LFB10
 1632 06ad 14000000 		.4byte	.LFE10
 1633 06b1 E6010000 		.4byte	.LLST15
 1634 06b5 01       		.byte	0x1
 1635 06b6 21070000 		.4byte	0x721
 1636 06ba 18       		.uleb128 0x18
 1637 06bb 737000   		.ascii	"sp\000"
 1638 06be 01       		.byte	0x1
 1639 06bf A4       		.byte	0xa4
 1640 06c0 25050000 		.4byte	0x525
 1641 06c4 06020000 		.4byte	.LLST16
 1642 06c8 25       		.uleb128 0x25
ARM GAS  /var/folders/dt/0wfd0knj7gs46m8vwfzktm600000gn/T//ccGzbHF2.s 			page 30


 1643 06c9 6D736700 		.ascii	"msg\000"
 1644 06cd 01       		.byte	0x1
 1645 06ce A5       		.byte	0xa5
 1646 06cf CE000000 		.4byte	0xce
 1647 06d3 01       		.byte	0x1
 1648 06d4 50       		.byte	0x50
 1649 06d5 1F       		.uleb128 0x1f
 1650 06d6 02000000 		.4byte	.LBB32
 1651 06da 08000000 		.4byte	.LBE32
 1652 06de F2060000 		.4byte	0x6f2
 1653 06e2 19       		.uleb128 0x19
 1654 06e3 746D7000 		.ascii	"tmp\000"
 1655 06e7 01       		.byte	0x1
 1656 06e8 A7       		.byte	0xa7
 1657 06e9 70000000 		.4byte	0x70
 1658 06ed 27020000 		.4byte	.LLST17
 1659 06f1 00       		.byte	0
 1660 06f2 1F       		.uleb128 0x1f
 1661 06f3 0C000000 		.4byte	.LBB33
 1662 06f7 12000000 		.4byte	.LBE33
 1663 06fb 0F070000 		.4byte	0x70f
 1664 06ff 19       		.uleb128 0x19
 1665 0700 746D7000 		.ascii	"tmp\000"
 1666 0704 01       		.byte	0x1
 1667 0705 A9       		.byte	0xa9
 1668 0706 70000000 		.4byte	0x70
 1669 070a 3A020000 		.4byte	.LLST18
 1670 070e 00       		.byte	0
 1671 070f 24       		.uleb128 0x24
 1672 0710 0C000000 		.4byte	.LVL27
 1673 0714 3A060000 		.4byte	0x63a
 1674 0718 21       		.uleb128 0x21
 1675 0719 01       		.byte	0x1
 1676 071a 50       		.byte	0x50
 1677 071b 03       		.byte	0x3
 1678 071c F3       		.byte	0xf3
 1679 071d 01       		.uleb128 0x1
 1680 071e 50       		.byte	0x50
 1681 071f 00       		.byte	0
 1682 0720 00       		.byte	0
 1683 0721 22       		.uleb128 0x22
 1684 0722 01       		.byte	0x1
 1685 0723 F1020000 		.4byte	.LASF74
 1686 0727 01       		.byte	0x1
 1687 0728 FA       		.byte	0xfa
 1688 0729 01       		.byte	0x1
 1689 072a CE000000 		.4byte	0xce
 1690 072e 00000000 		.4byte	.LFB13
 1691 0732 3C000000 		.4byte	.LFE13
 1692 0736 4D020000 		.4byte	.LLST19
 1693 073a 01       		.byte	0x1
 1694 073b 94070000 		.4byte	0x794
 1695 073f 18       		.uleb128 0x18
 1696 0740 737000   		.ascii	"sp\000"
 1697 0743 01       		.byte	0x1
 1698 0744 FA       		.byte	0xfa
 1699 0745 25050000 		.4byte	0x525
ARM GAS  /var/folders/dt/0wfd0knj7gs46m8vwfzktm600000gn/T//ccGzbHF2.s 			page 31


 1700 0749 6D020000 		.4byte	.LLST20
 1701 074d 26       		.uleb128 0x26
 1702 074e FF010000 		.4byte	.LASF75
 1703 0752 01       		.byte	0x1
 1704 0753 FA       		.byte	0xfa
 1705 0754 E4000000 		.4byte	0xe4
 1706 0758 A4020000 		.4byte	.LLST21
 1707 075c 27       		.uleb128 0x27
 1708 075d AA040000 		.4byte	0x4aa
 1709 0761 20000000 		.4byte	.LBB34
 1710 0765 2A000000 		.4byte	.LBE34
 1711 0769 01       		.byte	0x1
 1712 076a 0901     		.2byte	0x109
 1713 076c 83070000 		.4byte	0x783
 1714 0770 1B       		.uleb128 0x1b
 1715 0771 C1040000 		.4byte	0x4c1
 1716 0775 D0020000 		.4byte	.LLST22
 1717 0779 1B       		.uleb128 0x1b
 1718 077a B7040000 		.4byte	0x4b7
 1719 077e F2020000 		.4byte	.LLST23
 1720 0782 00       		.byte	0
 1721 0783 28       		.uleb128 0x28
 1722 0784 30000000 		.4byte	.LVL33
 1723 0788 01       		.byte	0x1
 1724 0789 1F0B0000 		.4byte	0xb1f
 1725 078d 21       		.uleb128 0x21
 1726 078e 01       		.byte	0x1
 1727 078f 50       		.byte	0x50
 1728 0790 01       		.byte	0x1
 1729 0791 33       		.byte	0x33
 1730 0792 00       		.byte	0
 1731 0793 00       		.byte	0
 1732 0794 22       		.uleb128 0x22
 1733 0795 01       		.byte	0x1
 1734 0796 60010000 		.4byte	.LASF76
 1735 079a 01       		.byte	0x1
 1736 079b DE       		.byte	0xde
 1737 079c 01       		.byte	0x1
 1738 079d CE000000 		.4byte	0xce
 1739 07a1 00000000 		.4byte	.LFB12
 1740 07a5 14000000 		.4byte	.LFE12
 1741 07a9 05030000 		.4byte	.LLST24
 1742 07ad 01       		.byte	0x1
 1743 07ae 2F080000 		.4byte	0x82f
 1744 07b2 18       		.uleb128 0x18
 1745 07b3 737000   		.ascii	"sp\000"
 1746 07b6 01       		.byte	0x1
 1747 07b7 DE       		.byte	0xde
 1748 07b8 25050000 		.4byte	0x525
 1749 07bc 25030000 		.4byte	.LLST25
 1750 07c0 26       		.uleb128 0x26
 1751 07c1 FF010000 		.4byte	.LASF75
 1752 07c5 01       		.byte	0x1
 1753 07c6 DE       		.byte	0xde
 1754 07c7 E4000000 		.4byte	0xe4
 1755 07cb 46030000 		.4byte	.LLST26
 1756 07cf 25       		.uleb128 0x25
ARM GAS  /var/folders/dt/0wfd0knj7gs46m8vwfzktm600000gn/T//ccGzbHF2.s 			page 32


 1757 07d0 6D736700 		.ascii	"msg\000"
 1758 07d4 01       		.byte	0x1
 1759 07d5 DF       		.byte	0xdf
 1760 07d6 CE000000 		.4byte	0xce
 1761 07da 01       		.byte	0x1
 1762 07db 50       		.byte	0x50
 1763 07dc 1F       		.uleb128 0x1f
 1764 07dd 02000000 		.4byte	.LBB36
 1765 07e1 08000000 		.4byte	.LBE36
 1766 07e5 F9070000 		.4byte	0x7f9
 1767 07e9 19       		.uleb128 0x19
 1768 07ea 746D7000 		.ascii	"tmp\000"
 1769 07ee 01       		.byte	0x1
 1770 07ef E1       		.byte	0xe1
 1771 07f0 70000000 		.4byte	0x70
 1772 07f4 67030000 		.4byte	.LLST27
 1773 07f8 00       		.byte	0
 1774 07f9 1F       		.uleb128 0x1f
 1775 07fa 0C000000 		.4byte	.LBB37
 1776 07fe 12000000 		.4byte	.LBE37
 1777 0802 16080000 		.4byte	0x816
 1778 0806 19       		.uleb128 0x19
 1779 0807 746D7000 		.ascii	"tmp\000"
 1780 080b 01       		.byte	0x1
 1781 080c E3       		.byte	0xe3
 1782 080d 70000000 		.4byte	0x70
 1783 0811 7A030000 		.4byte	.LLST28
 1784 0815 00       		.byte	0
 1785 0816 24       		.uleb128 0x24
 1786 0817 0C000000 		.4byte	.LVL37
 1787 081b 21070000 		.4byte	0x721
 1788 081f 21       		.uleb128 0x21
 1789 0820 01       		.byte	0x1
 1790 0821 51       		.byte	0x51
 1791 0822 03       		.byte	0x3
 1792 0823 F3       		.byte	0xf3
 1793 0824 01       		.uleb128 0x1
 1794 0825 51       		.byte	0x51
 1795 0826 21       		.uleb128 0x21
 1796 0827 01       		.byte	0x1
 1797 0828 50       		.byte	0x50
 1798 0829 03       		.byte	0x3
 1799 082a F3       		.byte	0xf3
 1800 082b 01       		.uleb128 0x1
 1801 082c 50       		.byte	0x50
 1802 082d 00       		.byte	0
 1803 082e 00       		.byte	0
 1804 082f 29       		.uleb128 0x29
 1805 0830 01       		.byte	0x1
 1806 0831 0F010000 		.4byte	.LASF77
 1807 0835 01       		.byte	0x1
 1808 0836 1601     		.2byte	0x116
 1809 0838 01       		.byte	0x1
 1810 0839 00000000 		.4byte	.LFB14
 1811 083d 2C000000 		.4byte	.LFE14
 1812 0841 8D030000 		.4byte	.LLST29
 1813 0845 01       		.byte	0x1
ARM GAS  /var/folders/dt/0wfd0knj7gs46m8vwfzktm600000gn/T//ccGzbHF2.s 			page 33


 1814 0846 D2080000 		.4byte	0x8d2
 1815 084a 2A       		.uleb128 0x2a
 1816 084b 737000   		.ascii	"sp\000"
 1817 084e 01       		.byte	0x1
 1818 084f 1601     		.2byte	0x116
 1819 0851 25050000 		.4byte	0x525
 1820 0855 AD030000 		.4byte	.LLST30
 1821 0859 1F       		.uleb128 0x1f
 1822 085a 04000000 		.4byte	.LBB38
 1823 085e 0A000000 		.4byte	.LBE38
 1824 0862 77080000 		.4byte	0x877
 1825 0866 2B       		.uleb128 0x2b
 1826 0867 746D7000 		.ascii	"tmp\000"
 1827 086b 01       		.byte	0x1
 1828 086c 1E01     		.2byte	0x11e
 1829 086e 70000000 		.4byte	0x70
 1830 0872 F2030000 		.4byte	.LLST31
 1831 0876 00       		.byte	0
 1832 0877 1F       		.uleb128 0x1f
 1833 0878 14000000 		.4byte	.LBB39
 1834 087c 1C000000 		.4byte	.LBE39
 1835 0880 95080000 		.4byte	0x895
 1836 0884 2B       		.uleb128 0x2b
 1837 0885 746D7000 		.ascii	"tmp\000"
 1838 0889 01       		.byte	0x1
 1839 088a 2101     		.2byte	0x121
 1840 088c 70000000 		.4byte	0x70
 1841 0890 05040000 		.4byte	.LLST32
 1842 0894 00       		.byte	0
 1843 0895 2C       		.uleb128 0x2c
 1844 0896 CD040000 		.4byte	0x4cd
 1845 089a 1C000000 		.4byte	.LBB40
 1846 089e 30000000 		.4byte	.Ldebug_ranges0+0x30
 1847 08a2 01       		.byte	0x1
 1848 08a3 2001     		.2byte	0x120
 1849 08a5 C2080000 		.4byte	0x8c2
 1850 08a9 1B       		.uleb128 0x1b
 1851 08aa DE040000 		.4byte	0x4de
 1852 08ae 18040000 		.4byte	.LLST33
 1853 08b2 1C       		.uleb128 0x1c
 1854 08b3 48000000 		.4byte	.Ldebug_ranges0+0x48
 1855 08b7 1D       		.uleb128 0x1d
 1856 08b8 E9040000 		.4byte	0x4e9
 1857 08bc 44040000 		.4byte	.LLST34
 1858 08c0 00       		.byte	0
 1859 08c1 00       		.byte	0
 1860 08c2 24       		.uleb128 0x24
 1861 08c3 2A000000 		.4byte	.LVL49
 1862 08c7 3C0B0000 		.4byte	0xb3c
 1863 08cb 21       		.uleb128 0x21
 1864 08cc 01       		.byte	0x1
 1865 08cd 51       		.byte	0x51
 1866 08ce 01       		.byte	0x1
 1867 08cf 30       		.byte	0x30
 1868 08d0 00       		.byte	0
 1869 08d1 00       		.byte	0
 1870 08d2 2D       		.uleb128 0x2d
ARM GAS  /var/folders/dt/0wfd0knj7gs46m8vwfzktm600000gn/T//ccGzbHF2.s 			page 34


 1871 08d3 01       		.byte	0x1
 1872 08d4 13000000 		.4byte	.LASF78
 1873 08d8 01       		.byte	0x1
 1874 08d9 2F01     		.2byte	0x12f
 1875 08db 01       		.byte	0x1
 1876 08dc 00000000 		.4byte	.LFB15
 1877 08e0 20000000 		.4byte	.LFE15
 1878 08e4 02       		.byte	0x2
 1879 08e5 7D       		.byte	0x7d
 1880 08e6 00       		.sleb128 0
 1881 08e7 01       		.byte	0x1
 1882 08e8 46090000 		.4byte	0x946
 1883 08ec 2A       		.uleb128 0x2a
 1884 08ed 737000   		.ascii	"sp\000"
 1885 08f0 01       		.byte	0x1
 1886 08f1 2F01     		.2byte	0x12f
 1887 08f3 25050000 		.4byte	0x525
 1888 08f7 57040000 		.4byte	.LLST35
 1889 08fb 1C       		.uleb128 0x1c
 1890 08fc 60000000 		.4byte	.Ldebug_ranges0+0x60
 1891 0900 2E       		.uleb128 0x2e
 1892 0901 747000   		.ascii	"tp\000"
 1893 0904 01       		.byte	0x1
 1894 0905 3B01     		.2byte	0x13b
 1895 0907 4F020000 		.4byte	0x24f
 1896 090b 01       		.byte	0x1
 1897 090c 52       		.byte	0x52
 1898 090d 2C       		.uleb128 0x2c
 1899 090e CD040000 		.4byte	0x4cd
 1900 0912 0E000000 		.4byte	.LBB45
 1901 0916 78000000 		.4byte	.Ldebug_ranges0+0x78
 1902 091a 01       		.byte	0x1
 1903 091b 3B01     		.2byte	0x13b
 1904 091d 3A090000 		.4byte	0x93a
 1905 0921 1B       		.uleb128 0x1b
 1906 0922 DE040000 		.4byte	0x4de
 1907 0926 8F040000 		.4byte	.LLST36
 1908 092a 1C       		.uleb128 0x1c
 1909 092b 90000000 		.4byte	.Ldebug_ranges0+0x90
 1910 092f 1D       		.uleb128 0x1d
 1911 0930 E9040000 		.4byte	0x4e9
 1912 0934 C7040000 		.4byte	.LLST37
 1913 0938 00       		.byte	0
 1914 0939 00       		.byte	0
 1915 093a 2F       		.uleb128 0x2f
 1916 093b 20000000 		.4byte	.LVL55
 1917 093f 01       		.byte	0x1
 1918 0940 E90A0000 		.4byte	0xae9
 1919 0944 00       		.byte	0
 1920 0945 00       		.byte	0
 1921 0946 29       		.uleb128 0x29
 1922 0947 01       		.byte	0x1
 1923 0948 47000000 		.4byte	.LASF79
 1924 094c 01       		.byte	0x1
 1925 094d 4E01     		.2byte	0x14e
 1926 094f 01       		.byte	0x1
 1927 0950 00000000 		.4byte	.LFB16
ARM GAS  /var/folders/dt/0wfd0knj7gs46m8vwfzktm600000gn/T//ccGzbHF2.s 			page 35


 1928 0954 2E000000 		.4byte	.LFE16
 1929 0958 DA040000 		.4byte	.LLST38
 1930 095c 01       		.byte	0x1
 1931 095d B9090000 		.4byte	0x9b9
 1932 0961 2A       		.uleb128 0x2a
 1933 0962 737000   		.ascii	"sp\000"
 1934 0965 01       		.byte	0x1
 1935 0966 4E01     		.2byte	0x14e
 1936 0968 25050000 		.4byte	0x525
 1937 096c FA040000 		.4byte	.LLST39
 1938 0970 2A       		.uleb128 0x2a
 1939 0971 6E00     		.ascii	"n\000"
 1940 0973 01       		.byte	0x1
 1941 0974 4E01     		.2byte	0x14e
 1942 0976 EF000000 		.4byte	0xef
 1943 097a 18050000 		.4byte	.LLST40
 1944 097e 27       		.uleb128 0x27
 1945 097f CD040000 		.4byte	0x4cd
 1946 0983 1A000000 		.4byte	.LBB50
 1947 0987 22000000 		.4byte	.LBE50
 1948 098b 01       		.byte	0x1
 1949 098c 5901     		.2byte	0x159
 1950 098e AF090000 		.4byte	0x9af
 1951 0992 1B       		.uleb128 0x1b
 1952 0993 DE040000 		.4byte	0x4de
 1953 0997 43050000 		.4byte	.LLST41
 1954 099b 30       		.uleb128 0x30
 1955 099c 1A000000 		.4byte	.LBB51
 1956 09a0 22000000 		.4byte	.LBE51
 1957 09a4 1D       		.uleb128 0x1d
 1958 09a5 E9040000 		.4byte	0x4e9
 1959 09a9 56050000 		.4byte	.LLST42
 1960 09ad 00       		.byte	0
 1961 09ae 00       		.byte	0
 1962 09af 1E       		.uleb128 0x1e
 1963 09b0 26000000 		.4byte	.LVL62
 1964 09b4 E90A0000 		.4byte	0xae9
 1965 09b8 00       		.byte	0
 1966 09b9 31       		.uleb128 0x31
 1967 09ba 01       		.byte	0x1
 1968 09bb 79000000 		.4byte	.LASF80
 1969 09bf 01       		.byte	0x1
 1970 09c0 6E01     		.2byte	0x16e
 1971 09c2 01       		.byte	0x1
 1972 09c3 CE000000 		.4byte	0xce
 1973 09c7 00000000 		.4byte	.LFB17
 1974 09cb 64000000 		.4byte	.LFE17
 1975 09cf 69050000 		.4byte	.LLST43
 1976 09d3 01       		.byte	0x1
 1977 09d4 DC0A0000 		.4byte	0xadc
 1978 09d8 2A       		.uleb128 0x2a
 1979 09d9 73707300 		.ascii	"sps\000"
 1980 09dd 01       		.byte	0x1
 1981 09de 6E01     		.2byte	0x16e
 1982 09e0 25050000 		.4byte	0x525
 1983 09e4 95050000 		.4byte	.LLST44
 1984 09e8 2A       		.uleb128 0x2a
ARM GAS  /var/folders/dt/0wfd0knj7gs46m8vwfzktm600000gn/T//ccGzbHF2.s 			page 36


 1985 09e9 73707700 		.ascii	"spw\000"
 1986 09ed 01       		.byte	0x1
 1987 09ee 6E01     		.2byte	0x16e
 1988 09f0 25050000 		.4byte	0x525
 1989 09f4 DA050000 		.4byte	.LLST45
 1990 09f8 2B       		.uleb128 0x2b
 1991 09f9 6D736700 		.ascii	"msg\000"
 1992 09fd 01       		.byte	0x1
 1993 09fe 6F01     		.2byte	0x16f
 1994 0a00 CE000000 		.4byte	0xce
 1995 0a04 14060000 		.4byte	.LLST46
 1996 0a08 1F       		.uleb128 0x1f
 1997 0a09 06000000 		.4byte	.LBB52
 1998 0a0d 0C000000 		.4byte	.LBE52
 1999 0a11 260A0000 		.4byte	0xa26
 2000 0a15 2B       		.uleb128 0x2b
 2001 0a16 746D7000 		.ascii	"tmp\000"
 2002 0a1a 01       		.byte	0x1
 2003 0a1b 7B01     		.2byte	0x17b
 2004 0a1d 70000000 		.4byte	0x70
 2005 0a21 3E060000 		.4byte	.LLST47
 2006 0a25 00       		.byte	0
 2007 0a26 1F       		.uleb128 0x1f
 2008 0a27 26000000 		.4byte	.LBB53
 2009 0a2b 2C000000 		.4byte	.LBE53
 2010 0a2f 440A0000 		.4byte	0xa44
 2011 0a33 2B       		.uleb128 0x2b
 2012 0a34 746D7000 		.ascii	"tmp\000"
 2013 0a38 01       		.byte	0x1
 2014 0a39 8901     		.2byte	0x189
 2015 0a3b 70000000 		.4byte	0x70
 2016 0a3f 51060000 		.4byte	.LLST48
 2017 0a43 00       		.byte	0
 2018 0a44 1F       		.uleb128 0x1f
 2019 0a45 30000000 		.4byte	.LBB54
 2020 0a49 4A000000 		.4byte	.LBE54
 2021 0a4d 980A0000 		.4byte	0xa98
 2022 0a51 2B       		.uleb128 0x2b
 2023 0a52 63747000 		.ascii	"ctp\000"
 2024 0a56 01       		.byte	0x1
 2025 0a57 7F01     		.2byte	0x17f
 2026 0a59 4F020000 		.4byte	0x24f
 2027 0a5d 64060000 		.4byte	.LLST49
 2028 0a61 2C       		.uleb128 0x2c
 2029 0a62 AA040000 		.4byte	0x4aa
 2030 0a66 32000000 		.4byte	.LBB55
 2031 0a6a A8000000 		.4byte	.Ldebug_ranges0+0xa8
 2032 0a6e 01       		.byte	0x1
 2033 0a6f 8001     		.2byte	0x180
 2034 0a71 880A0000 		.4byte	0xa88
 2035 0a75 1B       		.uleb128 0x1b
 2036 0a76 C1040000 		.4byte	0x4c1
 2037 0a7a 77060000 		.4byte	.LLST50
 2038 0a7e 1B       		.uleb128 0x1b
 2039 0a7f B7040000 		.4byte	0x4b7
 2040 0a83 64060000 		.4byte	.LLST49
 2041 0a87 00       		.byte	0
ARM GAS  /var/folders/dt/0wfd0knj7gs46m8vwfzktm600000gn/T//ccGzbHF2.s 			page 37


 2042 0a88 24       		.uleb128 0x24
 2043 0a89 46000000 		.4byte	.LVL75
 2044 0a8d 0B0B0000 		.4byte	0xb0b
 2045 0a91 21       		.uleb128 0x21
 2046 0a92 01       		.byte	0x1
 2047 0a93 50       		.byte	0x50
 2048 0a94 01       		.byte	0x1
 2049 0a95 33       		.byte	0x33
 2050 0a96 00       		.byte	0
 2051 0a97 00       		.byte	0
 2052 0a98 27       		.uleb128 0x27
 2053 0a99 CD040000 		.4byte	0x4cd
 2054 0a9d 4A000000 		.4byte	.LBB59
 2055 0aa1 52000000 		.4byte	.LBE59
 2056 0aa5 01       		.byte	0x1
 2057 0aa6 7D01     		.2byte	0x17d
 2058 0aa8 C90A0000 		.4byte	0xac9
 2059 0aac 1B       		.uleb128 0x1b
 2060 0aad DE040000 		.4byte	0x4de
 2061 0ab1 8A060000 		.4byte	.LLST52
 2062 0ab5 30       		.uleb128 0x30
 2063 0ab6 4A000000 		.4byte	.LBB60
 2064 0aba 52000000 		.4byte	.LBE60
 2065 0abe 1D       		.uleb128 0x1d
 2066 0abf E9040000 		.4byte	0x4e9
 2067 0ac3 B6060000 		.4byte	.LLST53
 2068 0ac7 00       		.byte	0
 2069 0ac8 00       		.byte	0
 2070 0ac9 1E       		.uleb128 0x1e
 2071 0aca 24000000 		.4byte	.LVL69
 2072 0ace 010B0000 		.4byte	0xb01
 2073 0ad2 1E       		.uleb128 0x1e
 2074 0ad3 58000000 		.4byte	.LVL79
 2075 0ad7 E90A0000 		.4byte	0xae9
 2076 0adb 00       		.byte	0
 2077 0adc 32       		.uleb128 0x32
 2078 0add 82030000 		.4byte	.LASF87
 2079 0ae1 08       		.byte	0x8
 2080 0ae2 6F       		.byte	0x6f
 2081 0ae3 A9030000 		.4byte	0x3a9
 2082 0ae7 01       		.byte	0x1
 2083 0ae8 01       		.byte	0x1
 2084 0ae9 33       		.uleb128 0x33
 2085 0aea 01       		.byte	0x1
 2086 0aeb D4020000 		.4byte	.LASF81
 2087 0aef 08       		.byte	0x8
 2088 0af0 90       		.byte	0x90
 2089 0af1 01       		.byte	0x1
 2090 0af2 4F020000 		.4byte	0x24f
 2091 0af6 01       		.byte	0x1
 2092 0af7 010B0000 		.4byte	0xb01
 2093 0afb 34       		.uleb128 0x34
 2094 0afc 4F020000 		.4byte	0x24f
 2095 0b00 00       		.byte	0
 2096 0b01 35       		.uleb128 0x35
 2097 0b02 01       		.byte	0x1
 2098 0b03 2B010000 		.4byte	.LASF88
ARM GAS  /var/folders/dt/0wfd0knj7gs46m8vwfzktm600000gn/T//ccGzbHF2.s 			page 38


 2099 0b07 08       		.byte	0x8
 2100 0b08 9C       		.byte	0x9c
 2101 0b09 01       		.byte	0x1
 2102 0b0a 01       		.byte	0x1
 2103 0b0b 36       		.uleb128 0x36
 2104 0b0c 01       		.byte	0x1
 2105 0b0d AA020000 		.4byte	.LASF89
 2106 0b11 08       		.byte	0x8
 2107 0b12 93       		.byte	0x93
 2108 0b13 01       		.byte	0x1
 2109 0b14 01       		.byte	0x1
 2110 0b15 1F0B0000 		.4byte	0xb1f
 2111 0b19 34       		.uleb128 0x34
 2112 0b1a A2000000 		.4byte	0xa2
 2113 0b1e 00       		.byte	0
 2114 0b1f 33       		.uleb128 0x33
 2115 0b20 01       		.byte	0x1
 2116 0b21 9E030000 		.4byte	.LASF82
 2117 0b25 08       		.byte	0x8
 2118 0b26 96       		.byte	0x96
 2119 0b27 01       		.byte	0x1
 2120 0b28 CE000000 		.4byte	0xce
 2121 0b2c 01       		.byte	0x1
 2122 0b2d 3C0B0000 		.4byte	0xb3c
 2123 0b31 34       		.uleb128 0x34
 2124 0b32 A2000000 		.4byte	0xa2
 2125 0b36 34       		.uleb128 0x34
 2126 0b37 E4000000 		.4byte	0xe4
 2127 0b3b 00       		.byte	0
 2128 0b3c 37       		.uleb128 0x37
 2129 0b3d 01       		.byte	0x1
 2130 0b3e 4E030000 		.4byte	.LASF90
 2131 0b42 08       		.byte	0x8
 2132 0b43 99       		.byte	0x99
 2133 0b44 01       		.byte	0x1
 2134 0b45 01       		.byte	0x1
 2135 0b46 34       		.uleb128 0x34
 2136 0b47 4F020000 		.4byte	0x24f
 2137 0b4b 34       		.uleb128 0x34
 2138 0b4c CE000000 		.4byte	0xce
 2139 0b50 00       		.byte	0
 2140 0b51 00       		.byte	0
 2141              		.section	.debug_abbrev,"",%progbits
 2142              	.Ldebug_abbrev0:
 2143 0000 01       		.uleb128 0x1
 2144 0001 11       		.uleb128 0x11
 2145 0002 01       		.byte	0x1
 2146 0003 25       		.uleb128 0x25
 2147 0004 0E       		.uleb128 0xe
 2148 0005 13       		.uleb128 0x13
 2149 0006 0B       		.uleb128 0xb
 2150 0007 03       		.uleb128 0x3
 2151 0008 0E       		.uleb128 0xe
 2152 0009 1B       		.uleb128 0x1b
 2153 000a 0E       		.uleb128 0xe
 2154 000b 55       		.uleb128 0x55
 2155 000c 06       		.uleb128 0x6
ARM GAS  /var/folders/dt/0wfd0knj7gs46m8vwfzktm600000gn/T//ccGzbHF2.s 			page 39


 2156 000d 11       		.uleb128 0x11
 2157 000e 01       		.uleb128 0x1
 2158 000f 52       		.uleb128 0x52
 2159 0010 01       		.uleb128 0x1
 2160 0011 10       		.uleb128 0x10
 2161 0012 06       		.uleb128 0x6
 2162 0013 00       		.byte	0
 2163 0014 00       		.byte	0
 2164 0015 02       		.uleb128 0x2
 2165 0016 24       		.uleb128 0x24
 2166 0017 00       		.byte	0
 2167 0018 0B       		.uleb128 0xb
 2168 0019 0B       		.uleb128 0xb
 2169 001a 3E       		.uleb128 0x3e
 2170 001b 0B       		.uleb128 0xb
 2171 001c 03       		.uleb128 0x3
 2172 001d 08       		.uleb128 0x8
 2173 001e 00       		.byte	0
 2174 001f 00       		.byte	0
 2175 0020 03       		.uleb128 0x3
 2176 0021 24       		.uleb128 0x24
 2177 0022 00       		.byte	0
 2178 0023 0B       		.uleb128 0xb
 2179 0024 0B       		.uleb128 0xb
 2180 0025 3E       		.uleb128 0x3e
 2181 0026 0B       		.uleb128 0xb
 2182 0027 03       		.uleb128 0x3
 2183 0028 0E       		.uleb128 0xe
 2184 0029 00       		.byte	0
 2185 002a 00       		.byte	0
 2186 002b 04       		.uleb128 0x4
 2187 002c 16       		.uleb128 0x16
 2188 002d 00       		.byte	0
 2189 002e 03       		.uleb128 0x3
 2190 002f 0E       		.uleb128 0xe
 2191 0030 3A       		.uleb128 0x3a
 2192 0031 0B       		.uleb128 0xb
 2193 0032 3B       		.uleb128 0x3b
 2194 0033 0B       		.uleb128 0xb
 2195 0034 49       		.uleb128 0x49
 2196 0035 13       		.uleb128 0x13
 2197 0036 00       		.byte	0
 2198 0037 00       		.byte	0
 2199 0038 05       		.uleb128 0x5
 2200 0039 13       		.uleb128 0x13
 2201 003a 01       		.byte	0x1
 2202 003b 03       		.uleb128 0x3
 2203 003c 0E       		.uleb128 0xe
 2204 003d 0B       		.uleb128 0xb
 2205 003e 0B       		.uleb128 0xb
 2206 003f 3A       		.uleb128 0x3a
 2207 0040 0B       		.uleb128 0xb
 2208 0041 3B       		.uleb128 0x3b
 2209 0042 0B       		.uleb128 0xb
 2210 0043 01       		.uleb128 0x1
 2211 0044 13       		.uleb128 0x13
 2212 0045 00       		.byte	0
ARM GAS  /var/folders/dt/0wfd0knj7gs46m8vwfzktm600000gn/T//ccGzbHF2.s 			page 40


 2213 0046 00       		.byte	0
 2214 0047 06       		.uleb128 0x6
 2215 0048 0D       		.uleb128 0xd
 2216 0049 00       		.byte	0
 2217 004a 03       		.uleb128 0x3
 2218 004b 0E       		.uleb128 0xe
 2219 004c 3A       		.uleb128 0x3a
 2220 004d 0B       		.uleb128 0xb
 2221 004e 3B       		.uleb128 0x3b
 2222 004f 0B       		.uleb128 0xb
 2223 0050 49       		.uleb128 0x49
 2224 0051 13       		.uleb128 0x13
 2225 0052 38       		.uleb128 0x38
 2226 0053 0A       		.uleb128 0xa
 2227 0054 00       		.byte	0
 2228 0055 00       		.byte	0
 2229 0056 07       		.uleb128 0x7
 2230 0057 0D       		.uleb128 0xd
 2231 0058 00       		.byte	0
 2232 0059 03       		.uleb128 0x3
 2233 005a 08       		.uleb128 0x8
 2234 005b 3A       		.uleb128 0x3a
 2235 005c 0B       		.uleb128 0xb
 2236 005d 3B       		.uleb128 0x3b
 2237 005e 0B       		.uleb128 0xb
 2238 005f 49       		.uleb128 0x49
 2239 0060 13       		.uleb128 0x13
 2240 0061 38       		.uleb128 0x38
 2241 0062 0A       		.uleb128 0xa
 2242 0063 00       		.byte	0
 2243 0064 00       		.byte	0
 2244 0065 08       		.uleb128 0x8
 2245 0066 13       		.uleb128 0x13
 2246 0067 01       		.byte	0x1
 2247 0068 0B       		.uleb128 0xb
 2248 0069 0B       		.uleb128 0xb
 2249 006a 3A       		.uleb128 0x3a
 2250 006b 0B       		.uleb128 0xb
 2251 006c 3B       		.uleb128 0x3b
 2252 006d 0B       		.uleb128 0xb
 2253 006e 01       		.uleb128 0x1
 2254 006f 13       		.uleb128 0x13
 2255 0070 00       		.byte	0
 2256 0071 00       		.byte	0
 2257 0072 09       		.uleb128 0x9
 2258 0073 0F       		.uleb128 0xf
 2259 0074 00       		.byte	0
 2260 0075 0B       		.uleb128 0xb
 2261 0076 0B       		.uleb128 0xb
 2262 0077 49       		.uleb128 0x49
 2263 0078 13       		.uleb128 0x13
 2264 0079 00       		.byte	0
 2265 007a 00       		.byte	0
 2266 007b 0A       		.uleb128 0xa
 2267 007c 0F       		.uleb128 0xf
 2268 007d 00       		.byte	0
 2269 007e 0B       		.uleb128 0xb
ARM GAS  /var/folders/dt/0wfd0knj7gs46m8vwfzktm600000gn/T//ccGzbHF2.s 			page 41


 2270 007f 0B       		.uleb128 0xb
 2271 0080 00       		.byte	0
 2272 0081 00       		.byte	0
 2273 0082 0B       		.uleb128 0xb
 2274 0083 13       		.uleb128 0x13
 2275 0084 01       		.byte	0x1
 2276 0085 03       		.uleb128 0x3
 2277 0086 0E       		.uleb128 0xe
 2278 0087 0B       		.uleb128 0xb
 2279 0088 0B       		.uleb128 0xb
 2280 0089 3A       		.uleb128 0x3a
 2281 008a 0B       		.uleb128 0xb
 2282 008b 3B       		.uleb128 0x3b
 2283 008c 05       		.uleb128 0x5
 2284 008d 01       		.uleb128 0x1
 2285 008e 13       		.uleb128 0x13
 2286 008f 00       		.byte	0
 2287 0090 00       		.byte	0
 2288 0091 0C       		.uleb128 0xc
 2289 0092 0D       		.uleb128 0xd
 2290 0093 00       		.byte	0
 2291 0094 03       		.uleb128 0x3
 2292 0095 08       		.uleb128 0x8
 2293 0096 3A       		.uleb128 0x3a
 2294 0097 0B       		.uleb128 0xb
 2295 0098 3B       		.uleb128 0x3b
 2296 0099 05       		.uleb128 0x5
 2297 009a 49       		.uleb128 0x49
 2298 009b 13       		.uleb128 0x13
 2299 009c 38       		.uleb128 0x38
 2300 009d 0A       		.uleb128 0xa
 2301 009e 00       		.byte	0
 2302 009f 00       		.byte	0
 2303 00a0 0D       		.uleb128 0xd
 2304 00a1 35       		.uleb128 0x35
 2305 00a2 00       		.byte	0
 2306 00a3 49       		.uleb128 0x49
 2307 00a4 13       		.uleb128 0x13
 2308 00a5 00       		.byte	0
 2309 00a6 00       		.byte	0
 2310 00a7 0E       		.uleb128 0xe
 2311 00a8 17       		.uleb128 0x17
 2312 00a9 01       		.byte	0x1
 2313 00aa 0B       		.uleb128 0xb
 2314 00ab 0B       		.uleb128 0xb
 2315 00ac 3A       		.uleb128 0x3a
 2316 00ad 0B       		.uleb128 0xb
 2317 00ae 3B       		.uleb128 0x3b
 2318 00af 0B       		.uleb128 0xb
 2319 00b0 01       		.uleb128 0x1
 2320 00b1 13       		.uleb128 0x13
 2321 00b2 00       		.byte	0
 2322 00b3 00       		.byte	0
 2323 00b4 0F       		.uleb128 0xf
 2324 00b5 0D       		.uleb128 0xd
 2325 00b6 00       		.byte	0
 2326 00b7 03       		.uleb128 0x3
ARM GAS  /var/folders/dt/0wfd0knj7gs46m8vwfzktm600000gn/T//ccGzbHF2.s 			page 42


 2327 00b8 0E       		.uleb128 0xe
 2328 00b9 3A       		.uleb128 0x3a
 2329 00ba 0B       		.uleb128 0xb
 2330 00bb 3B       		.uleb128 0x3b
 2331 00bc 0B       		.uleb128 0xb
 2332 00bd 49       		.uleb128 0x49
 2333 00be 13       		.uleb128 0x13
 2334 00bf 00       		.byte	0
 2335 00c0 00       		.byte	0
 2336 00c1 10       		.uleb128 0x10
 2337 00c2 26       		.uleb128 0x26
 2338 00c3 00       		.byte	0
 2339 00c4 49       		.uleb128 0x49
 2340 00c5 13       		.uleb128 0x13
 2341 00c6 00       		.byte	0
 2342 00c7 00       		.byte	0
 2343 00c8 11       		.uleb128 0x11
 2344 00c9 2E       		.uleb128 0x2e
 2345 00ca 01       		.byte	0x1
 2346 00cb 03       		.uleb128 0x3
 2347 00cc 0E       		.uleb128 0xe
 2348 00cd 3A       		.uleb128 0x3a
 2349 00ce 0B       		.uleb128 0xb
 2350 00cf 3B       		.uleb128 0x3b
 2351 00d0 0B       		.uleb128 0xb
 2352 00d1 27       		.uleb128 0x27
 2353 00d2 0C       		.uleb128 0xc
 2354 00d3 49       		.uleb128 0x49
 2355 00d4 13       		.uleb128 0x13
 2356 00d5 20       		.uleb128 0x20
 2357 00d6 0B       		.uleb128 0xb
 2358 00d7 01       		.uleb128 0x1
 2359 00d8 13       		.uleb128 0x13
 2360 00d9 00       		.byte	0
 2361 00da 00       		.byte	0
 2362 00db 12       		.uleb128 0x12
 2363 00dc 05       		.uleb128 0x5
 2364 00dd 00       		.byte	0
 2365 00de 03       		.uleb128 0x3
 2366 00df 08       		.uleb128 0x8
 2367 00e0 3A       		.uleb128 0x3a
 2368 00e1 0B       		.uleb128 0xb
 2369 00e2 3B       		.uleb128 0x3b
 2370 00e3 0B       		.uleb128 0xb
 2371 00e4 49       		.uleb128 0x49
 2372 00e5 13       		.uleb128 0x13
 2373 00e6 00       		.byte	0
 2374 00e7 00       		.byte	0
 2375 00e8 13       		.uleb128 0x13
 2376 00e9 34       		.uleb128 0x34
 2377 00ea 00       		.byte	0
 2378 00eb 03       		.uleb128 0x3
 2379 00ec 08       		.uleb128 0x8
 2380 00ed 3A       		.uleb128 0x3a
 2381 00ee 0B       		.uleb128 0xb
 2382 00ef 3B       		.uleb128 0x3b
 2383 00f0 0B       		.uleb128 0xb
ARM GAS  /var/folders/dt/0wfd0knj7gs46m8vwfzktm600000gn/T//ccGzbHF2.s 			page 43


 2384 00f1 49       		.uleb128 0x49
 2385 00f2 13       		.uleb128 0x13
 2386 00f3 00       		.byte	0
 2387 00f4 00       		.byte	0
 2388 00f5 14       		.uleb128 0x14
 2389 00f6 2E       		.uleb128 0x2e
 2390 00f7 01       		.byte	0x1
 2391 00f8 03       		.uleb128 0x3
 2392 00f9 0E       		.uleb128 0xe
 2393 00fa 3A       		.uleb128 0x3a
 2394 00fb 0B       		.uleb128 0xb
 2395 00fc 3B       		.uleb128 0x3b
 2396 00fd 0B       		.uleb128 0xb
 2397 00fe 27       		.uleb128 0x27
 2398 00ff 0C       		.uleb128 0xc
 2399 0100 20       		.uleb128 0x20
 2400 0101 0B       		.uleb128 0xb
 2401 0102 01       		.uleb128 0x1
 2402 0103 13       		.uleb128 0x13
 2403 0104 00       		.byte	0
 2404 0105 00       		.byte	0
 2405 0106 15       		.uleb128 0x15
 2406 0107 2E       		.uleb128 0x2e
 2407 0108 01       		.byte	0x1
 2408 0109 3F       		.uleb128 0x3f
 2409 010a 0C       		.uleb128 0xc
 2410 010b 03       		.uleb128 0x3
 2411 010c 0E       		.uleb128 0xe
 2412 010d 3A       		.uleb128 0x3a
 2413 010e 0B       		.uleb128 0xb
 2414 010f 3B       		.uleb128 0x3b
 2415 0110 0B       		.uleb128 0xb
 2416 0111 27       		.uleb128 0x27
 2417 0112 0C       		.uleb128 0xc
 2418 0113 11       		.uleb128 0x11
 2419 0114 01       		.uleb128 0x1
 2420 0115 12       		.uleb128 0x12
 2421 0116 01       		.uleb128 0x1
 2422 0117 40       		.uleb128 0x40
 2423 0118 0A       		.uleb128 0xa
 2424 0119 9742     		.uleb128 0x2117
 2425 011b 0C       		.uleb128 0xc
 2426 011c 01       		.uleb128 0x1
 2427 011d 13       		.uleb128 0x13
 2428 011e 00       		.byte	0
 2429 011f 00       		.byte	0
 2430 0120 16       		.uleb128 0x16
 2431 0121 05       		.uleb128 0x5
 2432 0122 00       		.byte	0
 2433 0123 03       		.uleb128 0x3
 2434 0124 08       		.uleb128 0x8
 2435 0125 3A       		.uleb128 0x3a
 2436 0126 0B       		.uleb128 0xb
 2437 0127 3B       		.uleb128 0x3b
 2438 0128 0B       		.uleb128 0xb
 2439 0129 49       		.uleb128 0x49
 2440 012a 13       		.uleb128 0x13
ARM GAS  /var/folders/dt/0wfd0knj7gs46m8vwfzktm600000gn/T//ccGzbHF2.s 			page 44


 2441 012b 02       		.uleb128 0x2
 2442 012c 0A       		.uleb128 0xa
 2443 012d 00       		.byte	0
 2444 012e 00       		.byte	0
 2445 012f 17       		.uleb128 0x17
 2446 0130 2E       		.uleb128 0x2e
 2447 0131 01       		.byte	0x1
 2448 0132 3F       		.uleb128 0x3f
 2449 0133 0C       		.uleb128 0xc
 2450 0134 03       		.uleb128 0x3
 2451 0135 0E       		.uleb128 0xe
 2452 0136 3A       		.uleb128 0x3a
 2453 0137 0B       		.uleb128 0xb
 2454 0138 3B       		.uleb128 0x3b
 2455 0139 0B       		.uleb128 0xb
 2456 013a 27       		.uleb128 0x27
 2457 013b 0C       		.uleb128 0xc
 2458 013c 11       		.uleb128 0x11
 2459 013d 01       		.uleb128 0x1
 2460 013e 12       		.uleb128 0x12
 2461 013f 01       		.uleb128 0x1
 2462 0140 40       		.uleb128 0x40
 2463 0141 06       		.uleb128 0x6
 2464 0142 9742     		.uleb128 0x2117
 2465 0144 0C       		.uleb128 0xc
 2466 0145 01       		.uleb128 0x1
 2467 0146 13       		.uleb128 0x13
 2468 0147 00       		.byte	0
 2469 0148 00       		.byte	0
 2470 0149 18       		.uleb128 0x18
 2471 014a 05       		.uleb128 0x5
 2472 014b 00       		.byte	0
 2473 014c 03       		.uleb128 0x3
 2474 014d 08       		.uleb128 0x8
 2475 014e 3A       		.uleb128 0x3a
 2476 014f 0B       		.uleb128 0xb
 2477 0150 3B       		.uleb128 0x3b
 2478 0151 0B       		.uleb128 0xb
 2479 0152 49       		.uleb128 0x49
 2480 0153 13       		.uleb128 0x13
 2481 0154 02       		.uleb128 0x2
 2482 0155 06       		.uleb128 0x6
 2483 0156 00       		.byte	0
 2484 0157 00       		.byte	0
 2485 0158 19       		.uleb128 0x19
 2486 0159 34       		.uleb128 0x34
 2487 015a 00       		.byte	0
 2488 015b 03       		.uleb128 0x3
 2489 015c 08       		.uleb128 0x8
 2490 015d 3A       		.uleb128 0x3a
 2491 015e 0B       		.uleb128 0xb
 2492 015f 3B       		.uleb128 0x3b
 2493 0160 0B       		.uleb128 0xb
 2494 0161 49       		.uleb128 0x49
 2495 0162 13       		.uleb128 0x13
 2496 0163 02       		.uleb128 0x2
 2497 0164 06       		.uleb128 0x6
ARM GAS  /var/folders/dt/0wfd0knj7gs46m8vwfzktm600000gn/T//ccGzbHF2.s 			page 45


 2498 0165 00       		.byte	0
 2499 0166 00       		.byte	0
 2500 0167 1A       		.uleb128 0x1a
 2501 0168 1D       		.uleb128 0x1d
 2502 0169 01       		.byte	0x1
 2503 016a 31       		.uleb128 0x31
 2504 016b 13       		.uleb128 0x13
 2505 016c 52       		.uleb128 0x52
 2506 016d 01       		.uleb128 0x1
 2507 016e 55       		.uleb128 0x55
 2508 016f 06       		.uleb128 0x6
 2509 0170 58       		.uleb128 0x58
 2510 0171 0B       		.uleb128 0xb
 2511 0172 59       		.uleb128 0x59
 2512 0173 0B       		.uleb128 0xb
 2513 0174 01       		.uleb128 0x1
 2514 0175 13       		.uleb128 0x13
 2515 0176 00       		.byte	0
 2516 0177 00       		.byte	0
 2517 0178 1B       		.uleb128 0x1b
 2518 0179 05       		.uleb128 0x5
 2519 017a 00       		.byte	0
 2520 017b 31       		.uleb128 0x31
 2521 017c 13       		.uleb128 0x13
 2522 017d 02       		.uleb128 0x2
 2523 017e 06       		.uleb128 0x6
 2524 017f 00       		.byte	0
 2525 0180 00       		.byte	0
 2526 0181 1C       		.uleb128 0x1c
 2527 0182 0B       		.uleb128 0xb
 2528 0183 01       		.byte	0x1
 2529 0184 55       		.uleb128 0x55
 2530 0185 06       		.uleb128 0x6
 2531 0186 00       		.byte	0
 2532 0187 00       		.byte	0
 2533 0188 1D       		.uleb128 0x1d
 2534 0189 34       		.uleb128 0x34
 2535 018a 00       		.byte	0
 2536 018b 31       		.uleb128 0x31
 2537 018c 13       		.uleb128 0x13
 2538 018d 02       		.uleb128 0x2
 2539 018e 06       		.uleb128 0x6
 2540 018f 00       		.byte	0
 2541 0190 00       		.byte	0
 2542 0191 1E       		.uleb128 0x1e
 2543 0192 898201   		.uleb128 0x4109
 2544 0195 00       		.byte	0
 2545 0196 11       		.uleb128 0x11
 2546 0197 01       		.uleb128 0x1
 2547 0198 31       		.uleb128 0x31
 2548 0199 13       		.uleb128 0x13
 2549 019a 00       		.byte	0
 2550 019b 00       		.byte	0
 2551 019c 1F       		.uleb128 0x1f
 2552 019d 0B       		.uleb128 0xb
 2553 019e 01       		.byte	0x1
 2554 019f 11       		.uleb128 0x11
ARM GAS  /var/folders/dt/0wfd0knj7gs46m8vwfzktm600000gn/T//ccGzbHF2.s 			page 46


 2555 01a0 01       		.uleb128 0x1
 2556 01a1 12       		.uleb128 0x12
 2557 01a2 01       		.uleb128 0x1
 2558 01a3 01       		.uleb128 0x1
 2559 01a4 13       		.uleb128 0x13
 2560 01a5 00       		.byte	0
 2561 01a6 00       		.byte	0
 2562 01a7 20       		.uleb128 0x20
 2563 01a8 898201   		.uleb128 0x4109
 2564 01ab 01       		.byte	0x1
 2565 01ac 11       		.uleb128 0x11
 2566 01ad 01       		.uleb128 0x1
 2567 01ae 31       		.uleb128 0x31
 2568 01af 13       		.uleb128 0x13
 2569 01b0 01       		.uleb128 0x1
 2570 01b1 13       		.uleb128 0x13
 2571 01b2 00       		.byte	0
 2572 01b3 00       		.byte	0
 2573 01b4 21       		.uleb128 0x21
 2574 01b5 8A8201   		.uleb128 0x410a
 2575 01b8 00       		.byte	0
 2576 01b9 02       		.uleb128 0x2
 2577 01ba 0A       		.uleb128 0xa
 2578 01bb 9142     		.uleb128 0x2111
 2579 01bd 0A       		.uleb128 0xa
 2580 01be 00       		.byte	0
 2581 01bf 00       		.byte	0
 2582 01c0 22       		.uleb128 0x22
 2583 01c1 2E       		.uleb128 0x2e
 2584 01c2 01       		.byte	0x1
 2585 01c3 3F       		.uleb128 0x3f
 2586 01c4 0C       		.uleb128 0xc
 2587 01c5 03       		.uleb128 0x3
 2588 01c6 0E       		.uleb128 0xe
 2589 01c7 3A       		.uleb128 0x3a
 2590 01c8 0B       		.uleb128 0xb
 2591 01c9 3B       		.uleb128 0x3b
 2592 01ca 0B       		.uleb128 0xb
 2593 01cb 27       		.uleb128 0x27
 2594 01cc 0C       		.uleb128 0xc
 2595 01cd 49       		.uleb128 0x49
 2596 01ce 13       		.uleb128 0x13
 2597 01cf 11       		.uleb128 0x11
 2598 01d0 01       		.uleb128 0x1
 2599 01d1 12       		.uleb128 0x12
 2600 01d2 01       		.uleb128 0x1
 2601 01d3 40       		.uleb128 0x40
 2602 01d4 06       		.uleb128 0x6
 2603 01d5 9742     		.uleb128 0x2117
 2604 01d7 0C       		.uleb128 0xc
 2605 01d8 01       		.uleb128 0x1
 2606 01d9 13       		.uleb128 0x13
 2607 01da 00       		.byte	0
 2608 01db 00       		.byte	0
 2609 01dc 23       		.uleb128 0x23
 2610 01dd 1D       		.uleb128 0x1d
 2611 01de 01       		.byte	0x1
ARM GAS  /var/folders/dt/0wfd0knj7gs46m8vwfzktm600000gn/T//ccGzbHF2.s 			page 47


 2612 01df 31       		.uleb128 0x31
 2613 01e0 13       		.uleb128 0x13
 2614 01e1 11       		.uleb128 0x11
 2615 01e2 01       		.uleb128 0x1
 2616 01e3 12       		.uleb128 0x12
 2617 01e4 01       		.uleb128 0x1
 2618 01e5 58       		.uleb128 0x58
 2619 01e6 0B       		.uleb128 0xb
 2620 01e7 59       		.uleb128 0x59
 2621 01e8 0B       		.uleb128 0xb
 2622 01e9 01       		.uleb128 0x1
 2623 01ea 13       		.uleb128 0x13
 2624 01eb 00       		.byte	0
 2625 01ec 00       		.byte	0
 2626 01ed 24       		.uleb128 0x24
 2627 01ee 898201   		.uleb128 0x4109
 2628 01f1 01       		.byte	0x1
 2629 01f2 11       		.uleb128 0x11
 2630 01f3 01       		.uleb128 0x1
 2631 01f4 31       		.uleb128 0x31
 2632 01f5 13       		.uleb128 0x13
 2633 01f6 00       		.byte	0
 2634 01f7 00       		.byte	0
 2635 01f8 25       		.uleb128 0x25
 2636 01f9 34       		.uleb128 0x34
 2637 01fa 00       		.byte	0
 2638 01fb 03       		.uleb128 0x3
 2639 01fc 08       		.uleb128 0x8
 2640 01fd 3A       		.uleb128 0x3a
 2641 01fe 0B       		.uleb128 0xb
 2642 01ff 3B       		.uleb128 0x3b
 2643 0200 0B       		.uleb128 0xb
 2644 0201 49       		.uleb128 0x49
 2645 0202 13       		.uleb128 0x13
 2646 0203 02       		.uleb128 0x2
 2647 0204 0A       		.uleb128 0xa
 2648 0205 00       		.byte	0
 2649 0206 00       		.byte	0
 2650 0207 26       		.uleb128 0x26
 2651 0208 05       		.uleb128 0x5
 2652 0209 00       		.byte	0
 2653 020a 03       		.uleb128 0x3
 2654 020b 0E       		.uleb128 0xe
 2655 020c 3A       		.uleb128 0x3a
 2656 020d 0B       		.uleb128 0xb
 2657 020e 3B       		.uleb128 0x3b
 2658 020f 0B       		.uleb128 0xb
 2659 0210 49       		.uleb128 0x49
 2660 0211 13       		.uleb128 0x13
 2661 0212 02       		.uleb128 0x2
 2662 0213 06       		.uleb128 0x6
 2663 0214 00       		.byte	0
 2664 0215 00       		.byte	0
 2665 0216 27       		.uleb128 0x27
 2666 0217 1D       		.uleb128 0x1d
 2667 0218 01       		.byte	0x1
 2668 0219 31       		.uleb128 0x31
ARM GAS  /var/folders/dt/0wfd0knj7gs46m8vwfzktm600000gn/T//ccGzbHF2.s 			page 48


 2669 021a 13       		.uleb128 0x13
 2670 021b 11       		.uleb128 0x11
 2671 021c 01       		.uleb128 0x1
 2672 021d 12       		.uleb128 0x12
 2673 021e 01       		.uleb128 0x1
 2674 021f 58       		.uleb128 0x58
 2675 0220 0B       		.uleb128 0xb
 2676 0221 59       		.uleb128 0x59
 2677 0222 05       		.uleb128 0x5
 2678 0223 01       		.uleb128 0x1
 2679 0224 13       		.uleb128 0x13
 2680 0225 00       		.byte	0
 2681 0226 00       		.byte	0
 2682 0227 28       		.uleb128 0x28
 2683 0228 898201   		.uleb128 0x4109
 2684 022b 01       		.byte	0x1
 2685 022c 11       		.uleb128 0x11
 2686 022d 01       		.uleb128 0x1
 2687 022e 9542     		.uleb128 0x2115
 2688 0230 0C       		.uleb128 0xc
 2689 0231 31       		.uleb128 0x31
 2690 0232 13       		.uleb128 0x13
 2691 0233 00       		.byte	0
 2692 0234 00       		.byte	0
 2693 0235 29       		.uleb128 0x29
 2694 0236 2E       		.uleb128 0x2e
 2695 0237 01       		.byte	0x1
 2696 0238 3F       		.uleb128 0x3f
 2697 0239 0C       		.uleb128 0xc
 2698 023a 03       		.uleb128 0x3
 2699 023b 0E       		.uleb128 0xe
 2700 023c 3A       		.uleb128 0x3a
 2701 023d 0B       		.uleb128 0xb
 2702 023e 3B       		.uleb128 0x3b
 2703 023f 05       		.uleb128 0x5
 2704 0240 27       		.uleb128 0x27
 2705 0241 0C       		.uleb128 0xc
 2706 0242 11       		.uleb128 0x11
 2707 0243 01       		.uleb128 0x1
 2708 0244 12       		.uleb128 0x12
 2709 0245 01       		.uleb128 0x1
 2710 0246 40       		.uleb128 0x40
 2711 0247 06       		.uleb128 0x6
 2712 0248 9742     		.uleb128 0x2117
 2713 024a 0C       		.uleb128 0xc
 2714 024b 01       		.uleb128 0x1
 2715 024c 13       		.uleb128 0x13
 2716 024d 00       		.byte	0
 2717 024e 00       		.byte	0
 2718 024f 2A       		.uleb128 0x2a
 2719 0250 05       		.uleb128 0x5
 2720 0251 00       		.byte	0
 2721 0252 03       		.uleb128 0x3
 2722 0253 08       		.uleb128 0x8
 2723 0254 3A       		.uleb128 0x3a
 2724 0255 0B       		.uleb128 0xb
 2725 0256 3B       		.uleb128 0x3b
ARM GAS  /var/folders/dt/0wfd0knj7gs46m8vwfzktm600000gn/T//ccGzbHF2.s 			page 49


 2726 0257 05       		.uleb128 0x5
 2727 0258 49       		.uleb128 0x49
 2728 0259 13       		.uleb128 0x13
 2729 025a 02       		.uleb128 0x2
 2730 025b 06       		.uleb128 0x6
 2731 025c 00       		.byte	0
 2732 025d 00       		.byte	0
 2733 025e 2B       		.uleb128 0x2b
 2734 025f 34       		.uleb128 0x34
 2735 0260 00       		.byte	0
 2736 0261 03       		.uleb128 0x3
 2737 0262 08       		.uleb128 0x8
 2738 0263 3A       		.uleb128 0x3a
 2739 0264 0B       		.uleb128 0xb
 2740 0265 3B       		.uleb128 0x3b
 2741 0266 05       		.uleb128 0x5
 2742 0267 49       		.uleb128 0x49
 2743 0268 13       		.uleb128 0x13
 2744 0269 02       		.uleb128 0x2
 2745 026a 06       		.uleb128 0x6
 2746 026b 00       		.byte	0
 2747 026c 00       		.byte	0
 2748 026d 2C       		.uleb128 0x2c
 2749 026e 1D       		.uleb128 0x1d
 2750 026f 01       		.byte	0x1
 2751 0270 31       		.uleb128 0x31
 2752 0271 13       		.uleb128 0x13
 2753 0272 52       		.uleb128 0x52
 2754 0273 01       		.uleb128 0x1
 2755 0274 55       		.uleb128 0x55
 2756 0275 06       		.uleb128 0x6
 2757 0276 58       		.uleb128 0x58
 2758 0277 0B       		.uleb128 0xb
 2759 0278 59       		.uleb128 0x59
 2760 0279 05       		.uleb128 0x5
 2761 027a 01       		.uleb128 0x1
 2762 027b 13       		.uleb128 0x13
 2763 027c 00       		.byte	0
 2764 027d 00       		.byte	0
 2765 027e 2D       		.uleb128 0x2d
 2766 027f 2E       		.uleb128 0x2e
 2767 0280 01       		.byte	0x1
 2768 0281 3F       		.uleb128 0x3f
 2769 0282 0C       		.uleb128 0xc
 2770 0283 03       		.uleb128 0x3
 2771 0284 0E       		.uleb128 0xe
 2772 0285 3A       		.uleb128 0x3a
 2773 0286 0B       		.uleb128 0xb
 2774 0287 3B       		.uleb128 0x3b
 2775 0288 05       		.uleb128 0x5
 2776 0289 27       		.uleb128 0x27
 2777 028a 0C       		.uleb128 0xc
 2778 028b 11       		.uleb128 0x11
 2779 028c 01       		.uleb128 0x1
 2780 028d 12       		.uleb128 0x12
 2781 028e 01       		.uleb128 0x1
 2782 028f 40       		.uleb128 0x40
ARM GAS  /var/folders/dt/0wfd0knj7gs46m8vwfzktm600000gn/T//ccGzbHF2.s 			page 50


 2783 0290 0A       		.uleb128 0xa
 2784 0291 9742     		.uleb128 0x2117
 2785 0293 0C       		.uleb128 0xc
 2786 0294 01       		.uleb128 0x1
 2787 0295 13       		.uleb128 0x13
 2788 0296 00       		.byte	0
 2789 0297 00       		.byte	0
 2790 0298 2E       		.uleb128 0x2e
 2791 0299 34       		.uleb128 0x34
 2792 029a 00       		.byte	0
 2793 029b 03       		.uleb128 0x3
 2794 029c 08       		.uleb128 0x8
 2795 029d 3A       		.uleb128 0x3a
 2796 029e 0B       		.uleb128 0xb
 2797 029f 3B       		.uleb128 0x3b
 2798 02a0 05       		.uleb128 0x5
 2799 02a1 49       		.uleb128 0x49
 2800 02a2 13       		.uleb128 0x13
 2801 02a3 02       		.uleb128 0x2
 2802 02a4 0A       		.uleb128 0xa
 2803 02a5 00       		.byte	0
 2804 02a6 00       		.byte	0
 2805 02a7 2F       		.uleb128 0x2f
 2806 02a8 898201   		.uleb128 0x4109
 2807 02ab 00       		.byte	0
 2808 02ac 11       		.uleb128 0x11
 2809 02ad 01       		.uleb128 0x1
 2810 02ae 9542     		.uleb128 0x2115
 2811 02b0 0C       		.uleb128 0xc
 2812 02b1 31       		.uleb128 0x31
 2813 02b2 13       		.uleb128 0x13
 2814 02b3 00       		.byte	0
 2815 02b4 00       		.byte	0
 2816 02b5 30       		.uleb128 0x30
 2817 02b6 0B       		.uleb128 0xb
 2818 02b7 01       		.byte	0x1
 2819 02b8 11       		.uleb128 0x11
 2820 02b9 01       		.uleb128 0x1
 2821 02ba 12       		.uleb128 0x12
 2822 02bb 01       		.uleb128 0x1
 2823 02bc 00       		.byte	0
 2824 02bd 00       		.byte	0
 2825 02be 31       		.uleb128 0x31
 2826 02bf 2E       		.uleb128 0x2e
 2827 02c0 01       		.byte	0x1
 2828 02c1 3F       		.uleb128 0x3f
 2829 02c2 0C       		.uleb128 0xc
 2830 02c3 03       		.uleb128 0x3
 2831 02c4 0E       		.uleb128 0xe
 2832 02c5 3A       		.uleb128 0x3a
 2833 02c6 0B       		.uleb128 0xb
 2834 02c7 3B       		.uleb128 0x3b
 2835 02c8 05       		.uleb128 0x5
 2836 02c9 27       		.uleb128 0x27
 2837 02ca 0C       		.uleb128 0xc
 2838 02cb 49       		.uleb128 0x49
 2839 02cc 13       		.uleb128 0x13
ARM GAS  /var/folders/dt/0wfd0knj7gs46m8vwfzktm600000gn/T//ccGzbHF2.s 			page 51


 2840 02cd 11       		.uleb128 0x11
 2841 02ce 01       		.uleb128 0x1
 2842 02cf 12       		.uleb128 0x12
 2843 02d0 01       		.uleb128 0x1
 2844 02d1 40       		.uleb128 0x40
 2845 02d2 06       		.uleb128 0x6
 2846 02d3 9742     		.uleb128 0x2117
 2847 02d5 0C       		.uleb128 0xc
 2848 02d6 01       		.uleb128 0x1
 2849 02d7 13       		.uleb128 0x13
 2850 02d8 00       		.byte	0
 2851 02d9 00       		.byte	0
 2852 02da 32       		.uleb128 0x32
 2853 02db 34       		.uleb128 0x34
 2854 02dc 00       		.byte	0
 2855 02dd 03       		.uleb128 0x3
 2856 02de 0E       		.uleb128 0xe
 2857 02df 3A       		.uleb128 0x3a
 2858 02e0 0B       		.uleb128 0xb
 2859 02e1 3B       		.uleb128 0x3b
 2860 02e2 0B       		.uleb128 0xb
 2861 02e3 49       		.uleb128 0x49
 2862 02e4 13       		.uleb128 0x13
 2863 02e5 3F       		.uleb128 0x3f
 2864 02e6 0C       		.uleb128 0xc
 2865 02e7 3C       		.uleb128 0x3c
 2866 02e8 0C       		.uleb128 0xc
 2867 02e9 00       		.byte	0
 2868 02ea 00       		.byte	0
 2869 02eb 33       		.uleb128 0x33
 2870 02ec 2E       		.uleb128 0x2e
 2871 02ed 01       		.byte	0x1
 2872 02ee 3F       		.uleb128 0x3f
 2873 02ef 0C       		.uleb128 0xc
 2874 02f0 03       		.uleb128 0x3
 2875 02f1 0E       		.uleb128 0xe
 2876 02f2 3A       		.uleb128 0x3a
 2877 02f3 0B       		.uleb128 0xb
 2878 02f4 3B       		.uleb128 0x3b
 2879 02f5 0B       		.uleb128 0xb
 2880 02f6 27       		.uleb128 0x27
 2881 02f7 0C       		.uleb128 0xc
 2882 02f8 49       		.uleb128 0x49
 2883 02f9 13       		.uleb128 0x13
 2884 02fa 3C       		.uleb128 0x3c
 2885 02fb 0C       		.uleb128 0xc
 2886 02fc 01       		.uleb128 0x1
 2887 02fd 13       		.uleb128 0x13
 2888 02fe 00       		.byte	0
 2889 02ff 00       		.byte	0
 2890 0300 34       		.uleb128 0x34
 2891 0301 05       		.uleb128 0x5
 2892 0302 00       		.byte	0
 2893 0303 49       		.uleb128 0x49
 2894 0304 13       		.uleb128 0x13
 2895 0305 00       		.byte	0
 2896 0306 00       		.byte	0
ARM GAS  /var/folders/dt/0wfd0knj7gs46m8vwfzktm600000gn/T//ccGzbHF2.s 			page 52


 2897 0307 35       		.uleb128 0x35
 2898 0308 2E       		.uleb128 0x2e
 2899 0309 00       		.byte	0
 2900 030a 3F       		.uleb128 0x3f
 2901 030b 0C       		.uleb128 0xc
 2902 030c 03       		.uleb128 0x3
 2903 030d 0E       		.uleb128 0xe
 2904 030e 3A       		.uleb128 0x3a
 2905 030f 0B       		.uleb128 0xb
 2906 0310 3B       		.uleb128 0x3b
 2907 0311 0B       		.uleb128 0xb
 2908 0312 27       		.uleb128 0x27
 2909 0313 0C       		.uleb128 0xc
 2910 0314 3C       		.uleb128 0x3c
 2911 0315 0C       		.uleb128 0xc
 2912 0316 00       		.byte	0
 2913 0317 00       		.byte	0
 2914 0318 36       		.uleb128 0x36
 2915 0319 2E       		.uleb128 0x2e
 2916 031a 01       		.byte	0x1
 2917 031b 3F       		.uleb128 0x3f
 2918 031c 0C       		.uleb128 0xc
 2919 031d 03       		.uleb128 0x3
 2920 031e 0E       		.uleb128 0xe
 2921 031f 3A       		.uleb128 0x3a
 2922 0320 0B       		.uleb128 0xb
 2923 0321 3B       		.uleb128 0x3b
 2924 0322 0B       		.uleb128 0xb
 2925 0323 27       		.uleb128 0x27
 2926 0324 0C       		.uleb128 0xc
 2927 0325 3C       		.uleb128 0x3c
 2928 0326 0C       		.uleb128 0xc
 2929 0327 01       		.uleb128 0x1
 2930 0328 13       		.uleb128 0x13
 2931 0329 00       		.byte	0
 2932 032a 00       		.byte	0
 2933 032b 37       		.uleb128 0x37
 2934 032c 2E       		.uleb128 0x2e
 2935 032d 01       		.byte	0x1
 2936 032e 3F       		.uleb128 0x3f
 2937 032f 0C       		.uleb128 0xc
 2938 0330 03       		.uleb128 0x3
 2939 0331 0E       		.uleb128 0xe
 2940 0332 3A       		.uleb128 0x3a
 2941 0333 0B       		.uleb128 0xb
 2942 0334 3B       		.uleb128 0x3b
 2943 0335 0B       		.uleb128 0xb
 2944 0336 27       		.uleb128 0x27
 2945 0337 0C       		.uleb128 0xc
 2946 0338 3C       		.uleb128 0x3c
 2947 0339 0C       		.uleb128 0xc
 2948 033a 00       		.byte	0
 2949 033b 00       		.byte	0
 2950 033c 00       		.byte	0
 2951              		.section	.debug_loc,"",%progbits
 2952              	.Ldebug_loc0:
 2953              	.LLST0:
ARM GAS  /var/folders/dt/0wfd0knj7gs46m8vwfzktm600000gn/T//ccGzbHF2.s 			page 53


 2954 0000 00000000 		.4byte	.LFB9
 2955 0004 02000000 		.4byte	.LCFI0
 2956 0008 0200     		.2byte	0x2
 2957 000a 7D       		.byte	0x7d
 2958 000b 00       		.sleb128 0
 2959 000c 02000000 		.4byte	.LCFI0
 2960 0010 28000000 		.4byte	.LFE9
 2961 0014 0200     		.2byte	0x2
 2962 0016 7D       		.byte	0x7d
 2963 0017 10       		.sleb128 16
 2964 0018 00000000 		.4byte	0
 2965 001c 00000000 		.4byte	0
 2966              	.LLST1:
 2967 0020 00000000 		.4byte	.LVL1
 2968 0024 12000000 		.4byte	.LVL5
 2969 0028 0100     		.2byte	0x1
 2970 002a 50       		.byte	0x50
 2971 002b 12000000 		.4byte	.LVL5
 2972 002f 28000000 		.4byte	.LFE9
 2973 0033 0100     		.2byte	0x1
 2974 0035 54       		.byte	0x54
 2975 0036 00000000 		.4byte	0
 2976 003a 00000000 		.4byte	0
 2977              	.LLST2:
 2978 003e 00000000 		.4byte	.LVL1
 2979 0042 12000000 		.4byte	.LVL5
 2980 0046 0100     		.2byte	0x1
 2981 0048 51       		.byte	0x51
 2982 0049 12000000 		.4byte	.LVL5
 2983 004d 28000000 		.4byte	.LFE9
 2984 0051 0400     		.2byte	0x4
 2985 0053 F3       		.byte	0xf3
 2986 0054 01       		.uleb128 0x1
 2987 0055 51       		.byte	0x51
 2988 0056 9F       		.byte	0x9f
 2989 0057 00000000 		.4byte	0
 2990 005b 00000000 		.4byte	0
 2991              	.LLST3:
 2992 005f 04000000 		.4byte	.LVL2
 2993 0063 08000000 		.4byte	.LVL3
 2994 0067 0100     		.2byte	0x1
 2995 0069 55       		.byte	0x55
 2996 006a 08000000 		.4byte	.LVL3
 2997 006e 0C000000 		.4byte	.LVL4
 2998 0072 0200     		.2byte	0x2
 2999 0074 70       		.byte	0x70
 3000 0075 08       		.sleb128 8
 3001 0076 0C000000 		.4byte	.LVL4
 3002 007a 16000000 		.4byte	.LVL7
 3003 007e 0100     		.2byte	0x1
 3004 0080 55       		.byte	0x55
 3005 0081 16000000 		.4byte	.LVL7
 3006 0085 24000000 		.4byte	.LVL9
 3007 0089 0300     		.2byte	0x3
 3008 008b 75       		.byte	0x75
 3009 008c 7F       		.sleb128 -1
 3010 008d 9F       		.byte	0x9f
ARM GAS  /var/folders/dt/0wfd0knj7gs46m8vwfzktm600000gn/T//ccGzbHF2.s 			page 54


 3011 008e 24000000 		.4byte	.LVL9
 3012 0092 28000000 		.4byte	.LFE9
 3013 0096 0100     		.2byte	0x1
 3014 0098 55       		.byte	0x55
 3015 0099 00000000 		.4byte	0
 3016 009d 00000000 		.4byte	0
 3017              	.LLST4:
 3018 00a1 12000000 		.4byte	.LVL5
 3019 00a5 26000000 		.4byte	.LVL10
 3020 00a9 0100     		.2byte	0x1
 3021 00ab 54       		.byte	0x54
 3022 00ac 00000000 		.4byte	0
 3023 00b0 00000000 		.4byte	0
 3024              	.LLST5:
 3025 00b4 14000000 		.4byte	.LVL6
 3026 00b8 1F000000 		.4byte	.LVL8-1
 3027 00bc 0100     		.2byte	0x1
 3028 00be 50       		.byte	0x50
 3029 00bf 00000000 		.4byte	0
 3030 00c3 00000000 		.4byte	0
 3031              	.LLST6:
 3032 00c7 00000000 		.4byte	.LFB8
 3033 00cb 02000000 		.4byte	.LCFI1
 3034 00cf 0200     		.2byte	0x2
 3035 00d1 7D       		.byte	0x7d
 3036 00d2 00       		.sleb128 0
 3037 00d3 02000000 		.4byte	.LCFI1
 3038 00d7 18000000 		.4byte	.LFE8
 3039 00db 0200     		.2byte	0x2
 3040 00dd 7D       		.byte	0x7d
 3041 00de 08       		.sleb128 8
 3042 00df 00000000 		.4byte	0
 3043 00e3 00000000 		.4byte	0
 3044              	.LLST7:
 3045 00e7 00000000 		.4byte	.LVL11
 3046 00eb 0B000000 		.4byte	.LVL14-1
 3047 00ef 0100     		.2byte	0x1
 3048 00f1 50       		.byte	0x50
 3049 00f2 0B000000 		.4byte	.LVL14-1
 3050 00f6 18000000 		.4byte	.LFE8
 3051 00fa 0400     		.2byte	0x4
 3052 00fc F3       		.byte	0xf3
 3053 00fd 01       		.uleb128 0x1
 3054 00fe 50       		.byte	0x50
 3055 00ff 9F       		.byte	0x9f
 3056 0100 00000000 		.4byte	0
 3057 0104 00000000 		.4byte	0
 3058              	.LLST8:
 3059 0108 00000000 		.4byte	.LVL11
 3060 010c 0B000000 		.4byte	.LVL14-1
 3061 0110 0100     		.2byte	0x1
 3062 0112 51       		.byte	0x51
 3063 0113 0B000000 		.4byte	.LVL14-1
 3064 0117 18000000 		.4byte	.LFE8
 3065 011b 0400     		.2byte	0x4
 3066 011d F3       		.byte	0xf3
 3067 011e 01       		.uleb128 0x1
ARM GAS  /var/folders/dt/0wfd0knj7gs46m8vwfzktm600000gn/T//ccGzbHF2.s 			page 55


 3068 011f 51       		.byte	0x51
 3069 0120 9F       		.byte	0x9f
 3070 0121 00000000 		.4byte	0
 3071 0125 00000000 		.4byte	0
 3072              	.LLST9:
 3073 0129 08000000 		.4byte	.LVL13
 3074 012d 0B000000 		.4byte	.LVL14-1
 3075 0131 0100     		.2byte	0x1
 3076 0133 53       		.byte	0x53
 3077 0134 00000000 		.4byte	0
 3078 0138 00000000 		.4byte	0
 3079              	.LLST10:
 3080 013c 16000000 		.4byte	.LVL17
 3081 0140 18000000 		.4byte	.LFE8
 3082 0144 0100     		.2byte	0x1
 3083 0146 53       		.byte	0x53
 3084 0147 00000000 		.4byte	0
 3085 014b 00000000 		.4byte	0
 3086              	.LLST11:
 3087 014f 00000000 		.4byte	.LFB11
 3088 0153 04000000 		.4byte	.LCFI2
 3089 0157 0200     		.2byte	0x2
 3090 0159 7D       		.byte	0x7d
 3091 015a 00       		.sleb128 0
 3092 015b 04000000 		.4byte	.LCFI2
 3093 015f 34000000 		.4byte	.LFE11
 3094 0163 0200     		.2byte	0x2
 3095 0165 7D       		.byte	0x7d
 3096 0166 08       		.sleb128 8
 3097 0167 00000000 		.4byte	0
 3098 016b 00000000 		.4byte	0
 3099              	.LLST12:
 3100 016f 00000000 		.4byte	.LVL18
 3101 0173 10000000 		.4byte	.LVL19
 3102 0177 0100     		.2byte	0x1
 3103 0179 50       		.byte	0x50
 3104 017a 10000000 		.4byte	.LVL19
 3105 017e 12000000 		.4byte	.LVL20
 3106 0182 0100     		.2byte	0x1
 3107 0184 53       		.byte	0x53
 3108 0185 12000000 		.4byte	.LVL20
 3109 0189 16000000 		.4byte	.LVL21
 3110 018d 0100     		.2byte	0x1
 3111 018f 50       		.byte	0x50
 3112 0190 16000000 		.4byte	.LVL21
 3113 0194 27000000 		.4byte	.LVL23-1
 3114 0198 0100     		.2byte	0x1
 3115 019a 53       		.byte	0x53
 3116 019b 27000000 		.4byte	.LVL23-1
 3117 019f 34000000 		.4byte	.LFE11
 3118 01a3 0400     		.2byte	0x4
 3119 01a5 F3       		.byte	0xf3
 3120 01a6 01       		.uleb128 0x1
 3121 01a7 50       		.byte	0x50
 3122 01a8 9F       		.byte	0x9f
 3123 01a9 00000000 		.4byte	0
 3124 01ad 00000000 		.4byte	0
ARM GAS  /var/folders/dt/0wfd0knj7gs46m8vwfzktm600000gn/T//ccGzbHF2.s 			page 56


 3125              	.LLST13:
 3126 01b1 1A000000 		.4byte	.LVL22
 3127 01b5 27000000 		.4byte	.LVL23-1
 3128 01b9 0200     		.2byte	0x2
 3129 01bb 72       		.byte	0x72
 3130 01bc 24       		.sleb128 36
 3131 01bd 27000000 		.4byte	.LVL23-1
 3132 01c1 34000000 		.4byte	.LFE11
 3133 01c5 0400     		.2byte	0x4
 3134 01c7 F3       		.byte	0xf3
 3135 01c8 01       		.uleb128 0x1
 3136 01c9 50       		.byte	0x50
 3137 01ca 9F       		.byte	0x9f
 3138 01cb 00000000 		.4byte	0
 3139 01cf 00000000 		.4byte	0
 3140              	.LLST14:
 3141 01d3 1A000000 		.4byte	.LVL22
 3142 01d7 27000000 		.4byte	.LVL23-1
 3143 01db 0100     		.2byte	0x1
 3144 01dd 52       		.byte	0x52
 3145 01de 00000000 		.4byte	0
 3146 01e2 00000000 		.4byte	0
 3147              	.LLST15:
 3148 01e6 00000000 		.4byte	.LFB10
 3149 01ea 02000000 		.4byte	.LCFI3
 3150 01ee 0200     		.2byte	0x2
 3151 01f0 7D       		.byte	0x7d
 3152 01f1 00       		.sleb128 0
 3153 01f2 02000000 		.4byte	.LCFI3
 3154 01f6 14000000 		.4byte	.LFE10
 3155 01fa 0200     		.2byte	0x2
 3156 01fc 7D       		.byte	0x7d
 3157 01fd 08       		.sleb128 8
 3158 01fe 00000000 		.4byte	0
 3159 0202 00000000 		.4byte	0
 3160              	.LLST16:
 3161 0206 00000000 		.4byte	.LVL24
 3162 020a 0B000000 		.4byte	.LVL27-1
 3163 020e 0100     		.2byte	0x1
 3164 0210 50       		.byte	0x50
 3165 0211 0B000000 		.4byte	.LVL27-1
 3166 0215 14000000 		.4byte	.LFE10
 3167 0219 0400     		.2byte	0x4
 3168 021b F3       		.byte	0xf3
 3169 021c 01       		.uleb128 0x1
 3170 021d 50       		.byte	0x50
 3171 021e 9F       		.byte	0x9f
 3172 021f 00000000 		.4byte	0
 3173 0223 00000000 		.4byte	0
 3174              	.LLST17:
 3175 0227 08000000 		.4byte	.LVL26
 3176 022b 0B000000 		.4byte	.LVL27-1
 3177 022f 0100     		.2byte	0x1
 3178 0231 53       		.byte	0x53
 3179 0232 00000000 		.4byte	0
 3180 0236 00000000 		.4byte	0
 3181              	.LLST18:
ARM GAS  /var/folders/dt/0wfd0knj7gs46m8vwfzktm600000gn/T//ccGzbHF2.s 			page 57


 3182 023a 12000000 		.4byte	.LVL29
 3183 023e 14000000 		.4byte	.LFE10
 3184 0242 0100     		.2byte	0x1
 3185 0244 53       		.byte	0x53
 3186 0245 00000000 		.4byte	0
 3187 0249 00000000 		.4byte	0
 3188              	.LLST19:
 3189 024d 00000000 		.4byte	.LFB13
 3190 0251 06000000 		.4byte	.LCFI4
 3191 0255 0200     		.2byte	0x2
 3192 0257 7D       		.byte	0x7d
 3193 0258 00       		.sleb128 0
 3194 0259 06000000 		.4byte	.LCFI4
 3195 025d 3C000000 		.4byte	.LFE13
 3196 0261 0200     		.2byte	0x2
 3197 0263 7D       		.byte	0x7d
 3198 0264 04       		.sleb128 4
 3199 0265 00000000 		.4byte	0
 3200 0269 00000000 		.4byte	0
 3201              	.LLST20:
 3202 026d 00000000 		.4byte	.LVL30
 3203 0271 04000000 		.4byte	.LVL31
 3204 0275 0100     		.2byte	0x1
 3205 0277 50       		.byte	0x50
 3206 0278 04000000 		.4byte	.LVL31
 3207 027c 2F000000 		.4byte	.LVL33-1
 3208 0280 0100     		.2byte	0x1
 3209 0282 53       		.byte	0x53
 3210 0283 2F000000 		.4byte	.LVL33-1
 3211 0287 30000000 		.4byte	.LVL33
 3212 028b 0400     		.2byte	0x4
 3213 028d F3       		.byte	0xf3
 3214 028e 01       		.uleb128 0x1
 3215 028f 50       		.byte	0x50
 3216 0290 9F       		.byte	0x9f
 3217 0291 30000000 		.4byte	.LVL33
 3218 0295 3C000000 		.4byte	.LFE13
 3219 0299 0100     		.2byte	0x1
 3220 029b 53       		.byte	0x53
 3221 029c 00000000 		.4byte	0
 3222 02a0 00000000 		.4byte	0
 3223              	.LLST21:
 3224 02a4 00000000 		.4byte	.LVL30
 3225 02a8 2F000000 		.4byte	.LVL33-1
 3226 02ac 0100     		.2byte	0x1
 3227 02ae 51       		.byte	0x51
 3228 02af 2F000000 		.4byte	.LVL33-1
 3229 02b3 30000000 		.4byte	.LVL33
 3230 02b7 0400     		.2byte	0x4
 3231 02b9 F3       		.byte	0xf3
 3232 02ba 01       		.uleb128 0x1
 3233 02bb 51       		.byte	0x51
 3234 02bc 9F       		.byte	0x9f
 3235 02bd 30000000 		.4byte	.LVL33
 3236 02c1 3C000000 		.4byte	.LFE13
 3237 02c5 0100     		.2byte	0x1
 3238 02c7 51       		.byte	0x51
ARM GAS  /var/folders/dt/0wfd0knj7gs46m8vwfzktm600000gn/T//ccGzbHF2.s 			page 58


 3239 02c8 00000000 		.4byte	0
 3240 02cc 00000000 		.4byte	0
 3241              	.LLST22:
 3242 02d0 20000000 		.4byte	.LVL32
 3243 02d4 2F000000 		.4byte	.LVL33-1
 3244 02d8 0200     		.2byte	0x2
 3245 02da 72       		.byte	0x72
 3246 02db 24       		.sleb128 36
 3247 02dc 2F000000 		.4byte	.LVL33-1
 3248 02e0 30000000 		.4byte	.LVL33
 3249 02e4 0400     		.2byte	0x4
 3250 02e6 F3       		.byte	0xf3
 3251 02e7 01       		.uleb128 0x1
 3252 02e8 50       		.byte	0x50
 3253 02e9 9F       		.byte	0x9f
 3254 02ea 00000000 		.4byte	0
 3255 02ee 00000000 		.4byte	0
 3256              	.LLST23:
 3257 02f2 20000000 		.4byte	.LVL32
 3258 02f6 2F000000 		.4byte	.LVL33-1
 3259 02fa 0100     		.2byte	0x1
 3260 02fc 52       		.byte	0x52
 3261 02fd 00000000 		.4byte	0
 3262 0301 00000000 		.4byte	0
 3263              	.LLST24:
 3264 0305 00000000 		.4byte	.LFB12
 3265 0309 02000000 		.4byte	.LCFI5
 3266 030d 0200     		.2byte	0x2
 3267 030f 7D       		.byte	0x7d
 3268 0310 00       		.sleb128 0
 3269 0311 02000000 		.4byte	.LCFI5
 3270 0315 14000000 		.4byte	.LFE12
 3271 0319 0200     		.2byte	0x2
 3272 031b 7D       		.byte	0x7d
 3273 031c 08       		.sleb128 8
 3274 031d 00000000 		.4byte	0
 3275 0321 00000000 		.4byte	0
 3276              	.LLST25:
 3277 0325 00000000 		.4byte	.LVL34
 3278 0329 0B000000 		.4byte	.LVL37-1
 3279 032d 0100     		.2byte	0x1
 3280 032f 50       		.byte	0x50
 3281 0330 0B000000 		.4byte	.LVL37-1
 3282 0334 14000000 		.4byte	.LFE12
 3283 0338 0400     		.2byte	0x4
 3284 033a F3       		.byte	0xf3
 3285 033b 01       		.uleb128 0x1
 3286 033c 50       		.byte	0x50
 3287 033d 9F       		.byte	0x9f
 3288 033e 00000000 		.4byte	0
 3289 0342 00000000 		.4byte	0
 3290              	.LLST26:
 3291 0346 00000000 		.4byte	.LVL34
 3292 034a 0B000000 		.4byte	.LVL37-1
 3293 034e 0100     		.2byte	0x1
 3294 0350 51       		.byte	0x51
 3295 0351 0B000000 		.4byte	.LVL37-1
ARM GAS  /var/folders/dt/0wfd0knj7gs46m8vwfzktm600000gn/T//ccGzbHF2.s 			page 59


 3296 0355 14000000 		.4byte	.LFE12
 3297 0359 0400     		.2byte	0x4
 3298 035b F3       		.byte	0xf3
 3299 035c 01       		.uleb128 0x1
 3300 035d 51       		.byte	0x51
 3301 035e 9F       		.byte	0x9f
 3302 035f 00000000 		.4byte	0
 3303 0363 00000000 		.4byte	0
 3304              	.LLST27:
 3305 0367 08000000 		.4byte	.LVL36
 3306 036b 0B000000 		.4byte	.LVL37-1
 3307 036f 0100     		.2byte	0x1
 3308 0371 53       		.byte	0x53
 3309 0372 00000000 		.4byte	0
 3310 0376 00000000 		.4byte	0
 3311              	.LLST28:
 3312 037a 12000000 		.4byte	.LVL39
 3313 037e 14000000 		.4byte	.LFE12
 3314 0382 0100     		.2byte	0x1
 3315 0384 53       		.byte	0x53
 3316 0385 00000000 		.4byte	0
 3317 0389 00000000 		.4byte	0
 3318              	.LLST29:
 3319 038d 00000000 		.4byte	.LFB14
 3320 0391 02000000 		.4byte	.LCFI6
 3321 0395 0200     		.2byte	0x2
 3322 0397 7D       		.byte	0x7d
 3323 0398 00       		.sleb128 0
 3324 0399 02000000 		.4byte	.LCFI6
 3325 039d 2C000000 		.4byte	.LFE14
 3326 03a1 0200     		.2byte	0x2
 3327 03a3 7D       		.byte	0x7d
 3328 03a4 08       		.sleb128 8
 3329 03a5 00000000 		.4byte	0
 3330 03a9 00000000 		.4byte	0
 3331              	.LLST30:
 3332 03ad 00000000 		.4byte	.LVL40
 3333 03b1 14000000 		.4byte	.LVL44
 3334 03b5 0100     		.2byte	0x1
 3335 03b7 50       		.byte	0x50
 3336 03b8 14000000 		.4byte	.LVL44
 3337 03bc 1C000000 		.4byte	.LVL47
 3338 03c0 0400     		.2byte	0x4
 3339 03c2 F3       		.byte	0xf3
 3340 03c3 01       		.uleb128 0x1
 3341 03c4 50       		.byte	0x50
 3342 03c5 9F       		.byte	0x9f
 3343 03c6 1C000000 		.4byte	.LVL47
 3344 03ca 1E000000 		.4byte	.LVL48
 3345 03ce 0100     		.2byte	0x1
 3346 03d0 50       		.byte	0x50
 3347 03d1 1E000000 		.4byte	.LVL48
 3348 03d5 29000000 		.4byte	.LVL49-1
 3349 03d9 0100     		.2byte	0x1
 3350 03db 52       		.byte	0x52
 3351 03dc 29000000 		.4byte	.LVL49-1
 3352 03e0 2C000000 		.4byte	.LFE14
ARM GAS  /var/folders/dt/0wfd0knj7gs46m8vwfzktm600000gn/T//ccGzbHF2.s 			page 60


 3353 03e4 0400     		.2byte	0x4
 3354 03e6 F3       		.byte	0xf3
 3355 03e7 01       		.uleb128 0x1
 3356 03e8 50       		.byte	0x50
 3357 03e9 9F       		.byte	0x9f
 3358 03ea 00000000 		.4byte	0
 3359 03ee 00000000 		.4byte	0
 3360              	.LLST31:
 3361 03f2 0A000000 		.4byte	.LVL42
 3362 03f6 0C000000 		.4byte	.LVL43
 3363 03fa 0100     		.2byte	0x1
 3364 03fc 53       		.byte	0x53
 3365 03fd 00000000 		.4byte	0
 3366 0401 00000000 		.4byte	0
 3367              	.LLST32:
 3368 0405 1A000000 		.4byte	.LVL46
 3369 0409 1C000000 		.4byte	.LVL47
 3370 040d 0100     		.2byte	0x1
 3371 040f 53       		.byte	0x53
 3372 0410 00000000 		.4byte	0
 3373 0414 00000000 		.4byte	0
 3374              	.LLST33:
 3375 0418 1C000000 		.4byte	.LVL47
 3376 041c 1E000000 		.4byte	.LVL48
 3377 0420 0100     		.2byte	0x1
 3378 0422 50       		.byte	0x50
 3379 0423 1E000000 		.4byte	.LVL48
 3380 0427 29000000 		.4byte	.LVL49-1
 3381 042b 0100     		.2byte	0x1
 3382 042d 52       		.byte	0x52
 3383 042e 29000000 		.4byte	.LVL49-1
 3384 0432 2C000000 		.4byte	.LFE14
 3385 0436 0400     		.2byte	0x4
 3386 0438 F3       		.byte	0xf3
 3387 0439 01       		.uleb128 0x1
 3388 043a 50       		.byte	0x50
 3389 043b 9F       		.byte	0x9f
 3390 043c 00000000 		.4byte	0
 3391 0440 00000000 		.4byte	0
 3392              	.LLST34:
 3393 0444 1E000000 		.4byte	.LVL48
 3394 0448 29000000 		.4byte	.LVL49-1
 3395 044c 0100     		.2byte	0x1
 3396 044e 50       		.byte	0x50
 3397 044f 00000000 		.4byte	0
 3398 0453 00000000 		.4byte	0
 3399              	.LLST35:
 3400 0457 00000000 		.4byte	.LVL50
 3401 045b 14000000 		.4byte	.LVL53
 3402 045f 0100     		.2byte	0x1
 3403 0461 50       		.byte	0x50
 3404 0462 14000000 		.4byte	.LVL53
 3405 0466 1A000000 		.4byte	.LVL54
 3406 046a 0100     		.2byte	0x1
 3407 046c 53       		.byte	0x53
 3408 046d 1A000000 		.4byte	.LVL54
 3409 0471 1F000000 		.4byte	.LVL55-1
ARM GAS  /var/folders/dt/0wfd0knj7gs46m8vwfzktm600000gn/T//ccGzbHF2.s 			page 61


 3410 0475 0200     		.2byte	0x2
 3411 0477 71       		.byte	0x71
 3412 0478 04       		.sleb128 4
 3413 0479 1F000000 		.4byte	.LVL55-1
 3414 047d 20000000 		.4byte	.LFE15
 3415 0481 0400     		.2byte	0x4
 3416 0483 F3       		.byte	0xf3
 3417 0484 01       		.uleb128 0x1
 3418 0485 50       		.byte	0x50
 3419 0486 9F       		.byte	0x9f
 3420 0487 00000000 		.4byte	0
 3421 048b 00000000 		.4byte	0
 3422              	.LLST36:
 3423 048f 0E000000 		.4byte	.LVL51
 3424 0493 14000000 		.4byte	.LVL53
 3425 0497 0100     		.2byte	0x1
 3426 0499 50       		.byte	0x50
 3427 049a 14000000 		.4byte	.LVL53
 3428 049e 1A000000 		.4byte	.LVL54
 3429 04a2 0100     		.2byte	0x1
 3430 04a4 53       		.byte	0x53
 3431 04a5 1A000000 		.4byte	.LVL54
 3432 04a9 1F000000 		.4byte	.LVL55-1
 3433 04ad 0200     		.2byte	0x2
 3434 04af 71       		.byte	0x71
 3435 04b0 04       		.sleb128 4
 3436 04b1 1F000000 		.4byte	.LVL55-1
 3437 04b5 20000000 		.4byte	.LFE15
 3438 04b9 0400     		.2byte	0x4
 3439 04bb F3       		.byte	0xf3
 3440 04bc 01       		.uleb128 0x1
 3441 04bd 50       		.byte	0x50
 3442 04be 9F       		.byte	0x9f
 3443 04bf 00000000 		.4byte	0
 3444 04c3 00000000 		.4byte	0
 3445              	.LLST37:
 3446 04c7 10000000 		.4byte	.LVL52
 3447 04cb 1F000000 		.4byte	.LVL55-1
 3448 04cf 0100     		.2byte	0x1
 3449 04d1 52       		.byte	0x52
 3450 04d2 00000000 		.4byte	0
 3451 04d6 00000000 		.4byte	0
 3452              	.LLST38:
 3453 04da 00000000 		.4byte	.LFB16
 3454 04de 02000000 		.4byte	.LCFI7
 3455 04e2 0200     		.2byte	0x2
 3456 04e4 7D       		.byte	0x7d
 3457 04e5 00       		.sleb128 0
 3458 04e6 02000000 		.4byte	.LCFI7
 3459 04ea 2E000000 		.4byte	.LFE16
 3460 04ee 0200     		.2byte	0x2
 3461 04f0 7D       		.byte	0x7d
 3462 04f1 10       		.sleb128 16
 3463 04f2 00000000 		.4byte	0
 3464 04f6 00000000 		.4byte	0
 3465              	.LLST39:
 3466 04fa 00000000 		.4byte	.LVL56
ARM GAS  /var/folders/dt/0wfd0knj7gs46m8vwfzktm600000gn/T//ccGzbHF2.s 			page 62


 3467 04fe 0C000000 		.4byte	.LVL57
 3468 0502 0100     		.2byte	0x1
 3469 0504 50       		.byte	0x50
 3470 0505 0C000000 		.4byte	.LVL57
 3471 0509 2E000000 		.4byte	.LFE16
 3472 050d 0100     		.2byte	0x1
 3473 050f 55       		.byte	0x55
 3474 0510 00000000 		.4byte	0
 3475 0514 00000000 		.4byte	0
 3476              	.LLST40:
 3477 0518 00000000 		.4byte	.LVL56
 3478 051c 0C000000 		.4byte	.LVL57
 3479 0520 0100     		.2byte	0x1
 3480 0522 51       		.byte	0x51
 3481 0523 0C000000 		.4byte	.LVL57
 3482 0527 0E000000 		.4byte	.LVL58
 3483 052b 0300     		.2byte	0x3
 3484 052d 74       		.byte	0x74
 3485 052e 7F       		.sleb128 -1
 3486 052f 9F       		.byte	0x9f
 3487 0530 0E000000 		.4byte	.LVL58
 3488 0534 10000000 		.4byte	.LVL59
 3489 0538 0100     		.2byte	0x1
 3490 053a 54       		.byte	0x54
 3491 053b 00000000 		.4byte	0
 3492 053f 00000000 		.4byte	0
 3493              	.LLST41:
 3494 0543 1A000000 		.4byte	.LVL60
 3495 0547 2C000000 		.4byte	.LVL63
 3496 054b 0100     		.2byte	0x1
 3497 054d 55       		.byte	0x55
 3498 054e 00000000 		.4byte	0
 3499 0552 00000000 		.4byte	0
 3500              	.LLST42:
 3501 0556 1C000000 		.4byte	.LVL61
 3502 055a 25000000 		.4byte	.LVL62-1
 3503 055e 0100     		.2byte	0x1
 3504 0560 50       		.byte	0x50
 3505 0561 00000000 		.4byte	0
 3506 0565 00000000 		.4byte	0
 3507              	.LLST43:
 3508 0569 00000000 		.4byte	.LFB17
 3509 056d 02000000 		.4byte	.LCFI8
 3510 0571 0200     		.2byte	0x2
 3511 0573 7D       		.byte	0x7d
 3512 0574 00       		.sleb128 0
 3513 0575 02000000 		.4byte	.LCFI8
 3514 0579 06000000 		.4byte	.LCFI9
 3515 057d 0200     		.2byte	0x2
 3516 057f 7D       		.byte	0x7d
 3517 0580 08       		.sleb128 8
 3518 0581 06000000 		.4byte	.LCFI9
 3519 0585 64000000 		.4byte	.LFE17
 3520 0589 0200     		.2byte	0x2
 3521 058b 7D       		.byte	0x7d
 3522 058c 10       		.sleb128 16
 3523 058d 00000000 		.4byte	0
ARM GAS  /var/folders/dt/0wfd0knj7gs46m8vwfzktm600000gn/T//ccGzbHF2.s 			page 63


 3524 0591 00000000 		.4byte	0
 3525              	.LLST44:
 3526 0595 00000000 		.4byte	.LVL64
 3527 0599 16000000 		.4byte	.LVL68
 3528 059d 0100     		.2byte	0x1
 3529 059f 50       		.byte	0x50
 3530 05a0 16000000 		.4byte	.LVL68
 3531 05a4 4A000000 		.4byte	.LVL77
 3532 05a8 0400     		.2byte	0x4
 3533 05aa F3       		.byte	0xf3
 3534 05ab 01       		.uleb128 0x1
 3535 05ac 50       		.byte	0x50
 3536 05ad 9F       		.byte	0x9f
 3537 05ae 4A000000 		.4byte	.LVL77
 3538 05b2 4C000000 		.4byte	.LVL78
 3539 05b6 0100     		.2byte	0x1
 3540 05b8 50       		.byte	0x50
 3541 05b9 4C000000 		.4byte	.LVL78
 3542 05bd 57000000 		.4byte	.LVL79-1
 3543 05c1 0100     		.2byte	0x1
 3544 05c3 52       		.byte	0x52
 3545 05c4 57000000 		.4byte	.LVL79-1
 3546 05c8 64000000 		.4byte	.LFE17
 3547 05cc 0400     		.2byte	0x4
 3548 05ce F3       		.byte	0xf3
 3549 05cf 01       		.uleb128 0x1
 3550 05d0 50       		.byte	0x50
 3551 05d1 9F       		.byte	0x9f
 3552 05d2 00000000 		.4byte	0
 3553 05d6 00000000 		.4byte	0
 3554              	.LLST45:
 3555 05da 00000000 		.4byte	.LVL64
 3556 05de 16000000 		.4byte	.LVL68
 3557 05e2 0100     		.2byte	0x1
 3558 05e4 51       		.byte	0x51
 3559 05e5 16000000 		.4byte	.LVL68
 3560 05e9 4A000000 		.4byte	.LVL77
 3561 05ed 0400     		.2byte	0x4
 3562 05ef F3       		.byte	0xf3
 3563 05f0 01       		.uleb128 0x1
 3564 05f1 51       		.byte	0x51
 3565 05f2 9F       		.byte	0x9f
 3566 05f3 4A000000 		.4byte	.LVL77
 3567 05f7 57000000 		.4byte	.LVL79-1
 3568 05fb 0100     		.2byte	0x1
 3569 05fd 51       		.byte	0x51
 3570 05fe 57000000 		.4byte	.LVL79-1
 3571 0602 64000000 		.4byte	.LFE17
 3572 0606 0400     		.2byte	0x4
 3573 0608 F3       		.byte	0xf3
 3574 0609 01       		.uleb128 0x1
 3575 060a 51       		.byte	0x51
 3576 060b 9F       		.byte	0x9f
 3577 060c 00000000 		.4byte	0
 3578 0610 00000000 		.4byte	0
 3579              	.LLST46:
 3580 0614 24000000 		.4byte	.LVL69
ARM GAS  /var/folders/dt/0wfd0knj7gs46m8vwfzktm600000gn/T//ccGzbHF2.s 			page 64


 3581 0618 26000000 		.4byte	.LVL70
 3582 061c 0200     		.2byte	0x2
 3583 061e 30       		.byte	0x30
 3584 061f 9F       		.byte	0x9f
 3585 0620 26000000 		.4byte	.LVL70
 3586 0624 30000000 		.4byte	.LVL73
 3587 0628 0100     		.2byte	0x1
 3588 062a 50       		.byte	0x50
 3589 062b 48000000 		.4byte	.LVL76
 3590 062f 4A000000 		.4byte	.LVL77
 3591 0633 0100     		.2byte	0x1
 3592 0635 50       		.byte	0x50
 3593 0636 00000000 		.4byte	0
 3594 063a 00000000 		.4byte	0
 3595              	.LLST47:
 3596 063e 0C000000 		.4byte	.LVL66
 3597 0642 0E000000 		.4byte	.LVL67
 3598 0646 0100     		.2byte	0x1
 3599 0648 53       		.byte	0x53
 3600 0649 00000000 		.4byte	0
 3601 064d 00000000 		.4byte	0
 3602              	.LLST48:
 3603 0651 2C000000 		.4byte	.LVL72
 3604 0655 30000000 		.4byte	.LVL73
 3605 0659 0100     		.2byte	0x1
 3606 065b 53       		.byte	0x53
 3607 065c 00000000 		.4byte	0
 3608 0660 00000000 		.4byte	0
 3609              	.LLST49:
 3610 0664 36000000 		.4byte	.LVL74
 3611 0668 4A000000 		.4byte	.LVL77
 3612 066c 0100     		.2byte	0x1
 3613 066e 54       		.byte	0x54
 3614 066f 00000000 		.4byte	0
 3615 0673 00000000 		.4byte	0
 3616              	.LLST50:
 3617 0677 36000000 		.4byte	.LVL74
 3618 067b 45000000 		.4byte	.LVL75-1
 3619 067f 0100     		.2byte	0x1
 3620 0681 51       		.byte	0x51
 3621 0682 00000000 		.4byte	0
 3622 0686 00000000 		.4byte	0
 3623              	.LLST52:
 3624 068a 4A000000 		.4byte	.LVL77
 3625 068e 4C000000 		.4byte	.LVL78
 3626 0692 0100     		.2byte	0x1
 3627 0694 50       		.byte	0x50
 3628 0695 4C000000 		.4byte	.LVL78
 3629 0699 57000000 		.4byte	.LVL79-1
 3630 069d 0100     		.2byte	0x1
 3631 069f 52       		.byte	0x52
 3632 06a0 57000000 		.4byte	.LVL79-1
 3633 06a4 64000000 		.4byte	.LFE17
 3634 06a8 0400     		.2byte	0x4
 3635 06aa F3       		.byte	0xf3
 3636 06ab 01       		.uleb128 0x1
 3637 06ac 50       		.byte	0x50
ARM GAS  /var/folders/dt/0wfd0knj7gs46m8vwfzktm600000gn/T//ccGzbHF2.s 			page 65


 3638 06ad 9F       		.byte	0x9f
 3639 06ae 00000000 		.4byte	0
 3640 06b2 00000000 		.4byte	0
 3641              	.LLST53:
 3642 06b6 4C000000 		.4byte	.LVL78
 3643 06ba 57000000 		.4byte	.LVL79-1
 3644 06be 0100     		.2byte	0x1
 3645 06c0 50       		.byte	0x50
 3646 06c1 00000000 		.4byte	0
 3647 06c5 00000000 		.4byte	0
 3648              		.section	.debug_aranges,"",%progbits
 3649 0000 6C000000 		.4byte	0x6c
 3650 0004 0200     		.2byte	0x2
 3651 0006 00000000 		.4byte	.Ldebug_info0
 3652 000a 04       		.byte	0x4
 3653 000b 00       		.byte	0
 3654 000c 0000     		.2byte	0
 3655 000e 0000     		.2byte	0
 3656 0010 00000000 		.4byte	.LFB7
 3657 0014 08000000 		.4byte	.LFE7-.LFB7
 3658 0018 00000000 		.4byte	.LFB9
 3659 001c 28000000 		.4byte	.LFE9-.LFB9
 3660 0020 00000000 		.4byte	.LFB8
 3661 0024 18000000 		.4byte	.LFE8-.LFB8
 3662 0028 00000000 		.4byte	.LFB11
 3663 002c 34000000 		.4byte	.LFE11-.LFB11
 3664 0030 00000000 		.4byte	.LFB10
 3665 0034 14000000 		.4byte	.LFE10-.LFB10
 3666 0038 00000000 		.4byte	.LFB13
 3667 003c 3C000000 		.4byte	.LFE13-.LFB13
 3668 0040 00000000 		.4byte	.LFB12
 3669 0044 14000000 		.4byte	.LFE12-.LFB12
 3670 0048 00000000 		.4byte	.LFB14
 3671 004c 2C000000 		.4byte	.LFE14-.LFB14
 3672 0050 00000000 		.4byte	.LFB15
 3673 0054 20000000 		.4byte	.LFE15-.LFB15
 3674 0058 00000000 		.4byte	.LFB16
 3675 005c 2E000000 		.4byte	.LFE16-.LFB16
 3676 0060 00000000 		.4byte	.LFB17
 3677 0064 64000000 		.4byte	.LFE17-.LFB17
 3678 0068 00000000 		.4byte	0
 3679 006c 00000000 		.4byte	0
 3680              		.section	.debug_ranges,"",%progbits
 3681              	.Ldebug_ranges0:
 3682 0000 12000000 		.4byte	.LBB24
 3683 0004 14000000 		.4byte	.LBE24
 3684 0008 16000000 		.4byte	.LBB27
 3685 000c 1C000000 		.4byte	.LBE27
 3686 0010 00000000 		.4byte	0
 3687 0014 00000000 		.4byte	0
 3688 0018 12000000 		.4byte	.LBB25
 3689 001c 14000000 		.4byte	.LBE25
 3690 0020 16000000 		.4byte	.LBB26
 3691 0024 1C000000 		.4byte	.LBE26
 3692 0028 00000000 		.4byte	0
 3693 002c 00000000 		.4byte	0
 3694 0030 1C000000 		.4byte	.LBB40
ARM GAS  /var/folders/dt/0wfd0knj7gs46m8vwfzktm600000gn/T//ccGzbHF2.s 			page 66


 3695 0034 1E000000 		.4byte	.LBE40
 3696 0038 20000000 		.4byte	.LBB43
 3697 003c 26000000 		.4byte	.LBE43
 3698 0040 00000000 		.4byte	0
 3699 0044 00000000 		.4byte	0
 3700 0048 1C000000 		.4byte	.LBB41
 3701 004c 1E000000 		.4byte	.LBE41
 3702 0050 20000000 		.4byte	.LBB42
 3703 0054 26000000 		.4byte	.LBE42
 3704 0058 00000000 		.4byte	0
 3705 005c 00000000 		.4byte	0
 3706 0060 0E000000 		.4byte	.LBB44
 3707 0064 1C000000 		.4byte	.LBE44
 3708 0068 1C000000 		.4byte	.LBB49
 3709 006c 20000000 		.4byte	.LBE49
 3710 0070 00000000 		.4byte	0
 3711 0074 00000000 		.4byte	0
 3712 0078 0E000000 		.4byte	.LBB45
 3713 007c 12000000 		.4byte	.LBE45
 3714 0080 14000000 		.4byte	.LBB48
 3715 0084 18000000 		.4byte	.LBE48
 3716 0088 00000000 		.4byte	0
 3717 008c 00000000 		.4byte	0
 3718 0090 0E000000 		.4byte	.LBB46
 3719 0094 12000000 		.4byte	.LBE46
 3720 0098 14000000 		.4byte	.LBB47
 3721 009c 18000000 		.4byte	.LBE47
 3722 00a0 00000000 		.4byte	0
 3723 00a4 00000000 		.4byte	0
 3724 00a8 32000000 		.4byte	.LBB55
 3725 00ac 34000000 		.4byte	.LBE55
 3726 00b0 38000000 		.4byte	.LBB58
 3727 00b4 40000000 		.4byte	.LBE58
 3728 00b8 00000000 		.4byte	0
 3729 00bc 00000000 		.4byte	0
 3730 00c0 00000000 		.4byte	.LFB7
 3731 00c4 08000000 		.4byte	.LFE7
 3732 00c8 00000000 		.4byte	.LFB9
 3733 00cc 28000000 		.4byte	.LFE9
 3734 00d0 00000000 		.4byte	.LFB8
 3735 00d4 18000000 		.4byte	.LFE8
 3736 00d8 00000000 		.4byte	.LFB11
 3737 00dc 34000000 		.4byte	.LFE11
 3738 00e0 00000000 		.4byte	.LFB10
 3739 00e4 14000000 		.4byte	.LFE10
 3740 00e8 00000000 		.4byte	.LFB13
 3741 00ec 3C000000 		.4byte	.LFE13
 3742 00f0 00000000 		.4byte	.LFB12
 3743 00f4 14000000 		.4byte	.LFE12
 3744 00f8 00000000 		.4byte	.LFB14
 3745 00fc 2C000000 		.4byte	.LFE14
 3746 0100 00000000 		.4byte	.LFB15
 3747 0104 20000000 		.4byte	.LFE15
 3748 0108 00000000 		.4byte	.LFB16
 3749 010c 2E000000 		.4byte	.LFE16
 3750 0110 00000000 		.4byte	.LFB17
 3751 0114 64000000 		.4byte	.LFE17
ARM GAS  /var/folders/dt/0wfd0knj7gs46m8vwfzktm600000gn/T//ccGzbHF2.s 			page 67


 3752 0118 00000000 		.4byte	0
 3753 011c 00000000 		.4byte	0
 3754              		.section	.debug_line,"",%progbits
 3755              	.Ldebug_line0:
 3756 0000 0F030000 		.section	.debug_str,"MS",%progbits,1
 3756      02004C01 
 3756      00000201 
 3756      FB0E0D00 
 3756      01010101 
 3757              	.LASF37:
 3758 0000 705F6D73 		.ascii	"p_msg\000"
 3758      6700
 3759              	.LASF86:
 3760 0006 71756575 		.ascii	"queue_insert\000"
 3760      655F696E 
 3760      73657274 
 3760      00
 3761              	.LASF78:
 3762 0013 63685365 		.ascii	"chSemSignalI\000"
 3762      6D536967 
 3762      6E616C49 
 3762      00
 3763              	.LASF62:
 3764 0020 7264796D 		.ascii	"rdymsg\000"
 3764      736700
 3765              	.LASF11:
 3766 0027 6C6F6E67 		.ascii	"long long unsigned int\000"
 3766      206C6F6E 
 3766      6720756E 
 3766      7369676E 
 3766      65642069 
 3767              	.LASF63:
 3768 003e 65786974 		.ascii	"exitcode\000"
 3768      636F6465 
 3768      00
 3769              	.LASF79:
 3770 0047 63685365 		.ascii	"chSemAddCounterI\000"
 3770      6D416464 
 3770      436F756E 
 3770      74657249 
 3770      00
 3771              	.LASF25:
 3772 0058 705F7072 		.ascii	"p_prio\000"
 3772      696F00
 3773              	.LASF10:
 3774 005f 6C6F6E67 		.ascii	"long long int\000"
 3774      206C6F6E 
 3774      6720696E 
 3774      7400
 3775              	.LASF1:
 3776 006d 7369676E 		.ascii	"signed char\000"
 3776      65642063 
 3776      68617200 
 3777              	.LASF80:
 3778 0079 63685365 		.ascii	"chSemSignalWait\000"
 3778      6D536967 
 3778      6E616C57 
ARM GAS  /var/folders/dt/0wfd0knj7gs46m8vwfzktm600000gn/T//ccGzbHF2.s 			page 68


 3778      61697400 
 3779              	.LASF41:
 3780 0089 705F6D70 		.ascii	"p_mpool\000"
 3780      6F6F6C00 
 3781              	.LASF59:
 3782 0091 6D5F7175 		.ascii	"m_queue\000"
 3782      65756500 
 3783              	.LASF16:
 3784 0099 74736C69 		.ascii	"tslices_t\000"
 3784      6365735F 
 3784      7400
 3785              	.LASF84:
 3786 00a3 2E2E2F2E 		.ascii	"../../os/kernel/src/chsem.c\000"
 3786      2E2F6F73 
 3786      2F6B6572 
 3786      6E656C2F 
 3786      7372632F 
 3787              	.LASF7:
 3788 00bf 6C6F6E67 		.ascii	"long int\000"
 3788      20696E74 
 3788      00
 3789              	.LASF85:
 3790 00c8 2F557365 		.ascii	"/Users/toxygen/dev/chibi/ChibiOS_2.6.1/demos/ARMCM3"
 3790      72732F74 
 3790      6F787967 
 3790      656E2F64 
 3790      65762F63 
 3791 00fb 2D53544D 		.ascii	"-STM32F107\000"
 3791      33324631 
 3791      303700
 3792              	.LASF14:
 3793 0106 74737461 		.ascii	"tstate_t\000"
 3793      74655F74 
 3793      00
 3794              	.LASF77:
 3795 010f 63685365 		.ascii	"chSemSignal\000"
 3795      6D536967 
 3795      6E616C00 
 3796              	.LASF27:
 3797 011b 705F6E65 		.ascii	"p_newer\000"
 3797      77657200 
 3798              	.LASF56:
 3799 0123 735F7175 		.ascii	"s_queue\000"
 3799      65756500 
 3800              	.LASF88:
 3801 012b 63685363 		.ascii	"chSchRescheduleS\000"
 3801      68526573 
 3801      63686564 
 3801      756C6553 
 3801      00
 3802              	.LASF51:
 3803 013c 725F6E65 		.ascii	"r_newer\000"
 3803      77657200 
 3804              	.LASF44:
 3805 0144 72656761 		.ascii	"regarm_t\000"
 3805      726D5F74 
 3805      00
ARM GAS  /var/folders/dt/0wfd0knj7gs46m8vwfzktm600000gn/T//ccGzbHF2.s 			page 69


 3806              	.LASF21:
 3807 014d 636E745F 		.ascii	"cnt_t\000"
 3807      7400
 3808              	.LASF0:
 3809 0153 756E7369 		.ascii	"unsigned int\000"
 3809      676E6564 
 3809      20696E74 
 3809      00
 3810              	.LASF76:
 3811 0160 63685365 		.ascii	"chSemWaitTimeout\000"
 3811      6D576169 
 3811      7454696D 
 3811      656F7574 
 3811      00
 3812              	.LASF9:
 3813 0171 6C6F6E67 		.ascii	"long unsigned int\000"
 3813      20756E73 
 3813      69676E65 
 3813      6420696E 
 3813      7400
 3814              	.LASF57:
 3815 0183 735F636E 		.ascii	"s_cnt\000"
 3815      7400
 3816              	.LASF46:
 3817 0189 636F6E74 		.ascii	"context\000"
 3817      65787400 
 3818              	.LASF4:
 3819 0191 73686F72 		.ascii	"short unsigned int\000"
 3819      7420756E 
 3819      7369676E 
 3819      65642069 
 3819      6E7400
 3820              	.LASF71:
 3821 01a4 63685365 		.ascii	"chSemReset\000"
 3821      6D526573 
 3821      657400
 3822              	.LASF18:
 3823 01af 6D73675F 		.ascii	"msg_t\000"
 3823      7400
 3824              	.LASF13:
 3825 01b5 746D6F64 		.ascii	"tmode_t\000"
 3825      655F7400 
 3826              	.LASF43:
 3827 01bd 54687265 		.ascii	"ThreadsList\000"
 3827      6164734C 
 3827      69737400 
 3828              	.LASF19:
 3829 01c9 6576656E 		.ascii	"eventmask_t\000"
 3829      746D6173 
 3829      6B5F7400 
 3830              	.LASF58:
 3831 01d5 4D757465 		.ascii	"Mutex\000"
 3831      7800
 3832              	.LASF47:
 3833 01db 73697A65 		.ascii	"sizetype\000"
 3833      74797065 
 3833      00
ARM GAS  /var/folders/dt/0wfd0knj7gs46m8vwfzktm600000gn/T//ccGzbHF2.s 			page 70


 3834              	.LASF28:
 3835 01e4 705F6F6C 		.ascii	"p_older\000"
 3835      64657200 
 3836              	.LASF50:
 3837 01ec 725F6374 		.ascii	"r_ctx\000"
 3837      7800
 3838              	.LASF42:
 3839 01f2 54687265 		.ascii	"ThreadsQueue\000"
 3839      61647351 
 3839      75657565 
 3839      00
 3840              	.LASF75:
 3841 01ff 74696D65 		.ascii	"time\000"
 3841      00
 3842              	.LASF83:
 3843 0204 474E5520 		.ascii	"GNU C 4.7.2\000"
 3843      4320342E 
 3843      372E3200 
 3844              	.LASF53:
 3845 0210 725F6375 		.ascii	"r_current\000"
 3845      7272656E 
 3845      7400
 3846              	.LASF52:
 3847 021a 725F6F6C 		.ascii	"r_older\000"
 3847      64657200 
 3848              	.LASF15:
 3849 0222 74726566 		.ascii	"trefs_t\000"
 3849      735F7400 
 3850              	.LASF24:
 3851 022a 705F7072 		.ascii	"p_prev\000"
 3851      657600
 3852              	.LASF17:
 3853 0231 74707269 		.ascii	"tprio_t\000"
 3853      6F5F7400 
 3854              	.LASF12:
 3855 0239 5F426F6F 		.ascii	"_Bool\000"
 3855      6C00
 3856              	.LASF6:
 3857 023f 696E7433 		.ascii	"int32_t\000"
 3857      325F7400 
 3858              	.LASF2:
 3859 0247 756E7369 		.ascii	"unsigned char\000"
 3859      676E6564 
 3859      20636861 
 3859      7200
 3860              	.LASF39:
 3861 0255 705F6D74 		.ascii	"p_mtxlist\000"
 3861      786C6973 
 3861      7400
 3862              	.LASF3:
 3863 025f 73686F72 		.ascii	"short int\000"
 3863      7420696E 
 3863      7400
 3864              	.LASF30:
 3865 0269 705F7374 		.ascii	"p_state\000"
 3865      61746500 
 3866              	.LASF33:
ARM GAS  /var/folders/dt/0wfd0knj7gs46m8vwfzktm600000gn/T//ccGzbHF2.s 			page 71


 3867 0271 705F7072 		.ascii	"p_preempt\000"
 3867      65656D70 
 3867      7400
 3868              	.LASF49:
 3869 027b 725F7072 		.ascii	"r_prio\000"
 3869      696F00
 3870              	.LASF65:
 3871 0282 65776D61 		.ascii	"ewmask\000"
 3871      736B00
 3872              	.LASF23:
 3873 0289 705F6E65 		.ascii	"p_next\000"
 3873      787400
 3874              	.LASF31:
 3875 0290 705F666C 		.ascii	"p_flags\000"
 3875      61677300 
 3876              	.LASF72:
 3877 0298 63685365 		.ascii	"chSemWaitS\000"
 3877      6D576169 
 3877      745300
 3878              	.LASF22:
 3879 02a3 54687265 		.ascii	"Thread\000"
 3879      616400
 3880              	.LASF89:
 3881 02aa 63685363 		.ascii	"chSchGoSleepS\000"
 3881      68476F53 
 3881      6C656570 
 3881      5300
 3882              	.LASF38:
 3883 02b8 705F6570 		.ascii	"p_epending\000"
 3883      656E6469 
 3883      6E6700
 3884              	.LASF8:
 3885 02c3 75696E74 		.ascii	"uint32_t\000"
 3885      33325F74 
 3885      00
 3886              	.LASF48:
 3887 02cc 725F7175 		.ascii	"r_queue\000"
 3887      65756500 
 3888              	.LASF81:
 3889 02d4 63685363 		.ascii	"chSchReadyI\000"
 3889      68526561 
 3889      64794900 
 3890              	.LASF66:
 3891 02e0 63686172 		.ascii	"char\000"
 3891      00
 3892              	.LASF68:
 3893 02e5 6669666F 		.ascii	"fifo_remove\000"
 3893      5F72656D 
 3893      6F766500 
 3894              	.LASF74:
 3895 02f1 63685365 		.ascii	"chSemWaitTimeoutS\000"
 3895      6D576169 
 3895      7454696D 
 3895      656F7574 
 3895      5300
 3896              	.LASF61:
 3897 0303 6D5F6E65 		.ascii	"m_next\000"
ARM GAS  /var/folders/dt/0wfd0knj7gs46m8vwfzktm600000gn/T//ccGzbHF2.s 			page 72


 3897      787400
 3898              	.LASF20:
 3899 030a 73797374 		.ascii	"systime_t\000"
 3899      696D655F 
 3899      7400
 3900              	.LASF40:
 3901 0314 705F7265 		.ascii	"p_realprio\000"
 3901      616C7072 
 3901      696F00
 3902              	.LASF73:
 3903 031f 63685365 		.ascii	"chSemWait\000"
 3903      6D576169 
 3903      7400
 3904              	.LASF34:
 3905 0329 705F7469 		.ascii	"p_time\000"
 3905      6D6500
 3906              	.LASF67:
 3907 0330 6C69666F 		.ascii	"lifo_remove\000"
 3907      5F72656D 
 3907      6F766500 
 3908              	.LASF45:
 3909 033c 696E7463 		.ascii	"intctx\000"
 3909      747800
 3910              	.LASF36:
 3911 0343 705F6D73 		.ascii	"p_msgqueue\000"
 3911      67717565 
 3911      756500
 3912              	.LASF90:
 3913 034e 63685363 		.ascii	"chSchWakeupS\000"
 3913      6857616B 
 3913      65757053 
 3913      00
 3914              	.LASF55:
 3915 035b 53656D61 		.ascii	"Semaphore\000"
 3915      70686F72 
 3915      6500
 3916              	.LASF32:
 3917 0365 705F7265 		.ascii	"p_refs\000"
 3917      667300
 3918              	.LASF54:
 3919 036c 52656164 		.ascii	"ReadyList\000"
 3919      794C6973 
 3919      7400
 3920              	.LASF70:
 3921 0376 63685365 		.ascii	"chSemResetI\000"
 3921      6D526573 
 3921      65744900 
 3922              	.LASF87:
 3923 0382 726C6973 		.ascii	"rlist\000"
 3923      7400
 3924              	.LASF5:
 3925 0388 75696E74 		.ascii	"uint8_t\000"
 3925      385F7400 
 3926              	.LASF64:
 3927 0390 77746F62 		.ascii	"wtobjp\000"
 3927      6A7000
 3928              	.LASF29:
ARM GAS  /var/folders/dt/0wfd0knj7gs46m8vwfzktm600000gn/T//ccGzbHF2.s 			page 73


 3929 0397 705F6E61 		.ascii	"p_name\000"
 3929      6D6500
 3930              	.LASF82:
 3931 039e 63685363 		.ascii	"chSchGoSleepTimeoutS\000"
 3931      68476F53 
 3931      6C656570 
 3931      54696D65 
 3931      6F757453 
 3932              	.LASF60:
 3933 03b3 6D5F6F77 		.ascii	"m_owner\000"
 3933      6E657200 
 3934              	.LASF26:
 3935 03bb 705F6374 		.ascii	"p_ctx\000"
 3935      7800
 3936              	.LASF35:
 3937 03c1 705F7761 		.ascii	"p_waiting\000"
 3937      6974696E 
 3937      6700
 3938              	.LASF69:
 3939 03cb 63685365 		.ascii	"chSemInit\000"
 3939      6D496E69 
 3939      7400
 3940              		.ident	"GCC: (GNU) 4.7.2"
ARM GAS  /var/folders/dt/0wfd0knj7gs46m8vwfzktm600000gn/T//ccGzbHF2.s 			page 74


DEFINED SYMBOLS
                            *ABS*:0000000000000000 chsem.c
/var/folders/dt/0wfd0knj7gs46m8vwfzktm600000gn/T//ccGzbHF2.s:19     .text.chSemInit:0000000000000000 $t
/var/folders/dt/0wfd0knj7gs46m8vwfzktm600000gn/T//ccGzbHF2.s:25     .text.chSemInit:0000000000000000 chSemInit
/var/folders/dt/0wfd0knj7gs46m8vwfzktm600000gn/T//ccGzbHF2.s:44     .text.chSemResetI:0000000000000000 $t
/var/folders/dt/0wfd0knj7gs46m8vwfzktm600000gn/T//ccGzbHF2.s:50     .text.chSemResetI:0000000000000000 chSemResetI
/var/folders/dt/0wfd0knj7gs46m8vwfzktm600000gn/T//ccGzbHF2.s:118    .text.chSemReset:0000000000000000 $t
/var/folders/dt/0wfd0knj7gs46m8vwfzktm600000gn/T//ccGzbHF2.s:124    .text.chSemReset:0000000000000000 chSemReset
/var/folders/dt/0wfd0knj7gs46m8vwfzktm600000gn/T//ccGzbHF2.s:167    .text.chSemWaitS:0000000000000000 $t
/var/folders/dt/0wfd0knj7gs46m8vwfzktm600000gn/T//ccGzbHF2.s:173    .text.chSemWaitS:0000000000000000 chSemWaitS
/var/folders/dt/0wfd0knj7gs46m8vwfzktm600000gn/T//ccGzbHF2.s:235    .text.chSemWaitS:0000000000000030 $d
/var/folders/dt/0wfd0knj7gs46m8vwfzktm600000gn/T//ccGzbHF2.s:240    .text.chSemWait:0000000000000000 $t
/var/folders/dt/0wfd0knj7gs46m8vwfzktm600000gn/T//ccGzbHF2.s:246    .text.chSemWait:0000000000000000 chSemWait
/var/folders/dt/0wfd0knj7gs46m8vwfzktm600000gn/T//ccGzbHF2.s:287    .text.chSemWaitTimeoutS:0000000000000000 $t
/var/folders/dt/0wfd0knj7gs46m8vwfzktm600000gn/T//ccGzbHF2.s:293    .text.chSemWaitTimeoutS:0000000000000000 chSemWaitTimeoutS
/var/folders/dt/0wfd0knj7gs46m8vwfzktm600000gn/T//ccGzbHF2.s:359    .text.chSemWaitTimeoutS:0000000000000038 $d
/var/folders/dt/0wfd0knj7gs46m8vwfzktm600000gn/T//ccGzbHF2.s:364    .text.chSemWaitTimeout:0000000000000000 $t
/var/folders/dt/0wfd0knj7gs46m8vwfzktm600000gn/T//ccGzbHF2.s:370    .text.chSemWaitTimeout:0000000000000000 chSemWaitTimeout
/var/folders/dt/0wfd0knj7gs46m8vwfzktm600000gn/T//ccGzbHF2.s:411    .text.chSemSignal:0000000000000000 $t
/var/folders/dt/0wfd0knj7gs46m8vwfzktm600000gn/T//ccGzbHF2.s:417    .text.chSemSignal:0000000000000000 chSemSignal
/var/folders/dt/0wfd0knj7gs46m8vwfzktm600000gn/T//ccGzbHF2.s:488    .text.chSemSignalI:0000000000000000 $t
/var/folders/dt/0wfd0knj7gs46m8vwfzktm600000gn/T//ccGzbHF2.s:494    .text.chSemSignalI:0000000000000000 chSemSignalI
/var/folders/dt/0wfd0knj7gs46m8vwfzktm600000gn/T//ccGzbHF2.s:549    .text.chSemAddCounterI:0000000000000000 $t
/var/folders/dt/0wfd0knj7gs46m8vwfzktm600000gn/T//ccGzbHF2.s:555    .text.chSemAddCounterI:0000000000000000 chSemAddCounterI
/var/folders/dt/0wfd0knj7gs46m8vwfzktm600000gn/T//ccGzbHF2.s:620    .text.chSemSignalWait:0000000000000000 $t
/var/folders/dt/0wfd0knj7gs46m8vwfzktm600000gn/T//ccGzbHF2.s:626    .text.chSemSignalWait:0000000000000000 chSemSignalWait
/var/folders/dt/0wfd0knj7gs46m8vwfzktm600000gn/T//ccGzbHF2.s:746    .text.chSemSignalWait:0000000000000060 $d
                     .debug_frame:0000000000000010 $d
/var/folders/dt/0wfd0knj7gs46m8vwfzktm600000gn/T//ccGzbHF2.s:239    .text.chSemWaitS:0000000000000034 $t
/var/folders/dt/0wfd0knj7gs46m8vwfzktm600000gn/T//ccGzbHF2.s:363    .text.chSemWaitTimeoutS:000000000000003c $t
/var/folders/dt/0wfd0knj7gs46m8vwfzktm600000gn/T//ccGzbHF2.s:750    .text.chSemSignalWait:0000000000000064 $t

UNDEFINED SYMBOLS
chSchReadyI
chSchRescheduleS
chSchGoSleepS
rlist
chSchGoSleepTimeoutS
chSchWakeupS
