ARM GAS  /var/folders/dt/0wfd0knj7gs46m8vwfzktm600000gn/T//ccGzbHF2.s 			page 1


   1              		.syntax unified
   2              		.cpu cortex-m3
   3              		.fpu softvfp
   4              		.eabi_attribute 20, 1
   5              		.eabi_attribute 21, 1
   6              		.eabi_attribute 23, 3
   7              		.eabi_attribute 24, 1
   8              		.eabi_attribute 25, 1
   9              		.eabi_attribute 26, 1
  10              		.eabi_attribute 30, 2
  11              		.eabi_attribute 34, 1
  12              		.eabi_attribute 18, 4
  13              		.thumb
  14              		.file	"chsem.c"
  15              		.text
  16              	.Ltext0:
  17              		.cfi_sections	.debug_frame
  18              		.section	.text.chSemInit,"ax",%progbits
  19              		.align	2
  20              		.p2align 4,,15
  21              		.global	chSemInit
  22              		.thumb
  23              		.thumb_func
  24              		.type	chSemInit, %function
  25              	chSemInit:
  26              	.LFB7:
  27              		.file 1 "../../os/kernel/src/chsem.c"
  28              		.loc 1 86 0
  29              		.cfi_startproc
  30              		@ args = 0, pretend = 0, frame = 0
  31              		@ frame_needed = 0, uses_anonymous_args = 0
  32              		@ link register save eliminated.
  33              	.LVL0:
  34              		.loc 1 90 0
  35 0000 4060     		str	r0, [r0, #4]
  36 0002 0060     		str	r0, [r0, #0]
  37              		.loc 1 91 0
  38 0004 8160     		str	r1, [r0, #8]
  39 0006 7047     		bx	lr
  40              		.cfi_endproc
  41              	.LFE7:
  42              		.size	chSemInit, .-chSemInit
  43 0008 AFF30080 		.section	.text.chSemResetI,"ax",%progbits
  43      AFF30080 
  44              		.align	2
  45              		.p2align 4,,15
  46              		.global	chSemResetI
  47              		.thumb
  48              		.thumb_func
  49              		.type	chSemResetI, %function
  50              	chSemResetI:
  51              	.LFB9:
  52              		.loc 1 136 0
  53              		.cfi_startproc
  54              		@ args = 0, pretend = 0, frame = 0
  55              		@ frame_needed = 0, uses_anonymous_args = 0
  56              	.LVL1:
ARM GAS  /var/folders/dt/0wfd0knj7gs46m8vwfzktm600000gn/T//ccGzbHF2.s 			page 2


  57 0000 70B5     		push	{r4, r5, r6, lr}
  58              	.LCFI0:
  59              		.cfi_def_cfa_offset 16
  60              		.cfi_offset 4, -16
  61              		.cfi_offset 5, -12
  62              		.cfi_offset 6, -8
  63              		.cfi_offset 14, -4
  64              		.loc 1 141 0
  65 0002 8568     		ldr	r5, [r0, #8]
  66              	.LVL2:
  67              		.loc 1 136 0
  68 0004 0446     		mov	r4, r0
  69              		.loc 1 148 0
  70 0006 0135     		adds	r5, r5, #1
  71              	.LVL3:
  72 0008 002D     		cmp	r5, #0
  73              		.loc 1 147 0
  74 000a 8160     		str	r1, [r0, #8]
  75              	.LVL4:
  76              		.loc 1 148 0
  77 000c 0BDC     		bgt	.L2
  78              		.loc 1 149 0
  79 000e 6FF00106 		mvn	r6, #1
  80              	.LVL5:
  81              	.L6:
  82              	.LBB24:
  83              	.LBB25:
  84              		.file 2 "../../os/kernel/include/chinline.h"
  85              		.loc 2 67 0
  86 0012 6068     		ldr	r0, [r4, #4]
  87              	.LVL6:
  88              	.LBE25:
  89              	.LBE24:
  90              		.loc 1 148 0
  91 0014 0135     		adds	r5, r5, #1
  92              	.LVL7:
  93              	.LBB27:
  94              	.LBB26:
  95              		.loc 2 69 0
  96 0016 4368     		ldr	r3, [r0, #4]
  97 0018 6360     		str	r3, [r4, #4]
  98 001a 1C60     		str	r4, [r3, #0]
  99              	.LBE26:
 100              	.LBE27:
 101              		.loc 1 149 0
 102 001c FFF7FEFF 		bl	chSchReadyI
 103              	.LVL8:
 104              		.loc 1 148 0
 105 0020 012D     		cmp	r5, #1
 106              		.loc 1 149 0
 107 0022 4662     		str	r6, [r0, #36]
 108              	.LVL9:
 109              		.loc 1 148 0
 110 0024 F5D1     		bne	.L6
 111              	.LVL10:
 112              	.L2:
 113 0026 70BD     		pop	{r4, r5, r6, pc}
ARM GAS  /var/folders/dt/0wfd0knj7gs46m8vwfzktm600000gn/T//ccGzbHF2.s 			page 3


 114              		.cfi_endproc
 115              	.LFE9:
 116              		.size	chSemResetI, .-chSemResetI
 117 0028 AFF30080 		.section	.text.chSemReset,"ax",%progbits
 117      AFF30080 
 118              		.align	2
 119              		.p2align 4,,15
 120              		.global	chSemReset
 121              		.thumb
 122              		.thumb_func
 123              		.type	chSemReset, %function
 124              	chSemReset:
 125              	.LFB8:
 126              		.loc 1 109 0
 127              		.cfi_startproc
 128              		@ args = 0, pretend = 0, frame = 0
 129              		@ frame_needed = 0, uses_anonymous_args = 0
 130              	.LVL11:
 131 0000 08B5     		push	{r3, lr}
 132              	.LCFI1:
 133              		.cfi_def_cfa_offset 8
 134              		.cfi_offset 3, -8
 135              		.cfi_offset 14, -4
 136              	.LBB28:
 137              		.loc 1 111 0
 138 0002 2023     		movs	r3, #32
 139              	.LVL12:
 140              	@ 111 "../../os/kernel/src/chsem.c" 1
 141 0004 83F31188 		msr     BASEPRI, r3
 142              	@ 0 "" 2
 143              	.LVL13:
 144              		.thumb
 145              	.LBE28:
 146              		.loc 1 112 0
 147 0008 FFF7FEFF 		bl	chSemResetI
 148              	.LVL14:
 149              		.loc 1 113 0
 150 000c FFF7FEFF 		bl	chSchRescheduleS
 151              	.LVL15:
 152              	.LBB29:
 153              		.loc 1 114 0
 154 0010 0023     		movs	r3, #0
 155              	.LVL16:
 156              	@ 114 "../../os/kernel/src/chsem.c" 1
 157 0012 83F31188 		msr     BASEPRI, r3
 158              	@ 0 "" 2
 159              	.LVL17:
 160              		.thumb
 161 0016 08BD     		pop	{r3, pc}
 162              	.LBE29:
 163              		.cfi_endproc
 164              	.LFE8:
 165              		.size	chSemReset, .-chSemReset
 166 0018 AFF30080 		.section	.text.chSemWaitS,"ax",%progbits
 166      AFF30080 
 167              		.align	2
 168              		.p2align 4,,15
ARM GAS  /var/folders/dt/0wfd0knj7gs46m8vwfzktm600000gn/T//ccGzbHF2.s 			page 4


 169              		.global	chSemWaitS
 170              		.thumb
 171              		.thumb_func
 172              		.type	chSemWaitS, %function
 173              	chSemWaitS:
 174              	.LFB11:
 175              		.loc 1 185 0
 176              		.cfi_startproc
 177              		@ args = 0, pretend = 0, frame = 0
 178              		@ frame_needed = 0, uses_anonymous_args = 0
 179              	.LVL18:
 180              		.loc 1 194 0
 181 0000 8268     		ldr	r2, [r0, #8]
 182              		.loc 1 185 0
 183 0002 10B5     		push	{r4, lr}
 184              	.LCFI2:
 185              		.cfi_def_cfa_offset 8
 186              		.cfi_offset 4, -8
 187              		.cfi_offset 14, -4
 188              		.loc 1 194 0
 189 0004 013A     		subs	r2, r2, #1
 190 0006 002A     		cmp	r2, #0
 191              		.loc 1 185 0
 192 0008 0346     		mov	r3, r0
 193              		.loc 1 194 0
 194 000a 8260     		str	r2, [r0, #8]
 195 000c 01DB     		blt	.L13
 196              		.loc 1 200 0
 197 000e 0020     		movs	r0, #0
 198              	.LVL19:
 199              		.loc 1 201 0
 200 0010 10BD     		pop	{r4, pc}
 201              	.LVL20:
 202              	.L13:
 203              		.loc 1 195 0
 204 0012 074C     		ldr	r4, .L14
 205              		.loc 1 197 0
 206 0014 0320     		movs	r0, #3
 207              	.LVL21:
 208              		.loc 1 195 0
 209 0016 A269     		ldr	r2, [r4, #24]
 210 0018 5362     		str	r3, [r2, #36]
 211              	.LVL22:
 212              	.LBB30:
 213              	.LBB31:
 214              		.loc 2 55 0
 215 001a 5968     		ldr	r1, [r3, #4]
 216              		.loc 2 54 0
 217 001c 1360     		str	r3, [r2, #0]
 218              		.loc 2 55 0
 219 001e 5160     		str	r1, [r2, #4]
 220              		.loc 2 56 0
 221 0020 5A60     		str	r2, [r3, #4]
 222 0022 0A60     		str	r2, [r1, #0]
 223              	.LBE31:
 224              	.LBE30:
 225              		.loc 1 197 0
ARM GAS  /var/folders/dt/0wfd0knj7gs46m8vwfzktm600000gn/T//ccGzbHF2.s 			page 5


 226 0024 FFF7FEFF 		bl	chSchGoSleepS
 227              	.LVL23:
 228              		.loc 1 198 0
 229 0028 A369     		ldr	r3, [r4, #24]
 230 002a 586A     		ldr	r0, [r3, #36]
 231 002c 10BD     		pop	{r4, pc}
 232              	.L15:
 233 002e 00BF     		.align	2
 234              	.L14:
 235 0030 00000000 		.word	rlist
 236              		.cfi_endproc
 237              	.LFE11:
 238              		.size	chSemWaitS, .-chSemWaitS
 239 0034 AFF30080 		.section	.text.chSemWait,"ax",%progbits
 239      AFF30080 
 239      AFF30080 
 240              		.align	2
 241              		.p2align 4,,15
 242              		.global	chSemWait
 243              		.thumb
 244              		.thumb_func
 245              		.type	chSemWait, %function
 246              	chSemWait:
 247              	.LFB10:
 248              		.loc 1 164 0
 249              		.cfi_startproc
 250              		@ args = 0, pretend = 0, frame = 0
 251              		@ frame_needed = 0, uses_anonymous_args = 0
 252              	.LVL24:
 253 0000 08B5     		push	{r3, lr}
 254              	.LCFI3:
 255              		.cfi_def_cfa_offset 8
 256              		.cfi_offset 3, -8
 257              		.cfi_offset 14, -4
 258              	.LBB32:
 259              		.loc 1 167 0
 260 0002 2023     		movs	r3, #32
 261              	.LVL25:
 262              	@ 167 "../../os/kernel/src/chsem.c" 1
 263 0004 83F31188 		msr     BASEPRI, r3
 264              	@ 0 "" 2
 265              	.LVL26:
 266              		.thumb
 267              	.LBE32:
 268              		.loc 1 168 0
 269 0008 FFF7FEFF 		bl	chSemWaitS
 270              	.LVL27:
 271              	.LBB33:
 272              		.loc 1 169 0
 273 000c 0023     		movs	r3, #0
 274              	.LVL28:
 275              	@ 169 "../../os/kernel/src/chsem.c" 1
 276 000e 83F31188 		msr     BASEPRI, r3
 277              	@ 0 "" 2
 278              	.LVL29:
 279              		.thumb
 280              	.LBE33:
ARM GAS  /var/folders/dt/0wfd0knj7gs46m8vwfzktm600000gn/T//ccGzbHF2.s 			page 6


 281              		.loc 1 171 0
 282 0012 08BD     		pop	{r3, pc}
 283              		.cfi_endproc
 284              	.LFE10:
 285              		.size	chSemWait, .-chSemWait
 286 0014 AFF30080 		.section	.text.chSemWaitTimeoutS,"ax",%progbits
 286      AFF30080 
 286      AFF30080 
 287              		.align	2
 288              		.p2align 4,,15
 289              		.global	chSemWaitTimeoutS
 290              		.thumb
 291              		.thumb_func
 292              		.type	chSemWaitTimeoutS, %function
 293              	chSemWaitTimeoutS:
 294              	.LFB13:
 295              		.loc 1 250 0
 296              		.cfi_startproc
 297              		@ args = 0, pretend = 0, frame = 0
 298              		@ frame_needed = 0, uses_anonymous_args = 0
 299              		@ link register save eliminated.
 300              	.LVL30:
 301 0000 0346     		mov	r3, r0
 302              		.loc 1 254 0
 303 0002 8068     		ldr	r0, [r0, #8]
 304              	.LVL31:
 305              		.loc 1 250 0
 306 0004 10B4     		push	{r4}
 307              	.LCFI4:
 308              		.cfi_def_cfa_offset 4
 309              		.cfi_offset 4, -4
 310              		.loc 1 259 0
 311 0006 421E     		subs	r2, r0, #1
 312 0008 002A     		cmp	r2, #0
 313              		.loc 1 250 0
 314 000a 0C46     		mov	r4, r1
 315              		.loc 1 259 0
 316 000c 9A60     		str	r2, [r3, #8]
 317 000e 02DB     		blt	.L21
 318              		.loc 1 268 0
 319 0010 0020     		movs	r0, #0
 320              	.L18:
 321              		.loc 1 269 0
 322 0012 10BC     		pop	{r4}
 323 0014 7047     		bx	lr
 324              	.L21:
 325              		.loc 1 260 0
 326 0016 59B1     		cbz	r1, .L22
 327              		.loc 1 264 0
 328 0018 074A     		ldr	r2, .L23
 329              		.loc 1 266 0
 330 001a 0320     		movs	r0, #3
 331              		.loc 1 264 0
 332 001c 9269     		ldr	r2, [r2, #24]
 333 001e 5362     		str	r3, [r2, #36]
 334              	.LVL32:
 335              	.LBB34:
ARM GAS  /var/folders/dt/0wfd0knj7gs46m8vwfzktm600000gn/T//ccGzbHF2.s 			page 7


 336              	.LBB35:
 337              		.loc 2 55 0
 338 0020 5C68     		ldr	r4, [r3, #4]
 339 0022 82E81800 		stmia	r2, {r3, r4}
 340              		.loc 2 56 0
 341 0026 5A60     		str	r2, [r3, #4]
 342 0028 2260     		str	r2, [r4, #0]
 343              	.LBE35:
 344              	.LBE34:
 345              		.loc 1 269 0
 346 002a 10BC     		pop	{r4}
 347              		.loc 1 266 0
 348 002c FFF7FEBF 		b	chSchGoSleepTimeoutS
 349              	.LVL33:
 350              	.L22:
 351              		.loc 1 261 0
 352 0030 9860     		str	r0, [r3, #8]
 353              		.loc 1 262 0
 354 0032 4FF0FF30 		mov	r0, #-1
 355 0036 ECE7     		b	.L18
 356              	.L24:
 357              		.align	2
 358              	.L23:
 359 0038 00000000 		.word	rlist
 360              		.cfi_endproc
 361              	.LFE13:
 362              		.size	chSemWaitTimeoutS, .-chSemWaitTimeoutS
 363 003c AFF30080 		.section	.text.chSemWaitTimeout,"ax",%progbits
 364              		.align	2
 365              		.p2align 4,,15
 366              		.global	chSemWaitTimeout
 367              		.thumb
 368              		.thumb_func
 369              		.type	chSemWaitTimeout, %function
 370              	chSemWaitTimeout:
 371              	.LFB12:
 372              		.loc 1 222 0
 373              		.cfi_startproc
 374              		@ args = 0, pretend = 0, frame = 0
 375              		@ frame_needed = 0, uses_anonymous_args = 0
 376              	.LVL34:
 377 0000 08B5     		push	{r3, lr}
 378              	.LCFI5:
 379              		.cfi_def_cfa_offset 8
 380              		.cfi_offset 3, -8
 381              		.cfi_offset 14, -4
 382              	.LBB36:
 383              		.loc 1 225 0
 384 0002 2023     		movs	r3, #32
 385              	.LVL35:
 386              	@ 225 "../../os/kernel/src/chsem.c" 1
 387 0004 83F31188 		msr     BASEPRI, r3
 388              	@ 0 "" 2
 389              	.LVL36:
 390              		.thumb
 391              	.LBE36:
 392              		.loc 1 226 0
ARM GAS  /var/folders/dt/0wfd0knj7gs46m8vwfzktm600000gn/T//ccGzbHF2.s 			page 8


 393 0008 FFF7FEFF 		bl	chSemWaitTimeoutS
 394              	.LVL37:
 395              	.LBB37:
 396              		.loc 1 227 0
 397 000c 0023     		movs	r3, #0
 398              	.LVL38:
 399              	@ 227 "../../os/kernel/src/chsem.c" 1
 400 000e 83F31188 		msr     BASEPRI, r3
 401              	@ 0 "" 2
 402              	.LVL39:
 403              		.thumb
 404              	.LBE37:
 405              		.loc 1 229 0
 406 0012 08BD     		pop	{r3, pc}
 407              		.cfi_endproc
 408              	.LFE12:
 409              		.size	chSemWaitTimeout, .-chSemWaitTimeout
 410 0014 AFF30080 		.section	.text.chSemSignal,"ax",%progbits
 410      AFF30080 
 410      AFF30080 
 411              		.align	2
 412              		.p2align 4,,15
 413              		.global	chSemSignal
 414              		.thumb
 415              		.thumb_func
 416              		.type	chSemSignal, %function
 417              	chSemSignal:
 418              	.LFB14:
 419              		.loc 1 278 0
 420              		.cfi_startproc
 421              		@ args = 0, pretend = 0, frame = 0
 422              		@ frame_needed = 0, uses_anonymous_args = 0
 423              	.LVL40:
 424 0000 08B5     		push	{r3, lr}
 425              	.LCFI6:
 426              		.cfi_def_cfa_offset 8
 427              		.cfi_offset 3, -8
 428              		.cfi_offset 14, -4
 429              		.loc 1 278 0
 430 0002 0246     		mov	r2, r0
 431              	.LBB38:
 432              		.loc 1 286 0
 433 0004 2023     		movs	r3, #32
 434              	.LVL41:
 435              	@ 286 "../../os/kernel/src/chsem.c" 1
 436 0006 83F31188 		msr     BASEPRI, r3
 437              	@ 0 "" 2
 438              	.LVL42:
 439              		.thumb
 440              	.LBE38:
 441              		.loc 1 287 0
 442 000a 8368     		ldr	r3, [r0, #8]
 443              	.LVL43:
 444 000c 0133     		adds	r3, r3, #1
 445 000e 002B     		cmp	r3, #0
 446 0010 8360     		str	r3, [r0, #8]
 447 0012 03DD     		ble	.L28
ARM GAS  /var/folders/dt/0wfd0knj7gs46m8vwfzktm600000gn/T//ccGzbHF2.s 			page 9


 448              	.LVL44:
 449              	.L27:
 450              	.LBB39:
 451              		.loc 1 289 0
 452 0014 0023     		movs	r3, #0
 453              	.LVL45:
 454              	@ 289 "../../os/kernel/src/chsem.c" 1
 455 0016 83F31188 		msr     BASEPRI, r3
 456              	@ 0 "" 2
 457              	.LVL46:
 458              		.thumb
 459 001a 08BD     		pop	{r3, pc}
 460              	.LVL47:
 461              	.L28:
 462              	.LBE39:
 463              	.LBB40:
 464              	.LBB41:
 465              		.loc 2 60 0
 466 001c 0068     		ldr	r0, [r0, #0]
 467              	.LVL48:
 468              	.LBE41:
 469              	.LBE40:
 470              		.loc 1 288 0
 471 001e 0021     		movs	r1, #0
 472              	.LBB43:
 473              	.LBB42:
 474              		.loc 2 62 0
 475 0020 0368     		ldr	r3, [r0, #0]
 476 0022 1360     		str	r3, [r2, #0]
 477 0024 5A60     		str	r2, [r3, #4]
 478              	.LBE42:
 479              	.LBE43:
 480              		.loc 1 288 0
 481 0026 FFF7FEFF 		bl	chSchWakeupS
 482              	.LVL49:
 483 002a F3E7     		b	.L27
 484              		.cfi_endproc
 485              	.LFE14:
 486              		.size	chSemSignal, .-chSemSignal
 487 002c AFF30080 		.section	.text.chSemSignalI,"ax",%progbits
 488              		.align	2
 489              		.p2align 4,,15
 490              		.global	chSemSignalI
 491              		.thumb
 492              		.thumb_func
 493              		.type	chSemSignalI, %function
 494              	chSemSignalI:
 495              	.LFB15:
 496              		.loc 1 303 0
 497              		.cfi_startproc
 498              		@ args = 0, pretend = 0, frame = 0
 499              		@ frame_needed = 0, uses_anonymous_args = 0
 500              		@ link register save eliminated.
 501              	.LVL50:
 502              		.loc 1 312 0
 503 0000 8268     		ldr	r2, [r0, #8]
 504              		.loc 1 303 0
ARM GAS  /var/folders/dt/0wfd0knj7gs46m8vwfzktm600000gn/T//ccGzbHF2.s 			page 10


 505 0002 0346     		mov	r3, r0
 506              		.loc 1 312 0
 507 0004 0132     		adds	r2, r2, #1
 508 0006 002A     		cmp	r2, #0
 509 0008 8260     		str	r2, [r0, #8]
 510 000a 00DD     		ble	.L31
 511 000c 7047     		bx	lr
 512              	.L31:
 513              	.LVL51:
 514              	.LBB44:
 515              	.LBB45:
 516              	.LBB46:
 517              		.loc 2 60 0
 518 000e 0268     		ldr	r2, [r0, #0]
 519              	.LVL52:
 520              		.loc 2 62 0
 521 0010 1168     		ldr	r1, [r2, #0]
 522              	.LBE46:
 523              	.LBE45:
 524              		.loc 1 317 0
 525 0012 1046     		mov	r0, r2
 526              	.LVL53:
 527              	.LBB48:
 528              	.LBB47:
 529              		.loc 2 62 0
 530 0014 1960     		str	r1, [r3, #0]
 531 0016 4B60     		str	r3, [r1, #4]
 532              	.LBE47:
 533              	.LBE48:
 534              		.loc 1 316 0
 535 0018 0023     		movs	r3, #0
 536              	.LVL54:
 537 001a 5362     		str	r3, [r2, #36]
 538              	.LBE44:
 539              		.loc 1 319 0
 540              	.LBB49:
 541              		.loc 1 317 0
 542 001c FFF7FEBF 		b	chSchReadyI
 543              	.LVL55:
 544              	.LBE49:
 545              		.cfi_endproc
 546              	.LFE15:
 547              		.size	chSemSignalI, .-chSemSignalI
 548              		.section	.text.chSemAddCounterI,"ax",%progbits
 549              		.align	2
 550              		.p2align 4,,15
 551              		.global	chSemAddCounterI
 552              		.thumb
 553              		.thumb_func
 554              		.type	chSemAddCounterI, %function
 555              	chSemAddCounterI:
 556              	.LFB16:
 557              		.loc 1 334 0
 558              		.cfi_startproc
 559              		@ args = 0, pretend = 0, frame = 0
 560              		@ frame_needed = 0, uses_anonymous_args = 0
 561              	.LVL56:
ARM GAS  /var/folders/dt/0wfd0knj7gs46m8vwfzktm600000gn/T//ccGzbHF2.s 			page 11


 562 0000 70B5     		push	{r4, r5, r6, lr}
 563              	.LCFI7:
 564              		.cfi_def_cfa_offset 16
 565              		.cfi_offset 4, -16
 566              		.cfi_offset 5, -12
 567              		.cfi_offset 6, -8
 568              		.cfi_offset 14, -4
 569              		.loc 1 343 0
 570 0002 0C1E     		subs	r4, r1, #0
 571              		.loc 1 334 0
 572 0004 0546     		mov	r5, r0
 573              		.loc 1 343 0
 574 0006 11DD     		ble	.L32
 575              		.loc 1 345 0
 576 0008 0026     		movs	r6, #0
 577 000a 01E0     		b	.L37
 578              	.LVL57:
 579              	.L34:
 580              		.loc 1 343 0
 581 000c 013C     		subs	r4, r4, #1
 582              	.LVL58:
 583 000e 0DD0     		beq	.L32
 584              	.LVL59:
 585              	.L37:
 586              		.loc 1 344 0
 587 0010 AB68     		ldr	r3, [r5, #8]
 588 0012 0133     		adds	r3, r3, #1
 589 0014 002B     		cmp	r3, #0
 590 0016 AB60     		str	r3, [r5, #8]
 591 0018 F8DC     		bgt	.L34
 592              	.LVL60:
 593              	.LBB50:
 594              	.LBB51:
 595              		.loc 2 60 0
 596 001a 2868     		ldr	r0, [r5, #0]
 597              	.LVL61:
 598              		.loc 2 62 0
 599 001c 0368     		ldr	r3, [r0, #0]
 600 001e 2B60     		str	r3, [r5, #0]
 601 0020 5D60     		str	r5, [r3, #4]
 602              	.LBE51:
 603              	.LBE50:
 604              		.loc 1 345 0
 605 0022 FFF7FEFF 		bl	chSchReadyI
 606              	.LVL62:
 607              		.loc 1 343 0
 608 0026 013C     		subs	r4, r4, #1
 609              		.loc 1 345 0
 610 0028 4662     		str	r6, [r0, #36]
 611              		.loc 1 343 0
 612 002a F1D1     		bne	.L37
 613              	.LVL63:
 614              	.L32:
 615 002c 70BD     		pop	{r4, r5, r6, pc}
 616              		.cfi_endproc
 617              	.LFE16:
 618              		.size	chSemAddCounterI, .-chSemAddCounterI
ARM GAS  /var/folders/dt/0wfd0knj7gs46m8vwfzktm600000gn/T//ccGzbHF2.s 			page 12


 619 002e 00BF     		.section	.text.chSemSignalWait,"ax",%progbits
 620              		.align	2
 621              		.p2align 4,,15
 622              		.global	chSemSignalWait
 623              		.thumb
 624              		.thumb_func
 625              		.type	chSemSignalWait, %function
 626              	chSemSignalWait:
 627              	.LFB17:
 628              		.loc 1 366 0
 629              		.cfi_startproc
 630              		@ args = 0, pretend = 0, frame = 8
 631              		@ frame_needed = 0, uses_anonymous_args = 0
 632              	.LVL64:
 633 0000 10B5     		push	{r4, lr}
 634              	.LCFI8:
 635              		.cfi_def_cfa_offset 8
 636              		.cfi_offset 4, -8
 637              		.cfi_offset 14, -4
 638 0002 0246     		mov	r2, r0
 639 0004 82B0     		sub	sp, sp, #8
 640              	.LCFI9:
 641              		.cfi_def_cfa_offset 16
 642              	.LBB52:
 643              		.loc 1 379 0
 644 0006 2023     		movs	r3, #32
 645              	.LVL65:
 646              	@ 379 "../../os/kernel/src/chsem.c" 1
 647 0008 83F31188 		msr     BASEPRI, r3
 648              	@ 0 "" 2
 649              	.LVL66:
 650              		.thumb
 651              	.LBE52:
 652              		.loc 1 380 0
 653 000c 8368     		ldr	r3, [r0, #8]
 654              	.LVL67:
 655 000e 0133     		adds	r3, r3, #1
 656 0010 002B     		cmp	r3, #0
 657 0012 8360     		str	r3, [r0, #8]
 658 0014 19DD     		ble	.L43
 659              	.LVL68:
 660              	.L40:
 661              		.loc 1 382 0
 662 0016 8B68     		ldr	r3, [r1, #8]
 663 0018 013B     		subs	r3, r3, #1
 664 001a 002B     		cmp	r3, #0
 665 001c 8B60     		str	r3, [r1, #8]
 666 001e 07DB     		blt	.L44
 667              		.loc 1 390 0
 668 0020 FFF7FEFF 		bl	chSchRescheduleS
 669              	.LVL69:
 670              		.loc 1 391 0
 671 0024 0020     		movs	r0, #0
 672              	.LVL70:
 673              	.L42:
 674              	.LBB53:
 675              		.loc 1 393 0
ARM GAS  /var/folders/dt/0wfd0knj7gs46m8vwfzktm600000gn/T//ccGzbHF2.s 			page 13


 676 0026 0023     		movs	r3, #0
 677              	.LVL71:
 678              	@ 393 "../../os/kernel/src/chsem.c" 1
 679 0028 83F31188 		msr     BASEPRI, r3
 680              	@ 0 "" 2
 681              	.LVL72:
 682              		.thumb
 683              	.LBE53:
 684              		.loc 1 395 0
 685 002c 02B0     		add	sp, sp, #8
 686 002e 10BD     		pop	{r4, pc}
 687              	.LVL73:
 688              	.L44:
 689              	.LBB54:
 690              		.loc 1 383 0
 691 0030 0B4A     		ldr	r2, .L45
 692              	.LBB55:
 693              	.LBB56:
 694              		.loc 2 55 0
 695 0032 4B68     		ldr	r3, [r1, #4]
 696              	.LBE56:
 697              	.LBE55:
 698              		.loc 1 383 0
 699 0034 9469     		ldr	r4, [r2, #24]
 700              	.LVL74:
 701              		.loc 1 386 0
 702 0036 0320     		movs	r0, #3
 703              	.LBB58:
 704              	.LBB57:
 705              		.loc 2 55 0
 706 0038 84E80A00 		stmia	r4, {r1, r3}
 707              		.loc 2 56 0
 708 003c 4C60     		str	r4, [r1, #4]
 709 003e 1C60     		str	r4, [r3, #0]
 710              	.LBE57:
 711              	.LBE58:
 712              		.loc 1 385 0
 713 0040 6162     		str	r1, [r4, #36]
 714              		.loc 1 386 0
 715 0042 FFF7FEFF 		bl	chSchGoSleepS
 716              	.LVL75:
 717              		.loc 1 387 0
 718 0046 606A     		ldr	r0, [r4, #36]
 719              	.LVL76:
 720 0048 EDE7     		b	.L42
 721              	.LVL77:
 722              	.L43:
 723              	.LBE54:
 724              	.LBB59:
 725              	.LBB60:
 726              		.loc 2 60 0
 727 004a 0068     		ldr	r0, [r0, #0]
 728              	.LVL78:
 729              		.loc 2 62 0
 730 004c 0368     		ldr	r3, [r0, #0]
 731 004e 1360     		str	r3, [r2, #0]
 732 0050 5A60     		str	r2, [r3, #4]
ARM GAS  /var/folders/dt/0wfd0knj7gs46m8vwfzktm600000gn/T//ccGzbHF2.s 			page 14


 733              	.LBE60:
 734              	.LBE59:
 735              		.loc 1 381 0
 736 0052 0191     		str	r1, [sp, #4]
 737 0054 FFF7FEFF 		bl	chSchReadyI
 738              	.LVL79:
 739 0058 0023     		movs	r3, #0
 740 005a 4362     		str	r3, [r0, #36]
 741 005c 0199     		ldr	r1, [sp, #4]
 742 005e DAE7     		b	.L40
 743              	.L46:
 744              		.align	2
 745              	.L45:
 746 0060 00000000 		.word	rlist
 747              		.cfi_endproc
 748              	.LFE17:
 749              		.size	chSemSignalWait, .-chSemSignalWait
 750 0064 AFF30080 		.text
 750      AFF30080 
 750      AFF30080 
 751              	.Letext0:
 752              		.file 3 "/Users/toxygen/Applications/yagarto-4.7.2/bin/../lib/gcc/arm-none-eabi/4.7.2/../../../../
 753              		.file 4 "../../os/ports/GCC/ARMCMx/chtypes.h"
 754              		.file 5 "../../os/kernel/include/chlists.h"
 755              		.file 6 "../../os/kernel/include/chthreads.h"
 756              		.file 7 "../../os/ports/GCC/ARMCMx/chcore_v7m.h"
 757              		.file 8 "../../os/kernel/include/chschd.h"
 758              		.file 9 "../../os/kernel/include/chsem.h"
 759              		.file 10 "../../os/kernel/include/chmtx.h"