ARM GAS  /var/folders/dt/0wfd0knj7gs46m8vwfzktm600000gn/T//ccJimsz2.s 			page 1


   1              		.syntax unified
   2              		.cpu cortex-m3
   3              		.fpu softvfp
   4              		.eabi_attribute 20, 1
   5              		.eabi_attribute 21, 1
   6              		.eabi_attribute 23, 3
   7              		.eabi_attribute 24, 1
   8              		.eabi_attribute 25, 1
   9              		.eabi_attribute 26, 1
  10              		.eabi_attribute 30, 2
  11              		.eabi_attribute 34, 1
  12              		.eabi_attribute 18, 4
  13              		.thumb
  14              		.file	"chthreads.c"
  15              		.text
  16              	.Ltext0:
  17              		.cfi_sections	.debug_frame
  18              		.section	.text._thread_init,"ax",%progbits
  19              		.align	2
  20              		.p2align 4,,15
  21              		.global	_thread_init
  22              		.thumb
  23              		.thumb_func
  24              		.type	_thread_init, %function
  25              	_thread_init:
  26              	.LFB7:
  27              		.file 1 "../../os/kernel/src/chthreads.c"
  28              		.loc 1 76 0
  29              		.cfi_startproc
  30              		@ args = 0, pretend = 0, frame = 0
  31              		@ frame_needed = 0, uses_anonymous_args = 0
  32              		@ link register save eliminated.
  33              	.LVL0:
  34 0000 F0B4     		push	{r4, r5, r6, r7}
  35              	.LCFI0:
  36              		.cfi_def_cfa_offset 16
  37              		.cfi_offset 4, -16
  38              		.cfi_offset 5, -12
  39              		.cfi_offset 6, -8
  40              		.cfi_offset 7, -4
  41              		.loc 1 99 0
  42 0002 40F20004 		movw	r4, #:lower16:rlist
  43 0006 C0F20004 		movt	r4, #:upper16:rlist
  44 000a 6569     		ldr	r5, [r4, #20]
  45              		.loc 1 80 0
  46 000c 0022     		movs	r2, #0
  47              		.loc 1 99 0
  48 000e 0461     		str	r4, [r0, #16]
  49              		.loc 1 105 0
  50 0010 00F12C06 		add	r6, r0, #44
  51              		.loc 1 78 0
  52 0014 8160     		str	r1, [r0, #8]
  53              		.loc 1 102 0
  54 0016 00F12807 		add	r7, r0, #40
  55              		.loc 1 99 0
  56 001a 4561     		str	r5, [r0, #20]
  57              		.loc 1 79 0
ARM GAS  /var/folders/dt/0wfd0knj7gs46m8vwfzktm600000gn/T//ccJimsz2.s 			page 2


  58 001c 4FF0020C 		mov	ip, #2
  59              		.loc 1 99 0
  60 0020 6061     		str	r0, [r4, #20]
  61              		.loc 1 85 0
  62 0022 0164     		str	r1, [r0, #64]
  63              		.loc 1 82 0
  64 0024 1424     		movs	r4, #20
  65              		.loc 1 95 0
  66 0026 0121     		movs	r1, #1
  67              	.LVL1:
  68              		.loc 1 79 0
  69 0028 80F81CC0 		strb	ip, [r0, #28]
  70              		.loc 1 80 0
  71 002c 4277     		strb	r2, [r0, #29]
  72              		.loc 1 82 0
  73 002e C477     		strb	r4, [r0, #31]
  74              		.loc 1 86 0
  75 0030 C263     		str	r2, [r0, #60]
  76              		.loc 1 89 0
  77 0032 8263     		str	r2, [r0, #56]
  78              		.loc 1 92 0
  79 0034 0262     		str	r2, [r0, #32]
  80              		.loc 1 95 0
  81 0036 8177     		strb	r1, [r0, #30]
  82              		.loc 1 98 0
  83 0038 8261     		str	r2, [r0, #24]
  84              		.loc 1 99 0
  85 003a 2861     		str	r0, [r5, #16]
  86              		.loc 1 102 0
  87 003c 8762     		str	r7, [r0, #40]
  88              		.loc 1 105 0
  89 003e 0663     		str	r6, [r0, #48]
  90 0040 C662     		str	r6, [r0, #44]
  91              		.loc 1 114 0
  92 0042 F0BC     		pop	{r4, r5, r6, r7}
  93 0044 7047     		bx	lr
  94              		.cfi_endproc
  95              	.LFE7:
  96              		.size	_thread_init, .-_thread_init
  97 0046 00BFAFF3 		.section	.text.chThdCreateI,"ax",%progbits
  97      0080AFF3 
  97      0080
  98              		.align	2
  99              		.p2align 4,,15
 100              		.global	chThdCreateI
 101              		.thumb
 102              		.thumb_func
 103              		.type	chThdCreateI, %function
 104              	chThdCreateI:
 105              	.LFB8:
 106              		.loc 1 158 0
 107              		.cfi_startproc
 108              		@ args = 4, pretend = 0, frame = 0
 109              		@ frame_needed = 0, uses_anonymous_args = 0
 110              		@ link register save eliminated.
 111              	.LVL2:
 112 0000 2DE9F003 		push	{r4, r5, r6, r7, r8, r9}
ARM GAS  /var/folders/dt/0wfd0knj7gs46m8vwfzktm600000gn/T//ccJimsz2.s 			page 3


 113              	.LCFI1:
 114              		.cfi_def_cfa_offset 24
 115              		.cfi_offset 4, -24
 116              		.cfi_offset 5, -20
 117              		.cfi_offset 6, -16
 118              		.cfi_offset 7, -12
 119              		.cfi_offset 8, -8
 120              		.cfi_offset 9, -4
 121              		.loc 1 167 0
 122 0004 2439     		subs	r1, r1, #36
 123              	.LVL3:
 124              	.LBB10:
 125              	.LBB11:
 126              		.loc 1 99 0
 127 0006 40F20005 		movw	r5, #:lower16:rlist
 128 000a C0F20005 		movt	r5, #:upper16:rlist
 129              	.LBE11:
 130              	.LBE10:
 131              		.loc 1 167 0
 132 000e 4718     		adds	r7, r0, r1
 133              	.LBB17:
 134              	.LBB12:
 135              		.loc 1 99 0
 136 0010 D5F814C0 		ldr	ip, [r5, #20]
 137              	.LBE12:
 138              	.LBE17:
 139              		.loc 1 167 0
 140 0014 C760     		str	r7, [r0, #12]
 141 0016 4350     		str	r3, [r0, r1]
 142 0018 069B     		ldr	r3, [sp, #24]
 143              	.LVL4:
 144              	.LBB18:
 145              	.LBB13:
 146              		.loc 1 80 0
 147 001a 0026     		movs	r6, #0
 148              	.LBE13:
 149              	.LBE18:
 150              		.loc 1 167 0
 151 001c 7B60     		str	r3, [r7, #4]
 152 001e 40F20003 		movw	r3, #:lower16:_port_thread_start
 153 0022 C0F20003 		movt	r3, #:upper16:_port_thread_start
 154 0026 3B62     		str	r3, [r7, #32]
 155              	.LBB19:
 156              	.LBB14:
 157              		.loc 1 79 0
 158 0028 0223     		movs	r3, #2
 159 002a 0377     		strb	r3, [r0, #28]
 160              		.loc 1 82 0
 161 002c 1423     		movs	r3, #20
 162              	.LBE14:
 163              	.LBE19:
 164              		.loc 1 158 0
 165 002e 9046     		mov	r8, r2
 166              	.LBB20:
 167              	.LBB15:
 168              		.loc 1 102 0
 169 0030 00F12809 		add	r9, r0, #40
ARM GAS  /var/folders/dt/0wfd0knj7gs46m8vwfzktm600000gn/T//ccJimsz2.s 			page 4


 170              		.loc 1 105 0
 171 0034 00F12C02 		add	r2, r0, #44
 172              	.LVL5:
 173              		.loc 1 82 0
 174 0038 C377     		strb	r3, [r0, #31]
 175              		.loc 1 95 0
 176 003a 0123     		movs	r3, #1
 177              		.loc 1 99 0
 178 003c 0561     		str	r5, [r0, #16]
 179              		.loc 1 78 0
 180 003e C0F80880 		str	r8, [r0, #8]
 181              		.loc 1 99 0
 182 0042 C0F814C0 		str	ip, [r0, #20]
 183              	.LBE15:
 184              	.LBE20:
 185              		.loc 1 158 0
 186 0046 0446     		mov	r4, r0
 187              	.LVL6:
 188              	.LBB21:
 189              	.LBB16:
 190              		.loc 1 99 0
 191 0048 6861     		str	r0, [r5, #20]
 192              		.loc 1 80 0
 193 004a 4677     		strb	r6, [r0, #29]
 194              		.loc 1 85 0
 195 004c C0F84080 		str	r8, [r0, #64]
 196              		.loc 1 86 0
 197 0050 C663     		str	r6, [r0, #60]
 198              		.loc 1 89 0
 199 0052 8663     		str	r6, [r0, #56]
 200              		.loc 1 92 0
 201 0054 0662     		str	r6, [r0, #32]
 202              		.loc 1 95 0
 203 0056 8377     		strb	r3, [r0, #30]
 204              		.loc 1 98 0
 205 0058 8661     		str	r6, [r0, #24]
 206              		.loc 1 99 0
 207 005a CCF81000 		str	r0, [ip, #16]
 208              		.loc 1 102 0
 209 005e C0F82890 		str	r9, [r0, #40]
 210              		.loc 1 105 0
 211 0062 0263     		str	r2, [r0, #48]
 212 0064 C262     		str	r2, [r0, #44]
 213              	.LBE16:
 214              	.LBE21:
 215              		.loc 1 169 0
 216 0066 BDE8F003 		pop	{r4, r5, r6, r7, r8, r9}
 217 006a 7047     		bx	lr
 218              		.cfi_endproc
 219              	.LFE8:
 220              		.size	chThdCreateI, .-chThdCreateI
 221 006c AFF30080 		.section	.text.chThdCreateStatic,"ax",%progbits
 222              		.align	2
 223              		.p2align 4,,15
 224              		.global	chThdCreateStatic
 225              		.thumb
 226              		.thumb_func
ARM GAS  /var/folders/dt/0wfd0knj7gs46m8vwfzktm600000gn/T//ccJimsz2.s 			page 5


 227              		.type	chThdCreateStatic, %function
 228              	chThdCreateStatic:
 229              	.LFB9:
 230              		.loc 1 188 0
 231              		.cfi_startproc
 232              		@ args = 4, pretend = 0, frame = 0
 233              		@ frame_needed = 0, uses_anonymous_args = 0
 234              	.LVL7:
 235 0000 10B5     		push	{r4, lr}
 236              	.LCFI2:
 237              		.cfi_def_cfa_offset 8
 238              		.cfi_offset 4, -8
 239              		.cfi_offset 14, -4
 240 0002 1C46     		mov	r4, r3
 241 0004 82B0     		sub	sp, sp, #8
 242              	.LCFI3:
 243              		.cfi_def_cfa_offset 16
 244              	.LBB22:
 245              		.loc 1 199 0
 246 0006 2023     		movs	r3, #32
 247              	.LVL8:
 248              	@ 199 "../../os/kernel/src/chthreads.c" 1
 249 0008 83F31188 		msr     BASEPRI, r3
 250              	@ 0 "" 2
 251              	.LVL9:
 252              		.thumb
 253              	.LBE22:
 254              		.loc 1 200 0
 255 000c 2346     		mov	r3, r4
 256              	.LVL10:
 257 000e 049C     		ldr	r4, [sp, #16]
 258              	.LVL11:
 259 0010 0094     		str	r4, [sp, #0]
 260 0012 FFF7FEFF 		bl	chThdCreateI
 261              	.LVL12:
 262 0016 0021     		movs	r1, #0
 263 0018 0446     		mov	r4, r0
 264              	.LVL13:
 265 001a FFF7FEFF 		bl	chSchWakeupS
 266              	.LVL14:
 267              	.LBB23:
 268              		.loc 1 201 0
 269 001e 0023     		movs	r3, #0
 270              	.LVL15:
 271              	@ 201 "../../os/kernel/src/chthreads.c" 1
 272 0020 83F31188 		msr     BASEPRI, r3
 273              	@ 0 "" 2
 274              	.LVL16:
 275              		.thumb
 276              	.LBE23:
 277              		.loc 1 203 0
 278 0024 2046     		mov	r0, r4
 279 0026 02B0     		add	sp, sp, #8
 280 0028 10BD     		pop	{r4, pc}
 281              		.cfi_endproc
 282              	.LFE9:
 283              		.size	chThdCreateStatic, .-chThdCreateStatic
ARM GAS  /var/folders/dt/0wfd0knj7gs46m8vwfzktm600000gn/T//ccJimsz2.s 			page 6


 284 002a 00BFAFF3 		.section	.text.chThdSetPriority,"ax",%progbits
 284      0080
 285              		.align	2
 286              		.p2align 4,,15
 287              		.global	chThdSetPriority
 288              		.thumb
 289              		.thumb_func
 290              		.type	chThdSetPriority, %function
 291              	chThdSetPriority:
 292              	.LFB10:
 293              		.loc 1 217 0
 294              		.cfi_startproc
 295              		@ args = 0, pretend = 0, frame = 0
 296              		@ frame_needed = 0, uses_anonymous_args = 0
 297              	.LVL17:
 298 0000 10B5     		push	{r4, lr}
 299              	.LCFI4:
 300              		.cfi_def_cfa_offset 8
 301              		.cfi_offset 4, -8
 302              		.cfi_offset 14, -4
 303              	.LBB24:
 304              		.loc 1 222 0
 305 0002 2023     		movs	r3, #32
 306              	.LVL18:
 307              	@ 222 "../../os/kernel/src/chthreads.c" 1
 308 0004 83F31188 		msr     BASEPRI, r3
 309              	@ 0 "" 2
 310              	.LVL19:
 311              		.thumb
 312              	.LBE24:
 313              		.loc 1 224 0
 314 0008 084B     		ldr	r3, .L8
 315              	.LVL20:
 316 000a 9B69     		ldr	r3, [r3, #24]
 317 000c 1C6C     		ldr	r4, [r3, #64]
 318              	.LVL21:
 319              		.loc 1 225 0
 320 000e 9968     		ldr	r1, [r3, #8]
 321 0010 8C42     		cmp	r4, r1
 322 0012 01D0     		beq	.L5
 323              		.loc 1 225 0 is_stmt 0 discriminator 1
 324 0014 8142     		cmp	r1, r0
 325 0016 00D2     		bcs	.L6
 326              	.L5:
 327              		.loc 1 226 0 is_stmt 1
 328 0018 9860     		str	r0, [r3, #8]
 329              	.L6:
 330              		.loc 1 227 0
 331 001a 1864     		str	r0, [r3, #64]
 332              		.loc 1 232 0
 333 001c FFF7FEFF 		bl	chSchRescheduleS
 334              	.LVL22:
 335              	.LBB25:
 336              		.loc 1 233 0
 337 0020 0023     		movs	r3, #0
 338              	.LVL23:
 339              	@ 233 "../../os/kernel/src/chthreads.c" 1
ARM GAS  /var/folders/dt/0wfd0knj7gs46m8vwfzktm600000gn/T//ccJimsz2.s 			page 7


 340 0022 83F31188 		msr     BASEPRI, r3
 341              	@ 0 "" 2
 342              	.LVL24:
 343              		.thumb
 344              	.LBE25:
 345              		.loc 1 235 0
 346 0026 2046     		mov	r0, r4
 347 0028 10BD     		pop	{r4, pc}
 348              	.L9:
 349 002a 00BF     		.align	2
 350              	.L8:
 351 002c 00000000 		.word	rlist
 352              		.cfi_endproc
 353              	.LFE10:
 354              		.size	chThdSetPriority, .-chThdSetPriority
 355              		.section	.text.chThdResume,"ax",%progbits
 356              		.align	2
 357              		.p2align 4,,15
 358              		.global	chThdResume
 359              		.thumb
 360              		.thumb_func
 361              		.type	chThdResume, %function
 362              	chThdResume:
 363              	.LFB11:
 364              		.loc 1 250 0
 365              		.cfi_startproc
 366              		@ args = 0, pretend = 0, frame = 0
 367              		@ frame_needed = 0, uses_anonymous_args = 0
 368              	.LVL25:
 369 0000 10B5     		push	{r4, lr}
 370              	.LCFI5:
 371              		.cfi_def_cfa_offset 8
 372              		.cfi_offset 4, -8
 373              		.cfi_offset 14, -4
 374              	.LBB26:
 375              		.loc 1 252 0
 376 0002 2023     		movs	r3, #32
 377              	.LVL26:
 378              	.LBE26:
 379              		.loc 1 250 0
 380 0004 0446     		mov	r4, r0
 381              	.LBB27:
 382              		.loc 1 252 0
 383              	@ 252 "../../os/kernel/src/chthreads.c" 1
 384 0006 83F31188 		msr     BASEPRI, r3
 385              	@ 0 "" 2
 386              	.LVL27:
 387              		.thumb
 388              	.LBE27:
 389              		.loc 1 256 0
 390 000a 0021     		movs	r1, #0
 391 000c FFF7FEFF 		bl	chSchWakeupS
 392              	.LVL28:
 393              	.LBB28:
 394              		.loc 1 257 0
 395 0010 0023     		movs	r3, #0
 396              	.LVL29:
ARM GAS  /var/folders/dt/0wfd0knj7gs46m8vwfzktm600000gn/T//ccJimsz2.s 			page 8


 397              	@ 257 "../../os/kernel/src/chthreads.c" 1
 398 0012 83F31188 		msr     BASEPRI, r3
 399              	@ 0 "" 2
 400              	.LVL30:
 401              		.thumb
 402              	.LBE28:
 403              		.loc 1 259 0
 404 0016 2046     		mov	r0, r4
 405 0018 10BD     		pop	{r4, pc}
 406              		.cfi_endproc
 407              	.LFE11:
 408              		.size	chThdResume, .-chThdResume
 409 001a 00BFAFF3 		.section	.text.chThdTerminate,"ax",%progbits
 409      0080
 410              		.align	2
 411              		.p2align 4,,15
 412              		.global	chThdTerminate
 413              		.thumb
 414              		.thumb_func
 415              		.type	chThdTerminate, %function
 416              	chThdTerminate:
 417              	.LFB12:
 418              		.loc 1 273 0
 419              		.cfi_startproc
 420              		@ args = 0, pretend = 0, frame = 0
 421              		@ frame_needed = 0, uses_anonymous_args = 0
 422              		@ link register save eliminated.
 423              	.LVL31:
 424              	.LBB29:
 425              		.loc 1 275 0
 426 0000 2023     		movs	r3, #32
 427              	.LVL32:
 428              	@ 275 "../../os/kernel/src/chthreads.c" 1
 429 0002 83F31188 		msr     BASEPRI, r3
 430              	@ 0 "" 2
 431              	.LVL33:
 432              		.thumb
 433              	.LBE29:
 434              		.loc 1 276 0
 435 0006 427F     		ldrb	r2, [r0, #29]	@ zero_extendqisi2
 436              	.LBB30:
 437              		.loc 1 277 0
 438 0008 0023     		movs	r3, #0
 439              	.LVL34:
 440              	.LBE30:
 441              		.loc 1 276 0
 442 000a 42F00402 		orr	r2, r2, #4
 443 000e 4277     		strb	r2, [r0, #29]
 444              	.LBB31:
 445              		.loc 1 277 0
 446              	@ 277 "../../os/kernel/src/chthreads.c" 1
 447 0010 83F31188 		msr     BASEPRI, r3
 448              	@ 0 "" 2
 449              	.LVL35:
 450              		.thumb
 451 0014 7047     		bx	lr
 452              	.LBE31:
ARM GAS  /var/folders/dt/0wfd0knj7gs46m8vwfzktm600000gn/T//ccJimsz2.s 			page 9


 453              		.cfi_endproc
 454              	.LFE12:
 455              		.size	chThdTerminate, .-chThdTerminate
 456 0016 00BFAFF3 		.section	.text.chThdSleep,"ax",%progbits
 456      0080AFF3 
 456      0080
 457              		.align	2
 458              		.p2align 4,,15
 459              		.global	chThdSleep
 460              		.thumb
 461              		.thumb_func
 462              		.type	chThdSleep, %function
 463              	chThdSleep:
 464              	.LFB13:
 465              		.loc 1 292 0
 466              		.cfi_startproc
 467              		@ args = 0, pretend = 0, frame = 0
 468              		@ frame_needed = 0, uses_anonymous_args = 0
 469              	.LVL36:
 470 0000 08B5     		push	{r3, lr}
 471              	.LCFI6:
 472              		.cfi_def_cfa_offset 8
 473              		.cfi_offset 3, -8
 474              		.cfi_offset 14, -4
 475              		.loc 1 292 0
 476 0002 0146     		mov	r1, r0
 477              	.LBB32:
 478              		.loc 1 296 0
 479 0004 2023     		movs	r3, #32
 480              	.LVL37:
 481              	@ 296 "../../os/kernel/src/chthreads.c" 1
 482 0006 83F31188 		msr     BASEPRI, r3
 483              	@ 0 "" 2
 484              	.LVL38:
 485              		.thumb
 486              	.LBE32:
 487              		.loc 1 297 0
 488 000a 0620     		movs	r0, #6
 489              	.LVL39:
 490 000c FFF7FEFF 		bl	chSchGoSleepTimeoutS
 491              	.LVL40:
 492              	.LBB33:
 493              		.loc 1 298 0
 494 0010 0023     		movs	r3, #0
 495              	.LVL41:
 496              	@ 298 "../../os/kernel/src/chthreads.c" 1
 497 0012 83F31188 		msr     BASEPRI, r3
 498              	@ 0 "" 2
 499              	.LVL42:
 500              		.thumb
 501 0016 08BD     		pop	{r3, pc}
 502              	.LBE33:
 503              		.cfi_endproc
 504              	.LFE13:
 505              		.size	chThdSleep, .-chThdSleep
 506 0018 AFF30080 		.section	.text.chThdSleepUntil,"ax",%progbits
 506      AFF30080 
ARM GAS  /var/folders/dt/0wfd0knj7gs46m8vwfzktm600000gn/T//ccJimsz2.s 			page 10


 507              		.align	2
 508              		.p2align 4,,15
 509              		.global	chThdSleepUntil
 510              		.thumb
 511              		.thumb_func
 512              		.type	chThdSleepUntil, %function
 513              	chThdSleepUntil:
 514              	.LFB14:
 515              		.loc 1 309 0
 516              		.cfi_startproc
 517              		@ args = 0, pretend = 0, frame = 0
 518              		@ frame_needed = 0, uses_anonymous_args = 0
 519              	.LVL43:
 520 0000 08B5     		push	{r3, lr}
 521              	.LCFI7:
 522              		.cfi_def_cfa_offset 8
 523              		.cfi_offset 3, -8
 524              		.cfi_offset 14, -4
 525              	.LBB34:
 526              		.loc 1 311 0
 527 0002 2023     		movs	r3, #32
 528              	.LVL44:
 529              	@ 311 "../../os/kernel/src/chthreads.c" 1
 530 0004 83F31188 		msr     BASEPRI, r3
 531              	@ 0 "" 2
 532              	.LVL45:
 533              		.thumb
 534              	.LBE34:
 535              		.loc 1 312 0
 536 0008 054B     		ldr	r3, .L18
 537              	.LVL46:
 538 000a D968     		ldr	r1, [r3, #12]
 539              	.LVL47:
 540 000c 411A     		subs	r1, r0, r1
 541              	.LVL48:
 542 000e 02D0     		beq	.L14
 543              		.loc 1 313 0
 544 0010 0620     		movs	r0, #6
 545 0012 FFF7FEFF 		bl	chSchGoSleepTimeoutS
 546              	.LVL49:
 547              	.L14:
 548              	.LBB35:
 549              		.loc 1 314 0
 550 0016 0023     		movs	r3, #0
 551              	.LVL50:
 552              	@ 314 "../../os/kernel/src/chthreads.c" 1
 553 0018 83F31188 		msr     BASEPRI, r3
 554              	@ 0 "" 2
 555              	.LVL51:
 556              		.thumb
 557 001c 08BD     		pop	{r3, pc}
 558              	.L19:
 559 001e 00BF     		.align	2
 560              	.L18:
 561 0020 00000000 		.word	vtlist
 562              	.LBE35:
 563              		.cfi_endproc
ARM GAS  /var/folders/dt/0wfd0knj7gs46m8vwfzktm600000gn/T//ccJimsz2.s 			page 11


 564              	.LFE14:
 565              		.size	chThdSleepUntil, .-chThdSleepUntil
 566 0024 AFF30080 		.section	.text.chThdYield,"ax",%progbits
 566      AFF30080 
 566      AFF30080 
 567              		.align	2
 568              		.p2align 4,,15
 569              		.global	chThdYield
 570              		.thumb
 571              		.thumb_func
 572              		.type	chThdYield, %function
 573              	chThdYield:
 574              	.LFB15:
 575              		.loc 1 324 0
 576              		.cfi_startproc
 577              		@ args = 0, pretend = 0, frame = 0
 578              		@ frame_needed = 0, uses_anonymous_args = 0
 579 0000 08B5     		push	{r3, lr}
 580              	.LCFI8:
 581              		.cfi_def_cfa_offset 8
 582              		.cfi_offset 3, -8
 583              		.cfi_offset 14, -4
 584              	.LBB36:
 585              		.loc 1 326 0
 586 0002 2023     		movs	r3, #32
 587              	.LVL52:
 588              	@ 326 "../../os/kernel/src/chthreads.c" 1
 589 0004 83F31188 		msr     BASEPRI, r3
 590              	@ 0 "" 2
 591              	.LVL53:
 592              		.thumb
 593              	.LBE36:
 594              		.loc 1 327 0
 595 0008 064B     		ldr	r3, .L22
 596              	.LVL54:
 597 000a 1A68     		ldr	r2, [r3, #0]
 598 000c 9B69     		ldr	r3, [r3, #24]
 599 000e 9268     		ldr	r2, [r2, #8]
 600 0010 9B68     		ldr	r3, [r3, #8]
 601 0012 9A42     		cmp	r2, r3
 602 0014 01D3     		bcc	.L21
 603              		.loc 1 327 0 is_stmt 0 discriminator 1
 604 0016 FFF7FEFF 		bl	chSchDoRescheduleBehind
 605              	.LVL55:
 606              	.L21:
 607              	.LBB37:
 608              		.loc 1 328 0 is_stmt 1
 609 001a 0023     		movs	r3, #0
 610              	.LVL56:
 611              	@ 328 "../../os/kernel/src/chthreads.c" 1
 612 001c 83F31188 		msr     BASEPRI, r3
 613              	@ 0 "" 2
 614              	.LVL57:
 615              		.thumb
 616 0020 08BD     		pop	{r3, pc}
 617              	.L23:
 618 0022 00BF     		.align	2
ARM GAS  /var/folders/dt/0wfd0knj7gs46m8vwfzktm600000gn/T//ccJimsz2.s 			page 12


 619              	.L22:
 620 0024 00000000 		.word	rlist
 621              	.LBE37:
 622              		.cfi_endproc
 623              	.LFE15:
 624              		.size	chThdYield, .-chThdYield
 625 0028 AFF30080 		.section	.text.chThdExitS,"ax",%progbits
 625      AFF30080 
 626              		.align	2
 627              		.p2align 4,,15
 628              		.global	chThdExitS
 629              		.thumb
 630              		.thumb_func
 631              		.type	chThdExitS, %function
 632              	chThdExitS:
 633              	.LFB17:
 634              		.loc 1 366 0
 635              		.cfi_startproc
 636              		@ args = 0, pretend = 0, frame = 0
 637              		@ frame_needed = 0, uses_anonymous_args = 0
 638              	.LVL58:
 639 0000 38B5     		push	{r3, r4, r5, lr}
 640              	.LCFI9:
 641              		.cfi_def_cfa_offset 16
 642              		.cfi_offset 3, -16
 643              		.cfi_offset 4, -12
 644              		.cfi_offset 5, -8
 645              		.cfi_offset 14, -4
 646              		.loc 1 367 0
 647 0002 0E4B     		ldr	r3, .L32
 648 0004 9C69     		ldr	r4, [r3, #24]
 649              	.LVL59:
 650              		.loc 1 374 0
 651 0006 2546     		mov	r5, r4
 652 0008 55F8283F 		ldr	r3, [r5, #40]!
 653              		.loc 1 369 0
 654 000c 6062     		str	r0, [r4, #36]
 655              		.loc 1 374 0
 656 000e AB42     		cmp	r3, r5
 657 0010 07D0     		beq	.L29
 658              	.LVL60:
 659              	.L30:
 660              	.LBB38:
 661              	.LBB39:
 662              		.file 2 "../../os/kernel/include/chinline.h"
 663              		.loc 2 89 0
 664 0012 1A68     		ldr	r2, [r3, #0]
 665              	.LBE39:
 666              	.LBE38:
 667              		.loc 1 375 0
 668 0014 1846     		mov	r0, r3
 669              	.LBB41:
 670              	.LBB40:
 671              		.loc 2 89 0
 672 0016 A262     		str	r2, [r4, #40]
 673              	.LBE40:
 674              	.LBE41:
ARM GAS  /var/folders/dt/0wfd0knj7gs46m8vwfzktm600000gn/T//ccJimsz2.s 			page 13


 675              		.loc 1 375 0
 676 0018 FFF7FEFF 		bl	chSchReadyI
 677              	.LVL61:
 678              		.loc 1 374 0
 679 001c A36A     		ldr	r3, [r4, #40]
 680 001e AB42     		cmp	r3, r5
 681 0020 F7D1     		bne	.L30
 682              	.LVL62:
 683              	.L29:
 684              		.loc 1 380 0
 685 0022 637F     		ldrb	r3, [r4, #29]	@ zero_extendqisi2
 686 0024 9B07     		lsls	r3, r3, #30
 687 0026 04D1     		bne	.L27
 688              		.loc 1 381 0
 689 0028 6369     		ldr	r3, [r4, #20]
 690 002a 2269     		ldr	r2, [r4, #16]
 691 002c 1A61     		str	r2, [r3, #16]
 692 002e 2269     		ldr	r2, [r4, #16]
 693 0030 5361     		str	r3, [r2, #20]
 694              	.L27:
 695              		.loc 1 383 0
 696 0032 0E20     		movs	r0, #14
 697              		.loc 1 386 0
 698 0034 BDE83840 		pop	{r3, r4, r5, lr}
 699              		.loc 1 383 0
 700 0038 FFF7FEBF 		b	chSchGoSleepS
 701              	.LVL63:
 702              	.L33:
 703              		.align	2
 704              	.L32:
 705 003c 00000000 		.word	rlist
 706              		.cfi_endproc
 707              	.LFE17:
 708              		.size	chThdExitS, .-chThdExitS
 709              		.section	.text.chThdExit,"ax",%progbits
 710              		.align	2
 711              		.p2align 4,,15
 712              		.global	chThdExit
 713              		.thumb
 714              		.thumb_func
 715              		.type	chThdExit, %function
 716              	chThdExit:
 717              	.LFB16:
 718              		.loc 1 345 0
 719              		.cfi_startproc
 720              		@ args = 0, pretend = 0, frame = 0
 721              		@ frame_needed = 0, uses_anonymous_args = 0
 722              		@ link register save eliminated.
 723              	.LVL64:
 724              	.LBB42:
 725              		.loc 1 347 0
 726 0000 2023     		movs	r3, #32
 727              	.LVL65:
 728              	@ 347 "../../os/kernel/src/chthreads.c" 1
 729 0002 83F31188 		msr     BASEPRI, r3
 730              	@ 0 "" 2
 731              	.LVL66:
ARM GAS  /var/folders/dt/0wfd0knj7gs46m8vwfzktm600000gn/T//ccJimsz2.s 			page 14


 732              		.thumb
 733              	.LBE42:
 734              		.loc 1 350 0
 735              		.loc 1 348 0
 736 0006 FFF7FEBF 		b	chThdExitS
 737              	.LVL67:
 738              		.cfi_endproc
 739              	.LFE16:
 740              		.size	chThdExit, .-chThdExit
 741 000a 00BFAFF3 		.section	.text.chThdWait,"ax",%progbits
 741      0080
 742              		.align	2
 743              		.p2align 4,,15
 744              		.global	chThdWait
 745              		.thumb
 746              		.thumb_func
 747              		.type	chThdWait, %function
 748              	chThdWait:
 749              	.LFB18:
 750              		.loc 1 420 0
 751              		.cfi_startproc
 752              		@ args = 0, pretend = 0, frame = 0
 753              		@ frame_needed = 0, uses_anonymous_args = 0
 754              	.LVL68:
 755 0000 38B5     		push	{r3, r4, r5, lr}
 756              	.LCFI10:
 757              		.cfi_def_cfa_offset 16
 758              		.cfi_offset 3, -16
 759              		.cfi_offset 4, -12
 760              		.cfi_offset 5, -8
 761              		.cfi_offset 14, -4
 762              		.loc 1 420 0
 763 0002 0446     		mov	r4, r0
 764              	.LBB43:
 765              		.loc 1 425 0
 766 0004 2023     		movs	r3, #32
 767              	.LVL69:
 768              	@ 425 "../../os/kernel/src/chthreads.c" 1
 769 0006 83F31188 		msr     BASEPRI, r3
 770              	@ 0 "" 2
 771              	.LVL70:
 772              		.thumb
 773              	.LBE43:
 774              		.loc 1 430 0
 775 000a 037F     		ldrb	r3, [r0, #28]	@ zero_extendqisi2
 776              	.LVL71:
 777 000c 0E2B     		cmp	r3, #14
 778 000e 07D0     		beq	.L36
 779              		.loc 1 431 0
 780 0010 084B     		ldr	r3, .L40
 781              	.LBB44:
 782              	.LBB45:
 783              		.loc 2 82 0
 784 0012 826A     		ldr	r2, [r0, #40]
 785              	.LBE45:
 786              	.LBE44:
 787              		.loc 1 431 0
ARM GAS  /var/folders/dt/0wfd0knj7gs46m8vwfzktm600000gn/T//ccJimsz2.s 			page 15


 788 0014 9B69     		ldr	r3, [r3, #24]
 789              	.LVL72:
 790              		.loc 1 432 0
 791 0016 0720     		movs	r0, #7
 792              	.LVL73:
 793              	.LBB47:
 794              	.LBB46:
 795              		.loc 2 82 0
 796 0018 1A60     		str	r2, [r3, #0]
 797              		.loc 2 83 0
 798 001a A362     		str	r3, [r4, #40]
 799              	.LBE46:
 800              	.LBE47:
 801              		.loc 1 432 0
 802 001c FFF7FEFF 		bl	chSchGoSleepS
 803              	.LVL74:
 804              	.L36:
 805              		.loc 1 434 0
 806 0020 656A     		ldr	r5, [r4, #36]
 807              	.LVL75:
 808              	.LBB48:
 809              		.loc 1 435 0
 810 0022 0023     		movs	r3, #0
 811              	.LVL76:
 812              	@ 435 "../../os/kernel/src/chthreads.c" 1
 813 0024 83F31188 		msr     BASEPRI, r3
 814              	@ 0 "" 2
 815              	.LVL77:
 816              		.thumb
 817              	.LBE48:
 818              		.loc 1 437 0
 819 0028 2046     		mov	r0, r4
 820 002a FFF7FEFF 		bl	chThdRelease
 821              	.LVL78:
 822              		.loc 1 440 0
 823 002e 2846     		mov	r0, r5
 824 0030 38BD     		pop	{r3, r4, r5, pc}
 825              	.L41:
 826 0032 00BF     		.align	2
 827              	.L40:
 828 0034 00000000 		.word	rlist
 829              		.cfi_endproc
 830              	.LFE18:
 831              		.size	chThdWait, .-chThdWait
 832 0038 AFF30080 		.text
 832      AFF30080 
 833              	.Letext0:
 834              		.file 3 "/Users/toxygen/Applications/yagarto-4.7.2/bin/../lib/gcc/arm-none-eabi/4.7.2/include/stdd
 835              		.file 4 "/Users/toxygen/Applications/yagarto-4.7.2/bin/../lib/gcc/arm-none-eabi/4.7.2/../../../../
 836              		.file 5 "../../os/ports/GCC/ARMCMx/chtypes.h"
 837              		.file 6 "../../os/kernel/include/chlists.h"
 838              		.file 7 "../../os/kernel/include/chthreads.h"
 839              		.file 8 "../../os/ports/GCC/ARMCMx/chcore_v7m.h"
 840              		.file 9 "../../os/kernel/include/chvt.h"
 841              		.file 10 "../../os/kernel/include/chschd.h"
 842              		.file 11 "../../os/kernel/include/chmtx.h"
 843              		.file 12 "../../os/kernel/include/chdynamic.h"
ARM GAS  /var/folders/dt/0wfd0knj7gs46m8vwfzktm600000gn/T//ccJimsz2.s 			page 16


 844              		.section	.debug_info,"",%progbits
 845              	.Ldebug_info0:
 846 0000 3F0C0000 		.4byte	0xc3f
 847 0004 0200     		.2byte	0x2
 848 0006 00000000 		.4byte	.Ldebug_abbrev0
 849 000a 04       		.byte	0x4
 850 000b 01       		.uleb128 0x1
 851 000c 5E020000 		.4byte	.LASF99
 852 0010 01       		.byte	0x1
 853 0011 EF030000 		.4byte	.LASF100
 854 0015 AE000000 		.4byte	.LASF101
 855 0019 B0000000 		.4byte	.Ldebug_ranges0+0xb0
 856 001d 00000000 		.4byte	0
 857 0021 00000000 		.4byte	0
 858 0025 00000000 		.4byte	.Ldebug_line0
 859 0029 02       		.uleb128 0x2
 860 002a 04       		.byte	0x4
 861 002b 05       		.byte	0x5
 862 002c 696E7400 		.ascii	"int\000"
 863 0030 03       		.uleb128 0x3
 864 0031 0E000000 		.4byte	.LASF2
 865 0035 03       		.byte	0x3
 866 0036 D5       		.byte	0xd5
 867 0037 3B000000 		.4byte	0x3b
 868 003b 04       		.uleb128 0x4
 869 003c 04       		.byte	0x4
 870 003d 07       		.byte	0x7
 871 003e 44010000 		.4byte	.LASF0
 872 0042 04       		.uleb128 0x4
 873 0043 01       		.byte	0x1
 874 0044 06       		.byte	0x6
 875 0045 68000000 		.4byte	.LASF1
 876 0049 03       		.uleb128 0x3
 877 004a E7030000 		.4byte	.LASF3
 878 004e 04       		.byte	0x4
 879 004f 2A       		.byte	0x2a
 880 0050 54000000 		.4byte	0x54
 881 0054 04       		.uleb128 0x4
 882 0055 01       		.byte	0x1
 883 0056 08       		.byte	0x8
 884 0057 B1020000 		.4byte	.LASF4
 885 005b 04       		.uleb128 0x4
 886 005c 02       		.byte	0x2
 887 005d 05       		.byte	0x5
 888 005e C9020000 		.4byte	.LASF5
 889 0062 04       		.uleb128 0x4
 890 0063 02       		.byte	0x2
 891 0064 07       		.byte	0x7
 892 0065 78010000 		.4byte	.LASF6
 893 0069 03       		.uleb128 0x3
 894 006a A9020000 		.4byte	.LASF7
 895 006e 04       		.byte	0x4
 896 006f 4F       		.byte	0x4f
 897 0070 74000000 		.4byte	0x74
 898 0074 04       		.uleb128 0x4
 899 0075 04       		.byte	0x4
 900 0076 05       		.byte	0x5
ARM GAS  /var/folders/dt/0wfd0knj7gs46m8vwfzktm600000gn/T//ccJimsz2.s 			page 17


 901 0077 A5000000 		.4byte	.LASF8
 902 007b 03       		.uleb128 0x3
 903 007c 2F030000 		.4byte	.LASF9
 904 0080 04       		.byte	0x4
 905 0081 50       		.byte	0x50
 906 0082 86000000 		.4byte	0x86
 907 0086 04       		.uleb128 0x4
 908 0087 04       		.byte	0x4
 909 0088 07       		.byte	0x7
 910 0089 59010000 		.4byte	.LASF10
 911 008d 04       		.uleb128 0x4
 912 008e 08       		.byte	0x8
 913 008f 05       		.byte	0x5
 914 0090 5A000000 		.4byte	.LASF11
 915 0094 04       		.uleb128 0x4
 916 0095 08       		.byte	0x8
 917 0096 07       		.byte	0x7
 918 0097 33000000 		.4byte	.LASF12
 919 009b 04       		.uleb128 0x4
 920 009c 01       		.byte	0x1
 921 009d 02       		.byte	0x2
 922 009e A3020000 		.4byte	.LASF13
 923 00a2 03       		.uleb128 0x3
 924 00a3 A6010000 		.4byte	.LASF14
 925 00a7 05       		.byte	0x5
 926 00a8 2C       		.byte	0x2c
 927 00a9 49000000 		.4byte	0x49
 928 00ad 03       		.uleb128 0x3
 929 00ae EC000000 		.4byte	.LASF15
 930 00b2 05       		.byte	0x5
 931 00b3 2D       		.byte	0x2d
 932 00b4 49000000 		.4byte	0x49
 933 00b8 03       		.uleb128 0x3
 934 00b9 8C020000 		.4byte	.LASF16
 935 00bd 05       		.byte	0x5
 936 00be 2E       		.byte	0x2e
 937 00bf 49000000 		.4byte	0x49
 938 00c3 03       		.uleb128 0x3
 939 00c4 8E000000 		.4byte	.LASF17
 940 00c8 05       		.byte	0x5
 941 00c9 2F       		.byte	0x2f
 942 00ca 49000000 		.4byte	0x49
 943 00ce 03       		.uleb128 0x3
 944 00cf 9B020000 		.4byte	.LASF18
 945 00d3 05       		.byte	0x5
 946 00d4 30       		.byte	0x30
 947 00d5 7B000000 		.4byte	0x7b
 948 00d9 03       		.uleb128 0x3
 949 00da 98010000 		.4byte	.LASF19
 950 00de 05       		.byte	0x5
 951 00df 31       		.byte	0x31
 952 00e0 69000000 		.4byte	0x69
 953 00e4 03       		.uleb128 0x3
 954 00e5 C9010000 		.4byte	.LASF20
 955 00e9 05       		.byte	0x5
 956 00ea 33       		.byte	0x33
 957 00eb 7B000000 		.4byte	0x7b
ARM GAS  /var/folders/dt/0wfd0knj7gs46m8vwfzktm600000gn/T//ccJimsz2.s 			page 18


 958 00ef 03       		.uleb128 0x3
 959 00f0 72030000 		.4byte	.LASF21
 960 00f4 05       		.byte	0x5
 961 00f5 35       		.byte	0x35
 962 00f6 7B000000 		.4byte	0x7b
 963 00fa 03       		.uleb128 0x3
 964 00fb 0F030000 		.4byte	.LASF22
 965 00ff 06       		.byte	0x6
 966 0100 2A       		.byte	0x2a
 967 0101 05010000 		.4byte	0x105
 968 0105 05       		.uleb128 0x5
 969 0106 0F030000 		.4byte	.LASF22
 970 010a 48       		.byte	0x48
 971 010b 07       		.byte	0x7
 972 010c 5E       		.byte	0x5e
 973 010d 2A020000 		.4byte	0x22a
 974 0111 06       		.uleb128 0x6
 975 0112 F3020000 		.4byte	.LASF23
 976 0116 07       		.byte	0x7
 977 0117 5F       		.byte	0x5f
 978 0118 4F020000 		.4byte	0x24f
 979 011c 02       		.byte	0x2
 980 011d 23       		.byte	0x23
 981 011e 00       		.uleb128 0
 982 011f 06       		.uleb128 0x6
 983 0120 94020000 		.4byte	.LASF24
 984 0124 07       		.byte	0x7
 985 0125 61       		.byte	0x61
 986 0126 4F020000 		.4byte	0x24f
 987 012a 02       		.byte	0x2
 988 012b 23       		.byte	0x23
 989 012c 04       		.uleb128 0x4
 990 012d 06       		.uleb128 0x6
 991 012e 53000000 		.4byte	.LASF25
 992 0132 07       		.byte	0x7
 993 0133 63       		.byte	0x63
 994 0134 CE000000 		.4byte	0xce
 995 0138 02       		.byte	0x2
 996 0139 23       		.byte	0x23
 997 013a 08       		.uleb128 0x8
 998 013b 06       		.uleb128 0x6
 999 013c 4C040000 		.4byte	.LASF26
 1000 0140 07       		.byte	0x7
 1001 0141 64       		.byte	0x64
 1002 0142 1D030000 		.4byte	0x31d
 1003 0146 02       		.byte	0x2
 1004 0147 23       		.byte	0x23
 1005 0148 0C       		.uleb128 0xc
 1006 0149 06       		.uleb128 0x6
 1007 014a F5000000 		.4byte	.LASF27
 1008 014e 07       		.byte	0x7
 1009 014f 66       		.byte	0x66
 1010 0150 4F020000 		.4byte	0x24f
 1011 0154 02       		.byte	0x2
 1012 0155 23       		.byte	0x23
 1013 0156 10       		.uleb128 0x10
 1014 0157 06       		.uleb128 0x6
ARM GAS  /var/folders/dt/0wfd0knj7gs46m8vwfzktm600000gn/T//ccJimsz2.s 			page 19


 1015 0158 3E020000 		.4byte	.LASF28
 1016 015c 07       		.byte	0x7
 1017 015d 67       		.byte	0x67
 1018 015e 4F020000 		.4byte	0x24f
 1019 0162 02       		.byte	0x2
 1020 0163 23       		.byte	0x23
 1021 0164 14       		.uleb128 0x14
 1022 0165 06       		.uleb128 0x6
 1023 0166 16040000 		.4byte	.LASF29
 1024 016a 07       		.byte	0x7
 1025 016b 6E       		.byte	0x6e
 1026 016c FE040000 		.4byte	0x4fe
 1027 0170 02       		.byte	0x2
 1028 0171 23       		.byte	0x23
 1029 0172 18       		.uleb128 0x18
 1030 0173 06       		.uleb128 0x6
 1031 0174 D3020000 		.4byte	.LASF30
 1032 0178 07       		.byte	0x7
 1033 0179 79       		.byte	0x79
 1034 017a AD000000 		.4byte	0xad
 1035 017e 02       		.byte	0x2
 1036 017f 23       		.byte	0x23
 1037 0180 1C       		.uleb128 0x1c
 1038 0181 06       		.uleb128 0x6
 1039 0182 FA020000 		.4byte	.LASF31
 1040 0186 07       		.byte	0x7
 1041 0187 7D       		.byte	0x7d
 1042 0188 A2000000 		.4byte	0xa2
 1043 018c 02       		.byte	0x2
 1044 018d 23       		.byte	0x23
 1045 018e 1D       		.uleb128 0x1d
 1046 018f 06       		.uleb128 0x6
 1047 0190 D0030000 		.4byte	.LASF32
 1048 0194 07       		.byte	0x7
 1049 0195 82       		.byte	0x82
 1050 0196 B8000000 		.4byte	0xb8
 1051 019a 02       		.byte	0x2
 1052 019b 23       		.byte	0x23
 1053 019c 1E       		.uleb128 0x1e
 1054 019d 06       		.uleb128 0x6
 1055 019e DB020000 		.4byte	.LASF33
 1056 01a2 07       		.byte	0x7
 1057 01a3 88       		.byte	0x88
 1058 01a4 C3000000 		.4byte	0xc3
 1059 01a8 02       		.byte	0x2
 1060 01a9 23       		.byte	0x23
 1061 01aa 1F       		.uleb128 0x1f
 1062 01ab 06       		.uleb128 0x6
 1063 01ac 9B030000 		.4byte	.LASF34
 1064 01b0 07       		.byte	0x7
 1065 01b1 8F       		.byte	0x8f
 1066 01b2 09040000 		.4byte	0x409
 1067 01b6 02       		.byte	0x2
 1068 01b7 23       		.byte	0x23
 1069 01b8 20       		.uleb128 0x20
 1070 01b9 07       		.uleb128 0x7
 1071 01ba 705F7500 		.ascii	"p_u\000"
ARM GAS  /var/folders/dt/0wfd0knj7gs46m8vwfzktm600000gn/T//ccJimsz2.s 			page 20


 1072 01be 07       		.byte	0x7
 1073 01bf B4       		.byte	0xb4
 1074 01c0 C9040000 		.4byte	0x4c9
 1075 01c4 02       		.byte	0x2
 1076 01c5 23       		.byte	0x23
 1077 01c6 24       		.uleb128 0x24
 1078 01c7 06       		.uleb128 0x6
 1079 01c8 52040000 		.4byte	.LASF35
 1080 01cc 07       		.byte	0x7
 1081 01cd B9       		.byte	0xb9
 1082 01ce 77020000 		.4byte	0x277
 1083 01d2 02       		.byte	0x2
 1084 01d3 23       		.byte	0x23
 1085 01d4 28       		.uleb128 0x28
 1086 01d5 06       		.uleb128 0x6
 1087 01d6 A9030000 		.4byte	.LASF36
 1088 01da 07       		.byte	0x7
 1089 01db BF       		.byte	0xbf
 1090 01dc 55020000 		.4byte	0x255
 1091 01e0 02       		.byte	0x2
 1092 01e1 23       		.byte	0x23
 1093 01e2 2C       		.uleb128 0x2c
 1094 01e3 06       		.uleb128 0x6
 1095 01e4 08000000 		.4byte	.LASF37
 1096 01e8 07       		.byte	0x7
 1097 01e9 C3       		.byte	0xc3
 1098 01ea D9000000 		.4byte	0xd9
 1099 01ee 02       		.byte	0x2
 1100 01ef 23       		.byte	0x23
 1101 01f0 34       		.uleb128 0x34
 1102 01f1 06       		.uleb128 0x6
 1103 01f2 24030000 		.4byte	.LASF38
 1104 01f6 07       		.byte	0x7
 1105 01f7 C9       		.byte	0xc9
 1106 01f8 E4000000 		.4byte	0xe4
 1107 01fc 02       		.byte	0x2
 1108 01fd 23       		.byte	0x23
 1109 01fe 38       		.uleb128 0x38
 1110 01ff 06       		.uleb128 0x6
 1111 0200 BF020000 		.4byte	.LASF39
 1112 0204 07       		.byte	0x7
 1113 0205 D0       		.byte	0xd0
 1114 0206 10050000 		.4byte	0x510
 1115 020a 02       		.byte	0x2
 1116 020b 23       		.byte	0x23
 1117 020c 3C       		.uleb128 0x3c
 1118 020d 06       		.uleb128 0x6
 1119 020e 7C030000 		.4byte	.LASF40
 1120 0212 07       		.byte	0x7
 1121 0213 D4       		.byte	0xd4
 1122 0214 CE000000 		.4byte	0xce
 1123 0218 02       		.byte	0x2
 1124 0219 23       		.byte	0x23
 1125 021a 40       		.uleb128 0x40
 1126 021b 06       		.uleb128 0x6
 1127 021c 7E000000 		.4byte	.LASF41
 1128 0220 07       		.byte	0x7
ARM GAS  /var/folders/dt/0wfd0knj7gs46m8vwfzktm600000gn/T//ccJimsz2.s 			page 21


 1129 0221 DA       		.byte	0xda
 1130 0222 8D020000 		.4byte	0x28d
 1131 0226 02       		.byte	0x2
 1132 0227 23       		.byte	0x23
 1133 0228 44       		.uleb128 0x44
 1134 0229 00       		.byte	0
 1135 022a 08       		.uleb128 0x8
 1136 022b 08       		.byte	0x8
 1137 022c 06       		.byte	0x6
 1138 022d 61       		.byte	0x61
 1139 022e 4F020000 		.4byte	0x24f
 1140 0232 06       		.uleb128 0x6
 1141 0233 F3020000 		.4byte	.LASF23
 1142 0237 06       		.byte	0x6
 1143 0238 62       		.byte	0x62
 1144 0239 4F020000 		.4byte	0x24f
 1145 023d 02       		.byte	0x2
 1146 023e 23       		.byte	0x23
 1147 023f 00       		.uleb128 0
 1148 0240 06       		.uleb128 0x6
 1149 0241 94020000 		.4byte	.LASF24
 1150 0245 06       		.byte	0x6
 1151 0246 64       		.byte	0x64
 1152 0247 4F020000 		.4byte	0x24f
 1153 024b 02       		.byte	0x2
 1154 024c 23       		.byte	0x23
 1155 024d 04       		.uleb128 0x4
 1156 024e 00       		.byte	0
 1157 024f 09       		.uleb128 0x9
 1158 0250 04       		.byte	0x4
 1159 0251 FA000000 		.4byte	0xfa
 1160 0255 03       		.uleb128 0x3
 1161 0256 4C020000 		.4byte	.LASF42
 1162 025a 06       		.byte	0x6
 1163 025b 66       		.byte	0x66
 1164 025c 2A020000 		.4byte	0x22a
 1165 0260 08       		.uleb128 0x8
 1166 0261 04       		.byte	0x4
 1167 0262 06       		.byte	0x6
 1168 0263 6B       		.byte	0x6b
 1169 0264 77020000 		.4byte	0x277
 1170 0268 06       		.uleb128 0x6
 1171 0269 F3020000 		.4byte	.LASF23
 1172 026d 06       		.byte	0x6
 1173 026e 6D       		.byte	0x6d
 1174 026f 4F020000 		.4byte	0x24f
 1175 0273 02       		.byte	0x2
 1176 0274 23       		.byte	0x23
 1177 0275 00       		.uleb128 0
 1178 0276 00       		.byte	0
 1179 0277 03       		.uleb128 0x3
 1180 0278 BD010000 		.4byte	.LASF43
 1181 027c 06       		.byte	0x6
 1182 027d 70       		.byte	0x70
 1183 027e 60020000 		.4byte	0x260
 1184 0282 03       		.uleb128 0x3
 1185 0283 22010000 		.4byte	.LASF44
ARM GAS  /var/folders/dt/0wfd0knj7gs46m8vwfzktm600000gn/T//ccJimsz2.s 			page 22


 1186 0287 08       		.byte	0x8
 1187 0288 E5       		.byte	0xe5
 1188 0289 8D020000 		.4byte	0x28d
 1189 028d 0A       		.uleb128 0xa
 1190 028e 04       		.byte	0x4
 1191 028f 0B       		.uleb128 0xb
 1192 0290 A2030000 		.4byte	.LASF45
 1193 0294 24       		.byte	0x24
 1194 0295 08       		.byte	0x8
 1195 0296 0C01     		.2byte	0x10c
 1196 0298 1D030000 		.4byte	0x31d
 1197 029c 0C       		.uleb128 0xc
 1198 029d 723400   		.ascii	"r4\000"
 1199 02a0 08       		.byte	0x8
 1200 02a1 1F01     		.2byte	0x11f
 1201 02a3 82020000 		.4byte	0x282
 1202 02a7 02       		.byte	0x2
 1203 02a8 23       		.byte	0x23
 1204 02a9 00       		.uleb128 0
 1205 02aa 0C       		.uleb128 0xc
 1206 02ab 723500   		.ascii	"r5\000"
 1207 02ae 08       		.byte	0x8
 1208 02af 2001     		.2byte	0x120
 1209 02b1 82020000 		.4byte	0x282
 1210 02b5 02       		.byte	0x2
 1211 02b6 23       		.byte	0x23
 1212 02b7 04       		.uleb128 0x4
 1213 02b8 0C       		.uleb128 0xc
 1214 02b9 723600   		.ascii	"r6\000"
 1215 02bc 08       		.byte	0x8
 1216 02bd 2101     		.2byte	0x121
 1217 02bf 82020000 		.4byte	0x282
 1218 02c3 02       		.byte	0x2
 1219 02c4 23       		.byte	0x23
 1220 02c5 08       		.uleb128 0x8
 1221 02c6 0C       		.uleb128 0xc
 1222 02c7 723700   		.ascii	"r7\000"
 1223 02ca 08       		.byte	0x8
 1224 02cb 2201     		.2byte	0x122
 1225 02cd 82020000 		.4byte	0x282
 1226 02d1 02       		.byte	0x2
 1227 02d2 23       		.byte	0x23
 1228 02d3 0C       		.uleb128 0xc
 1229 02d4 0C       		.uleb128 0xc
 1230 02d5 723800   		.ascii	"r8\000"
 1231 02d8 08       		.byte	0x8
 1232 02d9 2301     		.2byte	0x123
 1233 02db 82020000 		.4byte	0x282
 1234 02df 02       		.byte	0x2
 1235 02e0 23       		.byte	0x23
 1236 02e1 10       		.uleb128 0x10
 1237 02e2 0C       		.uleb128 0xc
 1238 02e3 723900   		.ascii	"r9\000"
 1239 02e6 08       		.byte	0x8
 1240 02e7 2401     		.2byte	0x124
 1241 02e9 82020000 		.4byte	0x282
 1242 02ed 02       		.byte	0x2
ARM GAS  /var/folders/dt/0wfd0knj7gs46m8vwfzktm600000gn/T//ccJimsz2.s 			page 23


 1243 02ee 23       		.byte	0x23
 1244 02ef 14       		.uleb128 0x14
 1245 02f0 0C       		.uleb128 0xc
 1246 02f1 72313000 		.ascii	"r10\000"
 1247 02f5 08       		.byte	0x8
 1248 02f6 2501     		.2byte	0x125
 1249 02f8 82020000 		.4byte	0x282
 1250 02fc 02       		.byte	0x2
 1251 02fd 23       		.byte	0x23
 1252 02fe 18       		.uleb128 0x18
 1253 02ff 0C       		.uleb128 0xc
 1254 0300 72313100 		.ascii	"r11\000"
 1255 0304 08       		.byte	0x8
 1256 0305 2601     		.2byte	0x126
 1257 0307 82020000 		.4byte	0x282
 1258 030b 02       		.byte	0x2
 1259 030c 23       		.byte	0x23
 1260 030d 1C       		.uleb128 0x1c
 1261 030e 0C       		.uleb128 0xc
 1262 030f 6C7200   		.ascii	"lr\000"
 1263 0312 08       		.byte	0x8
 1264 0313 2701     		.2byte	0x127
 1265 0315 82020000 		.4byte	0x282
 1266 0319 02       		.byte	0x2
 1267 031a 23       		.byte	0x23
 1268 031b 20       		.uleb128 0x20
 1269 031c 00       		.byte	0
 1270 031d 0B       		.uleb128 0xb
 1271 031e 6B010000 		.4byte	.LASF46
 1272 0322 04       		.byte	0x4
 1273 0323 08       		.byte	0x8
 1274 0324 3101     		.2byte	0x131
 1275 0326 3A030000 		.4byte	0x33a
 1276 032a 0C       		.uleb128 0xc
 1277 032b 72313300 		.ascii	"r13\000"
 1278 032f 08       		.byte	0x8
 1279 0330 3201     		.2byte	0x132
 1280 0332 3A030000 		.4byte	0x33a
 1281 0336 02       		.byte	0x2
 1282 0337 23       		.byte	0x23
 1283 0338 00       		.uleb128 0
 1284 0339 00       		.byte	0
 1285 033a 09       		.uleb128 0x9
 1286 033b 04       		.byte	0x4
 1287 033c 8F020000 		.4byte	0x28f
 1288 0340 04       		.uleb128 0x4
 1289 0341 04       		.byte	0x4
 1290 0342 07       		.byte	0x7
 1291 0343 09020000 		.4byte	.LASF47
 1292 0347 03       		.uleb128 0x3
 1293 0348 87030000 		.4byte	.LASF48
 1294 034c 09       		.byte	0x9
 1295 034d 58       		.byte	0x58
 1296 034e 52030000 		.4byte	0x352
 1297 0352 09       		.uleb128 0x9
 1298 0353 04       		.byte	0x4
 1299 0354 58030000 		.4byte	0x358
ARM GAS  /var/folders/dt/0wfd0knj7gs46m8vwfzktm600000gn/T//ccJimsz2.s 			page 24


 1300 0358 0D       		.uleb128 0xd
 1301 0359 01       		.byte	0x1
 1302 035a 64030000 		.4byte	0x364
 1303 035e 0E       		.uleb128 0xe
 1304 035f 8D020000 		.4byte	0x28d
 1305 0363 00       		.byte	0
 1306 0364 03       		.uleb128 0x3
 1307 0365 4D030000 		.4byte	.LASF49
 1308 0369 09       		.byte	0x9
 1309 036a 5D       		.byte	0x5d
 1310 036b 6F030000 		.4byte	0x36f
 1311 036f 05       		.uleb128 0x5
 1312 0370 4D030000 		.4byte	.LASF49
 1313 0374 14       		.byte	0x14
 1314 0375 09       		.byte	0x9
 1315 0376 64       		.byte	0x64
 1316 0377 C2030000 		.4byte	0x3c2
 1317 037b 06       		.uleb128 0x6
 1318 037c 51010000 		.4byte	.LASF50
 1319 0380 09       		.byte	0x9
 1320 0381 65       		.byte	0x65
 1321 0382 C2030000 		.4byte	0x3c2
 1322 0386 02       		.byte	0x2
 1323 0387 23       		.byte	0x23
 1324 0388 00       		.uleb128 0
 1325 0389 06       		.uleb128 0x6
 1326 038a 2B010000 		.4byte	.LASF51
 1327 038e 09       		.byte	0x9
 1328 038f 67       		.byte	0x67
 1329 0390 C2030000 		.4byte	0x3c2
 1330 0394 02       		.byte	0x2
 1331 0395 23       		.byte	0x23
 1332 0396 04       		.uleb128 0x4
 1333 0397 06       		.uleb128 0x6
 1334 0398 01020000 		.4byte	.LASF52
 1335 039c 09       		.byte	0x9
 1336 039d 69       		.byte	0x69
 1337 039e EF000000 		.4byte	0xef
 1338 03a2 02       		.byte	0x2
 1339 03a3 23       		.byte	0x23
 1340 03a4 08       		.uleb128 0x8
 1341 03a5 06       		.uleb128 0x6
 1342 03a6 12020000 		.4byte	.LASF53
 1343 03aa 09       		.byte	0x9
 1344 03ab 6A       		.byte	0x6a
 1345 03ac 47030000 		.4byte	0x347
 1346 03b0 02       		.byte	0x2
 1347 03b1 23       		.byte	0x23
 1348 03b2 0C       		.uleb128 0xc
 1349 03b3 06       		.uleb128 0x6
 1350 03b4 BE030000 		.4byte	.LASF54
 1351 03b8 09       		.byte	0x9
 1352 03b9 6C       		.byte	0x6c
 1353 03ba 8D020000 		.4byte	0x28d
 1354 03be 02       		.byte	0x2
 1355 03bf 23       		.byte	0x23
 1356 03c0 10       		.uleb128 0x10
ARM GAS  /var/folders/dt/0wfd0knj7gs46m8vwfzktm600000gn/T//ccJimsz2.s 			page 25


 1357 03c1 00       		.byte	0
 1358 03c2 09       		.uleb128 0x9
 1359 03c3 04       		.byte	0x4
 1360 03c4 64030000 		.4byte	0x364
 1361 03c8 08       		.uleb128 0x8
 1362 03c9 10       		.byte	0x10
 1363 03ca 09       		.byte	0x9
 1364 03cb 76       		.byte	0x76
 1365 03cc 09040000 		.4byte	0x409
 1366 03d0 06       		.uleb128 0x6
 1367 03d1 51010000 		.4byte	.LASF50
 1368 03d5 09       		.byte	0x9
 1369 03d6 77       		.byte	0x77
 1370 03d7 C2030000 		.4byte	0x3c2
 1371 03db 02       		.byte	0x2
 1372 03dc 23       		.byte	0x23
 1373 03dd 00       		.uleb128 0
 1374 03de 06       		.uleb128 0x6
 1375 03df 2B010000 		.4byte	.LASF51
 1376 03e3 09       		.byte	0x9
 1377 03e4 79       		.byte	0x79
 1378 03e5 C2030000 		.4byte	0x3c2
 1379 03e9 02       		.byte	0x2
 1380 03ea 23       		.byte	0x23
 1381 03eb 04       		.uleb128 0x4
 1382 03ec 06       		.uleb128 0x6
 1383 03ed 01020000 		.4byte	.LASF52
 1384 03f1 09       		.byte	0x9
 1385 03f2 7B       		.byte	0x7b
 1386 03f3 EF000000 		.4byte	0xef
 1387 03f7 02       		.byte	0x2
 1388 03f8 23       		.byte	0x23
 1389 03f9 08       		.uleb128 0x8
 1390 03fa 06       		.uleb128 0x6
 1391 03fb 1D040000 		.4byte	.LASF55
 1392 03ff 09       		.byte	0x9
 1393 0400 7C       		.byte	0x7c
 1394 0401 09040000 		.4byte	0x409
 1395 0405 02       		.byte	0x2
 1396 0406 23       		.byte	0x23
 1397 0407 0C       		.uleb128 0xc
 1398 0408 00       		.byte	0
 1399 0409 0F       		.uleb128 0xf
 1400 040a EF000000 		.4byte	0xef
 1401 040e 03       		.uleb128 0x3
 1402 040f 3D040000 		.4byte	.LASF56
 1403 0413 09       		.byte	0x9
 1404 0414 7D       		.byte	0x7d
 1405 0415 C8030000 		.4byte	0x3c8
 1406 0419 08       		.uleb128 0x8
 1407 041a 1C       		.byte	0x1c
 1408 041b 0A       		.byte	0xa
 1409 041c 5E       		.byte	0x5e
 1410 041d 76040000 		.4byte	0x476
 1411 0421 06       		.uleb128 0x6
 1412 0422 45030000 		.4byte	.LASF57
 1413 0426 0A       		.byte	0xa
ARM GAS  /var/folders/dt/0wfd0knj7gs46m8vwfzktm600000gn/T//ccJimsz2.s 			page 26


 1414 0427 5F       		.byte	0x5f
 1415 0428 55020000 		.4byte	0x255
 1416 042c 02       		.byte	0x2
 1417 042d 23       		.byte	0x23
 1418 042e 00       		.uleb128 0
 1419 042f 06       		.uleb128 0x6
 1420 0430 E5020000 		.4byte	.LASF58
 1421 0434 0A       		.byte	0xa
 1422 0435 60       		.byte	0x60
 1423 0436 CE000000 		.4byte	0xce
 1424 043a 02       		.byte	0x2
 1425 043b 23       		.byte	0x23
 1426 043c 08       		.uleb128 0x8
 1427 043d 06       		.uleb128 0x6
 1428 043e 46020000 		.4byte	.LASF59
 1429 0442 0A       		.byte	0xa
 1430 0443 62       		.byte	0x62
 1431 0444 1D030000 		.4byte	0x31d
 1432 0448 02       		.byte	0x2
 1433 0449 23       		.byte	0x23
 1434 044a 0C       		.uleb128 0xc
 1435 044b 06       		.uleb128 0x6
 1436 044c 1A010000 		.4byte	.LASF60
 1437 0450 0A       		.byte	0xa
 1438 0451 65       		.byte	0x65
 1439 0452 4F020000 		.4byte	0x24f
 1440 0456 02       		.byte	0x2
 1441 0457 23       		.byte	0x23
 1442 0458 10       		.uleb128 0x10
 1443 0459 06       		.uleb128 0x6
 1444 045a 74020000 		.4byte	.LASF61
 1445 045e 0A       		.byte	0xa
 1446 045f 66       		.byte	0x66
 1447 0460 4F020000 		.4byte	0x24f
 1448 0464 02       		.byte	0x2
 1449 0465 23       		.byte	0x23
 1450 0466 14       		.uleb128 0x14
 1451 0467 06       		.uleb128 0x6
 1452 0468 6A020000 		.4byte	.LASF62
 1453 046c 0A       		.byte	0xa
 1454 046d 69       		.byte	0x69
 1455 046e 4F020000 		.4byte	0x24f
 1456 0472 02       		.byte	0x2
 1457 0473 23       		.byte	0x23
 1458 0474 18       		.uleb128 0x18
 1459 0475 00       		.byte	0
 1460 0476 03       		.uleb128 0x3
 1461 0477 D7030000 		.4byte	.LASF63
 1462 047b 0A       		.byte	0xa
 1463 047c 6B       		.byte	0x6b
 1464 047d 19040000 		.4byte	0x419
 1465 0481 05       		.uleb128 0x5
 1466 0482 D5010000 		.4byte	.LASF64
 1467 0486 10       		.byte	0x10
 1468 0487 0B       		.byte	0xb
 1469 0488 2C       		.byte	0x2c
 1470 0489 B8040000 		.4byte	0x4b8
ARM GAS  /var/folders/dt/0wfd0knj7gs46m8vwfzktm600000gn/T//ccJimsz2.s 			page 27


 1471 048d 06       		.uleb128 0x6
 1472 048e 86000000 		.4byte	.LASF65
 1473 0492 0B       		.byte	0xb
 1474 0493 2D       		.byte	0x2d
 1475 0494 55020000 		.4byte	0x255
 1476 0498 02       		.byte	0x2
 1477 0499 23       		.byte	0x23
 1478 049a 00       		.uleb128 0
 1479 049b 06       		.uleb128 0x6
 1480 049c 44040000 		.4byte	.LASF66
 1481 04a0 0B       		.byte	0xb
 1482 04a1 2F       		.byte	0x2f
 1483 04a2 4F020000 		.4byte	0x24f
 1484 04a6 02       		.byte	0x2
 1485 04a7 23       		.byte	0x23
 1486 04a8 08       		.uleb128 0x8
 1487 04a9 06       		.uleb128 0x6
 1488 04aa 6B030000 		.4byte	.LASF67
 1489 04ae 0B       		.byte	0xb
 1490 04af 31       		.byte	0x31
 1491 04b0 B8040000 		.4byte	0x4b8
 1492 04b4 02       		.byte	0x2
 1493 04b5 23       		.byte	0x23
 1494 04b6 0C       		.uleb128 0xc
 1495 04b7 00       		.byte	0
 1496 04b8 09       		.uleb128 0x9
 1497 04b9 04       		.byte	0x4
 1498 04ba 81040000 		.4byte	0x481
 1499 04be 03       		.uleb128 0x3
 1500 04bf D5010000 		.4byte	.LASF64
 1501 04c3 0B       		.byte	0xb
 1502 04c4 33       		.byte	0x33
 1503 04c5 81040000 		.4byte	0x481
 1504 04c9 10       		.uleb128 0x10
 1505 04ca 04       		.byte	0x4
 1506 04cb 07       		.byte	0x7
 1507 04cc 96       		.byte	0x96
 1508 04cd FE040000 		.4byte	0x4fe
 1509 04d1 11       		.uleb128 0x11
 1510 04d2 1A000000 		.4byte	.LASF68
 1511 04d6 07       		.byte	0x7
 1512 04d7 9D       		.byte	0x9d
 1513 04d8 D9000000 		.4byte	0xd9
 1514 04dc 11       		.uleb128 0x11
 1515 04dd 4A000000 		.4byte	.LASF69
 1516 04e1 07       		.byte	0x7
 1517 04e2 A4       		.byte	0xa4
 1518 04e3 D9000000 		.4byte	0xd9
 1519 04e7 11       		.uleb128 0x11
 1520 04e8 0F040000 		.4byte	.LASF70
 1521 04ec 07       		.byte	0x7
 1522 04ed AB       		.byte	0xab
 1523 04ee 8D020000 		.4byte	0x28d
 1524 04f2 11       		.uleb128 0x11
 1525 04f3 EC020000 		.4byte	.LASF71
 1526 04f7 07       		.byte	0x7
 1527 04f8 B2       		.byte	0xb2
ARM GAS  /var/folders/dt/0wfd0knj7gs46m8vwfzktm600000gn/T//ccJimsz2.s 			page 28


 1528 04f9 E4000000 		.4byte	0xe4
 1529 04fd 00       		.byte	0
 1530 04fe 09       		.uleb128 0x9
 1531 04ff 04       		.byte	0x4
 1532 0500 04050000 		.4byte	0x504
 1533 0504 12       		.uleb128 0x12
 1534 0505 09050000 		.4byte	0x509
 1535 0509 04       		.uleb128 0x4
 1536 050a 01       		.byte	0x1
 1537 050b 08       		.byte	0x8
 1538 050c 5A030000 		.4byte	.LASF72
 1539 0510 09       		.uleb128 0x9
 1540 0511 04       		.byte	0x4
 1541 0512 BE040000 		.4byte	0x4be
 1542 0516 03       		.uleb128 0x3
 1543 0517 00000000 		.4byte	.LASF73
 1544 051b 07       		.byte	0x7
 1545 051c E5       		.byte	0xe5
 1546 051d 21050000 		.4byte	0x521
 1547 0521 09       		.uleb128 0x9
 1548 0522 04       		.byte	0x4
 1549 0523 27050000 		.4byte	0x527
 1550 0527 13       		.uleb128 0x13
 1551 0528 01       		.byte	0x1
 1552 0529 D9000000 		.4byte	0xd9
 1553 052d 37050000 		.4byte	0x537
 1554 0531 0E       		.uleb128 0xe
 1555 0532 8D020000 		.4byte	0x28d
 1556 0536 00       		.byte	0
 1557 0537 14       		.uleb128 0x14
 1558 0538 01       		.byte	0x1
 1559 0539 38030000 		.4byte	.LASF92
 1560 053d 01       		.byte	0x1
 1561 053e 4C       		.byte	0x4c
 1562 053f 01       		.byte	0x1
 1563 0540 4F020000 		.4byte	0x24f
 1564 0544 01       		.byte	0x1
 1565 0545 5F050000 		.4byte	0x55f
 1566 0549 15       		.uleb128 0x15
 1567 054a 747000   		.ascii	"tp\000"
 1568 054d 01       		.byte	0x1
 1569 054e 4C       		.byte	0x4c
 1570 054f 4F020000 		.4byte	0x24f
 1571 0553 16       		.uleb128 0x16
 1572 0554 15000000 		.4byte	.LASF74
 1573 0558 01       		.byte	0x1
 1574 0559 4C       		.byte	0x4c
 1575 055a CE000000 		.4byte	0xce
 1576 055e 00       		.byte	0
 1577 055f 17       		.uleb128 0x17
 1578 0560 FD000000 		.4byte	.LASF102
 1579 0564 02       		.byte	0x2
 1580 0565 56       		.byte	0x56
 1581 0566 01       		.byte	0x1
 1582 0567 4F020000 		.4byte	0x24f
 1583 056b 03       		.byte	0x3
 1584 056c 86050000 		.4byte	0x586
ARM GAS  /var/folders/dt/0wfd0knj7gs46m8vwfzktm600000gn/T//ccJimsz2.s 			page 29


 1585 0570 15       		.uleb128 0x15
 1586 0571 746C7000 		.ascii	"tlp\000"
 1587 0575 02       		.byte	0x2
 1588 0576 56       		.byte	0x56
 1589 0577 86050000 		.4byte	0x586
 1590 057b 18       		.uleb128 0x18
 1591 057c 747000   		.ascii	"tp\000"
 1592 057f 02       		.byte	0x2
 1593 0580 58       		.byte	0x58
 1594 0581 4F020000 		.4byte	0x24f
 1595 0585 00       		.byte	0
 1596 0586 09       		.uleb128 0x9
 1597 0587 04       		.byte	0x4
 1598 0588 77020000 		.4byte	0x277
 1599 058c 19       		.uleb128 0x19
 1600 058d F5010000 		.4byte	.LASF103
 1601 0591 02       		.byte	0x2
 1602 0592 50       		.byte	0x50
 1603 0593 01       		.byte	0x1
 1604 0594 03       		.byte	0x3
 1605 0595 AF050000 		.4byte	0x5af
 1606 0599 15       		.uleb128 0x15
 1607 059a 747000   		.ascii	"tp\000"
 1608 059d 02       		.byte	0x2
 1609 059e 50       		.byte	0x50
 1610 059f 4F020000 		.4byte	0x24f
 1611 05a3 15       		.uleb128 0x15
 1612 05a4 746C7000 		.ascii	"tlp\000"
 1613 05a8 02       		.byte	0x2
 1614 05a9 50       		.byte	0x50
 1615 05aa 86050000 		.4byte	0x586
 1616 05ae 00       		.byte	0
 1617 05af 1A       		.uleb128 0x1a
 1618 05b0 37050000 		.4byte	0x537
 1619 05b4 00000000 		.4byte	.LFB7
 1620 05b8 46000000 		.4byte	.LFE7
 1621 05bc 00000000 		.4byte	.LLST0
 1622 05c0 01       		.byte	0x1
 1623 05c1 D6050000 		.4byte	0x5d6
 1624 05c5 1B       		.uleb128 0x1b
 1625 05c6 49050000 		.4byte	0x549
 1626 05ca 01       		.byte	0x1
 1627 05cb 50       		.byte	0x50
 1628 05cc 1C       		.uleb128 0x1c
 1629 05cd 53050000 		.4byte	0x553
 1630 05d1 20000000 		.4byte	.LLST1
 1631 05d5 00       		.byte	0
 1632 05d6 1D       		.uleb128 0x1d
 1633 05d7 01       		.byte	0x1
 1634 05d8 98000000 		.4byte	.LASF76
 1635 05dc 01       		.byte	0x1
 1636 05dd 9D       		.byte	0x9d
 1637 05de 01       		.byte	0x1
 1638 05df 4F020000 		.4byte	0x24f
 1639 05e3 00000000 		.4byte	.LFB8
 1640 05e7 6C000000 		.4byte	.LFE8
 1641 05eb 3F000000 		.4byte	.LLST2
ARM GAS  /var/folders/dt/0wfd0knj7gs46m8vwfzktm600000gn/T//ccJimsz2.s 			page 30


 1642 05ef 01       		.byte	0x1
 1643 05f0 66060000 		.4byte	0x666
 1644 05f4 1E       		.uleb128 0x1e
 1645 05f5 77737000 		.ascii	"wsp\000"
 1646 05f9 01       		.byte	0x1
 1647 05fa 9D       		.byte	0x9d
 1648 05fb 8D020000 		.4byte	0x28d
 1649 05ff 01       		.byte	0x1
 1650 0600 50       		.byte	0x50
 1651 0601 1F       		.uleb128 0x1f
 1652 0602 73010000 		.4byte	.LASF75
 1653 0606 01       		.byte	0x1
 1654 0607 9D       		.byte	0x9d
 1655 0608 30000000 		.4byte	0x30
 1656 060c 5F000000 		.4byte	.LLST3
 1657 0610 1F       		.uleb128 0x1f
 1658 0611 15000000 		.4byte	.LASF74
 1659 0615 01       		.byte	0x1
 1660 0616 9E       		.byte	0x9e
 1661 0617 CE000000 		.4byte	0xce
 1662 061b 7F000000 		.4byte	.LLST4
 1663 061f 20       		.uleb128 0x20
 1664 0620 706600   		.ascii	"pf\000"
 1665 0623 01       		.byte	0x1
 1666 0624 9E       		.byte	0x9e
 1667 0625 16050000 		.4byte	0x516
 1668 0629 9D000000 		.4byte	.LLST5
 1669 062d 1E       		.uleb128 0x1e
 1670 062e 61726700 		.ascii	"arg\000"
 1671 0632 01       		.byte	0x1
 1672 0633 9E       		.byte	0x9e
 1673 0634 8D020000 		.4byte	0x28d
 1674 0638 02       		.byte	0x2
 1675 0639 91       		.byte	0x91
 1676 063a 00       		.sleb128 0
 1677 063b 21       		.uleb128 0x21
 1678 063c 747000   		.ascii	"tp\000"
 1679 063f 01       		.byte	0x1
 1680 0640 A0       		.byte	0xa0
 1681 0641 4F020000 		.4byte	0x24f
 1682 0645 01       		.byte	0x1
 1683 0646 50       		.byte	0x50
 1684 0647 22       		.uleb128 0x22
 1685 0648 37050000 		.4byte	0x537
 1686 064c 06000000 		.4byte	.LBB10
 1687 0650 00000000 		.4byte	.Ldebug_ranges0+0
 1688 0654 01       		.byte	0x1
 1689 0655 A8       		.byte	0xa8
 1690 0656 1B       		.uleb128 0x1b
 1691 0657 53050000 		.4byte	0x553
 1692 065b 01       		.byte	0x1
 1693 065c 58       		.byte	0x58
 1694 065d 1B       		.uleb128 0x1b
 1695 065e 49050000 		.4byte	0x549
 1696 0662 01       		.byte	0x1
 1697 0663 50       		.byte	0x50
 1698 0664 00       		.byte	0
ARM GAS  /var/folders/dt/0wfd0knj7gs46m8vwfzktm600000gn/T//ccJimsz2.s 			page 31


 1699 0665 00       		.byte	0
 1700 0666 1D       		.uleb128 0x1d
 1701 0667 01       		.byte	0x1
 1702 0668 E3010000 		.4byte	.LASF77
 1703 066c 01       		.byte	0x1
 1704 066d BB       		.byte	0xbb
 1705 066e 01       		.byte	0x1
 1706 066f 4F020000 		.4byte	0x24f
 1707 0673 00000000 		.4byte	.LFB9
 1708 0677 2A000000 		.4byte	.LFE9
 1709 067b BC000000 		.4byte	.LLST6
 1710 067f 01       		.byte	0x1
 1711 0680 5C070000 		.4byte	0x75c
 1712 0684 20       		.uleb128 0x20
 1713 0685 77737000 		.ascii	"wsp\000"
 1714 0689 01       		.byte	0x1
 1715 068a BB       		.byte	0xbb
 1716 068b 8D020000 		.4byte	0x28d
 1717 068f E8000000 		.4byte	.LLST7
 1718 0693 1F       		.uleb128 0x1f
 1719 0694 73010000 		.4byte	.LASF75
 1720 0698 01       		.byte	0x1
 1721 0699 BB       		.byte	0xbb
 1722 069a 30000000 		.4byte	0x30
 1723 069e 09010000 		.4byte	.LLST8
 1724 06a2 1F       		.uleb128 0x1f
 1725 06a3 15000000 		.4byte	.LASF74
 1726 06a7 01       		.byte	0x1
 1727 06a8 BC       		.byte	0xbc
 1728 06a9 CE000000 		.4byte	0xce
 1729 06ad 2A010000 		.4byte	.LLST9
 1730 06b1 20       		.uleb128 0x20
 1731 06b2 706600   		.ascii	"pf\000"
 1732 06b5 01       		.byte	0x1
 1733 06b6 BC       		.byte	0xbc
 1734 06b7 16050000 		.4byte	0x516
 1735 06bb 4B010000 		.4byte	.LLST10
 1736 06bf 1E       		.uleb128 0x1e
 1737 06c0 61726700 		.ascii	"arg\000"
 1738 06c4 01       		.byte	0x1
 1739 06c5 BC       		.byte	0xbc
 1740 06c6 8D020000 		.4byte	0x28d
 1741 06ca 02       		.byte	0x2
 1742 06cb 91       		.byte	0x91
 1743 06cc 00       		.sleb128 0
 1744 06cd 23       		.uleb128 0x23
 1745 06ce 747000   		.ascii	"tp\000"
 1746 06d1 01       		.byte	0x1
 1747 06d2 BD       		.byte	0xbd
 1748 06d3 4F020000 		.4byte	0x24f
 1749 06d7 82010000 		.4byte	.LLST11
 1750 06db 24       		.uleb128 0x24
 1751 06dc 06000000 		.4byte	.LBB22
 1752 06e0 0C000000 		.4byte	.LBE22
 1753 06e4 F8060000 		.4byte	0x6f8
 1754 06e8 23       		.uleb128 0x23
 1755 06e9 746D7000 		.ascii	"tmp\000"
ARM GAS  /var/folders/dt/0wfd0knj7gs46m8vwfzktm600000gn/T//ccJimsz2.s 			page 32


 1756 06ed 01       		.byte	0x1
 1757 06ee C7       		.byte	0xc7
 1758 06ef 7B000000 		.4byte	0x7b
 1759 06f3 A0010000 		.4byte	.LLST12
 1760 06f7 00       		.byte	0
 1761 06f8 24       		.uleb128 0x24
 1762 06f9 1E000000 		.4byte	.LBB23
 1763 06fd 24000000 		.4byte	.LBE23
 1764 0701 15070000 		.4byte	0x715
 1765 0705 23       		.uleb128 0x23
 1766 0706 746D7000 		.ascii	"tmp\000"
 1767 070a 01       		.byte	0x1
 1768 070b C9       		.byte	0xc9
 1769 070c 7B000000 		.4byte	0x7b
 1770 0710 B3010000 		.4byte	.LLST13
 1771 0714 00       		.byte	0
 1772 0715 25       		.uleb128 0x25
 1773 0716 16000000 		.4byte	.LVL12
 1774 071a D6050000 		.4byte	0x5d6
 1775 071e 46070000 		.4byte	0x746
 1776 0722 26       		.uleb128 0x26
 1777 0723 01       		.byte	0x1
 1778 0724 53       		.byte	0x53
 1779 0725 03       		.byte	0x3
 1780 0726 F3       		.byte	0xf3
 1781 0727 01       		.uleb128 0x1
 1782 0728 53       		.byte	0x53
 1783 0729 26       		.uleb128 0x26
 1784 072a 01       		.byte	0x1
 1785 072b 52       		.byte	0x52
 1786 072c 03       		.byte	0x3
 1787 072d F3       		.byte	0xf3
 1788 072e 01       		.uleb128 0x1
 1789 072f 52       		.byte	0x52
 1790 0730 26       		.uleb128 0x26
 1791 0731 01       		.byte	0x1
 1792 0732 51       		.byte	0x51
 1793 0733 03       		.byte	0x3
 1794 0734 F3       		.byte	0xf3
 1795 0735 01       		.uleb128 0x1
 1796 0736 51       		.byte	0x51
 1797 0737 26       		.uleb128 0x26
 1798 0738 01       		.byte	0x1
 1799 0739 50       		.byte	0x50
 1800 073a 03       		.byte	0x3
 1801 073b F3       		.byte	0xf3
 1802 073c 01       		.uleb128 0x1
 1803 073d 50       		.byte	0x50
 1804 073e 26       		.uleb128 0x26
 1805 073f 02       		.byte	0x2
 1806 0740 7D       		.byte	0x7d
 1807 0741 00       		.sleb128 0
 1808 0742 02       		.byte	0x2
 1809 0743 74       		.byte	0x74
 1810 0744 00       		.sleb128 0
 1811 0745 00       		.byte	0
 1812 0746 27       		.uleb128 0x27
ARM GAS  /var/folders/dt/0wfd0knj7gs46m8vwfzktm600000gn/T//ccJimsz2.s 			page 33


 1813 0747 1E000000 		.4byte	.LVL14
 1814 074b BC0B0000 		.4byte	0xbbc
 1815 074f 26       		.uleb128 0x26
 1816 0750 01       		.byte	0x1
 1817 0751 51       		.byte	0x51
 1818 0752 01       		.byte	0x1
 1819 0753 30       		.byte	0x30
 1820 0754 26       		.uleb128 0x26
 1821 0755 01       		.byte	0x1
 1822 0756 50       		.byte	0x50
 1823 0757 02       		.byte	0x2
 1824 0758 74       		.byte	0x74
 1825 0759 00       		.sleb128 0
 1826 075a 00       		.byte	0
 1827 075b 00       		.byte	0
 1828 075c 1D       		.uleb128 0x1d
 1829 075d 01       		.byte	0x1
 1830 075e 33010000 		.4byte	.LASF78
 1831 0762 01       		.byte	0x1
 1832 0763 D9       		.byte	0xd9
 1833 0764 01       		.byte	0x1
 1834 0765 CE000000 		.4byte	0xce
 1835 0769 00000000 		.4byte	.LFB10
 1836 076d 30000000 		.4byte	.LFE10
 1837 0771 C6010000 		.4byte	.LLST14
 1838 0775 01       		.byte	0x1
 1839 0776 DA070000 		.4byte	0x7da
 1840 077a 1F       		.uleb128 0x1f
 1841 077b 9E010000 		.4byte	.LASF79
 1842 077f 01       		.byte	0x1
 1843 0780 D9       		.byte	0xd9
 1844 0781 CE000000 		.4byte	0xce
 1845 0785 E6010000 		.4byte	.LLST15
 1846 0789 28       		.uleb128 0x28
 1847 078a DB010000 		.4byte	.LASF80
 1848 078e 01       		.byte	0x1
 1849 078f DA       		.byte	0xda
 1850 0790 CE000000 		.4byte	0xce
 1851 0794 01       		.byte	0x1
 1852 0795 54       		.byte	0x54
 1853 0796 24       		.uleb128 0x24
 1854 0797 02000000 		.4byte	.LBB24
 1855 079b 08000000 		.4byte	.LBE24
 1856 079f B3070000 		.4byte	0x7b3
 1857 07a3 23       		.uleb128 0x23
 1858 07a4 746D7000 		.ascii	"tmp\000"
 1859 07a8 01       		.byte	0x1
 1860 07a9 DE       		.byte	0xde
 1861 07aa 7B000000 		.4byte	0x7b
 1862 07ae 07020000 		.4byte	.LLST16
 1863 07b2 00       		.byte	0
 1864 07b3 24       		.uleb128 0x24
 1865 07b4 20000000 		.4byte	.LBB25
 1866 07b8 26000000 		.4byte	.LBE25
 1867 07bc D0070000 		.4byte	0x7d0
 1868 07c0 23       		.uleb128 0x23
 1869 07c1 746D7000 		.ascii	"tmp\000"
ARM GAS  /var/folders/dt/0wfd0knj7gs46m8vwfzktm600000gn/T//ccJimsz2.s 			page 34


 1870 07c5 01       		.byte	0x1
 1871 07c6 E9       		.byte	0xe9
 1872 07c7 7B000000 		.4byte	0x7b
 1873 07cb 1A020000 		.4byte	.LLST17
 1874 07cf 00       		.byte	0
 1875 07d0 29       		.uleb128 0x29
 1876 07d1 20000000 		.4byte	.LVL22
 1877 07d5 D50B0000 		.4byte	0xbd5
 1878 07d9 00       		.byte	0
 1879 07da 1D       		.uleb128 0x1d
 1880 07db 01       		.byte	0x1
 1881 07dc 1A020000 		.4byte	.LASF81
 1882 07e0 01       		.byte	0x1
 1883 07e1 FA       		.byte	0xfa
 1884 07e2 01       		.byte	0x1
 1885 07e3 4F020000 		.4byte	0x24f
 1886 07e7 00000000 		.4byte	.LFB11
 1887 07eb 1A000000 		.4byte	.LFE11
 1888 07ef 2D020000 		.4byte	.LLST18
 1889 07f3 01       		.byte	0x1
 1890 07f4 53080000 		.4byte	0x853
 1891 07f8 20       		.uleb128 0x20
 1892 07f9 747000   		.ascii	"tp\000"
 1893 07fc 01       		.byte	0x1
 1894 07fd FA       		.byte	0xfa
 1895 07fe 4F020000 		.4byte	0x24f
 1896 0802 4D020000 		.4byte	.LLST19
 1897 0806 2A       		.uleb128 0x2a
 1898 0807 38000000 		.4byte	.Ldebug_ranges0+0x38
 1899 080b 1F080000 		.4byte	0x81f
 1900 080f 23       		.uleb128 0x23
 1901 0810 746D7000 		.ascii	"tmp\000"
 1902 0814 01       		.byte	0x1
 1903 0815 FC       		.byte	0xfc
 1904 0816 7B000000 		.4byte	0x7b
 1905 081a 6B020000 		.4byte	.LLST20
 1906 081e 00       		.byte	0
 1907 081f 24       		.uleb128 0x24
 1908 0820 10000000 		.4byte	.LBB28
 1909 0824 16000000 		.4byte	.LBE28
 1910 0828 3D080000 		.4byte	0x83d
 1911 082c 2B       		.uleb128 0x2b
 1912 082d 746D7000 		.ascii	"tmp\000"
 1913 0831 01       		.byte	0x1
 1914 0832 0101     		.2byte	0x101
 1915 0834 7B000000 		.4byte	0x7b
 1916 0838 7E020000 		.4byte	.LLST21
 1917 083c 00       		.byte	0
 1918 083d 27       		.uleb128 0x27
 1919 083e 10000000 		.4byte	.LVL28
 1920 0842 BC0B0000 		.4byte	0xbbc
 1921 0846 26       		.uleb128 0x26
 1922 0847 01       		.byte	0x1
 1923 0848 51       		.byte	0x51
 1924 0849 01       		.byte	0x1
 1925 084a 30       		.byte	0x30
 1926 084b 26       		.uleb128 0x26
ARM GAS  /var/folders/dt/0wfd0knj7gs46m8vwfzktm600000gn/T//ccJimsz2.s 			page 35


 1927 084c 01       		.byte	0x1
 1928 084d 50       		.byte	0x50
 1929 084e 02       		.byte	0x2
 1930 084f 74       		.byte	0x74
 1931 0850 00       		.sleb128 0
 1932 0851 00       		.byte	0
 1933 0852 00       		.byte	0
 1934 0853 2C       		.uleb128 0x2c
 1935 0854 01       		.byte	0x1
 1936 0855 AE010000 		.4byte	.LASF82
 1937 0859 01       		.byte	0x1
 1938 085a 1101     		.2byte	0x111
 1939 085c 01       		.byte	0x1
 1940 085d 00000000 		.4byte	.LFB12
 1941 0861 16000000 		.4byte	.LFE12
 1942 0865 02       		.byte	0x2
 1943 0866 7D       		.byte	0x7d
 1944 0867 00       		.sleb128 0
 1945 0868 01       		.byte	0x1
 1946 0869 AF080000 		.4byte	0x8af
 1947 086d 2D       		.uleb128 0x2d
 1948 086e 747000   		.ascii	"tp\000"
 1949 0871 01       		.byte	0x1
 1950 0872 1101     		.2byte	0x111
 1951 0874 4F020000 		.4byte	0x24f
 1952 0878 01       		.byte	0x1
 1953 0879 50       		.byte	0x50
 1954 087a 24       		.uleb128 0x24
 1955 087b 00000000 		.4byte	.LBB29
 1956 087f 06000000 		.4byte	.LBE29
 1957 0883 98080000 		.4byte	0x898
 1958 0887 2B       		.uleb128 0x2b
 1959 0888 746D7000 		.ascii	"tmp\000"
 1960 088c 01       		.byte	0x1
 1961 088d 1301     		.2byte	0x113
 1962 088f 7B000000 		.4byte	0x7b
 1963 0893 91020000 		.4byte	.LLST22
 1964 0897 00       		.byte	0
 1965 0898 2E       		.uleb128 0x2e
 1966 0899 50000000 		.4byte	.Ldebug_ranges0+0x50
 1967 089d 2B       		.uleb128 0x2b
 1968 089e 746D7000 		.ascii	"tmp\000"
 1969 08a2 01       		.byte	0x1
 1970 08a3 1501     		.2byte	0x115
 1971 08a5 7B000000 		.4byte	0x7b
 1972 08a9 A4020000 		.4byte	.LLST23
 1973 08ad 00       		.byte	0
 1974 08ae 00       		.byte	0
 1975 08af 2F       		.uleb128 0x2f
 1976 08b0 01       		.byte	0x1
 1977 08b1 C5030000 		.4byte	.LASF83
 1978 08b5 01       		.byte	0x1
 1979 08b6 2401     		.2byte	0x124
 1980 08b8 01       		.byte	0x1
 1981 08b9 00000000 		.4byte	.LFB13
 1982 08bd 18000000 		.4byte	.LFE13
 1983 08c1 B7020000 		.4byte	.LLST24
ARM GAS  /var/folders/dt/0wfd0knj7gs46m8vwfzktm600000gn/T//ccJimsz2.s 			page 36


 1984 08c5 01       		.byte	0x1
 1985 08c6 2D090000 		.4byte	0x92d
 1986 08ca 30       		.uleb128 0x30
 1987 08cb 59020000 		.4byte	.LASF84
 1988 08cf 01       		.byte	0x1
 1989 08d0 2401     		.2byte	0x124
 1990 08d2 EF000000 		.4byte	0xef
 1991 08d6 D7020000 		.4byte	.LLST25
 1992 08da 24       		.uleb128 0x24
 1993 08db 04000000 		.4byte	.LBB32
 1994 08df 0A000000 		.4byte	.LBE32
 1995 08e3 F8080000 		.4byte	0x8f8
 1996 08e7 2B       		.uleb128 0x2b
 1997 08e8 746D7000 		.ascii	"tmp\000"
 1998 08ec 01       		.byte	0x1
 1999 08ed 2801     		.2byte	0x128
 2000 08ef 7B000000 		.4byte	0x7b
 2001 08f3 03030000 		.4byte	.LLST26
 2002 08f7 00       		.byte	0
 2003 08f8 24       		.uleb128 0x24
 2004 08f9 10000000 		.4byte	.LBB33
 2005 08fd 18000000 		.4byte	.LBE33
 2006 0901 16090000 		.4byte	0x916
 2007 0905 2B       		.uleb128 0x2b
 2008 0906 746D7000 		.ascii	"tmp\000"
 2009 090a 01       		.byte	0x1
 2010 090b 2A01     		.2byte	0x12a
 2011 090d 7B000000 		.4byte	0x7b
 2012 0911 16030000 		.4byte	.LLST27
 2013 0915 00       		.byte	0
 2014 0916 27       		.uleb128 0x27
 2015 0917 10000000 		.4byte	.LVL40
 2016 091b DF0B0000 		.4byte	0xbdf
 2017 091f 26       		.uleb128 0x26
 2018 0920 01       		.byte	0x1
 2019 0921 51       		.byte	0x51
 2020 0922 03       		.byte	0x3
 2021 0923 F3       		.byte	0xf3
 2022 0924 01       		.uleb128 0x1
 2023 0925 50       		.byte	0x50
 2024 0926 26       		.uleb128 0x26
 2025 0927 01       		.byte	0x1
 2026 0928 50       		.byte	0x50
 2027 0929 01       		.byte	0x1
 2028 092a 36       		.byte	0x36
 2029 092b 00       		.byte	0
 2030 092c 00       		.byte	0
 2031 092d 2F       		.uleb128 0x2f
 2032 092e 01       		.byte	0x1
 2033 092f 7C020000 		.4byte	.LASF85
 2034 0933 01       		.byte	0x1
 2035 0934 3501     		.2byte	0x135
 2036 0936 01       		.byte	0x1
 2037 0937 00000000 		.4byte	.LFB14
 2038 093b 24000000 		.4byte	.LFE14
 2039 093f 29030000 		.4byte	.LLST28
 2040 0943 01       		.byte	0x1
ARM GAS  /var/folders/dt/0wfd0knj7gs46m8vwfzktm600000gn/T//ccJimsz2.s 			page 37


 2041 0944 A4090000 		.4byte	0x9a4
 2042 0948 30       		.uleb128 0x30
 2043 0949 59020000 		.4byte	.LASF84
 2044 094d 01       		.byte	0x1
 2045 094e 3501     		.2byte	0x135
 2046 0950 EF000000 		.4byte	0xef
 2047 0954 49030000 		.4byte	.LLST29
 2048 0958 24       		.uleb128 0x24
 2049 0959 02000000 		.4byte	.LBB34
 2050 095d 08000000 		.4byte	.LBE34
 2051 0961 76090000 		.4byte	0x976
 2052 0965 2B       		.uleb128 0x2b
 2053 0966 746D7000 		.ascii	"tmp\000"
 2054 096a 01       		.byte	0x1
 2055 096b 3701     		.2byte	0x137
 2056 096d 7B000000 		.4byte	0x7b
 2057 0971 77030000 		.4byte	.LLST30
 2058 0975 00       		.byte	0
 2059 0976 24       		.uleb128 0x24
 2060 0977 16000000 		.4byte	.LBB35
 2061 097b 24000000 		.4byte	.LBE35
 2062 097f 94090000 		.4byte	0x994
 2063 0983 2B       		.uleb128 0x2b
 2064 0984 746D7000 		.ascii	"tmp\000"
 2065 0988 01       		.byte	0x1
 2066 0989 3A01     		.2byte	0x13a
 2067 098b 7B000000 		.4byte	0x7b
 2068 098f 8A030000 		.4byte	.LLST31
 2069 0993 00       		.byte	0
 2070 0994 27       		.uleb128 0x27
 2071 0995 16000000 		.4byte	.LVL49
 2072 0999 DF0B0000 		.4byte	0xbdf
 2073 099d 26       		.uleb128 0x26
 2074 099e 01       		.byte	0x1
 2075 099f 50       		.byte	0x50
 2076 09a0 01       		.byte	0x1
 2077 09a1 36       		.byte	0x36
 2078 09a2 00       		.byte	0
 2079 09a3 00       		.byte	0
 2080 09a4 2F       		.uleb128 0x2f
 2081 09a5 01       		.byte	0x1
 2082 09a6 90030000 		.4byte	.LASF86
 2083 09aa 01       		.byte	0x1
 2084 09ab 4401     		.2byte	0x144
 2085 09ad 01       		.byte	0x1
 2086 09ae 00000000 		.4byte	.LFB15
 2087 09b2 28000000 		.4byte	.LFE15
 2088 09b6 9D030000 		.4byte	.LLST32
 2089 09ba 01       		.byte	0x1
 2090 09bb 050A0000 		.4byte	0xa05
 2091 09bf 24       		.uleb128 0x24
 2092 09c0 02000000 		.4byte	.LBB36
 2093 09c4 08000000 		.4byte	.LBE36
 2094 09c8 DD090000 		.4byte	0x9dd
 2095 09cc 2B       		.uleb128 0x2b
 2096 09cd 746D7000 		.ascii	"tmp\000"
 2097 09d1 01       		.byte	0x1
ARM GAS  /var/folders/dt/0wfd0knj7gs46m8vwfzktm600000gn/T//ccJimsz2.s 			page 38


 2098 09d2 4601     		.2byte	0x146
 2099 09d4 7B000000 		.4byte	0x7b
 2100 09d8 BD030000 		.4byte	.LLST33
 2101 09dc 00       		.byte	0
 2102 09dd 24       		.uleb128 0x24
 2103 09de 1A000000 		.4byte	.LBB37
 2104 09e2 28000000 		.4byte	.LBE37
 2105 09e6 FB090000 		.4byte	0x9fb
 2106 09ea 2B       		.uleb128 0x2b
 2107 09eb 746D7000 		.ascii	"tmp\000"
 2108 09ef 01       		.byte	0x1
 2109 09f0 4801     		.2byte	0x148
 2110 09f2 7B000000 		.4byte	0x7b
 2111 09f6 D0030000 		.4byte	.LLST34
 2112 09fa 00       		.byte	0
 2113 09fb 29       		.uleb128 0x29
 2114 09fc 1A000000 		.4byte	.LVL55
 2115 0a00 FC0B0000 		.4byte	0xbfc
 2116 0a04 00       		.byte	0
 2117 0a05 2F       		.uleb128 0x2f
 2118 0a06 01       		.byte	0x1
 2119 0a07 28000000 		.4byte	.LASF87
 2120 0a0b 01       		.byte	0x1
 2121 0a0c 6E01     		.2byte	0x16e
 2122 0a0e 01       		.byte	0x1
 2123 0a0f 00000000 		.4byte	.LFB17
 2124 0a13 40000000 		.4byte	.LFE17
 2125 0a17 E3030000 		.4byte	.LLST35
 2126 0a1b 01       		.byte	0x1
 2127 0a1c 840A0000 		.4byte	0xa84
 2128 0a20 31       		.uleb128 0x31
 2129 0a21 6D736700 		.ascii	"msg\000"
 2130 0a25 01       		.byte	0x1
 2131 0a26 6E01     		.2byte	0x16e
 2132 0a28 D9000000 		.4byte	0xd9
 2133 0a2c 03040000 		.4byte	.LLST36
 2134 0a30 32       		.uleb128 0x32
 2135 0a31 747000   		.ascii	"tp\000"
 2136 0a34 01       		.byte	0x1
 2137 0a35 6F01     		.2byte	0x16f
 2138 0a37 4F020000 		.4byte	0x24f
 2139 0a3b 01       		.byte	0x1
 2140 0a3c 54       		.byte	0x54
 2141 0a3d 33       		.uleb128 0x33
 2142 0a3e 5F050000 		.4byte	0x55f
 2143 0a42 12000000 		.4byte	.LBB38
 2144 0a46 68000000 		.4byte	.Ldebug_ranges0+0x68
 2145 0a4a 01       		.byte	0x1
 2146 0a4b 7701     		.2byte	0x177
 2147 0a4d 6A0A0000 		.4byte	0xa6a
 2148 0a51 1C       		.uleb128 0x1c
 2149 0a52 70050000 		.4byte	0x570
 2150 0a56 24040000 		.4byte	.LLST37
 2151 0a5a 2E       		.uleb128 0x2e
 2152 0a5b 80000000 		.4byte	.Ldebug_ranges0+0x80
 2153 0a5f 34       		.uleb128 0x34
 2154 0a60 7B050000 		.4byte	0x57b
ARM GAS  /var/folders/dt/0wfd0knj7gs46m8vwfzktm600000gn/T//ccJimsz2.s 			page 39


 2155 0a64 39040000 		.4byte	.LLST38
 2156 0a68 00       		.byte	0
 2157 0a69 00       		.byte	0
 2158 0a6a 29       		.uleb128 0x29
 2159 0a6b 1C000000 		.4byte	.LVL61
 2160 0a6f 060C0000 		.4byte	0xc06
 2161 0a73 35       		.uleb128 0x35
 2162 0a74 3C000000 		.4byte	.LVL63
 2163 0a78 01       		.byte	0x1
 2164 0a79 1E0C0000 		.4byte	0xc1e
 2165 0a7d 26       		.uleb128 0x26
 2166 0a7e 01       		.byte	0x1
 2167 0a7f 50       		.byte	0x50
 2168 0a80 01       		.byte	0x1
 2169 0a81 3E       		.byte	0x3e
 2170 0a82 00       		.byte	0
 2171 0a83 00       		.byte	0
 2172 0a84 2C       		.uleb128 0x2c
 2173 0a85 01       		.byte	0x1
 2174 0a86 74000000 		.4byte	.LASF88
 2175 0a8a 01       		.byte	0x1
 2176 0a8b 5901     		.2byte	0x159
 2177 0a8d 01       		.byte	0x1
 2178 0a8e 00000000 		.4byte	.LFB16
 2179 0a92 0A000000 		.4byte	.LFE16
 2180 0a96 02       		.byte	0x2
 2181 0a97 7D       		.byte	0x7d
 2182 0a98 00       		.sleb128 0
 2183 0a99 01       		.byte	0x1
 2184 0a9a DF0A0000 		.4byte	0xadf
 2185 0a9e 31       		.uleb128 0x31
 2186 0a9f 6D736700 		.ascii	"msg\000"
 2187 0aa3 01       		.byte	0x1
 2188 0aa4 5901     		.2byte	0x159
 2189 0aa6 D9000000 		.4byte	0xd9
 2190 0aaa 4C040000 		.4byte	.LLST39
 2191 0aae 24       		.uleb128 0x24
 2192 0aaf 00000000 		.4byte	.LBB42
 2193 0ab3 06000000 		.4byte	.LBE42
 2194 0ab7 CC0A0000 		.4byte	0xacc
 2195 0abb 2B       		.uleb128 0x2b
 2196 0abc 746D7000 		.ascii	"tmp\000"
 2197 0ac0 01       		.byte	0x1
 2198 0ac1 5B01     		.2byte	0x15b
 2199 0ac3 7B000000 		.4byte	0x7b
 2200 0ac7 6D040000 		.4byte	.LLST40
 2201 0acb 00       		.byte	0
 2202 0acc 35       		.uleb128 0x35
 2203 0acd 0A000000 		.4byte	.LVL67
 2204 0ad1 01       		.byte	0x1
 2205 0ad2 050A0000 		.4byte	0xa05
 2206 0ad6 26       		.uleb128 0x26
 2207 0ad7 01       		.byte	0x1
 2208 0ad8 50       		.byte	0x50
 2209 0ad9 03       		.byte	0x3
 2210 0ada F3       		.byte	0xf3
 2211 0adb 01       		.uleb128 0x1
ARM GAS  /var/folders/dt/0wfd0knj7gs46m8vwfzktm600000gn/T//ccJimsz2.s 			page 40


 2212 0adc 50       		.byte	0x50
 2213 0add 00       		.byte	0
 2214 0ade 00       		.byte	0
 2215 0adf 36       		.uleb128 0x36
 2216 0ae0 01       		.byte	0x1
 2217 0ae1 B4030000 		.4byte	.LASF89
 2218 0ae5 01       		.byte	0x1
 2219 0ae6 A401     		.2byte	0x1a4
 2220 0ae8 01       		.byte	0x1
 2221 0ae9 D9000000 		.4byte	0xd9
 2222 0aed 00000000 		.4byte	.LFB18
 2223 0af1 38000000 		.4byte	.LFE18
 2224 0af5 80040000 		.4byte	.LLST41
 2225 0af9 01       		.byte	0x1
 2226 0afa A20B0000 		.4byte	0xba2
 2227 0afe 31       		.uleb128 0x31
 2228 0aff 747000   		.ascii	"tp\000"
 2229 0b02 01       		.byte	0x1
 2230 0b03 A401     		.2byte	0x1a4
 2231 0b05 4F020000 		.4byte	0x24f
 2232 0b09 A0040000 		.4byte	.LLST42
 2233 0b0d 32       		.uleb128 0x32
 2234 0b0e 6D736700 		.ascii	"msg\000"
 2235 0b12 01       		.byte	0x1
 2236 0b13 A501     		.2byte	0x1a5
 2237 0b15 D9000000 		.4byte	0xd9
 2238 0b19 01       		.byte	0x1
 2239 0b1a 55       		.byte	0x55
 2240 0b1b 24       		.uleb128 0x24
 2241 0b1c 04000000 		.4byte	.LBB43
 2242 0b20 0A000000 		.4byte	.LBE43
 2243 0b24 390B0000 		.4byte	0xb39
 2244 0b28 2B       		.uleb128 0x2b
 2245 0b29 746D7000 		.ascii	"tmp\000"
 2246 0b2d 01       		.byte	0x1
 2247 0b2e A901     		.2byte	0x1a9
 2248 0b30 7B000000 		.4byte	0x7b
 2249 0b34 BE040000 		.4byte	.LLST43
 2250 0b38 00       		.byte	0
 2251 0b39 33       		.uleb128 0x33
 2252 0b3a 8C050000 		.4byte	0x58c
 2253 0b3e 12000000 		.4byte	.LBB44
 2254 0b42 98000000 		.4byte	.Ldebug_ranges0+0x98
 2255 0b46 01       		.byte	0x1
 2256 0b47 AF01     		.2byte	0x1af
 2257 0b49 600B0000 		.4byte	0xb60
 2258 0b4d 1C       		.uleb128 0x1c
 2259 0b4e A3050000 		.4byte	0x5a3
 2260 0b52 D1040000 		.4byte	.LLST44
 2261 0b56 1C       		.uleb128 0x1c
 2262 0b57 99050000 		.4byte	0x599
 2263 0b5b F3040000 		.4byte	.LLST45
 2264 0b5f 00       		.byte	0
 2265 0b60 24       		.uleb128 0x24
 2266 0b61 22000000 		.4byte	.LBB48
 2267 0b65 28000000 		.4byte	.LBE48
 2268 0b69 7E0B0000 		.4byte	0xb7e
ARM GAS  /var/folders/dt/0wfd0knj7gs46m8vwfzktm600000gn/T//ccJimsz2.s 			page 41


 2269 0b6d 2B       		.uleb128 0x2b
 2270 0b6e 746D7000 		.ascii	"tmp\000"
 2271 0b72 01       		.byte	0x1
 2272 0b73 B301     		.2byte	0x1b3
 2273 0b75 7B000000 		.4byte	0x7b
 2274 0b79 06050000 		.4byte	.LLST46
 2275 0b7d 00       		.byte	0
 2276 0b7e 25       		.uleb128 0x25
 2277 0b7f 20000000 		.4byte	.LVL74
 2278 0b83 1E0C0000 		.4byte	0xc1e
 2279 0b87 910B0000 		.4byte	0xb91
 2280 0b8b 26       		.uleb128 0x26
 2281 0b8c 01       		.byte	0x1
 2282 0b8d 50       		.byte	0x50
 2283 0b8e 01       		.byte	0x1
 2284 0b8f 37       		.byte	0x37
 2285 0b90 00       		.byte	0
 2286 0b91 27       		.uleb128 0x27
 2287 0b92 2E000000 		.4byte	.LVL78
 2288 0b96 320C0000 		.4byte	0xc32
 2289 0b9a 26       		.uleb128 0x26
 2290 0b9b 01       		.byte	0x1
 2291 0b9c 50       		.byte	0x50
 2292 0b9d 02       		.byte	0x2
 2293 0b9e 74       		.byte	0x74
 2294 0b9f 00       		.sleb128 0
 2295 0ba0 00       		.byte	0
 2296 0ba1 00       		.byte	0
 2297 0ba2 37       		.uleb128 0x37
 2298 0ba3 21000000 		.4byte	.LASF90
 2299 0ba7 09       		.byte	0x9
 2300 0ba8 DB       		.byte	0xdb
 2301 0ba9 0E040000 		.4byte	0x40e
 2302 0bad 01       		.byte	0x1
 2303 0bae 01       		.byte	0x1
 2304 0baf 37       		.uleb128 0x37
 2305 0bb0 E1030000 		.4byte	.LASF91
 2306 0bb4 0A       		.byte	0xa
 2307 0bb5 6F       		.byte	0x6f
 2308 0bb6 76040000 		.4byte	0x476
 2309 0bba 01       		.byte	0x1
 2310 0bbb 01       		.byte	0x1
 2311 0bbc 38       		.uleb128 0x38
 2312 0bbd 01       		.byte	0x1
 2313 0bbe 8B010000 		.4byte	.LASF97
 2314 0bc2 0A       		.byte	0xa
 2315 0bc3 99       		.byte	0x99
 2316 0bc4 01       		.byte	0x1
 2317 0bc5 01       		.byte	0x1
 2318 0bc6 D50B0000 		.4byte	0xbd5
 2319 0bca 0E       		.uleb128 0xe
 2320 0bcb 4F020000 		.4byte	0x24f
 2321 0bcf 0E       		.uleb128 0xe
 2322 0bd0 D9000000 		.4byte	0xd9
 2323 0bd4 00       		.byte	0
 2324 0bd5 39       		.uleb128 0x39
 2325 0bd6 01       		.byte	0x1
ARM GAS  /var/folders/dt/0wfd0knj7gs46m8vwfzktm600000gn/T//ccJimsz2.s 			page 42


 2326 0bd7 09010000 		.4byte	.LASF94
 2327 0bdb 0A       		.byte	0xa
 2328 0bdc 9C       		.byte	0x9c
 2329 0bdd 01       		.byte	0x1
 2330 0bde 01       		.byte	0x1
 2331 0bdf 3A       		.uleb128 0x3a
 2332 0be0 01       		.byte	0x1
 2333 0be1 28040000 		.4byte	.LASF93
 2334 0be5 0A       		.byte	0xa
 2335 0be6 96       		.byte	0x96
 2336 0be7 01       		.byte	0x1
 2337 0be8 D9000000 		.4byte	0xd9
 2338 0bec 01       		.byte	0x1
 2339 0bed FC0B0000 		.4byte	0xbfc
 2340 0bf1 0E       		.uleb128 0xe
 2341 0bf2 AD000000 		.4byte	0xad
 2342 0bf6 0E       		.uleb128 0xe
 2343 0bf7 EF000000 		.4byte	0xef
 2344 0bfb 00       		.byte	0
 2345 0bfc 39       		.uleb128 0x39
 2346 0bfd 01       		.byte	0x1
 2347 0bfe 26020000 		.4byte	.LASF95
 2348 0c02 0A       		.byte	0xa
 2349 0c03 A2       		.byte	0xa2
 2350 0c04 01       		.byte	0x1
 2351 0c05 01       		.byte	0x1
 2352 0c06 3A       		.uleb128 0x3a
 2353 0c07 01       		.byte	0x1
 2354 0c08 5F030000 		.4byte	.LASF96
 2355 0c0c 0A       		.byte	0xa
 2356 0c0d 90       		.byte	0x90
 2357 0c0e 01       		.byte	0x1
 2358 0c0f 4F020000 		.4byte	0x24f
 2359 0c13 01       		.byte	0x1
 2360 0c14 1E0C0000 		.4byte	0xc1e
 2361 0c18 0E       		.uleb128 0xe
 2362 0c19 4F020000 		.4byte	0x24f
 2363 0c1d 00       		.byte	0
 2364 0c1e 38       		.uleb128 0x38
 2365 0c1f 01       		.byte	0x1
 2366 0c20 16030000 		.4byte	.LASF98
 2367 0c24 0A       		.byte	0xa
 2368 0c25 93       		.byte	0x93
 2369 0c26 01       		.byte	0x1
 2370 0c27 01       		.byte	0x1
 2371 0c28 320C0000 		.4byte	0xc32
 2372 0c2c 0E       		.uleb128 0xe
 2373 0c2d AD000000 		.4byte	0xad
 2374 0c31 00       		.byte	0
 2375 0c32 3B       		.uleb128 0x3b
 2376 0c33 01       		.byte	0x1
 2377 0c34 02030000 		.4byte	.LASF104
 2378 0c38 0C       		.byte	0xc
 2379 0c39 3A       		.byte	0x3a
 2380 0c3a 01       		.byte	0x1
 2381 0c3b 01       		.byte	0x1
 2382 0c3c 0E       		.uleb128 0xe
ARM GAS  /var/folders/dt/0wfd0knj7gs46m8vwfzktm600000gn/T//ccJimsz2.s 			page 43


 2383 0c3d 4F020000 		.4byte	0x24f
 2384 0c41 00       		.byte	0
 2385 0c42 00       		.byte	0
 2386              		.section	.debug_abbrev,"",%progbits
 2387              	.Ldebug_abbrev0:
 2388 0000 01       		.uleb128 0x1
 2389 0001 11       		.uleb128 0x11
 2390 0002 01       		.byte	0x1
 2391 0003 25       		.uleb128 0x25
 2392 0004 0E       		.uleb128 0xe
 2393 0005 13       		.uleb128 0x13
 2394 0006 0B       		.uleb128 0xb
 2395 0007 03       		.uleb128 0x3
 2396 0008 0E       		.uleb128 0xe
 2397 0009 1B       		.uleb128 0x1b
 2398 000a 0E       		.uleb128 0xe
 2399 000b 55       		.uleb128 0x55
 2400 000c 06       		.uleb128 0x6
 2401 000d 11       		.uleb128 0x11
 2402 000e 01       		.uleb128 0x1
 2403 000f 52       		.uleb128 0x52
 2404 0010 01       		.uleb128 0x1
 2405 0011 10       		.uleb128 0x10
 2406 0012 06       		.uleb128 0x6
 2407 0013 00       		.byte	0
 2408 0014 00       		.byte	0
 2409 0015 02       		.uleb128 0x2
 2410 0016 24       		.uleb128 0x24
 2411 0017 00       		.byte	0
 2412 0018 0B       		.uleb128 0xb
 2413 0019 0B       		.uleb128 0xb
 2414 001a 3E       		.uleb128 0x3e
 2415 001b 0B       		.uleb128 0xb
 2416 001c 03       		.uleb128 0x3
 2417 001d 08       		.uleb128 0x8
 2418 001e 00       		.byte	0
 2419 001f 00       		.byte	0
 2420 0020 03       		.uleb128 0x3
 2421 0021 16       		.uleb128 0x16
 2422 0022 00       		.byte	0
 2423 0023 03       		.uleb128 0x3
 2424 0024 0E       		.uleb128 0xe
 2425 0025 3A       		.uleb128 0x3a
 2426 0026 0B       		.uleb128 0xb
 2427 0027 3B       		.uleb128 0x3b
 2428 0028 0B       		.uleb128 0xb
 2429 0029 49       		.uleb128 0x49
 2430 002a 13       		.uleb128 0x13
 2431 002b 00       		.byte	0
 2432 002c 00       		.byte	0
 2433 002d 04       		.uleb128 0x4
 2434 002e 24       		.uleb128 0x24
 2435 002f 00       		.byte	0
 2436 0030 0B       		.uleb128 0xb
 2437 0031 0B       		.uleb128 0xb
 2438 0032 3E       		.uleb128 0x3e
 2439 0033 0B       		.uleb128 0xb
ARM GAS  /var/folders/dt/0wfd0knj7gs46m8vwfzktm600000gn/T//ccJimsz2.s 			page 44


 2440 0034 03       		.uleb128 0x3
 2441 0035 0E       		.uleb128 0xe
 2442 0036 00       		.byte	0
 2443 0037 00       		.byte	0
 2444 0038 05       		.uleb128 0x5
 2445 0039 13       		.uleb128 0x13
 2446 003a 01       		.byte	0x1
 2447 003b 03       		.uleb128 0x3
 2448 003c 0E       		.uleb128 0xe
 2449 003d 0B       		.uleb128 0xb
 2450 003e 0B       		.uleb128 0xb
 2451 003f 3A       		.uleb128 0x3a
 2452 0040 0B       		.uleb128 0xb
 2453 0041 3B       		.uleb128 0x3b
 2454 0042 0B       		.uleb128 0xb
 2455 0043 01       		.uleb128 0x1
 2456 0044 13       		.uleb128 0x13
 2457 0045 00       		.byte	0
 2458 0046 00       		.byte	0
 2459 0047 06       		.uleb128 0x6
 2460 0048 0D       		.uleb128 0xd
 2461 0049 00       		.byte	0
 2462 004a 03       		.uleb128 0x3
 2463 004b 0E       		.uleb128 0xe
 2464 004c 3A       		.uleb128 0x3a
 2465 004d 0B       		.uleb128 0xb
 2466 004e 3B       		.uleb128 0x3b
 2467 004f 0B       		.uleb128 0xb
 2468 0050 49       		.uleb128 0x49
 2469 0051 13       		.uleb128 0x13
 2470 0052 38       		.uleb128 0x38
 2471 0053 0A       		.uleb128 0xa
 2472 0054 00       		.byte	0
 2473 0055 00       		.byte	0
 2474 0056 07       		.uleb128 0x7
 2475 0057 0D       		.uleb128 0xd
 2476 0058 00       		.byte	0
 2477 0059 03       		.uleb128 0x3
 2478 005a 08       		.uleb128 0x8
 2479 005b 3A       		.uleb128 0x3a
 2480 005c 0B       		.uleb128 0xb
 2481 005d 3B       		.uleb128 0x3b
 2482 005e 0B       		.uleb128 0xb
 2483 005f 49       		.uleb128 0x49
 2484 0060 13       		.uleb128 0x13
 2485 0061 38       		.uleb128 0x38
 2486 0062 0A       		.uleb128 0xa
 2487 0063 00       		.byte	0
 2488 0064 00       		.byte	0
 2489 0065 08       		.uleb128 0x8
 2490 0066 13       		.uleb128 0x13
 2491 0067 01       		.byte	0x1
 2492 0068 0B       		.uleb128 0xb
 2493 0069 0B       		.uleb128 0xb
 2494 006a 3A       		.uleb128 0x3a
 2495 006b 0B       		.uleb128 0xb
 2496 006c 3B       		.uleb128 0x3b
ARM GAS  /var/folders/dt/0wfd0knj7gs46m8vwfzktm600000gn/T//ccJimsz2.s 			page 45


 2497 006d 0B       		.uleb128 0xb
 2498 006e 01       		.uleb128 0x1
 2499 006f 13       		.uleb128 0x13
 2500 0070 00       		.byte	0
 2501 0071 00       		.byte	0
 2502 0072 09       		.uleb128 0x9
 2503 0073 0F       		.uleb128 0xf
 2504 0074 00       		.byte	0
 2505 0075 0B       		.uleb128 0xb
 2506 0076 0B       		.uleb128 0xb
 2507 0077 49       		.uleb128 0x49
 2508 0078 13       		.uleb128 0x13
 2509 0079 00       		.byte	0
 2510 007a 00       		.byte	0
 2511 007b 0A       		.uleb128 0xa
 2512 007c 0F       		.uleb128 0xf
 2513 007d 00       		.byte	0
 2514 007e 0B       		.uleb128 0xb
 2515 007f 0B       		.uleb128 0xb
 2516 0080 00       		.byte	0
 2517 0081 00       		.byte	0
 2518 0082 0B       		.uleb128 0xb
 2519 0083 13       		.uleb128 0x13
 2520 0084 01       		.byte	0x1
 2521 0085 03       		.uleb128 0x3
 2522 0086 0E       		.uleb128 0xe
 2523 0087 0B       		.uleb128 0xb
 2524 0088 0B       		.uleb128 0xb
 2525 0089 3A       		.uleb128 0x3a
 2526 008a 0B       		.uleb128 0xb
 2527 008b 3B       		.uleb128 0x3b
 2528 008c 05       		.uleb128 0x5
 2529 008d 01       		.uleb128 0x1
 2530 008e 13       		.uleb128 0x13
 2531 008f 00       		.byte	0
 2532 0090 00       		.byte	0
 2533 0091 0C       		.uleb128 0xc
 2534 0092 0D       		.uleb128 0xd
 2535 0093 00       		.byte	0
 2536 0094 03       		.uleb128 0x3
 2537 0095 08       		.uleb128 0x8
 2538 0096 3A       		.uleb128 0x3a
 2539 0097 0B       		.uleb128 0xb
 2540 0098 3B       		.uleb128 0x3b
 2541 0099 05       		.uleb128 0x5
 2542 009a 49       		.uleb128 0x49
 2543 009b 13       		.uleb128 0x13
 2544 009c 38       		.uleb128 0x38
 2545 009d 0A       		.uleb128 0xa
 2546 009e 00       		.byte	0
 2547 009f 00       		.byte	0
 2548 00a0 0D       		.uleb128 0xd
 2549 00a1 15       		.uleb128 0x15
 2550 00a2 01       		.byte	0x1
 2551 00a3 27       		.uleb128 0x27
 2552 00a4 0C       		.uleb128 0xc
 2553 00a5 01       		.uleb128 0x1
ARM GAS  /var/folders/dt/0wfd0knj7gs46m8vwfzktm600000gn/T//ccJimsz2.s 			page 46


 2554 00a6 13       		.uleb128 0x13
 2555 00a7 00       		.byte	0
 2556 00a8 00       		.byte	0
 2557 00a9 0E       		.uleb128 0xe
 2558 00aa 05       		.uleb128 0x5
 2559 00ab 00       		.byte	0
 2560 00ac 49       		.uleb128 0x49
 2561 00ad 13       		.uleb128 0x13
 2562 00ae 00       		.byte	0
 2563 00af 00       		.byte	0
 2564 00b0 0F       		.uleb128 0xf
 2565 00b1 35       		.uleb128 0x35
 2566 00b2 00       		.byte	0
 2567 00b3 49       		.uleb128 0x49
 2568 00b4 13       		.uleb128 0x13
 2569 00b5 00       		.byte	0
 2570 00b6 00       		.byte	0
 2571 00b7 10       		.uleb128 0x10
 2572 00b8 17       		.uleb128 0x17
 2573 00b9 01       		.byte	0x1
 2574 00ba 0B       		.uleb128 0xb
 2575 00bb 0B       		.uleb128 0xb
 2576 00bc 3A       		.uleb128 0x3a
 2577 00bd 0B       		.uleb128 0xb
 2578 00be 3B       		.uleb128 0x3b
 2579 00bf 0B       		.uleb128 0xb
 2580 00c0 01       		.uleb128 0x1
 2581 00c1 13       		.uleb128 0x13
 2582 00c2 00       		.byte	0
 2583 00c3 00       		.byte	0
 2584 00c4 11       		.uleb128 0x11
 2585 00c5 0D       		.uleb128 0xd
 2586 00c6 00       		.byte	0
 2587 00c7 03       		.uleb128 0x3
 2588 00c8 0E       		.uleb128 0xe
 2589 00c9 3A       		.uleb128 0x3a
 2590 00ca 0B       		.uleb128 0xb
 2591 00cb 3B       		.uleb128 0x3b
 2592 00cc 0B       		.uleb128 0xb
 2593 00cd 49       		.uleb128 0x49
 2594 00ce 13       		.uleb128 0x13
 2595 00cf 00       		.byte	0
 2596 00d0 00       		.byte	0
 2597 00d1 12       		.uleb128 0x12
 2598 00d2 26       		.uleb128 0x26
 2599 00d3 00       		.byte	0
 2600 00d4 49       		.uleb128 0x49
 2601 00d5 13       		.uleb128 0x13
 2602 00d6 00       		.byte	0
 2603 00d7 00       		.byte	0
 2604 00d8 13       		.uleb128 0x13
 2605 00d9 15       		.uleb128 0x15
 2606 00da 01       		.byte	0x1
 2607 00db 27       		.uleb128 0x27
 2608 00dc 0C       		.uleb128 0xc
 2609 00dd 49       		.uleb128 0x49
 2610 00de 13       		.uleb128 0x13
ARM GAS  /var/folders/dt/0wfd0knj7gs46m8vwfzktm600000gn/T//ccJimsz2.s 			page 47


 2611 00df 01       		.uleb128 0x1
 2612 00e0 13       		.uleb128 0x13
 2613 00e1 00       		.byte	0
 2614 00e2 00       		.byte	0
 2615 00e3 14       		.uleb128 0x14
 2616 00e4 2E       		.uleb128 0x2e
 2617 00e5 01       		.byte	0x1
 2618 00e6 3F       		.uleb128 0x3f
 2619 00e7 0C       		.uleb128 0xc
 2620 00e8 03       		.uleb128 0x3
 2621 00e9 0E       		.uleb128 0xe
 2622 00ea 3A       		.uleb128 0x3a
 2623 00eb 0B       		.uleb128 0xb
 2624 00ec 3B       		.uleb128 0x3b
 2625 00ed 0B       		.uleb128 0xb
 2626 00ee 27       		.uleb128 0x27
 2627 00ef 0C       		.uleb128 0xc
 2628 00f0 49       		.uleb128 0x49
 2629 00f1 13       		.uleb128 0x13
 2630 00f2 20       		.uleb128 0x20
 2631 00f3 0B       		.uleb128 0xb
 2632 00f4 01       		.uleb128 0x1
 2633 00f5 13       		.uleb128 0x13
 2634 00f6 00       		.byte	0
 2635 00f7 00       		.byte	0
 2636 00f8 15       		.uleb128 0x15
 2637 00f9 05       		.uleb128 0x5
 2638 00fa 00       		.byte	0
 2639 00fb 03       		.uleb128 0x3
 2640 00fc 08       		.uleb128 0x8
 2641 00fd 3A       		.uleb128 0x3a
 2642 00fe 0B       		.uleb128 0xb
 2643 00ff 3B       		.uleb128 0x3b
 2644 0100 0B       		.uleb128 0xb
 2645 0101 49       		.uleb128 0x49
 2646 0102 13       		.uleb128 0x13
 2647 0103 00       		.byte	0
 2648 0104 00       		.byte	0
 2649 0105 16       		.uleb128 0x16
 2650 0106 05       		.uleb128 0x5
 2651 0107 00       		.byte	0
 2652 0108 03       		.uleb128 0x3
 2653 0109 0E       		.uleb128 0xe
 2654 010a 3A       		.uleb128 0x3a
 2655 010b 0B       		.uleb128 0xb
 2656 010c 3B       		.uleb128 0x3b
 2657 010d 0B       		.uleb128 0xb
 2658 010e 49       		.uleb128 0x49
 2659 010f 13       		.uleb128 0x13
 2660 0110 00       		.byte	0
 2661 0111 00       		.byte	0
 2662 0112 17       		.uleb128 0x17
 2663 0113 2E       		.uleb128 0x2e
 2664 0114 01       		.byte	0x1
 2665 0115 03       		.uleb128 0x3
 2666 0116 0E       		.uleb128 0xe
 2667 0117 3A       		.uleb128 0x3a
ARM GAS  /var/folders/dt/0wfd0knj7gs46m8vwfzktm600000gn/T//ccJimsz2.s 			page 48


 2668 0118 0B       		.uleb128 0xb
 2669 0119 3B       		.uleb128 0x3b
 2670 011a 0B       		.uleb128 0xb
 2671 011b 27       		.uleb128 0x27
 2672 011c 0C       		.uleb128 0xc
 2673 011d 49       		.uleb128 0x49
 2674 011e 13       		.uleb128 0x13
 2675 011f 20       		.uleb128 0x20
 2676 0120 0B       		.uleb128 0xb
 2677 0121 01       		.uleb128 0x1
 2678 0122 13       		.uleb128 0x13
 2679 0123 00       		.byte	0
 2680 0124 00       		.byte	0
 2681 0125 18       		.uleb128 0x18
 2682 0126 34       		.uleb128 0x34
 2683 0127 00       		.byte	0
 2684 0128 03       		.uleb128 0x3
 2685 0129 08       		.uleb128 0x8
 2686 012a 3A       		.uleb128 0x3a
 2687 012b 0B       		.uleb128 0xb
 2688 012c 3B       		.uleb128 0x3b
 2689 012d 0B       		.uleb128 0xb
 2690 012e 49       		.uleb128 0x49
 2691 012f 13       		.uleb128 0x13
 2692 0130 00       		.byte	0
 2693 0131 00       		.byte	0
 2694 0132 19       		.uleb128 0x19
 2695 0133 2E       		.uleb128 0x2e
 2696 0134 01       		.byte	0x1
 2697 0135 03       		.uleb128 0x3
 2698 0136 0E       		.uleb128 0xe
 2699 0137 3A       		.uleb128 0x3a
 2700 0138 0B       		.uleb128 0xb
 2701 0139 3B       		.uleb128 0x3b
 2702 013a 0B       		.uleb128 0xb
 2703 013b 27       		.uleb128 0x27
 2704 013c 0C       		.uleb128 0xc
 2705 013d 20       		.uleb128 0x20
 2706 013e 0B       		.uleb128 0xb
 2707 013f 01       		.uleb128 0x1
 2708 0140 13       		.uleb128 0x13
 2709 0141 00       		.byte	0
 2710 0142 00       		.byte	0
 2711 0143 1A       		.uleb128 0x1a
 2712 0144 2E       		.uleb128 0x2e
 2713 0145 01       		.byte	0x1
 2714 0146 31       		.uleb128 0x31
 2715 0147 13       		.uleb128 0x13
 2716 0148 11       		.uleb128 0x11
 2717 0149 01       		.uleb128 0x1
 2718 014a 12       		.uleb128 0x12
 2719 014b 01       		.uleb128 0x1
 2720 014c 40       		.uleb128 0x40
 2721 014d 06       		.uleb128 0x6
 2722 014e 9742     		.uleb128 0x2117
 2723 0150 0C       		.uleb128 0xc
 2724 0151 01       		.uleb128 0x1
ARM GAS  /var/folders/dt/0wfd0knj7gs46m8vwfzktm600000gn/T//ccJimsz2.s 			page 49


 2725 0152 13       		.uleb128 0x13
 2726 0153 00       		.byte	0
 2727 0154 00       		.byte	0
 2728 0155 1B       		.uleb128 0x1b
 2729 0156 05       		.uleb128 0x5
 2730 0157 00       		.byte	0
 2731 0158 31       		.uleb128 0x31
 2732 0159 13       		.uleb128 0x13
 2733 015a 02       		.uleb128 0x2
 2734 015b 0A       		.uleb128 0xa
 2735 015c 00       		.byte	0
 2736 015d 00       		.byte	0
 2737 015e 1C       		.uleb128 0x1c
 2738 015f 05       		.uleb128 0x5
 2739 0160 00       		.byte	0
 2740 0161 31       		.uleb128 0x31
 2741 0162 13       		.uleb128 0x13
 2742 0163 02       		.uleb128 0x2
 2743 0164 06       		.uleb128 0x6
 2744 0165 00       		.byte	0
 2745 0166 00       		.byte	0
 2746 0167 1D       		.uleb128 0x1d
 2747 0168 2E       		.uleb128 0x2e
 2748 0169 01       		.byte	0x1
 2749 016a 3F       		.uleb128 0x3f
 2750 016b 0C       		.uleb128 0xc
 2751 016c 03       		.uleb128 0x3
 2752 016d 0E       		.uleb128 0xe
 2753 016e 3A       		.uleb128 0x3a
 2754 016f 0B       		.uleb128 0xb
 2755 0170 3B       		.uleb128 0x3b
 2756 0171 0B       		.uleb128 0xb
 2757 0172 27       		.uleb128 0x27
 2758 0173 0C       		.uleb128 0xc
 2759 0174 49       		.uleb128 0x49
 2760 0175 13       		.uleb128 0x13
 2761 0176 11       		.uleb128 0x11
 2762 0177 01       		.uleb128 0x1
 2763 0178 12       		.uleb128 0x12
 2764 0179 01       		.uleb128 0x1
 2765 017a 40       		.uleb128 0x40
 2766 017b 06       		.uleb128 0x6
 2767 017c 9742     		.uleb128 0x2117
 2768 017e 0C       		.uleb128 0xc
 2769 017f 01       		.uleb128 0x1
 2770 0180 13       		.uleb128 0x13
 2771 0181 00       		.byte	0
 2772 0182 00       		.byte	0
 2773 0183 1E       		.uleb128 0x1e
 2774 0184 05       		.uleb128 0x5
 2775 0185 00       		.byte	0
 2776 0186 03       		.uleb128 0x3
 2777 0187 08       		.uleb128 0x8
 2778 0188 3A       		.uleb128 0x3a
 2779 0189 0B       		.uleb128 0xb
 2780 018a 3B       		.uleb128 0x3b
 2781 018b 0B       		.uleb128 0xb
ARM GAS  /var/folders/dt/0wfd0knj7gs46m8vwfzktm600000gn/T//ccJimsz2.s 			page 50


 2782 018c 49       		.uleb128 0x49
 2783 018d 13       		.uleb128 0x13
 2784 018e 02       		.uleb128 0x2
 2785 018f 0A       		.uleb128 0xa
 2786 0190 00       		.byte	0
 2787 0191 00       		.byte	0
 2788 0192 1F       		.uleb128 0x1f
 2789 0193 05       		.uleb128 0x5
 2790 0194 00       		.byte	0
 2791 0195 03       		.uleb128 0x3
 2792 0196 0E       		.uleb128 0xe
 2793 0197 3A       		.uleb128 0x3a
 2794 0198 0B       		.uleb128 0xb
 2795 0199 3B       		.uleb128 0x3b
 2796 019a 0B       		.uleb128 0xb
 2797 019b 49       		.uleb128 0x49
 2798 019c 13       		.uleb128 0x13
 2799 019d 02       		.uleb128 0x2
 2800 019e 06       		.uleb128 0x6
 2801 019f 00       		.byte	0
 2802 01a0 00       		.byte	0
 2803 01a1 20       		.uleb128 0x20
 2804 01a2 05       		.uleb128 0x5
 2805 01a3 00       		.byte	0
 2806 01a4 03       		.uleb128 0x3
 2807 01a5 08       		.uleb128 0x8
 2808 01a6 3A       		.uleb128 0x3a
 2809 01a7 0B       		.uleb128 0xb
 2810 01a8 3B       		.uleb128 0x3b
 2811 01a9 0B       		.uleb128 0xb
 2812 01aa 49       		.uleb128 0x49
 2813 01ab 13       		.uleb128 0x13
 2814 01ac 02       		.uleb128 0x2
 2815 01ad 06       		.uleb128 0x6
 2816 01ae 00       		.byte	0
 2817 01af 00       		.byte	0
 2818 01b0 21       		.uleb128 0x21
 2819 01b1 34       		.uleb128 0x34
 2820 01b2 00       		.byte	0
 2821 01b3 03       		.uleb128 0x3
 2822 01b4 08       		.uleb128 0x8
 2823 01b5 3A       		.uleb128 0x3a
 2824 01b6 0B       		.uleb128 0xb
 2825 01b7 3B       		.uleb128 0x3b
 2826 01b8 0B       		.uleb128 0xb
 2827 01b9 49       		.uleb128 0x49
 2828 01ba 13       		.uleb128 0x13
 2829 01bb 02       		.uleb128 0x2
 2830 01bc 0A       		.uleb128 0xa
 2831 01bd 00       		.byte	0
 2832 01be 00       		.byte	0
 2833 01bf 22       		.uleb128 0x22
 2834 01c0 1D       		.uleb128 0x1d
 2835 01c1 01       		.byte	0x1
 2836 01c2 31       		.uleb128 0x31
 2837 01c3 13       		.uleb128 0x13
 2838 01c4 52       		.uleb128 0x52
ARM GAS  /var/folders/dt/0wfd0knj7gs46m8vwfzktm600000gn/T//ccJimsz2.s 			page 51


 2839 01c5 01       		.uleb128 0x1
 2840 01c6 55       		.uleb128 0x55
 2841 01c7 06       		.uleb128 0x6
 2842 01c8 58       		.uleb128 0x58
 2843 01c9 0B       		.uleb128 0xb
 2844 01ca 59       		.uleb128 0x59
 2845 01cb 0B       		.uleb128 0xb
 2846 01cc 00       		.byte	0
 2847 01cd 00       		.byte	0
 2848 01ce 23       		.uleb128 0x23
 2849 01cf 34       		.uleb128 0x34
 2850 01d0 00       		.byte	0
 2851 01d1 03       		.uleb128 0x3
 2852 01d2 08       		.uleb128 0x8
 2853 01d3 3A       		.uleb128 0x3a
 2854 01d4 0B       		.uleb128 0xb
 2855 01d5 3B       		.uleb128 0x3b
 2856 01d6 0B       		.uleb128 0xb
 2857 01d7 49       		.uleb128 0x49
 2858 01d8 13       		.uleb128 0x13
 2859 01d9 02       		.uleb128 0x2
 2860 01da 06       		.uleb128 0x6
 2861 01db 00       		.byte	0
 2862 01dc 00       		.byte	0
 2863 01dd 24       		.uleb128 0x24
 2864 01de 0B       		.uleb128 0xb
 2865 01df 01       		.byte	0x1
 2866 01e0 11       		.uleb128 0x11
 2867 01e1 01       		.uleb128 0x1
 2868 01e2 12       		.uleb128 0x12
 2869 01e3 01       		.uleb128 0x1
 2870 01e4 01       		.uleb128 0x1
 2871 01e5 13       		.uleb128 0x13
 2872 01e6 00       		.byte	0
 2873 01e7 00       		.byte	0
 2874 01e8 25       		.uleb128 0x25
 2875 01e9 898201   		.uleb128 0x4109
 2876 01ec 01       		.byte	0x1
 2877 01ed 11       		.uleb128 0x11
 2878 01ee 01       		.uleb128 0x1
 2879 01ef 31       		.uleb128 0x31
 2880 01f0 13       		.uleb128 0x13
 2881 01f1 01       		.uleb128 0x1
 2882 01f2 13       		.uleb128 0x13
 2883 01f3 00       		.byte	0
 2884 01f4 00       		.byte	0
 2885 01f5 26       		.uleb128 0x26
 2886 01f6 8A8201   		.uleb128 0x410a
 2887 01f9 00       		.byte	0
 2888 01fa 02       		.uleb128 0x2
 2889 01fb 0A       		.uleb128 0xa
 2890 01fc 9142     		.uleb128 0x2111
 2891 01fe 0A       		.uleb128 0xa
 2892 01ff 00       		.byte	0
 2893 0200 00       		.byte	0
 2894 0201 27       		.uleb128 0x27
 2895 0202 898201   		.uleb128 0x4109
ARM GAS  /var/folders/dt/0wfd0knj7gs46m8vwfzktm600000gn/T//ccJimsz2.s 			page 52


 2896 0205 01       		.byte	0x1
 2897 0206 11       		.uleb128 0x11
 2898 0207 01       		.uleb128 0x1
 2899 0208 31       		.uleb128 0x31
 2900 0209 13       		.uleb128 0x13
 2901 020a 00       		.byte	0
 2902 020b 00       		.byte	0
 2903 020c 28       		.uleb128 0x28
 2904 020d 34       		.uleb128 0x34
 2905 020e 00       		.byte	0
 2906 020f 03       		.uleb128 0x3
 2907 0210 0E       		.uleb128 0xe
 2908 0211 3A       		.uleb128 0x3a
 2909 0212 0B       		.uleb128 0xb
 2910 0213 3B       		.uleb128 0x3b
 2911 0214 0B       		.uleb128 0xb
 2912 0215 49       		.uleb128 0x49
 2913 0216 13       		.uleb128 0x13
 2914 0217 02       		.uleb128 0x2
 2915 0218 0A       		.uleb128 0xa
 2916 0219 00       		.byte	0
 2917 021a 00       		.byte	0
 2918 021b 29       		.uleb128 0x29
 2919 021c 898201   		.uleb128 0x4109
 2920 021f 00       		.byte	0
 2921 0220 11       		.uleb128 0x11
 2922 0221 01       		.uleb128 0x1
 2923 0222 31       		.uleb128 0x31
 2924 0223 13       		.uleb128 0x13
 2925 0224 00       		.byte	0
 2926 0225 00       		.byte	0
 2927 0226 2A       		.uleb128 0x2a
 2928 0227 0B       		.uleb128 0xb
 2929 0228 01       		.byte	0x1
 2930 0229 55       		.uleb128 0x55
 2931 022a 06       		.uleb128 0x6
 2932 022b 01       		.uleb128 0x1
 2933 022c 13       		.uleb128 0x13
 2934 022d 00       		.byte	0
 2935 022e 00       		.byte	0
 2936 022f 2B       		.uleb128 0x2b
 2937 0230 34       		.uleb128 0x34
 2938 0231 00       		.byte	0
 2939 0232 03       		.uleb128 0x3
 2940 0233 08       		.uleb128 0x8
 2941 0234 3A       		.uleb128 0x3a
 2942 0235 0B       		.uleb128 0xb
 2943 0236 3B       		.uleb128 0x3b
 2944 0237 05       		.uleb128 0x5
 2945 0238 49       		.uleb128 0x49
 2946 0239 13       		.uleb128 0x13
 2947 023a 02       		.uleb128 0x2
 2948 023b 06       		.uleb128 0x6
 2949 023c 00       		.byte	0
 2950 023d 00       		.byte	0
 2951 023e 2C       		.uleb128 0x2c
 2952 023f 2E       		.uleb128 0x2e
ARM GAS  /var/folders/dt/0wfd0knj7gs46m8vwfzktm600000gn/T//ccJimsz2.s 			page 53


 2953 0240 01       		.byte	0x1
 2954 0241 3F       		.uleb128 0x3f
 2955 0242 0C       		.uleb128 0xc
 2956 0243 03       		.uleb128 0x3
 2957 0244 0E       		.uleb128 0xe
 2958 0245 3A       		.uleb128 0x3a
 2959 0246 0B       		.uleb128 0xb
 2960 0247 3B       		.uleb128 0x3b
 2961 0248 05       		.uleb128 0x5
 2962 0249 27       		.uleb128 0x27
 2963 024a 0C       		.uleb128 0xc
 2964 024b 11       		.uleb128 0x11
 2965 024c 01       		.uleb128 0x1
 2966 024d 12       		.uleb128 0x12
 2967 024e 01       		.uleb128 0x1
 2968 024f 40       		.uleb128 0x40
 2969 0250 0A       		.uleb128 0xa
 2970 0251 9742     		.uleb128 0x2117
 2971 0253 0C       		.uleb128 0xc
 2972 0254 01       		.uleb128 0x1
 2973 0255 13       		.uleb128 0x13
 2974 0256 00       		.byte	0
 2975 0257 00       		.byte	0
 2976 0258 2D       		.uleb128 0x2d
 2977 0259 05       		.uleb128 0x5
 2978 025a 00       		.byte	0
 2979 025b 03       		.uleb128 0x3
 2980 025c 08       		.uleb128 0x8
 2981 025d 3A       		.uleb128 0x3a
 2982 025e 0B       		.uleb128 0xb
 2983 025f 3B       		.uleb128 0x3b
 2984 0260 05       		.uleb128 0x5
 2985 0261 49       		.uleb128 0x49
 2986 0262 13       		.uleb128 0x13
 2987 0263 02       		.uleb128 0x2
 2988 0264 0A       		.uleb128 0xa
 2989 0265 00       		.byte	0
 2990 0266 00       		.byte	0
 2991 0267 2E       		.uleb128 0x2e
 2992 0268 0B       		.uleb128 0xb
 2993 0269 01       		.byte	0x1
 2994 026a 55       		.uleb128 0x55
 2995 026b 06       		.uleb128 0x6
 2996 026c 00       		.byte	0
 2997 026d 00       		.byte	0
 2998 026e 2F       		.uleb128 0x2f
 2999 026f 2E       		.uleb128 0x2e
 3000 0270 01       		.byte	0x1
 3001 0271 3F       		.uleb128 0x3f
 3002 0272 0C       		.uleb128 0xc
 3003 0273 03       		.uleb128 0x3
 3004 0274 0E       		.uleb128 0xe
 3005 0275 3A       		.uleb128 0x3a
 3006 0276 0B       		.uleb128 0xb
 3007 0277 3B       		.uleb128 0x3b
 3008 0278 05       		.uleb128 0x5
 3009 0279 27       		.uleb128 0x27
ARM GAS  /var/folders/dt/0wfd0knj7gs46m8vwfzktm600000gn/T//ccJimsz2.s 			page 54


 3010 027a 0C       		.uleb128 0xc
 3011 027b 11       		.uleb128 0x11
 3012 027c 01       		.uleb128 0x1
 3013 027d 12       		.uleb128 0x12
 3014 027e 01       		.uleb128 0x1
 3015 027f 40       		.uleb128 0x40
 3016 0280 06       		.uleb128 0x6
 3017 0281 9742     		.uleb128 0x2117
 3018 0283 0C       		.uleb128 0xc
 3019 0284 01       		.uleb128 0x1
 3020 0285 13       		.uleb128 0x13
 3021 0286 00       		.byte	0
 3022 0287 00       		.byte	0
 3023 0288 30       		.uleb128 0x30
 3024 0289 05       		.uleb128 0x5
 3025 028a 00       		.byte	0
 3026 028b 03       		.uleb128 0x3
 3027 028c 0E       		.uleb128 0xe
 3028 028d 3A       		.uleb128 0x3a
 3029 028e 0B       		.uleb128 0xb
 3030 028f 3B       		.uleb128 0x3b
 3031 0290 05       		.uleb128 0x5
 3032 0291 49       		.uleb128 0x49
 3033 0292 13       		.uleb128 0x13
 3034 0293 02       		.uleb128 0x2
 3035 0294 06       		.uleb128 0x6
 3036 0295 00       		.byte	0
 3037 0296 00       		.byte	0
 3038 0297 31       		.uleb128 0x31
 3039 0298 05       		.uleb128 0x5
 3040 0299 00       		.byte	0
 3041 029a 03       		.uleb128 0x3
 3042 029b 08       		.uleb128 0x8
 3043 029c 3A       		.uleb128 0x3a
 3044 029d 0B       		.uleb128 0xb
 3045 029e 3B       		.uleb128 0x3b
 3046 029f 05       		.uleb128 0x5
 3047 02a0 49       		.uleb128 0x49
 3048 02a1 13       		.uleb128 0x13
 3049 02a2 02       		.uleb128 0x2
 3050 02a3 06       		.uleb128 0x6
 3051 02a4 00       		.byte	0
 3052 02a5 00       		.byte	0
 3053 02a6 32       		.uleb128 0x32
 3054 02a7 34       		.uleb128 0x34
 3055 02a8 00       		.byte	0
 3056 02a9 03       		.uleb128 0x3
 3057 02aa 08       		.uleb128 0x8
 3058 02ab 3A       		.uleb128 0x3a
 3059 02ac 0B       		.uleb128 0xb
 3060 02ad 3B       		.uleb128 0x3b
 3061 02ae 05       		.uleb128 0x5
 3062 02af 49       		.uleb128 0x49
 3063 02b0 13       		.uleb128 0x13
 3064 02b1 02       		.uleb128 0x2
 3065 02b2 0A       		.uleb128 0xa
 3066 02b3 00       		.byte	0
ARM GAS  /var/folders/dt/0wfd0knj7gs46m8vwfzktm600000gn/T//ccJimsz2.s 			page 55


 3067 02b4 00       		.byte	0
 3068 02b5 33       		.uleb128 0x33
 3069 02b6 1D       		.uleb128 0x1d
 3070 02b7 01       		.byte	0x1
 3071 02b8 31       		.uleb128 0x31
 3072 02b9 13       		.uleb128 0x13
 3073 02ba 52       		.uleb128 0x52
 3074 02bb 01       		.uleb128 0x1
 3075 02bc 55       		.uleb128 0x55
 3076 02bd 06       		.uleb128 0x6
 3077 02be 58       		.uleb128 0x58
 3078 02bf 0B       		.uleb128 0xb
 3079 02c0 59       		.uleb128 0x59
 3080 02c1 05       		.uleb128 0x5
 3081 02c2 01       		.uleb128 0x1
 3082 02c3 13       		.uleb128 0x13
 3083 02c4 00       		.byte	0
 3084 02c5 00       		.byte	0
 3085 02c6 34       		.uleb128 0x34
 3086 02c7 34       		.uleb128 0x34
 3087 02c8 00       		.byte	0
 3088 02c9 31       		.uleb128 0x31
 3089 02ca 13       		.uleb128 0x13
 3090 02cb 02       		.uleb128 0x2
 3091 02cc 06       		.uleb128 0x6
 3092 02cd 00       		.byte	0
 3093 02ce 00       		.byte	0
 3094 02cf 35       		.uleb128 0x35
 3095 02d0 898201   		.uleb128 0x4109
 3096 02d3 01       		.byte	0x1
 3097 02d4 11       		.uleb128 0x11
 3098 02d5 01       		.uleb128 0x1
 3099 02d6 9542     		.uleb128 0x2115
 3100 02d8 0C       		.uleb128 0xc
 3101 02d9 31       		.uleb128 0x31
 3102 02da 13       		.uleb128 0x13
 3103 02db 00       		.byte	0
 3104 02dc 00       		.byte	0
 3105 02dd 36       		.uleb128 0x36
 3106 02de 2E       		.uleb128 0x2e
 3107 02df 01       		.byte	0x1
 3108 02e0 3F       		.uleb128 0x3f
 3109 02e1 0C       		.uleb128 0xc
 3110 02e2 03       		.uleb128 0x3
 3111 02e3 0E       		.uleb128 0xe
 3112 02e4 3A       		.uleb128 0x3a
 3113 02e5 0B       		.uleb128 0xb
 3114 02e6 3B       		.uleb128 0x3b
 3115 02e7 05       		.uleb128 0x5
 3116 02e8 27       		.uleb128 0x27
 3117 02e9 0C       		.uleb128 0xc
 3118 02ea 49       		.uleb128 0x49
 3119 02eb 13       		.uleb128 0x13
 3120 02ec 11       		.uleb128 0x11
 3121 02ed 01       		.uleb128 0x1
 3122 02ee 12       		.uleb128 0x12
 3123 02ef 01       		.uleb128 0x1
ARM GAS  /var/folders/dt/0wfd0knj7gs46m8vwfzktm600000gn/T//ccJimsz2.s 			page 56


 3124 02f0 40       		.uleb128 0x40
 3125 02f1 06       		.uleb128 0x6
 3126 02f2 9742     		.uleb128 0x2117
 3127 02f4 0C       		.uleb128 0xc
 3128 02f5 01       		.uleb128 0x1
 3129 02f6 13       		.uleb128 0x13
 3130 02f7 00       		.byte	0
 3131 02f8 00       		.byte	0
 3132 02f9 37       		.uleb128 0x37
 3133 02fa 34       		.uleb128 0x34
 3134 02fb 00       		.byte	0
 3135 02fc 03       		.uleb128 0x3
 3136 02fd 0E       		.uleb128 0xe
 3137 02fe 3A       		.uleb128 0x3a
 3138 02ff 0B       		.uleb128 0xb
 3139 0300 3B       		.uleb128 0x3b
 3140 0301 0B       		.uleb128 0xb
 3141 0302 49       		.uleb128 0x49
 3142 0303 13       		.uleb128 0x13
 3143 0304 3F       		.uleb128 0x3f
 3144 0305 0C       		.uleb128 0xc
 3145 0306 3C       		.uleb128 0x3c
 3146 0307 0C       		.uleb128 0xc
 3147 0308 00       		.byte	0
 3148 0309 00       		.byte	0
 3149 030a 38       		.uleb128 0x38
 3150 030b 2E       		.uleb128 0x2e
 3151 030c 01       		.byte	0x1
 3152 030d 3F       		.uleb128 0x3f
 3153 030e 0C       		.uleb128 0xc
 3154 030f 03       		.uleb128 0x3
 3155 0310 0E       		.uleb128 0xe
 3156 0311 3A       		.uleb128 0x3a
 3157 0312 0B       		.uleb128 0xb
 3158 0313 3B       		.uleb128 0x3b
 3159 0314 0B       		.uleb128 0xb
 3160 0315 27       		.uleb128 0x27
 3161 0316 0C       		.uleb128 0xc
 3162 0317 3C       		.uleb128 0x3c
 3163 0318 0C       		.uleb128 0xc
 3164 0319 01       		.uleb128 0x1
 3165 031a 13       		.uleb128 0x13
 3166 031b 00       		.byte	0
 3167 031c 00       		.byte	0
 3168 031d 39       		.uleb128 0x39
 3169 031e 2E       		.uleb128 0x2e
 3170 031f 00       		.byte	0
 3171 0320 3F       		.uleb128 0x3f
 3172 0321 0C       		.uleb128 0xc
 3173 0322 03       		.uleb128 0x3
 3174 0323 0E       		.uleb128 0xe
 3175 0324 3A       		.uleb128 0x3a
 3176 0325 0B       		.uleb128 0xb
 3177 0326 3B       		.uleb128 0x3b
 3178 0327 0B       		.uleb128 0xb
 3179 0328 27       		.uleb128 0x27
 3180 0329 0C       		.uleb128 0xc
ARM GAS  /var/folders/dt/0wfd0knj7gs46m8vwfzktm600000gn/T//ccJimsz2.s 			page 57


 3181 032a 3C       		.uleb128 0x3c
 3182 032b 0C       		.uleb128 0xc
 3183 032c 00       		.byte	0
 3184 032d 00       		.byte	0
 3185 032e 3A       		.uleb128 0x3a
 3186 032f 2E       		.uleb128 0x2e
 3187 0330 01       		.byte	0x1
 3188 0331 3F       		.uleb128 0x3f
 3189 0332 0C       		.uleb128 0xc
 3190 0333 03       		.uleb128 0x3
 3191 0334 0E       		.uleb128 0xe
 3192 0335 3A       		.uleb128 0x3a
 3193 0336 0B       		.uleb128 0xb
 3194 0337 3B       		.uleb128 0x3b
 3195 0338 0B       		.uleb128 0xb
 3196 0339 27       		.uleb128 0x27
 3197 033a 0C       		.uleb128 0xc
 3198 033b 49       		.uleb128 0x49
 3199 033c 13       		.uleb128 0x13
 3200 033d 3C       		.uleb128 0x3c
 3201 033e 0C       		.uleb128 0xc
 3202 033f 01       		.uleb128 0x1
 3203 0340 13       		.uleb128 0x13
 3204 0341 00       		.byte	0
 3205 0342 00       		.byte	0
 3206 0343 3B       		.uleb128 0x3b
 3207 0344 2E       		.uleb128 0x2e
 3208 0345 01       		.byte	0x1
 3209 0346 3F       		.uleb128 0x3f
 3210 0347 0C       		.uleb128 0xc
 3211 0348 03       		.uleb128 0x3
 3212 0349 0E       		.uleb128 0xe
 3213 034a 3A       		.uleb128 0x3a
 3214 034b 0B       		.uleb128 0xb
 3215 034c 3B       		.uleb128 0x3b
 3216 034d 0B       		.uleb128 0xb
 3217 034e 27       		.uleb128 0x27
 3218 034f 0C       		.uleb128 0xc
 3219 0350 3C       		.uleb128 0x3c
 3220 0351 0C       		.uleb128 0xc
 3221 0352 00       		.byte	0
 3222 0353 00       		.byte	0
 3223 0354 00       		.byte	0
 3224              		.section	.debug_loc,"",%progbits
 3225              	.Ldebug_loc0:
 3226              	.LLST0:
 3227 0000 00000000 		.4byte	.LFB7
 3228 0004 02000000 		.4byte	.LCFI0
 3229 0008 0200     		.2byte	0x2
 3230 000a 7D       		.byte	0x7d
 3231 000b 00       		.sleb128 0
 3232 000c 02000000 		.4byte	.LCFI0
 3233 0010 46000000 		.4byte	.LFE7
 3234 0014 0200     		.2byte	0x2
 3235 0016 7D       		.byte	0x7d
 3236 0017 10       		.sleb128 16
 3237 0018 00000000 		.4byte	0
ARM GAS  /var/folders/dt/0wfd0knj7gs46m8vwfzktm600000gn/T//ccJimsz2.s 			page 58


 3238 001c 00000000 		.4byte	0
 3239              	.LLST1:
 3240 0020 00000000 		.4byte	.LVL0
 3241 0024 28000000 		.4byte	.LVL1
 3242 0028 0100     		.2byte	0x1
 3243 002a 51       		.byte	0x51
 3244 002b 28000000 		.4byte	.LVL1
 3245 002f 46000000 		.4byte	.LFE7
 3246 0033 0200     		.2byte	0x2
 3247 0035 70       		.byte	0x70
 3248 0036 08       		.sleb128 8
 3249 0037 00000000 		.4byte	0
 3250 003b 00000000 		.4byte	0
 3251              	.LLST2:
 3252 003f 00000000 		.4byte	.LFB8
 3253 0043 04000000 		.4byte	.LCFI1
 3254 0047 0200     		.2byte	0x2
 3255 0049 7D       		.byte	0x7d
 3256 004a 00       		.sleb128 0
 3257 004b 04000000 		.4byte	.LCFI1
 3258 004f 6C000000 		.4byte	.LFE8
 3259 0053 0200     		.2byte	0x2
 3260 0055 7D       		.byte	0x7d
 3261 0056 18       		.sleb128 24
 3262 0057 00000000 		.4byte	0
 3263 005b 00000000 		.4byte	0
 3264              	.LLST3:
 3265 005f 00000000 		.4byte	.LVL2
 3266 0063 06000000 		.4byte	.LVL3
 3267 0067 0100     		.2byte	0x1
 3268 0069 51       		.byte	0x51
 3269 006a 06000000 		.4byte	.LVL3
 3270 006e 6C000000 		.4byte	.LFE8
 3271 0072 0300     		.2byte	0x3
 3272 0074 71       		.byte	0x71
 3273 0075 24       		.sleb128 36
 3274 0076 9F       		.byte	0x9f
 3275 0077 00000000 		.4byte	0
 3276 007b 00000000 		.4byte	0
 3277              	.LLST4:
 3278 007f 00000000 		.4byte	.LVL2
 3279 0083 38000000 		.4byte	.LVL5
 3280 0087 0100     		.2byte	0x1
 3281 0089 52       		.byte	0x52
 3282 008a 38000000 		.4byte	.LVL5
 3283 008e 6C000000 		.4byte	.LFE8
 3284 0092 0100     		.2byte	0x1
 3285 0094 58       		.byte	0x58
 3286 0095 00000000 		.4byte	0
 3287 0099 00000000 		.4byte	0
 3288              	.LLST5:
 3289 009d 00000000 		.4byte	.LVL2
 3290 00a1 1A000000 		.4byte	.LVL4
 3291 00a5 0100     		.2byte	0x1
 3292 00a7 53       		.byte	0x53
 3293 00a8 1A000000 		.4byte	.LVL4
 3294 00ac 6C000000 		.4byte	.LFE8
ARM GAS  /var/folders/dt/0wfd0knj7gs46m8vwfzktm600000gn/T//ccJimsz2.s 			page 59


 3295 00b0 0200     		.2byte	0x2
 3296 00b2 77       		.byte	0x77
 3297 00b3 00       		.sleb128 0
 3298 00b4 00000000 		.4byte	0
 3299 00b8 00000000 		.4byte	0
 3300              	.LLST6:
 3301 00bc 00000000 		.4byte	.LFB9
 3302 00c0 02000000 		.4byte	.LCFI2
 3303 00c4 0200     		.2byte	0x2
 3304 00c6 7D       		.byte	0x7d
 3305 00c7 00       		.sleb128 0
 3306 00c8 02000000 		.4byte	.LCFI2
 3307 00cc 06000000 		.4byte	.LCFI3
 3308 00d0 0200     		.2byte	0x2
 3309 00d2 7D       		.byte	0x7d
 3310 00d3 08       		.sleb128 8
 3311 00d4 06000000 		.4byte	.LCFI3
 3312 00d8 2A000000 		.4byte	.LFE9
 3313 00dc 0200     		.2byte	0x2
 3314 00de 7D       		.byte	0x7d
 3315 00df 10       		.sleb128 16
 3316 00e0 00000000 		.4byte	0
 3317 00e4 00000000 		.4byte	0
 3318              	.LLST7:
 3319 00e8 00000000 		.4byte	.LVL7
 3320 00ec 15000000 		.4byte	.LVL12-1
 3321 00f0 0100     		.2byte	0x1
 3322 00f2 50       		.byte	0x50
 3323 00f3 15000000 		.4byte	.LVL12-1
 3324 00f7 2A000000 		.4byte	.LFE9
 3325 00fb 0400     		.2byte	0x4
 3326 00fd F3       		.byte	0xf3
 3327 00fe 01       		.uleb128 0x1
 3328 00ff 50       		.byte	0x50
 3329 0100 9F       		.byte	0x9f
 3330 0101 00000000 		.4byte	0
 3331 0105 00000000 		.4byte	0
 3332              	.LLST8:
 3333 0109 00000000 		.4byte	.LVL7
 3334 010d 15000000 		.4byte	.LVL12-1
 3335 0111 0100     		.2byte	0x1
 3336 0113 51       		.byte	0x51
 3337 0114 15000000 		.4byte	.LVL12-1
 3338 0118 2A000000 		.4byte	.LFE9
 3339 011c 0400     		.2byte	0x4
 3340 011e F3       		.byte	0xf3
 3341 011f 01       		.uleb128 0x1
 3342 0120 51       		.byte	0x51
 3343 0121 9F       		.byte	0x9f
 3344 0122 00000000 		.4byte	0
 3345 0126 00000000 		.4byte	0
 3346              	.LLST9:
 3347 012a 00000000 		.4byte	.LVL7
 3348 012e 15000000 		.4byte	.LVL12-1
 3349 0132 0100     		.2byte	0x1
 3350 0134 52       		.byte	0x52
 3351 0135 15000000 		.4byte	.LVL12-1
ARM GAS  /var/folders/dt/0wfd0knj7gs46m8vwfzktm600000gn/T//ccJimsz2.s 			page 60


 3352 0139 2A000000 		.4byte	.LFE9
 3353 013d 0400     		.2byte	0x4
 3354 013f F3       		.byte	0xf3
 3355 0140 01       		.uleb128 0x1
 3356 0141 52       		.byte	0x52
 3357 0142 9F       		.byte	0x9f
 3358 0143 00000000 		.4byte	0
 3359 0147 00000000 		.4byte	0
 3360              	.LLST10:
 3361 014b 00000000 		.4byte	.LVL7
 3362 014f 08000000 		.4byte	.LVL8
 3363 0153 0100     		.2byte	0x1
 3364 0155 53       		.byte	0x53
 3365 0156 08000000 		.4byte	.LVL8
 3366 015a 10000000 		.4byte	.LVL11
 3367 015e 0100     		.2byte	0x1
 3368 0160 54       		.byte	0x54
 3369 0161 10000000 		.4byte	.LVL11
 3370 0165 15000000 		.4byte	.LVL12-1
 3371 0169 0100     		.2byte	0x1
 3372 016b 53       		.byte	0x53
 3373 016c 15000000 		.4byte	.LVL12-1
 3374 0170 2A000000 		.4byte	.LFE9
 3375 0174 0400     		.2byte	0x4
 3376 0176 F3       		.byte	0xf3
 3377 0177 01       		.uleb128 0x1
 3378 0178 53       		.byte	0x53
 3379 0179 9F       		.byte	0x9f
 3380 017a 00000000 		.4byte	0
 3381 017e 00000000 		.4byte	0
 3382              	.LLST11:
 3383 0182 1A000000 		.4byte	.LVL13
 3384 0186 1D000000 		.4byte	.LVL14-1
 3385 018a 0100     		.2byte	0x1
 3386 018c 50       		.byte	0x50
 3387 018d 1D000000 		.4byte	.LVL14-1
 3388 0191 2A000000 		.4byte	.LFE9
 3389 0195 0100     		.2byte	0x1
 3390 0197 54       		.byte	0x54
 3391 0198 00000000 		.4byte	0
 3392 019c 00000000 		.4byte	0
 3393              	.LLST12:
 3394 01a0 0C000000 		.4byte	.LVL9
 3395 01a4 0E000000 		.4byte	.LVL10
 3396 01a8 0100     		.2byte	0x1
 3397 01aa 53       		.byte	0x53
 3398 01ab 00000000 		.4byte	0
 3399 01af 00000000 		.4byte	0
 3400              	.LLST13:
 3401 01b3 24000000 		.4byte	.LVL16
 3402 01b7 2A000000 		.4byte	.LFE9
 3403 01bb 0100     		.2byte	0x1
 3404 01bd 53       		.byte	0x53
 3405 01be 00000000 		.4byte	0
 3406 01c2 00000000 		.4byte	0
 3407              	.LLST14:
 3408 01c6 00000000 		.4byte	.LFB10
ARM GAS  /var/folders/dt/0wfd0knj7gs46m8vwfzktm600000gn/T//ccJimsz2.s 			page 61


 3409 01ca 02000000 		.4byte	.LCFI4
 3410 01ce 0200     		.2byte	0x2
 3411 01d0 7D       		.byte	0x7d
 3412 01d1 00       		.sleb128 0
 3413 01d2 02000000 		.4byte	.LCFI4
 3414 01d6 30000000 		.4byte	.LFE10
 3415 01da 0200     		.2byte	0x2
 3416 01dc 7D       		.byte	0x7d
 3417 01dd 08       		.sleb128 8
 3418 01de 00000000 		.4byte	0
 3419 01e2 00000000 		.4byte	0
 3420              	.LLST15:
 3421 01e6 00000000 		.4byte	.LVL17
 3422 01ea 1F000000 		.4byte	.LVL22-1
 3423 01ee 0100     		.2byte	0x1
 3424 01f0 50       		.byte	0x50
 3425 01f1 1F000000 		.4byte	.LVL22-1
 3426 01f5 30000000 		.4byte	.LFE10
 3427 01f9 0400     		.2byte	0x4
 3428 01fb F3       		.byte	0xf3
 3429 01fc 01       		.uleb128 0x1
 3430 01fd 50       		.byte	0x50
 3431 01fe 9F       		.byte	0x9f
 3432 01ff 00000000 		.4byte	0
 3433 0203 00000000 		.4byte	0
 3434              	.LLST16:
 3435 0207 08000000 		.4byte	.LVL19
 3436 020b 0A000000 		.4byte	.LVL20
 3437 020f 0100     		.2byte	0x1
 3438 0211 53       		.byte	0x53
 3439 0212 00000000 		.4byte	0
 3440 0216 00000000 		.4byte	0
 3441              	.LLST17:
 3442 021a 26000000 		.4byte	.LVL24
 3443 021e 30000000 		.4byte	.LFE10
 3444 0222 0100     		.2byte	0x1
 3445 0224 53       		.byte	0x53
 3446 0225 00000000 		.4byte	0
 3447 0229 00000000 		.4byte	0
 3448              	.LLST18:
 3449 022d 00000000 		.4byte	.LFB11
 3450 0231 02000000 		.4byte	.LCFI5
 3451 0235 0200     		.2byte	0x2
 3452 0237 7D       		.byte	0x7d
 3453 0238 00       		.sleb128 0
 3454 0239 02000000 		.4byte	.LCFI5
 3455 023d 1A000000 		.4byte	.LFE11
 3456 0241 0200     		.2byte	0x2
 3457 0243 7D       		.byte	0x7d
 3458 0244 08       		.sleb128 8
 3459 0245 00000000 		.4byte	0
 3460 0249 00000000 		.4byte	0
 3461              	.LLST19:
 3462 024d 00000000 		.4byte	.LVL25
 3463 0251 0F000000 		.4byte	.LVL28-1
 3464 0255 0100     		.2byte	0x1
 3465 0257 50       		.byte	0x50
ARM GAS  /var/folders/dt/0wfd0knj7gs46m8vwfzktm600000gn/T//ccJimsz2.s 			page 62


 3466 0258 0F000000 		.4byte	.LVL28-1
 3467 025c 1A000000 		.4byte	.LFE11
 3468 0260 0100     		.2byte	0x1
 3469 0262 54       		.byte	0x54
 3470 0263 00000000 		.4byte	0
 3471 0267 00000000 		.4byte	0
 3472              	.LLST20:
 3473 026b 0A000000 		.4byte	.LVL27
 3474 026f 0F000000 		.4byte	.LVL28-1
 3475 0273 0100     		.2byte	0x1
 3476 0275 53       		.byte	0x53
 3477 0276 00000000 		.4byte	0
 3478 027a 00000000 		.4byte	0
 3479              	.LLST21:
 3480 027e 16000000 		.4byte	.LVL30
 3481 0282 1A000000 		.4byte	.LFE11
 3482 0286 0100     		.2byte	0x1
 3483 0288 53       		.byte	0x53
 3484 0289 00000000 		.4byte	0
 3485 028d 00000000 		.4byte	0
 3486              	.LLST22:
 3487 0291 06000000 		.4byte	.LVL33
 3488 0295 0A000000 		.4byte	.LVL34
 3489 0299 0100     		.2byte	0x1
 3490 029b 53       		.byte	0x53
 3491 029c 00000000 		.4byte	0
 3492 02a0 00000000 		.4byte	0
 3493              	.LLST23:
 3494 02a4 14000000 		.4byte	.LVL35
 3495 02a8 16000000 		.4byte	.LFE12
 3496 02ac 0100     		.2byte	0x1
 3497 02ae 53       		.byte	0x53
 3498 02af 00000000 		.4byte	0
 3499 02b3 00000000 		.4byte	0
 3500              	.LLST24:
 3501 02b7 00000000 		.4byte	.LFB13
 3502 02bb 02000000 		.4byte	.LCFI6
 3503 02bf 0200     		.2byte	0x2
 3504 02c1 7D       		.byte	0x7d
 3505 02c2 00       		.sleb128 0
 3506 02c3 02000000 		.4byte	.LCFI6
 3507 02c7 18000000 		.4byte	.LFE13
 3508 02cb 0200     		.2byte	0x2
 3509 02cd 7D       		.byte	0x7d
 3510 02ce 08       		.sleb128 8
 3511 02cf 00000000 		.4byte	0
 3512 02d3 00000000 		.4byte	0
 3513              	.LLST25:
 3514 02d7 00000000 		.4byte	.LVL36
 3515 02db 0C000000 		.4byte	.LVL39
 3516 02df 0100     		.2byte	0x1
 3517 02e1 50       		.byte	0x50
 3518 02e2 0C000000 		.4byte	.LVL39
 3519 02e6 0F000000 		.4byte	.LVL40-1
 3520 02ea 0100     		.2byte	0x1
 3521 02ec 51       		.byte	0x51
 3522 02ed 0F000000 		.4byte	.LVL40-1
ARM GAS  /var/folders/dt/0wfd0knj7gs46m8vwfzktm600000gn/T//ccJimsz2.s 			page 63


 3523 02f1 18000000 		.4byte	.LFE13
 3524 02f5 0400     		.2byte	0x4
 3525 02f7 F3       		.byte	0xf3
 3526 02f8 01       		.uleb128 0x1
 3527 02f9 50       		.byte	0x50
 3528 02fa 9F       		.byte	0x9f
 3529 02fb 00000000 		.4byte	0
 3530 02ff 00000000 		.4byte	0
 3531              	.LLST26:
 3532 0303 0A000000 		.4byte	.LVL38
 3533 0307 0F000000 		.4byte	.LVL40-1
 3534 030b 0100     		.2byte	0x1
 3535 030d 53       		.byte	0x53
 3536 030e 00000000 		.4byte	0
 3537 0312 00000000 		.4byte	0
 3538              	.LLST27:
 3539 0316 16000000 		.4byte	.LVL42
 3540 031a 18000000 		.4byte	.LFE13
 3541 031e 0100     		.2byte	0x1
 3542 0320 53       		.byte	0x53
 3543 0321 00000000 		.4byte	0
 3544 0325 00000000 		.4byte	0
 3545              	.LLST28:
 3546 0329 00000000 		.4byte	.LFB14
 3547 032d 02000000 		.4byte	.LCFI7
 3548 0331 0200     		.2byte	0x2
 3549 0333 7D       		.byte	0x7d
 3550 0334 00       		.sleb128 0
 3551 0335 02000000 		.4byte	.LCFI7
 3552 0339 24000000 		.4byte	.LFE14
 3553 033d 0200     		.2byte	0x2
 3554 033f 7D       		.byte	0x7d
 3555 0340 08       		.sleb128 8
 3556 0341 00000000 		.4byte	0
 3557 0345 00000000 		.4byte	0
 3558              	.LLST29:
 3559 0349 00000000 		.4byte	.LVL43
 3560 034d 0C000000 		.4byte	.LVL47
 3561 0351 0100     		.2byte	0x1
 3562 0353 50       		.byte	0x50
 3563 0354 0C000000 		.4byte	.LVL47
 3564 0358 0E000000 		.4byte	.LVL48
 3565 035c 0600     		.2byte	0x6
 3566 035e 70       		.byte	0x70
 3567 035f 00       		.sleb128 0
 3568 0360 71       		.byte	0x71
 3569 0361 00       		.sleb128 0
 3570 0362 1C       		.byte	0x1c
 3571 0363 9F       		.byte	0x9f
 3572 0364 0E000000 		.4byte	.LVL48
 3573 0368 15000000 		.4byte	.LVL49-1
 3574 036c 0100     		.2byte	0x1
 3575 036e 51       		.byte	0x51
 3576 036f 00000000 		.4byte	0
 3577 0373 00000000 		.4byte	0
 3578              	.LLST30:
 3579 0377 08000000 		.4byte	.LVL45
ARM GAS  /var/folders/dt/0wfd0knj7gs46m8vwfzktm600000gn/T//ccJimsz2.s 			page 64


 3580 037b 0A000000 		.4byte	.LVL46
 3581 037f 0100     		.2byte	0x1
 3582 0381 53       		.byte	0x53
 3583 0382 00000000 		.4byte	0
 3584 0386 00000000 		.4byte	0
 3585              	.LLST31:
 3586 038a 1C000000 		.4byte	.LVL51
 3587 038e 24000000 		.4byte	.LFE14
 3588 0392 0100     		.2byte	0x1
 3589 0394 53       		.byte	0x53
 3590 0395 00000000 		.4byte	0
 3591 0399 00000000 		.4byte	0
 3592              	.LLST32:
 3593 039d 00000000 		.4byte	.LFB15
 3594 03a1 02000000 		.4byte	.LCFI8
 3595 03a5 0200     		.2byte	0x2
 3596 03a7 7D       		.byte	0x7d
 3597 03a8 00       		.sleb128 0
 3598 03a9 02000000 		.4byte	.LCFI8
 3599 03ad 28000000 		.4byte	.LFE15
 3600 03b1 0200     		.2byte	0x2
 3601 03b3 7D       		.byte	0x7d
 3602 03b4 08       		.sleb128 8
 3603 03b5 00000000 		.4byte	0
 3604 03b9 00000000 		.4byte	0
 3605              	.LLST33:
 3606 03bd 08000000 		.4byte	.LVL53
 3607 03c1 0A000000 		.4byte	.LVL54
 3608 03c5 0100     		.2byte	0x1
 3609 03c7 53       		.byte	0x53
 3610 03c8 00000000 		.4byte	0
 3611 03cc 00000000 		.4byte	0
 3612              	.LLST34:
 3613 03d0 20000000 		.4byte	.LVL57
 3614 03d4 28000000 		.4byte	.LFE15
 3615 03d8 0100     		.2byte	0x1
 3616 03da 53       		.byte	0x53
 3617 03db 00000000 		.4byte	0
 3618 03df 00000000 		.4byte	0
 3619              	.LLST35:
 3620 03e3 00000000 		.4byte	.LFB17
 3621 03e7 02000000 		.4byte	.LCFI9
 3622 03eb 0200     		.2byte	0x2
 3623 03ed 7D       		.byte	0x7d
 3624 03ee 00       		.sleb128 0
 3625 03ef 02000000 		.4byte	.LCFI9
 3626 03f3 40000000 		.4byte	.LFE17
 3627 03f7 0200     		.2byte	0x2
 3628 03f9 7D       		.byte	0x7d
 3629 03fa 10       		.sleb128 16
 3630 03fb 00000000 		.4byte	0
 3631 03ff 00000000 		.4byte	0
 3632              	.LLST36:
 3633 0403 00000000 		.4byte	.LVL58
 3634 0407 12000000 		.4byte	.LVL60
 3635 040b 0100     		.2byte	0x1
 3636 040d 50       		.byte	0x50
ARM GAS  /var/folders/dt/0wfd0knj7gs46m8vwfzktm600000gn/T//ccJimsz2.s 			page 65


 3637 040e 12000000 		.4byte	.LVL60
 3638 0412 40000000 		.4byte	.LFE17
 3639 0416 0400     		.2byte	0x4
 3640 0418 F3       		.byte	0xf3
 3641 0419 01       		.uleb128 0x1
 3642 041a 50       		.byte	0x50
 3643 041b 9F       		.byte	0x9f
 3644 041c 00000000 		.4byte	0
 3645 0420 00000000 		.4byte	0
 3646              	.LLST37:
 3647 0424 12000000 		.4byte	.LVL60
 3648 0428 22000000 		.4byte	.LVL62
 3649 042c 0300     		.2byte	0x3
 3650 042e 74       		.byte	0x74
 3651 042f 28       		.sleb128 40
 3652 0430 9F       		.byte	0x9f
 3653 0431 00000000 		.4byte	0
 3654 0435 00000000 		.4byte	0
 3655              	.LLST38:
 3656 0439 12000000 		.4byte	.LVL60
 3657 043d 1B000000 		.4byte	.LVL61-1
 3658 0441 0100     		.2byte	0x1
 3659 0443 53       		.byte	0x53
 3660 0444 00000000 		.4byte	0
 3661 0448 00000000 		.4byte	0
 3662              	.LLST39:
 3663 044c 00000000 		.4byte	.LVL64
 3664 0450 09000000 		.4byte	.LVL67-1
 3665 0454 0100     		.2byte	0x1
 3666 0456 50       		.byte	0x50
 3667 0457 09000000 		.4byte	.LVL67-1
 3668 045b 0A000000 		.4byte	.LFE16
 3669 045f 0400     		.2byte	0x4
 3670 0461 F3       		.byte	0xf3
 3671 0462 01       		.uleb128 0x1
 3672 0463 50       		.byte	0x50
 3673 0464 9F       		.byte	0x9f
 3674 0465 00000000 		.4byte	0
 3675 0469 00000000 		.4byte	0
 3676              	.LLST40:
 3677 046d 06000000 		.4byte	.LVL66
 3678 0471 09000000 		.4byte	.LVL67-1
 3679 0475 0100     		.2byte	0x1
 3680 0477 53       		.byte	0x53
 3681 0478 00000000 		.4byte	0
 3682 047c 00000000 		.4byte	0
 3683              	.LLST41:
 3684 0480 00000000 		.4byte	.LFB18
 3685 0484 02000000 		.4byte	.LCFI10
 3686 0488 0200     		.2byte	0x2
 3687 048a 7D       		.byte	0x7d
 3688 048b 00       		.sleb128 0
 3689 048c 02000000 		.4byte	.LCFI10
 3690 0490 38000000 		.4byte	.LFE18
 3691 0494 0200     		.2byte	0x2
 3692 0496 7D       		.byte	0x7d
 3693 0497 10       		.sleb128 16
ARM GAS  /var/folders/dt/0wfd0knj7gs46m8vwfzktm600000gn/T//ccJimsz2.s 			page 66


 3694 0498 00000000 		.4byte	0
 3695 049c 00000000 		.4byte	0
 3696              	.LLST42:
 3697 04a0 00000000 		.4byte	.LVL68
 3698 04a4 18000000 		.4byte	.LVL73
 3699 04a8 0100     		.2byte	0x1
 3700 04aa 50       		.byte	0x50
 3701 04ab 18000000 		.4byte	.LVL73
 3702 04af 38000000 		.4byte	.LFE18
 3703 04b3 0100     		.2byte	0x1
 3704 04b5 54       		.byte	0x54
 3705 04b6 00000000 		.4byte	0
 3706 04ba 00000000 		.4byte	0
 3707              	.LLST43:
 3708 04be 0A000000 		.4byte	.LVL70
 3709 04c2 0C000000 		.4byte	.LVL71
 3710 04c6 0100     		.2byte	0x1
 3711 04c8 53       		.byte	0x53
 3712 04c9 00000000 		.4byte	0
 3713 04cd 00000000 		.4byte	0
 3714              	.LLST44:
 3715 04d1 16000000 		.4byte	.LVL72
 3716 04d5 18000000 		.4byte	.LVL73
 3717 04d9 0300     		.2byte	0x3
 3718 04db 70       		.byte	0x70
 3719 04dc 28       		.sleb128 40
 3720 04dd 9F       		.byte	0x9f
 3721 04de 18000000 		.4byte	.LVL73
 3722 04e2 20000000 		.4byte	.LVL74
 3723 04e6 0300     		.2byte	0x3
 3724 04e8 74       		.byte	0x74
 3725 04e9 28       		.sleb128 40
 3726 04ea 9F       		.byte	0x9f
 3727 04eb 00000000 		.4byte	0
 3728 04ef 00000000 		.4byte	0
 3729              	.LLST45:
 3730 04f3 16000000 		.4byte	.LVL72
 3731 04f7 1F000000 		.4byte	.LVL74-1
 3732 04fb 0100     		.2byte	0x1
 3733 04fd 53       		.byte	0x53
 3734 04fe 00000000 		.4byte	0
 3735 0502 00000000 		.4byte	0
 3736              	.LLST46:
 3737 0506 28000000 		.4byte	.LVL77
 3738 050a 2D000000 		.4byte	.LVL78-1
 3739 050e 0100     		.2byte	0x1
 3740 0510 53       		.byte	0x53
 3741 0511 00000000 		.4byte	0
 3742 0515 00000000 		.4byte	0
 3743              		.section	.debug_aranges,"",%progbits
 3744 0000 74000000 		.4byte	0x74
 3745 0004 0200     		.2byte	0x2
 3746 0006 00000000 		.4byte	.Ldebug_info0
 3747 000a 04       		.byte	0x4
 3748 000b 00       		.byte	0
 3749 000c 0000     		.2byte	0
 3750 000e 0000     		.2byte	0
ARM GAS  /var/folders/dt/0wfd0knj7gs46m8vwfzktm600000gn/T//ccJimsz2.s 			page 67


 3751 0010 00000000 		.4byte	.LFB7
 3752 0014 46000000 		.4byte	.LFE7-.LFB7
 3753 0018 00000000 		.4byte	.LFB8
 3754 001c 6C000000 		.4byte	.LFE8-.LFB8
 3755 0020 00000000 		.4byte	.LFB9
 3756 0024 2A000000 		.4byte	.LFE9-.LFB9
 3757 0028 00000000 		.4byte	.LFB10
 3758 002c 30000000 		.4byte	.LFE10-.LFB10
 3759 0030 00000000 		.4byte	.LFB11
 3760 0034 1A000000 		.4byte	.LFE11-.LFB11
 3761 0038 00000000 		.4byte	.LFB12
 3762 003c 16000000 		.4byte	.LFE12-.LFB12
 3763 0040 00000000 		.4byte	.LFB13
 3764 0044 18000000 		.4byte	.LFE13-.LFB13
 3765 0048 00000000 		.4byte	.LFB14
 3766 004c 24000000 		.4byte	.LFE14-.LFB14
 3767 0050 00000000 		.4byte	.LFB15
 3768 0054 28000000 		.4byte	.LFE15-.LFB15
 3769 0058 00000000 		.4byte	.LFB17
 3770 005c 40000000 		.4byte	.LFE17-.LFB17
 3771 0060 00000000 		.4byte	.LFB16
 3772 0064 0A000000 		.4byte	.LFE16-.LFB16
 3773 0068 00000000 		.4byte	.LFB18
 3774 006c 38000000 		.4byte	.LFE18-.LFB18
 3775 0070 00000000 		.4byte	0
 3776 0074 00000000 		.4byte	0
 3777              		.section	.debug_ranges,"",%progbits
 3778              	.Ldebug_ranges0:
 3779 0000 06000000 		.4byte	.LBB10
 3780 0004 0E000000 		.4byte	.LBE10
 3781 0008 10000000 		.4byte	.LBB17
 3782 000c 14000000 		.4byte	.LBE17
 3783 0010 1A000000 		.4byte	.LBB18
 3784 0014 1C000000 		.4byte	.LBE18
 3785 0018 28000000 		.4byte	.LBB19
 3786 001c 2E000000 		.4byte	.LBE19
 3787 0020 30000000 		.4byte	.LBB20
 3788 0024 46000000 		.4byte	.LBE20
 3789 0028 48000000 		.4byte	.LBB21
 3790 002c 66000000 		.4byte	.LBE21
 3791 0030 00000000 		.4byte	0
 3792 0034 00000000 		.4byte	0
 3793 0038 02000000 		.4byte	.LBB26
 3794 003c 04000000 		.4byte	.LBE26
 3795 0040 06000000 		.4byte	.LBB27
 3796 0044 0A000000 		.4byte	.LBE27
 3797 0048 00000000 		.4byte	0
 3798 004c 00000000 		.4byte	0
 3799 0050 08000000 		.4byte	.LBB30
 3800 0054 0A000000 		.4byte	.LBE30
 3801 0058 10000000 		.4byte	.LBB31
 3802 005c 16000000 		.4byte	.LBE31
 3803 0060 00000000 		.4byte	0
 3804 0064 00000000 		.4byte	0
 3805 0068 12000000 		.4byte	.LBB38
 3806 006c 14000000 		.4byte	.LBE38
 3807 0070 16000000 		.4byte	.LBB41
ARM GAS  /var/folders/dt/0wfd0knj7gs46m8vwfzktm600000gn/T//ccJimsz2.s 			page 68


 3808 0074 18000000 		.4byte	.LBE41
 3809 0078 00000000 		.4byte	0
 3810 007c 00000000 		.4byte	0
 3811 0080 12000000 		.4byte	.LBB39
 3812 0084 14000000 		.4byte	.LBE39
 3813 0088 16000000 		.4byte	.LBB40
 3814 008c 18000000 		.4byte	.LBE40
 3815 0090 00000000 		.4byte	0
 3816 0094 00000000 		.4byte	0
 3817 0098 12000000 		.4byte	.LBB44
 3818 009c 14000000 		.4byte	.LBE44
 3819 00a0 18000000 		.4byte	.LBB47
 3820 00a4 1C000000 		.4byte	.LBE47
 3821 00a8 00000000 		.4byte	0
 3822 00ac 00000000 		.4byte	0
 3823 00b0 00000000 		.4byte	.LFB7
 3824 00b4 46000000 		.4byte	.LFE7
 3825 00b8 00000000 		.4byte	.LFB8
 3826 00bc 6C000000 		.4byte	.LFE8
 3827 00c0 00000000 		.4byte	.LFB9
 3828 00c4 2A000000 		.4byte	.LFE9
 3829 00c8 00000000 		.4byte	.LFB10
 3830 00cc 30000000 		.4byte	.LFE10
 3831 00d0 00000000 		.4byte	.LFB11
 3832 00d4 1A000000 		.4byte	.LFE11
 3833 00d8 00000000 		.4byte	.LFB12
 3834 00dc 16000000 		.4byte	.LFE12
 3835 00e0 00000000 		.4byte	.LFB13
 3836 00e4 18000000 		.4byte	.LFE13
 3837 00e8 00000000 		.4byte	.LFB14
 3838 00ec 24000000 		.4byte	.LFE14
 3839 00f0 00000000 		.4byte	.LFB15
 3840 00f4 28000000 		.4byte	.LFE15
 3841 00f8 00000000 		.4byte	.LFB17
 3842 00fc 40000000 		.4byte	.LFE17
 3843 0100 00000000 		.4byte	.LFB16
 3844 0104 0A000000 		.4byte	.LFE16
 3845 0108 00000000 		.4byte	.LFB18
 3846 010c 38000000 		.4byte	.LFE18
 3847 0110 00000000 		.4byte	0
 3848 0114 00000000 		.4byte	0
 3849              		.section	.debug_line,"",%progbits
 3850              	.Ldebug_line0:
 3851 0000 77030000 		.section	.debug_str,"MS",%progbits,1
 3851      0200BF01 
 3851      00000201 
 3851      FB0E0D00 
 3851      01010101 
 3852              	.LASF73:
 3853 0000 7466756E 		.ascii	"tfunc_t\000"
 3853      635F7400 
 3854              	.LASF37:
 3855 0008 705F6D73 		.ascii	"p_msg\000"
 3855      6700
 3856              	.LASF2:
 3857 000e 73697A65 		.ascii	"size_t\000"
 3857      5F7400
ARM GAS  /var/folders/dt/0wfd0knj7gs46m8vwfzktm600000gn/T//ccJimsz2.s 			page 69


 3858              	.LASF74:
 3859 0015 7072696F 		.ascii	"prio\000"
 3859      00
 3860              	.LASF68:
 3861 001a 7264796D 		.ascii	"rdymsg\000"
 3861      736700
 3862              	.LASF90:
 3863 0021 76746C69 		.ascii	"vtlist\000"
 3863      737400
 3864              	.LASF87:
 3865 0028 63685468 		.ascii	"chThdExitS\000"
 3865      64457869 
 3865      745300
 3866              	.LASF12:
 3867 0033 6C6F6E67 		.ascii	"long long unsigned int\000"
 3867      206C6F6E 
 3867      6720756E 
 3867      7369676E 
 3867      65642069 
 3868              	.LASF69:
 3869 004a 65786974 		.ascii	"exitcode\000"
 3869      636F6465 
 3869      00
 3870              	.LASF25:
 3871 0053 705F7072 		.ascii	"p_prio\000"
 3871      696F00
 3872              	.LASF11:
 3873 005a 6C6F6E67 		.ascii	"long long int\000"
 3873      206C6F6E 
 3873      6720696E 
 3873      7400
 3874              	.LASF1:
 3875 0068 7369676E 		.ascii	"signed char\000"
 3875      65642063 
 3875      68617200 
 3876              	.LASF88:
 3877 0074 63685468 		.ascii	"chThdExit\000"
 3877      64457869 
 3877      7400
 3878              	.LASF41:
 3879 007e 705F6D70 		.ascii	"p_mpool\000"
 3879      6F6F6C00 
 3880              	.LASF65:
 3881 0086 6D5F7175 		.ascii	"m_queue\000"
 3881      65756500 
 3882              	.LASF17:
 3883 008e 74736C69 		.ascii	"tslices_t\000"
 3883      6365735F 
 3883      7400
 3884              	.LASF76:
 3885 0098 63685468 		.ascii	"chThdCreateI\000"
 3885      64437265 
 3885      61746549 
 3885      00
 3886              	.LASF8:
 3887 00a5 6C6F6E67 		.ascii	"long int\000"
 3887      20696E74 
ARM GAS  /var/folders/dt/0wfd0knj7gs46m8vwfzktm600000gn/T//ccJimsz2.s 			page 70


 3887      00
 3888              	.LASF101:
 3889 00ae 2F557365 		.ascii	"/Users/toxygen/dev/chibi/ChibiOS_2.6.1/demos/ARMCM3"
 3889      72732F74 
 3889      6F787967 
 3889      656E2F64 
 3889      65762F63 
 3890 00e1 2D53544D 		.ascii	"-STM32F107\000"
 3890      33324631 
 3890      303700
 3891              	.LASF15:
 3892 00ec 74737461 		.ascii	"tstate_t\000"
 3892      74655F74 
 3892      00
 3893              	.LASF27:
 3894 00f5 705F6E65 		.ascii	"p_newer\000"
 3894      77657200 
 3895              	.LASF102:
 3896 00fd 6C697374 		.ascii	"list_remove\000"
 3896      5F72656D 
 3896      6F766500 
 3897              	.LASF94:
 3898 0109 63685363 		.ascii	"chSchRescheduleS\000"
 3898      68526573 
 3898      63686564 
 3898      756C6553 
 3898      00
 3899              	.LASF60:
 3900 011a 725F6E65 		.ascii	"r_newer\000"
 3900      77657200 
 3901              	.LASF44:
 3902 0122 72656761 		.ascii	"regarm_t\000"
 3902      726D5F74 
 3902      00
 3903              	.LASF51:
 3904 012b 76745F70 		.ascii	"vt_prev\000"
 3904      72657600 
 3905              	.LASF78:
 3906 0133 63685468 		.ascii	"chThdSetPriority\000"
 3906      64536574 
 3906      5072696F 
 3906      72697479 
 3906      00
 3907              	.LASF0:
 3908 0144 756E7369 		.ascii	"unsigned int\000"
 3908      676E6564 
 3908      20696E74 
 3908      00
 3909              	.LASF50:
 3910 0151 76745F6E 		.ascii	"vt_next\000"
 3910      65787400 
 3911              	.LASF10:
 3912 0159 6C6F6E67 		.ascii	"long unsigned int\000"
 3912      20756E73 
 3912      69676E65 
 3912      6420696E 
 3912      7400
ARM GAS  /var/folders/dt/0wfd0knj7gs46m8vwfzktm600000gn/T//ccJimsz2.s 			page 71


 3913              	.LASF46:
 3914 016b 636F6E74 		.ascii	"context\000"
 3914      65787400 
 3915              	.LASF75:
 3916 0173 73697A65 		.ascii	"size\000"
 3916      00
 3917              	.LASF6:
 3918 0178 73686F72 		.ascii	"short unsigned int\000"
 3918      7420756E 
 3918      7369676E 
 3918      65642069 
 3918      6E7400
 3919              	.LASF97:
 3920 018b 63685363 		.ascii	"chSchWakeupS\000"
 3920      6857616B 
 3920      65757053 
 3920      00
 3921              	.LASF19:
 3922 0198 6D73675F 		.ascii	"msg_t\000"
 3922      7400
 3923              	.LASF79:
 3924 019e 6E657770 		.ascii	"newprio\000"
 3924      72696F00 
 3925              	.LASF14:
 3926 01a6 746D6F64 		.ascii	"tmode_t\000"
 3926      655F7400 
 3927              	.LASF82:
 3928 01ae 63685468 		.ascii	"chThdTerminate\000"
 3928      64546572 
 3928      6D696E61 
 3928      746500
 3929              	.LASF43:
 3930 01bd 54687265 		.ascii	"ThreadsList\000"
 3930      6164734C 
 3930      69737400 
 3931              	.LASF20:
 3932 01c9 6576656E 		.ascii	"eventmask_t\000"
 3932      746D6173 
 3932      6B5F7400 
 3933              	.LASF64:
 3934 01d5 4D757465 		.ascii	"Mutex\000"
 3934      7800
 3935              	.LASF80:
 3936 01db 6F6C6470 		.ascii	"oldprio\000"
 3936      72696F00 
 3937              	.LASF77:
 3938 01e3 63685468 		.ascii	"chThdCreateStatic\000"
 3938      64437265 
 3938      61746553 
 3938      74617469 
 3938      6300
 3939              	.LASF103:
 3940 01f5 6C697374 		.ascii	"list_insert\000"
 3940      5F696E73 
 3940      65727400 
 3941              	.LASF52:
 3942 0201 76745F74 		.ascii	"vt_time\000"
ARM GAS  /var/folders/dt/0wfd0knj7gs46m8vwfzktm600000gn/T//ccJimsz2.s 			page 72


 3942      696D6500 
 3943              	.LASF47:
 3944 0209 73697A65 		.ascii	"sizetype\000"
 3944      74797065 
 3944      00
 3945              	.LASF53:
 3946 0212 76745F66 		.ascii	"vt_func\000"
 3946      756E6300 
 3947              	.LASF81:
 3948 021a 63685468 		.ascii	"chThdResume\000"
 3948      64526573 
 3948      756D6500 
 3949              	.LASF95:
 3950 0226 63685363 		.ascii	"chSchDoRescheduleBehind\000"
 3950      68446F52 
 3950      65736368 
 3950      6564756C 
 3950      65426568 
 3951              	.LASF28:
 3952 023e 705F6F6C 		.ascii	"p_older\000"
 3952      64657200 
 3953              	.LASF59:
 3954 0246 725F6374 		.ascii	"r_ctx\000"
 3954      7800
 3955              	.LASF42:
 3956 024c 54687265 		.ascii	"ThreadsQueue\000"
 3956      61647351 
 3956      75657565 
 3956      00
 3957              	.LASF84:
 3958 0259 74696D65 		.ascii	"time\000"
 3958      00
 3959              	.LASF99:
 3960 025e 474E5520 		.ascii	"GNU C 4.7.2\000"
 3960      4320342E 
 3960      372E3200 
 3961              	.LASF62:
 3962 026a 725F6375 		.ascii	"r_current\000"
 3962      7272656E 
 3962      7400
 3963              	.LASF61:
 3964 0274 725F6F6C 		.ascii	"r_older\000"
 3964      64657200 
 3965              	.LASF85:
 3966 027c 63685468 		.ascii	"chThdSleepUntil\000"
 3966      64536C65 
 3966      6570556E 
 3966      74696C00 
 3967              	.LASF16:
 3968 028c 74726566 		.ascii	"trefs_t\000"
 3968      735F7400 
 3969              	.LASF24:
 3970 0294 705F7072 		.ascii	"p_prev\000"
 3970      657600
 3971              	.LASF18:
 3972 029b 74707269 		.ascii	"tprio_t\000"
 3972      6F5F7400 
ARM GAS  /var/folders/dt/0wfd0knj7gs46m8vwfzktm600000gn/T//ccJimsz2.s 			page 73


 3973              	.LASF13:
 3974 02a3 5F426F6F 		.ascii	"_Bool\000"
 3974      6C00
 3975              	.LASF7:
 3976 02a9 696E7433 		.ascii	"int32_t\000"
 3976      325F7400 
 3977              	.LASF4:
 3978 02b1 756E7369 		.ascii	"unsigned char\000"
 3978      676E6564 
 3978      20636861 
 3978      7200
 3979              	.LASF39:
 3980 02bf 705F6D74 		.ascii	"p_mtxlist\000"
 3980      786C6973 
 3980      7400
 3981              	.LASF5:
 3982 02c9 73686F72 		.ascii	"short int\000"
 3982      7420696E 
 3982      7400
 3983              	.LASF30:
 3984 02d3 705F7374 		.ascii	"p_state\000"
 3984      61746500 
 3985              	.LASF33:
 3986 02db 705F7072 		.ascii	"p_preempt\000"
 3986      65656D70 
 3986      7400
 3987              	.LASF58:
 3988 02e5 725F7072 		.ascii	"r_prio\000"
 3988      696F00
 3989              	.LASF71:
 3990 02ec 65776D61 		.ascii	"ewmask\000"
 3990      736B00
 3991              	.LASF23:
 3992 02f3 705F6E65 		.ascii	"p_next\000"
 3992      787400
 3993              	.LASF31:
 3994 02fa 705F666C 		.ascii	"p_flags\000"
 3994      61677300 
 3995              	.LASF104:
 3996 0302 63685468 		.ascii	"chThdRelease\000"
 3996      6452656C 
 3996      65617365 
 3996      00
 3997              	.LASF22:
 3998 030f 54687265 		.ascii	"Thread\000"
 3998      616400
 3999              	.LASF98:
 4000 0316 63685363 		.ascii	"chSchGoSleepS\000"
 4000      68476F53 
 4000      6C656570 
 4000      5300
 4001              	.LASF38:
 4002 0324 705F6570 		.ascii	"p_epending\000"
 4002      656E6469 
 4002      6E6700
 4003              	.LASF9:
 4004 032f 75696E74 		.ascii	"uint32_t\000"
ARM GAS  /var/folders/dt/0wfd0knj7gs46m8vwfzktm600000gn/T//ccJimsz2.s 			page 74


 4004      33325F74 
 4004      00
 4005              	.LASF92:
 4006 0338 5F746872 		.ascii	"_thread_init\000"
 4006      6561645F 
 4006      696E6974 
 4006      00
 4007              	.LASF57:
 4008 0345 725F7175 		.ascii	"r_queue\000"
 4008      65756500 
 4009              	.LASF49:
 4010 034d 56697274 		.ascii	"VirtualTimer\000"
 4010      75616C54 
 4010      696D6572 
 4010      00
 4011              	.LASF72:
 4012 035a 63686172 		.ascii	"char\000"
 4012      00
 4013              	.LASF96:
 4014 035f 63685363 		.ascii	"chSchReadyI\000"
 4014      68526561 
 4014      64794900 
 4015              	.LASF67:
 4016 036b 6D5F6E65 		.ascii	"m_next\000"
 4016      787400
 4017              	.LASF21:
 4018 0372 73797374 		.ascii	"systime_t\000"
 4018      696D655F 
 4018      7400
 4019              	.LASF40:
 4020 037c 705F7265 		.ascii	"p_realprio\000"
 4020      616C7072 
 4020      696F00
 4021              	.LASF48:
 4022 0387 76746675 		.ascii	"vtfunc_t\000"
 4022      6E635F74 
 4022      00
 4023              	.LASF86:
 4024 0390 63685468 		.ascii	"chThdYield\000"
 4024      64596965 
 4024      6C6400
 4025              	.LASF34:
 4026 039b 705F7469 		.ascii	"p_time\000"
 4026      6D6500
 4027              	.LASF45:
 4028 03a2 696E7463 		.ascii	"intctx\000"
 4028      747800
 4029              	.LASF36:
 4030 03a9 705F6D73 		.ascii	"p_msgqueue\000"
 4030      67717565 
 4030      756500
 4031              	.LASF89:
 4032 03b4 63685468 		.ascii	"chThdWait\000"
 4032      64576169 
 4032      7400
 4033              	.LASF54:
 4034 03be 76745F70 		.ascii	"vt_par\000"
ARM GAS  /var/folders/dt/0wfd0knj7gs46m8vwfzktm600000gn/T//ccJimsz2.s 			page 75


 4034      617200
 4035              	.LASF83:
 4036 03c5 63685468 		.ascii	"chThdSleep\000"
 4036      64536C65 
 4036      657000
 4037              	.LASF32:
 4038 03d0 705F7265 		.ascii	"p_refs\000"
 4038      667300
 4039              	.LASF63:
 4040 03d7 52656164 		.ascii	"ReadyList\000"
 4040      794C6973 
 4040      7400
 4041              	.LASF91:
 4042 03e1 726C6973 		.ascii	"rlist\000"
 4042      7400
 4043              	.LASF3:
 4044 03e7 75696E74 		.ascii	"uint8_t\000"
 4044      385F7400 
 4045              	.LASF100:
 4046 03ef 2E2E2F2E 		.ascii	"../../os/kernel/src/chthreads.c\000"
 4046      2E2F6F73 
 4046      2F6B6572 
 4046      6E656C2F 
 4046      7372632F 
 4047              	.LASF70:
 4048 040f 77746F62 		.ascii	"wtobjp\000"
 4048      6A7000
 4049              	.LASF29:
 4050 0416 705F6E61 		.ascii	"p_name\000"
 4050      6D6500
 4051              	.LASF55:
 4052 041d 76745F73 		.ascii	"vt_systime\000"
 4052      79737469 
 4052      6D6500
 4053              	.LASF93:
 4054 0428 63685363 		.ascii	"chSchGoSleepTimeoutS\000"
 4054      68476F53 
 4054      6C656570 
 4054      54696D65 
 4054      6F757453 
 4055              	.LASF56:
 4056 043d 56544C69 		.ascii	"VTList\000"
 4056      737400
 4057              	.LASF66:
 4058 0444 6D5F6F77 		.ascii	"m_owner\000"
 4058      6E657200 
 4059              	.LASF26:
 4060 044c 705F6374 		.ascii	"p_ctx\000"
 4060      7800
 4061              	.LASF35:
 4062 0452 705F7761 		.ascii	"p_waiting\000"
 4062      6974696E 
 4062      6700
 4063              		.ident	"GCC: (GNU) 4.7.2"
ARM GAS  /var/folders/dt/0wfd0knj7gs46m8vwfzktm600000gn/T//ccJimsz2.s 			page 76


DEFINED SYMBOLS
                            *ABS*:0000000000000000 chthreads.c
/var/folders/dt/0wfd0knj7gs46m8vwfzktm600000gn/T//ccJimsz2.s:19     .text._thread_init:0000000000000000 $t
/var/folders/dt/0wfd0knj7gs46m8vwfzktm600000gn/T//ccJimsz2.s:25     .text._thread_init:0000000000000000 _thread_init
/var/folders/dt/0wfd0knj7gs46m8vwfzktm600000gn/T//ccJimsz2.s:98     .text.chThdCreateI:0000000000000000 $t
/var/folders/dt/0wfd0knj7gs46m8vwfzktm600000gn/T//ccJimsz2.s:104    .text.chThdCreateI:0000000000000000 chThdCreateI
/var/folders/dt/0wfd0knj7gs46m8vwfzktm600000gn/T//ccJimsz2.s:222    .text.chThdCreateStatic:0000000000000000 $t
/var/folders/dt/0wfd0knj7gs46m8vwfzktm600000gn/T//ccJimsz2.s:228    .text.chThdCreateStatic:0000000000000000 chThdCreateStatic
/var/folders/dt/0wfd0knj7gs46m8vwfzktm600000gn/T//ccJimsz2.s:285    .text.chThdSetPriority:0000000000000000 $t
/var/folders/dt/0wfd0knj7gs46m8vwfzktm600000gn/T//ccJimsz2.s:291    .text.chThdSetPriority:0000000000000000 chThdSetPriority
/var/folders/dt/0wfd0knj7gs46m8vwfzktm600000gn/T//ccJimsz2.s:351    .text.chThdSetPriority:000000000000002c $d
/var/folders/dt/0wfd0knj7gs46m8vwfzktm600000gn/T//ccJimsz2.s:356    .text.chThdResume:0000000000000000 $t
/var/folders/dt/0wfd0knj7gs46m8vwfzktm600000gn/T//ccJimsz2.s:362    .text.chThdResume:0000000000000000 chThdResume
/var/folders/dt/0wfd0knj7gs46m8vwfzktm600000gn/T//ccJimsz2.s:410    .text.chThdTerminate:0000000000000000 $t
/var/folders/dt/0wfd0knj7gs46m8vwfzktm600000gn/T//ccJimsz2.s:416    .text.chThdTerminate:0000000000000000 chThdTerminate
/var/folders/dt/0wfd0knj7gs46m8vwfzktm600000gn/T//ccJimsz2.s:457    .text.chThdSleep:0000000000000000 $t
/var/folders/dt/0wfd0knj7gs46m8vwfzktm600000gn/T//ccJimsz2.s:463    .text.chThdSleep:0000000000000000 chThdSleep
/var/folders/dt/0wfd0knj7gs46m8vwfzktm600000gn/T//ccJimsz2.s:507    .text.chThdSleepUntil:0000000000000000 $t
/var/folders/dt/0wfd0knj7gs46m8vwfzktm600000gn/T//ccJimsz2.s:513    .text.chThdSleepUntil:0000000000000000 chThdSleepUntil
/var/folders/dt/0wfd0knj7gs46m8vwfzktm600000gn/T//ccJimsz2.s:561    .text.chThdSleepUntil:0000000000000020 $d
/var/folders/dt/0wfd0knj7gs46m8vwfzktm600000gn/T//ccJimsz2.s:567    .text.chThdYield:0000000000000000 $t
/var/folders/dt/0wfd0knj7gs46m8vwfzktm600000gn/T//ccJimsz2.s:573    .text.chThdYield:0000000000000000 chThdYield
/var/folders/dt/0wfd0knj7gs46m8vwfzktm600000gn/T//ccJimsz2.s:620    .text.chThdYield:0000000000000024 $d
/var/folders/dt/0wfd0knj7gs46m8vwfzktm600000gn/T//ccJimsz2.s:626    .text.chThdExitS:0000000000000000 $t
/var/folders/dt/0wfd0knj7gs46m8vwfzktm600000gn/T//ccJimsz2.s:632    .text.chThdExitS:0000000000000000 chThdExitS
/var/folders/dt/0wfd0knj7gs46m8vwfzktm600000gn/T//ccJimsz2.s:705    .text.chThdExitS:000000000000003c $d
/var/folders/dt/0wfd0knj7gs46m8vwfzktm600000gn/T//ccJimsz2.s:710    .text.chThdExit:0000000000000000 $t
/var/folders/dt/0wfd0knj7gs46m8vwfzktm600000gn/T//ccJimsz2.s:716    .text.chThdExit:0000000000000000 chThdExit
/var/folders/dt/0wfd0knj7gs46m8vwfzktm600000gn/T//ccJimsz2.s:742    .text.chThdWait:0000000000000000 $t
/var/folders/dt/0wfd0knj7gs46m8vwfzktm600000gn/T//ccJimsz2.s:748    .text.chThdWait:0000000000000000 chThdWait
/var/folders/dt/0wfd0knj7gs46m8vwfzktm600000gn/T//ccJimsz2.s:828    .text.chThdWait:0000000000000034 $d
                     .debug_frame:0000000000000010 $d
/var/folders/dt/0wfd0knj7gs46m8vwfzktm600000gn/T//ccJimsz2.s:566    .text.chThdSleepUntil:0000000000000024 $t
/var/folders/dt/0wfd0knj7gs46m8vwfzktm600000gn/T//ccJimsz2.s:625    .text.chThdYield:0000000000000028 $t
/var/folders/dt/0wfd0knj7gs46m8vwfzktm600000gn/T//ccJimsz2.s:832    .text.chThdWait:0000000000000038 $t

UNDEFINED SYMBOLS
rlist
_port_thread_start
chSchWakeupS
chSchRescheduleS
chSchGoSleepTimeoutS
vtlist
chSchDoRescheduleBehind
chSchReadyI
chSchGoSleepS
chThdRelease
