ARM GAS  /var/folders/dt/0wfd0knj7gs46m8vwfzktm600000gn/T//ccJimsz2.s 			page 1


   1              		.syntax unified
   2              		.cpu cortex-m3
   3              		.fpu softvfp
   4              		.eabi_attribute 20, 1
   5              		.eabi_attribute 21, 1
   6              		.eabi_attribute 23, 3
   7              		.eabi_attribute 24, 1
   8              		.eabi_attribute 25, 1
   9              		.eabi_attribute 26, 1
  10              		.eabi_attribute 30, 2
  11              		.eabi_attribute 34, 1
  12              		.eabi_attribute 18, 4
  13              		.thumb
  14              		.file	"chthreads.c"
  15              		.text
  16              	.Ltext0:
  17              		.cfi_sections	.debug_frame
  18              		.section	.text._thread_init,"ax",%progbits
  19              		.align	2
  20              		.p2align 4,,15
  21              		.global	_thread_init
  22              		.thumb
  23              		.thumb_func
  24              		.type	_thread_init, %function
  25              	_thread_init:
  26              	.LFB7:
  27              		.file 1 "../../os/kernel/src/chthreads.c"
  28              		.loc 1 76 0
  29              		.cfi_startproc
  30              		@ args = 0, pretend = 0, frame = 0
  31              		@ frame_needed = 0, uses_anonymous_args = 0
  32              		@ link register save eliminated.
  33              	.LVL0:
  34 0000 F0B4     		push	{r4, r5, r6, r7}
  35              	.LCFI0:
  36              		.cfi_def_cfa_offset 16
  37              		.cfi_offset 4, -16
  38              		.cfi_offset 5, -12
  39              		.cfi_offset 6, -8
  40              		.cfi_offset 7, -4
  41              		.loc 1 99 0
  42 0002 40F20004 		movw	r4, #:lower16:rlist
  43 0006 C0F20004 		movt	r4, #:upper16:rlist
  44 000a 6569     		ldr	r5, [r4, #20]
  45              		.loc 1 80 0
  46 000c 0022     		movs	r2, #0
  47              		.loc 1 99 0
  48 000e 0461     		str	r4, [r0, #16]
  49              		.loc 1 105 0
  50 0010 00F12C06 		add	r6, r0, #44
  51              		.loc 1 78 0
  52 0014 8160     		str	r1, [r0, #8]
  53              		.loc 1 102 0
  54 0016 00F12807 		add	r7, r0, #40
  55              		.loc 1 99 0
  56 001a 4561     		str	r5, [r0, #20]
  57              		.loc 1 79 0
ARM GAS  /var/folders/dt/0wfd0knj7gs46m8vwfzktm600000gn/T//ccJimsz2.s 			page 2


  58 001c 4FF0020C 		mov	ip, #2
  59              		.loc 1 99 0
  60 0020 6061     		str	r0, [r4, #20]
  61              		.loc 1 85 0
  62 0022 0164     		str	r1, [r0, #64]
  63              		.loc 1 82 0
  64 0024 1424     		movs	r4, #20
  65              		.loc 1 95 0
  66 0026 0121     		movs	r1, #1
  67              	.LVL1:
  68              		.loc 1 79 0
  69 0028 80F81CC0 		strb	ip, [r0, #28]
  70              		.loc 1 80 0
  71 002c 4277     		strb	r2, [r0, #29]
  72              		.loc 1 82 0
  73 002e C477     		strb	r4, [r0, #31]
  74              		.loc 1 86 0
  75 0030 C263     		str	r2, [r0, #60]
  76              		.loc 1 89 0
  77 0032 8263     		str	r2, [r0, #56]
  78              		.loc 1 92 0
  79 0034 0262     		str	r2, [r0, #32]
  80              		.loc 1 95 0
  81 0036 8177     		strb	r1, [r0, #30]
  82              		.loc 1 98 0
  83 0038 8261     		str	r2, [r0, #24]
  84              		.loc 1 99 0
  85 003a 2861     		str	r0, [r5, #16]
  86              		.loc 1 102 0
  87 003c 8762     		str	r7, [r0, #40]
  88              		.loc 1 105 0
  89 003e 0663     		str	r6, [r0, #48]
  90 0040 C662     		str	r6, [r0, #44]
  91              		.loc 1 114 0
  92 0042 F0BC     		pop	{r4, r5, r6, r7}
  93 0044 7047     		bx	lr
  94              		.cfi_endproc
  95              	.LFE7:
  96              		.size	_thread_init, .-_thread_init
  97 0046 00BFAFF3 		.section	.text.chThdCreateI,"ax",%progbits
  97      0080AFF3 
  97      0080
  98              		.align	2
  99              		.p2align 4,,15
 100              		.global	chThdCreateI
 101              		.thumb
 102              		.thumb_func
 103              		.type	chThdCreateI, %function
 104              	chThdCreateI:
 105              	.LFB8:
 106              		.loc 1 158 0
 107              		.cfi_startproc
 108              		@ args = 4, pretend = 0, frame = 0
 109              		@ frame_needed = 0, uses_anonymous_args = 0
 110              		@ link register save eliminated.
 111              	.LVL2:
 112 0000 2DE9F003 		push	{r4, r5, r6, r7, r8, r9}
ARM GAS  /var/folders/dt/0wfd0knj7gs46m8vwfzktm600000gn/T//ccJimsz2.s 			page 3


 113              	.LCFI1:
 114              		.cfi_def_cfa_offset 24
 115              		.cfi_offset 4, -24
 116              		.cfi_offset 5, -20
 117              		.cfi_offset 6, -16
 118              		.cfi_offset 7, -12
 119              		.cfi_offset 8, -8
 120              		.cfi_offset 9, -4
 121              		.loc 1 167 0
 122 0004 2439     		subs	r1, r1, #36
 123              	.LVL3:
 124              	.LBB10:
 125              	.LBB11:
 126              		.loc 1 99 0
 127 0006 40F20005 		movw	r5, #:lower16:rlist
 128 000a C0F20005 		movt	r5, #:upper16:rlist
 129              	.LBE11:
 130              	.LBE10:
 131              		.loc 1 167 0
 132 000e 4718     		adds	r7, r0, r1
 133              	.LBB17:
 134              	.LBB12:
 135              		.loc 1 99 0
 136 0010 D5F814C0 		ldr	ip, [r5, #20]
 137              	.LBE12:
 138              	.LBE17:
 139              		.loc 1 167 0
 140 0014 C760     		str	r7, [r0, #12]
 141 0016 4350     		str	r3, [r0, r1]
 142 0018 069B     		ldr	r3, [sp, #24]
 143              	.LVL4:
 144              	.LBB18:
 145              	.LBB13:
 146              		.loc 1 80 0
 147 001a 0026     		movs	r6, #0
 148              	.LBE13:
 149              	.LBE18:
 150              		.loc 1 167 0
 151 001c 7B60     		str	r3, [r7, #4]
 152 001e 40F20003 		movw	r3, #:lower16:_port_thread_start
 153 0022 C0F20003 		movt	r3, #:upper16:_port_thread_start
 154 0026 3B62     		str	r3, [r7, #32]
 155              	.LBB19:
 156              	.LBB14:
 157              		.loc 1 79 0
 158 0028 0223     		movs	r3, #2
 159 002a 0377     		strb	r3, [r0, #28]
 160              		.loc 1 82 0
 161 002c 1423     		movs	r3, #20
 162              	.LBE14:
 163              	.LBE19:
 164              		.loc 1 158 0
 165 002e 9046     		mov	r8, r2
 166              	.LBB20:
 167              	.LBB15:
 168              		.loc 1 102 0
 169 0030 00F12809 		add	r9, r0, #40
ARM GAS  /var/folders/dt/0wfd0knj7gs46m8vwfzktm600000gn/T//ccJimsz2.s 			page 4


 170              		.loc 1 105 0
 171 0034 00F12C02 		add	r2, r0, #44
 172              	.LVL5:
 173              		.loc 1 82 0
 174 0038 C377     		strb	r3, [r0, #31]
 175              		.loc 1 95 0
 176 003a 0123     		movs	r3, #1
 177              		.loc 1 99 0
 178 003c 0561     		str	r5, [r0, #16]
 179              		.loc 1 78 0
 180 003e C0F80880 		str	r8, [r0, #8]
 181              		.loc 1 99 0
 182 0042 C0F814C0 		str	ip, [r0, #20]
 183              	.LBE15:
 184              	.LBE20:
 185              		.loc 1 158 0
 186 0046 0446     		mov	r4, r0
 187              	.LVL6:
 188              	.LBB21:
 189              	.LBB16:
 190              		.loc 1 99 0
 191 0048 6861     		str	r0, [r5, #20]
 192              		.loc 1 80 0
 193 004a 4677     		strb	r6, [r0, #29]
 194              		.loc 1 85 0
 195 004c C0F84080 		str	r8, [r0, #64]
 196              		.loc 1 86 0
 197 0050 C663     		str	r6, [r0, #60]
 198              		.loc 1 89 0
 199 0052 8663     		str	r6, [r0, #56]
 200              		.loc 1 92 0
 201 0054 0662     		str	r6, [r0, #32]
 202              		.loc 1 95 0
 203 0056 8377     		strb	r3, [r0, #30]
 204              		.loc 1 98 0
 205 0058 8661     		str	r6, [r0, #24]
 206              		.loc 1 99 0
 207 005a CCF81000 		str	r0, [ip, #16]
 208              		.loc 1 102 0
 209 005e C0F82890 		str	r9, [r0, #40]
 210              		.loc 1 105 0
 211 0062 0263     		str	r2, [r0, #48]
 212 0064 C262     		str	r2, [r0, #44]
 213              	.LBE16:
 214              	.LBE21:
 215              		.loc 1 169 0
 216 0066 BDE8F003 		pop	{r4, r5, r6, r7, r8, r9}
 217 006a 7047     		bx	lr
 218              		.cfi_endproc
 219              	.LFE8:
 220              		.size	chThdCreateI, .-chThdCreateI
 221 006c AFF30080 		.section	.text.chThdCreateStatic,"ax",%progbits
 222              		.align	2
 223              		.p2align 4,,15
 224              		.global	chThdCreateStatic
 225              		.thumb
 226              		.thumb_func
ARM GAS  /var/folders/dt/0wfd0knj7gs46m8vwfzktm600000gn/T//ccJimsz2.s 			page 5


 227              		.type	chThdCreateStatic, %function
 228              	chThdCreateStatic:
 229              	.LFB9:
 230              		.loc 1 188 0
 231              		.cfi_startproc
 232              		@ args = 4, pretend = 0, frame = 0
 233              		@ frame_needed = 0, uses_anonymous_args = 0
 234              	.LVL7:
 235 0000 10B5     		push	{r4, lr}
 236              	.LCFI2:
 237              		.cfi_def_cfa_offset 8
 238              		.cfi_offset 4, -8
 239              		.cfi_offset 14, -4
 240 0002 1C46     		mov	r4, r3
 241 0004 82B0     		sub	sp, sp, #8
 242              	.LCFI3:
 243              		.cfi_def_cfa_offset 16
 244              	.LBB22:
 245              		.loc 1 199 0
 246 0006 2023     		movs	r3, #32
 247              	.LVL8:
 248              	@ 199 "../../os/kernel/src/chthreads.c" 1
 249 0008 83F31188 		msr     BASEPRI, r3
 250              	@ 0 "" 2
 251              	.LVL9:
 252              		.thumb
 253              	.LBE22:
 254              		.loc 1 200 0
 255 000c 2346     		mov	r3, r4
 256              	.LVL10:
 257 000e 049C     		ldr	r4, [sp, #16]
 258              	.LVL11:
 259 0010 0094     		str	r4, [sp, #0]
 260 0012 FFF7FEFF 		bl	chThdCreateI
 261              	.LVL12:
 262 0016 0021     		movs	r1, #0
 263 0018 0446     		mov	r4, r0
 264              	.LVL13:
 265 001a FFF7FEFF 		bl	chSchWakeupS
 266              	.LVL14:
 267              	.LBB23:
 268              		.loc 1 201 0
 269 001e 0023     		movs	r3, #0
 270              	.LVL15:
 271              	@ 201 "../../os/kernel/src/chthreads.c" 1
 272 0020 83F31188 		msr     BASEPRI, r3
 273              	@ 0 "" 2
 274              	.LVL16:
 275              		.thumb
 276              	.LBE23:
 277              		.loc 1 203 0
 278 0024 2046     		mov	r0, r4
 279 0026 02B0     		add	sp, sp, #8
 280 0028 10BD     		pop	{r4, pc}
 281              		.cfi_endproc
 282              	.LFE9:
 283              		.size	chThdCreateStatic, .-chThdCreateStatic
ARM GAS  /var/folders/dt/0wfd0knj7gs46m8vwfzktm600000gn/T//ccJimsz2.s 			page 6


 284 002a 00BFAFF3 		.section	.text.chThdSetPriority,"ax",%progbits
 284      0080
 285              		.align	2
 286              		.p2align 4,,15
 287              		.global	chThdSetPriority
 288              		.thumb
 289              		.thumb_func
 290              		.type	chThdSetPriority, %function
 291              	chThdSetPriority:
 292              	.LFB10:
 293              		.loc 1 217 0
 294              		.cfi_startproc
 295              		@ args = 0, pretend = 0, frame = 0
 296              		@ frame_needed = 0, uses_anonymous_args = 0
 297              	.LVL17:
 298 0000 10B5     		push	{r4, lr}
 299              	.LCFI4:
 300              		.cfi_def_cfa_offset 8
 301              		.cfi_offset 4, -8
 302              		.cfi_offset 14, -4
 303              	.LBB24:
 304              		.loc 1 222 0
 305 0002 2023     		movs	r3, #32
 306              	.LVL18:
 307              	@ 222 "../../os/kernel/src/chthreads.c" 1
 308 0004 83F31188 		msr     BASEPRI, r3
 309              	@ 0 "" 2
 310              	.LVL19:
 311              		.thumb
 312              	.LBE24:
 313              		.loc 1 224 0
 314 0008 084B     		ldr	r3, .L8
 315              	.LVL20:
 316 000a 9B69     		ldr	r3, [r3, #24]
 317 000c 1C6C     		ldr	r4, [r3, #64]
 318              	.LVL21:
 319              		.loc 1 225 0
 320 000e 9968     		ldr	r1, [r3, #8]
 321 0010 8C42     		cmp	r4, r1
 322 0012 01D0     		beq	.L5
 323              		.loc 1 225 0 is_stmt 0 discriminator 1
 324 0014 8142     		cmp	r1, r0
 325 0016 00D2     		bcs	.L6
 326              	.L5:
 327              		.loc 1 226 0 is_stmt 1
 328 0018 9860     		str	r0, [r3, #8]
 329              	.L6:
 330              		.loc 1 227 0
 331 001a 1864     		str	r0, [r3, #64]
 332              		.loc 1 232 0
 333 001c FFF7FEFF 		bl	chSchRescheduleS
 334              	.LVL22:
 335              	.LBB25:
 336              		.loc 1 233 0
 337 0020 0023     		movs	r3, #0
 338              	.LVL23:
 339              	@ 233 "../../os/kernel/src/chthreads.c" 1
ARM GAS  /var/folders/dt/0wfd0knj7gs46m8vwfzktm600000gn/T//ccJimsz2.s 			page 7


 340 0022 83F31188 		msr     BASEPRI, r3
 341              	@ 0 "" 2
 342              	.LVL24:
 343              		.thumb
 344              	.LBE25:
 345              		.loc 1 235 0
 346 0026 2046     		mov	r0, r4
 347 0028 10BD     		pop	{r4, pc}
 348              	.L9:
 349 002a 00BF     		.align	2
 350              	.L8:
 351 002c 00000000 		.word	rlist
 352              		.cfi_endproc
 353              	.LFE10:
 354              		.size	chThdSetPriority, .-chThdSetPriority
 355              		.section	.text.chThdResume,"ax",%progbits
 356              		.align	2
 357              		.p2align 4,,15
 358              		.global	chThdResume
 359              		.thumb
 360              		.thumb_func
 361              		.type	chThdResume, %function
 362              	chThdResume:
 363              	.LFB11:
 364              		.loc 1 250 0
 365              		.cfi_startproc
 366              		@ args = 0, pretend = 0, frame = 0
 367              		@ frame_needed = 0, uses_anonymous_args = 0
 368              	.LVL25:
 369 0000 10B5     		push	{r4, lr}
 370              	.LCFI5:
 371              		.cfi_def_cfa_offset 8
 372              		.cfi_offset 4, -8
 373              		.cfi_offset 14, -4
 374              	.LBB26:
 375              		.loc 1 252 0
 376 0002 2023     		movs	r3, #32
 377              	.LVL26:
 378              	.LBE26:
 379              		.loc 1 250 0
 380 0004 0446     		mov	r4, r0
 381              	.LBB27:
 382              		.loc 1 252 0
 383              	@ 252 "../../os/kernel/src/chthreads.c" 1
 384 0006 83F31188 		msr     BASEPRI, r3
 385              	@ 0 "" 2
 386              	.LVL27:
 387              		.thumb
 388              	.LBE27:
 389              		.loc 1 256 0
 390 000a 0021     		movs	r1, #0
 391 000c FFF7FEFF 		bl	chSchWakeupS
 392              	.LVL28:
 393              	.LBB28:
 394              		.loc 1 257 0
 395 0010 0023     		movs	r3, #0
 396              	.LVL29:
ARM GAS  /var/folders/dt/0wfd0knj7gs46m8vwfzktm600000gn/T//ccJimsz2.s 			page 8


 397              	@ 257 "../../os/kernel/src/chthreads.c" 1
 398 0012 83F31188 		msr     BASEPRI, r3
 399              	@ 0 "" 2
 400              	.LVL30:
 401              		.thumb
 402              	.LBE28:
 403              		.loc 1 259 0
 404 0016 2046     		mov	r0, r4
 405 0018 10BD     		pop	{r4, pc}
 406              		.cfi_endproc
 407              	.LFE11:
 408              		.size	chThdResume, .-chThdResume
 409 001a 00BFAFF3 		.section	.text.chThdTerminate,"ax",%progbits
 409      0080
 410              		.align	2
 411              		.p2align 4,,15
 412              		.global	chThdTerminate
 413              		.thumb
 414              		.thumb_func
 415              		.type	chThdTerminate, %function
 416              	chThdTerminate:
 417              	.LFB12:
 418              		.loc 1 273 0
 419              		.cfi_startproc
 420              		@ args = 0, pretend = 0, frame = 0
 421              		@ frame_needed = 0, uses_anonymous_args = 0
 422              		@ link register save eliminated.
 423              	.LVL31:
 424              	.LBB29:
 425              		.loc 1 275 0
 426 0000 2023     		movs	r3, #32
 427              	.LVL32:
 428              	@ 275 "../../os/kernel/src/chthreads.c" 1
 429 0002 83F31188 		msr     BASEPRI, r3
 430              	@ 0 "" 2
 431              	.LVL33:
 432              		.thumb
 433              	.LBE29:
 434              		.loc 1 276 0
 435 0006 427F     		ldrb	r2, [r0, #29]	@ zero_extendqisi2
 436              	.LBB30:
 437              		.loc 1 277 0
 438 0008 0023     		movs	r3, #0
 439              	.LVL34:
 440              	.LBE30:
 441              		.loc 1 276 0
 442 000a 42F00402 		orr	r2, r2, #4
 443 000e 4277     		strb	r2, [r0, #29]
 444              	.LBB31:
 445              		.loc 1 277 0
 446              	@ 277 "../../os/kernel/src/chthreads.c" 1
 447 0010 83F31188 		msr     BASEPRI, r3
 448              	@ 0 "" 2
 449              	.LVL35:
 450              		.thumb
 451 0014 7047     		bx	lr
 452              	.LBE31:
ARM GAS  /var/folders/dt/0wfd0knj7gs46m8vwfzktm600000gn/T//ccJimsz2.s 			page 9


 453              		.cfi_endproc
 454              	.LFE12:
 455              		.size	chThdTerminate, .-chThdTerminate
 456 0016 00BFAFF3 		.section	.text.chThdSleep,"ax",%progbits
 456      0080AFF3 
 456      0080
 457              		.align	2
 458              		.p2align 4,,15
 459              		.global	chThdSleep
 460              		.thumb
 461              		.thumb_func
 462              		.type	chThdSleep, %function
 463              	chThdSleep:
 464              	.LFB13:
 465              		.loc 1 292 0
 466              		.cfi_startproc
 467              		@ args = 0, pretend = 0, frame = 0
 468              		@ frame_needed = 0, uses_anonymous_args = 0
 469              	.LVL36:
 470 0000 08B5     		push	{r3, lr}
 471              	.LCFI6:
 472              		.cfi_def_cfa_offset 8
 473              		.cfi_offset 3, -8
 474              		.cfi_offset 14, -4
 475              		.loc 1 292 0
 476 0002 0146     		mov	r1, r0
 477              	.LBB32:
 478              		.loc 1 296 0
 479 0004 2023     		movs	r3, #32
 480              	.LVL37:
 481              	@ 296 "../../os/kernel/src/chthreads.c" 1
 482 0006 83F31188 		msr     BASEPRI, r3
 483              	@ 0 "" 2
 484              	.LVL38:
 485              		.thumb
 486              	.LBE32:
 487              		.loc 1 297 0
 488 000a 0620     		movs	r0, #6
 489              	.LVL39:
 490 000c FFF7FEFF 		bl	chSchGoSleepTimeoutS
 491              	.LVL40:
 492              	.LBB33:
 493              		.loc 1 298 0
 494 0010 0023     		movs	r3, #0
 495              	.LVL41:
 496              	@ 298 "../../os/kernel/src/chthreads.c" 1
 497 0012 83F31188 		msr     BASEPRI, r3
 498              	@ 0 "" 2
 499              	.LVL42:
 500              		.thumb
 501 0016 08BD     		pop	{r3, pc}
 502              	.LBE33:
 503              		.cfi_endproc
 504              	.LFE13:
 505              		.size	chThdSleep, .-chThdSleep
 506 0018 AFF30080 		.section	.text.chThdSleepUntil,"ax",%progbits
 506      AFF30080 
ARM GAS  /var/folders/dt/0wfd0knj7gs46m8vwfzktm600000gn/T//ccJimsz2.s 			page 10


 507              		.align	2
 508              		.p2align 4,,15
 509              		.global	chThdSleepUntil
 510              		.thumb
 511              		.thumb_func
 512              		.type	chThdSleepUntil, %function
 513              	chThdSleepUntil:
 514              	.LFB14:
 515              		.loc 1 309 0
 516              		.cfi_startproc
 517              		@ args = 0, pretend = 0, frame = 0
 518              		@ frame_needed = 0, uses_anonymous_args = 0
 519              	.LVL43:
 520 0000 08B5     		push	{r3, lr}
 521              	.LCFI7:
 522              		.cfi_def_cfa_offset 8
 523              		.cfi_offset 3, -8
 524              		.cfi_offset 14, -4
 525              	.LBB34:
 526              		.loc 1 311 0
 527 0002 2023     		movs	r3, #32
 528              	.LVL44:
 529              	@ 311 "../../os/kernel/src/chthreads.c" 1
 530 0004 83F31188 		msr     BASEPRI, r3
 531              	@ 0 "" 2
 532              	.LVL45:
 533              		.thumb
 534              	.LBE34:
 535              		.loc 1 312 0
 536 0008 054B     		ldr	r3, .L18
 537              	.LVL46:
 538 000a D968     		ldr	r1, [r3, #12]
 539              	.LVL47:
 540 000c 411A     		subs	r1, r0, r1
 541              	.LVL48:
 542 000e 02D0     		beq	.L14
 543              		.loc 1 313 0
 544 0010 0620     		movs	r0, #6
 545 0012 FFF7FEFF 		bl	chSchGoSleepTimeoutS
 546              	.LVL49:
 547              	.L14:
 548              	.LBB35:
 549              		.loc 1 314 0
 550 0016 0023     		movs	r3, #0
 551              	.LVL50:
 552              	@ 314 "../../os/kernel/src/chthreads.c" 1
 553 0018 83F31188 		msr     BASEPRI, r3
 554              	@ 0 "" 2
 555              	.LVL51:
 556              		.thumb
 557 001c 08BD     		pop	{r3, pc}
 558              	.L19:
 559 001e 00BF     		.align	2
 560              	.L18:
 561 0020 00000000 		.word	vtlist
 562              	.LBE35:
 563              		.cfi_endproc
ARM GAS  /var/folders/dt/0wfd0knj7gs46m8vwfzktm600000gn/T//ccJimsz2.s 			page 11


 564              	.LFE14:
 565              		.size	chThdSleepUntil, .-chThdSleepUntil
 566 0024 AFF30080 		.section	.text.chThdYield,"ax",%progbits
 566      AFF30080 
 566      AFF30080 
 567              		.align	2
 568              		.p2align 4,,15
 569              		.global	chThdYield
 570              		.thumb
 571              		.thumb_func
 572              		.type	chThdYield, %function
 573              	chThdYield:
 574              	.LFB15:
 575              		.loc 1 324 0
 576              		.cfi_startproc
 577              		@ args = 0, pretend = 0, frame = 0
 578              		@ frame_needed = 0, uses_anonymous_args = 0
 579 0000 08B5     		push	{r3, lr}
 580              	.LCFI8:
 581              		.cfi_def_cfa_offset 8
 582              		.cfi_offset 3, -8
 583              		.cfi_offset 14, -4
 584              	.LBB36:
 585              		.loc 1 326 0
 586 0002 2023     		movs	r3, #32
 587              	.LVL52:
 588              	@ 326 "../../os/kernel/src/chthreads.c" 1
 589 0004 83F31188 		msr     BASEPRI, r3
 590              	@ 0 "" 2
 591              	.LVL53:
 592              		.thumb
 593              	.LBE36:
 594              		.loc 1 327 0
 595 0008 064B     		ldr	r3, .L22
 596              	.LVL54:
 597 000a 1A68     		ldr	r2, [r3, #0]
 598 000c 9B69     		ldr	r3, [r3, #24]
 599 000e 9268     		ldr	r2, [r2, #8]
 600 0010 9B68     		ldr	r3, [r3, #8]
 601 0012 9A42     		cmp	r2, r3
 602 0014 01D3     		bcc	.L21
 603              		.loc 1 327 0 is_stmt 0 discriminator 1
 604 0016 FFF7FEFF 		bl	chSchDoRescheduleBehind
 605              	.LVL55:
 606              	.L21:
 607              	.LBB37:
 608              		.loc 1 328 0 is_stmt 1
 609 001a 0023     		movs	r3, #0
 610              	.LVL56:
 611              	@ 328 "../../os/kernel/src/chthreads.c" 1
 612 001c 83F31188 		msr     BASEPRI, r3
 613              	@ 0 "" 2
 614              	.LVL57:
 615              		.thumb
 616 0020 08BD     		pop	{r3, pc}
 617              	.L23:
 618 0022 00BF     		.align	2
ARM GAS  /var/folders/dt/0wfd0knj7gs46m8vwfzktm600000gn/T//ccJimsz2.s 			page 12


 619              	.L22:
 620 0024 00000000 		.word	rlist
 621              	.LBE37:
 622              		.cfi_endproc
 623              	.LFE15:
 624              		.size	chThdYield, .-chThdYield
 625 0028 AFF30080 		.section	.text.chThdExitS,"ax",%progbits
 625      AFF30080 
 626              		.align	2
 627              		.p2align 4,,15
 628              		.global	chThdExitS
 629              		.thumb
 630              		.thumb_func
 631              		.type	chThdExitS, %function
 632              	chThdExitS:
 633              	.LFB17:
 634              		.loc 1 366 0
 635              		.cfi_startproc
 636              		@ args = 0, pretend = 0, frame = 0
 637              		@ frame_needed = 0, uses_anonymous_args = 0
 638              	.LVL58:
 639 0000 38B5     		push	{r3, r4, r5, lr}
 640              	.LCFI9:
 641              		.cfi_def_cfa_offset 16
 642              		.cfi_offset 3, -16
 643              		.cfi_offset 4, -12
 644              		.cfi_offset 5, -8
 645              		.cfi_offset 14, -4
 646              		.loc 1 367 0
 647 0002 0E4B     		ldr	r3, .L32
 648 0004 9C69     		ldr	r4, [r3, #24]
 649              	.LVL59:
 650              		.loc 1 374 0
 651 0006 2546     		mov	r5, r4
 652 0008 55F8283F 		ldr	r3, [r5, #40]!
 653              		.loc 1 369 0
 654 000c 6062     		str	r0, [r4, #36]
 655              		.loc 1 374 0
 656 000e AB42     		cmp	r3, r5
 657 0010 07D0     		beq	.L29
 658              	.LVL60:
 659              	.L30:
 660              	.LBB38:
 661              	.LBB39:
 662              		.file 2 "../../os/kernel/include/chinline.h"
 663              		.loc 2 89 0
 664 0012 1A68     		ldr	r2, [r3, #0]
 665              	.LBE39:
 666              	.LBE38:
 667              		.loc 1 375 0
 668 0014 1846     		mov	r0, r3
 669              	.LBB41:
 670              	.LBB40:
 671              		.loc 2 89 0
 672 0016 A262     		str	r2, [r4, #40]
 673              	.LBE40:
 674              	.LBE41:
ARM GAS  /var/folders/dt/0wfd0knj7gs46m8vwfzktm600000gn/T//ccJimsz2.s 			page 13


 675              		.loc 1 375 0
 676 0018 FFF7FEFF 		bl	chSchReadyI
 677              	.LVL61:
 678              		.loc 1 374 0
 679 001c A36A     		ldr	r3, [r4, #40]
 680 001e AB42     		cmp	r3, r5
 681 0020 F7D1     		bne	.L30
 682              	.LVL62:
 683              	.L29:
 684              		.loc 1 380 0
 685 0022 637F     		ldrb	r3, [r4, #29]	@ zero_extendqisi2
 686 0024 9B07     		lsls	r3, r3, #30
 687 0026 04D1     		bne	.L27
 688              		.loc 1 381 0
 689 0028 6369     		ldr	r3, [r4, #20]
 690 002a 2269     		ldr	r2, [r4, #16]
 691 002c 1A61     		str	r2, [r3, #16]
 692 002e 2269     		ldr	r2, [r4, #16]
 693 0030 5361     		str	r3, [r2, #20]
 694              	.L27:
 695              		.loc 1 383 0
 696 0032 0E20     		movs	r0, #14
 697              		.loc 1 386 0
 698 0034 BDE83840 		pop	{r3, r4, r5, lr}
 699              		.loc 1 383 0
 700 0038 FFF7FEBF 		b	chSchGoSleepS
 701              	.LVL63:
 702              	.L33:
 703              		.align	2
 704              	.L32:
 705 003c 00000000 		.word	rlist
 706              		.cfi_endproc
 707              	.LFE17:
 708              		.size	chThdExitS, .-chThdExitS
 709              		.section	.text.chThdExit,"ax",%progbits
 710              		.align	2
 711              		.p2align 4,,15
 712              		.global	chThdExit
 713              		.thumb
 714              		.thumb_func
 715              		.type	chThdExit, %function
 716              	chThdExit:
 717              	.LFB16:
 718              		.loc 1 345 0
 719              		.cfi_startproc
 720              		@ args = 0, pretend = 0, frame = 0
 721              		@ frame_needed = 0, uses_anonymous_args = 0
 722              		@ link register save eliminated.
 723              	.LVL64:
 724              	.LBB42:
 725              		.loc 1 347 0
 726 0000 2023     		movs	r3, #32
 727              	.LVL65:
 728              	@ 347 "../../os/kernel/src/chthreads.c" 1
 729 0002 83F31188 		msr     BASEPRI, r3
 730              	@ 0 "" 2
 731              	.LVL66:
ARM GAS  /var/folders/dt/0wfd0knj7gs46m8vwfzktm600000gn/T//ccJimsz2.s 			page 14


 732              		.thumb
 733              	.LBE42:
 734              		.loc 1 350 0
 735              		.loc 1 348 0
 736 0006 FFF7FEBF 		b	chThdExitS
 737              	.LVL67:
 738              		.cfi_endproc
 739              	.LFE16:
 740              		.size	chThdExit, .-chThdExit
 741 000a 00BFAFF3 		.section	.text.chThdWait,"ax",%progbits
 741      0080
 742              		.align	2
 743              		.p2align 4,,15
 744              		.global	chThdWait
 745              		.thumb
 746              		.thumb_func
 747              		.type	chThdWait, %function
 748              	chThdWait:
 749              	.LFB18:
 750              		.loc 1 420 0
 751              		.cfi_startproc
 752              		@ args = 0, pretend = 0, frame = 0
 753              		@ frame_needed = 0, uses_anonymous_args = 0
 754              	.LVL68:
 755 0000 38B5     		push	{r3, r4, r5, lr}
 756              	.LCFI10:
 757              		.cfi_def_cfa_offset 16
 758              		.cfi_offset 3, -16
 759              		.cfi_offset 4, -12
 760              		.cfi_offset 5, -8
 761              		.cfi_offset 14, -4
 762              		.loc 1 420 0
 763 0002 0446     		mov	r4, r0
 764              	.LBB43:
 765              		.loc 1 425 0
 766 0004 2023     		movs	r3, #32
 767              	.LVL69:
 768              	@ 425 "../../os/kernel/src/chthreads.c" 1
 769 0006 83F31188 		msr     BASEPRI, r3
 770              	@ 0 "" 2
 771              	.LVL70:
 772              		.thumb
 773              	.LBE43:
 774              		.loc 1 430 0
 775 000a 037F     		ldrb	r3, [r0, #28]	@ zero_extendqisi2
 776              	.LVL71:
 777 000c 0E2B     		cmp	r3, #14
 778 000e 07D0     		beq	.L36
 779              		.loc 1 431 0
 780 0010 084B     		ldr	r3, .L40
 781              	.LBB44:
 782              	.LBB45:
 783              		.loc 2 82 0
 784 0012 826A     		ldr	r2, [r0, #40]
 785              	.LBE45:
 786              	.LBE44:
 787              		.loc 1 431 0
ARM GAS  /var/folders/dt/0wfd0knj7gs46m8vwfzktm600000gn/T//ccJimsz2.s 			page 15


 788 0014 9B69     		ldr	r3, [r3, #24]
 789              	.LVL72:
 790              		.loc 1 432 0
 791 0016 0720     		movs	r0, #7
 792              	.LVL73:
 793              	.LBB47:
 794              	.LBB46:
 795              		.loc 2 82 0
 796 0018 1A60     		str	r2, [r3, #0]
 797              		.loc 2 83 0
 798 001a A362     		str	r3, [r4, #40]
 799              	.LBE46:
 800              	.LBE47:
 801              		.loc 1 432 0
 802 001c FFF7FEFF 		bl	chSchGoSleepS
 803              	.LVL74:
 804              	.L36:
 805              		.loc 1 434 0
 806 0020 656A     		ldr	r5, [r4, #36]
 807              	.LVL75:
 808              	.LBB48:
 809              		.loc 1 435 0
 810 0022 0023     		movs	r3, #0
 811              	.LVL76:
 812              	@ 435 "../../os/kernel/src/chthreads.c" 1
 813 0024 83F31188 		msr     BASEPRI, r3
 814              	@ 0 "" 2
 815              	.LVL77:
 816              		.thumb
 817              	.LBE48:
 818              		.loc 1 437 0
 819 0028 2046     		mov	r0, r4
 820 002a FFF7FEFF 		bl	chThdRelease
 821              	.LVL78:
 822              		.loc 1 440 0
 823 002e 2846     		mov	r0, r5
 824 0030 38BD     		pop	{r3, r4, r5, pc}
 825              	.L41:
 826 0032 00BF     		.align	2
 827              	.L40:
 828 0034 00000000 		.word	rlist
 829              		.cfi_endproc
 830              	.LFE18:
 831              		.size	chThdWait, .-chThdWait
 832 0038 AFF30080 		.text
 832      AFF30080 
 833              	.Letext0:
 834              		.file 3 "/Users/toxygen/Applications/yagarto-4.7.2/bin/../lib/gcc/arm-none-eabi/4.7.2/include/stdd
 835              		.file 4 "/Users/toxygen/Applications/yagarto-4.7.2/bin/../lib/gcc/arm-none-eabi/4.7.2/../../../../
 836              		.file 5 "../../os/ports/GCC/ARMCMx/chtypes.h"
 837              		.file 6 "../../os/kernel/include/chlists.h"
 838              		.file 7 "../../os/kernel/include/chthreads.h"
 839              		.file 8 "../../os/ports/GCC/ARMCMx/chcore_v7m.h"
 840              		.file 9 "../../os/kernel/include/chvt.h"
 841              		.file 10 "../../os/kernel/include/chschd.h"
 842              		.file 11 "../../os/kernel/include/chmtx.h"
 843              		.file 12 "../../os/kernel/include/chdynamic.h"
ARM GAS  /var/folders/dt/0wfd0knj7gs46m8vwfzktm600000gn/T//ccJimsz2.s 			page 16

