ARM GAS  /var/folders/dt/0wfd0knj7gs46m8vwfzktm600000gn/T//ccDnp86J.s 			page 1


   1              		.syntax unified
   2              		.cpu cortex-m3
   3              		.fpu softvfp
   4              		.eabi_attribute 20, 1
   5              		.eabi_attribute 21, 1
   6              		.eabi_attribute 23, 3
   7              		.eabi_attribute 24, 1
   8              		.eabi_attribute 25, 1
   9              		.eabi_attribute 26, 1
  10              		.eabi_attribute 30, 2
  11              		.eabi_attribute 34, 1
  12              		.eabi_attribute 18, 4
  13              		.thumb
  14              		.file	"hal.c"
  15              		.text
  16              	.Ltext0:
  17              		.cfi_sections	.debug_frame
  18              		.section	.text.halInit,"ax",%progbits
  19              		.align	2
  20              		.p2align 4,,15
  21              		.global	halInit
  22              		.thumb
  23              		.thumb_func
  24              		.type	halInit, %function
  25              	halInit:
  26              	.LFB63:
  27              		.file 1 "../../os/hal/src/hal.c"
  28              		.loc 1 68 0
  29              		.cfi_startproc
  30              		@ args = 0, pretend = 0, frame = 0
  31              		@ frame_needed = 0, uses_anonymous_args = 0
  32 0000 08B5     		push	{r3, lr}
  33              	.LCFI0:
  34              		.cfi_def_cfa_offset 8
  35              		.cfi_offset 3, -8
  36              		.cfi_offset 14, -4
  37              		.loc 1 70 0
  38 0002 FFF7FEFF 		bl	hal_lld_init
  39              	.LVL0:
  40              		.loc 1 76 0
  41 0006 40F20000 		movw	r0, #:lower16:pal_default_config
  42 000a C0F20000 		movt	r0, #:upper16:pal_default_config
  43 000e FFF7FEFF 		bl	_pal_lld_init
  44              	.LVL1:
  45              		.loc 1 103 0
  46 0012 FFF7FEFF 		bl	sdInit
  47              	.LVL2:
  48              		.loc 1 128 0
  49 0016 BDE80840 		pop	{r3, lr}
  50              		.loc 1 127 0
  51 001a FFF7FEBF 		b	boardInit
  52              	.LVL3:
  53              		.cfi_endproc
  54              	.LFE63:
  55              		.size	halInit, .-halInit
  56 001e 00BF     		.section	.text.halIsCounterWithin,"ax",%progbits
  57              		.align	2
ARM GAS  /var/folders/dt/0wfd0knj7gs46m8vwfzktm600000gn/T//ccDnp86J.s 			page 2


  58              		.p2align 4,,15
  59              		.global	halIsCounterWithin
  60              		.thumb
  61              		.thumb_func
  62              		.type	halIsCounterWithin, %function
  63              	halIsCounterWithin:
  64              	.LFB64:
  65              		.loc 1 174 0
  66              		.cfi_startproc
  67              		@ args = 0, pretend = 0, frame = 0
  68              		@ frame_needed = 0, uses_anonymous_args = 0
  69              		@ link register save eliminated.
  70              	.LVL4:
  71              		.loc 1 175 0
  72 0000 4FF48053 		mov	r3, #4096
  73 0004 CEF20003 		movt	r3, 57344
  74              		.loc 1 177 0
  75 0008 8142     		cmp	r1, r0
  76              		.loc 1 174 0
  77 000a 0246     		mov	r2, r0
  78              		.loc 1 175 0
  79 000c 5B68     		ldr	r3, [r3, #4]
  80              	.LVL5:
  81              		.loc 1 177 0
  82 000e 09D8     		bhi	.L6
  83              		.loc 1 178 0 discriminator 2
  84 0010 8342     		cmp	r3, r0
  85 0012 34BF     		ite	cc
  86 0014 0022     		movcc	r2, #0
  87 0016 0122     		movcs	r2, #1
  88 0018 8B42     		cmp	r3, r1
  89 001a 2CBF     		ite	cs
  90 001c 1046     		movcs	r0, r2
  91 001e 42F00100 		orrcc	r0, r2, #1
  92              	.LVL6:
  93              		.loc 1 179 0 discriminator 2
  94 0022 7047     		bx	lr
  95              	.LVL7:
  96              	.L6:
  97              		.loc 1 177 0 discriminator 1
  98 0024 8B42     		cmp	r3, r1
  99 0026 2CBF     		ite	cs
 100 0028 0020     		movcs	r0, #0
 101              	.LVL8:
 102 002a 0120     		movcc	r0, #1
 103 002c 9342     		cmp	r3, r2
 104 002e 38BF     		it	cc
 105 0030 0020     		movcc	r0, #0
 106 0032 7047     		bx	lr
 107              		.cfi_endproc
 108              	.LFE64:
 109              		.size	halIsCounterWithin, .-halIsCounterWithin
 110 0034 AFF30080 		.section	.text.halPolledDelay,"ax",%progbits
 110      AFF30080 
 110      AFF30080 
 111              		.align	2
 112              		.p2align 4,,15
ARM GAS  /var/folders/dt/0wfd0knj7gs46m8vwfzktm600000gn/T//ccDnp86J.s 			page 3


 113              		.global	halPolledDelay
 114              		.thumb
 115              		.thumb_func
 116              		.type	halPolledDelay, %function
 117              	halPolledDelay:
 118              	.LFB65:
 119              		.loc 1 193 0
 120              		.cfi_startproc
 121              		@ args = 0, pretend = 0, frame = 0
 122              		@ frame_needed = 0, uses_anonymous_args = 0
 123              		@ link register save eliminated.
 124              	.LVL9:
 125 0000 10B4     		push	{r4}
 126              	.LCFI1:
 127              		.cfi_def_cfa_offset 4
 128              		.cfi_offset 4, -4
 129              		.loc 1 194 0
 130 0002 4FF48054 		mov	r4, #4096
 131 0006 CEF20004 		movt	r4, 57344
 132 000a 6268     		ldr	r2, [r4, #4]
 133              	.LVL10:
 134              		.loc 1 195 0
 135 000c 8018     		adds	r0, r0, r2
 136              	.LVL11:
 137              	.L10:
 138              	.LBB4:
 139              	.LBB5:
 140              		.loc 1 177 0 discriminator 1
 141 000e 8242     		cmp	r2, r0
 142              		.loc 1 175 0 discriminator 1
 143 0010 6368     		ldr	r3, [r4, #4]
 144              	.LVL12:
 145              		.loc 1 177 0 discriminator 1
 146 0012 0AD2     		bcs	.L8
 147              		.loc 1 177 0 is_stmt 0
 148 0014 9842     		cmp	r0, r3
 149 0016 94BF     		ite	ls
 150 0018 0021     		movls	r1, #0
 151 001a 0121     		movhi	r1, #1
 152 001c 9A42     		cmp	r2, r3
 153 001e 88BF     		it	hi
 154 0020 0021     		movhi	r1, #0
 155              	.LBE5:
 156              	.LBE4:
 157              		.loc 1 196 0 is_stmt 1
 158 0022 0029     		cmp	r1, #0
 159 0024 F3D1     		bne	.L10
 160              	.L12:
 161              		.loc 1 198 0
 162 0026 10BC     		pop	{r4}
 163 0028 7047     		bx	lr
 164              	.L8:
 165              	.LBB7:
 166              	.LBB6:
 167              		.loc 1 178 0
 168 002a 9A42     		cmp	r2, r3
 169 002c 8CBF     		ite	hi
ARM GAS  /var/folders/dt/0wfd0knj7gs46m8vwfzktm600000gn/T//ccDnp86J.s 			page 4


 170 002e 0021     		movhi	r1, #0
 171 0030 0121     		movls	r1, #1
 172 0032 9842     		cmp	r0, r3
 173 0034 88BF     		it	hi
 174 0036 41F00101 		orrhi	r1, r1, #1
 175              	.LBE6:
 176              	.LBE7:
 177              		.loc 1 196 0
 178 003a 0029     		cmp	r1, #0
 179 003c E7D1     		bne	.L10
 180 003e F2E7     		b	.L12
 181              		.cfi_endproc
 182              	.LFE65:
 183              		.size	halPolledDelay, .-halPolledDelay
 184              		.text
 185              	.Letext0:
 186              		.file 2 "/Users/toxygen/Applications/yagarto-4.7.2/bin/../lib/gcc/arm-none-eabi/4.7.2/../../../../
 187              		.file 3 "../../os/ports/GCC/ARMCMx/chtypes.h"
 188              		.file 4 "../../os/ports/common/ARMCMx/nvic.h"
 189              		.file 5 "../../os/hal/platforms/STM32F1xx/hal_lld.h"
 190              		.file 6 "../../os/hal/platforms/STM32/GPIOv1/pal_lld.h"
 191              		.file 7 "../../os/ports/common/ARMCMx/CMSIS/include/core_cm3.h"
 192              		.file 8 "../../os/hal/include/serial.h"
 193              		.file 9 "../../boards/stm32f107/board.h"