ARM GAS  /var/folders/dt/0wfd0knj7gs46m8vwfzktm600000gn/T//ccpKlECY.s 			page 1


   1              		.syntax unified
   2              		.cpu cortex-m3
   3              		.fpu softvfp
   4              		.eabi_attribute 20, 1
   5              		.eabi_attribute 21, 1
   6              		.eabi_attribute 23, 3
   7              		.eabi_attribute 24, 1
   8              		.eabi_attribute 25, 1
   9              		.eabi_attribute 26, 1
  10              		.eabi_attribute 30, 2
  11              		.eabi_attribute 34, 1
  12              		.eabi_attribute 18, 4
  13              		.thumb
  14              		.file	"serial.c"
  15              		.text
  16              	.Ltext0:
  17              		.cfi_sections	.debug_frame
  18              		.section	.text.readt,"ax",%progbits
  19              		.align	2
  20              		.p2align 4,,15
  21              		.thumb
  22              		.thumb_func
  23              		.type	readt, %function
  24              	readt:
  25              	.LFB70:
  26              		.file 1 "../../os/hal/src/serial.c"
  27              		.loc 1 99 0
  28              		.cfi_startproc
  29              		@ args = 0, pretend = 0, frame = 0
  30              		@ frame_needed = 0, uses_anonymous_args = 0
  31              		@ link register save eliminated.
  32              	.LVL0:
  33              		.loc 1 101 0
  34 0000 0C30     		adds	r0, r0, #12
  35              	.LVL1:
  36              		.loc 1 102 0
  37              		.loc 1 101 0
  38 0002 FFF7FEBF 		b	chIQReadTimeout
  39              	.LVL2:
  40              		.cfi_endproc
  41              	.LFE70:
  42              		.size	readt, .-readt
  43 0006 00BFAFF3 		.section	.text.read,"ax",%progbits
  43      0080AFF3 
  43      0080
  44              		.align	2
  45              		.p2align 4,,15
  46              		.thumb
  47              		.thumb_func
  48              		.type	read, %function
  49              	read:
  50              	.LFB64:
  51              		.loc 1 68 0
  52              		.cfi_startproc
  53              		@ args = 0, pretend = 0, frame = 0
  54              		@ frame_needed = 0, uses_anonymous_args = 0
  55              		@ link register save eliminated.
ARM GAS  /var/folders/dt/0wfd0knj7gs46m8vwfzktm600000gn/T//ccpKlECY.s 			page 2


  56              	.LVL3:
  57              		.loc 1 70 0
  58 0000 0C30     		adds	r0, r0, #12
  59              	.LVL4:
  60 0002 4FF0FF33 		mov	r3, #-1
  61              		.loc 1 72 0
  62              		.loc 1 70 0
  63 0006 FFF7FEBF 		b	chIQReadTimeout
  64              	.LVL5:
  65              		.cfi_endproc
  66              	.LFE64:
  67              		.size	read, .-read
  68 000a 00BFAFF3 		.section	.text.writet,"ax",%progbits
  68      0080
  69              		.align	2
  70              		.p2align 4,,15
  71              		.thumb
  72              		.thumb_func
  73              		.type	writet, %function
  74              	writet:
  75              	.LFB69:
  76              		.loc 1 94 0
  77              		.cfi_startproc
  78              		@ args = 0, pretend = 0, frame = 0
  79              		@ frame_needed = 0, uses_anonymous_args = 0
  80              		@ link register save eliminated.
  81              	.LVL6:
  82              		.loc 1 96 0
  83 0000 3030     		adds	r0, r0, #48
  84              	.LVL7:
  85              		.loc 1 97 0
  86              		.loc 1 96 0
  87 0002 FFF7FEBF 		b	chOQWriteTimeout
  88              	.LVL8:
  89              		.cfi_endproc
  90              	.LFE69:
  91              		.size	writet, .-writet
  92 0006 00BFAFF3 		.section	.text.write,"ax",%progbits
  92      0080AFF3 
  92      0080
  93              		.align	2
  94              		.p2align 4,,15
  95              		.thumb
  96              		.thumb_func
  97              		.type	write, %function
  98              	write:
  99              	.LFB63:
 100              		.loc 1 62 0
 101              		.cfi_startproc
 102              		@ args = 0, pretend = 0, frame = 0
 103              		@ frame_needed = 0, uses_anonymous_args = 0
 104              		@ link register save eliminated.
 105              	.LVL9:
 106              		.loc 1 64 0
 107 0000 3030     		adds	r0, r0, #48
 108              	.LVL10:
 109 0002 4FF0FF33 		mov	r3, #-1
ARM GAS  /var/folders/dt/0wfd0knj7gs46m8vwfzktm600000gn/T//ccpKlECY.s 			page 3


 110              		.loc 1 66 0
 111              		.loc 1 64 0
 112 0006 FFF7FEBF 		b	chOQWriteTimeout
 113              	.LVL11:
 114              		.cfi_endproc
 115              	.LFE63:
 116              		.size	write, .-write
 117 000a 00BFAFF3 		.section	.text.gett,"ax",%progbits
 117      0080
 118              		.align	2
 119              		.p2align 4,,15
 120              		.thumb
 121              		.thumb_func
 122              		.type	gett, %function
 123              	gett:
 124              	.LFB68:
 125              		.loc 1 89 0
 126              		.cfi_startproc
 127              		@ args = 0, pretend = 0, frame = 0
 128              		@ frame_needed = 0, uses_anonymous_args = 0
 129              		@ link register save eliminated.
 130              	.LVL12:
 131              		.loc 1 91 0
 132 0000 0C30     		adds	r0, r0, #12
 133              	.LVL13:
 134              		.loc 1 92 0
 135              		.loc 1 91 0
 136 0002 FFF7FEBF 		b	chIQGetTimeout
 137              	.LVL14:
 138              		.cfi_endproc
 139              	.LFE68:
 140              		.size	gett, .-gett
 141 0006 00BFAFF3 		.section	.text.get,"ax",%progbits
 141      0080AFF3 
 141      0080
 142              		.align	2
 143              		.p2align 4,,15
 144              		.thumb
 145              		.thumb_func
 146              		.type	get, %function
 147              	get:
 148              	.LFB66:
 149              		.loc 1 79 0
 150              		.cfi_startproc
 151              		@ args = 0, pretend = 0, frame = 0
 152              		@ frame_needed = 0, uses_anonymous_args = 0
 153              		@ link register save eliminated.
 154              	.LVL15:
 155              		.loc 1 81 0
 156 0000 0C30     		adds	r0, r0, #12
 157              	.LVL16:
 158 0002 4FF0FF31 		mov	r1, #-1
 159              		.loc 1 82 0
 160              		.loc 1 81 0
 161 0006 FFF7FEBF 		b	chIQGetTimeout
 162              	.LVL17:
 163              		.cfi_endproc
ARM GAS  /var/folders/dt/0wfd0knj7gs46m8vwfzktm600000gn/T//ccpKlECY.s 			page 4


 164              	.LFE66:
 165              		.size	get, .-get
 166 000a 00BFAFF3 		.section	.text.putt,"ax",%progbits
 166      0080
 167              		.align	2
 168              		.p2align 4,,15
 169              		.thumb
 170              		.thumb_func
 171              		.type	putt, %function
 172              	putt:
 173              	.LFB67:
 174              		.loc 1 84 0
 175              		.cfi_startproc
 176              		@ args = 0, pretend = 0, frame = 0
 177              		@ frame_needed = 0, uses_anonymous_args = 0
 178              		@ link register save eliminated.
 179              	.LVL18:
 180              		.loc 1 86 0
 181 0000 3030     		adds	r0, r0, #48
 182              	.LVL19:
 183              		.loc 1 87 0
 184              		.loc 1 86 0
 185 0002 FFF7FEBF 		b	chOQPutTimeout
 186              	.LVL20:
 187              		.cfi_endproc
 188              	.LFE67:
 189              		.size	putt, .-putt
 190 0006 00BFAFF3 		.section	.text.put,"ax",%progbits
 190      0080AFF3 
 190      0080
 191              		.align	2
 192              		.p2align 4,,15
 193              		.thumb
 194              		.thumb_func
 195              		.type	put, %function
 196              	put:
 197              	.LFB65:
 198              		.loc 1 74 0
 199              		.cfi_startproc
 200              		@ args = 0, pretend = 0, frame = 0
 201              		@ frame_needed = 0, uses_anonymous_args = 0
 202              		@ link register save eliminated.
 203              	.LVL21:
 204              		.loc 1 76 0
 205 0000 3030     		adds	r0, r0, #48
 206              	.LVL22:
 207 0002 4FF0FF32 		mov	r2, #-1
 208              		.loc 1 77 0
 209              		.loc 1 76 0
 210 0006 FFF7FEBF 		b	chOQPutTimeout
 211              	.LVL23:
 212              		.cfi_endproc
 213              	.LFE65:
 214              		.size	put, .-put
 215 000a 00BFAFF3 		.section	.text.sdInit,"ax",%progbits
 215      0080
 216              		.align	2
ARM GAS  /var/folders/dt/0wfd0knj7gs46m8vwfzktm600000gn/T//ccpKlECY.s 			page 5


 217              		.p2align 4,,15
 218              		.global	sdInit
 219              		.thumb
 220              		.thumb_func
 221              		.type	sdInit, %function
 222              	sdInit:
 223              	.LFB71:
 224              		.loc 1 120 0
 225              		.cfi_startproc
 226              		@ args = 0, pretend = 0, frame = 0
 227              		@ frame_needed = 0, uses_anonymous_args = 0
 228              		@ link register save eliminated.
 229              		.loc 1 123 0
 230              		.loc 1 122 0
 231 0000 FFF7FEBF 		b	sd_lld_init
 232              	.LVL24:
 233              		.cfi_endproc
 234              	.LFE71:
 235              		.size	sdInit, .-sdInit
 236 0004 AFF30080 		.section	.text.sdObjectInit,"ax",%progbits
 236      AFF30080 
 236      AFF30080 
 237              		.align	2
 238              		.p2align 4,,15
 239              		.global	sdObjectInit
 240              		.thumb
 241              		.thumb_func
 242              		.type	sdObjectInit, %function
 243              	sdObjectInit:
 244              	.LFB72:
 245              		.loc 1 140 0
 246              		.cfi_startproc
 247              		@ args = 0, pretend = 0, frame = 0
 248              		@ frame_needed = 0, uses_anonymous_args = 0
 249              	.LVL25:
 250 0000 70B5     		push	{r4, r5, r6, lr}
 251              	.LCFI0:
 252              		.cfi_def_cfa_offset 16
 253              		.cfi_offset 4, -16
 254              		.cfi_offset 5, -12
 255              		.cfi_offset 6, -8
 256              		.cfi_offset 14, -4
 257 0002 0B46     		mov	r3, r1
 258              		.loc 1 142 0
 259 0004 40F20001 		movw	r1, #:lower16:.LANCHOR0
 260              	.LVL26:
 261 0008 0546     		mov	r5, r0
 262 000a C0F20001 		movt	r1, #:upper16:.LANCHOR0
 263              		.loc 1 140 0
 264 000e 0446     		mov	r4, r0
 265              		.loc 1 142 0
 266 0010 45F8041B 		str	r1, [r5], #4
 267              		.loc 1 140 0
 268 0014 82B0     		sub	sp, sp, #8
 269              	.LCFI1:
 270              		.cfi_def_cfa_offset 24
 271              		.loc 1 143 0
ARM GAS  /var/folders/dt/0wfd0knj7gs46m8vwfzktm600000gn/T//ccpKlECY.s 			page 6


 272 0016 6560     		str	r5, [r4, #4]
 273              		.loc 1 144 0
 274 0018 0125     		movs	r5, #1
 275              		.loc 1 140 0
 276 001a 1646     		mov	r6, r2
 277              		.loc 1 145 0
 278 001c 04F15401 		add	r1, r4, #84
 279 0020 1022     		movs	r2, #16
 280              	.LVL27:
 281              		.loc 1 144 0
 282 0022 2572     		strb	r5, [r4, #8]
 283              		.loc 1 145 0
 284 0024 00F10C00 		add	r0, r0, #12
 285              	.LVL28:
 286 0028 0094     		str	r4, [sp, #0]
 287 002a FFF7FEFF 		bl	chIQInit
 288              	.LVL29:
 289              		.loc 1 146 0
 290 002e 0094     		str	r4, [sp, #0]
 291 0030 04F13000 		add	r0, r4, #48
 292 0034 04F16401 		add	r1, r4, #100
 293 0038 1022     		movs	r2, #16
 294 003a 3346     		mov	r3, r6
 295 003c FFF7FEFF 		bl	chOQInit
 296              	.LVL30:
 297              		.loc 1 147 0
 298 0040 02B0     		add	sp, sp, #8
 299 0042 70BD     		pop	{r4, r5, r6, pc}
 300              		.cfi_endproc
 301              	.LFE72:
 302              		.size	sdObjectInit, .-sdObjectInit
 303 0044 AFF30080 		.section	.text.sdStart,"ax",%progbits
 303      AFF30080 
 303      AFF30080 
 304              		.align	2
 305              		.p2align 4,,15
 306              		.global	sdStart
 307              		.thumb
 308              		.thumb_func
 309              		.type	sdStart, %function
 310              	sdStart:
 311              	.LFB73:
 312              		.loc 1 159 0
 313              		.cfi_startproc
 314              		@ args = 0, pretend = 0, frame = 0
 315              		@ frame_needed = 0, uses_anonymous_args = 0
 316              	.LVL31:
 317 0000 10B5     		push	{r4, lr}
 318              	.LCFI2:
 319              		.cfi_def_cfa_offset 8
 320              		.cfi_offset 4, -8
 321              		.cfi_offset 14, -4
 322              	.LBB2:
 323              		.loc 1 163 0
 324 0002 2023     		movs	r3, #32
 325              	.LVL32:
 326              	.LBE2:
ARM GAS  /var/folders/dt/0wfd0knj7gs46m8vwfzktm600000gn/T//ccpKlECY.s 			page 7


 327              		.loc 1 159 0
 328 0004 0446     		mov	r4, r0
 329              	.LBB3:
 330              		.loc 1 163 0
 331              	@ 163 "../../os/hal/src/serial.c" 1
 332 0006 83F31188 		msr     BASEPRI, r3
 333              	@ 0 "" 2
 334              	.LVL33:
 335              		.thumb
 336              	.LBE3:
 337              		.loc 1 167 0
 338 000a FFF7FEFF 		bl	sd_lld_start
 339              	.LVL34:
 340              		.loc 1 168 0
 341 000e 0223     		movs	r3, #2
 342 0010 2372     		strb	r3, [r4, #8]
 343              	.LBB4:
 344              		.loc 1 169 0
 345 0012 0023     		movs	r3, #0
 346              	.LVL35:
 347              	@ 169 "../../os/hal/src/serial.c" 1
 348 0014 83F31188 		msr     BASEPRI, r3
 349              	@ 0 "" 2
 350              	.LVL36:
 351              		.thumb
 352 0018 10BD     		pop	{r4, pc}
 353              	.LBE4:
 354              		.cfi_endproc
 355              	.LFE73:
 356              		.size	sdStart, .-sdStart
 357 001a 00BFAFF3 		.section	.text.sdStop,"ax",%progbits
 357      0080
 358              		.align	2
 359              		.p2align 4,,15
 360              		.global	sdStop
 361              		.thumb
 362              		.thumb_func
 363              		.type	sdStop, %function
 364              	sdStop:
 365              	.LFB74:
 366              		.loc 1 181 0
 367              		.cfi_startproc
 368              		@ args = 0, pretend = 0, frame = 0
 369              		@ frame_needed = 0, uses_anonymous_args = 0
 370              	.LVL37:
 371 0000 10B5     		push	{r4, lr}
 372              	.LCFI3:
 373              		.cfi_def_cfa_offset 8
 374              		.cfi_offset 4, -8
 375              		.cfi_offset 14, -4
 376              	.LBB5:
 377              		.loc 1 185 0
 378 0002 2023     		movs	r3, #32
 379              	.LVL38:
 380              	.LBE5:
 381              		.loc 1 181 0
 382 0004 0446     		mov	r4, r0
ARM GAS  /var/folders/dt/0wfd0knj7gs46m8vwfzktm600000gn/T//ccpKlECY.s 			page 8


 383              	.LBB6:
 384              		.loc 1 185 0
 385              	@ 185 "../../os/hal/src/serial.c" 1
 386 0006 83F31188 		msr     BASEPRI, r3
 387              	@ 0 "" 2
 388              	.LVL39:
 389              		.thumb
 390              	.LBE6:
 391              		.loc 1 189 0
 392 000a FFF7FEFF 		bl	sd_lld_stop
 393              	.LVL40:
 394              		.loc 1 190 0
 395 000e 0123     		movs	r3, #1
 396 0010 2372     		strb	r3, [r4, #8]
 397              		.loc 1 191 0
 398 0012 04F13000 		add	r0, r4, #48
 399 0016 FFF7FEFF 		bl	chOQResetI
 400              	.LVL41:
 401              		.loc 1 192 0
 402 001a 04F10C00 		add	r0, r4, #12
 403 001e FFF7FEFF 		bl	chIQResetI
 404              	.LVL42:
 405              		.loc 1 193 0
 406 0022 FFF7FEFF 		bl	chSchRescheduleS
 407              	.LVL43:
 408              	.LBB7:
 409              		.loc 1 194 0
 410 0026 0023     		movs	r3, #0
 411              	.LVL44:
 412              	@ 194 "../../os/hal/src/serial.c" 1
 413 0028 83F31188 		msr     BASEPRI, r3
 414              	@ 0 "" 2
 415              	.LVL45:
 416              		.thumb
 417 002c 10BD     		pop	{r4, pc}
 418              	.LBE7:
 419              		.cfi_endproc
 420              	.LFE74:
 421              		.size	sdStop, .-sdStop
 422 002e 00BF     		.section	.text.sdIncomingDataI,"ax",%progbits
 423              		.align	2
 424              		.p2align 4,,15
 425              		.global	sdIncomingDataI
 426              		.thumb
 427              		.thumb_func
 428              		.type	sdIncomingDataI, %function
 429              	sdIncomingDataI:
 430              	.LFB75:
 431              		.loc 1 213 0
 432              		.cfi_startproc
 433              		@ args = 0, pretend = 0, frame = 0
 434              		@ frame_needed = 0, uses_anonymous_args = 0
 435              	.LVL46:
 436 0000 38B5     		push	{r3, r4, r5, lr}
 437              	.LCFI4:
 438              		.cfi_def_cfa_offset 16
 439              		.cfi_offset 3, -16
ARM GAS  /var/folders/dt/0wfd0knj7gs46m8vwfzktm600000gn/T//ccpKlECY.s 			page 9


 440              		.cfi_offset 4, -12
 441              		.cfi_offset 5, -8
 442              		.cfi_offset 14, -4
 443              		.loc 1 218 0
 444 0002 4369     		ldr	r3, [r0, #20]
 445              		.loc 1 213 0
 446 0004 0446     		mov	r4, r0
 447 0006 0D46     		mov	r5, r1
 448              		.loc 1 218 0
 449 0008 3BB1     		cbz	r3, .L17
 450              		.loc 1 220 0
 451 000a 04F10C00 		add	r0, r4, #12
 452              	.LVL47:
 453 000e 2946     		mov	r1, r5
 454              	.LVL48:
 455 0010 FFF7FEFF 		bl	chIQPutI
 456              	.LVL49:
 457 0014 0028     		cmp	r0, #0
 458 0016 0BDB     		blt	.L18
 459              	.L13:
 460 0018 38BD     		pop	{r3, r4, r5, pc}
 461              	.LVL50:
 462              	.L17:
 463              		.loc 1 219 0
 464 001a 0430     		adds	r0, r0, #4
 465              	.LVL51:
 466 001c 0421     		movs	r1, #4
 467              	.LVL52:
 468 001e FFF7FEFF 		bl	chEvtBroadcastFlagsI
 469              	.LVL53:
 470              		.loc 1 220 0
 471 0022 04F10C00 		add	r0, r4, #12
 472 0026 2946     		mov	r1, r5
 473 0028 FFF7FEFF 		bl	chIQPutI
 474              	.LVL54:
 475 002c 0028     		cmp	r0, #0
 476 002e F3DA     		bge	.L13
 477              	.L18:
 478              		.loc 1 221 0
 479 0030 201D     		adds	r0, r4, #4
 480 0032 8021     		movs	r1, #128
 481              		.loc 1 222 0
 482 0034 BDE83840 		pop	{r3, r4, r5, lr}
 483              		.loc 1 221 0
 484 0038 FFF7FEBF 		b	chEvtBroadcastFlagsI
 485              	.LVL55:
 486              		.cfi_endproc
 487              	.LFE75:
 488              		.size	sdIncomingDataI, .-sdIncomingDataI
 489 003c AFF30080 		.section	.text.sdRequestDataI,"ax",%progbits
 490              		.align	2
 491              		.p2align 4,,15
 492              		.global	sdRequestDataI
 493              		.thumb
 494              		.thumb_func
 495              		.type	sdRequestDataI, %function
 496              	sdRequestDataI:
ARM GAS  /var/folders/dt/0wfd0knj7gs46m8vwfzktm600000gn/T//ccpKlECY.s 			page 10


 497              	.LFB76:
 498              		.loc 1 239 0
 499              		.cfi_startproc
 500              		@ args = 0, pretend = 0, frame = 0
 501              		@ frame_needed = 0, uses_anonymous_args = 0
 502              	.LVL56:
 503 0000 38B5     		push	{r3, r4, r5, lr}
 504              	.LCFI5:
 505              		.cfi_def_cfa_offset 16
 506              		.cfi_offset 3, -16
 507              		.cfi_offset 4, -12
 508              		.cfi_offset 5, -8
 509              		.cfi_offset 14, -4
 510              		.loc 1 239 0
 511 0002 0446     		mov	r4, r0
 512              		.loc 1 245 0
 513 0004 00F13000 		add	r0, r0, #48
 514              	.LVL57:
 515 0008 FFF7FEFF 		bl	chOQGetI
 516              	.LVL58:
 517              		.loc 1 246 0
 518 000c 051E     		subs	r5, r0, #0
 519 000e 01DB     		blt	.L21
 520              		.loc 1 249 0
 521 0010 2846     		mov	r0, r5
 522 0012 38BD     		pop	{r3, r4, r5, pc}
 523              	.L21:
 524              		.loc 1 247 0
 525 0014 201D     		adds	r0, r4, #4
 526 0016 0821     		movs	r1, #8
 527 0018 FFF7FEFF 		bl	chEvtBroadcastFlagsI
 528              	.LVL59:
 529              		.loc 1 249 0
 530 001c 2846     		mov	r0, r5
 531 001e 38BD     		pop	{r3, r4, r5, pc}
 532              		.cfi_endproc
 533              	.LFE76:
 534              		.size	sdRequestDataI, .-sdRequestDataI
 535              		.section	.rodata.vmt,"a",%progbits
 536              		.align	2
 537              		.set	.LANCHOR0,. + 0
 538              		.type	vmt, %object
 539              		.size	vmt, 32
 540              	vmt:
 541 0000 00000000 		.word	write
 542 0004 00000000 		.word	read
 543 0008 00000000 		.word	put
 544 000c 00000000 		.word	get
 545 0010 00000000 		.word	putt
 546 0014 00000000 		.word	gett
 547 0018 00000000 		.word	writet
 548 001c 00000000 		.word	readt
 549              		.text
 550              	.Letext0:
 551              		.file 2 "/Users/toxygen/Applications/yagarto-4.7.2/bin/../lib/gcc/arm-none-eabi/4.7.2/include/stdd
 552              		.file 3 "/Users/toxygen/Applications/yagarto-4.7.2/bin/../lib/gcc/arm-none-eabi/4.7.2/../../../../
 553              		.file 4 "../../os/ports/GCC/ARMCMx/chtypes.h"
ARM GAS  /var/folders/dt/0wfd0knj7gs46m8vwfzktm600000gn/T//ccpKlECY.s 			page 11


 554              		.file 5 "../../os/kernel/include/chlists.h"
 555              		.file 6 "../../os/kernel/include/chthreads.h"
 556              		.file 7 "../../os/ports/GCC/ARMCMx/chcore_v7m.h"
 557              		.file 8 "../../os/kernel/include/chmtx.h"
 558              		.file 9 "../../os/kernel/include/chevents.h"
 559              		.file 10 "../../os/kernel/include/chqueues.h"
 560              		.file 11 "../../os/hal/platforms/STM32F1xx/stm32f10x.h"
 561              		.file 12 "../../os/hal/include/serial.h"
 562              		.file 13 "../../os/hal/platforms/STM32/USARTv1/serial_lld.h"
 563              		.file 14 "../../os/kernel/include/chschd.h"
 564              		.file 15 "../../os/ports/common/ARMCMx/CMSIS/include/core_cm3.h"