ARM GAS  /var/folders/dt/0wfd0knj7gs46m8vwfzktm600000gn/T//ccIBf9CX.s 			page 1


   1              		.syntax unified
   2              		.cpu cortex-m3
   3              		.fpu softvfp
   4              		.eabi_attribute 20, 1
   5              		.eabi_attribute 21, 1
   6              		.eabi_attribute 23, 3
   7              		.eabi_attribute 24, 1
   8              		.eabi_attribute 25, 1
   9              		.eabi_attribute 26, 1
  10              		.eabi_attribute 30, 2
  11              		.eabi_attribute 34, 1
  12              		.eabi_attribute 18, 4
  13              		.thumb
  14              		.file	"serial_lld.c"
  15              		.text
  16              	.Ltext0:
  17              		.cfi_sections	.debug_frame
  18              		.section	.text.notify3,"ax",%progbits
  19              		.align	2
  20              		.p2align 4,,15
  21              		.thumb
  22              		.thumb_func
  23              		.type	notify3, %function
  24              	notify3:
  25              	.LFB67:
  26              		.file 1 "../../os/hal/platforms/STM32/USARTv1/serial_lld.c"
  27              		.loc 1 218 0
  28              		.cfi_startproc
  29              		@ args = 0, pretend = 0, frame = 0
  30              		@ frame_needed = 0, uses_anonymous_args = 0
  31              		@ link register save eliminated.
  32              	.LVL0:
  33              		.loc 1 221 0
  34 0000 4FF49043 		mov	r3, #18432
  35 0004 C4F20003 		movt	r3, 16384
  36 0008 9A89     		ldrh	r2, [r3, #12]
  37 000a 92B2     		uxth	r2, r2
  38 000c 42F08002 		orr	r2, r2, #128
  39 0010 9A81     		strh	r2, [r3, #12]	@ movhi
  40 0012 7047     		bx	lr
  41              		.cfi_endproc
  42              	.LFE67:
  43              		.size	notify3, .-notify3
  44              		.section	.text.VectorDC,"ax",%progbits
  45              		.align	2
  46              		.p2align 4,,15
  47              		.global	VectorDC
  48              		.thumb
  49              		.thumb_func
  50              		.type	VectorDC, %function
  51              	VectorDC:
  52              	.LFB68:
  53              		.loc 1 300 0
  54              		.cfi_startproc
  55              		@ args = 0, pretend = 0, frame = 0
  56              		@ frame_needed = 0, uses_anonymous_args = 0
  57              	.LVL1:
ARM GAS  /var/folders/dt/0wfd0knj7gs46m8vwfzktm600000gn/T//ccIBf9CX.s 			page 2


  58 0000 F8B5     		push	{r3, r4, r5, r6, r7, lr}
  59              	.LCFI0:
  60              		.cfi_def_cfa_offset 24
  61              		.cfi_offset 3, -24
  62              		.cfi_offset 4, -20
  63              		.cfi_offset 5, -16
  64              		.cfi_offset 6, -12
  65              		.cfi_offset 7, -8
  66              		.cfi_offset 14, -4
  67              	.LBB30:
  68              	.LBB31:
  69              		.loc 1 157 0
  70 0002 484B     		ldr	r3, .L48
  71 0004 5D6F     		ldr	r5, [r3, #116]
  72              	.LVL2:
  73              		.loc 1 158 0
  74 0006 AE89     		ldrh	r6, [r5, #12]
  75              		.loc 1 159 0
  76 0008 2C88     		ldrh	r4, [r5, #0]
  77              		.loc 1 160 0
  78 000a A988     		ldrh	r1, [r5, #4]
  79              		.loc 1 159 0
  80 000c A4B2     		uxth	r4, r4
  81              		.loc 1 163 0
  82 000e 2207     		lsls	r2, r4, #28
  83              		.loc 1 158 0
  84 0010 B6B2     		uxth	r6, r6
  85              	.LVL3:
  86              		.loc 1 160 0
  87 0012 8FB2     		uxth	r7, r1
  88              	.LVL4:
  89              		.loc 1 163 0
  90 0014 4BD1     		bne	.L43
  91              	.LVL5:
  92              	.L3:
  93              		.loc 1 166 0
  94 0016 04F48073 		and	r3, r4, #256
  95              	.LVL6:
  96 001a 9BB2     		uxth	r3, r3
  97 001c 002B     		cmp	r3, #0
  98 001e 34D1     		bne	.L44
  99              	.L8:
 100              		.loc 1 173 0
 101 0020 04F02003 		and	r3, r4, #32
 102 0024 9BB2     		uxth	r3, r3
 103 0026 002B     		cmp	r3, #0
 104 0028 24D1     		bne	.L45
 105              	.LVL7:
 106              	.L9:
 107              		.loc 1 179 0
 108 002a 06F08003 		and	r3, r6, #128
 109              	.LVL8:
 110 002e 9BB2     		uxth	r3, r3
 111 0030 23B1     		cbz	r3, .L10
 112 0032 04F08003 		and	r3, r4, #128
 113 0036 9BB2     		uxth	r3, r3
 114 0038 002B     		cmp	r3, #0
ARM GAS  /var/folders/dt/0wfd0knj7gs46m8vwfzktm600000gn/T//ccIBf9CX.s 			page 3


 115 003a 59D1     		bne	.L46
 116              	.LVL9:
 117              	.L10:
 118              		.loc 1 192 0
 119 003c 04F04004 		and	r4, r4, #64
 120              	.LVL10:
 121 0040 A4B2     		uxth	r4, r4
 122 0042 9CB1     		cbz	r4, .L13
 123              	.LBB32:
 124              		.loc 1 193 0
 125 0044 2023     		movs	r3, #32
 126              	.LVL11:
 127              	@ 193 "../../os/hal/platforms/STM32/USARTv1/serial_lld.c" 1
 128 0046 83F31188 		msr     BASEPRI, r3
 129              	@ 0 "" 2
 130              	.LVL12:
 131              		.thumb
 132              	.LBE32:
 133              		.loc 1 194 0
 134 004a 3748     		ldr	r0, .L48+4
 135 004c 1021     		movs	r1, #16
 136 004e FFF7FEFF 		bl	chEvtBroadcastFlagsI
 137              	.LVL13:
 138              	.LBB33:
 139              		.loc 1 195 0
 140 0052 0023     		movs	r3, #0
 141              	.LVL14:
 142              	@ 195 "../../os/hal/platforms/STM32/USARTv1/serial_lld.c" 1
 143 0054 83F31188 		msr     BASEPRI, r3
 144              	@ 0 "" 2
 145              	.LVL15:
 146              		.thumb
 147              	.LBE33:
 148              		.loc 1 196 0
 149 0058 4FF6BF73 		movw	r3, #65471
 150              	.LVL16:
 151 005c 3340     		ands	r3, r3, r6
 152 005e AB81     		strh	r3, [r5, #12]	@ movhi
 153              		.loc 1 197 0
 154 0060 2B88     		ldrh	r3, [r5, #0]
 155 0062 23F04003 		bic	r3, r3, #64
 156 0066 1B04     		lsls	r3, r3, #16
 157 0068 1B0C     		lsrs	r3, r3, #16
 158 006a 2B80     		strh	r3, [r5, #0]	@ movhi
 159              	.LVL17:
 160              	.L13:
 161              	.LBE31:
 162              	.LBE30:
 163              		.loc 1 307 0
 164 006c BDE8F840 		pop	{r3, r4, r5, r6, r7, lr}
 165              		.loc 1 306 0
 166 0070 FFF7FEBF 		b	_port_irq_epilogue
 167              	.LVL18:
 168              	.L45:
 169              	.LBB46:
 170              	.LBB45:
 171              	.LBB34:
ARM GAS  /var/folders/dt/0wfd0knj7gs46m8vwfzktm600000gn/T//ccIBf9CX.s 			page 4


 172              		.loc 1 174 0
 173 0074 2023     		movs	r3, #32
 174              	.LVL19:
 175              	@ 174 "../../os/hal/platforms/STM32/USARTv1/serial_lld.c" 1
 176 0076 83F31188 		msr     BASEPRI, r3
 177              	@ 0 "" 2
 178              	.LVL20:
 179              		.thumb
 180              	.LBE34:
 181              		.loc 1 175 0
 182 007a 2A48     		ldr	r0, .L48
 183 007c F9B2     		uxtb	r1, r7
 184 007e FFF7FEFF 		bl	sdIncomingDataI
 185              	.LVL21:
 186              	.LBB35:
 187              		.loc 1 176 0
 188 0082 0023     		movs	r3, #0
 189              	@ 176 "../../os/hal/platforms/STM32/USARTv1/serial_lld.c" 1
 190 0084 83F31188 		msr     BASEPRI, r3
 191              	@ 0 "" 2
 192              	.LVL22:
 193              		.thumb
 194 0088 CFE7     		b	.L9
 195              	.LVL23:
 196              	.L44:
 197              	.LBE35:
 198              	.LBB36:
 199              		.loc 1 167 0
 200 008a 2023     		movs	r3, #32
 201              	.LVL24:
 202              	@ 167 "../../os/hal/platforms/STM32/USARTv1/serial_lld.c" 1
 203 008c 83F31188 		msr     BASEPRI, r3
 204              	@ 0 "" 2
 205              	.LVL25:
 206              		.thumb
 207              	.LBE36:
 208              		.loc 1 168 0
 209 0090 2548     		ldr	r0, .L48+4
 210 0092 4FF40071 		mov	r1, #512
 211 0096 FFF7FEFF 		bl	chEvtBroadcastFlagsI
 212              	.LVL26:
 213              	.LBB37:
 214              		.loc 1 169 0
 215 009a 0023     		movs	r3, #0
 216              	.LVL27:
 217              	@ 169 "../../os/hal/platforms/STM32/USARTv1/serial_lld.c" 1
 218 009c 83F31188 		msr     BASEPRI, r3
 219              	@ 0 "" 2
 220              	.LVL28:
 221              		.thumb
 222              	.LBE37:
 223              		.loc 1 170 0
 224 00a0 2B88     		ldrh	r3, [r5, #0]
 225              	.LVL29:
 226 00a2 23F48073 		bic	r3, r3, #256
 227 00a6 1B04     		lsls	r3, r3, #16
 228 00a8 1B0C     		lsrs	r3, r3, #16
ARM GAS  /var/folders/dt/0wfd0knj7gs46m8vwfzktm600000gn/T//ccIBf9CX.s 			page 5


 229 00aa 2B80     		strh	r3, [r5, #0]	@ movhi
 230 00ac B8E7     		b	.L8
 231              	.LVL30:
 232              	.L43:
 233              	.LBB38:
 234              	.LBB39:
 235              		.loc 1 138 0
 236 00ae 04F00801 		and	r1, r4, #8
 237              	.LVL31:
 238 00b2 89B2     		uxth	r1, r1
 239              		.loc 1 139 0
 240 00b4 0029     		cmp	r1, #0
 241 00b6 14BF     		ite	ne
 242 00b8 8021     		movne	r1, #128
 243 00ba 0021     		moveq	r1, #0
 244              	.LVL32:
 245              		.loc 1 140 0
 246 00bc E307     		lsls	r3, r4, #31
 247              		.loc 1 142 0
 248 00be 04F00203 		and	r3, r4, #2
 249 00c2 9BB2     		uxth	r3, r3
 250              		.loc 1 141 0
 251 00c4 48BF     		it	mi
 252 00c6 41F02001 		orrmi	r1, r1, #32
 253              	.LVL33:
 254              		.loc 1 142 0
 255 00ca 0BB1     		cbz	r3, .L6
 256              		.loc 1 143 0
 257 00cc 41F04001 		orr	r1, r1, #64
 258              	.LVL34:
 259              	.L6:
 260              		.loc 1 144 0
 261 00d0 04F00403 		and	r3, r4, #4
 262 00d4 9BB2     		uxth	r3, r3
 263 00d6 0BB1     		cbz	r3, .L7
 264              		.loc 1 145 0
 265 00d8 41F48071 		orr	r1, r1, #256
 266              	.LVL35:
 267              	.L7:
 268              	.LBB40:
 269              		.loc 1 146 0
 270 00dc 2023     		movs	r3, #32
 271              	.LVL36:
 272              	@ 146 "../../os/hal/platforms/STM32/USARTv1/serial_lld.c" 1
 273 00de 83F31188 		msr     BASEPRI, r3
 274              	@ 0 "" 2
 275              	.LVL37:
 276              		.thumb
 277              	.LBE40:
 278              		.loc 1 147 0
 279 00e2 1148     		ldr	r0, .L48+4
 280 00e4 FFF7FEFF 		bl	chEvtBroadcastFlagsI
 281              	.LVL38:
 282              	.LBB41:
 283              		.loc 1 148 0
 284 00e8 0023     		movs	r3, #0
 285              	@ 148 "../../os/hal/platforms/STM32/USARTv1/serial_lld.c" 1
ARM GAS  /var/folders/dt/0wfd0knj7gs46m8vwfzktm600000gn/T//ccIBf9CX.s 			page 6


 286 00ea 83F31188 		msr     BASEPRI, r3
 287              	@ 0 "" 2
 288              	.LVL39:
 289              		.thumb
 290 00ee 92E7     		b	.L3
 291              	.LVL40:
 292              	.L46:
 293              	.LBE41:
 294              	.LBE39:
 295              	.LBE38:
 296              	.LBB42:
 297              	.LBB43:
 298              		.loc 1 181 0
 299 00f0 2023     		movs	r3, #32
 300              	.LVL41:
 301              	@ 181 "../../os/hal/platforms/STM32/USARTv1/serial_lld.c" 1
 302 00f2 83F31188 		msr     BASEPRI, r3
 303              	@ 0 "" 2
 304              	.LVL42:
 305              		.thumb
 306              	.LBE43:
 307              		.loc 1 182 0
 308 00f6 0D48     		ldr	r0, .L48+8
 309 00f8 FFF7FEFF 		bl	chOQGetI
 310              	.LVL43:
 311              		.loc 1 183 0
 312 00fc 0028     		cmp	r0, #0
 313              		.loc 1 188 0
 314 00fe A4BF     		itt	ge
 315 0100 80B2     		uxthge	r0, r0
 316              	.LVL44:
 317 0102 A880     		strhge	r0, [r5, #4]	@ movhi
 318              		.loc 1 183 0
 319 0104 03DB     		blt	.L47
 320              	.L12:
 321              	.LBB44:
 322              		.loc 1 189 0
 323 0106 0023     		movs	r3, #0
 324              	@ 189 "../../os/hal/platforms/STM32/USARTv1/serial_lld.c" 1
 325 0108 83F31188 		msr     BASEPRI, r3
 326              	@ 0 "" 2
 327              	.LVL45:
 328              		.thumb
 329 010c 96E7     		b	.L10
 330              	.LVL46:
 331              	.L47:
 332              	.LBE44:
 333              		.loc 1 184 0
 334 010e 0648     		ldr	r0, .L48+4
 335 0110 0821     		movs	r1, #8
 336 0112 FFF7FEFF 		bl	chEvtBroadcastFlagsI
 337              	.LVL47:
 338              		.loc 1 185 0
 339 0116 26F0C003 		bic	r3, r6, #192
 340 011a 43F04003 		orr	r3, r3, #64
 341 011e AB81     		strh	r3, [r5, #12]	@ movhi
 342 0120 F1E7     		b	.L12
ARM GAS  /var/folders/dt/0wfd0knj7gs46m8vwfzktm600000gn/T//ccIBf9CX.s 			page 7


 343              	.L49:
 344 0122 00BF     		.align	2
 345              	.L48:
 346 0124 00000000 		.word	.LANCHOR0
 347 0128 04000000 		.word	.LANCHOR0+4
 348 012c 30000000 		.word	.LANCHOR0+48
 349              	.LBE42:
 350              	.LBE45:
 351              	.LBE46:
 352              		.cfi_endproc
 353              	.LFE68:
 354              		.size	VectorDC, .-VectorDC
 355              		.section	.text.sd_lld_init,"ax",%progbits
 356              		.align	2
 357              		.p2align 4,,15
 358              		.global	sd_lld_init
 359              		.thumb
 360              		.thumb_func
 361              		.type	sd_lld_init, %function
 362              	sd_lld_init:
 363              	.LFB69:
 364              		.loc 1 376 0
 365              		.cfi_startproc
 366              		@ args = 0, pretend = 0, frame = 0
 367              		@ frame_needed = 0, uses_anonymous_args = 0
 368 0000 10B5     		push	{r4, lr}
 369              	.LCFI1:
 370              		.cfi_def_cfa_offset 8
 371              		.cfi_offset 4, -8
 372              		.cfi_offset 14, -4
 373              		.loc 1 389 0
 374 0002 40F20004 		movw	r4, #:lower16:.LANCHOR0
 375 0006 C0F20004 		movt	r4, #:upper16:.LANCHOR0
 376 000a 40F20002 		movw	r2, #:lower16:notify3
 377 000e 2046     		mov	r0, r4
 378 0010 0021     		movs	r1, #0
 379 0012 C0F20002 		movt	r2, #:upper16:notify3
 380 0016 FFF7FEFF 		bl	sdObjectInit
 381              	.LVL48:
 382              		.loc 1 390 0
 383 001a 4FF49043 		mov	r3, #18432
 384 001e C4F20003 		movt	r3, 16384
 385 0022 6367     		str	r3, [r4, #116]
 386 0024 10BD     		pop	{r4, pc}
 387              		.cfi_endproc
 388              	.LFE69:
 389              		.size	sd_lld_init, .-sd_lld_init
 390 0026 00BFAFF3 		.section	.text.sd_lld_start,"ax",%progbits
 390      0080AFF3 
 390      0080
 391              		.align	2
 392              		.p2align 4,,15
 393              		.global	sd_lld_start
 394              		.thumb
 395              		.thumb_func
 396              		.type	sd_lld_start, %function
 397              	sd_lld_start:
ARM GAS  /var/folders/dt/0wfd0knj7gs46m8vwfzktm600000gn/T//ccIBf9CX.s 			page 8


 398              	.LFB70:
 399              		.loc 1 419 0
 400              		.cfi_startproc
 401              		@ args = 0, pretend = 0, frame = 0
 402              		@ frame_needed = 0, uses_anonymous_args = 0
 403              	.LVL49:
 404 0000 38B5     		push	{r3, r4, r5, lr}
 405              	.LCFI2:
 406              		.cfi_def_cfa_offset 16
 407              		.cfi_offset 3, -16
 408              		.cfi_offset 4, -12
 409              		.cfi_offset 5, -8
 410              		.cfi_offset 14, -4
 411              		.loc 1 424 0
 412 0002 037A     		ldrb	r3, [r0, #8]	@ zero_extendqisi2
 413              		.loc 1 422 0
 414 0004 1B4C     		ldr	r4, .L58
 415              		.loc 1 419 0
 416 0006 0546     		mov	r5, r0
 417              		.loc 1 422 0
 418 0008 0029     		cmp	r1, #0
 419 000a 18BF     		it	ne
 420 000c 0C46     		movne	r4, r1
 421              	.LVL50:
 422              		.loc 1 424 0
 423 000e 012B     		cmp	r3, #1
 424 0010 1FD0     		beq	.L57
 425              	.LVL51:
 426              	.L53:
 427              	.LBB49:
 428              	.LBB50:
 429              		.loc 1 101 0
 430 0012 2168     		ldr	r1, [r4, #0]
 431 0014 4FF4A242 		mov	r2, #20736
 432 0018 C0F22522 		movt	r2, 549
 433              		.loc 1 93 0
 434 001c 6B6F     		ldr	r3, [r5, #116]
 435              	.LVL52:
 436              		.loc 1 101 0
 437 001e B2FBF1F2 		udiv	r2, r2, r1
 438 0022 92B2     		uxth	r2, r2
 439 0024 1A81     		strh	r2, [r3, #8]	@ movhi
 440              		.loc 1 108 0
 441 0026 A288     		ldrh	r2, [r4, #4]
 442              		.loc 1 106 0
 443 0028 E088     		ldrh	r0, [r4, #6]
 444              		.loc 1 107 0
 445 002a 2189     		ldrh	r1, [r4, #8]
 446              		.loc 1 108 0
 447 002c 42F40452 		orr	r2, r2, #8448
 448              		.loc 1 106 0
 449 0030 40F04000 		orr	r0, r0, #64
 450              		.loc 1 107 0
 451 0034 41F00101 		orr	r1, r1, #1
 452              		.loc 1 108 0
 453 0038 42F02C02 		orr	r2, r2, #44
 454 003c 92B2     		uxth	r2, r2
ARM GAS  /var/folders/dt/0wfd0knj7gs46m8vwfzktm600000gn/T//ccIBf9CX.s 			page 9


 455              		.loc 1 106 0
 456 003e 80B2     		uxth	r0, r0
 457              		.loc 1 107 0
 458 0040 89B2     		uxth	r1, r1
 459              		.loc 1 106 0
 460 0042 1882     		strh	r0, [r3, #16]	@ movhi
 461              		.loc 1 107 0
 462 0044 9982     		strh	r1, [r3, #20]	@ movhi
 463              		.loc 1 108 0
 464 0046 9A81     		strh	r2, [r3, #12]	@ movhi
 465              		.loc 1 111 0
 466 0048 0022     		movs	r2, #0
 467 004a 1A80     		strh	r2, [r3, #0]	@ movhi
 468              		.loc 1 112 0
 469 004c 1A88     		ldrh	r2, [r3, #0]
 470              		.loc 1 113 0
 471 004e 9B88     		ldrh	r3, [r3, #4]
 472              	.LVL53:
 473 0050 38BD     		pop	{r3, r4, r5, pc}
 474              	.LVL54:
 475              	.L57:
 476              	.LBE50:
 477              	.LBE49:
 478              		.loc 1 440 0
 479 0052 094B     		ldr	r3, .L58+4
 480 0054 9842     		cmp	r0, r3
 481 0056 DCD1     		bne	.L53
 482              		.loc 1 441 0
 483 0058 4FF48053 		mov	r3, #4096
 484 005c C4F20203 		movt	r3, 16386
 485 0060 DA69     		ldr	r2, [r3, #28]
 486              		.loc 1 442 0
 487 0062 2720     		movs	r0, #39
 488              	.LVL55:
 489              		.loc 1 441 0
 490 0064 42F48022 		orr	r2, r2, #262144
 491 0068 DA61     		str	r2, [r3, #28]
 492              		.loc 1 442 0
 493 006a C021     		movs	r1, #192
 494 006c FFF7FEFF 		bl	nvicEnableVector
 495              	.LVL56:
 496 0070 CFE7     		b	.L53
 497              	.L59:
 498 0072 00BF     		.align	2
 499              	.L58:
 500 0074 00000000 		.word	.LANCHOR1
 501 0078 00000000 		.word	.LANCHOR0
 502              		.cfi_endproc
 503              	.LFE70:
 504              		.size	sd_lld_start, .-sd_lld_start
 505 007c AFF30080 		.section	.text.sd_lld_stop,"ax",%progbits
 506              		.align	2
 507              		.p2align 4,,15
 508              		.global	sd_lld_stop
 509              		.thumb
 510              		.thumb_func
 511              		.type	sd_lld_stop, %function
ARM GAS  /var/folders/dt/0wfd0knj7gs46m8vwfzktm600000gn/T//ccIBf9CX.s 			page 10


 512              	sd_lld_stop:
 513              	.LFB71:
 514              		.loc 1 480 0
 515              		.cfi_startproc
 516              		@ args = 0, pretend = 0, frame = 0
 517              		@ frame_needed = 0, uses_anonymous_args = 0
 518              		@ link register save eliminated.
 519              	.LVL57:
 520              		.loc 1 482 0
 521 0000 037A     		ldrb	r3, [r0, #8]	@ zero_extendqisi2
 522 0002 022B     		cmp	r3, #2
 523 0004 00D0     		beq	.L64
 524              	.L60:
 525 0006 7047     		bx	lr
 526              	.L64:
 527              		.loc 1 483 0
 528 0008 436F     		ldr	r3, [r0, #116]
 529              	.LVL58:
 530              	.LBB51:
 531              	.LBB52:
 532              		.loc 1 124 0
 533 000a 0022     		movs	r2, #0
 534 000c 9A81     		strh	r2, [r3, #12]	@ movhi
 535              		.loc 1 125 0
 536 000e 1A82     		strh	r2, [r3, #16]	@ movhi
 537              		.loc 1 126 0
 538 0010 9A82     		strh	r2, [r3, #20]	@ movhi
 539              	.LBE52:
 540              	.LBE51:
 541              		.loc 1 499 0
 542 0012 074B     		ldr	r3, .L65
 543              	.LVL59:
 544 0014 9842     		cmp	r0, r3
 545 0016 F6D1     		bne	.L60
 546              		.loc 1 500 0
 547 0018 4FF48053 		mov	r3, #4096
 548 001c C4F20203 		movt	r3, 16386
 549 0020 DA69     		ldr	r2, [r3, #28]
 550              		.loc 1 501 0
 551 0022 2720     		movs	r0, #39
 552              	.LVL60:
 553              		.loc 1 500 0
 554 0024 22F48022 		bic	r2, r2, #262144
 555 0028 DA61     		str	r2, [r3, #28]
 556              		.loc 1 527 0
 557              		.loc 1 501 0
 558 002a FFF7FEBF 		b	nvicDisableVector
 559              	.LVL61:
 560              	.L66:
 561 002e 00BF     		.align	2
 562              	.L65:
 563 0030 00000000 		.word	.LANCHOR0
 564              		.cfi_endproc
 565              	.LFE71:
 566              		.size	sd_lld_stop, .-sd_lld_stop
 567              		.global	SD3
 568 0034 AFF30080 		.section	.rodata.default_config,"a",%progbits
ARM GAS  /var/folders/dt/0wfd0knj7gs46m8vwfzktm600000gn/T//ccIBf9CX.s 			page 11


 568      AFF30080 
 568      AFF30080 
 569              		.align	2
 570              		.set	.LANCHOR1,. + 0
 571              		.type	default_config, %object
 572              		.size	default_config, 12
 573              	default_config:
 574 0000 00960000 		.word	38400
 575 0004 0000     		.short	0
 576 0006 0040     		.short	16384
 577 0008 0000     		.short	0
 578 000a 0000     		.space	2
 579              		.section	.bss.SD3,"aw",%nobits
 580              		.align	2
 581              		.set	.LANCHOR0,. + 0
 582              		.type	SD3, %object
 583              		.size	SD3, 120
 584              	SD3:
 585 0000 00000000 		.space	120
 585      00000000 
 585      00000000 
 585      00000000 
 585      00000000 
 586              		.text
 587              	.Letext0:
 588              		.file 2 "/Users/toxygen/Applications/yagarto-4.7.2/bin/../lib/gcc/arm-none-eabi/4.7.2/include/stdd
 589              		.file 3 "/Users/toxygen/Applications/yagarto-4.7.2/bin/../lib/gcc/arm-none-eabi/4.7.2/../../../../
 590              		.file 4 "../../os/ports/GCC/ARMCMx/chtypes.h"
 591              		.file 5 "../../os/kernel/include/chlists.h"
 592              		.file 6 "../../os/kernel/include/chthreads.h"
 593              		.file 7 "../../os/ports/GCC/ARMCMx/chcore_v7m.h"
 594              		.file 8 "../../os/kernel/include/chmtx.h"
 595              		.file 9 "../../os/kernel/include/chevents.h"
 596              		.file 10 "../../os/kernel/include/chqueues.h"
 597              		.file 11 "../../os/hal/platforms/STM32F1xx/stm32f10x.h"
 598              		.file 12 "../../os/hal/include/serial.h"
 599              		.file 13 "../../os/hal/platforms/STM32/USARTv1/serial_lld.h"
 600              		.file 14 "../../os/ports/common/ARMCMx/nvic.h"
 601              		.file 15 "../../os/ports/common/ARMCMx/CMSIS/include/core_cm3.h"