ARM GAS  /var/folders/dt/0wfd0knj7gs46m8vwfzktm600000gn/T//ccIBf9CX.s 			page 1


   1              		.syntax unified
   2              		.cpu cortex-m3
   3              		.fpu softvfp
   4              		.eabi_attribute 20, 1
   5              		.eabi_attribute 21, 1
   6              		.eabi_attribute 23, 3
   7              		.eabi_attribute 24, 1
   8              		.eabi_attribute 25, 1
   9              		.eabi_attribute 26, 1
  10              		.eabi_attribute 30, 2
  11              		.eabi_attribute 34, 1
  12              		.eabi_attribute 18, 4
  13              		.thumb
  14              		.file	"serial_lld.c"
  15              		.text
  16              	.Ltext0:
  17              		.cfi_sections	.debug_frame
  18              		.section	.text.notify3,"ax",%progbits
  19              		.align	2
  20              		.p2align 4,,15
  21              		.thumb
  22              		.thumb_func
  23              		.type	notify3, %function
  24              	notify3:
  25              	.LFB67:
  26              		.file 1 "../../os/hal/platforms/STM32/USARTv1/serial_lld.c"
  27              		.loc 1 218 0
  28              		.cfi_startproc
  29              		@ args = 0, pretend = 0, frame = 0
  30              		@ frame_needed = 0, uses_anonymous_args = 0
  31              		@ link register save eliminated.
  32              	.LVL0:
  33              		.loc 1 221 0
  34 0000 4FF49043 		mov	r3, #18432
  35 0004 C4F20003 		movt	r3, 16384
  36 0008 9A89     		ldrh	r2, [r3, #12]
  37 000a 92B2     		uxth	r2, r2
  38 000c 42F08002 		orr	r2, r2, #128
  39 0010 9A81     		strh	r2, [r3, #12]	@ movhi
  40 0012 7047     		bx	lr
  41              		.cfi_endproc
  42              	.LFE67:
  43              		.size	notify3, .-notify3
  44              		.section	.text.VectorDC,"ax",%progbits
  45              		.align	2
  46              		.p2align 4,,15
  47              		.global	VectorDC
  48              		.thumb
  49              		.thumb_func
  50              		.type	VectorDC, %function
  51              	VectorDC:
  52              	.LFB68:
  53              		.loc 1 300 0
  54              		.cfi_startproc
  55              		@ args = 0, pretend = 0, frame = 0
  56              		@ frame_needed = 0, uses_anonymous_args = 0
  57              	.LVL1:
ARM GAS  /var/folders/dt/0wfd0knj7gs46m8vwfzktm600000gn/T//ccIBf9CX.s 			page 2


  58 0000 F8B5     		push	{r3, r4, r5, r6, r7, lr}
  59              	.LCFI0:
  60              		.cfi_def_cfa_offset 24
  61              		.cfi_offset 3, -24
  62              		.cfi_offset 4, -20
  63              		.cfi_offset 5, -16
  64              		.cfi_offset 6, -12
  65              		.cfi_offset 7, -8
  66              		.cfi_offset 14, -4
  67              	.LBB30:
  68              	.LBB31:
  69              		.loc 1 157 0
  70 0002 484B     		ldr	r3, .L48
  71 0004 5D6F     		ldr	r5, [r3, #116]
  72              	.LVL2:
  73              		.loc 1 158 0
  74 0006 AE89     		ldrh	r6, [r5, #12]
  75              		.loc 1 159 0
  76 0008 2C88     		ldrh	r4, [r5, #0]
  77              		.loc 1 160 0
  78 000a A988     		ldrh	r1, [r5, #4]
  79              		.loc 1 159 0
  80 000c A4B2     		uxth	r4, r4
  81              		.loc 1 163 0
  82 000e 2207     		lsls	r2, r4, #28
  83              		.loc 1 158 0
  84 0010 B6B2     		uxth	r6, r6
  85              	.LVL3:
  86              		.loc 1 160 0
  87 0012 8FB2     		uxth	r7, r1
  88              	.LVL4:
  89              		.loc 1 163 0
  90 0014 4BD1     		bne	.L43
  91              	.LVL5:
  92              	.L3:
  93              		.loc 1 166 0
  94 0016 04F48073 		and	r3, r4, #256
  95              	.LVL6:
  96 001a 9BB2     		uxth	r3, r3
  97 001c 002B     		cmp	r3, #0
  98 001e 34D1     		bne	.L44
  99              	.L8:
 100              		.loc 1 173 0
 101 0020 04F02003 		and	r3, r4, #32
 102 0024 9BB2     		uxth	r3, r3
 103 0026 002B     		cmp	r3, #0
 104 0028 24D1     		bne	.L45
 105              	.LVL7:
 106              	.L9:
 107              		.loc 1 179 0
 108 002a 06F08003 		and	r3, r6, #128
 109              	.LVL8:
 110 002e 9BB2     		uxth	r3, r3
 111 0030 23B1     		cbz	r3, .L10
 112 0032 04F08003 		and	r3, r4, #128
 113 0036 9BB2     		uxth	r3, r3
 114 0038 002B     		cmp	r3, #0
ARM GAS  /var/folders/dt/0wfd0knj7gs46m8vwfzktm600000gn/T//ccIBf9CX.s 			page 3


 115 003a 59D1     		bne	.L46
 116              	.LVL9:
 117              	.L10:
 118              		.loc 1 192 0
 119 003c 04F04004 		and	r4, r4, #64
 120              	.LVL10:
 121 0040 A4B2     		uxth	r4, r4
 122 0042 9CB1     		cbz	r4, .L13
 123              	.LBB32:
 124              		.loc 1 193 0
 125 0044 2023     		movs	r3, #32
 126              	.LVL11:
 127              	@ 193 "../../os/hal/platforms/STM32/USARTv1/serial_lld.c" 1
 128 0046 83F31188 		msr     BASEPRI, r3
 129              	@ 0 "" 2
 130              	.LVL12:
 131              		.thumb
 132              	.LBE32:
 133              		.loc 1 194 0
 134 004a 3748     		ldr	r0, .L48+4
 135 004c 1021     		movs	r1, #16
 136 004e FFF7FEFF 		bl	chEvtBroadcastFlagsI
 137              	.LVL13:
 138              	.LBB33:
 139              		.loc 1 195 0
 140 0052 0023     		movs	r3, #0
 141              	.LVL14:
 142              	@ 195 "../../os/hal/platforms/STM32/USARTv1/serial_lld.c" 1
 143 0054 83F31188 		msr     BASEPRI, r3
 144              	@ 0 "" 2
 145              	.LVL15:
 146              		.thumb
 147              	.LBE33:
 148              		.loc 1 196 0
 149 0058 4FF6BF73 		movw	r3, #65471
 150              	.LVL16:
 151 005c 3340     		ands	r3, r3, r6
 152 005e AB81     		strh	r3, [r5, #12]	@ movhi
 153              		.loc 1 197 0
 154 0060 2B88     		ldrh	r3, [r5, #0]
 155 0062 23F04003 		bic	r3, r3, #64
 156 0066 1B04     		lsls	r3, r3, #16
 157 0068 1B0C     		lsrs	r3, r3, #16
 158 006a 2B80     		strh	r3, [r5, #0]	@ movhi
 159              	.LVL17:
 160              	.L13:
 161              	.LBE31:
 162              	.LBE30:
 163              		.loc 1 307 0
 164 006c BDE8F840 		pop	{r3, r4, r5, r6, r7, lr}
 165              		.loc 1 306 0
 166 0070 FFF7FEBF 		b	_port_irq_epilogue
 167              	.LVL18:
 168              	.L45:
 169              	.LBB46:
 170              	.LBB45:
 171              	.LBB34:
ARM GAS  /var/folders/dt/0wfd0knj7gs46m8vwfzktm600000gn/T//ccIBf9CX.s 			page 4


 172              		.loc 1 174 0
 173 0074 2023     		movs	r3, #32
 174              	.LVL19:
 175              	@ 174 "../../os/hal/platforms/STM32/USARTv1/serial_lld.c" 1
 176 0076 83F31188 		msr     BASEPRI, r3
 177              	@ 0 "" 2
 178              	.LVL20:
 179              		.thumb
 180              	.LBE34:
 181              		.loc 1 175 0
 182 007a 2A48     		ldr	r0, .L48
 183 007c F9B2     		uxtb	r1, r7
 184 007e FFF7FEFF 		bl	sdIncomingDataI
 185              	.LVL21:
 186              	.LBB35:
 187              		.loc 1 176 0
 188 0082 0023     		movs	r3, #0
 189              	@ 176 "../../os/hal/platforms/STM32/USARTv1/serial_lld.c" 1
 190 0084 83F31188 		msr     BASEPRI, r3
 191              	@ 0 "" 2
 192              	.LVL22:
 193              		.thumb
 194 0088 CFE7     		b	.L9
 195              	.LVL23:
 196              	.L44:
 197              	.LBE35:
 198              	.LBB36:
 199              		.loc 1 167 0
 200 008a 2023     		movs	r3, #32
 201              	.LVL24:
 202              	@ 167 "../../os/hal/platforms/STM32/USARTv1/serial_lld.c" 1
 203 008c 83F31188 		msr     BASEPRI, r3
 204              	@ 0 "" 2
 205              	.LVL25:
 206              		.thumb
 207              	.LBE36:
 208              		.loc 1 168 0
 209 0090 2548     		ldr	r0, .L48+4
 210 0092 4FF40071 		mov	r1, #512
 211 0096 FFF7FEFF 		bl	chEvtBroadcastFlagsI
 212              	.LVL26:
 213              	.LBB37:
 214              		.loc 1 169 0
 215 009a 0023     		movs	r3, #0
 216              	.LVL27:
 217              	@ 169 "../../os/hal/platforms/STM32/USARTv1/serial_lld.c" 1
 218 009c 83F31188 		msr     BASEPRI, r3
 219              	@ 0 "" 2
 220              	.LVL28:
 221              		.thumb
 222              	.LBE37:
 223              		.loc 1 170 0
 224 00a0 2B88     		ldrh	r3, [r5, #0]
 225              	.LVL29:
 226 00a2 23F48073 		bic	r3, r3, #256
 227 00a6 1B04     		lsls	r3, r3, #16
 228 00a8 1B0C     		lsrs	r3, r3, #16
ARM GAS  /var/folders/dt/0wfd0knj7gs46m8vwfzktm600000gn/T//ccIBf9CX.s 			page 5


 229 00aa 2B80     		strh	r3, [r5, #0]	@ movhi
 230 00ac B8E7     		b	.L8
 231              	.LVL30:
 232              	.L43:
 233              	.LBB38:
 234              	.LBB39:
 235              		.loc 1 138 0
 236 00ae 04F00801 		and	r1, r4, #8
 237              	.LVL31:
 238 00b2 89B2     		uxth	r1, r1
 239              		.loc 1 139 0
 240 00b4 0029     		cmp	r1, #0
 241 00b6 14BF     		ite	ne
 242 00b8 8021     		movne	r1, #128
 243 00ba 0021     		moveq	r1, #0
 244              	.LVL32:
 245              		.loc 1 140 0
 246 00bc E307     		lsls	r3, r4, #31
 247              		.loc 1 142 0
 248 00be 04F00203 		and	r3, r4, #2
 249 00c2 9BB2     		uxth	r3, r3
 250              		.loc 1 141 0
 251 00c4 48BF     		it	mi
 252 00c6 41F02001 		orrmi	r1, r1, #32
 253              	.LVL33:
 254              		.loc 1 142 0
 255 00ca 0BB1     		cbz	r3, .L6
 256              		.loc 1 143 0
 257 00cc 41F04001 		orr	r1, r1, #64
 258              	.LVL34:
 259              	.L6:
 260              		.loc 1 144 0
 261 00d0 04F00403 		and	r3, r4, #4
 262 00d4 9BB2     		uxth	r3, r3
 263 00d6 0BB1     		cbz	r3, .L7
 264              		.loc 1 145 0
 265 00d8 41F48071 		orr	r1, r1, #256
 266              	.LVL35:
 267              	.L7:
 268              	.LBB40:
 269              		.loc 1 146 0
 270 00dc 2023     		movs	r3, #32
 271              	.LVL36:
 272              	@ 146 "../../os/hal/platforms/STM32/USARTv1/serial_lld.c" 1
 273 00de 83F31188 		msr     BASEPRI, r3
 274              	@ 0 "" 2
 275              	.LVL37:
 276              		.thumb
 277              	.LBE40:
 278              		.loc 1 147 0
 279 00e2 1148     		ldr	r0, .L48+4
 280 00e4 FFF7FEFF 		bl	chEvtBroadcastFlagsI
 281              	.LVL38:
 282              	.LBB41:
 283              		.loc 1 148 0
 284 00e8 0023     		movs	r3, #0
 285              	@ 148 "../../os/hal/platforms/STM32/USARTv1/serial_lld.c" 1
ARM GAS  /var/folders/dt/0wfd0knj7gs46m8vwfzktm600000gn/T//ccIBf9CX.s 			page 6


 286 00ea 83F31188 		msr     BASEPRI, r3
 287              	@ 0 "" 2
 288              	.LVL39:
 289              		.thumb
 290 00ee 92E7     		b	.L3
 291              	.LVL40:
 292              	.L46:
 293              	.LBE41:
 294              	.LBE39:
 295              	.LBE38:
 296              	.LBB42:
 297              	.LBB43:
 298              		.loc 1 181 0
 299 00f0 2023     		movs	r3, #32
 300              	.LVL41:
 301              	@ 181 "../../os/hal/platforms/STM32/USARTv1/serial_lld.c" 1
 302 00f2 83F31188 		msr     BASEPRI, r3
 303              	@ 0 "" 2
 304              	.LVL42:
 305              		.thumb
 306              	.LBE43:
 307              		.loc 1 182 0
 308 00f6 0D48     		ldr	r0, .L48+8
 309 00f8 FFF7FEFF 		bl	chOQGetI
 310              	.LVL43:
 311              		.loc 1 183 0
 312 00fc 0028     		cmp	r0, #0
 313              		.loc 1 188 0
 314 00fe A4BF     		itt	ge
 315 0100 80B2     		uxthge	r0, r0
 316              	.LVL44:
 317 0102 A880     		strhge	r0, [r5, #4]	@ movhi
 318              		.loc 1 183 0
 319 0104 03DB     		blt	.L47
 320              	.L12:
 321              	.LBB44:
 322              		.loc 1 189 0
 323 0106 0023     		movs	r3, #0
 324              	@ 189 "../../os/hal/platforms/STM32/USARTv1/serial_lld.c" 1
 325 0108 83F31188 		msr     BASEPRI, r3
 326              	@ 0 "" 2
 327              	.LVL45:
 328              		.thumb
 329 010c 96E7     		b	.L10
 330              	.LVL46:
 331              	.L47:
 332              	.LBE44:
 333              		.loc 1 184 0
 334 010e 0648     		ldr	r0, .L48+4
 335 0110 0821     		movs	r1, #8
 336 0112 FFF7FEFF 		bl	chEvtBroadcastFlagsI
 337              	.LVL47:
 338              		.loc 1 185 0
 339 0116 26F0C003 		bic	r3, r6, #192
 340 011a 43F04003 		orr	r3, r3, #64
 341 011e AB81     		strh	r3, [r5, #12]	@ movhi
 342 0120 F1E7     		b	.L12
ARM GAS  /var/folders/dt/0wfd0knj7gs46m8vwfzktm600000gn/T//ccIBf9CX.s 			page 7


 343              	.L49:
 344 0122 00BF     		.align	2
 345              	.L48:
 346 0124 00000000 		.word	.LANCHOR0
 347 0128 04000000 		.word	.LANCHOR0+4
 348 012c 30000000 		.word	.LANCHOR0+48
 349              	.LBE42:
 350              	.LBE45:
 351              	.LBE46:
 352              		.cfi_endproc
 353              	.LFE68:
 354              		.size	VectorDC, .-VectorDC
 355              		.section	.text.sd_lld_init,"ax",%progbits
 356              		.align	2
 357              		.p2align 4,,15
 358              		.global	sd_lld_init
 359              		.thumb
 360              		.thumb_func
 361              		.type	sd_lld_init, %function
 362              	sd_lld_init:
 363              	.LFB69:
 364              		.loc 1 376 0
 365              		.cfi_startproc
 366              		@ args = 0, pretend = 0, frame = 0
 367              		@ frame_needed = 0, uses_anonymous_args = 0
 368 0000 10B5     		push	{r4, lr}
 369              	.LCFI1:
 370              		.cfi_def_cfa_offset 8
 371              		.cfi_offset 4, -8
 372              		.cfi_offset 14, -4
 373              		.loc 1 389 0
 374 0002 40F20004 		movw	r4, #:lower16:.LANCHOR0
 375 0006 C0F20004 		movt	r4, #:upper16:.LANCHOR0
 376 000a 40F20002 		movw	r2, #:lower16:notify3
 377 000e 2046     		mov	r0, r4
 378 0010 0021     		movs	r1, #0
 379 0012 C0F20002 		movt	r2, #:upper16:notify3
 380 0016 FFF7FEFF 		bl	sdObjectInit
 381              	.LVL48:
 382              		.loc 1 390 0
 383 001a 4FF49043 		mov	r3, #18432
 384 001e C4F20003 		movt	r3, 16384
 385 0022 6367     		str	r3, [r4, #116]
 386 0024 10BD     		pop	{r4, pc}
 387              		.cfi_endproc
 388              	.LFE69:
 389              		.size	sd_lld_init, .-sd_lld_init
 390 0026 00BFAFF3 		.section	.text.sd_lld_start,"ax",%progbits
 390      0080AFF3 
 390      0080
 391              		.align	2
 392              		.p2align 4,,15
 393              		.global	sd_lld_start
 394              		.thumb
 395              		.thumb_func
 396              		.type	sd_lld_start, %function
 397              	sd_lld_start:
ARM GAS  /var/folders/dt/0wfd0knj7gs46m8vwfzktm600000gn/T//ccIBf9CX.s 			page 8


 398              	.LFB70:
 399              		.loc 1 419 0
 400              		.cfi_startproc
 401              		@ args = 0, pretend = 0, frame = 0
 402              		@ frame_needed = 0, uses_anonymous_args = 0
 403              	.LVL49:
 404 0000 38B5     		push	{r3, r4, r5, lr}
 405              	.LCFI2:
 406              		.cfi_def_cfa_offset 16
 407              		.cfi_offset 3, -16
 408              		.cfi_offset 4, -12
 409              		.cfi_offset 5, -8
 410              		.cfi_offset 14, -4
 411              		.loc 1 424 0
 412 0002 037A     		ldrb	r3, [r0, #8]	@ zero_extendqisi2
 413              		.loc 1 422 0
 414 0004 1B4C     		ldr	r4, .L58
 415              		.loc 1 419 0
 416 0006 0546     		mov	r5, r0
 417              		.loc 1 422 0
 418 0008 0029     		cmp	r1, #0
 419 000a 18BF     		it	ne
 420 000c 0C46     		movne	r4, r1
 421              	.LVL50:
 422              		.loc 1 424 0
 423 000e 012B     		cmp	r3, #1
 424 0010 1FD0     		beq	.L57
 425              	.LVL51:
 426              	.L53:
 427              	.LBB49:
 428              	.LBB50:
 429              		.loc 1 101 0
 430 0012 2168     		ldr	r1, [r4, #0]
 431 0014 4FF4A242 		mov	r2, #20736
 432 0018 C0F22522 		movt	r2, 549
 433              		.loc 1 93 0
 434 001c 6B6F     		ldr	r3, [r5, #116]
 435              	.LVL52:
 436              		.loc 1 101 0
 437 001e B2FBF1F2 		udiv	r2, r2, r1
 438 0022 92B2     		uxth	r2, r2
 439 0024 1A81     		strh	r2, [r3, #8]	@ movhi
 440              		.loc 1 108 0
 441 0026 A288     		ldrh	r2, [r4, #4]
 442              		.loc 1 106 0
 443 0028 E088     		ldrh	r0, [r4, #6]
 444              		.loc 1 107 0
 445 002a 2189     		ldrh	r1, [r4, #8]
 446              		.loc 1 108 0
 447 002c 42F40452 		orr	r2, r2, #8448
 448              		.loc 1 106 0
 449 0030 40F04000 		orr	r0, r0, #64
 450              		.loc 1 107 0
 451 0034 41F00101 		orr	r1, r1, #1
 452              		.loc 1 108 0
 453 0038 42F02C02 		orr	r2, r2, #44
 454 003c 92B2     		uxth	r2, r2
ARM GAS  /var/folders/dt/0wfd0knj7gs46m8vwfzktm600000gn/T//ccIBf9CX.s 			page 9


 455              		.loc 1 106 0
 456 003e 80B2     		uxth	r0, r0
 457              		.loc 1 107 0
 458 0040 89B2     		uxth	r1, r1
 459              		.loc 1 106 0
 460 0042 1882     		strh	r0, [r3, #16]	@ movhi
 461              		.loc 1 107 0
 462 0044 9982     		strh	r1, [r3, #20]	@ movhi
 463              		.loc 1 108 0
 464 0046 9A81     		strh	r2, [r3, #12]	@ movhi
 465              		.loc 1 111 0
 466 0048 0022     		movs	r2, #0
 467 004a 1A80     		strh	r2, [r3, #0]	@ movhi
 468              		.loc 1 112 0
 469 004c 1A88     		ldrh	r2, [r3, #0]
 470              		.loc 1 113 0
 471 004e 9B88     		ldrh	r3, [r3, #4]
 472              	.LVL53:
 473 0050 38BD     		pop	{r3, r4, r5, pc}
 474              	.LVL54:
 475              	.L57:
 476              	.LBE50:
 477              	.LBE49:
 478              		.loc 1 440 0
 479 0052 094B     		ldr	r3, .L58+4
 480 0054 9842     		cmp	r0, r3
 481 0056 DCD1     		bne	.L53
 482              		.loc 1 441 0
 483 0058 4FF48053 		mov	r3, #4096
 484 005c C4F20203 		movt	r3, 16386
 485 0060 DA69     		ldr	r2, [r3, #28]
 486              		.loc 1 442 0
 487 0062 2720     		movs	r0, #39
 488              	.LVL55:
 489              		.loc 1 441 0
 490 0064 42F48022 		orr	r2, r2, #262144
 491 0068 DA61     		str	r2, [r3, #28]
 492              		.loc 1 442 0
 493 006a C021     		movs	r1, #192
 494 006c FFF7FEFF 		bl	nvicEnableVector
 495              	.LVL56:
 496 0070 CFE7     		b	.L53
 497              	.L59:
 498 0072 00BF     		.align	2
 499              	.L58:
 500 0074 00000000 		.word	.LANCHOR1
 501 0078 00000000 		.word	.LANCHOR0
 502              		.cfi_endproc
 503              	.LFE70:
 504              		.size	sd_lld_start, .-sd_lld_start
 505 007c AFF30080 		.section	.text.sd_lld_stop,"ax",%progbits
 506              		.align	2
 507              		.p2align 4,,15
 508              		.global	sd_lld_stop
 509              		.thumb
 510              		.thumb_func
 511              		.type	sd_lld_stop, %function
ARM GAS  /var/folders/dt/0wfd0knj7gs46m8vwfzktm600000gn/T//ccIBf9CX.s 			page 10


 512              	sd_lld_stop:
 513              	.LFB71:
 514              		.loc 1 480 0
 515              		.cfi_startproc
 516              		@ args = 0, pretend = 0, frame = 0
 517              		@ frame_needed = 0, uses_anonymous_args = 0
 518              		@ link register save eliminated.
 519              	.LVL57:
 520              		.loc 1 482 0
 521 0000 037A     		ldrb	r3, [r0, #8]	@ zero_extendqisi2
 522 0002 022B     		cmp	r3, #2
 523 0004 00D0     		beq	.L64
 524              	.L60:
 525 0006 7047     		bx	lr
 526              	.L64:
 527              		.loc 1 483 0
 528 0008 436F     		ldr	r3, [r0, #116]
 529              	.LVL58:
 530              	.LBB51:
 531              	.LBB52:
 532              		.loc 1 124 0
 533 000a 0022     		movs	r2, #0
 534 000c 9A81     		strh	r2, [r3, #12]	@ movhi
 535              		.loc 1 125 0
 536 000e 1A82     		strh	r2, [r3, #16]	@ movhi
 537              		.loc 1 126 0
 538 0010 9A82     		strh	r2, [r3, #20]	@ movhi
 539              	.LBE52:
 540              	.LBE51:
 541              		.loc 1 499 0
 542 0012 074B     		ldr	r3, .L65
 543              	.LVL59:
 544 0014 9842     		cmp	r0, r3
 545 0016 F6D1     		bne	.L60
 546              		.loc 1 500 0
 547 0018 4FF48053 		mov	r3, #4096
 548 001c C4F20203 		movt	r3, 16386
 549 0020 DA69     		ldr	r2, [r3, #28]
 550              		.loc 1 501 0
 551 0022 2720     		movs	r0, #39
 552              	.LVL60:
 553              		.loc 1 500 0
 554 0024 22F48022 		bic	r2, r2, #262144
 555 0028 DA61     		str	r2, [r3, #28]
 556              		.loc 1 527 0
 557              		.loc 1 501 0
 558 002a FFF7FEBF 		b	nvicDisableVector
 559              	.LVL61:
 560              	.L66:
 561 002e 00BF     		.align	2
 562              	.L65:
 563 0030 00000000 		.word	.LANCHOR0
 564              		.cfi_endproc
 565              	.LFE71:
 566              		.size	sd_lld_stop, .-sd_lld_stop
 567              		.global	SD3
 568 0034 AFF30080 		.section	.rodata.default_config,"a",%progbits
ARM GAS  /var/folders/dt/0wfd0knj7gs46m8vwfzktm600000gn/T//ccIBf9CX.s 			page 11


 568      AFF30080 
 568      AFF30080 
 569              		.align	2
 570              		.set	.LANCHOR1,. + 0
 571              		.type	default_config, %object
 572              		.size	default_config, 12
 573              	default_config:
 574 0000 00960000 		.word	38400
 575 0004 0000     		.short	0
 576 0006 0040     		.short	16384
 577 0008 0000     		.short	0
 578 000a 0000     		.space	2
 579              		.section	.bss.SD3,"aw",%nobits
 580              		.align	2
 581              		.set	.LANCHOR0,. + 0
 582              		.type	SD3, %object
 583              		.size	SD3, 120
 584              	SD3:
 585 0000 00000000 		.space	120
 585      00000000 
 585      00000000 
 585      00000000 
 585      00000000 
 586              		.text
 587              	.Letext0:
 588              		.file 2 "/Users/toxygen/Applications/yagarto-4.7.2/bin/../lib/gcc/arm-none-eabi/4.7.2/include/stdd
 589              		.file 3 "/Users/toxygen/Applications/yagarto-4.7.2/bin/../lib/gcc/arm-none-eabi/4.7.2/../../../../
 590              		.file 4 "../../os/ports/GCC/ARMCMx/chtypes.h"
 591              		.file 5 "../../os/kernel/include/chlists.h"
 592              		.file 6 "../../os/kernel/include/chthreads.h"
 593              		.file 7 "../../os/ports/GCC/ARMCMx/chcore_v7m.h"
 594              		.file 8 "../../os/kernel/include/chmtx.h"
 595              		.file 9 "../../os/kernel/include/chevents.h"
 596              		.file 10 "../../os/kernel/include/chqueues.h"
 597              		.file 11 "../../os/hal/platforms/STM32F1xx/stm32f10x.h"
 598              		.file 12 "../../os/hal/include/serial.h"
 599              		.file 13 "../../os/hal/platforms/STM32/USARTv1/serial_lld.h"
 600              		.file 14 "../../os/ports/common/ARMCMx/nvic.h"
 601              		.file 15 "../../os/ports/common/ARMCMx/CMSIS/include/core_cm3.h"
 602              		.section	.debug_info,"",%progbits
 603              	.Ldebug_info0:
 604 0000 07110000 		.4byte	0x1107
 605 0004 0200     		.2byte	0x2
 606 0006 00000000 		.4byte	.Ldebug_abbrev0
 607 000a 04       		.byte	0x4
 608 000b 01       		.uleb128 0x1
 609 000c E6040000 		.4byte	.LASF199
 610 0010 01       		.byte	0x1
 611 0011 AC080000 		.4byte	.LASF200
 612 0015 A5010000 		.4byte	.LASF201
 613 0019 30000000 		.4byte	.Ldebug_ranges0+0x30
 614 001d 00000000 		.4byte	0
 615 0021 00000000 		.4byte	0
 616 0025 00000000 		.4byte	.Ldebug_line0
 617 0029 02       		.uleb128 0x2
 618 002a 04       		.byte	0x4
 619 002b 05       		.byte	0x5
ARM GAS  /var/folders/dt/0wfd0knj7gs46m8vwfzktm600000gn/T//ccIBf9CX.s 			page 12


 620 002c 696E7400 		.ascii	"int\000"
 621 0030 03       		.uleb128 0x3
 622 0031 22000000 		.4byte	.LASF2
 623 0035 02       		.byte	0x2
 624 0036 D5       		.byte	0xd5
 625 0037 3B000000 		.4byte	0x3b
 626 003b 04       		.uleb128 0x4
 627 003c 04       		.byte	0x4
 628 003d 07       		.byte	0x7
 629 003e C2020000 		.4byte	.LASF0
 630 0042 04       		.uleb128 0x4
 631 0043 01       		.byte	0x1
 632 0044 06       		.byte	0x6
 633 0045 33010000 		.4byte	.LASF1
 634 0049 03       		.uleb128 0x3
 635 004a 5B080000 		.4byte	.LASF3
 636 004e 03       		.byte	0x3
 637 004f 2A       		.byte	0x2a
 638 0050 54000000 		.4byte	0x54
 639 0054 04       		.uleb128 0x4
 640 0055 01       		.byte	0x1
 641 0056 08       		.byte	0x8
 642 0057 A0050000 		.4byte	.LASF4
 643 005b 04       		.uleb128 0x4
 644 005c 02       		.byte	0x2
 645 005d 05       		.byte	0x5
 646 005e E5050000 		.4byte	.LASF5
 647 0062 03       		.uleb128 0x3
 648 0063 CF020000 		.4byte	.LASF6
 649 0067 03       		.byte	0x3
 650 0068 36       		.byte	0x36
 651 0069 6D000000 		.4byte	0x6d
 652 006d 04       		.uleb128 0x4
 653 006e 02       		.byte	0x2
 654 006f 07       		.byte	0x7
 655 0070 41030000 		.4byte	.LASF7
 656 0074 03       		.uleb128 0x3
 657 0075 98050000 		.4byte	.LASF8
 658 0079 03       		.byte	0x3
 659 007a 4F       		.byte	0x4f
 660 007b 7F000000 		.4byte	0x7f
 661 007f 04       		.uleb128 0x4
 662 0080 04       		.byte	0x4
 663 0081 05       		.byte	0x5
 664 0082 9C010000 		.4byte	.LASF9
 665 0086 03       		.uleb128 0x3
 666 0087 92060000 		.4byte	.LASF10
 667 008b 03       		.byte	0x3
 668 008c 50       		.byte	0x50
 669 008d 91000000 		.4byte	0x91
 670 0091 04       		.uleb128 0x4
 671 0092 04       		.byte	0x4
 672 0093 07       		.byte	0x7
 673 0094 D6060000 		.4byte	.LASF11
 674 0098 04       		.uleb128 0x4
 675 0099 08       		.byte	0x8
 676 009a 05       		.byte	0x5
ARM GAS  /var/folders/dt/0wfd0knj7gs46m8vwfzktm600000gn/T//ccIBf9CX.s 			page 13


 677 009b 25010000 		.4byte	.LASF12
 678 009f 04       		.uleb128 0x4
 679 00a0 08       		.byte	0x8
 680 00a1 07       		.byte	0x7
 681 00a2 9B000000 		.4byte	.LASF13
 682 00a6 04       		.uleb128 0x4
 683 00a7 01       		.byte	0x1
 684 00a8 02       		.byte	0x2
 685 00a9 92050000 		.4byte	.LASF14
 686 00ad 03       		.uleb128 0x3
 687 00ae AE030000 		.4byte	.LASF15
 688 00b2 04       		.byte	0x4
 689 00b3 2C       		.byte	0x2c
 690 00b4 49000000 		.4byte	0x49
 691 00b8 03       		.uleb128 0x3
 692 00b9 EC010000 		.4byte	.LASF16
 693 00bd 04       		.byte	0x4
 694 00be 2D       		.byte	0x2d
 695 00bf 49000000 		.4byte	0x49
 696 00c3 03       		.uleb128 0x3
 697 00c4 2B050000 		.4byte	.LASF17
 698 00c8 04       		.byte	0x4
 699 00c9 2E       		.byte	0x2e
 700 00ca 49000000 		.4byte	0x49
 701 00ce 03       		.uleb128 0x3
 702 00cf 6A010000 		.4byte	.LASF18
 703 00d3 04       		.byte	0x4
 704 00d4 2F       		.byte	0x2f
 705 00d5 49000000 		.4byte	0x49
 706 00d9 03       		.uleb128 0x3
 707 00da 76050000 		.4byte	.LASF19
 708 00de 04       		.byte	0x4
 709 00df 30       		.byte	0x30
 710 00e0 86000000 		.4byte	0x86
 711 00e4 03       		.uleb128 0x3
 712 00e5 73030000 		.4byte	.LASF20
 713 00e9 04       		.byte	0x4
 714 00ea 31       		.byte	0x31
 715 00eb 74000000 		.4byte	0x74
 716 00ef 03       		.uleb128 0x3
 717 00f0 C2030000 		.4byte	.LASF21
 718 00f4 04       		.byte	0x4
 719 00f5 33       		.byte	0x33
 720 00f6 86000000 		.4byte	0x86
 721 00fa 03       		.uleb128 0x3
 722 00fb C5000000 		.4byte	.LASF22
 723 00ff 04       		.byte	0x4
 724 0100 34       		.byte	0x34
 725 0101 86000000 		.4byte	0x86
 726 0105 03       		.uleb128 0x3
 727 0106 61070000 		.4byte	.LASF23
 728 010a 04       		.byte	0x4
 729 010b 35       		.byte	0x35
 730 010c 86000000 		.4byte	0x86
 731 0110 03       		.uleb128 0x3
 732 0111 51060000 		.4byte	.LASF24
 733 0115 05       		.byte	0x5
ARM GAS  /var/folders/dt/0wfd0knj7gs46m8vwfzktm600000gn/T//ccIBf9CX.s 			page 14


 734 0116 2A       		.byte	0x2a
 735 0117 1B010000 		.4byte	0x11b
 736 011b 05       		.uleb128 0x5
 737 011c 51060000 		.4byte	.LASF24
 738 0120 48       		.byte	0x48
 739 0121 06       		.byte	0x6
 740 0122 5E       		.byte	0x5e
 741 0123 40020000 		.4byte	0x240
 742 0127 06       		.uleb128 0x6
 743 0128 78040000 		.4byte	.LASF25
 744 012c 06       		.byte	0x6
 745 012d 5F       		.byte	0x5f
 746 012e 65020000 		.4byte	0x265
 747 0132 02       		.byte	0x2
 748 0133 23       		.byte	0x23
 749 0134 00       		.uleb128 0
 750 0135 06       		.uleb128 0x6
 751 0136 65050000 		.4byte	.LASF26
 752 013a 06       		.byte	0x6
 753 013b 61       		.byte	0x61
 754 013c 65020000 		.4byte	0x265
 755 0140 02       		.byte	0x2
 756 0141 23       		.byte	0x23
 757 0142 04       		.uleb128 0x4
 758 0143 06       		.uleb128 0x6
 759 0144 6C080000 		.4byte	.LASF27
 760 0148 06       		.byte	0x6
 761 0149 63       		.byte	0x63
 762 014a D9000000 		.4byte	0xd9
 763 014e 02       		.byte	0x2
 764 014f 23       		.byte	0x23
 765 0150 08       		.uleb128 0x8
 766 0151 06       		.uleb128 0x6
 767 0152 25090000 		.4byte	.LASF28
 768 0156 06       		.byte	0x6
 769 0157 64       		.byte	0x64
 770 0158 33030000 		.4byte	0x333
 771 015c 02       		.byte	0x2
 772 015d 23       		.byte	0x23
 773 015e 0C       		.uleb128 0xc
 774 015f 06       		.uleb128 0x6
 775 0160 45020000 		.4byte	.LASF29
 776 0164 06       		.byte	0x6
 777 0165 66       		.byte	0x66
 778 0166 65020000 		.4byte	0x265
 779 016a 02       		.byte	0x2
 780 016b 23       		.byte	0x23
 781 016c 10       		.uleb128 0x10
 782 016d 06       		.uleb128 0x6
 783 016e F9050000 		.4byte	.LASF30
 784 0172 06       		.byte	0x6
 785 0173 67       		.byte	0x67
 786 0174 65020000 		.4byte	0x265
 787 0178 02       		.byte	0x2
 788 0179 23       		.byte	0x23
 789 017a 14       		.uleb128 0x14
 790 017b 06       		.uleb128 0x6
ARM GAS  /var/folders/dt/0wfd0knj7gs46m8vwfzktm600000gn/T//ccIBf9CX.s 			page 15


 791 017c 92070000 		.4byte	.LASF31
 792 0180 06       		.byte	0x6
 793 0181 6E       		.byte	0x6e
 794 0182 60040000 		.4byte	0x460
 795 0186 02       		.byte	0x2
 796 0187 23       		.byte	0x23
 797 0188 18       		.uleb128 0x18
 798 0189 06       		.uleb128 0x6
 799 018a 52010000 		.4byte	.LASF32
 800 018e 06       		.byte	0x6
 801 018f 79       		.byte	0x79
 802 0190 B8000000 		.4byte	0xb8
 803 0194 02       		.byte	0x2
 804 0195 23       		.byte	0x23
 805 0196 1C       		.uleb128 0x1c
 806 0197 06       		.uleb128 0x6
 807 0198 26060000 		.4byte	.LASF33
 808 019c 06       		.byte	0x6
 809 019d 7D       		.byte	0x7d
 810 019e AD000000 		.4byte	0xad
 811 01a2 02       		.byte	0x2
 812 01a3 23       		.byte	0x23
 813 01a4 1D       		.uleb128 0x1d
 814 01a5 06       		.uleb128 0x6
 815 01a6 FE010000 		.4byte	.LASF34
 816 01aa 06       		.byte	0x6
 817 01ab 82       		.byte	0x82
 818 01ac C3000000 		.4byte	0xc3
 819 01b0 02       		.byte	0x2
 820 01b1 23       		.byte	0x23
 821 01b2 1E       		.uleb128 0x1e
 822 01b3 06       		.uleb128 0x6
 823 01b4 EF050000 		.4byte	.LASF35
 824 01b8 06       		.byte	0x6
 825 01b9 88       		.byte	0x88
 826 01ba CE000000 		.4byte	0xce
 827 01be 02       		.byte	0x2
 828 01bf 23       		.byte	0x23
 829 01c0 1F       		.uleb128 0x1f
 830 01c1 06       		.uleb128 0x6
 831 01c2 E8020000 		.4byte	.LASF36
 832 01c6 06       		.byte	0x6
 833 01c7 8F       		.byte	0x8f
 834 01c8 62030000 		.4byte	0x362
 835 01cc 02       		.byte	0x2
 836 01cd 23       		.byte	0x23
 837 01ce 20       		.uleb128 0x20
 838 01cf 07       		.uleb128 0x7
 839 01d0 705F7500 		.ascii	"p_u\000"
 840 01d4 06       		.byte	0x6
 841 01d5 B4       		.byte	0xb4
 842 01d6 2B040000 		.4byte	0x42b
 843 01da 02       		.byte	0x2
 844 01db 23       		.byte	0x23
 845 01dc 24       		.uleb128 0x24
 846 01dd 06       		.uleb128 0x6
 847 01de 2B090000 		.4byte	.LASF37
ARM GAS  /var/folders/dt/0wfd0knj7gs46m8vwfzktm600000gn/T//ccIBf9CX.s 			page 16


 848 01e2 06       		.byte	0x6
 849 01e3 B9       		.byte	0xb9
 850 01e4 8D020000 		.4byte	0x28d
 851 01e8 02       		.byte	0x2
 852 01e9 23       		.byte	0x23
 853 01ea 28       		.uleb128 0x28
 854 01eb 06       		.uleb128 0x6
 855 01ec 0C030000 		.4byte	.LASF38
 856 01f0 06       		.byte	0x6
 857 01f1 BF       		.byte	0xbf
 858 01f2 6B020000 		.4byte	0x26b
 859 01f6 02       		.byte	0x2
 860 01f7 23       		.byte	0x23
 861 01f8 2C       		.uleb128 0x2c
 862 01f9 06       		.uleb128 0x6
 863 01fa 4F080000 		.4byte	.LASF39
 864 01fe 06       		.byte	0x6
 865 01ff C3       		.byte	0xc3
 866 0200 E4000000 		.4byte	0xe4
 867 0204 02       		.byte	0x2
 868 0205 23       		.byte	0x23
 869 0206 34       		.uleb128 0x34
 870 0207 06       		.uleb128 0x6
 871 0208 73060000 		.4byte	.LASF40
 872 020c 06       		.byte	0x6
 873 020d C9       		.byte	0xc9
 874 020e EF000000 		.4byte	0xef
 875 0212 02       		.byte	0x2
 876 0213 23       		.byte	0x23
 877 0214 38       		.uleb128 0x38
 878 0215 06       		.uleb128 0x6
 879 0216 DB050000 		.4byte	.LASF41
 880 021a 06       		.byte	0x6
 881 021b D0       		.byte	0xd0
 882 021c 72040000 		.4byte	0x472
 883 0220 02       		.byte	0x2
 884 0221 23       		.byte	0x23
 885 0222 3C       		.uleb128 0x3c
 886 0223 06       		.uleb128 0x6
 887 0224 17000000 		.4byte	.LASF42
 888 0228 06       		.byte	0x6
 889 0229 D4       		.byte	0xd4
 890 022a D9000000 		.4byte	0xd9
 891 022e 02       		.byte	0x2
 892 022f 23       		.byte	0x23
 893 0230 40       		.uleb128 0x40
 894 0231 06       		.uleb128 0x6
 895 0232 5A010000 		.4byte	.LASF43
 896 0236 06       		.byte	0x6
 897 0237 DA       		.byte	0xda
 898 0238 A3020000 		.4byte	0x2a3
 899 023c 02       		.byte	0x2
 900 023d 23       		.byte	0x23
 901 023e 44       		.uleb128 0x44
 902 023f 00       		.byte	0
 903 0240 08       		.uleb128 0x8
 904 0241 08       		.byte	0x8
ARM GAS  /var/folders/dt/0wfd0knj7gs46m8vwfzktm600000gn/T//ccIBf9CX.s 			page 17


 905 0242 05       		.byte	0x5
 906 0243 61       		.byte	0x61
 907 0244 65020000 		.4byte	0x265
 908 0248 06       		.uleb128 0x6
 909 0249 78040000 		.4byte	.LASF25
 910 024d 05       		.byte	0x5
 911 024e 62       		.byte	0x62
 912 024f 65020000 		.4byte	0x265
 913 0253 02       		.byte	0x2
 914 0254 23       		.byte	0x23
 915 0255 00       		.uleb128 0
 916 0256 06       		.uleb128 0x6
 917 0257 65050000 		.4byte	.LASF26
 918 025b 05       		.byte	0x5
 919 025c 64       		.byte	0x64
 920 025d 65020000 		.4byte	0x265
 921 0261 02       		.byte	0x2
 922 0262 23       		.byte	0x23
 923 0263 04       		.uleb128 0x4
 924 0264 00       		.byte	0
 925 0265 09       		.uleb128 0x9
 926 0266 04       		.byte	0x4
 927 0267 10010000 		.4byte	0x110
 928 026b 03       		.uleb128 0x3
 929 026c B2040000 		.4byte	.LASF44
 930 0270 05       		.byte	0x5
 931 0271 66       		.byte	0x66
 932 0272 40020000 		.4byte	0x240
 933 0276 08       		.uleb128 0x8
 934 0277 04       		.byte	0x4
 935 0278 05       		.byte	0x5
 936 0279 6B       		.byte	0x6b
 937 027a 8D020000 		.4byte	0x28d
 938 027e 06       		.uleb128 0x6
 939 027f 78040000 		.4byte	.LASF25
 940 0283 05       		.byte	0x5
 941 0284 6D       		.byte	0x6d
 942 0285 65020000 		.4byte	0x265
 943 0289 02       		.byte	0x2
 944 028a 23       		.byte	0x23
 945 028b 00       		.uleb128 0
 946 028c 00       		.byte	0
 947 028d 03       		.uleb128 0x3
 948 028e B6030000 		.4byte	.LASF45
 949 0292 05       		.byte	0x5
 950 0293 70       		.byte	0x70
 951 0294 76020000 		.4byte	0x276
 952 0298 03       		.uleb128 0x3
 953 0299 82020000 		.4byte	.LASF46
 954 029d 07       		.byte	0x7
 955 029e E5       		.byte	0xe5
 956 029f A3020000 		.4byte	0x2a3
 957 02a3 0A       		.uleb128 0xa
 958 02a4 04       		.byte	0x4
 959 02a5 0B       		.uleb128 0xb
 960 02a6 C1070000 		.4byte	.LASF47
 961 02aa 24       		.byte	0x24
ARM GAS  /var/folders/dt/0wfd0knj7gs46m8vwfzktm600000gn/T//ccIBf9CX.s 			page 18


 962 02ab 07       		.byte	0x7
 963 02ac 0C01     		.2byte	0x10c
 964 02ae 33030000 		.4byte	0x333
 965 02b2 0C       		.uleb128 0xc
 966 02b3 723400   		.ascii	"r4\000"
 967 02b6 07       		.byte	0x7
 968 02b7 1F01     		.2byte	0x11f
 969 02b9 98020000 		.4byte	0x298
 970 02bd 02       		.byte	0x2
 971 02be 23       		.byte	0x23
 972 02bf 00       		.uleb128 0
 973 02c0 0C       		.uleb128 0xc
 974 02c1 723500   		.ascii	"r5\000"
 975 02c4 07       		.byte	0x7
 976 02c5 2001     		.2byte	0x120
 977 02c7 98020000 		.4byte	0x298
 978 02cb 02       		.byte	0x2
 979 02cc 23       		.byte	0x23
 980 02cd 04       		.uleb128 0x4
 981 02ce 0C       		.uleb128 0xc
 982 02cf 723600   		.ascii	"r6\000"
 983 02d2 07       		.byte	0x7
 984 02d3 2101     		.2byte	0x121
 985 02d5 98020000 		.4byte	0x298
 986 02d9 02       		.byte	0x2
 987 02da 23       		.byte	0x23
 988 02db 08       		.uleb128 0x8
 989 02dc 0C       		.uleb128 0xc
 990 02dd 723700   		.ascii	"r7\000"
 991 02e0 07       		.byte	0x7
 992 02e1 2201     		.2byte	0x122
 993 02e3 98020000 		.4byte	0x298
 994 02e7 02       		.byte	0x2
 995 02e8 23       		.byte	0x23
 996 02e9 0C       		.uleb128 0xc
 997 02ea 0C       		.uleb128 0xc
 998 02eb 723800   		.ascii	"r8\000"
 999 02ee 07       		.byte	0x7
 1000 02ef 2301     		.2byte	0x123
 1001 02f1 98020000 		.4byte	0x298
 1002 02f5 02       		.byte	0x2
 1003 02f6 23       		.byte	0x23
 1004 02f7 10       		.uleb128 0x10
 1005 02f8 0C       		.uleb128 0xc
 1006 02f9 723900   		.ascii	"r9\000"
 1007 02fc 07       		.byte	0x7
 1008 02fd 2401     		.2byte	0x124
 1009 02ff 98020000 		.4byte	0x298
 1010 0303 02       		.byte	0x2
 1011 0304 23       		.byte	0x23
 1012 0305 14       		.uleb128 0x14
 1013 0306 0C       		.uleb128 0xc
 1014 0307 72313000 		.ascii	"r10\000"
 1015 030b 07       		.byte	0x7
 1016 030c 2501     		.2byte	0x125
 1017 030e 98020000 		.4byte	0x298
 1018 0312 02       		.byte	0x2
ARM GAS  /var/folders/dt/0wfd0knj7gs46m8vwfzktm600000gn/T//ccIBf9CX.s 			page 19


 1019 0313 23       		.byte	0x23
 1020 0314 18       		.uleb128 0x18
 1021 0315 0C       		.uleb128 0xc
 1022 0316 72313100 		.ascii	"r11\000"
 1023 031a 07       		.byte	0x7
 1024 031b 2601     		.2byte	0x126
 1025 031d 98020000 		.4byte	0x298
 1026 0321 02       		.byte	0x2
 1027 0322 23       		.byte	0x23
 1028 0323 1C       		.uleb128 0x1c
 1029 0324 0C       		.uleb128 0xc
 1030 0325 6C7200   		.ascii	"lr\000"
 1031 0328 07       		.byte	0x7
 1032 0329 2701     		.2byte	0x127
 1033 032b 98020000 		.4byte	0x298
 1034 032f 02       		.byte	0x2
 1035 0330 23       		.byte	0x23
 1036 0331 20       		.uleb128 0x20
 1037 0332 00       		.byte	0
 1038 0333 0B       		.uleb128 0xb
 1039 0334 AD070000 		.4byte	.LASF48
 1040 0338 04       		.byte	0x4
 1041 0339 07       		.byte	0x7
 1042 033a 3101     		.2byte	0x131
 1043 033c 50030000 		.4byte	0x350
 1044 0340 0C       		.uleb128 0xc
 1045 0341 72313300 		.ascii	"r13\000"
 1046 0345 07       		.byte	0x7
 1047 0346 3201     		.2byte	0x132
 1048 0348 50030000 		.4byte	0x350
 1049 034c 02       		.byte	0x2
 1050 034d 23       		.byte	0x23
 1051 034e 00       		.uleb128 0
 1052 034f 00       		.byte	0
 1053 0350 09       		.uleb128 0x9
 1054 0351 04       		.byte	0x4
 1055 0352 A5020000 		.4byte	0x2a5
 1056 0356 0D       		.uleb128 0xd
 1057 0357 86000000 		.4byte	0x86
 1058 035b 04       		.uleb128 0x4
 1059 035c 04       		.byte	0x4
 1060 035d 07       		.byte	0x7
 1061 035e 43040000 		.4byte	.LASF49
 1062 0362 0D       		.uleb128 0xd
 1063 0363 05010000 		.4byte	0x105
 1064 0367 05       		.uleb128 0x5
 1065 0368 5F040000 		.4byte	.LASF50
 1066 036c 10       		.byte	0x10
 1067 036d 08       		.byte	0x8
 1068 036e 2C       		.byte	0x2c
 1069 036f 9E030000 		.4byte	0x39e
 1070 0373 06       		.uleb128 0x6
 1071 0374 62010000 		.4byte	.LASF51
 1072 0378 08       		.byte	0x8
 1073 0379 2D       		.byte	0x2d
 1074 037a 6B020000 		.4byte	0x26b
 1075 037e 02       		.byte	0x2
ARM GAS  /var/folders/dt/0wfd0knj7gs46m8vwfzktm600000gn/T//ccIBf9CX.s 			page 20


 1076 037f 23       		.byte	0x23
 1077 0380 00       		.uleb128 0
 1078 0381 06       		.uleb128 0x6
 1079 0382 0F090000 		.4byte	.LASF52
 1080 0386 08       		.byte	0x8
 1081 0387 2F       		.byte	0x2f
 1082 0388 65020000 		.4byte	0x265
 1083 038c 02       		.byte	0x2
 1084 038d 23       		.byte	0x23
 1085 038e 08       		.uleb128 0x8
 1086 038f 06       		.uleb128 0x6
 1087 0390 5A070000 		.4byte	.LASF53
 1088 0394 08       		.byte	0x8
 1089 0395 31       		.byte	0x31
 1090 0396 9E030000 		.4byte	0x39e
 1091 039a 02       		.byte	0x2
 1092 039b 23       		.byte	0x23
 1093 039c 0C       		.uleb128 0xc
 1094 039d 00       		.byte	0
 1095 039e 09       		.uleb128 0x9
 1096 039f 04       		.byte	0x4
 1097 03a0 67030000 		.4byte	0x367
 1098 03a4 03       		.uleb128 0x3
 1099 03a5 5F040000 		.4byte	.LASF50
 1100 03a9 08       		.byte	0x8
 1101 03aa 33       		.byte	0x33
 1102 03ab 67030000 		.4byte	0x367
 1103 03af 03       		.uleb128 0x3
 1104 03b0 73080000 		.4byte	.LASF54
 1105 03b4 09       		.byte	0x9
 1106 03b5 2C       		.byte	0x2c
 1107 03b6 BA030000 		.4byte	0x3ba
 1108 03ba 05       		.uleb128 0x5
 1109 03bb 73080000 		.4byte	.LASF54
 1110 03bf 10       		.byte	0x10
 1111 03c0 09       		.byte	0x9
 1112 03c1 31       		.byte	0x31
 1113 03c2 FF030000 		.4byte	0x3ff
 1114 03c6 06       		.uleb128 0x6
 1115 03c7 2E060000 		.4byte	.LASF55
 1116 03cb 09       		.byte	0x9
 1117 03cc 32       		.byte	0x32
 1118 03cd FF030000 		.4byte	0x3ff
 1119 03d1 02       		.byte	0x2
 1120 03d2 23       		.byte	0x23
 1121 03d3 00       		.uleb128 0
 1122 03d4 06       		.uleb128 0x6
 1123 03d5 BB050000 		.4byte	.LASF56
 1124 03d9 09       		.byte	0x9
 1125 03da 35       		.byte	0x35
 1126 03db 65020000 		.4byte	0x265
 1127 03df 02       		.byte	0x2
 1128 03e0 23       		.byte	0x23
 1129 03e1 04       		.uleb128 0x4
 1130 03e2 06       		.uleb128 0x6
 1131 03e3 FB040000 		.4byte	.LASF57
 1132 03e7 09       		.byte	0x9
ARM GAS  /var/folders/dt/0wfd0knj7gs46m8vwfzktm600000gn/T//ccIBf9CX.s 			page 21


 1133 03e8 37       		.byte	0x37
 1134 03e9 EF000000 		.4byte	0xef
 1135 03ed 02       		.byte	0x2
 1136 03ee 23       		.byte	0x23
 1137 03ef 08       		.uleb128 0x8
 1138 03f0 06       		.uleb128 0x6
 1139 03f1 C7050000 		.4byte	.LASF58
 1140 03f5 09       		.byte	0x9
 1141 03f6 3A       		.byte	0x3a
 1142 03f7 FA000000 		.4byte	0xfa
 1143 03fb 02       		.byte	0x2
 1144 03fc 23       		.byte	0x23
 1145 03fd 0C       		.uleb128 0xc
 1146 03fe 00       		.byte	0
 1147 03ff 09       		.uleb128 0x9
 1148 0400 04       		.byte	0x4
 1149 0401 AF030000 		.4byte	0x3af
 1150 0405 05       		.uleb128 0x5
 1151 0406 A2020000 		.4byte	.LASF59
 1152 040a 04       		.byte	0x4
 1153 040b 09       		.byte	0x9
 1154 040c 41       		.byte	0x41
 1155 040d 20040000 		.4byte	0x420
 1156 0411 06       		.uleb128 0x6
 1157 0412 0F080000 		.4byte	.LASF60
 1158 0416 09       		.byte	0x9
 1159 0417 42       		.byte	0x42
 1160 0418 FF030000 		.4byte	0x3ff
 1161 041c 02       		.byte	0x2
 1162 041d 23       		.byte	0x23
 1163 041e 00       		.uleb128 0
 1164 041f 00       		.byte	0
 1165 0420 03       		.uleb128 0x3
 1166 0421 A2020000 		.4byte	.LASF59
 1167 0425 09       		.byte	0x9
 1168 0426 45       		.byte	0x45
 1169 0427 05040000 		.4byte	0x405
 1170 042b 0E       		.uleb128 0xe
 1171 042c 04       		.byte	0x4
 1172 042d 06       		.byte	0x6
 1173 042e 96       		.byte	0x96
 1174 042f 60040000 		.4byte	0x460
 1175 0433 0F       		.uleb128 0xf
 1176 0434 36000000 		.4byte	.LASF61
 1177 0438 06       		.byte	0x6
 1178 0439 9D       		.byte	0x9d
 1179 043a E4000000 		.4byte	0xe4
 1180 043e 0F       		.uleb128 0xf
 1181 043f D1000000 		.4byte	.LASF62
 1182 0443 06       		.byte	0x6
 1183 0444 A4       		.byte	0xa4
 1184 0445 E4000000 		.4byte	0xe4
 1185 0449 0F       		.uleb128 0xf
 1186 044a 81080000 		.4byte	.LASF63
 1187 044e 06       		.byte	0x6
 1188 044f AB       		.byte	0xab
 1189 0450 A3020000 		.4byte	0x2a3
ARM GAS  /var/folders/dt/0wfd0knj7gs46m8vwfzktm600000gn/T//ccIBf9CX.s 			page 22


 1190 0454 0F       		.uleb128 0xf
 1191 0455 1F060000 		.4byte	.LASF64
 1192 0459 06       		.byte	0x6
 1193 045a B2       		.byte	0xb2
 1194 045b EF000000 		.4byte	0xef
 1195 045f 00       		.byte	0
 1196 0460 09       		.uleb128 0x9
 1197 0461 04       		.byte	0x4
 1198 0462 66040000 		.4byte	0x466
 1199 0466 10       		.uleb128 0x10
 1200 0467 6B040000 		.4byte	0x46b
 1201 046b 04       		.uleb128 0x4
 1202 046c 01       		.byte	0x1
 1203 046d 08       		.byte	0x8
 1204 046e ED060000 		.4byte	.LASF65
 1205 0472 09       		.uleb128 0x9
 1206 0473 04       		.byte	0x4
 1207 0474 A4030000 		.4byte	0x3a4
 1208 0478 09       		.uleb128 0x9
 1209 0479 04       		.byte	0x4
 1210 047a 7E040000 		.4byte	0x47e
 1211 047e 11       		.uleb128 0x11
 1212 047f 01       		.byte	0x1
 1213 0480 E4000000 		.4byte	0xe4
 1214 0484 8E040000 		.4byte	0x48e
 1215 0488 12       		.uleb128 0x12
 1216 0489 A3020000 		.4byte	0x2a3
 1217 048d 00       		.byte	0
 1218 048e 03       		.uleb128 0x3
 1219 048f 4D020000 		.4byte	.LASF66
 1220 0493 0A       		.byte	0xa
 1221 0494 37       		.byte	0x37
 1222 0495 99040000 		.4byte	0x499
 1223 0499 05       		.uleb128 0x5
 1224 049a 4D020000 		.4byte	.LASF66
 1225 049e 24       		.byte	0x24
 1226 049f 0A       		.byte	0xa
 1227 04a0 45       		.byte	0x45
 1228 04a1 16050000 		.4byte	0x516
 1229 04a5 06       		.uleb128 0x6
 1230 04a6 1B010000 		.4byte	.LASF67
 1231 04aa 0A       		.byte	0xa
 1232 04ab 46       		.byte	0x46
 1233 04ac 6B020000 		.4byte	0x26b
 1234 04b0 02       		.byte	0x2
 1235 04b1 23       		.byte	0x23
 1236 04b2 00       		.uleb128 0
 1237 04b3 06       		.uleb128 0x6
 1238 04b4 55040000 		.4byte	.LASF68
 1239 04b8 0A       		.byte	0xa
 1240 04b9 47       		.byte	0x47
 1241 04ba 30000000 		.4byte	0x30
 1242 04be 02       		.byte	0x2
 1243 04bf 23       		.byte	0x23
 1244 04c0 08       		.uleb128 0x8
 1245 04c1 06       		.uleb128 0x6
 1246 04c2 05020000 		.4byte	.LASF69
ARM GAS  /var/folders/dt/0wfd0knj7gs46m8vwfzktm600000gn/T//ccIBf9CX.s 			page 23


 1247 04c6 0A       		.byte	0xa
 1248 04c7 48       		.byte	0x48
 1249 04c8 39050000 		.4byte	0x539
 1250 04cc 02       		.byte	0x2
 1251 04cd 23       		.byte	0x23
 1252 04ce 0C       		.uleb128 0xc
 1253 04cf 06       		.uleb128 0x6
 1254 04d0 FE070000 		.4byte	.LASF70
 1255 04d4 0A       		.byte	0xa
 1256 04d5 49       		.byte	0x49
 1257 04d6 39050000 		.4byte	0x539
 1258 04da 02       		.byte	0x2
 1259 04db 23       		.byte	0x23
 1260 04dc 10       		.uleb128 0x10
 1261 04dd 06       		.uleb128 0x6
 1262 04de 1C020000 		.4byte	.LASF71
 1263 04e2 0A       		.byte	0xa
 1264 04e3 4B       		.byte	0x4b
 1265 04e4 39050000 		.4byte	0x539
 1266 04e8 02       		.byte	0x2
 1267 04e9 23       		.byte	0x23
 1268 04ea 14       		.uleb128 0x14
 1269 04eb 06       		.uleb128 0x6
 1270 04ec 7E050000 		.4byte	.LASF72
 1271 04f0 0A       		.byte	0xa
 1272 04f1 4C       		.byte	0x4c
 1273 04f2 39050000 		.4byte	0x539
 1274 04f6 02       		.byte	0x2
 1275 04f7 23       		.byte	0x23
 1276 04f8 18       		.uleb128 0x18
 1277 04f9 06       		.uleb128 0x6
 1278 04fa 28080000 		.4byte	.LASF73
 1279 04fe 0A       		.byte	0xa
 1280 04ff 4D       		.byte	0x4d
 1281 0500 16050000 		.4byte	0x516
 1282 0504 02       		.byte	0x2
 1283 0505 23       		.byte	0x23
 1284 0506 1C       		.uleb128 0x1c
 1285 0507 06       		.uleb128 0x6
 1286 0508 FE080000 		.4byte	.LASF74
 1287 050c 0A       		.byte	0xa
 1288 050d 4E       		.byte	0x4e
 1289 050e A3020000 		.4byte	0x2a3
 1290 0512 02       		.byte	0x2
 1291 0513 23       		.byte	0x23
 1292 0514 20       		.uleb128 0x20
 1293 0515 00       		.byte	0
 1294 0516 03       		.uleb128 0x3
 1295 0517 8B020000 		.4byte	.LASF75
 1296 051b 0A       		.byte	0xa
 1297 051c 3A       		.byte	0x3a
 1298 051d 21050000 		.4byte	0x521
 1299 0521 09       		.uleb128 0x9
 1300 0522 04       		.byte	0x4
 1301 0523 27050000 		.4byte	0x527
 1302 0527 13       		.uleb128 0x13
 1303 0528 01       		.byte	0x1
ARM GAS  /var/folders/dt/0wfd0knj7gs46m8vwfzktm600000gn/T//ccIBf9CX.s 			page 24


 1304 0529 33050000 		.4byte	0x533
 1305 052d 12       		.uleb128 0x12
 1306 052e 33050000 		.4byte	0x533
 1307 0532 00       		.byte	0
 1308 0533 09       		.uleb128 0x9
 1309 0534 04       		.byte	0x4
 1310 0535 8E040000 		.4byte	0x48e
 1311 0539 09       		.uleb128 0x9
 1312 053a 04       		.byte	0x4
 1313 053b 49000000 		.4byte	0x49
 1314 053f 03       		.uleb128 0x3
 1315 0540 CE030000 		.4byte	.LASF76
 1316 0544 0A       		.byte	0xa
 1317 0545 82       		.byte	0x82
 1318 0546 8E040000 		.4byte	0x48e
 1319 054a 03       		.uleb128 0x3
 1320 054b 3D000000 		.4byte	.LASF77
 1321 054f 0A       		.byte	0xa
 1322 0550 F5       		.byte	0xf5
 1323 0551 8E040000 		.4byte	0x48e
 1324 0555 11       		.uleb128 0x11
 1325 0556 01       		.byte	0x1
 1326 0557 30000000 		.4byte	0x30
 1327 055b 6F050000 		.4byte	0x56f
 1328 055f 12       		.uleb128 0x12
 1329 0560 A3020000 		.4byte	0x2a3
 1330 0564 12       		.uleb128 0x12
 1331 0565 6F050000 		.4byte	0x56f
 1332 0569 12       		.uleb128 0x12
 1333 056a 30000000 		.4byte	0x30
 1334 056e 00       		.byte	0
 1335 056f 09       		.uleb128 0x9
 1336 0570 04       		.byte	0x4
 1337 0571 75050000 		.4byte	0x575
 1338 0575 10       		.uleb128 0x10
 1339 0576 49000000 		.4byte	0x49
 1340 057a 09       		.uleb128 0x9
 1341 057b 04       		.byte	0x4
 1342 057c 55050000 		.4byte	0x555
 1343 0580 11       		.uleb128 0x11
 1344 0581 01       		.byte	0x1
 1345 0582 30000000 		.4byte	0x30
 1346 0586 9A050000 		.4byte	0x59a
 1347 058a 12       		.uleb128 0x12
 1348 058b A3020000 		.4byte	0x2a3
 1349 058f 12       		.uleb128 0x12
 1350 0590 39050000 		.4byte	0x539
 1351 0594 12       		.uleb128 0x12
 1352 0595 30000000 		.4byte	0x30
 1353 0599 00       		.byte	0
 1354 059a 09       		.uleb128 0x9
 1355 059b 04       		.byte	0x4
 1356 059c 80050000 		.4byte	0x580
 1357 05a0 11       		.uleb128 0x11
 1358 05a1 01       		.byte	0x1
 1359 05a2 E4000000 		.4byte	0xe4
 1360 05a6 B5050000 		.4byte	0x5b5
ARM GAS  /var/folders/dt/0wfd0knj7gs46m8vwfzktm600000gn/T//ccIBf9CX.s 			page 25


 1361 05aa 12       		.uleb128 0x12
 1362 05ab A3020000 		.4byte	0x2a3
 1363 05af 12       		.uleb128 0x12
 1364 05b0 49000000 		.4byte	0x49
 1365 05b4 00       		.byte	0
 1366 05b5 09       		.uleb128 0x9
 1367 05b6 04       		.byte	0x4
 1368 05b7 A0050000 		.4byte	0x5a0
 1369 05bb 14       		.uleb128 0x14
 1370 05bc 1B040000 		.4byte	.LASF202
 1371 05c0 01       		.byte	0x1
 1372 05c1 0B       		.byte	0xb
 1373 05c2 A9       		.byte	0xa9
 1374 05c3 6A070000 		.4byte	0x76a
 1375 05c7 15       		.uleb128 0x15
 1376 05c8 6B070000 		.4byte	.LASF78
 1377 05cc 72       		.sleb128 -14
 1378 05cd 15       		.uleb128 0x15
 1379 05ce EF020000 		.4byte	.LASF79
 1380 05d2 74       		.sleb128 -12
 1381 05d3 15       		.uleb128 0x15
 1382 05d4 15070000 		.4byte	.LASF80
 1383 05d8 75       		.sleb128 -11
 1384 05d9 15       		.uleb128 0x15
 1385 05da A7060000 		.4byte	.LASF81
 1386 05de 76       		.sleb128 -10
 1387 05df 15       		.uleb128 0x15
 1388 05e0 86050000 		.4byte	.LASF82
 1389 05e4 7B       		.sleb128 -5
 1390 05e5 15       		.uleb128 0x15
 1391 05e6 89040000 		.4byte	.LASF83
 1392 05ea 7C       		.sleb128 -4
 1393 05eb 15       		.uleb128 0x15
 1394 05ec 76020000 		.4byte	.LASF84
 1395 05f0 7E       		.sleb128 -2
 1396 05f1 15       		.uleb128 0x15
 1397 05f2 F2030000 		.4byte	.LASF85
 1398 05f6 7F       		.sleb128 -1
 1399 05f7 15       		.uleb128 0x15
 1400 05f8 FE000000 		.4byte	.LASF86
 1401 05fc 00       		.sleb128 0
 1402 05fd 15       		.uleb128 0x15
 1403 05fe 00000000 		.4byte	.LASF87
 1404 0602 01       		.sleb128 1
 1405 0603 15       		.uleb128 0x15
 1406 0604 A1070000 		.4byte	.LASF88
 1407 0608 02       		.sleb128 2
 1408 0609 15       		.uleb128 0x15
 1409 060a EB080000 		.4byte	.LASF89
 1410 060e 03       		.sleb128 3
 1411 060f 15       		.uleb128 0x15
 1412 0610 68060000 		.4byte	.LASF90
 1413 0614 04       		.sleb128 4
 1414 0615 15       		.uleb128 0x15
 1415 0616 63080000 		.4byte	.LASF91
 1416 061a 05       		.sleb128 5
 1417 061b 15       		.uleb128 0x15
ARM GAS  /var/folders/dt/0wfd0knj7gs46m8vwfzktm600000gn/T//ccIBf9CX.s 			page 26


 1418 061c 04080000 		.4byte	.LASF92
 1419 0620 06       		.sleb128 6
 1420 0621 15       		.uleb128 0x15
 1421 0622 3C090000 		.4byte	.LASF93
 1422 0626 07       		.sleb128 7
 1423 0627 15       		.uleb128 0x15
 1424 0628 36060000 		.4byte	.LASF94
 1425 062c 08       		.sleb128 8
 1426 062d 15       		.uleb128 0x15
 1427 062e 31080000 		.4byte	.LASF95
 1428 0632 09       		.sleb128 9
 1429 0633 15       		.uleb128 0x15
 1430 0634 D0050000 		.4byte	.LASF96
 1431 0638 0A       		.sleb128 10
 1432 0639 15       		.uleb128 0x15
 1433 063a 18050000 		.4byte	.LASF97
 1434 063e 0B       		.sleb128 11
 1435 063f 15       		.uleb128 0x15
 1436 0640 30040000 		.4byte	.LASF98
 1437 0644 0C       		.sleb128 12
 1438 0645 15       		.uleb128 0x15
 1439 0646 0C060000 		.4byte	.LASF99
 1440 064a 0D       		.sleb128 13
 1441 064b 15       		.uleb128 0x15
 1442 064c DF030000 		.4byte	.LASF100
 1443 0650 0E       		.sleb128 14
 1444 0651 15       		.uleb128 0x15
 1445 0652 2E030000 		.4byte	.LASF101
 1446 0656 0F       		.sleb128 15
 1447 0657 15       		.uleb128 0x15
 1448 0658 7F070000 		.4byte	.LASF102
 1449 065c 10       		.sleb128 16
 1450 065d 15       		.uleb128 0x15
 1451 065e 88080000 		.4byte	.LASF103
 1452 0662 11       		.sleb128 17
 1453 0663 15       		.uleb128 0x15
 1454 0664 39020000 		.4byte	.LASF104
 1455 0668 12       		.sleb128 18
 1456 0669 15       		.uleb128 0x15
 1457 066a 66030000 		.4byte	.LASF105
 1458 066e 13       		.sleb128 19
 1459 066f 15       		.uleb128 0x15
 1460 0670 AE020000 		.4byte	.LASF106
 1461 0674 14       		.sleb128 20
 1462 0675 15       		.uleb128 0x15
 1463 0676 8D000000 		.4byte	.LASF107
 1464 067a 15       		.sleb128 21
 1465 067b 15       		.uleb128 0x15
 1466 067c 4C070000 		.4byte	.LASF108
 1467 0680 16       		.sleb128 22
 1468 0681 15       		.uleb128 0x15
 1469 0682 29000000 		.4byte	.LASF109
 1470 0686 17       		.sleb128 23
 1471 0687 15       		.uleb128 0x15
 1472 0688 34070000 		.4byte	.LASF110
 1473 068c 18       		.sleb128 24
 1474 068d 15       		.uleb128 0x15
ARM GAS  /var/folders/dt/0wfd0knj7gs46m8vwfzktm600000gn/T//ccIBf9CX.s 			page 27


 1475 068e 6F000000 		.4byte	.LASF111
 1476 0692 19       		.sleb128 25
 1477 0693 15       		.uleb128 0x15
 1478 0694 54030000 		.4byte	.LASF112
 1479 0698 1A       		.sleb128 26
 1480 0699 15       		.uleb128 0x15
 1481 069a FF030000 		.4byte	.LASF113
 1482 069e 1B       		.sleb128 27
 1483 069f 15       		.uleb128 0x15
 1484 06a0 F4070000 		.4byte	.LASF114
 1485 06a4 1C       		.sleb128 28
 1486 06a5 15       		.uleb128 0x15
 1487 06a6 05090000 		.4byte	.LASF115
 1488 06aa 1D       		.sleb128 29
 1489 06ab 15       		.uleb128 0x15
 1490 06ac E7000000 		.4byte	.LASF116
 1491 06b0 1E       		.sleb128 30
 1492 06b1 15       		.uleb128 0x15
 1493 06b2 49000000 		.4byte	.LASF117
 1494 06b6 1F       		.sleb128 31
 1495 06b7 15       		.uleb128 0x15
 1496 06b8 DE080000 		.4byte	.LASF118
 1497 06bc 20       		.sleb128 32
 1498 06bd 15       		.uleb128 0x15
 1499 06be D1070000 		.4byte	.LASF119
 1500 06c2 21       		.sleb128 33
 1501 06c3 15       		.uleb128 0x15
 1502 06c4 DA000000 		.4byte	.LASF120
 1503 06c8 22       		.sleb128 34
 1504 06c9 15       		.uleb128 0x15
 1505 06ca 8F030000 		.4byte	.LASF121
 1506 06ce 23       		.sleb128 35
 1507 06cf 15       		.uleb128 0x15
 1508 06d0 9B040000 		.4byte	.LASF122
 1509 06d4 24       		.sleb128 36
 1510 06d5 15       		.uleb128 0x15
 1511 06d6 17080000 		.4byte	.LASF123
 1512 06da 25       		.sleb128 37
 1513 06db 15       		.uleb128 0x15
 1514 06dc 9B060000 		.4byte	.LASF124
 1515 06e0 26       		.sleb128 38
 1516 06e1 15       		.uleb128 0x15
 1517 06e2 DE070000 		.4byte	.LASF125
 1518 06e6 27       		.sleb128 39
 1519 06e7 15       		.uleb128 0x15
 1520 06e8 80030000 		.4byte	.LASF126
 1521 06ec 28       		.sleb128 40
 1522 06ed 15       		.uleb128 0x15
 1523 06ee 56000000 		.4byte	.LASF127
 1524 06f2 29       		.sleb128 41
 1525 06f3 15       		.uleb128 0x15
 1526 06f4 65020000 		.4byte	.LASF128
 1527 06f8 2A       		.sleb128 42
 1528 06f9 15       		.uleb128 0x15
 1529 06fa 7F040000 		.4byte	.LASF129
 1530 06fe 32       		.sleb128 50
 1531 06ff 15       		.uleb128 0x15
ARM GAS  /var/folders/dt/0wfd0knj7gs46m8vwfzktm600000gn/T//ccIBf9CX.s 			page 28


 1532 0700 F4080000 		.4byte	.LASF130
 1533 0704 33       		.sleb128 51
 1534 0705 15       		.uleb128 0x15
 1535 0706 5A020000 		.4byte	.LASF131
 1536 070a 34       		.sleb128 52
 1537 070b 15       		.uleb128 0x15
 1538 070c 01060000 		.4byte	.LASF132
 1539 0710 35       		.sleb128 53
 1540 0711 15       		.uleb128 0x15
 1541 0712 23070000 		.4byte	.LASF133
 1542 0716 36       		.sleb128 54
 1543 0717 15       		.uleb128 0x15
 1544 0718 42070000 		.4byte	.LASF134
 1545 071c 37       		.sleb128 55
 1546 071d 15       		.uleb128 0x15
 1547 071e B2000000 		.4byte	.LASF135
 1548 0722 38       		.sleb128 56
 1549 0723 15       		.uleb128 0x15
 1550 0724 65040000 		.4byte	.LASF136
 1551 0728 39       		.sleb128 57
 1552 0729 15       		.uleb128 0x15
 1553 072a CB040000 		.4byte	.LASF137
 1554 072e 3A       		.sleb128 58
 1555 072f 15       		.uleb128 0x15
 1556 0730 F2060000 		.4byte	.LASF138
 1557 0734 3B       		.sleb128 59
 1558 0735 15       		.uleb128 0x15
 1559 0736 74010000 		.4byte	.LASF139
 1560 073a 3C       		.sleb128 60
 1561 073b 15       		.uleb128 0x15
 1562 073c 4C040000 		.4byte	.LASF140
 1563 0740 3D       		.sleb128 61
 1564 0741 15       		.uleb128 0x15
 1565 0742 0E020000 		.4byte	.LASF141
 1566 0746 3E       		.sleb128 62
 1567 0747 15       		.uleb128 0x15
 1568 0748 A5040000 		.4byte	.LASF142
 1569 074c 3F       		.sleb128 63
 1570 074d 15       		.uleb128 0x15
 1571 074e 09000000 		.4byte	.LASF143
 1572 0752 C000     		.sleb128 64
 1573 0754 15       		.uleb128 0x15
 1574 0755 3F010000 		.4byte	.LASF144
 1575 0759 C100     		.sleb128 65
 1576 075b 15       		.uleb128 0x15
 1577 075c 17090000 		.4byte	.LASF145
 1578 0760 C200     		.sleb128 66
 1579 0762 15       		.uleb128 0x15
 1580 0763 BF040000 		.4byte	.LASF146
 1581 0767 C300     		.sleb128 67
 1582 0769 00       		.byte	0
 1583 076a 0D       		.uleb128 0xd
 1584 076b 62000000 		.4byte	0x62
 1585 076f 0D       		.uleb128 0xd
 1586 0770 74000000 		.4byte	0x74
 1587 0774 16       		.uleb128 0x16
 1588 0775 30       		.byte	0x30
ARM GAS  /var/folders/dt/0wfd0knj7gs46m8vwfzktm600000gn/T//ccIBf9CX.s 			page 29


 1589 0776 0B       		.byte	0xb
 1590 0777 4304     		.2byte	0x443
 1591 0779 31080000 		.4byte	0x831
 1592 077d 0C       		.uleb128 0xc
 1593 077e 435200   		.ascii	"CR\000"
 1594 0781 0B       		.byte	0xb
 1595 0782 4504     		.2byte	0x445
 1596 0784 56030000 		.4byte	0x356
 1597 0788 02       		.byte	0x2
 1598 0789 23       		.byte	0x23
 1599 078a 00       		.uleb128 0
 1600 078b 17       		.uleb128 0x17
 1601 078c A7080000 		.4byte	.LASF147
 1602 0790 0B       		.byte	0xb
 1603 0791 4604     		.2byte	0x446
 1604 0793 56030000 		.4byte	0x356
 1605 0797 02       		.byte	0x2
 1606 0798 23       		.byte	0x23
 1607 0799 04       		.uleb128 0x4
 1608 079a 0C       		.uleb128 0xc
 1609 079b 43495200 		.ascii	"CIR\000"
 1610 079f 0B       		.byte	0xb
 1611 07a0 4704     		.2byte	0x447
 1612 07a2 56030000 		.4byte	0x356
 1613 07a6 02       		.byte	0x2
 1614 07a7 23       		.byte	0x23
 1615 07a8 08       		.uleb128 0x8
 1616 07a9 17       		.uleb128 0x17
 1617 07aa E3010000 		.4byte	.LASF148
 1618 07ae 0B       		.byte	0xb
 1619 07af 4804     		.2byte	0x448
 1620 07b1 56030000 		.4byte	0x356
 1621 07b5 02       		.byte	0x2
 1622 07b6 23       		.byte	0x23
 1623 07b7 0C       		.uleb128 0xc
 1624 07b8 17       		.uleb128 0x17
 1625 07b9 F2040000 		.4byte	.LASF149
 1626 07bd 0B       		.byte	0xb
 1627 07be 4904     		.2byte	0x449
 1628 07c0 56030000 		.4byte	0x356
 1629 07c4 02       		.byte	0x2
 1630 07c5 23       		.byte	0x23
 1631 07c6 10       		.uleb128 0x10
 1632 07c7 17       		.uleb128 0x17
 1633 07c8 35090000 		.4byte	.LASF150
 1634 07cc 0B       		.byte	0xb
 1635 07cd 4A04     		.2byte	0x44a
 1636 07cf 56030000 		.4byte	0x356
 1637 07d3 02       		.byte	0x2
 1638 07d4 23       		.byte	0x23
 1639 07d5 14       		.uleb128 0x14
 1640 07d6 17       		.uleb128 0x17
 1641 07d7 49060000 		.4byte	.LASF151
 1642 07db 0B       		.byte	0xb
 1643 07dc 4B04     		.2byte	0x44b
 1644 07de 56030000 		.4byte	0x356
 1645 07e2 02       		.byte	0x2
ARM GAS  /var/folders/dt/0wfd0knj7gs46m8vwfzktm600000gn/T//ccIBf9CX.s 			page 30


 1646 07e3 23       		.byte	0x23
 1647 07e4 18       		.uleb128 0x18
 1648 07e5 17       		.uleb128 0x17
 1649 07e6 99070000 		.4byte	.LASF152
 1650 07ea 0B       		.byte	0xb
 1651 07eb 4C04     		.2byte	0x44c
 1652 07ed 56030000 		.4byte	0x356
 1653 07f1 02       		.byte	0x2
 1654 07f2 23       		.byte	0x23
 1655 07f3 1C       		.uleb128 0x1c
 1656 07f4 17       		.uleb128 0x17
 1657 07f5 23080000 		.4byte	.LASF153
 1658 07f9 0B       		.byte	0xb
 1659 07fa 4D04     		.2byte	0x44d
 1660 07fc 56030000 		.4byte	0x356
 1661 0800 02       		.byte	0x2
 1662 0801 23       		.byte	0x23
 1663 0802 20       		.uleb128 0x20
 1664 0803 0C       		.uleb128 0xc
 1665 0804 43535200 		.ascii	"CSR\000"
 1666 0808 0B       		.byte	0xb
 1667 0809 4E04     		.2byte	0x44e
 1668 080b 56030000 		.4byte	0x356
 1669 080f 02       		.byte	0x2
 1670 0810 23       		.byte	0x23
 1671 0811 24       		.uleb128 0x24
 1672 0812 17       		.uleb128 0x17
 1673 0813 DE040000 		.4byte	.LASF154
 1674 0817 0B       		.byte	0xb
 1675 0818 5104     		.2byte	0x451
 1676 081a 56030000 		.4byte	0x356
 1677 081e 02       		.byte	0x2
 1678 081f 23       		.byte	0x23
 1679 0820 28       		.uleb128 0x28
 1680 0821 17       		.uleb128 0x17
 1681 0822 55080000 		.4byte	.LASF155
 1682 0826 0B       		.byte	0xb
 1683 0827 5204     		.2byte	0x452
 1684 0829 56030000 		.4byte	0x356
 1685 082d 02       		.byte	0x2
 1686 082e 23       		.byte	0x23
 1687 082f 2C       		.uleb128 0x2c
 1688 0830 00       		.byte	0
 1689 0831 18       		.uleb128 0x18
 1690 0832 B5070000 		.4byte	.LASF156
 1691 0836 0B       		.byte	0xb
 1692 0837 5904     		.2byte	0x459
 1693 0839 74070000 		.4byte	0x774
 1694 083d 16       		.uleb128 0x16
 1695 083e 1C       		.byte	0x1c
 1696 083f 0B       		.byte	0xb
 1697 0840 E104     		.2byte	0x4e1
 1698 0842 17090000 		.4byte	0x917
 1699 0846 0C       		.uleb128 0xc
 1700 0847 535200   		.ascii	"SR\000"
 1701 084a 0B       		.byte	0xb
 1702 084b E304     		.2byte	0x4e3
ARM GAS  /var/folders/dt/0wfd0knj7gs46m8vwfzktm600000gn/T//ccIBf9CX.s 			page 31


 1703 084d 6A070000 		.4byte	0x76a
 1704 0851 02       		.byte	0x2
 1705 0852 23       		.byte	0x23
 1706 0853 00       		.uleb128 0
 1707 0854 17       		.uleb128 0x17
 1708 0855 33050000 		.4byte	.LASF157
 1709 0859 0B       		.byte	0xb
 1710 085a E404     		.2byte	0x4e4
 1711 085c 62000000 		.4byte	0x62
 1712 0860 02       		.byte	0x2
 1713 0861 23       		.byte	0x23
 1714 0862 02       		.uleb128 0x2
 1715 0863 0C       		.uleb128 0xc
 1716 0864 445200   		.ascii	"DR\000"
 1717 0867 0B       		.byte	0xb
 1718 0868 E504     		.2byte	0x4e5
 1719 086a 6A070000 		.4byte	0x76a
 1720 086e 02       		.byte	0x2
 1721 086f 23       		.byte	0x23
 1722 0870 04       		.uleb128 0x4
 1723 0871 17       		.uleb128 0x17
 1724 0872 3D050000 		.4byte	.LASF158
 1725 0876 0B       		.byte	0xb
 1726 0877 E604     		.2byte	0x4e6
 1727 0879 62000000 		.4byte	0x62
 1728 087d 02       		.byte	0x2
 1729 087e 23       		.byte	0x23
 1730 087f 06       		.uleb128 0x6
 1731 0880 0C       		.uleb128 0xc
 1732 0881 42525200 		.ascii	"BRR\000"
 1733 0885 0B       		.byte	0xb
 1734 0886 E704     		.2byte	0x4e7
 1735 0888 6A070000 		.4byte	0x76a
 1736 088c 02       		.byte	0x2
 1737 088d 23       		.byte	0x23
 1738 088e 08       		.uleb128 0x8
 1739 088f 17       		.uleb128 0x17
 1740 0890 47050000 		.4byte	.LASF159
 1741 0894 0B       		.byte	0xb
 1742 0895 E804     		.2byte	0x4e8
 1743 0897 62000000 		.4byte	0x62
 1744 089b 02       		.byte	0x2
 1745 089c 23       		.byte	0x23
 1746 089d 0A       		.uleb128 0xa
 1747 089e 0C       		.uleb128 0xc
 1748 089f 43523100 		.ascii	"CR1\000"
 1749 08a3 0B       		.byte	0xb
 1750 08a4 E904     		.2byte	0x4e9
 1751 08a6 6A070000 		.4byte	0x76a
 1752 08aa 02       		.byte	0x2
 1753 08ab 23       		.byte	0x23
 1754 08ac 0C       		.uleb128 0xc
 1755 08ad 17       		.uleb128 0x17
 1756 08ae 51050000 		.4byte	.LASF160
 1757 08b2 0B       		.byte	0xb
 1758 08b3 EA04     		.2byte	0x4ea
 1759 08b5 62000000 		.4byte	0x62
ARM GAS  /var/folders/dt/0wfd0knj7gs46m8vwfzktm600000gn/T//ccIBf9CX.s 			page 32


 1760 08b9 02       		.byte	0x2
 1761 08ba 23       		.byte	0x23
 1762 08bb 0E       		.uleb128 0xe
 1763 08bc 0C       		.uleb128 0xc
 1764 08bd 43523200 		.ascii	"CR2\000"
 1765 08c1 0B       		.byte	0xb
 1766 08c2 EB04     		.2byte	0x4eb
 1767 08c4 6A070000 		.4byte	0x76a
 1768 08c8 02       		.byte	0x2
 1769 08c9 23       		.byte	0x23
 1770 08ca 10       		.uleb128 0x10
 1771 08cb 17       		.uleb128 0x17
 1772 08cc 5B050000 		.4byte	.LASF161
 1773 08d0 0B       		.byte	0xb
 1774 08d1 EC04     		.2byte	0x4ec
 1775 08d3 62000000 		.4byte	0x62
 1776 08d7 02       		.byte	0x2
 1777 08d8 23       		.byte	0x23
 1778 08d9 12       		.uleb128 0x12
 1779 08da 0C       		.uleb128 0xc
 1780 08db 43523300 		.ascii	"CR3\000"
 1781 08df 0B       		.byte	0xb
 1782 08e0 ED04     		.2byte	0x4ed
 1783 08e2 6A070000 		.4byte	0x76a
 1784 08e6 02       		.byte	0x2
 1785 08e7 23       		.byte	0x23
 1786 08e8 14       		.uleb128 0x14
 1787 08e9 17       		.uleb128 0x17
 1788 08ea 88060000 		.4byte	.LASF162
 1789 08ee 0B       		.byte	0xb
 1790 08ef EE04     		.2byte	0x4ee
 1791 08f1 62000000 		.4byte	0x62
 1792 08f5 02       		.byte	0x2
 1793 08f6 23       		.byte	0x23
 1794 08f7 16       		.uleb128 0x16
 1795 08f8 17       		.uleb128 0x17
 1796 08f9 4D010000 		.4byte	.LASF163
 1797 08fd 0B       		.byte	0xb
 1798 08fe EF04     		.2byte	0x4ef
 1799 0900 6A070000 		.4byte	0x76a
 1800 0904 02       		.byte	0x2
 1801 0905 23       		.byte	0x23
 1802 0906 18       		.uleb128 0x18
 1803 0907 17       		.uleb128 0x17
 1804 0908 6C050000 		.4byte	.LASF164
 1805 090c 0B       		.byte	0xb
 1806 090d F004     		.2byte	0x4f0
 1807 090f 62000000 		.4byte	0x62
 1808 0913 02       		.byte	0x2
 1809 0914 23       		.byte	0x23
 1810 0915 1A       		.uleb128 0x1a
 1811 0916 00       		.byte	0
 1812 0917 18       		.uleb128 0x18
 1813 0918 99030000 		.4byte	.LASF165
 1814 091c 0B       		.byte	0xb
 1815 091d F104     		.2byte	0x4f1
 1816 091f 3D080000 		.4byte	0x83d
ARM GAS  /var/folders/dt/0wfd0knj7gs46m8vwfzktm600000gn/T//ccIBf9CX.s 			page 33


 1817 0923 11       		.uleb128 0x11
 1818 0924 01       		.byte	0x1
 1819 0925 E4000000 		.4byte	0xe4
 1820 0929 3D090000 		.4byte	0x93d
 1821 092d 12       		.uleb128 0x12
 1822 092e A3020000 		.4byte	0x2a3
 1823 0932 12       		.uleb128 0x12
 1824 0933 49000000 		.4byte	0x49
 1825 0937 12       		.uleb128 0x12
 1826 0938 05010000 		.4byte	0x105
 1827 093c 00       		.byte	0
 1828 093d 09       		.uleb128 0x9
 1829 093e 04       		.byte	0x4
 1830 093f 23090000 		.4byte	0x923
 1831 0943 11       		.uleb128 0x11
 1832 0944 01       		.byte	0x1
 1833 0945 E4000000 		.4byte	0xe4
 1834 0949 58090000 		.4byte	0x958
 1835 094d 12       		.uleb128 0x12
 1836 094e A3020000 		.4byte	0x2a3
 1837 0952 12       		.uleb128 0x12
 1838 0953 05010000 		.4byte	0x105
 1839 0957 00       		.byte	0
 1840 0958 09       		.uleb128 0x9
 1841 0959 04       		.byte	0x4
 1842 095a 43090000 		.4byte	0x943
 1843 095e 11       		.uleb128 0x11
 1844 095f 01       		.byte	0x1
 1845 0960 30000000 		.4byte	0x30
 1846 0964 7D090000 		.4byte	0x97d
 1847 0968 12       		.uleb128 0x12
 1848 0969 A3020000 		.4byte	0x2a3
 1849 096d 12       		.uleb128 0x12
 1850 096e 6F050000 		.4byte	0x56f
 1851 0972 12       		.uleb128 0x12
 1852 0973 30000000 		.4byte	0x30
 1853 0977 12       		.uleb128 0x12
 1854 0978 05010000 		.4byte	0x105
 1855 097c 00       		.byte	0
 1856 097d 09       		.uleb128 0x9
 1857 097e 04       		.byte	0x4
 1858 097f 5E090000 		.4byte	0x95e
 1859 0983 11       		.uleb128 0x11
 1860 0984 01       		.byte	0x1
 1861 0985 30000000 		.4byte	0x30
 1862 0989 A2090000 		.4byte	0x9a2
 1863 098d 12       		.uleb128 0x12
 1864 098e A3020000 		.4byte	0x2a3
 1865 0992 12       		.uleb128 0x12
 1866 0993 39050000 		.4byte	0x539
 1867 0997 12       		.uleb128 0x12
 1868 0998 30000000 		.4byte	0x30
 1869 099c 12       		.uleb128 0x12
 1870 099d 05010000 		.4byte	0x105
 1871 09a1 00       		.byte	0
 1872 09a2 09       		.uleb128 0x9
 1873 09a3 04       		.byte	0x4
ARM GAS  /var/folders/dt/0wfd0knj7gs46m8vwfzktm600000gn/T//ccIBf9CX.s 			page 34


 1874 09a4 83090000 		.4byte	0x983
 1875 09a8 19       		.uleb128 0x19
 1876 09a9 01       		.byte	0x1
 1877 09aa 0C       		.byte	0xc
 1878 09ab 64       		.byte	0x64
 1879 09ac C3090000 		.4byte	0x9c3
 1880 09b0 15       		.uleb128 0x15
 1881 09b1 7E060000 		.4byte	.LASF166
 1882 09b5 00       		.sleb128 0
 1883 09b6 15       		.uleb128 0x15
 1884 09b7 41060000 		.4byte	.LASF167
 1885 09bb 01       		.sleb128 1
 1886 09bc 15       		.uleb128 0x15
 1887 09bd C8070000 		.4byte	.LASF168
 1888 09c1 02       		.sleb128 2
 1889 09c2 00       		.byte	0
 1890 09c3 03       		.uleb128 0x3
 1891 09c4 EA070000 		.4byte	.LASF169
 1892 09c8 0C       		.byte	0xc
 1893 09c9 68       		.byte	0x68
 1894 09ca A8090000 		.4byte	0x9a8
 1895 09ce 03       		.uleb128 0x3
 1896 09cf B7060000 		.4byte	.LASF170
 1897 09d3 0C       		.byte	0xc
 1898 09d4 6D       		.byte	0x6d
 1899 09d5 D9090000 		.4byte	0x9d9
 1900 09d9 05       		.uleb128 0x5
 1901 09da B7060000 		.4byte	.LASF170
 1902 09de 78       		.byte	0x78
 1903 09df 0C       		.byte	0xc
 1904 09e0 87       		.byte	0x87
 1905 09e1 540A0000 		.4byte	0xa54
 1906 09e5 07       		.uleb128 0x7
 1907 09e6 766D7400 		.ascii	"vmt\000"
 1908 09ea 0C       		.byte	0xc
 1909 09eb 89       		.byte	0x89
 1910 09ec 1D0B0000 		.4byte	0xb1d
 1911 09f0 02       		.byte	0x2
 1912 09f1 23       		.byte	0x23
 1913 09f2 00       		.uleb128 0
 1914 09f3 06       		.uleb128 0x6
 1915 09f4 28030000 		.4byte	.LASF171
 1916 09f8 0C       		.byte	0xc
 1917 09f9 8A       		.byte	0x8a
 1918 09fa 20040000 		.4byte	0x420
 1919 09fe 02       		.byte	0x2
 1920 09ff 23       		.byte	0x23
 1921 0a00 04       		.uleb128 0x4
 1922 0a01 06       		.uleb128 0x6
 1923 0a02 96010000 		.4byte	.LASF172
 1924 0a06 0C       		.byte	0xc
 1925 0a07 8A       		.byte	0x8a
 1926 0a08 C3090000 		.4byte	0x9c3
 1927 0a0c 02       		.byte	0x2
 1928 0a0d 23       		.byte	0x23
 1929 0a0e 08       		.uleb128 0x8
 1930 0a0f 06       		.uleb128 0x6
ARM GAS  /var/folders/dt/0wfd0knj7gs46m8vwfzktm600000gn/T//ccIBf9CX.s 			page 35


 1931 0a10 05030000 		.4byte	.LASF173
 1932 0a14 0C       		.byte	0xc
 1933 0a15 8A       		.byte	0x8a
 1934 0a16 3F050000 		.4byte	0x53f
 1935 0a1a 02       		.byte	0x2
 1936 0a1b 23       		.byte	0x23
 1937 0a1c 0C       		.uleb128 0xc
 1938 0a1d 06       		.uleb128 0x6
 1939 0a1e 79030000 		.4byte	.LASF174
 1940 0a22 0C       		.byte	0xc
 1941 0a23 8A       		.byte	0x8a
 1942 0a24 4A050000 		.4byte	0x54a
 1943 0a28 02       		.byte	0x2
 1944 0a29 23       		.byte	0x23
 1945 0a2a 30       		.uleb128 0x30
 1946 0a2b 07       		.uleb128 0x7
 1947 0a2c 696200   		.ascii	"ib\000"
 1948 0a2f 0C       		.byte	0xc
 1949 0a30 8A       		.byte	0x8a
 1950 0a31 280B0000 		.4byte	0xb28
 1951 0a35 02       		.byte	0x2
 1952 0a36 23       		.byte	0x23
 1953 0a37 54       		.uleb128 0x54
 1954 0a38 07       		.uleb128 0x7
 1955 0a39 6F6200   		.ascii	"ob\000"
 1956 0a3c 0C       		.byte	0xc
 1957 0a3d 8A       		.byte	0x8a
 1958 0a3e 280B0000 		.4byte	0xb28
 1959 0a42 02       		.byte	0x2
 1960 0a43 23       		.byte	0x23
 1961 0a44 64       		.uleb128 0x64
 1962 0a45 06       		.uleb128 0x6
 1963 0a46 BC020000 		.4byte	.LASF175
 1964 0a4a 0C       		.byte	0xc
 1965 0a4b 8A       		.byte	0x8a
 1966 0a4c 380B0000 		.4byte	0xb38
 1967 0a50 02       		.byte	0x2
 1968 0a51 23       		.byte	0x23
 1969 0a52 74       		.uleb128 0x74
 1970 0a53 00       		.byte	0
 1971 0a54 08       		.uleb128 0x8
 1972 0a55 0C       		.byte	0xc
 1973 0a56 0D       		.byte	0xd
 1974 0a57 D7       		.byte	0xd7
 1975 0a58 950A0000 		.4byte	0xa95
 1976 0a5c 06       		.uleb128 0x6
 1977 0a5d D9030000 		.4byte	.LASF176
 1978 0a61 0D       		.byte	0xd
 1979 0a62 DB       		.byte	0xdb
 1980 0a63 86000000 		.4byte	0x86
 1981 0a67 02       		.byte	0x2
 1982 0a68 23       		.byte	0x23
 1983 0a69 00       		.uleb128 0
 1984 0a6a 07       		.uleb128 0x7
 1985 0a6b 63723100 		.ascii	"cr1\000"
 1986 0a6f 0D       		.byte	0xd
 1987 0a70 E0       		.byte	0xe0
ARM GAS  /var/folders/dt/0wfd0knj7gs46m8vwfzktm600000gn/T//ccIBf9CX.s 			page 36


 1988 0a71 62000000 		.4byte	0x62
 1989 0a75 02       		.byte	0x2
 1990 0a76 23       		.byte	0x23
 1991 0a77 04       		.uleb128 0x4
 1992 0a78 07       		.uleb128 0x7
 1993 0a79 63723200 		.ascii	"cr2\000"
 1994 0a7d 0D       		.byte	0xd
 1995 0a7e E4       		.byte	0xe4
 1996 0a7f 62000000 		.4byte	0x62
 1997 0a83 02       		.byte	0x2
 1998 0a84 23       		.byte	0x23
 1999 0a85 06       		.uleb128 0x6
 2000 0a86 07       		.uleb128 0x7
 2001 0a87 63723300 		.ascii	"cr3\000"
 2002 0a8b 0D       		.byte	0xd
 2003 0a8c E8       		.byte	0xe8
 2004 0a8d 62000000 		.4byte	0x62
 2005 0a91 02       		.byte	0x2
 2006 0a92 23       		.byte	0x23
 2007 0a93 08       		.uleb128 0x8
 2008 0a94 00       		.byte	0
 2009 0a95 03       		.uleb128 0x3
 2010 0a96 03050000 		.4byte	.LASF177
 2011 0a9a 0D       		.byte	0xd
 2012 0a9b E9       		.byte	0xe9
 2013 0a9c 540A0000 		.4byte	0xa54
 2014 0aa0 05       		.uleb128 0x5
 2015 0aa1 D8020000 		.4byte	.LASF178
 2016 0aa5 20       		.byte	0x20
 2017 0aa6 0C       		.byte	0xc
 2018 0aa7 7C       		.byte	0x7c
 2019 0aa8 1D0B0000 		.4byte	0xb1d
 2020 0aac 06       		.uleb128 0x6
 2021 0aad 15040000 		.4byte	.LASF179
 2022 0ab1 0C       		.byte	0xc
 2023 0ab2 7D       		.byte	0x7d
 2024 0ab3 7A050000 		.4byte	0x57a
 2025 0ab7 02       		.byte	0x2
 2026 0ab8 23       		.byte	0x23
 2027 0ab9 00       		.uleb128 0
 2028 0aba 06       		.uleb128 0x6
 2029 0abb E8060000 		.4byte	.LASF180
 2030 0abf 0C       		.byte	0xc
 2031 0ac0 7D       		.byte	0x7d
 2032 0ac1 9A050000 		.4byte	0x59a
 2033 0ac5 02       		.byte	0x2
 2034 0ac6 23       		.byte	0x23
 2035 0ac7 04       		.uleb128 0x4
 2036 0ac8 07       		.uleb128 0x7
 2037 0ac9 70757400 		.ascii	"put\000"
 2038 0acd 0C       		.byte	0xc
 2039 0ace 7D       		.byte	0x7d
 2040 0acf B5050000 		.4byte	0x5b5
 2041 0ad3 02       		.byte	0x2
 2042 0ad4 23       		.byte	0x23
 2043 0ad5 08       		.uleb128 0x8
 2044 0ad6 07       		.uleb128 0x7
ARM GAS  /var/folders/dt/0wfd0knj7gs46m8vwfzktm600000gn/T//ccIBf9CX.s 			page 37


 2045 0ad7 67657400 		.ascii	"get\000"
 2046 0adb 0C       		.byte	0xc
 2047 0adc 7D       		.byte	0x7d
 2048 0add 78040000 		.4byte	0x478
 2049 0ae1 02       		.byte	0x2
 2050 0ae2 23       		.byte	0x23
 2051 0ae3 0C       		.uleb128 0xc
 2052 0ae4 06       		.uleb128 0x6
 2053 0ae5 20040000 		.4byte	.LASF181
 2054 0ae9 0C       		.byte	0xc
 2055 0aea 7D       		.byte	0x7d
 2056 0aeb 3D090000 		.4byte	0x93d
 2057 0aef 02       		.byte	0x2
 2058 0af0 23       		.byte	0x23
 2059 0af1 10       		.uleb128 0x10
 2060 0af2 06       		.uleb128 0x6
 2061 0af3 23030000 		.4byte	.LASF182
 2062 0af7 0C       		.byte	0xc
 2063 0af8 7D       		.byte	0x7d
 2064 0af9 58090000 		.4byte	0x958
 2065 0afd 02       		.byte	0x2
 2066 0afe 23       		.byte	0x23
 2067 0aff 14       		.uleb128 0x14
 2068 0b00 06       		.uleb128 0x6
 2069 0b01 A7030000 		.4byte	.LASF183
 2070 0b05 0C       		.byte	0xc
 2071 0b06 7D       		.byte	0x7d
 2072 0b07 7D090000 		.4byte	0x97d
 2073 0b0b 02       		.byte	0x2
 2074 0b0c 23       		.byte	0x23
 2075 0b0d 18       		.uleb128 0x18
 2076 0b0e 06       		.uleb128 0x6
 2077 0b0f 15010000 		.4byte	.LASF184
 2078 0b13 0C       		.byte	0xc
 2079 0b14 7D       		.byte	0x7d
 2080 0b15 A2090000 		.4byte	0x9a2
 2081 0b19 02       		.byte	0x2
 2082 0b1a 23       		.byte	0x23
 2083 0b1b 1C       		.uleb128 0x1c
 2084 0b1c 00       		.byte	0
 2085 0b1d 09       		.uleb128 0x9
 2086 0b1e 04       		.byte	0x4
 2087 0b1f 230B0000 		.4byte	0xb23
 2088 0b23 10       		.uleb128 0x10
 2089 0b24 A00A0000 		.4byte	0xaa0
 2090 0b28 1A       		.uleb128 0x1a
 2091 0b29 49000000 		.4byte	0x49
 2092 0b2d 380B0000 		.4byte	0xb38
 2093 0b31 1B       		.uleb128 0x1b
 2094 0b32 5B030000 		.4byte	0x35b
 2095 0b36 0F       		.byte	0xf
 2096 0b37 00       		.byte	0
 2097 0b38 09       		.uleb128 0x9
 2098 0b39 04       		.byte	0x4
 2099 0b3a 17090000 		.4byte	0x917
 2100 0b3e 1C       		.uleb128 0x1c
 2101 0b3f 95020000 		.4byte	.LASF185
ARM GAS  /var/folders/dt/0wfd0knj7gs46m8vwfzktm600000gn/T//ccIBf9CX.s 			page 38


 2102 0b43 01       		.byte	0x1
 2103 0b44 7A       		.byte	0x7a
 2104 0b45 01       		.byte	0x1
 2105 0b46 01       		.byte	0x1
 2106 0b47 550B0000 		.4byte	0xb55
 2107 0b4b 1D       		.uleb128 0x1d
 2108 0b4c 7500     		.ascii	"u\000"
 2109 0b4e 01       		.byte	0x1
 2110 0b4f 7A       		.byte	0x7a
 2111 0b50 380B0000 		.4byte	0xb38
 2112 0b54 00       		.byte	0
 2113 0b55 1C       		.uleb128 0x1c
 2114 0b56 65000000 		.4byte	.LASF186
 2115 0b5a 01       		.byte	0x1
 2116 0b5b 87       		.byte	0x87
 2117 0b5c 01       		.byte	0x1
 2118 0b5d 01       		.byte	0x1
 2119 0b5e A10B0000 		.4byte	0xba1
 2120 0b62 1D       		.uleb128 0x1d
 2121 0b63 73647000 		.ascii	"sdp\000"
 2122 0b67 01       		.byte	0x1
 2123 0b68 87       		.byte	0x87
 2124 0b69 A10B0000 		.4byte	0xba1
 2125 0b6d 1D       		.uleb128 0x1d
 2126 0b6e 737200   		.ascii	"sr\000"
 2127 0b71 01       		.byte	0x1
 2128 0b72 87       		.byte	0x87
 2129 0b73 62000000 		.4byte	0x62
 2130 0b77 1E       		.uleb128 0x1e
 2131 0b78 73747300 		.ascii	"sts\000"
 2132 0b7c 01       		.byte	0x1
 2133 0b7d 88       		.byte	0x88
 2134 0b7e FA000000 		.4byte	0xfa
 2135 0b82 1F       		.uleb128 0x1f
 2136 0b83 930B0000 		.4byte	0xb93
 2137 0b87 1E       		.uleb128 0x1e
 2138 0b88 746D7000 		.ascii	"tmp\000"
 2139 0b8c 01       		.byte	0x1
 2140 0b8d 92       		.byte	0x92
 2141 0b8e 86000000 		.4byte	0x86
 2142 0b92 00       		.byte	0
 2143 0b93 20       		.uleb128 0x20
 2144 0b94 1E       		.uleb128 0x1e
 2145 0b95 746D7000 		.ascii	"tmp\000"
 2146 0b99 01       		.byte	0x1
 2147 0b9a 94       		.byte	0x94
 2148 0b9b 86000000 		.4byte	0x86
 2149 0b9f 00       		.byte	0
 2150 0ba0 00       		.byte	0
 2151 0ba1 09       		.uleb128 0x9
 2152 0ba2 04       		.byte	0x4
 2153 0ba3 CE090000 		.4byte	0x9ce
 2154 0ba7 1C       		.uleb128 0x1c
 2155 0ba8 58060000 		.4byte	.LASF187
 2156 0bac 01       		.byte	0x1
 2157 0bad 9C       		.byte	0x9c
 2158 0bae 01       		.byte	0x1
ARM GAS  /var/folders/dt/0wfd0knj7gs46m8vwfzktm600000gn/T//ccIBf9CX.s 			page 39


 2159 0baf 01       		.byte	0x1
 2160 0bb0 770C0000 		.4byte	0xc77
 2161 0bb4 1D       		.uleb128 0x1d
 2162 0bb5 73647000 		.ascii	"sdp\000"
 2163 0bb9 01       		.byte	0x1
 2164 0bba 9C       		.byte	0x9c
 2165 0bbb A10B0000 		.4byte	0xba1
 2166 0bbf 1E       		.uleb128 0x1e
 2167 0bc0 7500     		.ascii	"u\000"
 2168 0bc2 01       		.byte	0x1
 2169 0bc3 9D       		.byte	0x9d
 2170 0bc4 380B0000 		.4byte	0xb38
 2171 0bc8 1E       		.uleb128 0x1e
 2172 0bc9 63723100 		.ascii	"cr1\000"
 2173 0bcd 01       		.byte	0x1
 2174 0bce 9E       		.byte	0x9e
 2175 0bcf 62000000 		.4byte	0x62
 2176 0bd3 1E       		.uleb128 0x1e
 2177 0bd4 737200   		.ascii	"sr\000"
 2178 0bd7 01       		.byte	0x1
 2179 0bd8 9F       		.byte	0x9f
 2180 0bd9 62000000 		.4byte	0x62
 2181 0bdd 1E       		.uleb128 0x1e
 2182 0bde 647200   		.ascii	"dr\000"
 2183 0be1 01       		.byte	0x1
 2184 0be2 A0       		.byte	0xa0
 2185 0be3 62000000 		.4byte	0x62
 2186 0be7 1F       		.uleb128 0x1f
 2187 0be8 F80B0000 		.4byte	0xbf8
 2188 0bec 1E       		.uleb128 0x1e
 2189 0bed 746D7000 		.ascii	"tmp\000"
 2190 0bf1 01       		.byte	0x1
 2191 0bf2 A7       		.byte	0xa7
 2192 0bf3 86000000 		.4byte	0x86
 2193 0bf7 00       		.byte	0
 2194 0bf8 1F       		.uleb128 0x1f
 2195 0bf9 090C0000 		.4byte	0xc09
 2196 0bfd 1E       		.uleb128 0x1e
 2197 0bfe 746D7000 		.ascii	"tmp\000"
 2198 0c02 01       		.byte	0x1
 2199 0c03 A9       		.byte	0xa9
 2200 0c04 86000000 		.4byte	0x86
 2201 0c08 00       		.byte	0
 2202 0c09 1F       		.uleb128 0x1f
 2203 0c0a 1A0C0000 		.4byte	0xc1a
 2204 0c0e 1E       		.uleb128 0x1e
 2205 0c0f 746D7000 		.ascii	"tmp\000"
 2206 0c13 01       		.byte	0x1
 2207 0c14 AE       		.byte	0xae
 2208 0c15 86000000 		.4byte	0x86
 2209 0c19 00       		.byte	0
 2210 0c1a 1F       		.uleb128 0x1f
 2211 0c1b 2B0C0000 		.4byte	0xc2b
 2212 0c1f 1E       		.uleb128 0x1e
 2213 0c20 746D7000 		.ascii	"tmp\000"
 2214 0c24 01       		.byte	0x1
 2215 0c25 B0       		.byte	0xb0
ARM GAS  /var/folders/dt/0wfd0knj7gs46m8vwfzktm600000gn/T//ccIBf9CX.s 			page 40


 2216 0c26 86000000 		.4byte	0x86
 2217 0c2a 00       		.byte	0
 2218 0c2b 1F       		.uleb128 0x1f
 2219 0c2c 580C0000 		.4byte	0xc58
 2220 0c30 1E       		.uleb128 0x1e
 2221 0c31 6200     		.ascii	"b\000"
 2222 0c33 01       		.byte	0x1
 2223 0c34 B4       		.byte	0xb4
 2224 0c35 E4000000 		.4byte	0xe4
 2225 0c39 1F       		.uleb128 0x1f
 2226 0c3a 4A0C0000 		.4byte	0xc4a
 2227 0c3e 1E       		.uleb128 0x1e
 2228 0c3f 746D7000 		.ascii	"tmp\000"
 2229 0c43 01       		.byte	0x1
 2230 0c44 B5       		.byte	0xb5
 2231 0c45 86000000 		.4byte	0x86
 2232 0c49 00       		.byte	0
 2233 0c4a 20       		.uleb128 0x20
 2234 0c4b 1E       		.uleb128 0x1e
 2235 0c4c 746D7000 		.ascii	"tmp\000"
 2236 0c50 01       		.byte	0x1
 2237 0c51 BD       		.byte	0xbd
 2238 0c52 86000000 		.4byte	0x86
 2239 0c56 00       		.byte	0
 2240 0c57 00       		.byte	0
 2241 0c58 1F       		.uleb128 0x1f
 2242 0c59 690C0000 		.4byte	0xc69
 2243 0c5d 1E       		.uleb128 0x1e
 2244 0c5e 746D7000 		.ascii	"tmp\000"
 2245 0c62 01       		.byte	0x1
 2246 0c63 C1       		.byte	0xc1
 2247 0c64 86000000 		.4byte	0x86
 2248 0c68 00       		.byte	0
 2249 0c69 20       		.uleb128 0x20
 2250 0c6a 1E       		.uleb128 0x1e
 2251 0c6b 746D7000 		.ascii	"tmp\000"
 2252 0c6f 01       		.byte	0x1
 2253 0c70 C3       		.byte	0xc3
 2254 0c71 86000000 		.4byte	0x86
 2255 0c75 00       		.byte	0
 2256 0c76 00       		.byte	0
 2257 0c77 21       		.uleb128 0x21
 2258 0c78 10050000 		.4byte	.LASF203
 2259 0c7c 01       		.byte	0x1
 2260 0c7d DA       		.byte	0xda
 2261 0c7e 01       		.byte	0x1
 2262 0c7f 00000000 		.4byte	.LFB67
 2263 0c83 14000000 		.4byte	.LFE67
 2264 0c87 02       		.byte	0x2
 2265 0c88 7D       		.byte	0x7d
 2266 0c89 00       		.sleb128 0
 2267 0c8a 01       		.byte	0x1
 2268 0c8b 9C0C0000 		.4byte	0xc9c
 2269 0c8f 22       		.uleb128 0x22
 2270 0c90 717000   		.ascii	"qp\000"
 2271 0c93 01       		.byte	0x1
 2272 0c94 DA       		.byte	0xda
ARM GAS  /var/folders/dt/0wfd0knj7gs46m8vwfzktm600000gn/T//ccIBf9CX.s 			page 41


 2273 0c95 33050000 		.4byte	0x533
 2274 0c99 01       		.byte	0x1
 2275 0c9a 50       		.byte	0x50
 2276 0c9b 00       		.byte	0
 2277 0c9c 23       		.uleb128 0x23
 2278 0c9d 01       		.byte	0x1
 2279 0c9e 0C040000 		.4byte	.LASF188
 2280 0ca2 01       		.byte	0x1
 2281 0ca3 2C01     		.2byte	0x12c
 2282 0ca5 01       		.byte	0x1
 2283 0ca6 00000000 		.4byte	.LFB68
 2284 0caa 30010000 		.4byte	.LFE68
 2285 0cae 00000000 		.4byte	.LLST0
 2286 0cb2 01       		.byte	0x1
 2287 0cb3 D40E0000 		.4byte	0xed4
 2288 0cb7 24       		.uleb128 0x24
 2289 0cb8 A70B0000 		.4byte	0xba7
 2290 0cbc 02000000 		.4byte	.LBB30
 2291 0cc0 00000000 		.4byte	.Ldebug_ranges0+0
 2292 0cc4 01       		.byte	0x1
 2293 0cc5 3001     		.2byte	0x130
 2294 0cc7 C90E0000 		.4byte	0xec9
 2295 0ccb 25       		.uleb128 0x25
 2296 0ccc 18000000 		.4byte	.Ldebug_ranges0+0x18
 2297 0cd0 26       		.uleb128 0x26
 2298 0cd1 BF0B0000 		.4byte	0xbbf
 2299 0cd5 01       		.byte	0x1
 2300 0cd6 55       		.byte	0x55
 2301 0cd7 26       		.uleb128 0x26
 2302 0cd8 C80B0000 		.4byte	0xbc8
 2303 0cdc 01       		.byte	0x1
 2304 0cdd 56       		.byte	0x56
 2305 0cde 27       		.uleb128 0x27
 2306 0cdf D30B0000 		.4byte	0xbd3
 2307 0ce3 20000000 		.4byte	.LLST1
 2308 0ce7 27       		.uleb128 0x27
 2309 0ce8 DD0B0000 		.4byte	0xbdd
 2310 0cec 3E000000 		.4byte	.LLST2
 2311 0cf0 28       		.uleb128 0x28
 2312 0cf1 B40B0000 		.4byte	0xbb4
 2313 0cf5 06       		.byte	0x6
 2314 0cf6 03       		.byte	0x3
 2315 0cf7 00000000 		.4byte	SD3
 2316 0cfb 9F       		.byte	0x9f
 2317 0cfc 29       		.uleb128 0x29
 2318 0cfd 44000000 		.4byte	.LBB32
 2319 0d01 4A000000 		.4byte	.LBE32
 2320 0d05 130D0000 		.4byte	0xd13
 2321 0d09 27       		.uleb128 0x27
 2322 0d0a 5D0C0000 		.4byte	0xc5d
 2323 0d0e 72000000 		.4byte	.LLST3
 2324 0d12 00       		.byte	0
 2325 0d13 29       		.uleb128 0x29
 2326 0d14 52000000 		.4byte	.LBB33
 2327 0d18 58000000 		.4byte	.LBE33
 2328 0d1c 2A0D0000 		.4byte	0xd2a
 2329 0d20 27       		.uleb128 0x27
ARM GAS  /var/folders/dt/0wfd0knj7gs46m8vwfzktm600000gn/T//ccIBf9CX.s 			page 42


 2330 0d21 6A0C0000 		.4byte	0xc6a
 2331 0d25 85000000 		.4byte	.LLST4
 2332 0d29 00       		.byte	0
 2333 0d2a 29       		.uleb128 0x29
 2334 0d2b 74000000 		.4byte	.LBB34
 2335 0d2f 7A000000 		.4byte	.LBE34
 2336 0d33 410D0000 		.4byte	0xd41
 2337 0d37 27       		.uleb128 0x27
 2338 0d38 0E0C0000 		.4byte	0xc0e
 2339 0d3c 98000000 		.4byte	.LLST5
 2340 0d40 00       		.byte	0
 2341 0d41 29       		.uleb128 0x29
 2342 0d42 82000000 		.4byte	.LBB35
 2343 0d46 8A000000 		.4byte	.LBE35
 2344 0d4a 580D0000 		.4byte	0xd58
 2345 0d4e 27       		.uleb128 0x27
 2346 0d4f 1F0C0000 		.4byte	0xc1f
 2347 0d53 AB000000 		.4byte	.LLST6
 2348 0d57 00       		.byte	0
 2349 0d58 29       		.uleb128 0x29
 2350 0d59 8A000000 		.4byte	.LBB36
 2351 0d5d 90000000 		.4byte	.LBE36
 2352 0d61 6F0D0000 		.4byte	0xd6f
 2353 0d65 27       		.uleb128 0x27
 2354 0d66 EC0B0000 		.4byte	0xbec
 2355 0d6a C9000000 		.4byte	.LLST7
 2356 0d6e 00       		.byte	0
 2357 0d6f 29       		.uleb128 0x29
 2358 0d70 9A000000 		.4byte	.LBB37
 2359 0d74 A0000000 		.4byte	.LBE37
 2360 0d78 860D0000 		.4byte	0xd86
 2361 0d7c 27       		.uleb128 0x27
 2362 0d7d FD0B0000 		.4byte	0xbfd
 2363 0d81 DC000000 		.4byte	.LLST8
 2364 0d85 00       		.byte	0
 2365 0d86 2A       		.uleb128 0x2a
 2366 0d87 550B0000 		.4byte	0xb55
 2367 0d8b AE000000 		.4byte	.LBB38
 2368 0d8f F0000000 		.4byte	.LBE38
 2369 0d93 01       		.byte	0x1
 2370 0d94 A4       		.byte	0xa4
 2371 0d95 000E0000 		.4byte	0xe00
 2372 0d99 2B       		.uleb128 0x2b
 2373 0d9a 6D0B0000 		.4byte	0xb6d
 2374 0d9e EF000000 		.4byte	.LLST9
 2375 0da2 2C       		.uleb128 0x2c
 2376 0da3 AE000000 		.4byte	.LBB39
 2377 0da7 F0000000 		.4byte	.LBE39
 2378 0dab 27       		.uleb128 0x27
 2379 0dac 770B0000 		.4byte	0xb77
 2380 0db0 02010000 		.4byte	.LLST10
 2381 0db4 2B       		.uleb128 0x2b
 2382 0db5 620B0000 		.4byte	0xb62
 2383 0db9 21010000 		.4byte	.LLST11
 2384 0dbd 29       		.uleb128 0x29
 2385 0dbe DC000000 		.4byte	.LBB40
 2386 0dc2 E2000000 		.4byte	.LBE40
ARM GAS  /var/folders/dt/0wfd0knj7gs46m8vwfzktm600000gn/T//ccIBf9CX.s 			page 43


 2387 0dc6 D40D0000 		.4byte	0xdd4
 2388 0dca 27       		.uleb128 0x27
 2389 0dcb 870B0000 		.4byte	0xb87
 2390 0dcf 39010000 		.4byte	.LLST12
 2391 0dd3 00       		.byte	0
 2392 0dd4 29       		.uleb128 0x29
 2393 0dd5 E8000000 		.4byte	.LBB41
 2394 0dd9 F0000000 		.4byte	.LBE41
 2395 0ddd EB0D0000 		.4byte	0xdeb
 2396 0de1 27       		.uleb128 0x27
 2397 0de2 940B0000 		.4byte	0xb94
 2398 0de6 4C010000 		.4byte	.LLST13
 2399 0dea 00       		.byte	0
 2400 0deb 2D       		.uleb128 0x2d
 2401 0dec E8000000 		.4byte	.LVL38
 2402 0df0 5D100000 		.4byte	0x105d
 2403 0df4 2E       		.uleb128 0x2e
 2404 0df5 01       		.byte	0x1
 2405 0df6 50       		.byte	0x50
 2406 0df7 05       		.byte	0x5
 2407 0df8 03       		.byte	0x3
 2408 0df9 04000000 		.4byte	.LANCHOR0+4
 2409 0dfd 00       		.byte	0
 2410 0dfe 00       		.byte	0
 2411 0dff 00       		.byte	0
 2412 0e00 29       		.uleb128 0x29
 2413 0e01 F0000000 		.4byte	.LBB42
 2414 0e05 30010000 		.4byte	.LBE42
 2415 0e09 740E0000 		.4byte	0xe74
 2416 0e0d 27       		.uleb128 0x27
 2417 0e0e 300C0000 		.4byte	0xc30
 2418 0e12 6A010000 		.4byte	.LLST14
 2419 0e16 29       		.uleb128 0x29
 2420 0e17 F0000000 		.4byte	.LBB43
 2421 0e1b F6000000 		.4byte	.LBE43
 2422 0e1f 2D0E0000 		.4byte	0xe2d
 2423 0e23 27       		.uleb128 0x27
 2424 0e24 3E0C0000 		.4byte	0xc3e
 2425 0e28 7D010000 		.4byte	.LLST15
 2426 0e2c 00       		.byte	0
 2427 0e2d 29       		.uleb128 0x29
 2428 0e2e 06010000 		.4byte	.LBB44
 2429 0e32 0E010000 		.4byte	.LBE44
 2430 0e36 440E0000 		.4byte	0xe44
 2431 0e3a 27       		.uleb128 0x27
 2432 0e3b 4B0C0000 		.4byte	0xc4b
 2433 0e3f 90010000 		.4byte	.LLST16
 2434 0e43 00       		.byte	0
 2435 0e44 2F       		.uleb128 0x2f
 2436 0e45 FC000000 		.4byte	.LVL43
 2437 0e49 7C100000 		.4byte	0x107c
 2438 0e4d 5B0E0000 		.4byte	0xe5b
 2439 0e51 2E       		.uleb128 0x2e
 2440 0e52 01       		.byte	0x1
 2441 0e53 50       		.byte	0x50
 2442 0e54 05       		.byte	0x5
 2443 0e55 03       		.byte	0x3
ARM GAS  /var/folders/dt/0wfd0knj7gs46m8vwfzktm600000gn/T//ccIBf9CX.s 			page 44


 2444 0e56 30000000 		.4byte	.LANCHOR0+48
 2445 0e5a 00       		.byte	0
 2446 0e5b 2D       		.uleb128 0x2d
 2447 0e5c 16010000 		.4byte	.LVL47
 2448 0e60 5D100000 		.4byte	0x105d
 2449 0e64 2E       		.uleb128 0x2e
 2450 0e65 01       		.byte	0x1
 2451 0e66 51       		.byte	0x51
 2452 0e67 01       		.byte	0x1
 2453 0e68 38       		.byte	0x38
 2454 0e69 2E       		.uleb128 0x2e
 2455 0e6a 01       		.byte	0x1
 2456 0e6b 50       		.byte	0x50
 2457 0e6c 05       		.byte	0x5
 2458 0e6d 03       		.byte	0x3
 2459 0e6e 04000000 		.4byte	.LANCHOR0+4
 2460 0e72 00       		.byte	0
 2461 0e73 00       		.byte	0
 2462 0e74 2F       		.uleb128 0x2f
 2463 0e75 52000000 		.4byte	.LVL13
 2464 0e79 5D100000 		.4byte	0x105d
 2465 0e7d 900E0000 		.4byte	0xe90
 2466 0e81 2E       		.uleb128 0x2e
 2467 0e82 01       		.byte	0x1
 2468 0e83 51       		.byte	0x51
 2469 0e84 01       		.byte	0x1
 2470 0e85 40       		.byte	0x40
 2471 0e86 2E       		.uleb128 0x2e
 2472 0e87 01       		.byte	0x1
 2473 0e88 50       		.byte	0x50
 2474 0e89 05       		.byte	0x5
 2475 0e8a 03       		.byte	0x3
 2476 0e8b 04000000 		.4byte	.LANCHOR0+4
 2477 0e8f 00       		.byte	0
 2478 0e90 2F       		.uleb128 0x2f
 2479 0e91 82000000 		.4byte	.LVL21
 2480 0e95 9B100000 		.4byte	0x109b
 2481 0e99 AD0E0000 		.4byte	0xead
 2482 0e9d 2E       		.uleb128 0x2e
 2483 0e9e 01       		.byte	0x1
 2484 0e9f 51       		.byte	0x51
 2485 0ea0 02       		.byte	0x2
 2486 0ea1 77       		.byte	0x77
 2487 0ea2 00       		.sleb128 0
 2488 0ea3 2E       		.uleb128 0x2e
 2489 0ea4 01       		.byte	0x1
 2490 0ea5 50       		.byte	0x50
 2491 0ea6 05       		.byte	0x5
 2492 0ea7 03       		.byte	0x3
 2493 0ea8 00000000 		.4byte	.LANCHOR0
 2494 0eac 00       		.byte	0
 2495 0ead 2D       		.uleb128 0x2d
 2496 0eae 9A000000 		.4byte	.LVL26
 2497 0eb2 5D100000 		.4byte	0x105d
 2498 0eb6 2E       		.uleb128 0x2e
 2499 0eb7 01       		.byte	0x1
 2500 0eb8 51       		.byte	0x51
ARM GAS  /var/folders/dt/0wfd0knj7gs46m8vwfzktm600000gn/T//ccIBf9CX.s 			page 45


 2501 0eb9 03       		.byte	0x3
 2502 0eba 0A       		.byte	0xa
 2503 0ebb 0002     		.2byte	0x200
 2504 0ebd 2E       		.uleb128 0x2e
 2505 0ebe 01       		.byte	0x1
 2506 0ebf 50       		.byte	0x50
 2507 0ec0 05       		.byte	0x5
 2508 0ec1 03       		.byte	0x3
 2509 0ec2 04000000 		.4byte	.LANCHOR0+4
 2510 0ec6 00       		.byte	0
 2511 0ec7 00       		.byte	0
 2512 0ec8 00       		.byte	0
 2513 0ec9 30       		.uleb128 0x30
 2514 0eca 74000000 		.4byte	.LVL18
 2515 0ece 01       		.byte	0x1
 2516 0ecf B5100000 		.4byte	0x10b5
 2517 0ed3 00       		.byte	0
 2518 0ed4 23       		.uleb128 0x23
 2519 0ed5 01       		.byte	0x1
 2520 0ed6 17030000 		.4byte	.LASF189
 2521 0eda 01       		.byte	0x1
 2522 0edb 7801     		.2byte	0x178
 2523 0edd 01       		.byte	0x1
 2524 0ede 00000000 		.4byte	.LFB69
 2525 0ee2 26000000 		.4byte	.LFE69
 2526 0ee6 B9010000 		.4byte	.LLST17
 2527 0eea 01       		.byte	0x1
 2528 0eeb 0E0F0000 		.4byte	0xf0e
 2529 0eef 2D       		.uleb128 0x2d
 2530 0ef0 1A000000 		.4byte	.LVL48
 2531 0ef4 C0100000 		.4byte	0x10c0
 2532 0ef8 2E       		.uleb128 0x2e
 2533 0ef9 01       		.byte	0x1
 2534 0efa 52       		.byte	0x52
 2535 0efb 05       		.byte	0x5
 2536 0efc 03       		.byte	0x3
 2537 0efd 00000000 		.4byte	notify3
 2538 0f01 2E       		.uleb128 0x2e
 2539 0f02 01       		.byte	0x1
 2540 0f03 51       		.byte	0x51
 2541 0f04 01       		.byte	0x1
 2542 0f05 30       		.byte	0x30
 2543 0f06 2E       		.uleb128 0x2e
 2544 0f07 01       		.byte	0x1
 2545 0f08 50       		.byte	0x50
 2546 0f09 02       		.byte	0x2
 2547 0f0a 74       		.byte	0x74
 2548 0f0b 00       		.sleb128 0
 2549 0f0c 00       		.byte	0
 2550 0f0d 00       		.byte	0
 2551 0f0e 1C       		.uleb128 0x1c
 2552 0f0f 25040000 		.4byte	.LASF190
 2553 0f13 01       		.byte	0x1
 2554 0f14 5C       		.byte	0x5c
 2555 0f15 01       		.byte	0x1
 2556 0f16 01       		.byte	0x1
 2557 0f17 3B0F0000 		.4byte	0xf3b
ARM GAS  /var/folders/dt/0wfd0knj7gs46m8vwfzktm600000gn/T//ccIBf9CX.s 			page 46


 2558 0f1b 1D       		.uleb128 0x1d
 2559 0f1c 73647000 		.ascii	"sdp\000"
 2560 0f20 01       		.byte	0x1
 2561 0f21 5C       		.byte	0x5c
 2562 0f22 A10B0000 		.4byte	0xba1
 2563 0f26 31       		.uleb128 0x31
 2564 0f27 2D070000 		.4byte	.LASF191
 2565 0f2b 01       		.byte	0x1
 2566 0f2c 5C       		.byte	0x5c
 2567 0f2d 3B0F0000 		.4byte	0xf3b
 2568 0f31 1E       		.uleb128 0x1e
 2569 0f32 7500     		.ascii	"u\000"
 2570 0f34 01       		.byte	0x1
 2571 0f35 5D       		.byte	0x5d
 2572 0f36 380B0000 		.4byte	0xb38
 2573 0f3a 00       		.byte	0
 2574 0f3b 09       		.uleb128 0x9
 2575 0f3c 04       		.byte	0x4
 2576 0f3d 410F0000 		.4byte	0xf41
 2577 0f41 10       		.uleb128 0x10
 2578 0f42 950A0000 		.4byte	0xa95
 2579 0f46 23       		.uleb128 0x23
 2580 0f47 01       		.byte	0x1
 2581 0f48 AE050000 		.4byte	.LASF192
 2582 0f4c 01       		.byte	0x1
 2583 0f4d A301     		.2byte	0x1a3
 2584 0f4f 01       		.byte	0x1
 2585 0f50 00000000 		.4byte	.LFB70
 2586 0f54 7C000000 		.4byte	.LFE70
 2587 0f58 D9010000 		.4byte	.LLST18
 2588 0f5c 01       		.byte	0x1
 2589 0f5d D20F0000 		.4byte	0xfd2
 2590 0f61 32       		.uleb128 0x32
 2591 0f62 73647000 		.ascii	"sdp\000"
 2592 0f66 01       		.byte	0x1
 2593 0f67 A301     		.2byte	0x1a3
 2594 0f69 A10B0000 		.4byte	0xba1
 2595 0f6d F9010000 		.4byte	.LLST19
 2596 0f71 33       		.uleb128 0x33
 2597 0f72 2D070000 		.4byte	.LASF191
 2598 0f76 01       		.byte	0x1
 2599 0f77 A301     		.2byte	0x1a3
 2600 0f79 3B0F0000 		.4byte	0xf3b
 2601 0f7d 2D020000 		.4byte	.LLST20
 2602 0f81 34       		.uleb128 0x34
 2603 0f82 0E0F0000 		.4byte	0xf0e
 2604 0f86 12000000 		.4byte	.LBB49
 2605 0f8a 52000000 		.4byte	.LBE49
 2606 0f8e 01       		.byte	0x1
 2607 0f8f D401     		.2byte	0x1d4
 2608 0f91 BB0F0000 		.4byte	0xfbb
 2609 0f95 2B       		.uleb128 0x2b
 2610 0f96 260F0000 		.4byte	0xf26
 2611 0f9a 4B020000 		.4byte	.LLST21
 2612 0f9e 2B       		.uleb128 0x2b
 2613 0f9f 1B0F0000 		.4byte	0xf1b
 2614 0fa3 5E020000 		.4byte	.LLST22
ARM GAS  /var/folders/dt/0wfd0knj7gs46m8vwfzktm600000gn/T//ccIBf9CX.s 			page 47


 2615 0fa7 2C       		.uleb128 0x2c
 2616 0fa8 12000000 		.4byte	.LBB50
 2617 0fac 52000000 		.4byte	.LBE50
 2618 0fb0 27       		.uleb128 0x27
 2619 0fb1 310F0000 		.4byte	0xf31
 2620 0fb5 71020000 		.4byte	.LLST23
 2621 0fb9 00       		.byte	0
 2622 0fba 00       		.byte	0
 2623 0fbb 2D       		.uleb128 0x2d
 2624 0fbc 70000000 		.4byte	.LVL56
 2625 0fc0 DF100000 		.4byte	0x10df
 2626 0fc4 2E       		.uleb128 0x2e
 2627 0fc5 01       		.byte	0x1
 2628 0fc6 51       		.byte	0x51
 2629 0fc7 02       		.byte	0x2
 2630 0fc8 08       		.byte	0x8
 2631 0fc9 C0       		.byte	0xc0
 2632 0fca 2E       		.uleb128 0x2e
 2633 0fcb 01       		.byte	0x1
 2634 0fcc 50       		.byte	0x50
 2635 0fcd 02       		.byte	0x2
 2636 0fce 08       		.byte	0x8
 2637 0fcf 27       		.byte	0x27
 2638 0fd0 00       		.byte	0
 2639 0fd1 00       		.byte	0
 2640 0fd2 35       		.uleb128 0x35
 2641 0fd3 01       		.byte	0x1
 2642 0fd4 9B080000 		.4byte	.LASF193
 2643 0fd8 01       		.byte	0x1
 2644 0fd9 E001     		.2byte	0x1e0
 2645 0fdb 01       		.byte	0x1
 2646 0fdc 00000000 		.4byte	.LFB71
 2647 0fe0 34000000 		.4byte	.LFE71
 2648 0fe4 02       		.byte	0x2
 2649 0fe5 7D       		.byte	0x7d
 2650 0fe6 00       		.sleb128 0
 2651 0fe7 01       		.byte	0x1
 2652 0fe8 2C100000 		.4byte	0x102c
 2653 0fec 32       		.uleb128 0x32
 2654 0fed 73647000 		.ascii	"sdp\000"
 2655 0ff1 01       		.byte	0x1
 2656 0ff2 E001     		.2byte	0x1e0
 2657 0ff4 A10B0000 		.4byte	0xba1
 2658 0ff8 91020000 		.4byte	.LLST24
 2659 0ffc 34       		.uleb128 0x34
 2660 0ffd 3E0B0000 		.4byte	0xb3e
 2661 1001 0A000000 		.4byte	.LBB51
 2662 1005 12000000 		.4byte	.LBE51
 2663 1009 01       		.byte	0x1
 2664 100a E301     		.2byte	0x1e3
 2665 100c 1A100000 		.4byte	0x101a
 2666 1010 2B       		.uleb128 0x2b
 2667 1011 4B0B0000 		.4byte	0xb4b
 2668 1015 B2020000 		.4byte	.LLST25
 2669 1019 00       		.byte	0
 2670 101a 36       		.uleb128 0x36
 2671 101b 2E000000 		.4byte	.LVL61
ARM GAS  /var/folders/dt/0wfd0knj7gs46m8vwfzktm600000gn/T//ccIBf9CX.s 			page 48


 2672 101f 01       		.byte	0x1
 2673 1020 F9100000 		.4byte	0x10f9
 2674 1024 2E       		.uleb128 0x2e
 2675 1025 01       		.byte	0x1
 2676 1026 50       		.byte	0x50
 2677 1027 02       		.byte	0x2
 2678 1028 08       		.byte	0x8
 2679 1029 27       		.byte	0x27
 2680 102a 00       		.byte	0
 2681 102b 00       		.byte	0
 2682 102c 37       		.uleb128 0x37
 2683 102d 87010000 		.4byte	.LASF204
 2684 1031 01       		.byte	0x1
 2685 1032 49       		.byte	0x49
 2686 1033 410F0000 		.4byte	0xf41
 2687 1037 05       		.byte	0x5
 2688 1038 03       		.byte	0x3
 2689 1039 00000000 		.4byte	default_config
 2690 103d 38       		.uleb128 0x38
 2691 103e F1000000 		.4byte	.LASF194
 2692 1042 0F       		.byte	0xf
 2693 1043 0706     		.2byte	0x607
 2694 1045 6F070000 		.4byte	0x76f
 2695 1049 01       		.byte	0x1
 2696 104a 01       		.byte	0x1
 2697 104b 39       		.uleb128 0x39
 2698 104c 53443300 		.ascii	"SD3\000"
 2699 1050 01       		.byte	0x1
 2700 1051 32       		.byte	0x32
 2701 1052 CE090000 		.4byte	0x9ce
 2702 1056 01       		.byte	0x1
 2703 1057 05       		.byte	0x5
 2704 1058 03       		.byte	0x3
 2705 1059 00000000 		.4byte	SD3
 2706 105d 3A       		.uleb128 0x3a
 2707 105e 01       		.byte	0x1
 2708 105f 24020000 		.4byte	.LASF195
 2709 1063 09       		.byte	0x9
 2710 1064 BA       		.byte	0xba
 2711 1065 01       		.byte	0x1
 2712 1066 01       		.byte	0x1
 2713 1067 76100000 		.4byte	0x1076
 2714 106b 12       		.uleb128 0x12
 2715 106c 76100000 		.4byte	0x1076
 2716 1070 12       		.uleb128 0x12
 2717 1071 FA000000 		.4byte	0xfa
 2718 1075 00       		.byte	0
 2719 1076 09       		.uleb128 0x9
 2720 1077 04       		.byte	0x4
 2721 1078 20040000 		.4byte	0x420
 2722 107c 3B       		.uleb128 0x3b
 2723 107d 01       		.byte	0x1
 2724 107e F5010000 		.4byte	.LASF205
 2725 1082 0A       		.byte	0xa
 2726 1083 6E01     		.2byte	0x16e
 2727 1085 01       		.byte	0x1
 2728 1086 E4000000 		.4byte	0xe4
ARM GAS  /var/folders/dt/0wfd0knj7gs46m8vwfzktm600000gn/T//ccIBf9CX.s 			page 49


 2729 108a 01       		.byte	0x1
 2730 108b 95100000 		.4byte	0x1095
 2731 108f 12       		.uleb128 0x12
 2732 1090 95100000 		.4byte	0x1095
 2733 1094 00       		.byte	0
 2734 1095 09       		.uleb128 0x9
 2735 1096 04       		.byte	0x4
 2736 1097 4A050000 		.4byte	0x54a
 2737 109b 3C       		.uleb128 0x3c
 2738 109c 01       		.byte	0x1
 2739 109d 05070000 		.4byte	.LASF196
 2740 10a1 0C       		.byte	0xc
 2741 10a2 3901     		.2byte	0x139
 2742 10a4 01       		.byte	0x1
 2743 10a5 01       		.byte	0x1
 2744 10a6 B5100000 		.4byte	0x10b5
 2745 10aa 12       		.uleb128 0x12
 2746 10ab A10B0000 		.4byte	0xba1
 2747 10af 12       		.uleb128 0x12
 2748 10b0 49000000 		.4byte	0x49
 2749 10b4 00       		.byte	0
 2750 10b5 3D       		.uleb128 0x3d
 2751 10b6 01       		.byte	0x1
 2752 10b7 3C080000 		.4byte	.LASF206
 2753 10bb 07       		.byte	0x7
 2754 10bc 0302     		.2byte	0x203
 2755 10be 01       		.byte	0x1
 2756 10bf 01       		.byte	0x1
 2757 10c0 3C       		.uleb128 0x3c
 2758 10c1 01       		.byte	0x1
 2759 10c2 08010000 		.4byte	.LASF197
 2760 10c6 0C       		.byte	0xc
 2761 10c7 3601     		.2byte	0x136
 2762 10c9 01       		.byte	0x1
 2763 10ca 01       		.byte	0x1
 2764 10cb DF100000 		.4byte	0x10df
 2765 10cf 12       		.uleb128 0x12
 2766 10d0 A10B0000 		.4byte	0xba1
 2767 10d4 12       		.uleb128 0x12
 2768 10d5 16050000 		.4byte	0x516
 2769 10d9 12       		.uleb128 0x12
 2770 10da 16050000 		.4byte	0x516
 2771 10de 00       		.byte	0
 2772 10df 3C       		.uleb128 0x3c
 2773 10e0 01       		.byte	0x1
 2774 10e1 7C000000 		.4byte	.LASF198
 2775 10e5 0E       		.byte	0xe
 2776 10e6 2301     		.2byte	0x123
 2777 10e8 01       		.byte	0x1
 2778 10e9 01       		.byte	0x1
 2779 10ea F9100000 		.4byte	0x10f9
 2780 10ee 12       		.uleb128 0x12
 2781 10ef 86000000 		.4byte	0x86
 2782 10f3 12       		.uleb128 0x12
 2783 10f4 86000000 		.4byte	0x86
 2784 10f8 00       		.byte	0
 2785 10f9 3E       		.uleb128 0x3e
ARM GAS  /var/folders/dt/0wfd0knj7gs46m8vwfzktm600000gn/T//ccIBf9CX.s 			page 50


 2786 10fa 01       		.byte	0x1
 2787 10fb C4060000 		.4byte	.LASF207
 2788 10ff 0E       		.byte	0xe
 2789 1100 2401     		.2byte	0x124
 2790 1102 01       		.byte	0x1
 2791 1103 01       		.byte	0x1
 2792 1104 12       		.uleb128 0x12
 2793 1105 86000000 		.4byte	0x86
 2794 1109 00       		.byte	0
 2795 110a 00       		.byte	0
 2796              		.section	.debug_abbrev,"",%progbits
 2797              	.Ldebug_abbrev0:
 2798 0000 01       		.uleb128 0x1
 2799 0001 11       		.uleb128 0x11
 2800 0002 01       		.byte	0x1
 2801 0003 25       		.uleb128 0x25
 2802 0004 0E       		.uleb128 0xe
 2803 0005 13       		.uleb128 0x13
 2804 0006 0B       		.uleb128 0xb
 2805 0007 03       		.uleb128 0x3
 2806 0008 0E       		.uleb128 0xe
 2807 0009 1B       		.uleb128 0x1b
 2808 000a 0E       		.uleb128 0xe
 2809 000b 55       		.uleb128 0x55
 2810 000c 06       		.uleb128 0x6
 2811 000d 11       		.uleb128 0x11
 2812 000e 01       		.uleb128 0x1
 2813 000f 52       		.uleb128 0x52
 2814 0010 01       		.uleb128 0x1
 2815 0011 10       		.uleb128 0x10
 2816 0012 06       		.uleb128 0x6
 2817 0013 00       		.byte	0
 2818 0014 00       		.byte	0
 2819 0015 02       		.uleb128 0x2
 2820 0016 24       		.uleb128 0x24
 2821 0017 00       		.byte	0
 2822 0018 0B       		.uleb128 0xb
 2823 0019 0B       		.uleb128 0xb
 2824 001a 3E       		.uleb128 0x3e
 2825 001b 0B       		.uleb128 0xb
 2826 001c 03       		.uleb128 0x3
 2827 001d 08       		.uleb128 0x8
 2828 001e 00       		.byte	0
 2829 001f 00       		.byte	0
 2830 0020 03       		.uleb128 0x3
 2831 0021 16       		.uleb128 0x16
 2832 0022 00       		.byte	0
 2833 0023 03       		.uleb128 0x3
 2834 0024 0E       		.uleb128 0xe
 2835 0025 3A       		.uleb128 0x3a
 2836 0026 0B       		.uleb128 0xb
 2837 0027 3B       		.uleb128 0x3b
 2838 0028 0B       		.uleb128 0xb
 2839 0029 49       		.uleb128 0x49
 2840 002a 13       		.uleb128 0x13
 2841 002b 00       		.byte	0
 2842 002c 00       		.byte	0
ARM GAS  /var/folders/dt/0wfd0knj7gs46m8vwfzktm600000gn/T//ccIBf9CX.s 			page 51


 2843 002d 04       		.uleb128 0x4
 2844 002e 24       		.uleb128 0x24
 2845 002f 00       		.byte	0
 2846 0030 0B       		.uleb128 0xb
 2847 0031 0B       		.uleb128 0xb
 2848 0032 3E       		.uleb128 0x3e
 2849 0033 0B       		.uleb128 0xb
 2850 0034 03       		.uleb128 0x3
 2851 0035 0E       		.uleb128 0xe
 2852 0036 00       		.byte	0
 2853 0037 00       		.byte	0
 2854 0038 05       		.uleb128 0x5
 2855 0039 13       		.uleb128 0x13
 2856 003a 01       		.byte	0x1
 2857 003b 03       		.uleb128 0x3
 2858 003c 0E       		.uleb128 0xe
 2859 003d 0B       		.uleb128 0xb
 2860 003e 0B       		.uleb128 0xb
 2861 003f 3A       		.uleb128 0x3a
 2862 0040 0B       		.uleb128 0xb
 2863 0041 3B       		.uleb128 0x3b
 2864 0042 0B       		.uleb128 0xb
 2865 0043 01       		.uleb128 0x1
 2866 0044 13       		.uleb128 0x13
 2867 0045 00       		.byte	0
 2868 0046 00       		.byte	0
 2869 0047 06       		.uleb128 0x6
 2870 0048 0D       		.uleb128 0xd
 2871 0049 00       		.byte	0
 2872 004a 03       		.uleb128 0x3
 2873 004b 0E       		.uleb128 0xe
 2874 004c 3A       		.uleb128 0x3a
 2875 004d 0B       		.uleb128 0xb
 2876 004e 3B       		.uleb128 0x3b
 2877 004f 0B       		.uleb128 0xb
 2878 0050 49       		.uleb128 0x49
 2879 0051 13       		.uleb128 0x13
 2880 0052 38       		.uleb128 0x38
 2881 0053 0A       		.uleb128 0xa
 2882 0054 00       		.byte	0
 2883 0055 00       		.byte	0
 2884 0056 07       		.uleb128 0x7
 2885 0057 0D       		.uleb128 0xd
 2886 0058 00       		.byte	0
 2887 0059 03       		.uleb128 0x3
 2888 005a 08       		.uleb128 0x8
 2889 005b 3A       		.uleb128 0x3a
 2890 005c 0B       		.uleb128 0xb
 2891 005d 3B       		.uleb128 0x3b
 2892 005e 0B       		.uleb128 0xb
 2893 005f 49       		.uleb128 0x49
 2894 0060 13       		.uleb128 0x13
 2895 0061 38       		.uleb128 0x38
 2896 0062 0A       		.uleb128 0xa
 2897 0063 00       		.byte	0
 2898 0064 00       		.byte	0
 2899 0065 08       		.uleb128 0x8
ARM GAS  /var/folders/dt/0wfd0knj7gs46m8vwfzktm600000gn/T//ccIBf9CX.s 			page 52


 2900 0066 13       		.uleb128 0x13
 2901 0067 01       		.byte	0x1
 2902 0068 0B       		.uleb128 0xb
 2903 0069 0B       		.uleb128 0xb
 2904 006a 3A       		.uleb128 0x3a
 2905 006b 0B       		.uleb128 0xb
 2906 006c 3B       		.uleb128 0x3b
 2907 006d 0B       		.uleb128 0xb
 2908 006e 01       		.uleb128 0x1
 2909 006f 13       		.uleb128 0x13
 2910 0070 00       		.byte	0
 2911 0071 00       		.byte	0
 2912 0072 09       		.uleb128 0x9
 2913 0073 0F       		.uleb128 0xf
 2914 0074 00       		.byte	0
 2915 0075 0B       		.uleb128 0xb
 2916 0076 0B       		.uleb128 0xb
 2917 0077 49       		.uleb128 0x49
 2918 0078 13       		.uleb128 0x13
 2919 0079 00       		.byte	0
 2920 007a 00       		.byte	0
 2921 007b 0A       		.uleb128 0xa
 2922 007c 0F       		.uleb128 0xf
 2923 007d 00       		.byte	0
 2924 007e 0B       		.uleb128 0xb
 2925 007f 0B       		.uleb128 0xb
 2926 0080 00       		.byte	0
 2927 0081 00       		.byte	0
 2928 0082 0B       		.uleb128 0xb
 2929 0083 13       		.uleb128 0x13
 2930 0084 01       		.byte	0x1
 2931 0085 03       		.uleb128 0x3
 2932 0086 0E       		.uleb128 0xe
 2933 0087 0B       		.uleb128 0xb
 2934 0088 0B       		.uleb128 0xb
 2935 0089 3A       		.uleb128 0x3a
 2936 008a 0B       		.uleb128 0xb
 2937 008b 3B       		.uleb128 0x3b
 2938 008c 05       		.uleb128 0x5
 2939 008d 01       		.uleb128 0x1
 2940 008e 13       		.uleb128 0x13
 2941 008f 00       		.byte	0
 2942 0090 00       		.byte	0
 2943 0091 0C       		.uleb128 0xc
 2944 0092 0D       		.uleb128 0xd
 2945 0093 00       		.byte	0
 2946 0094 03       		.uleb128 0x3
 2947 0095 08       		.uleb128 0x8
 2948 0096 3A       		.uleb128 0x3a
 2949 0097 0B       		.uleb128 0xb
 2950 0098 3B       		.uleb128 0x3b
 2951 0099 05       		.uleb128 0x5
 2952 009a 49       		.uleb128 0x49
 2953 009b 13       		.uleb128 0x13
 2954 009c 38       		.uleb128 0x38
 2955 009d 0A       		.uleb128 0xa
 2956 009e 00       		.byte	0
ARM GAS  /var/folders/dt/0wfd0knj7gs46m8vwfzktm600000gn/T//ccIBf9CX.s 			page 53


 2957 009f 00       		.byte	0
 2958 00a0 0D       		.uleb128 0xd
 2959 00a1 35       		.uleb128 0x35
 2960 00a2 00       		.byte	0
 2961 00a3 49       		.uleb128 0x49
 2962 00a4 13       		.uleb128 0x13
 2963 00a5 00       		.byte	0
 2964 00a6 00       		.byte	0
 2965 00a7 0E       		.uleb128 0xe
 2966 00a8 17       		.uleb128 0x17
 2967 00a9 01       		.byte	0x1
 2968 00aa 0B       		.uleb128 0xb
 2969 00ab 0B       		.uleb128 0xb
 2970 00ac 3A       		.uleb128 0x3a
 2971 00ad 0B       		.uleb128 0xb
 2972 00ae 3B       		.uleb128 0x3b
 2973 00af 0B       		.uleb128 0xb
 2974 00b0 01       		.uleb128 0x1
 2975 00b1 13       		.uleb128 0x13
 2976 00b2 00       		.byte	0
 2977 00b3 00       		.byte	0
 2978 00b4 0F       		.uleb128 0xf
 2979 00b5 0D       		.uleb128 0xd
 2980 00b6 00       		.byte	0
 2981 00b7 03       		.uleb128 0x3
 2982 00b8 0E       		.uleb128 0xe
 2983 00b9 3A       		.uleb128 0x3a
 2984 00ba 0B       		.uleb128 0xb
 2985 00bb 3B       		.uleb128 0x3b
 2986 00bc 0B       		.uleb128 0xb
 2987 00bd 49       		.uleb128 0x49
 2988 00be 13       		.uleb128 0x13
 2989 00bf 00       		.byte	0
 2990 00c0 00       		.byte	0
 2991 00c1 10       		.uleb128 0x10
 2992 00c2 26       		.uleb128 0x26
 2993 00c3 00       		.byte	0
 2994 00c4 49       		.uleb128 0x49
 2995 00c5 13       		.uleb128 0x13
 2996 00c6 00       		.byte	0
 2997 00c7 00       		.byte	0
 2998 00c8 11       		.uleb128 0x11
 2999 00c9 15       		.uleb128 0x15
 3000 00ca 01       		.byte	0x1
 3001 00cb 27       		.uleb128 0x27
 3002 00cc 0C       		.uleb128 0xc
 3003 00cd 49       		.uleb128 0x49
 3004 00ce 13       		.uleb128 0x13
 3005 00cf 01       		.uleb128 0x1
 3006 00d0 13       		.uleb128 0x13
 3007 00d1 00       		.byte	0
 3008 00d2 00       		.byte	0
 3009 00d3 12       		.uleb128 0x12
 3010 00d4 05       		.uleb128 0x5
 3011 00d5 00       		.byte	0
 3012 00d6 49       		.uleb128 0x49
 3013 00d7 13       		.uleb128 0x13
ARM GAS  /var/folders/dt/0wfd0knj7gs46m8vwfzktm600000gn/T//ccIBf9CX.s 			page 54


 3014 00d8 00       		.byte	0
 3015 00d9 00       		.byte	0
 3016 00da 13       		.uleb128 0x13
 3017 00db 15       		.uleb128 0x15
 3018 00dc 01       		.byte	0x1
 3019 00dd 27       		.uleb128 0x27
 3020 00de 0C       		.uleb128 0xc
 3021 00df 01       		.uleb128 0x1
 3022 00e0 13       		.uleb128 0x13
 3023 00e1 00       		.byte	0
 3024 00e2 00       		.byte	0
 3025 00e3 14       		.uleb128 0x14
 3026 00e4 04       		.uleb128 0x4
 3027 00e5 01       		.byte	0x1
 3028 00e6 03       		.uleb128 0x3
 3029 00e7 0E       		.uleb128 0xe
 3030 00e8 0B       		.uleb128 0xb
 3031 00e9 0B       		.uleb128 0xb
 3032 00ea 3A       		.uleb128 0x3a
 3033 00eb 0B       		.uleb128 0xb
 3034 00ec 3B       		.uleb128 0x3b
 3035 00ed 0B       		.uleb128 0xb
 3036 00ee 01       		.uleb128 0x1
 3037 00ef 13       		.uleb128 0x13
 3038 00f0 00       		.byte	0
 3039 00f1 00       		.byte	0
 3040 00f2 15       		.uleb128 0x15
 3041 00f3 28       		.uleb128 0x28
 3042 00f4 00       		.byte	0
 3043 00f5 03       		.uleb128 0x3
 3044 00f6 0E       		.uleb128 0xe
 3045 00f7 1C       		.uleb128 0x1c
 3046 00f8 0D       		.uleb128 0xd
 3047 00f9 00       		.byte	0
 3048 00fa 00       		.byte	0
 3049 00fb 16       		.uleb128 0x16
 3050 00fc 13       		.uleb128 0x13
 3051 00fd 01       		.byte	0x1
 3052 00fe 0B       		.uleb128 0xb
 3053 00ff 0B       		.uleb128 0xb
 3054 0100 3A       		.uleb128 0x3a
 3055 0101 0B       		.uleb128 0xb
 3056 0102 3B       		.uleb128 0x3b
 3057 0103 05       		.uleb128 0x5
 3058 0104 01       		.uleb128 0x1
 3059 0105 13       		.uleb128 0x13
 3060 0106 00       		.byte	0
 3061 0107 00       		.byte	0
 3062 0108 17       		.uleb128 0x17
 3063 0109 0D       		.uleb128 0xd
 3064 010a 00       		.byte	0
 3065 010b 03       		.uleb128 0x3
 3066 010c 0E       		.uleb128 0xe
 3067 010d 3A       		.uleb128 0x3a
 3068 010e 0B       		.uleb128 0xb
 3069 010f 3B       		.uleb128 0x3b
 3070 0110 05       		.uleb128 0x5
ARM GAS  /var/folders/dt/0wfd0knj7gs46m8vwfzktm600000gn/T//ccIBf9CX.s 			page 55


 3071 0111 49       		.uleb128 0x49
 3072 0112 13       		.uleb128 0x13
 3073 0113 38       		.uleb128 0x38
 3074 0114 0A       		.uleb128 0xa
 3075 0115 00       		.byte	0
 3076 0116 00       		.byte	0
 3077 0117 18       		.uleb128 0x18
 3078 0118 16       		.uleb128 0x16
 3079 0119 00       		.byte	0
 3080 011a 03       		.uleb128 0x3
 3081 011b 0E       		.uleb128 0xe
 3082 011c 3A       		.uleb128 0x3a
 3083 011d 0B       		.uleb128 0xb
 3084 011e 3B       		.uleb128 0x3b
 3085 011f 05       		.uleb128 0x5
 3086 0120 49       		.uleb128 0x49
 3087 0121 13       		.uleb128 0x13
 3088 0122 00       		.byte	0
 3089 0123 00       		.byte	0
 3090 0124 19       		.uleb128 0x19
 3091 0125 04       		.uleb128 0x4
 3092 0126 01       		.byte	0x1
 3093 0127 0B       		.uleb128 0xb
 3094 0128 0B       		.uleb128 0xb
 3095 0129 3A       		.uleb128 0x3a
 3096 012a 0B       		.uleb128 0xb
 3097 012b 3B       		.uleb128 0x3b
 3098 012c 0B       		.uleb128 0xb
 3099 012d 01       		.uleb128 0x1
 3100 012e 13       		.uleb128 0x13
 3101 012f 00       		.byte	0
 3102 0130 00       		.byte	0
 3103 0131 1A       		.uleb128 0x1a
 3104 0132 01       		.uleb128 0x1
 3105 0133 01       		.byte	0x1
 3106 0134 49       		.uleb128 0x49
 3107 0135 13       		.uleb128 0x13
 3108 0136 01       		.uleb128 0x1
 3109 0137 13       		.uleb128 0x13
 3110 0138 00       		.byte	0
 3111 0139 00       		.byte	0
 3112 013a 1B       		.uleb128 0x1b
 3113 013b 21       		.uleb128 0x21
 3114 013c 00       		.byte	0
 3115 013d 49       		.uleb128 0x49
 3116 013e 13       		.uleb128 0x13
 3117 013f 2F       		.uleb128 0x2f
 3118 0140 0B       		.uleb128 0xb
 3119 0141 00       		.byte	0
 3120 0142 00       		.byte	0
 3121 0143 1C       		.uleb128 0x1c
 3122 0144 2E       		.uleb128 0x2e
 3123 0145 01       		.byte	0x1
 3124 0146 03       		.uleb128 0x3
 3125 0147 0E       		.uleb128 0xe
 3126 0148 3A       		.uleb128 0x3a
 3127 0149 0B       		.uleb128 0xb
ARM GAS  /var/folders/dt/0wfd0knj7gs46m8vwfzktm600000gn/T//ccIBf9CX.s 			page 56


 3128 014a 3B       		.uleb128 0x3b
 3129 014b 0B       		.uleb128 0xb
 3130 014c 27       		.uleb128 0x27
 3131 014d 0C       		.uleb128 0xc
 3132 014e 20       		.uleb128 0x20
 3133 014f 0B       		.uleb128 0xb
 3134 0150 01       		.uleb128 0x1
 3135 0151 13       		.uleb128 0x13
 3136 0152 00       		.byte	0
 3137 0153 00       		.byte	0
 3138 0154 1D       		.uleb128 0x1d
 3139 0155 05       		.uleb128 0x5
 3140 0156 00       		.byte	0
 3141 0157 03       		.uleb128 0x3
 3142 0158 08       		.uleb128 0x8
 3143 0159 3A       		.uleb128 0x3a
 3144 015a 0B       		.uleb128 0xb
 3145 015b 3B       		.uleb128 0x3b
 3146 015c 0B       		.uleb128 0xb
 3147 015d 49       		.uleb128 0x49
 3148 015e 13       		.uleb128 0x13
 3149 015f 00       		.byte	0
 3150 0160 00       		.byte	0
 3151 0161 1E       		.uleb128 0x1e
 3152 0162 34       		.uleb128 0x34
 3153 0163 00       		.byte	0
 3154 0164 03       		.uleb128 0x3
 3155 0165 08       		.uleb128 0x8
 3156 0166 3A       		.uleb128 0x3a
 3157 0167 0B       		.uleb128 0xb
 3158 0168 3B       		.uleb128 0x3b
 3159 0169 0B       		.uleb128 0xb
 3160 016a 49       		.uleb128 0x49
 3161 016b 13       		.uleb128 0x13
 3162 016c 00       		.byte	0
 3163 016d 00       		.byte	0
 3164 016e 1F       		.uleb128 0x1f
 3165 016f 0B       		.uleb128 0xb
 3166 0170 01       		.byte	0x1
 3167 0171 01       		.uleb128 0x1
 3168 0172 13       		.uleb128 0x13
 3169 0173 00       		.byte	0
 3170 0174 00       		.byte	0
 3171 0175 20       		.uleb128 0x20
 3172 0176 0B       		.uleb128 0xb
 3173 0177 01       		.byte	0x1
 3174 0178 00       		.byte	0
 3175 0179 00       		.byte	0
 3176 017a 21       		.uleb128 0x21
 3177 017b 2E       		.uleb128 0x2e
 3178 017c 01       		.byte	0x1
 3179 017d 03       		.uleb128 0x3
 3180 017e 0E       		.uleb128 0xe
 3181 017f 3A       		.uleb128 0x3a
 3182 0180 0B       		.uleb128 0xb
 3183 0181 3B       		.uleb128 0x3b
 3184 0182 0B       		.uleb128 0xb
ARM GAS  /var/folders/dt/0wfd0knj7gs46m8vwfzktm600000gn/T//ccIBf9CX.s 			page 57


 3185 0183 27       		.uleb128 0x27
 3186 0184 0C       		.uleb128 0xc
 3187 0185 11       		.uleb128 0x11
 3188 0186 01       		.uleb128 0x1
 3189 0187 12       		.uleb128 0x12
 3190 0188 01       		.uleb128 0x1
 3191 0189 40       		.uleb128 0x40
 3192 018a 0A       		.uleb128 0xa
 3193 018b 9742     		.uleb128 0x2117
 3194 018d 0C       		.uleb128 0xc
 3195 018e 01       		.uleb128 0x1
 3196 018f 13       		.uleb128 0x13
 3197 0190 00       		.byte	0
 3198 0191 00       		.byte	0
 3199 0192 22       		.uleb128 0x22
 3200 0193 05       		.uleb128 0x5
 3201 0194 00       		.byte	0
 3202 0195 03       		.uleb128 0x3
 3203 0196 08       		.uleb128 0x8
 3204 0197 3A       		.uleb128 0x3a
 3205 0198 0B       		.uleb128 0xb
 3206 0199 3B       		.uleb128 0x3b
 3207 019a 0B       		.uleb128 0xb
 3208 019b 49       		.uleb128 0x49
 3209 019c 13       		.uleb128 0x13
 3210 019d 02       		.uleb128 0x2
 3211 019e 0A       		.uleb128 0xa
 3212 019f 00       		.byte	0
 3213 01a0 00       		.byte	0
 3214 01a1 23       		.uleb128 0x23
 3215 01a2 2E       		.uleb128 0x2e
 3216 01a3 01       		.byte	0x1
 3217 01a4 3F       		.uleb128 0x3f
 3218 01a5 0C       		.uleb128 0xc
 3219 01a6 03       		.uleb128 0x3
 3220 01a7 0E       		.uleb128 0xe
 3221 01a8 3A       		.uleb128 0x3a
 3222 01a9 0B       		.uleb128 0xb
 3223 01aa 3B       		.uleb128 0x3b
 3224 01ab 05       		.uleb128 0x5
 3225 01ac 27       		.uleb128 0x27
 3226 01ad 0C       		.uleb128 0xc
 3227 01ae 11       		.uleb128 0x11
 3228 01af 01       		.uleb128 0x1
 3229 01b0 12       		.uleb128 0x12
 3230 01b1 01       		.uleb128 0x1
 3231 01b2 40       		.uleb128 0x40
 3232 01b3 06       		.uleb128 0x6
 3233 01b4 9742     		.uleb128 0x2117
 3234 01b6 0C       		.uleb128 0xc
 3235 01b7 01       		.uleb128 0x1
 3236 01b8 13       		.uleb128 0x13
 3237 01b9 00       		.byte	0
 3238 01ba 00       		.byte	0
 3239 01bb 24       		.uleb128 0x24
 3240 01bc 1D       		.uleb128 0x1d
 3241 01bd 01       		.byte	0x1
ARM GAS  /var/folders/dt/0wfd0knj7gs46m8vwfzktm600000gn/T//ccIBf9CX.s 			page 58


 3242 01be 31       		.uleb128 0x31
 3243 01bf 13       		.uleb128 0x13
 3244 01c0 52       		.uleb128 0x52
 3245 01c1 01       		.uleb128 0x1
 3246 01c2 55       		.uleb128 0x55
 3247 01c3 06       		.uleb128 0x6
 3248 01c4 58       		.uleb128 0x58
 3249 01c5 0B       		.uleb128 0xb
 3250 01c6 59       		.uleb128 0x59
 3251 01c7 05       		.uleb128 0x5
 3252 01c8 01       		.uleb128 0x1
 3253 01c9 13       		.uleb128 0x13
 3254 01ca 00       		.byte	0
 3255 01cb 00       		.byte	0
 3256 01cc 25       		.uleb128 0x25
 3257 01cd 0B       		.uleb128 0xb
 3258 01ce 01       		.byte	0x1
 3259 01cf 55       		.uleb128 0x55
 3260 01d0 06       		.uleb128 0x6
 3261 01d1 00       		.byte	0
 3262 01d2 00       		.byte	0
 3263 01d3 26       		.uleb128 0x26
 3264 01d4 34       		.uleb128 0x34
 3265 01d5 00       		.byte	0
 3266 01d6 31       		.uleb128 0x31
 3267 01d7 13       		.uleb128 0x13
 3268 01d8 02       		.uleb128 0x2
 3269 01d9 0A       		.uleb128 0xa
 3270 01da 00       		.byte	0
 3271 01db 00       		.byte	0
 3272 01dc 27       		.uleb128 0x27
 3273 01dd 34       		.uleb128 0x34
 3274 01de 00       		.byte	0
 3275 01df 31       		.uleb128 0x31
 3276 01e0 13       		.uleb128 0x13
 3277 01e1 02       		.uleb128 0x2
 3278 01e2 06       		.uleb128 0x6
 3279 01e3 00       		.byte	0
 3280 01e4 00       		.byte	0
 3281 01e5 28       		.uleb128 0x28
 3282 01e6 05       		.uleb128 0x5
 3283 01e7 00       		.byte	0
 3284 01e8 31       		.uleb128 0x31
 3285 01e9 13       		.uleb128 0x13
 3286 01ea 02       		.uleb128 0x2
 3287 01eb 0A       		.uleb128 0xa
 3288 01ec 00       		.byte	0
 3289 01ed 00       		.byte	0
 3290 01ee 29       		.uleb128 0x29
 3291 01ef 0B       		.uleb128 0xb
 3292 01f0 01       		.byte	0x1
 3293 01f1 11       		.uleb128 0x11
 3294 01f2 01       		.uleb128 0x1
 3295 01f3 12       		.uleb128 0x12
 3296 01f4 01       		.uleb128 0x1
 3297 01f5 01       		.uleb128 0x1
 3298 01f6 13       		.uleb128 0x13
ARM GAS  /var/folders/dt/0wfd0knj7gs46m8vwfzktm600000gn/T//ccIBf9CX.s 			page 59


 3299 01f7 00       		.byte	0
 3300 01f8 00       		.byte	0
 3301 01f9 2A       		.uleb128 0x2a
 3302 01fa 1D       		.uleb128 0x1d
 3303 01fb 01       		.byte	0x1
 3304 01fc 31       		.uleb128 0x31
 3305 01fd 13       		.uleb128 0x13
 3306 01fe 11       		.uleb128 0x11
 3307 01ff 01       		.uleb128 0x1
 3308 0200 12       		.uleb128 0x12
 3309 0201 01       		.uleb128 0x1
 3310 0202 58       		.uleb128 0x58
 3311 0203 0B       		.uleb128 0xb
 3312 0204 59       		.uleb128 0x59
 3313 0205 0B       		.uleb128 0xb
 3314 0206 01       		.uleb128 0x1
 3315 0207 13       		.uleb128 0x13
 3316 0208 00       		.byte	0
 3317 0209 00       		.byte	0
 3318 020a 2B       		.uleb128 0x2b
 3319 020b 05       		.uleb128 0x5
 3320 020c 00       		.byte	0
 3321 020d 31       		.uleb128 0x31
 3322 020e 13       		.uleb128 0x13
 3323 020f 02       		.uleb128 0x2
 3324 0210 06       		.uleb128 0x6
 3325 0211 00       		.byte	0
 3326 0212 00       		.byte	0
 3327 0213 2C       		.uleb128 0x2c
 3328 0214 0B       		.uleb128 0xb
 3329 0215 01       		.byte	0x1
 3330 0216 11       		.uleb128 0x11
 3331 0217 01       		.uleb128 0x1
 3332 0218 12       		.uleb128 0x12
 3333 0219 01       		.uleb128 0x1
 3334 021a 00       		.byte	0
 3335 021b 00       		.byte	0
 3336 021c 2D       		.uleb128 0x2d
 3337 021d 898201   		.uleb128 0x4109
 3338 0220 01       		.byte	0x1
 3339 0221 11       		.uleb128 0x11
 3340 0222 01       		.uleb128 0x1
 3341 0223 31       		.uleb128 0x31
 3342 0224 13       		.uleb128 0x13
 3343 0225 00       		.byte	0
 3344 0226 00       		.byte	0
 3345 0227 2E       		.uleb128 0x2e
 3346 0228 8A8201   		.uleb128 0x410a
 3347 022b 00       		.byte	0
 3348 022c 02       		.uleb128 0x2
 3349 022d 0A       		.uleb128 0xa
 3350 022e 9142     		.uleb128 0x2111
 3351 0230 0A       		.uleb128 0xa
 3352 0231 00       		.byte	0
 3353 0232 00       		.byte	0
 3354 0233 2F       		.uleb128 0x2f
 3355 0234 898201   		.uleb128 0x4109
ARM GAS  /var/folders/dt/0wfd0knj7gs46m8vwfzktm600000gn/T//ccIBf9CX.s 			page 60


 3356 0237 01       		.byte	0x1
 3357 0238 11       		.uleb128 0x11
 3358 0239 01       		.uleb128 0x1
 3359 023a 31       		.uleb128 0x31
 3360 023b 13       		.uleb128 0x13
 3361 023c 01       		.uleb128 0x1
 3362 023d 13       		.uleb128 0x13
 3363 023e 00       		.byte	0
 3364 023f 00       		.byte	0
 3365 0240 30       		.uleb128 0x30
 3366 0241 898201   		.uleb128 0x4109
 3367 0244 00       		.byte	0
 3368 0245 11       		.uleb128 0x11
 3369 0246 01       		.uleb128 0x1
 3370 0247 9542     		.uleb128 0x2115
 3371 0249 0C       		.uleb128 0xc
 3372 024a 31       		.uleb128 0x31
 3373 024b 13       		.uleb128 0x13
 3374 024c 00       		.byte	0
 3375 024d 00       		.byte	0
 3376 024e 31       		.uleb128 0x31
 3377 024f 05       		.uleb128 0x5
 3378 0250 00       		.byte	0
 3379 0251 03       		.uleb128 0x3
 3380 0252 0E       		.uleb128 0xe
 3381 0253 3A       		.uleb128 0x3a
 3382 0254 0B       		.uleb128 0xb
 3383 0255 3B       		.uleb128 0x3b
 3384 0256 0B       		.uleb128 0xb
 3385 0257 49       		.uleb128 0x49
 3386 0258 13       		.uleb128 0x13
 3387 0259 00       		.byte	0
 3388 025a 00       		.byte	0
 3389 025b 32       		.uleb128 0x32
 3390 025c 05       		.uleb128 0x5
 3391 025d 00       		.byte	0
 3392 025e 03       		.uleb128 0x3
 3393 025f 08       		.uleb128 0x8
 3394 0260 3A       		.uleb128 0x3a
 3395 0261 0B       		.uleb128 0xb
 3396 0262 3B       		.uleb128 0x3b
 3397 0263 05       		.uleb128 0x5
 3398 0264 49       		.uleb128 0x49
 3399 0265 13       		.uleb128 0x13
 3400 0266 02       		.uleb128 0x2
 3401 0267 06       		.uleb128 0x6
 3402 0268 00       		.byte	0
 3403 0269 00       		.byte	0
 3404 026a 33       		.uleb128 0x33
 3405 026b 05       		.uleb128 0x5
 3406 026c 00       		.byte	0
 3407 026d 03       		.uleb128 0x3
 3408 026e 0E       		.uleb128 0xe
 3409 026f 3A       		.uleb128 0x3a
 3410 0270 0B       		.uleb128 0xb
 3411 0271 3B       		.uleb128 0x3b
 3412 0272 05       		.uleb128 0x5
ARM GAS  /var/folders/dt/0wfd0knj7gs46m8vwfzktm600000gn/T//ccIBf9CX.s 			page 61


 3413 0273 49       		.uleb128 0x49
 3414 0274 13       		.uleb128 0x13
 3415 0275 02       		.uleb128 0x2
 3416 0276 06       		.uleb128 0x6
 3417 0277 00       		.byte	0
 3418 0278 00       		.byte	0
 3419 0279 34       		.uleb128 0x34
 3420 027a 1D       		.uleb128 0x1d
 3421 027b 01       		.byte	0x1
 3422 027c 31       		.uleb128 0x31
 3423 027d 13       		.uleb128 0x13
 3424 027e 11       		.uleb128 0x11
 3425 027f 01       		.uleb128 0x1
 3426 0280 12       		.uleb128 0x12
 3427 0281 01       		.uleb128 0x1
 3428 0282 58       		.uleb128 0x58
 3429 0283 0B       		.uleb128 0xb
 3430 0284 59       		.uleb128 0x59
 3431 0285 05       		.uleb128 0x5
 3432 0286 01       		.uleb128 0x1
 3433 0287 13       		.uleb128 0x13
 3434 0288 00       		.byte	0
 3435 0289 00       		.byte	0
 3436 028a 35       		.uleb128 0x35
 3437 028b 2E       		.uleb128 0x2e
 3438 028c 01       		.byte	0x1
 3439 028d 3F       		.uleb128 0x3f
 3440 028e 0C       		.uleb128 0xc
 3441 028f 03       		.uleb128 0x3
 3442 0290 0E       		.uleb128 0xe
 3443 0291 3A       		.uleb128 0x3a
 3444 0292 0B       		.uleb128 0xb
 3445 0293 3B       		.uleb128 0x3b
 3446 0294 05       		.uleb128 0x5
 3447 0295 27       		.uleb128 0x27
 3448 0296 0C       		.uleb128 0xc
 3449 0297 11       		.uleb128 0x11
 3450 0298 01       		.uleb128 0x1
 3451 0299 12       		.uleb128 0x12
 3452 029a 01       		.uleb128 0x1
 3453 029b 40       		.uleb128 0x40
 3454 029c 0A       		.uleb128 0xa
 3455 029d 9742     		.uleb128 0x2117
 3456 029f 0C       		.uleb128 0xc
 3457 02a0 01       		.uleb128 0x1
 3458 02a1 13       		.uleb128 0x13
 3459 02a2 00       		.byte	0
 3460 02a3 00       		.byte	0
 3461 02a4 36       		.uleb128 0x36
 3462 02a5 898201   		.uleb128 0x4109
 3463 02a8 01       		.byte	0x1
 3464 02a9 11       		.uleb128 0x11
 3465 02aa 01       		.uleb128 0x1
 3466 02ab 9542     		.uleb128 0x2115
 3467 02ad 0C       		.uleb128 0xc
 3468 02ae 31       		.uleb128 0x31
 3469 02af 13       		.uleb128 0x13
ARM GAS  /var/folders/dt/0wfd0knj7gs46m8vwfzktm600000gn/T//ccIBf9CX.s 			page 62


 3470 02b0 00       		.byte	0
 3471 02b1 00       		.byte	0
 3472 02b2 37       		.uleb128 0x37
 3473 02b3 34       		.uleb128 0x34
 3474 02b4 00       		.byte	0
 3475 02b5 03       		.uleb128 0x3
 3476 02b6 0E       		.uleb128 0xe
 3477 02b7 3A       		.uleb128 0x3a
 3478 02b8 0B       		.uleb128 0xb
 3479 02b9 3B       		.uleb128 0x3b
 3480 02ba 0B       		.uleb128 0xb
 3481 02bb 49       		.uleb128 0x49
 3482 02bc 13       		.uleb128 0x13
 3483 02bd 02       		.uleb128 0x2
 3484 02be 0A       		.uleb128 0xa
 3485 02bf 00       		.byte	0
 3486 02c0 00       		.byte	0
 3487 02c1 38       		.uleb128 0x38
 3488 02c2 34       		.uleb128 0x34
 3489 02c3 00       		.byte	0
 3490 02c4 03       		.uleb128 0x3
 3491 02c5 0E       		.uleb128 0xe
 3492 02c6 3A       		.uleb128 0x3a
 3493 02c7 0B       		.uleb128 0xb
 3494 02c8 3B       		.uleb128 0x3b
 3495 02c9 05       		.uleb128 0x5
 3496 02ca 49       		.uleb128 0x49
 3497 02cb 13       		.uleb128 0x13
 3498 02cc 3F       		.uleb128 0x3f
 3499 02cd 0C       		.uleb128 0xc
 3500 02ce 3C       		.uleb128 0x3c
 3501 02cf 0C       		.uleb128 0xc
 3502 02d0 00       		.byte	0
 3503 02d1 00       		.byte	0
 3504 02d2 39       		.uleb128 0x39
 3505 02d3 34       		.uleb128 0x34
 3506 02d4 00       		.byte	0
 3507 02d5 03       		.uleb128 0x3
 3508 02d6 08       		.uleb128 0x8
 3509 02d7 3A       		.uleb128 0x3a
 3510 02d8 0B       		.uleb128 0xb
 3511 02d9 3B       		.uleb128 0x3b
 3512 02da 0B       		.uleb128 0xb
 3513 02db 49       		.uleb128 0x49
 3514 02dc 13       		.uleb128 0x13
 3515 02dd 3F       		.uleb128 0x3f
 3516 02de 0C       		.uleb128 0xc
 3517 02df 02       		.uleb128 0x2
 3518 02e0 0A       		.uleb128 0xa
 3519 02e1 00       		.byte	0
 3520 02e2 00       		.byte	0
 3521 02e3 3A       		.uleb128 0x3a
 3522 02e4 2E       		.uleb128 0x2e
 3523 02e5 01       		.byte	0x1
 3524 02e6 3F       		.uleb128 0x3f
 3525 02e7 0C       		.uleb128 0xc
 3526 02e8 03       		.uleb128 0x3
ARM GAS  /var/folders/dt/0wfd0knj7gs46m8vwfzktm600000gn/T//ccIBf9CX.s 			page 63


 3527 02e9 0E       		.uleb128 0xe
 3528 02ea 3A       		.uleb128 0x3a
 3529 02eb 0B       		.uleb128 0xb
 3530 02ec 3B       		.uleb128 0x3b
 3531 02ed 0B       		.uleb128 0xb
 3532 02ee 27       		.uleb128 0x27
 3533 02ef 0C       		.uleb128 0xc
 3534 02f0 3C       		.uleb128 0x3c
 3535 02f1 0C       		.uleb128 0xc
 3536 02f2 01       		.uleb128 0x1
 3537 02f3 13       		.uleb128 0x13
 3538 02f4 00       		.byte	0
 3539 02f5 00       		.byte	0
 3540 02f6 3B       		.uleb128 0x3b
 3541 02f7 2E       		.uleb128 0x2e
 3542 02f8 01       		.byte	0x1
 3543 02f9 3F       		.uleb128 0x3f
 3544 02fa 0C       		.uleb128 0xc
 3545 02fb 03       		.uleb128 0x3
 3546 02fc 0E       		.uleb128 0xe
 3547 02fd 3A       		.uleb128 0x3a
 3548 02fe 0B       		.uleb128 0xb
 3549 02ff 3B       		.uleb128 0x3b
 3550 0300 05       		.uleb128 0x5
 3551 0301 27       		.uleb128 0x27
 3552 0302 0C       		.uleb128 0xc
 3553 0303 49       		.uleb128 0x49
 3554 0304 13       		.uleb128 0x13
 3555 0305 3C       		.uleb128 0x3c
 3556 0306 0C       		.uleb128 0xc
 3557 0307 01       		.uleb128 0x1
 3558 0308 13       		.uleb128 0x13
 3559 0309 00       		.byte	0
 3560 030a 00       		.byte	0
 3561 030b 3C       		.uleb128 0x3c
 3562 030c 2E       		.uleb128 0x2e
 3563 030d 01       		.byte	0x1
 3564 030e 3F       		.uleb128 0x3f
 3565 030f 0C       		.uleb128 0xc
 3566 0310 03       		.uleb128 0x3
 3567 0311 0E       		.uleb128 0xe
 3568 0312 3A       		.uleb128 0x3a
 3569 0313 0B       		.uleb128 0xb
 3570 0314 3B       		.uleb128 0x3b
 3571 0315 05       		.uleb128 0x5
 3572 0316 27       		.uleb128 0x27
 3573 0317 0C       		.uleb128 0xc
 3574 0318 3C       		.uleb128 0x3c
 3575 0319 0C       		.uleb128 0xc
 3576 031a 01       		.uleb128 0x1
 3577 031b 13       		.uleb128 0x13
 3578 031c 00       		.byte	0
 3579 031d 00       		.byte	0
 3580 031e 3D       		.uleb128 0x3d
 3581 031f 2E       		.uleb128 0x2e
 3582 0320 00       		.byte	0
 3583 0321 3F       		.uleb128 0x3f
ARM GAS  /var/folders/dt/0wfd0knj7gs46m8vwfzktm600000gn/T//ccIBf9CX.s 			page 64


 3584 0322 0C       		.uleb128 0xc
 3585 0323 03       		.uleb128 0x3
 3586 0324 0E       		.uleb128 0xe
 3587 0325 3A       		.uleb128 0x3a
 3588 0326 0B       		.uleb128 0xb
 3589 0327 3B       		.uleb128 0x3b
 3590 0328 05       		.uleb128 0x5
 3591 0329 27       		.uleb128 0x27
 3592 032a 0C       		.uleb128 0xc
 3593 032b 3C       		.uleb128 0x3c
 3594 032c 0C       		.uleb128 0xc
 3595 032d 00       		.byte	0
 3596 032e 00       		.byte	0
 3597 032f 3E       		.uleb128 0x3e
 3598 0330 2E       		.uleb128 0x2e
 3599 0331 01       		.byte	0x1
 3600 0332 3F       		.uleb128 0x3f
 3601 0333 0C       		.uleb128 0xc
 3602 0334 03       		.uleb128 0x3
 3603 0335 0E       		.uleb128 0xe
 3604 0336 3A       		.uleb128 0x3a
 3605 0337 0B       		.uleb128 0xb
 3606 0338 3B       		.uleb128 0x3b
 3607 0339 05       		.uleb128 0x5
 3608 033a 27       		.uleb128 0x27
 3609 033b 0C       		.uleb128 0xc
 3610 033c 3C       		.uleb128 0x3c
 3611 033d 0C       		.uleb128 0xc
 3612 033e 00       		.byte	0
 3613 033f 00       		.byte	0
 3614 0340 00       		.byte	0
 3615              		.section	.debug_loc,"",%progbits
 3616              	.Ldebug_loc0:
 3617              	.LLST0:
 3618 0000 00000000 		.4byte	.LFB68
 3619 0004 02000000 		.4byte	.LCFI0
 3620 0008 0200     		.2byte	0x2
 3621 000a 7D       		.byte	0x7d
 3622 000b 00       		.sleb128 0
 3623 000c 02000000 		.4byte	.LCFI0
 3624 0010 30010000 		.4byte	.LFE68
 3625 0014 0200     		.2byte	0x2
 3626 0016 7D       		.byte	0x7d
 3627 0017 18       		.sleb128 24
 3628 0018 00000000 		.4byte	0
 3629 001c 00000000 		.4byte	0
 3630              	.LLST1:
 3631 0020 12000000 		.4byte	.LVL3
 3632 0024 40000000 		.4byte	.LVL10
 3633 0028 0100     		.2byte	0x1
 3634 002a 54       		.byte	0x54
 3635 002b 74000000 		.4byte	.LVL18
 3636 002f 30010000 		.4byte	.LFE68
 3637 0033 0100     		.2byte	0x1
 3638 0035 54       		.byte	0x54
 3639 0036 00000000 		.4byte	0
 3640 003a 00000000 		.4byte	0
ARM GAS  /var/folders/dt/0wfd0knj7gs46m8vwfzktm600000gn/T//ccIBf9CX.s 			page 65


 3641              	.LLST2:
 3642 003e 14000000 		.4byte	.LVL4
 3643 0042 16000000 		.4byte	.LVL5
 3644 0046 0100     		.2byte	0x1
 3645 0048 51       		.byte	0x51
 3646 0049 16000000 		.4byte	.LVL5
 3647 004d AE000000 		.4byte	.LVL30
 3648 0051 0100     		.2byte	0x1
 3649 0053 57       		.byte	0x57
 3650 0054 AE000000 		.4byte	.LVL30
 3651 0058 B2000000 		.4byte	.LVL31
 3652 005c 0100     		.2byte	0x1
 3653 005e 51       		.byte	0x51
 3654 005f B2000000 		.4byte	.LVL31
 3655 0063 30010000 		.4byte	.LFE68
 3656 0067 0100     		.2byte	0x1
 3657 0069 57       		.byte	0x57
 3658 006a 00000000 		.4byte	0
 3659 006e 00000000 		.4byte	0
 3660              	.LLST3:
 3661 0072 4A000000 		.4byte	.LVL12
 3662 0076 51000000 		.4byte	.LVL13-1
 3663 007a 0100     		.2byte	0x1
 3664 007c 53       		.byte	0x53
 3665 007d 00000000 		.4byte	0
 3666 0081 00000000 		.4byte	0
 3667              	.LLST4:
 3668 0085 58000000 		.4byte	.LVL15
 3669 0089 5C000000 		.4byte	.LVL16
 3670 008d 0100     		.2byte	0x1
 3671 008f 53       		.byte	0x53
 3672 0090 00000000 		.4byte	0
 3673 0094 00000000 		.4byte	0
 3674              	.LLST5:
 3675 0098 7A000000 		.4byte	.LVL20
 3676 009c 81000000 		.4byte	.LVL21-1
 3677 00a0 0100     		.2byte	0x1
 3678 00a2 53       		.byte	0x53
 3679 00a3 00000000 		.4byte	0
 3680 00a7 00000000 		.4byte	0
 3681              	.LLST6:
 3682 00ab 2A000000 		.4byte	.LVL7
 3683 00af 2E000000 		.4byte	.LVL8
 3684 00b3 0100     		.2byte	0x1
 3685 00b5 53       		.byte	0x53
 3686 00b6 88000000 		.4byte	.LVL22
 3687 00ba 8A000000 		.4byte	.LVL23
 3688 00be 0100     		.2byte	0x1
 3689 00c0 53       		.byte	0x53
 3690 00c1 00000000 		.4byte	0
 3691 00c5 00000000 		.4byte	0
 3692              	.LLST7:
 3693 00c9 90000000 		.4byte	.LVL25
 3694 00cd 99000000 		.4byte	.LVL26-1
 3695 00d1 0100     		.2byte	0x1
 3696 00d3 53       		.byte	0x53
 3697 00d4 00000000 		.4byte	0
ARM GAS  /var/folders/dt/0wfd0knj7gs46m8vwfzktm600000gn/T//ccIBf9CX.s 			page 66


 3698 00d8 00000000 		.4byte	0
 3699              	.LLST8:
 3700 00dc A0000000 		.4byte	.LVL28
 3701 00e0 A2000000 		.4byte	.LVL29
 3702 00e4 0100     		.2byte	0x1
 3703 00e6 53       		.byte	0x53
 3704 00e7 00000000 		.4byte	0
 3705 00eb 00000000 		.4byte	0
 3706              	.LLST9:
 3707 00ef AE000000 		.4byte	.LVL30
 3708 00f3 F0000000 		.4byte	.LVL40
 3709 00f7 0100     		.2byte	0x1
 3710 00f9 54       		.byte	0x54
 3711 00fa 00000000 		.4byte	0
 3712 00fe 00000000 		.4byte	0
 3713              	.LLST10:
 3714 0102 AE000000 		.4byte	.LVL30
 3715 0106 BC000000 		.4byte	.LVL32
 3716 010a 0200     		.2byte	0x2
 3717 010c 30       		.byte	0x30
 3718 010d 9F       		.byte	0x9f
 3719 010e BC000000 		.4byte	.LVL32
 3720 0112 E7000000 		.4byte	.LVL38-1
 3721 0116 0100     		.2byte	0x1
 3722 0118 51       		.byte	0x51
 3723 0119 00000000 		.4byte	0
 3724 011d 00000000 		.4byte	0
 3725              	.LLST11:
 3726 0121 AE000000 		.4byte	.LVL30
 3727 0125 F0000000 		.4byte	.LVL40
 3728 0129 0600     		.2byte	0x6
 3729 012b 03       		.byte	0x3
 3730 012c 00000000 		.4byte	SD3
 3731 0130 9F       		.byte	0x9f
 3732 0131 00000000 		.4byte	0
 3733 0135 00000000 		.4byte	0
 3734              	.LLST12:
 3735 0139 E2000000 		.4byte	.LVL37
 3736 013d E7000000 		.4byte	.LVL38-1
 3737 0141 0100     		.2byte	0x1
 3738 0143 53       		.byte	0x53
 3739 0144 00000000 		.4byte	0
 3740 0148 00000000 		.4byte	0
 3741              	.LLST13:
 3742 014c 16000000 		.4byte	.LVL5
 3743 0150 1A000000 		.4byte	.LVL6
 3744 0154 0100     		.2byte	0x1
 3745 0156 53       		.byte	0x53
 3746 0157 EE000000 		.4byte	.LVL39
 3747 015b F0000000 		.4byte	.LVL40
 3748 015f 0100     		.2byte	0x1
 3749 0161 53       		.byte	0x53
 3750 0162 00000000 		.4byte	0
 3751 0166 00000000 		.4byte	0
 3752              	.LLST14:
 3753 016a FC000000 		.4byte	.LVL43
 3754 016e 02010000 		.4byte	.LVL44
ARM GAS  /var/folders/dt/0wfd0knj7gs46m8vwfzktm600000gn/T//ccIBf9CX.s 			page 67


 3755 0172 0100     		.2byte	0x1
 3756 0174 50       		.byte	0x50
 3757 0175 00000000 		.4byte	0
 3758 0179 00000000 		.4byte	0
 3759              	.LLST15:
 3760 017d F6000000 		.4byte	.LVL42
 3761 0181 FB000000 		.4byte	.LVL43-1
 3762 0185 0100     		.2byte	0x1
 3763 0187 53       		.byte	0x53
 3764 0188 00000000 		.4byte	0
 3765 018c 00000000 		.4byte	0
 3766              	.LLST16:
 3767 0190 3C000000 		.4byte	.LVL9
 3768 0194 46000000 		.4byte	.LVL11
 3769 0198 0100     		.2byte	0x1
 3770 019a 53       		.byte	0x53
 3771 019b 6C000000 		.4byte	.LVL17
 3772 019f 73000000 		.4byte	.LVL18-1
 3773 01a3 0100     		.2byte	0x1
 3774 01a5 53       		.byte	0x53
 3775 01a6 0C010000 		.4byte	.LVL45
 3776 01aa 0E010000 		.4byte	.LVL46
 3777 01ae 0100     		.2byte	0x1
 3778 01b0 53       		.byte	0x53
 3779 01b1 00000000 		.4byte	0
 3780 01b5 00000000 		.4byte	0
 3781              	.LLST17:
 3782 01b9 00000000 		.4byte	.LFB69
 3783 01bd 02000000 		.4byte	.LCFI1
 3784 01c1 0200     		.2byte	0x2
 3785 01c3 7D       		.byte	0x7d
 3786 01c4 00       		.sleb128 0
 3787 01c5 02000000 		.4byte	.LCFI1
 3788 01c9 26000000 		.4byte	.LFE69
 3789 01cd 0200     		.2byte	0x2
 3790 01cf 7D       		.byte	0x7d
 3791 01d0 08       		.sleb128 8
 3792 01d1 00000000 		.4byte	0
 3793 01d5 00000000 		.4byte	0
 3794              	.LLST18:
 3795 01d9 00000000 		.4byte	.LFB70
 3796 01dd 02000000 		.4byte	.LCFI2
 3797 01e1 0200     		.2byte	0x2
 3798 01e3 7D       		.byte	0x7d
 3799 01e4 00       		.sleb128 0
 3800 01e5 02000000 		.4byte	.LCFI2
 3801 01e9 7C000000 		.4byte	.LFE70
 3802 01ed 0200     		.2byte	0x2
 3803 01ef 7D       		.byte	0x7d
 3804 01f0 10       		.sleb128 16
 3805 01f1 00000000 		.4byte	0
 3806 01f5 00000000 		.4byte	0
 3807              	.LLST19:
 3808 01f9 00000000 		.4byte	.LVL49
 3809 01fd 12000000 		.4byte	.LVL51
 3810 0201 0100     		.2byte	0x1
 3811 0203 50       		.byte	0x50
ARM GAS  /var/folders/dt/0wfd0knj7gs46m8vwfzktm600000gn/T//ccIBf9CX.s 			page 68


 3812 0204 12000000 		.4byte	.LVL51
 3813 0208 52000000 		.4byte	.LVL54
 3814 020c 0100     		.2byte	0x1
 3815 020e 55       		.byte	0x55
 3816 020f 52000000 		.4byte	.LVL54
 3817 0213 64000000 		.4byte	.LVL55
 3818 0217 0100     		.2byte	0x1
 3819 0219 50       		.byte	0x50
 3820 021a 64000000 		.4byte	.LVL55
 3821 021e 7C000000 		.4byte	.LFE70
 3822 0222 0100     		.2byte	0x1
 3823 0224 55       		.byte	0x55
 3824 0225 00000000 		.4byte	0
 3825 0229 00000000 		.4byte	0
 3826              	.LLST20:
 3827 022d 00000000 		.4byte	.LVL49
 3828 0231 0E000000 		.4byte	.LVL50
 3829 0235 0100     		.2byte	0x1
 3830 0237 51       		.byte	0x51
 3831 0238 0E000000 		.4byte	.LVL50
 3832 023c 7C000000 		.4byte	.LFE70
 3833 0240 0100     		.2byte	0x1
 3834 0242 54       		.byte	0x54
 3835 0243 00000000 		.4byte	0
 3836 0247 00000000 		.4byte	0
 3837              	.LLST21:
 3838 024b 12000000 		.4byte	.LVL51
 3839 024f 52000000 		.4byte	.LVL54
 3840 0253 0100     		.2byte	0x1
 3841 0255 54       		.byte	0x54
 3842 0256 00000000 		.4byte	0
 3843 025a 00000000 		.4byte	0
 3844              	.LLST22:
 3845 025e 12000000 		.4byte	.LVL51
 3846 0262 52000000 		.4byte	.LVL54
 3847 0266 0100     		.2byte	0x1
 3848 0268 55       		.byte	0x55
 3849 0269 00000000 		.4byte	0
 3850 026d 00000000 		.4byte	0
 3851              	.LLST23:
 3852 0271 1E000000 		.4byte	.LVL52
 3853 0275 50000000 		.4byte	.LVL53
 3854 0279 0100     		.2byte	0x1
 3855 027b 53       		.byte	0x53
 3856 027c 50000000 		.4byte	.LVL53
 3857 0280 52000000 		.4byte	.LVL54
 3858 0284 0300     		.2byte	0x3
 3859 0286 75       		.byte	0x75
 3860 0287 F400     		.sleb128 116
 3861 0289 00000000 		.4byte	0
 3862 028d 00000000 		.4byte	0
 3863              	.LLST24:
 3864 0291 00000000 		.4byte	.LVL57
 3865 0295 24000000 		.4byte	.LVL60
 3866 0299 0100     		.2byte	0x1
 3867 029b 50       		.byte	0x50
 3868 029c 24000000 		.4byte	.LVL60
ARM GAS  /var/folders/dt/0wfd0knj7gs46m8vwfzktm600000gn/T//ccIBf9CX.s 			page 69


 3869 02a0 34000000 		.4byte	.LFE71
 3870 02a4 0400     		.2byte	0x4
 3871 02a6 F3       		.byte	0xf3
 3872 02a7 01       		.uleb128 0x1
 3873 02a8 50       		.byte	0x50
 3874 02a9 9F       		.byte	0x9f
 3875 02aa 00000000 		.4byte	0
 3876 02ae 00000000 		.4byte	0
 3877              	.LLST25:
 3878 02b2 0A000000 		.4byte	.LVL58
 3879 02b6 14000000 		.4byte	.LVL59
 3880 02ba 0100     		.2byte	0x1
 3881 02bc 53       		.byte	0x53
 3882 02bd 14000000 		.4byte	.LVL59
 3883 02c1 24000000 		.4byte	.LVL60
 3884 02c5 0300     		.2byte	0x3
 3885 02c7 70       		.byte	0x70
 3886 02c8 F400     		.sleb128 116
 3887 02ca 24000000 		.4byte	.LVL60
 3888 02ce 2D000000 		.4byte	.LVL61-1
 3889 02d2 0500     		.2byte	0x5
 3890 02d4 F3       		.byte	0xf3
 3891 02d5 01       		.uleb128 0x1
 3892 02d6 50       		.byte	0x50
 3893 02d7 23       		.byte	0x23
 3894 02d8 74       		.uleb128 0x74
 3895 02d9 00000000 		.4byte	0
 3896 02dd 00000000 		.4byte	0
 3897              		.section	.debug_aranges,"",%progbits
 3898 0000 3C000000 		.4byte	0x3c
 3899 0004 0200     		.2byte	0x2
 3900 0006 00000000 		.4byte	.Ldebug_info0
 3901 000a 04       		.byte	0x4
 3902 000b 00       		.byte	0
 3903 000c 0000     		.2byte	0
 3904 000e 0000     		.2byte	0
 3905 0010 00000000 		.4byte	.LFB67
 3906 0014 14000000 		.4byte	.LFE67-.LFB67
 3907 0018 00000000 		.4byte	.LFB68
 3908 001c 30010000 		.4byte	.LFE68-.LFB68
 3909 0020 00000000 		.4byte	.LFB69
 3910 0024 26000000 		.4byte	.LFE69-.LFB69
 3911 0028 00000000 		.4byte	.LFB70
 3912 002c 7C000000 		.4byte	.LFE70-.LFB70
 3913 0030 00000000 		.4byte	.LFB71
 3914 0034 34000000 		.4byte	.LFE71-.LFB71
 3915 0038 00000000 		.4byte	0
 3916 003c 00000000 		.4byte	0
 3917              		.section	.debug_ranges,"",%progbits
 3918              	.Ldebug_ranges0:
 3919 0000 02000000 		.4byte	.LBB30
 3920 0004 6C000000 		.4byte	.LBE30
 3921 0008 74000000 		.4byte	.LBB46
 3922 000c 30010000 		.4byte	.LBE46
 3923 0010 00000000 		.4byte	0
 3924 0014 00000000 		.4byte	0
 3925 0018 02000000 		.4byte	.LBB31
ARM GAS  /var/folders/dt/0wfd0knj7gs46m8vwfzktm600000gn/T//ccIBf9CX.s 			page 70


 3926 001c 6C000000 		.4byte	.LBE31
 3927 0020 74000000 		.4byte	.LBB45
 3928 0024 30010000 		.4byte	.LBE45
 3929 0028 00000000 		.4byte	0
 3930 002c 00000000 		.4byte	0
 3931 0030 00000000 		.4byte	.LFB67
 3932 0034 14000000 		.4byte	.LFE67
 3933 0038 00000000 		.4byte	.LFB68
 3934 003c 30010000 		.4byte	.LFE68
 3935 0040 00000000 		.4byte	.LFB69
 3936 0044 26000000 		.4byte	.LFE69
 3937 0048 00000000 		.4byte	.LFB70
 3938 004c 7C000000 		.4byte	.LFE70
 3939 0050 00000000 		.4byte	.LFB71
 3940 0054 34000000 		.4byte	.LFE71
 3941 0058 00000000 		.4byte	0
 3942 005c 00000000 		.4byte	0
 3943              		.section	.debug_line,"",%progbits
 3944              	.Ldebug_line0:
 3945 0000 4F030000 		.section	.debug_str,"MS",%progbits,1
 3945      02007B02 
 3945      00000201 
 3945      FB0E0D00 
 3945      01010101 
 3946              	.LASF87:
 3947 0000 5056445F 		.ascii	"PVD_IRQn\000"
 3947      4952516E 
 3947      00
 3948              	.LASF143:
 3949 0009 43414E32 		.ascii	"CAN2_RX0_IRQn\000"
 3949      5F525830 
 3949      5F495251 
 3949      6E00
 3950              	.LASF42:
 3951 0017 705F7265 		.ascii	"p_realprio\000"
 3951      616C7072 
 3951      696F00
 3952              	.LASF2:
 3953 0022 73697A65 		.ascii	"size_t\000"
 3953      5F7400
 3954              	.LASF109:
 3955 0029 45585449 		.ascii	"EXTI9_5_IRQn\000"
 3955      395F355F 
 3955      4952516E 
 3955      00
 3956              	.LASF61:
 3957 0036 7264796D 		.ascii	"rdymsg\000"
 3957      736700
 3958              	.LASF77:
 3959 003d 4F757470 		.ascii	"OutputQueue\000"
 3959      75745175 
 3959      65756500 
 3960              	.LASF117:
 3961 0049 49324331 		.ascii	"I2C1_EV_IRQn\000"
 3961      5F45565F 
 3961      4952516E 
 3961      00
ARM GAS  /var/folders/dt/0wfd0knj7gs46m8vwfzktm600000gn/T//ccIBf9CX.s 			page 71


 3962              	.LASF127:
 3963 0056 5254435F 		.ascii	"RTC_Alarm_IRQn\000"
 3963      416C6172 
 3963      6D5F4952 
 3963      516E00
 3964              	.LASF186:
 3965 0065 7365745F 		.ascii	"set_error\000"
 3965      6572726F 
 3965      7200
 3966              	.LASF111:
 3967 006f 54494D31 		.ascii	"TIM1_UP_IRQn\000"
 3967      5F55505F 
 3967      4952516E 
 3967      00
 3968              	.LASF198:
 3969 007c 6E766963 		.ascii	"nvicEnableVector\000"
 3969      456E6162 
 3969      6C655665 
 3969      63746F72 
 3969      00
 3970              	.LASF107:
 3971 008d 43414E31 		.ascii	"CAN1_RX1_IRQn\000"
 3971      5F525831 
 3971      5F495251 
 3971      6E00
 3972              	.LASF13:
 3973 009b 6C6F6E67 		.ascii	"long long unsigned int\000"
 3973      206C6F6E 
 3973      6720756E 
 3973      7369676E 
 3973      65642069 
 3974              	.LASF135:
 3975 00b2 444D4132 		.ascii	"DMA2_Channel1_IRQn\000"
 3975      5F436861 
 3975      6E6E656C 
 3975      315F4952 
 3975      516E00
 3976              	.LASF22:
 3977 00c5 666C6167 		.ascii	"flagsmask_t\000"
 3977      736D6173 
 3977      6B5F7400 
 3978              	.LASF62:
 3979 00d1 65786974 		.ascii	"exitcode\000"
 3979      636F6465 
 3979      00
 3980              	.LASF120:
 3981 00da 49324332 		.ascii	"I2C2_ER_IRQn\000"
 3981      5F45525F 
 3981      4952516E 
 3981      00
 3982              	.LASF116:
 3983 00e7 54494D34 		.ascii	"TIM4_IRQn\000"
 3983      5F495251 
 3983      6E00
 3984              	.LASF194:
 3985 00f1 49544D5F 		.ascii	"ITM_RxBuffer\000"
 3985      52784275 
ARM GAS  /var/folders/dt/0wfd0knj7gs46m8vwfzktm600000gn/T//ccIBf9CX.s 			page 72


 3985      66666572 
 3985      00
 3986              	.LASF86:
 3987 00fe 57574447 		.ascii	"WWDG_IRQn\000"
 3987      5F495251 
 3987      6E00
 3988              	.LASF197:
 3989 0108 73644F62 		.ascii	"sdObjectInit\000"
 3989      6A656374 
 3989      496E6974 
 3989      00
 3990              	.LASF184:
 3991 0115 72656164 		.ascii	"readt\000"
 3991      7400
 3992              	.LASF67:
 3993 011b 715F7761 		.ascii	"q_waiting\000"
 3993      6974696E 
 3993      6700
 3994              	.LASF12:
 3995 0125 6C6F6E67 		.ascii	"long long int\000"
 3995      206C6F6E 
 3995      6720696E 
 3995      7400
 3996              	.LASF1:
 3997 0133 7369676E 		.ascii	"signed char\000"
 3997      65642063 
 3997      68617200 
 3998              	.LASF144:
 3999 013f 43414E32 		.ascii	"CAN2_RX1_IRQn\000"
 3999      5F525831 
 3999      5F495251 
 3999      6E00
 4000              	.LASF163:
 4001 014d 47545052 		.ascii	"GTPR\000"
 4001      00
 4002              	.LASF32:
 4003 0152 705F7374 		.ascii	"p_state\000"
 4003      61746500 
 4004              	.LASF43:
 4005 015a 705F6D70 		.ascii	"p_mpool\000"
 4005      6F6F6C00 
 4006              	.LASF51:
 4007 0162 6D5F7175 		.ascii	"m_queue\000"
 4007      65756500 
 4008              	.LASF18:
 4009 016a 74736C69 		.ascii	"tslices_t\000"
 4009      6365735F 
 4009      7400
 4010              	.LASF139:
 4011 0174 444D4132 		.ascii	"DMA2_Channel5_IRQn\000"
 4011      5F436861 
 4011      6E6E656C 
 4011      355F4952 
 4011      516E00
 4012              	.LASF204:
 4013 0187 64656661 		.ascii	"default_config\000"
 4013      756C745F 
ARM GAS  /var/folders/dt/0wfd0knj7gs46m8vwfzktm600000gn/T//ccIBf9CX.s 			page 73


 4013      636F6E66 
 4013      696700
 4014              	.LASF172:
 4015 0196 73746174 		.ascii	"state\000"
 4015      6500
 4016              	.LASF9:
 4017 019c 6C6F6E67 		.ascii	"long int\000"
 4017      20696E74 
 4017      00
 4018              	.LASF201:
 4019 01a5 2F557365 		.ascii	"/Users/toxygen/dev/chibi/ChibiOS_2.6.1/demos/ARMCM3"
 4019      72732F74 
 4019      6F787967 
 4019      656E2F64 
 4019      65762F63 
 4020 01d8 2D53544D 		.ascii	"-STM32F107\000"
 4020      33324631 
 4020      303700
 4021              	.LASF148:
 4022 01e3 41504232 		.ascii	"APB2RSTR\000"
 4022      52535452 
 4022      00
 4023              	.LASF16:
 4024 01ec 74737461 		.ascii	"tstate_t\000"
 4024      74655F74 
 4024      00
 4025              	.LASF205:
 4026 01f5 63684F51 		.ascii	"chOQGetI\000"
 4026      47657449 
 4026      00
 4027              	.LASF34:
 4028 01fe 705F7265 		.ascii	"p_refs\000"
 4028      667300
 4029              	.LASF69:
 4030 0205 715F6275 		.ascii	"q_buffer\000"
 4030      66666572 
 4030      00
 4031              	.LASF141:
 4032 020e 4554485F 		.ascii	"ETH_WKUP_IRQn\000"
 4032      574B5550 
 4032      5F495251 
 4032      6E00
 4033              	.LASF71:
 4034 021c 715F7772 		.ascii	"q_wrptr\000"
 4034      70747200 
 4035              	.LASF195:
 4036 0224 63684576 		.ascii	"chEvtBroadcastFlagsI\000"
 4036      7442726F 
 4036      61646361 
 4036      7374466C 
 4036      61677349 
 4037              	.LASF104:
 4038 0239 41444331 		.ascii	"ADC1_2_IRQn\000"
 4038      5F325F49 
 4038      52516E00 
 4039              	.LASF29:
 4040 0245 705F6E65 		.ascii	"p_newer\000"
ARM GAS  /var/folders/dt/0wfd0knj7gs46m8vwfzktm600000gn/T//ccIBf9CX.s 			page 74


 4040      77657200 
 4041              	.LASF66:
 4042 024d 47656E65 		.ascii	"GenericQueue\000"
 4042      72696351 
 4042      75657565 
 4042      00
 4043              	.LASF131:
 4044 025a 55415254 		.ascii	"UART4_IRQn\000"
 4044      345F4952 
 4044      516E00
 4045              	.LASF128:
 4046 0265 4F54475F 		.ascii	"OTG_FS_WKUP_IRQn\000"
 4046      46535F57 
 4046      4B55505F 
 4046      4952516E 
 4046      00
 4047              	.LASF84:
 4048 0276 50656E64 		.ascii	"PendSV_IRQn\000"
 4048      53565F49 
 4048      52516E00 
 4049              	.LASF46:
 4050 0282 72656761 		.ascii	"regarm_t\000"
 4050      726D5F74 
 4050      00
 4051              	.LASF75:
 4052 028b 716E6F74 		.ascii	"qnotify_t\000"
 4052      6966795F 
 4052      7400
 4053              	.LASF185:
 4054 0295 75736172 		.ascii	"usart_deinit\000"
 4054      745F6465 
 4054      696E6974 
 4054      00
 4055              	.LASF59:
 4056 02a2 4576656E 		.ascii	"EventSource\000"
 4056      74536F75 
 4056      72636500 
 4057              	.LASF106:
 4058 02ae 43414E31 		.ascii	"CAN1_RX0_IRQn\000"
 4058      5F525830 
 4058      5F495251 
 4058      6E00
 4059              	.LASF175:
 4060 02bc 75736172 		.ascii	"usart\000"
 4060      7400
 4061              	.LASF0:
 4062 02c2 756E7369 		.ascii	"unsigned int\000"
 4062      676E6564 
 4062      20696E74 
 4062      00
 4063              	.LASF6:
 4064 02cf 75696E74 		.ascii	"uint16_t\000"
 4064      31365F74 
 4064      00
 4065              	.LASF178:
 4066 02d8 53657269 		.ascii	"SerialDriverVMT\000"
 4066      616C4472 
ARM GAS  /var/folders/dt/0wfd0knj7gs46m8vwfzktm600000gn/T//ccIBf9CX.s 			page 75


 4066      69766572 
 4066      564D5400 
 4067              	.LASF36:
 4068 02e8 705F7469 		.ascii	"p_time\000"
 4068      6D6500
 4069              	.LASF79:
 4070 02ef 4D656D6F 		.ascii	"MemoryManagement_IRQn\000"
 4070      72794D61 
 4070      6E616765 
 4070      6D656E74 
 4070      5F495251 
 4071              	.LASF173:
 4072 0305 69717565 		.ascii	"iqueue\000"
 4072      756500
 4073              	.LASF38:
 4074 030c 705F6D73 		.ascii	"p_msgqueue\000"
 4074      67717565 
 4074      756500
 4075              	.LASF189:
 4076 0317 73645F6C 		.ascii	"sd_lld_init\000"
 4076      6C645F69 
 4076      6E697400 
 4077              	.LASF182:
 4078 0323 67657474 		.ascii	"gett\000"
 4078      00
 4079              	.LASF171:
 4080 0328 6576656E 		.ascii	"event\000"
 4080      7400
 4081              	.LASF101:
 4082 032e 444D4131 		.ascii	"DMA1_Channel5_IRQn\000"
 4082      5F436861 
 4082      6E6E656C 
 4082      355F4952 
 4082      516E00
 4083              	.LASF7:
 4084 0341 73686F72 		.ascii	"short unsigned int\000"
 4084      7420756E 
 4084      7369676E 
 4084      65642069 
 4084      6E7400
 4085              	.LASF112:
 4086 0354 54494D31 		.ascii	"TIM1_TRG_COM_IRQn\000"
 4086      5F545247 
 4086      5F434F4D 
 4086      5F495251 
 4086      6E00
 4087              	.LASF105:
 4088 0366 43414E31 		.ascii	"CAN1_TX_IRQn\000"
 4088      5F54585F 
 4088      4952516E 
 4088      00
 4089              	.LASF20:
 4090 0373 6D73675F 		.ascii	"msg_t\000"
 4090      7400
 4091              	.LASF174:
 4092 0379 6F717565 		.ascii	"oqueue\000"
 4092      756500
ARM GAS  /var/folders/dt/0wfd0knj7gs46m8vwfzktm600000gn/T//ccIBf9CX.s 			page 76


 4093              	.LASF126:
 4094 0380 45585449 		.ascii	"EXTI15_10_IRQn\000"
 4094      31355F31 
 4094      305F4952 
 4094      516E00
 4095              	.LASF121:
 4096 038f 53504931 		.ascii	"SPI1_IRQn\000"
 4096      5F495251 
 4096      6E00
 4097              	.LASF165:
 4098 0399 55534152 		.ascii	"USART_TypeDef\000"
 4098      545F5479 
 4098      70654465 
 4098      6600
 4099              	.LASF183:
 4100 03a7 77726974 		.ascii	"writet\000"
 4100      657400
 4101              	.LASF15:
 4102 03ae 746D6F64 		.ascii	"tmode_t\000"
 4102      655F7400 
 4103              	.LASF45:
 4104 03b6 54687265 		.ascii	"ThreadsList\000"
 4104      6164734C 
 4104      69737400 
 4105              	.LASF21:
 4106 03c2 6576656E 		.ascii	"eventmask_t\000"
 4106      746D6173 
 4106      6B5F7400 
 4107              	.LASF76:
 4108 03ce 496E7075 		.ascii	"InputQueue\000"
 4108      74517565 
 4108      756500
 4109              	.LASF176:
 4110 03d9 73706565 		.ascii	"speed\000"
 4110      6400
 4111              	.LASF100:
 4112 03df 444D4131 		.ascii	"DMA1_Channel4_IRQn\000"
 4112      5F436861 
 4112      6E6E656C 
 4112      345F4952 
 4112      516E00
 4113              	.LASF85:
 4114 03f2 53797354 		.ascii	"SysTick_IRQn\000"
 4114      69636B5F 
 4114      4952516E 
 4114      00
 4115              	.LASF113:
 4116 03ff 54494D31 		.ascii	"TIM1_CC_IRQn\000"
 4116      5F43435F 
 4116      4952516E 
 4116      00
 4117              	.LASF188:
 4118 040c 56656374 		.ascii	"VectorDC\000"
 4118      6F724443 
 4118      00
 4119              	.LASF179:
 4120 0415 77726974 		.ascii	"write\000"
ARM GAS  /var/folders/dt/0wfd0knj7gs46m8vwfzktm600000gn/T//ccIBf9CX.s 			page 77


 4120      6500
 4121              	.LASF202:
 4122 041b 4952516E 		.ascii	"IRQn\000"
 4122      00
 4123              	.LASF181:
 4124 0420 70757474 		.ascii	"putt\000"
 4124      00
 4125              	.LASF190:
 4126 0425 75736172 		.ascii	"usart_init\000"
 4126      745F696E 
 4126      697400
 4127              	.LASF98:
 4128 0430 444D4131 		.ascii	"DMA1_Channel2_IRQn\000"
 4128      5F436861 
 4128      6E6E656C 
 4128      325F4952 
 4128      516E00
 4129              	.LASF49:
 4130 0443 73697A65 		.ascii	"sizetype\000"
 4130      74797065 
 4130      00
 4131              	.LASF140:
 4132 044c 4554485F 		.ascii	"ETH_IRQn\000"
 4132      4952516E 
 4132      00
 4133              	.LASF68:
 4134 0455 715F636F 		.ascii	"q_counter\000"
 4134      756E7465 
 4134      7200
 4135              	.LASF50:
 4136 045f 4D757465 		.ascii	"Mutex\000"
 4136      7800
 4137              	.LASF136:
 4138 0465 444D4132 		.ascii	"DMA2_Channel2_IRQn\000"
 4138      5F436861 
 4138      6E6E656C 
 4138      325F4952 
 4138      516E00
 4139              	.LASF25:
 4140 0478 705F6E65 		.ascii	"p_next\000"
 4140      787400
 4141              	.LASF129:
 4142 047f 54494D35 		.ascii	"TIM5_IRQn\000"
 4142      5F495251 
 4142      6E00
 4143              	.LASF83:
 4144 0489 44656275 		.ascii	"DebugMonitor_IRQn\000"
 4144      674D6F6E 
 4144      69746F72 
 4144      5F495251 
 4144      6E00
 4145              	.LASF122:
 4146 049b 53504932 		.ascii	"SPI2_IRQn\000"
 4146      5F495251 
 4146      6E00
 4147              	.LASF142:
 4148 04a5 43414E32 		.ascii	"CAN2_TX_IRQn\000"
ARM GAS  /var/folders/dt/0wfd0knj7gs46m8vwfzktm600000gn/T//ccIBf9CX.s 			page 78


 4148      5F54585F 
 4148      4952516E 
 4148      00
 4149              	.LASF44:
 4150 04b2 54687265 		.ascii	"ThreadsQueue\000"
 4150      61647351 
 4150      75657565 
 4150      00
 4151              	.LASF146:
 4152 04bf 4F54475F 		.ascii	"OTG_FS_IRQn\000"
 4152      46535F49 
 4152      52516E00 
 4153              	.LASF137:
 4154 04cb 444D4132 		.ascii	"DMA2_Channel3_IRQn\000"
 4154      5F436861 
 4154      6E6E656C 
 4154      335F4952 
 4154      516E00
 4155              	.LASF154:
 4156 04de 41484252 		.ascii	"AHBRSTR\000"
 4156      53545200 
 4157              	.LASF199:
 4158 04e6 474E5520 		.ascii	"GNU C 4.7.2\000"
 4158      4320342E 
 4158      372E3200 
 4159              	.LASF149:
 4160 04f2 41504231 		.ascii	"APB1RSTR\000"
 4160      52535452 
 4160      00
 4161              	.LASF57:
 4162 04fb 656C5F6D 		.ascii	"el_mask\000"
 4162      61736B00 
 4163              	.LASF177:
 4164 0503 53657269 		.ascii	"SerialConfig\000"
 4164      616C436F 
 4164      6E666967 
 4164      00
 4165              	.LASF203:
 4166 0510 6E6F7469 		.ascii	"notify3\000"
 4166      66793300 
 4167              	.LASF97:
 4168 0518 444D4131 		.ascii	"DMA1_Channel1_IRQn\000"
 4168      5F436861 
 4168      6E6E656C 
 4168      315F4952 
 4168      516E00
 4169              	.LASF17:
 4170 052b 74726566 		.ascii	"trefs_t\000"
 4170      735F7400 
 4171              	.LASF157:
 4172 0533 52455345 		.ascii	"RESERVED0\000"
 4172      52564544 
 4172      3000
 4173              	.LASF158:
 4174 053d 52455345 		.ascii	"RESERVED1\000"
 4174      52564544 
 4174      3100
ARM GAS  /var/folders/dt/0wfd0knj7gs46m8vwfzktm600000gn/T//ccIBf9CX.s 			page 79


 4175              	.LASF159:
 4176 0547 52455345 		.ascii	"RESERVED2\000"
 4176      52564544 
 4176      3200
 4177              	.LASF160:
 4178 0551 52455345 		.ascii	"RESERVED3\000"
 4178      52564544 
 4178      3300
 4179              	.LASF161:
 4180 055b 52455345 		.ascii	"RESERVED4\000"
 4180      52564544 
 4180      3400
 4181              	.LASF26:
 4182 0565 705F7072 		.ascii	"p_prev\000"
 4182      657600
 4183              	.LASF164:
 4184 056c 52455345 		.ascii	"RESERVED6\000"
 4184      52564544 
 4184      3600
 4185              	.LASF19:
 4186 0576 74707269 		.ascii	"tprio_t\000"
 4186      6F5F7400 
 4187              	.LASF72:
 4188 057e 715F7264 		.ascii	"q_rdptr\000"
 4188      70747200 
 4189              	.LASF82:
 4190 0586 53564361 		.ascii	"SVCall_IRQn\000"
 4190      6C6C5F49 
 4190      52516E00 
 4191              	.LASF14:
 4192 0592 5F426F6F 		.ascii	"_Bool\000"
 4192      6C00
 4193              	.LASF8:
 4194 0598 696E7433 		.ascii	"int32_t\000"
 4194      325F7400 
 4195              	.LASF4:
 4196 05a0 756E7369 		.ascii	"unsigned char\000"
 4196      676E6564 
 4196      20636861 
 4196      7200
 4197              	.LASF192:
 4198 05ae 73645F6C 		.ascii	"sd_lld_start\000"
 4198      6C645F73 
 4198      74617274 
 4198      00
 4199              	.LASF56:
 4200 05bb 656C5F6C 		.ascii	"el_listener\000"
 4200      69737465 
 4200      6E657200 
 4201              	.LASF58:
 4202 05c7 656C5F66 		.ascii	"el_flags\000"
 4202      6C616773 
 4202      00
 4203              	.LASF96:
 4204 05d0 45585449 		.ascii	"EXTI4_IRQn\000"
 4204      345F4952 
 4204      516E00
ARM GAS  /var/folders/dt/0wfd0knj7gs46m8vwfzktm600000gn/T//ccIBf9CX.s 			page 80


 4205              	.LASF41:
 4206 05db 705F6D74 		.ascii	"p_mtxlist\000"
 4206      786C6973 
 4206      7400
 4207              	.LASF5:
 4208 05e5 73686F72 		.ascii	"short int\000"
 4208      7420696E 
 4208      7400
 4209              	.LASF35:
 4210 05ef 705F7072 		.ascii	"p_preempt\000"
 4210      65656D70 
 4210      7400
 4211              	.LASF30:
 4212 05f9 705F6F6C 		.ascii	"p_older\000"
 4212      64657200 
 4213              	.LASF132:
 4214 0601 55415254 		.ascii	"UART5_IRQn\000"
 4214      355F4952 
 4214      516E00
 4215              	.LASF99:
 4216 060c 444D4131 		.ascii	"DMA1_Channel3_IRQn\000"
 4216      5F436861 
 4216      6E6E656C 
 4216      335F4952 
 4216      516E00
 4217              	.LASF64:
 4218 061f 65776D61 		.ascii	"ewmask\000"
 4218      736B00
 4219              	.LASF33:
 4220 0626 705F666C 		.ascii	"p_flags\000"
 4220      61677300 
 4221              	.LASF55:
 4222 062e 656C5F6E 		.ascii	"el_next\000"
 4222      65787400 
 4223              	.LASF94:
 4224 0636 45585449 		.ascii	"EXTI2_IRQn\000"
 4224      325F4952 
 4224      516E00
 4225              	.LASF167:
 4226 0641 53445F53 		.ascii	"SD_STOP\000"
 4226      544F5000 
 4227              	.LASF151:
 4228 0649 41504232 		.ascii	"APB2ENR\000"
 4228      454E5200 
 4229              	.LASF24:
 4230 0651 54687265 		.ascii	"Thread\000"
 4230      616400
 4231              	.LASF187:
 4232 0658 73657276 		.ascii	"serve_interrupt\000"
 4232      655F696E 
 4232      74657272 
 4232      75707400 
 4233              	.LASF90:
 4234 0668 464C4153 		.ascii	"FLASH_IRQn\000"
 4234      485F4952 
 4234      516E00
 4235              	.LASF40:
ARM GAS  /var/folders/dt/0wfd0knj7gs46m8vwfzktm600000gn/T//ccIBf9CX.s 			page 81


 4236 0673 705F6570 		.ascii	"p_epending\000"
 4236      656E6469 
 4236      6E6700
 4237              	.LASF166:
 4238 067e 53445F55 		.ascii	"SD_UNINIT\000"
 4238      4E494E49 
 4238      5400
 4239              	.LASF162:
 4240 0688 52455345 		.ascii	"RESERVED5\000"
 4240      52564544 
 4240      3500
 4241              	.LASF10:
 4242 0692 75696E74 		.ascii	"uint32_t\000"
 4242      33325F74 
 4242      00
 4243              	.LASF124:
 4244 069b 55534152 		.ascii	"USART2_IRQn\000"
 4244      54325F49 
 4244      52516E00 
 4245              	.LASF81:
 4246 06a7 55736167 		.ascii	"UsageFault_IRQn\000"
 4246      65466175 
 4246      6C745F49 
 4246      52516E00 
 4247              	.LASF170:
 4248 06b7 53657269 		.ascii	"SerialDriver\000"
 4248      616C4472 
 4248      69766572 
 4248      00
 4249              	.LASF207:
 4250 06c4 6E766963 		.ascii	"nvicDisableVector\000"
 4250      44697361 
 4250      626C6556 
 4250      6563746F 
 4250      7200
 4251              	.LASF11:
 4252 06d6 6C6F6E67 		.ascii	"long unsigned int\000"
 4252      20756E73 
 4252      69676E65 
 4252      6420696E 
 4252      7400
 4253              	.LASF180:
 4254 06e8 72656164 		.ascii	"read\000"
 4254      00
 4255              	.LASF65:
 4256 06ed 63686172 		.ascii	"char\000"
 4256      00
 4257              	.LASF138:
 4258 06f2 444D4132 		.ascii	"DMA2_Channel4_IRQn\000"
 4258      5F436861 
 4258      6E6E656C 
 4258      345F4952 
 4258      516E00
 4259              	.LASF196:
 4260 0705 7364496E 		.ascii	"sdIncomingDataI\000"
 4260      636F6D69 
 4260      6E674461 
ARM GAS  /var/folders/dt/0wfd0knj7gs46m8vwfzktm600000gn/T//ccIBf9CX.s 			page 82


 4260      74614900 
 4261              	.LASF80:
 4262 0715 42757346 		.ascii	"BusFault_IRQn\000"
 4262      61756C74 
 4262      5F495251 
 4262      6E00
 4263              	.LASF133:
 4264 0723 54494D36 		.ascii	"TIM6_IRQn\000"
 4264      5F495251 
 4264      6E00
 4265              	.LASF191:
 4266 072d 636F6E66 		.ascii	"config\000"
 4266      696700
 4267              	.LASF110:
 4268 0734 54494D31 		.ascii	"TIM1_BRK_IRQn\000"
 4268      5F42524B 
 4268      5F495251 
 4268      6E00
 4269              	.LASF134:
 4270 0742 54494D37 		.ascii	"TIM7_IRQn\000"
 4270      5F495251 
 4270      6E00
 4271              	.LASF108:
 4272 074c 43414E31 		.ascii	"CAN1_SCE_IRQn\000"
 4272      5F534345 
 4272      5F495251 
 4272      6E00
 4273              	.LASF53:
 4274 075a 6D5F6E65 		.ascii	"m_next\000"
 4274      787400
 4275              	.LASF23:
 4276 0761 73797374 		.ascii	"systime_t\000"
 4276      696D655F 
 4276      7400
 4277              	.LASF78:
 4278 076b 4E6F6E4D 		.ascii	"NonMaskableInt_IRQn\000"
 4278      61736B61 
 4278      626C6549 
 4278      6E745F49 
 4278      52516E00 
 4279              	.LASF102:
 4280 077f 444D4131 		.ascii	"DMA1_Channel6_IRQn\000"
 4280      5F436861 
 4280      6E6E656C 
 4280      365F4952 
 4280      516E00
 4281              	.LASF31:
 4282 0792 705F6E61 		.ascii	"p_name\000"
 4282      6D6500
 4283              	.LASF152:
 4284 0799 41504231 		.ascii	"APB1ENR\000"
 4284      454E5200 
 4285              	.LASF88:
 4286 07a1 54414D50 		.ascii	"TAMPER_IRQn\000"
 4286      45525F49 
 4286      52516E00 
 4287              	.LASF48:
ARM GAS  /var/folders/dt/0wfd0knj7gs46m8vwfzktm600000gn/T//ccIBf9CX.s 			page 83


 4288 07ad 636F6E74 		.ascii	"context\000"
 4288      65787400 
 4289              	.LASF156:
 4290 07b5 5243435F 		.ascii	"RCC_TypeDef\000"
 4290      54797065 
 4290      44656600 
 4291              	.LASF47:
 4292 07c1 696E7463 		.ascii	"intctx\000"
 4292      747800
 4293              	.LASF168:
 4294 07c8 53445F52 		.ascii	"SD_READY\000"
 4294      45414459 
 4294      00
 4295              	.LASF119:
 4296 07d1 49324332 		.ascii	"I2C2_EV_IRQn\000"
 4296      5F45565F 
 4296      4952516E 
 4296      00
 4297              	.LASF125:
 4298 07de 55534152 		.ascii	"USART3_IRQn\000"
 4298      54335F49 
 4298      52516E00 
 4299              	.LASF169:
 4300 07ea 73647374 		.ascii	"sdstate_t\000"
 4300      6174655F 
 4300      7400
 4301              	.LASF114:
 4302 07f4 54494D32 		.ascii	"TIM2_IRQn\000"
 4302      5F495251 
 4302      6E00
 4303              	.LASF70:
 4304 07fe 715F746F 		.ascii	"q_top\000"
 4304      7000
 4305              	.LASF92:
 4306 0804 45585449 		.ascii	"EXTI0_IRQn\000"
 4306      305F4952 
 4306      516E00
 4307              	.LASF60:
 4308 080f 65735F6E 		.ascii	"es_next\000"
 4308      65787400 
 4309              	.LASF123:
 4310 0817 55534152 		.ascii	"USART1_IRQn\000"
 4310      54315F49 
 4310      52516E00 
 4311              	.LASF153:
 4312 0823 42444352 		.ascii	"BDCR\000"
 4312      00
 4313              	.LASF73:
 4314 0828 715F6E6F 		.ascii	"q_notify\000"
 4314      74696679 
 4314      00
 4315              	.LASF95:
 4316 0831 45585449 		.ascii	"EXTI3_IRQn\000"
 4316      335F4952 
 4316      516E00
 4317              	.LASF206:
 4318 083c 5F706F72 		.ascii	"_port_irq_epilogue\000"
ARM GAS  /var/folders/dt/0wfd0knj7gs46m8vwfzktm600000gn/T//ccIBf9CX.s 			page 84


 4318      745F6972 
 4318      715F6570 
 4318      696C6F67 
 4318      756500
 4319              	.LASF39:
 4320 084f 705F6D73 		.ascii	"p_msg\000"
 4320      6700
 4321              	.LASF155:
 4322 0855 43464752 		.ascii	"CFGR2\000"
 4322      3200
 4323              	.LASF3:
 4324 085b 75696E74 		.ascii	"uint8_t\000"
 4324      385F7400 
 4325              	.LASF91:
 4326 0863 5243435F 		.ascii	"RCC_IRQn\000"
 4326      4952516E 
 4326      00
 4327              	.LASF27:
 4328 086c 705F7072 		.ascii	"p_prio\000"
 4328      696F00
 4329              	.LASF54:
 4330 0873 4576656E 		.ascii	"EventListener\000"
 4330      744C6973 
 4330      74656E65 
 4330      7200
 4331              	.LASF63:
 4332 0881 77746F62 		.ascii	"wtobjp\000"
 4332      6A7000
 4333              	.LASF103:
 4334 0888 444D4131 		.ascii	"DMA1_Channel7_IRQn\000"
 4334      5F436861 
 4334      6E6E656C 
 4334      375F4952 
 4334      516E00
 4335              	.LASF193:
 4336 089b 73645F6C 		.ascii	"sd_lld_stop\000"
 4336      6C645F73 
 4336      746F7000 
 4337              	.LASF147:
 4338 08a7 43464752 		.ascii	"CFGR\000"
 4338      00
 4339              	.LASF200:
 4340 08ac 2E2E2F2E 		.ascii	"../../os/hal/platforms/STM32/USARTv1/serial_lld.c\000"
 4340      2E2F6F73 
 4340      2F68616C 
 4340      2F706C61 
 4340      74666F72 
 4341              	.LASF118:
 4342 08de 49324331 		.ascii	"I2C1_ER_IRQn\000"
 4342      5F45525F 
 4342      4952516E 
 4342      00
 4343              	.LASF89:
 4344 08eb 5254435F 		.ascii	"RTC_IRQn\000"
 4344      4952516E 
 4344      00
 4345              	.LASF130:
ARM GAS  /var/folders/dt/0wfd0knj7gs46m8vwfzktm600000gn/T//ccIBf9CX.s 			page 85


 4346 08f4 53504933 		.ascii	"SPI3_IRQn\000"
 4346      5F495251 
 4346      6E00
 4347              	.LASF74:
 4348 08fe 715F6C69 		.ascii	"q_link\000"
 4348      6E6B00
 4349              	.LASF115:
 4350 0905 54494D33 		.ascii	"TIM3_IRQn\000"
 4350      5F495251 
 4350      6E00
 4351              	.LASF52:
 4352 090f 6D5F6F77 		.ascii	"m_owner\000"
 4352      6E657200 
 4353              	.LASF145:
 4354 0917 43414E32 		.ascii	"CAN2_SCE_IRQn\000"
 4354      5F534345 
 4354      5F495251 
 4354      6E00
 4355              	.LASF28:
 4356 0925 705F6374 		.ascii	"p_ctx\000"
 4356      7800
 4357              	.LASF37:
 4358 092b 705F7761 		.ascii	"p_waiting\000"
 4358      6974696E 
 4358      6700
 4359              	.LASF150:
 4360 0935 41484245 		.ascii	"AHBENR\000"
 4360      4E5200
 4361              	.LASF93:
 4362 093c 45585449 		.ascii	"EXTI1_IRQn\000"
 4362      315F4952 
 4362      516E00
 4363              		.ident	"GCC: (GNU) 4.7.2"
ARM GAS  /var/folders/dt/0wfd0knj7gs46m8vwfzktm600000gn/T//ccIBf9CX.s 			page 86


DEFINED SYMBOLS
                            *ABS*:0000000000000000 serial_lld.c
/var/folders/dt/0wfd0knj7gs46m8vwfzktm600000gn/T//ccIBf9CX.s:19     .text.notify3:0000000000000000 $t
/var/folders/dt/0wfd0knj7gs46m8vwfzktm600000gn/T//ccIBf9CX.s:24     .text.notify3:0000000000000000 notify3
/var/folders/dt/0wfd0knj7gs46m8vwfzktm600000gn/T//ccIBf9CX.s:45     .text.VectorDC:0000000000000000 $t
/var/folders/dt/0wfd0knj7gs46m8vwfzktm600000gn/T//ccIBf9CX.s:51     .text.VectorDC:0000000000000000 VectorDC
/var/folders/dt/0wfd0knj7gs46m8vwfzktm600000gn/T//ccIBf9CX.s:346    .text.VectorDC:0000000000000124 $d
/var/folders/dt/0wfd0knj7gs46m8vwfzktm600000gn/T//ccIBf9CX.s:356    .text.sd_lld_init:0000000000000000 $t
/var/folders/dt/0wfd0knj7gs46m8vwfzktm600000gn/T//ccIBf9CX.s:362    .text.sd_lld_init:0000000000000000 sd_lld_init
/var/folders/dt/0wfd0knj7gs46m8vwfzktm600000gn/T//ccIBf9CX.s:581    .bss.SD3:0000000000000000 .LANCHOR0
/var/folders/dt/0wfd0knj7gs46m8vwfzktm600000gn/T//ccIBf9CX.s:391    .text.sd_lld_start:0000000000000000 $t
/var/folders/dt/0wfd0knj7gs46m8vwfzktm600000gn/T//ccIBf9CX.s:397    .text.sd_lld_start:0000000000000000 sd_lld_start
/var/folders/dt/0wfd0knj7gs46m8vwfzktm600000gn/T//ccIBf9CX.s:500    .text.sd_lld_start:0000000000000074 $d
/var/folders/dt/0wfd0knj7gs46m8vwfzktm600000gn/T//ccIBf9CX.s:506    .text.sd_lld_stop:0000000000000000 $t
/var/folders/dt/0wfd0knj7gs46m8vwfzktm600000gn/T//ccIBf9CX.s:512    .text.sd_lld_stop:0000000000000000 sd_lld_stop
/var/folders/dt/0wfd0knj7gs46m8vwfzktm600000gn/T//ccIBf9CX.s:563    .text.sd_lld_stop:0000000000000030 $d
/var/folders/dt/0wfd0knj7gs46m8vwfzktm600000gn/T//ccIBf9CX.s:584    .bss.SD3:0000000000000000 SD3
/var/folders/dt/0wfd0knj7gs46m8vwfzktm600000gn/T//ccIBf9CX.s:569    .rodata.default_config:0000000000000000 $d
/var/folders/dt/0wfd0knj7gs46m8vwfzktm600000gn/T//ccIBf9CX.s:573    .rodata.default_config:0000000000000000 default_config
/var/folders/dt/0wfd0knj7gs46m8vwfzktm600000gn/T//ccIBf9CX.s:580    .bss.SD3:0000000000000000 $d
                     .debug_frame:0000000000000010 $d
/var/folders/dt/0wfd0knj7gs46m8vwfzktm600000gn/T//ccIBf9CX.s:505    .text.sd_lld_start:000000000000007c $t
/var/folders/dt/0wfd0knj7gs46m8vwfzktm600000gn/T//ccIBf9CX.s:568    .text.sd_lld_stop:0000000000000034 $t

UNDEFINED SYMBOLS
chEvtBroadcastFlagsI
_port_irq_epilogue
sdIncomingDataI
chOQGetI
sdObjectInit
nvicEnableVector
nvicDisableVector
