ARM GAS  /var/folders/dt/0wfd0knj7gs46m8vwfzktm600000gn/T//ccC81MWx.s 			page 1


   1              		.syntax unified
   2              		.cpu cortex-m3
   3              		.fpu softvfp
   4              		.eabi_attribute 20, 1
   5              		.eabi_attribute 21, 1
   6              		.eabi_attribute 23, 3
   7              		.eabi_attribute 24, 1
   8              		.eabi_attribute 25, 1
   9              		.eabi_attribute 26, 1
  10              		.eabi_attribute 30, 2
  11              		.eabi_attribute 34, 1
  12              		.eabi_attribute 18, 4
  13              		.thumb
  14              		.file	"testthd.c"
  15              		.text
  16              	.Ltext0:
  17              		.cfi_sections	.debug_frame
  18              		.section	.text.thd3_execute,"ax",%progbits
  19              		.align	2
  20              		.p2align 4,,15
  21              		.thumb
  22              		.thumb_func
  23              		.type	thd3_execute, %function
  24              	thd3_execute:
  25              	.LFB10:
  26              		.file 1 "../../test/testthd.c"
  27              		.loc 1 126 0
  28              		.cfi_startproc
  29              		@ args = 0, pretend = 0, frame = 0
  30              		@ frame_needed = 0, uses_anonymous_args = 0
  31 0000 F8B5     		push	{r3, r4, r5, r6, r7, lr}
  32              	.LCFI0:
  33              		.cfi_def_cfa_offset 24
  34              		.cfi_offset 3, -24
  35              		.cfi_offset 4, -20
  36              		.cfi_offset 5, -16
  37              		.cfi_offset 6, -12
  38              		.cfi_offset 7, -8
  39              		.cfi_offset 14, -4
  40              		.loc 1 129 0
  41 0002 4D4E     		ldr	r6, .L7
  42 0004 B369     		ldr	r3, [r6, #24]
  43 0006 9C68     		ldr	r4, [r3, #8]
  44              	.LVL0:
  45              		.loc 1 130 0
  46 0008 651C     		adds	r5, r4, #1
  47 000a 2846     		mov	r0, r5
  48 000c FFF7FEFF 		bl	chThdSetPriority
  49              	.LVL1:
  50              		.loc 1 131 0
  51 0010 021B     		subs	r2, r0, r4
  52 0012 5142     		rsbs	r1, r2, #0
  53 0014 5141     		adcs	r1, r1, r2
  54              		.loc 1 130 0
  55 0016 0746     		mov	r7, r0
  56              	.LVL2:
  57              		.loc 1 131 0
ARM GAS  /var/folders/dt/0wfd0knj7gs46m8vwfzktm600000gn/T//ccC81MWx.s 			page 2


  58 0018 0120     		movs	r0, #1
  59              	.LVL3:
  60 001a FFF7FEFF 		bl	_test_assert
  61              	.LVL4:
  62 001e 00B1     		cbz	r0, .L6
  63              	.LVL5:
  64              	.L1:
  65 0020 F8BD     		pop	{r3, r4, r5, r6, r7, pc}
  66              	.LVL6:
  67              	.L6:
  68              		.loc 1 133 0
  69 0022 B369     		ldr	r3, [r6, #24]
  70 0024 0220     		movs	r0, #2
  71 0026 9968     		ldr	r1, [r3, #8]
  72 0028 6B1A     		subs	r3, r5, r1
  73 002a 5942     		rsbs	r1, r3, #0
  74 002c 5941     		adcs	r1, r1, r3
  75 002e FFF7FEFF 		bl	_test_assert
  76              	.LVL7:
  77 0032 0028     		cmp	r0, #0
  78 0034 F4D1     		bne	.L1
  79              		.loc 1 135 0
  80 0036 3846     		mov	r0, r7
  81 0038 FFF7FEFF 		bl	chThdSetPriority
  82              	.LVL8:
  83              		.loc 1 136 0
  84 003c B5EB000C 		subs	ip, r5, r0
  85 0040 DCF10001 		rsbs	r1, ip, #0
  86 0044 51EB0C01 		adcs	r1, r1, ip
  87 0048 0320     		movs	r0, #3
  88              	.LVL9:
  89 004a FFF7FEFF 		bl	_test_assert
  90              	.LVL10:
  91 004e 0028     		cmp	r0, #0
  92 0050 E6D1     		bne	.L1
  93              		.loc 1 138 0
  94 0052 B369     		ldr	r3, [r6, #24]
  95 0054 0420     		movs	r0, #4
  96 0056 9968     		ldr	r1, [r3, #8]
  97 0058 B1EB040E 		subs	lr, r1, r4
  98 005c DEF10001 		rsbs	r1, lr, #0
  99 0060 51EB0E01 		adcs	r1, r1, lr
 100 0064 FFF7FEFF 		bl	_test_assert
 101              	.LVL11:
 102 0068 0028     		cmp	r0, #0
 103 006a D9D1     		bne	.L1
 104              	.LBB2:
 105              		.loc 1 143 0
 106 006c 2023     		movs	r3, #32
 107              	.LVL12:
 108              	@ 143 "../../test/testthd.c" 1
 109 006e 83F31188 		msr     BASEPRI, r3
 110              	@ 0 "" 2
 111              	.LVL13:
 112              		.thumb
 113              	.LBE2:
 114              		.loc 1 144 0
ARM GAS  /var/folders/dt/0wfd0knj7gs46m8vwfzktm600000gn/T//ccC81MWx.s 			page 3


 115 0072 B269     		ldr	r2, [r6, #24]
 116              	.LBB3:
 117              		.loc 1 145 0
 118 0074 0346     		mov	r3, r0
 119              	.LVL14:
 120              	.LBE3:
 121              		.loc 1 144 0
 122 0076 9168     		ldr	r1, [r2, #8]
 123 0078 0231     		adds	r1, r1, #2
 124 007a 9160     		str	r1, [r2, #8]
 125              	.LBB4:
 126              		.loc 1 145 0
 127              	@ 145 "../../test/testthd.c" 1
 128 007c 83F31188 		msr     BASEPRI, r3
 129              	@ 0 "" 2
 130              	.LVL15:
 131              		.thumb
 132              	.LBE4:
 133              		.loc 1 146 0
 134 0080 B369     		ldr	r3, [r6, #24]
 135              	.LVL16:
 136 0082 A71C     		adds	r7, r4, #2
 137 0084 9968     		ldr	r1, [r3, #8]
 138 0086 0520     		movs	r0, #5
 139 0088 CA1B     		subs	r2, r1, r7
 140 008a 5142     		rsbs	r1, r2, #0
 141 008c 5141     		adcs	r1, r1, r2
 142 008e FFF7FEFF 		bl	_test_assert
 143              	.LVL17:
 144 0092 0028     		cmp	r0, #0
 145 0094 C4D1     		bne	.L1
 146              		.loc 1 150 0
 147 0096 2846     		mov	r0, r5
 148 0098 FFF7FEFF 		bl	chThdSetPriority
 149              	.LVL18:
 150              		.loc 1 151 0
 151 009c 031B     		subs	r3, r0, r4
 152 009e 5942     		rsbs	r1, r3, #0
 153 00a0 5941     		adcs	r1, r1, r3
 154 00a2 0620     		movs	r0, #6
 155              	.LVL19:
 156 00a4 FFF7FEFF 		bl	_test_assert
 157              	.LVL20:
 158 00a8 0028     		cmp	r0, #0
 159 00aa B9D1     		bne	.L1
 160              		.loc 1 153 0
 161 00ac B369     		ldr	r3, [r6, #24]
 162 00ae 0720     		movs	r0, #7
 163 00b0 9968     		ldr	r1, [r3, #8]
 164 00b2 B7EB010C 		subs	ip, r7, r1
 165 00b6 DCF10001 		rsbs	r1, ip, #0
 166 00ba 51EB0C01 		adcs	r1, r1, ip
 167 00be FFF7FEFF 		bl	_test_assert
 168              	.LVL21:
 169 00c2 0028     		cmp	r0, #0
 170 00c4 ACD1     		bne	.L1
 171              		.loc 1 155 0
ARM GAS  /var/folders/dt/0wfd0knj7gs46m8vwfzktm600000gn/T//ccC81MWx.s 			page 4


 172 00c6 B369     		ldr	r3, [r6, #24]
 173 00c8 0820     		movs	r0, #8
 174 00ca 196C     		ldr	r1, [r3, #64]
 175 00cc B5EB010E 		subs	lr, r5, r1
 176 00d0 DEF10001 		rsbs	r1, lr, #0
 177 00d4 51EB0E01 		adcs	r1, r1, lr
 178 00d8 FFF7FEFF 		bl	_test_assert
 179              	.LVL22:
 180 00dc 0028     		cmp	r0, #0
 181 00de 9FD1     		bne	.L1
 182              		.loc 1 159 0
 183 00e0 E71C     		adds	r7, r4, #3
 184 00e2 3846     		mov	r0, r7
 185 00e4 FFF7FEFF 		bl	chThdSetPriority
 186              	.LVL23:
 187              		.loc 1 160 0
 188 00e8 281A     		subs	r0, r5, r0
 189              	.LVL24:
 190 00ea 4142     		rsbs	r1, r0, #0
 191 00ec 4141     		adcs	r1, r1, r0
 192 00ee 0920     		movs	r0, #9
 193 00f0 FFF7FEFF 		bl	_test_assert
 194              	.LVL25:
 195 00f4 0028     		cmp	r0, #0
 196 00f6 93D1     		bne	.L1
 197              		.loc 1 162 0
 198 00f8 B369     		ldr	r3, [r6, #24]
 199 00fa 0A20     		movs	r0, #10
 200 00fc 9968     		ldr	r1, [r3, #8]
 201 00fe 7A1A     		subs	r2, r7, r1
 202 0100 5142     		rsbs	r1, r2, #0
 203 0102 5141     		adcs	r1, r1, r2
 204 0104 FFF7FEFF 		bl	_test_assert
 205              	.LVL26:
 206 0108 0028     		cmp	r0, #0
 207 010a 89D1     		bne	.L1
 208              		.loc 1 164 0
 209 010c B369     		ldr	r3, [r6, #24]
 210 010e 0B20     		movs	r0, #11
 211 0110 196C     		ldr	r1, [r3, #64]
 212 0112 7B1A     		subs	r3, r7, r1
 213 0114 5942     		rsbs	r1, r3, #0
 214 0116 5941     		adcs	r1, r1, r3
 215 0118 FFF7FEFF 		bl	_test_assert
 216              	.LVL27:
 217 011c 0028     		cmp	r0, #0
 218 011e 7FF47FAF 		bne	.L1
 219              	.LBB5:
 220              		.loc 1 167 0
 221 0122 2023     		movs	r3, #32
 222              	.LVL28:
 223              	@ 167 "../../test/testthd.c" 1
 224 0124 83F31188 		msr     BASEPRI, r3
 225              	@ 0 "" 2
 226              	.LVL29:
 227              		.thumb
 228              	.LBE5:
ARM GAS  /var/folders/dt/0wfd0knj7gs46m8vwfzktm600000gn/T//ccC81MWx.s 			page 5


 229              		.loc 1 168 0
 230 0128 B269     		ldr	r2, [r6, #24]
 231              	.LBB6:
 232              		.loc 1 170 0
 233 012a 0346     		mov	r3, r0
 234              	.LVL30:
 235              	.LBE6:
 236              		.loc 1 168 0
 237 012c 9460     		str	r4, [r2, #8]
 238              		.loc 1 169 0
 239 012e 1464     		str	r4, [r2, #64]
 240              	.LBB7:
 241              		.loc 1 170 0
 242              	@ 170 "../../test/testthd.c" 1
 243 0130 83F31188 		msr     BASEPRI, r3
 244              	@ 0 "" 2
 245              	.LVL31:
 246              		.thumb
 247 0134 74E7     		b	.L1
 248              	.L8:
 249 0136 00BF     		.align	2
 250              	.L7:
 251 0138 00000000 		.word	rlist
 252              	.LBE7:
 253              		.cfi_endproc
 254              	.LFE10:
 255              		.size	thd3_execute, .-thd3_execute
 256 013c AFF30080 		.section	.text.thd2_execute,"ax",%progbits
 257              		.align	2
 258              		.p2align 4,,15
 259              		.thumb
 260              		.thumb_func
 261              		.type	thd2_execute, %function
 262              	thd2_execute:
 263              	.LFB9:
 264              		.loc 1 94 0
 265              		.cfi_startproc
 266              		@ args = 0, pretend = 0, frame = 0
 267              		@ frame_needed = 0, uses_anonymous_args = 0
 268 0000 F0B5     		push	{r4, r5, r6, r7, lr}
 269              	.LCFI1:
 270              		.cfi_def_cfa_offset 20
 271              		.cfi_offset 4, -20
 272              		.cfi_offset 5, -16
 273              		.cfi_offset 6, -12
 274              		.cfi_offset 7, -8
 275              		.cfi_offset 14, -4
 276              		.loc 1 96 0
 277 0002 40F20007 		movw	r7, #:lower16:rlist
 278 0006 C0F20007 		movt	r7, #:upper16:rlist
 279 000a BB69     		ldr	r3, [r7, #24]
 280 000c 40F20006 		movw	r6, #:lower16:wa
 281 0010 9A68     		ldr	r2, [r3, #8]
 282 0012 40F20005 		movw	r5, #:lower16:thread
 283 0016 40F20001 		movw	r1, #:lower16:.LC0
 284              		.loc 1 94 0
 285 001a 83B0     		sub	sp, sp, #12
ARM GAS  /var/folders/dt/0wfd0knj7gs46m8vwfzktm600000gn/T//ccC81MWx.s 			page 6


 286              	.LCFI2:
 287              		.cfi_def_cfa_offset 32
 288              		.loc 1 96 0
 289 001c C0F20006 		movt	r6, #:upper16:wa
 290 0020 C0F20005 		movt	r5, #:upper16:thread
 291 0024 C0F20001 		movt	r1, #:upper16:.LC0
 292 0028 043A     		subs	r2, r2, #4
 293 002a 2B46     		mov	r3, r5
 294 002c 0091     		str	r1, [sp, #0]
 295 002e 7068     		ldr	r0, [r6, #4]
 296 0030 4FF49871 		mov	r1, #304
 297 0034 FFF7FEFF 		bl	chThdCreateStatic
 298              	.LVL32:
 299 0038 40F20004 		movw	r4, #:lower16:threads
 300              		.loc 1 97 0
 301 003c BB69     		ldr	r3, [r7, #24]
 302              		.loc 1 96 0
 303 003e C0F20004 		movt	r4, #:upper16:threads
 304              		.loc 1 97 0
 305 0042 9A68     		ldr	r2, [r3, #8]
 306 0044 3168     		ldr	r1, [r6, #0]
 307              		.loc 1 96 0
 308 0046 6060     		str	r0, [r4, #4]
 309              		.loc 1 97 0
 310 0048 40F20000 		movw	r0, #:lower16:.LC1
 311 004c C0F20000 		movt	r0, #:upper16:.LC1
 312 0050 053A     		subs	r2, r2, #5
 313 0052 2B46     		mov	r3, r5
 314 0054 0090     		str	r0, [sp, #0]
 315 0056 0846     		mov	r0, r1
 316 0058 4FF49871 		mov	r1, #304
 317 005c FFF7FEFF 		bl	chThdCreateStatic
 318              	.LVL33:
 319              		.loc 1 98 0
 320 0060 BB69     		ldr	r3, [r7, #24]
 321 0062 3169     		ldr	r1, [r6, #16]
 322 0064 9A68     		ldr	r2, [r3, #8]
 323              		.loc 1 97 0
 324 0066 2060     		str	r0, [r4, #0]
 325              		.loc 1 98 0
 326 0068 40F20000 		movw	r0, #:lower16:.LC2
 327 006c C0F20000 		movt	r0, #:upper16:.LC2
 328 0070 013A     		subs	r2, r2, #1
 329 0072 2B46     		mov	r3, r5
 330 0074 0090     		str	r0, [sp, #0]
 331 0076 0846     		mov	r0, r1
 332 0078 4FF49871 		mov	r1, #304
 333 007c FFF7FEFF 		bl	chThdCreateStatic
 334              	.LVL34:
 335              		.loc 1 99 0
 336 0080 BB69     		ldr	r3, [r7, #24]
 337 0082 F168     		ldr	r1, [r6, #12]
 338 0084 9A68     		ldr	r2, [r3, #8]
 339              		.loc 1 98 0
 340 0086 2061     		str	r0, [r4, #16]
 341              		.loc 1 99 0
 342 0088 40F20000 		movw	r0, #:lower16:.LC3
ARM GAS  /var/folders/dt/0wfd0knj7gs46m8vwfzktm600000gn/T//ccC81MWx.s 			page 7


 343 008c C0F20000 		movt	r0, #:upper16:.LC3
 344 0090 2B46     		mov	r3, r5
 345 0092 0090     		str	r0, [sp, #0]
 346 0094 023A     		subs	r2, r2, #2
 347 0096 0846     		mov	r0, r1
 348 0098 4FF49871 		mov	r1, #304
 349 009c FFF7FEFF 		bl	chThdCreateStatic
 350              	.LVL35:
 351              	.LBB8:
 352              		.loc 1 101 0
 353 00a0 2023     		movs	r3, #32
 354              	.LVL36:
 355              	.LBE8:
 356              		.loc 1 99 0
 357 00a2 E060     		str	r0, [r4, #12]
 358              	.LBB9:
 359              		.loc 1 101 0
 360              	@ 101 "../../test/testthd.c" 1
 361 00a4 83F31188 		msr     BASEPRI, r3
 362              	@ 0 "" 2
 363              	.LVL37:
 364              		.thumb
 365              	.LBE9:
 366              		.loc 1 102 0
 367 00a8 BB69     		ldr	r3, [r7, #24]
 368              	.LVL38:
 369 00aa 40F20001 		movw	r1, #:lower16:.LC4
 370 00ae 9A68     		ldr	r2, [r3, #8]
 371 00b0 C0F20001 		movt	r1, #:upper16:.LC4
 372 00b4 2B46     		mov	r3, r5
 373 00b6 0091     		str	r1, [sp, #0]
 374 00b8 B068     		ldr	r0, [r6, #8]
 375 00ba 4FF49871 		mov	r1, #304
 376 00be 033A     		subs	r2, r2, #3
 377 00c0 FFF7FEFF 		bl	chThdCreateI
 378              	.LVL39:
 379 00c4 A060     		str	r0, [r4, #8]
 380              	.LBB10:
 381              		.loc 1 103 0
 382 00c6 0023     		movs	r3, #0
 383              	.LVL40:
 384              	@ 103 "../../test/testthd.c" 1
 385 00c8 83F31188 		msr     BASEPRI, r3
 386              	@ 0 "" 2
 387              	.LVL41:
 388              		.thumb
 389              	.LBE10:
 390              		.loc 1 104 0
 391 00cc A068     		ldr	r0, [r4, #8]
 392 00ce FFF7FEFF 		bl	chThdResume
 393              	.LVL42:
 394              		.loc 1 105 0
 395 00d2 FFF7FEFF 		bl	test_wait_threads
 396              	.LVL43:
 397              		.loc 1 106 0
 398 00d6 40F20001 		movw	r1, #:lower16:.LC5
 399 00da 0120     		movs	r0, #1
ARM GAS  /var/folders/dt/0wfd0knj7gs46m8vwfzktm600000gn/T//ccC81MWx.s 			page 8


 400 00dc C0F20001 		movt	r1, #:upper16:.LC5
 401              		.loc 1 107 0
 402 00e0 03B0     		add	sp, sp, #12
 403 00e2 BDE8F040 		pop	{r4, r5, r6, r7, lr}
 404              		.loc 1 106 0
 405 00e6 FFF7FEBF 		b	_test_assert_sequence
 406              	.LVL44:
 407              		.cfi_endproc
 408              	.LFE9:
 409              		.size	thd2_execute, .-thd2_execute
 410 00ea 00BFAFF3 		.section	.text.thd1_execute,"ax",%progbits
 410      0080
 411              		.align	2
 412              		.p2align 4,,15
 413              		.thumb
 414              		.thumb_func
 415              		.type	thd1_execute, %function
 416              	thd1_execute:
 417              	.LFB8:
 418              		.loc 1 66 0
 419              		.cfi_startproc
 420              		@ args = 0, pretend = 0, frame = 0
 421              		@ frame_needed = 0, uses_anonymous_args = 0
 422 0000 2DE9F041 		push	{r4, r5, r6, r7, r8, lr}
 423              	.LCFI3:
 424              		.cfi_def_cfa_offset 24
 425              		.cfi_offset 4, -24
 426              		.cfi_offset 5, -20
 427              		.cfi_offset 6, -16
 428              		.cfi_offset 7, -12
 429              		.cfi_offset 8, -8
 430              		.cfi_offset 14, -4
 431              		.loc 1 68 0
 432 0004 40F20008 		movw	r8, #:lower16:rlist
 433 0008 C0F20008 		movt	r8, #:upper16:rlist
 434 000c D8F81830 		ldr	r3, [r8, #24]
 435 0010 40F20006 		movw	r6, #:lower16:wa
 436 0014 9A68     		ldr	r2, [r3, #8]
 437 0016 40F20005 		movw	r5, #:lower16:thread
 438 001a 40F20004 		movw	r4, #:lower16:.LC1
 439              		.loc 1 66 0
 440 001e 82B0     		sub	sp, sp, #8
 441              	.LCFI4:
 442              		.cfi_def_cfa_offset 32
 443              		.loc 1 68 0
 444 0020 C0F20005 		movt	r5, #:upper16:thread
 445 0024 C0F20006 		movt	r6, #:upper16:wa
 446 0028 C0F20004 		movt	r4, #:upper16:.LC1
 447 002c 053A     		subs	r2, r2, #5
 448 002e 2B46     		mov	r3, r5
 449 0030 0094     		str	r4, [sp, #0]
 450 0032 3068     		ldr	r0, [r6, #0]
 451 0034 4FF49871 		mov	r1, #304
 452 0038 FFF7FEFF 		bl	chThdCreateStatic
 453              	.LVL45:
 454 003c 40F20004 		movw	r4, #:lower16:threads
 455              		.loc 1 69 0
ARM GAS  /var/folders/dt/0wfd0knj7gs46m8vwfzktm600000gn/T//ccC81MWx.s 			page 9


 456 0040 D8F81830 		ldr	r3, [r8, #24]
 457              		.loc 1 68 0
 458 0044 C0F20004 		movt	r4, #:upper16:threads
 459              		.loc 1 69 0
 460 0048 9A68     		ldr	r2, [r3, #8]
 461 004a 7768     		ldr	r7, [r6, #4]
 462              		.loc 1 68 0
 463 004c 2060     		str	r0, [r4, #0]
 464              		.loc 1 69 0
 465 004e 40F20000 		movw	r0, #:lower16:.LC0
 466 0052 C0F20000 		movt	r0, #:upper16:.LC0
 467 0056 043A     		subs	r2, r2, #4
 468 0058 2B46     		mov	r3, r5
 469 005a 0090     		str	r0, [sp, #0]
 470 005c 4FF49871 		mov	r1, #304
 471 0060 3846     		mov	r0, r7
 472 0062 FFF7FEFF 		bl	chThdCreateStatic
 473              	.LVL46:
 474              		.loc 1 70 0
 475 0066 D8F81830 		ldr	r3, [r8, #24]
 476 006a B768     		ldr	r7, [r6, #8]
 477 006c 9A68     		ldr	r2, [r3, #8]
 478              		.loc 1 69 0
 479 006e 6060     		str	r0, [r4, #4]
 480              		.loc 1 70 0
 481 0070 40F20000 		movw	r0, #:lower16:.LC4
 482 0074 C0F20000 		movt	r0, #:upper16:.LC4
 483 0078 033A     		subs	r2, r2, #3
 484 007a 2B46     		mov	r3, r5
 485 007c 0090     		str	r0, [sp, #0]
 486 007e 4FF49871 		mov	r1, #304
 487 0082 3846     		mov	r0, r7
 488 0084 FFF7FEFF 		bl	chThdCreateStatic
 489              	.LVL47:
 490              		.loc 1 71 0
 491 0088 D8F81830 		ldr	r3, [r8, #24]
 492 008c F768     		ldr	r7, [r6, #12]
 493 008e 9A68     		ldr	r2, [r3, #8]
 494              		.loc 1 70 0
 495 0090 A060     		str	r0, [r4, #8]
 496              		.loc 1 71 0
 497 0092 40F20000 		movw	r0, #:lower16:.LC3
 498 0096 C0F20000 		movt	r0, #:upper16:.LC3
 499 009a 023A     		subs	r2, r2, #2
 500 009c 2B46     		mov	r3, r5
 501 009e 0090     		str	r0, [sp, #0]
 502 00a0 4FF49871 		mov	r1, #304
 503 00a4 3846     		mov	r0, r7
 504 00a6 FFF7FEFF 		bl	chThdCreateStatic
 505              	.LVL48:
 506              		.loc 1 72 0
 507 00aa D8F81830 		ldr	r3, [r8, #24]
 508 00ae 3669     		ldr	r6, [r6, #16]
 509 00b0 9A68     		ldr	r2, [r3, #8]
 510              		.loc 1 71 0
 511 00b2 E060     		str	r0, [r4, #12]
 512              		.loc 1 72 0
ARM GAS  /var/folders/dt/0wfd0knj7gs46m8vwfzktm600000gn/T//ccC81MWx.s 			page 10


 513 00b4 40F20000 		movw	r0, #:lower16:.LC2
 514 00b8 C0F20000 		movt	r0, #:upper16:.LC2
 515 00bc 4FF49871 		mov	r1, #304
 516 00c0 013A     		subs	r2, r2, #1
 517 00c2 2B46     		mov	r3, r5
 518 00c4 0090     		str	r0, [sp, #0]
 519 00c6 3046     		mov	r0, r6
 520 00c8 FFF7FEFF 		bl	chThdCreateStatic
 521              	.LVL49:
 522 00cc 2061     		str	r0, [r4, #16]
 523              		.loc 1 73 0
 524 00ce FFF7FEFF 		bl	test_wait_threads
 525              	.LVL50:
 526              		.loc 1 74 0
 527 00d2 40F20001 		movw	r1, #:lower16:.LC5
 528 00d6 0120     		movs	r0, #1
 529 00d8 C0F20001 		movt	r1, #:upper16:.LC5
 530              		.loc 1 75 0
 531 00dc 02B0     		add	sp, sp, #8
 532 00de BDE8F041 		pop	{r4, r5, r6, r7, r8, lr}
 533              		.loc 1 74 0
 534 00e2 FFF7FEBF 		b	_test_assert_sequence
 535              	.LVL51:
 536              		.cfi_endproc
 537              	.LFE8:
 538              		.size	thd1_execute, .-thd1_execute
 539 00e6 00BFAFF3 		.section	.text.thread,"ax",%progbits
 539      0080AFF3 
 539      0080
 540              		.align	2
 541              		.p2align 4,,15
 542              		.thumb
 543              		.thumb_func
 544              		.type	thread, %function
 545              	thread:
 546              	.LFB7:
 547              		.loc 1 60 0
 548              		.cfi_startproc
 549              		@ args = 0, pretend = 0, frame = 0
 550              		@ frame_needed = 0, uses_anonymous_args = 0
 551              	.LVL52:
 552 0000 08B5     		push	{r3, lr}
 553              	.LCFI5:
 554              		.cfi_def_cfa_offset 8
 555              		.cfi_offset 3, -8
 556              		.cfi_offset 14, -4
 557              		.loc 1 62 0
 558 0002 0078     		ldrb	r0, [r0, #0]	@ zero_extendqisi2
 559              	.LVL53:
 560 0004 FFF7FEFF 		bl	test_emit_token
 561              	.LVL54:
 562              		.loc 1 64 0
 563 0008 0020     		movs	r0, #0
 564 000a 08BD     		pop	{r3, pc}
 565              		.cfi_endproc
 566              	.LFE7:
 567              		.size	thread, .-thread
ARM GAS  /var/folders/dt/0wfd0knj7gs46m8vwfzktm600000gn/T//ccC81MWx.s 			page 11


 568 000c AFF30080 		.section	.text.thd4_execute,"ax",%progbits
 569              		.align	2
 570              		.p2align 4,,15
 571              		.thumb
 572              		.thumb_func
 573              		.type	thd4_execute, %function
 574              	thd4_execute:
 575              	.LFB11:
 576              		.loc 1 189 0
 577              		.cfi_startproc
 578              		@ args = 0, pretend = 0, frame = 0
 579              		@ frame_needed = 0, uses_anonymous_args = 0
 580 0000 38B5     		push	{r3, r4, r5, lr}
 581              	.LCFI6:
 582              		.cfi_def_cfa_offset 16
 583              		.cfi_offset 3, -16
 584              		.cfi_offset 4, -12
 585              		.cfi_offset 5, -8
 586              		.cfi_offset 14, -4
 587              		.loc 1 195 0
 588 0002 1C4D     		ldr	r5, .L17
 589              		.loc 1 192 0
 590 0004 FFF7FEFF 		bl	test_wait_tick
 591              	.LVL55:
 592              		.loc 1 195 0
 593 0008 EC68     		ldr	r4, [r5, #12]
 594              	.LVL56:
 595              		.loc 1 196 0
 596 000a 6420     		movs	r0, #100
 597 000c FFF7FEFF 		bl	chThdSleep
 598              	.LVL57:
 599              		.loc 1 197 0
 600 0010 0120     		movs	r0, #1
 601 0012 04F16401 		add	r1, r4, #100
 602 0016 04F16502 		add	r2, r4, #101
 603 001a FFF7FEFF 		bl	_test_assert_time_window
 604              	.LVL58:
 605 001e 00B1     		cbz	r0, .L16
 606              	.LVL59:
 607              	.L12:
 608 0020 38BD     		pop	{r3, r4, r5, pc}
 609              	.LVL60:
 610              	.L16:
 611              		.loc 1 200 0
 612 0022 EC68     		ldr	r4, [r5, #12]
 613              	.LVL61:
 614              		.loc 1 201 0
 615 0024 6420     		movs	r0, #100
 616 0026 FFF7FEFF 		bl	chThdSleep
 617              	.LVL62:
 618              		.loc 1 202 0
 619 002a 0220     		movs	r0, #2
 620 002c 04F16401 		add	r1, r4, #100
 621 0030 04F16502 		add	r2, r4, #101
 622 0034 FFF7FEFF 		bl	_test_assert_time_window
 623              	.LVL63:
 624 0038 0028     		cmp	r0, #0
ARM GAS  /var/folders/dt/0wfd0knj7gs46m8vwfzktm600000gn/T//ccC81MWx.s 			page 12


 625 003a F1D1     		bne	.L12
 626              	.LBB13:
 627              	.LBB14:
 628              		.loc 1 205 0
 629 003c EC68     		ldr	r4, [r5, #12]
 630              	.LVL64:
 631              		.loc 1 206 0
 632 003e 4FF47A70 		mov	r0, #1000
 633 0042 FFF7FEFF 		bl	chThdSleep
 634              	.LVL65:
 635              		.loc 1 207 0
 636 0046 0320     		movs	r0, #3
 637 0048 04F57A71 		add	r1, r4, #1000
 638 004c 04F2E932 		addw	r2, r4, #1001
 639 0050 FFF7FEFF 		bl	_test_assert_time_window
 640              	.LVL66:
 641 0054 0028     		cmp	r0, #0
 642 0056 E3D1     		bne	.L12
 643              		.loc 1 210 0
 644 0058 EC68     		ldr	r4, [r5, #12]
 645              	.LVL67:
 646 005a 04F16405 		add	r5, r4, #100
 647              	.LVL68:
 648              		.loc 1 211 0
 649 005e 2846     		mov	r0, r5
 650 0060 FFF7FEFF 		bl	chThdSleepUntil
 651              	.LVL69:
 652              		.loc 1 212 0
 653 0064 0420     		movs	r0, #4
 654 0066 2946     		mov	r1, r5
 655 0068 04F16502 		add	r2, r4, #101
 656              	.LBE14:
 657              	.LBE13:
 658              		.loc 1 213 0
 659 006c BDE83840 		pop	{r3, r4, r5, lr}
 660              	.LBB16:
 661              	.LBB15:
 662              		.loc 1 212 0
 663 0070 FFF7FEBF 		b	_test_assert_time_window
 664              	.LVL70:
 665              	.L18:
 666              		.align	2
 667              	.L17:
 668 0074 00000000 		.word	vtlist
 669              	.LBE15:
 670              	.LBE16:
 671              		.cfi_endproc
 672              	.LFE11:
 673              		.size	thd4_execute, .-thd4_execute
 674              		.global	patternthd
 675              		.global	testthd4
 676              		.global	testthd3
 677              		.global	testthd2
 678              		.global	testthd1
 679 0078 AFF30080 		.section	.rodata.testthd1,"a",%progbits
 679      AFF30080 
 680              		.align	2
ARM GAS  /var/folders/dt/0wfd0knj7gs46m8vwfzktm600000gn/T//ccC81MWx.s 			page 13


 681              		.type	testthd1, %object
 682              		.size	testthd1, 16
 683              	testthd1:
 684 0000 64000000 		.word	.LC9
 685 0004 00000000 		.word	0
 686 0008 00000000 		.word	0
 687 000c 00000000 		.word	thd1_execute
 688              		.section	.rodata.testthd2,"a",%progbits
 689              		.align	2
 690              		.type	testthd2, %object
 691              		.size	testthd2, 16
 692              	testthd2:
 693 0000 48000000 		.word	.LC8
 694 0004 00000000 		.word	0
 695 0008 00000000 		.word	0
 696 000c 00000000 		.word	thd2_execute
 697              		.section	.rodata.testthd3,"a",%progbits
 698              		.align	2
 699              		.type	testthd3, %object
 700              		.size	testthd3, 16
 701              	testthd3:
 702 0000 2C000000 		.word	.LC7
 703 0004 00000000 		.word	0
 704 0008 00000000 		.word	0
 705 000c 00000000 		.word	thd3_execute
 706              		.section	.rodata.testthd4,"a",%progbits
 707              		.align	2
 708              		.type	testthd4, %object
 709              		.size	testthd4, 16
 710              	testthd4:
 711 0000 1C000000 		.word	.LC6
 712 0004 00000000 		.word	0
 713 0008 00000000 		.word	0
 714 000c 00000000 		.word	thd4_execute
 715              		.section	.rodata.patternthd,"a",%progbits
 716              		.align	2
 717              		.type	patternthd, %object
 718              		.size	patternthd, 20
 719              	patternthd:
 720 0000 00000000 		.word	testthd1
 721 0004 00000000 		.word	testthd2
 722 0008 00000000 		.word	testthd3
 723 000c 00000000 		.word	testthd4
 724 0010 00000000 		.word	0
 725              		.section	.rodata.str1.4,"aMS",%progbits,1
 726              		.align	2
 727              	.LC0:
 728 0000 4400     		.ascii	"D\000"
 729 0002 0000     		.space	2
 730              	.LC1:
 731 0004 4500     		.ascii	"E\000"
 732 0006 0000     		.space	2
 733              	.LC2:
 734 0008 4100     		.ascii	"A\000"
 735 000a 0000     		.space	2
 736              	.LC3:
 737 000c 4200     		.ascii	"B\000"
ARM GAS  /var/folders/dt/0wfd0knj7gs46m8vwfzktm600000gn/T//ccC81MWx.s 			page 14


 738 000e 0000     		.space	2
 739              	.LC4:
 740 0010 4300     		.ascii	"C\000"
 741 0012 0000     		.space	2
 742              	.LC5:
 743 0014 41424344 		.ascii	"ABCDE\000"
 743      4500
 744 001a 0000     		.space	2
 745              	.LC6:
 746 001c 54687265 		.ascii	"Threads, delays\000"
 746      6164732C 
 746      2064656C 
 746      61797300 
 747              	.LC7:
 748 002c 54687265 		.ascii	"Threads, priority change\000"
 748      6164732C 
 748      20707269 
 748      6F726974 
 748      79206368 
 749 0045 000000   		.space	3
 750              	.LC8:
 751 0048 54687265 		.ascii	"Threads, enqueuing test #2\000"
 751      6164732C 
 751      20656E71 
 751      75657569 
 751      6E672074 
 752 0063 00       		.space	1
 753              	.LC9:
 754 0064 54687265 		.ascii	"Threads, enqueuing test #1\000"
 754      6164732C 
 754      20656E71 
 754      75657569 
 754      6E672074 
 755 007f 00       		.text
 756              	.Letext0:
 757              		.file 2 "/Users/toxygen/Applications/yagarto-4.7.2/bin/../lib/gcc/arm-none-eabi/4.7.2/include/stdd
 758              		.file 3 "/Users/toxygen/Applications/yagarto-4.7.2/bin/../lib/gcc/arm-none-eabi/4.7.2/../../../../
 759              		.file 4 "../../os/ports/GCC/ARMCMx/chtypes.h"
 760              		.file 5 "../../os/kernel/include/chlists.h"
 761              		.file 6 "../../os/kernel/include/chthreads.h"
 762              		.file 7 "../../os/ports/GCC/ARMCMx/chcore_v7m.h"
 763              		.file 8 "../../os/kernel/include/chvt.h"
 764              		.file 9 "../../os/kernel/include/chschd.h"
 765              		.file 10 "../../os/kernel/include/chmtx.h"
 766              		.file 11 "../../test/test.h"