ARM GAS  /var/folders/dt/0wfd0knj7gs46m8vwfzktm600000gn/T//ccOL9aFM.s 			page 1


   1              		.syntax unified
   2              		.cpu cortex-m3
   3              		.fpu softvfp
   4              		.eabi_attribute 20, 1
   5              		.eabi_attribute 21, 1
   6              		.eabi_attribute 23, 3
   7              		.eabi_attribute 24, 1
   8              		.eabi_attribute 25, 1
   9              		.eabi_attribute 26, 1
  10              		.eabi_attribute 30, 2
  11              		.eabi_attribute 34, 1
  12              		.eabi_attribute 18, 4
  13              		.thumb
  14              		.file	"test.c"
  15              		.text
  16              	.Ltext0:
  17              		.cfi_sections	.debug_frame
  18              		.section	.text.tmr,"ax",%progbits
  19              		.align	2
  20              		.p2align 4,,15
  21              		.thumb
  22              		.thumb_func
  23              		.type	tmr, %function
  24              	tmr:
  25              	.LFB77:
  26              		.file 1 "../../test/test.c"
  27              		.loc 1 261 0
  28              		.cfi_startproc
  29              		@ args = 0, pretend = 0, frame = 0
  30              		@ frame_needed = 0, uses_anonymous_args = 0
  31              		@ link register save eliminated.
  32              	.LVL0:
  33              		.loc 1 264 0
  34 0000 40F20003 		movw	r3, #:lower16:.LANCHOR0
  35 0004 C0F20003 		movt	r3, #:upper16:.LANCHOR0
  36 0008 0122     		movs	r2, #1
  37 000a 1A70     		strb	r2, [r3, #0]
  38 000c 7047     		bx	lr
  39              		.cfi_endproc
  40              	.LFE77:
  41              		.size	tmr, .-tmr
  42 000e 00BF     		.section	.text.print_line,"ax",%progbits
  43              		.align	2
  44              		.p2align 4,,15
  45              		.thumb
  46              		.thumb_func
  47              		.type	print_line, %function
  48              	print_line:
  49              	.LFB80:
  50              		.loc 1 300 0
  51              		.cfi_startproc
  52              		@ args = 0, pretend = 0, frame = 0
  53              		@ frame_needed = 0, uses_anonymous_args = 0
  54              	.LVL1:
  55 0000 38B5     		push	{r3, r4, r5, lr}
  56              	.LCFI0:
  57              		.cfi_def_cfa_offset 16
ARM GAS  /var/folders/dt/0wfd0knj7gs46m8vwfzktm600000gn/T//ccOL9aFM.s 			page 2


  58              		.cfi_offset 3, -16
  59              		.cfi_offset 4, -12
  60              		.cfi_offset 5, -8
  61              		.cfi_offset 14, -4
  62 0002 084D     		ldr	r5, .L6
  63              		.loc 1 300 0
  64 0004 4C24     		movs	r4, #76
  65              	.LVL2:
  66              	.L3:
  67              		.loc 1 304 0 discriminator 2
  68 0006 2868     		ldr	r0, [r5, #0]
  69 0008 2D21     		movs	r1, #45
  70 000a 0368     		ldr	r3, [r0, #0]
  71 000c 9B68     		ldr	r3, [r3, #8]
  72 000e 9847     		blx	r3
  73              	.LVL3:
  74              		.loc 1 303 0 discriminator 2
  75 0010 013C     		subs	r4, r4, #1
  76 0012 F8D1     		bne	.L3
  77              		.loc 1 305 0
  78 0014 034B     		ldr	r3, .L6
  79 0016 0449     		ldr	r1, .L6+4
  80 0018 1868     		ldr	r0, [r3, #0]
  81 001a 0222     		movs	r2, #2
  82 001c 0368     		ldr	r3, [r0, #0]
  83 001e 1B68     		ldr	r3, [r3, #0]
  84 0020 9847     		blx	r3
  85              	.LVL4:
  86 0022 38BD     		pop	{r3, r4, r5, pc}
  87              	.L7:
  88              		.align	2
  89              	.L6:
  90 0024 00000000 		.word	.LANCHOR1
  91 0028 00000000 		.word	.LC0
  92              		.cfi_endproc
  93              	.LFE80:
  94              		.size	print_line, .-print_line
  95 002c AFF30080 		.section	.text.test_printn,"ax",%progbits
  96              		.align	2
  97              		.p2align 4,,15
  98              		.global	test_printn
  99              		.thumb
 100              		.thumb_func
 101              		.type	test_printn, %function
 102              	test_printn:
 103              	.LFB63:
 104              		.loc 1 91 0
 105              		.cfi_startproc
 106              		@ args = 0, pretend = 0, frame = 16
 107              		@ frame_needed = 0, uses_anonymous_args = 0
 108              	.LVL5:
 109 0000 70B5     		push	{r4, r5, r6, lr}
 110              	.LCFI1:
 111              		.cfi_def_cfa_offset 16
 112              		.cfi_offset 4, -16
 113              		.cfi_offset 5, -12
 114              		.cfi_offset 6, -8
ARM GAS  /var/folders/dt/0wfd0knj7gs46m8vwfzktm600000gn/T//ccOL9aFM.s 			page 3


 115              		.cfi_offset 14, -4
 116 0002 84B0     		sub	sp, sp, #16
 117              	.LCFI2:
 118              		.cfi_def_cfa_offset 32
 119              		.loc 1 94 0
 120 0004 0028     		cmp	r0, #0
 121 0006 26D0     		beq	.L16
 122              	.LBB50:
 123              	.LBB51:
 124              		.loc 1 91 0
 125 0008 0DF10105 		add	r5, sp, #1
 126              	.LBE51:
 127              	.LBE50:
 128              		.loc 1 99 0
 129 000c 4CF6CD46 		movw	r6, #52429
 130              	.LBB54:
 131              	.LBB52:
 132              		.loc 1 91 0
 133 0010 2B46     		mov	r3, r5
 134              	.LBE52:
 135              	.LBE54:
 136              		.loc 1 99 0
 137 0012 CCF6CC46 		movt	r6, 52428
 138              	.LVL6:
 139              	.L11:
 140 0016 A6FB0012 		umull	r1, r2, r6, r0
 141 001a D208     		lsrs	r2, r2, #3
 142 001c 02EB8201 		add	r1, r2, r2, lsl #2
 143 0020 A0EB4101 		sub	r1, r0, r1, lsl #1
 144 0024 3031     		adds	r1, r1, #48
 145 0026 C9B2     		uxtb	r1, r1
 146              		.loc 1 91 0
 147 0028 1C46     		mov	r4, r3
 148              		.loc 1 99 0
 149 002a 03F8011C 		strb	r1, [r3, #-1]
 150              	.LVL7:
 151              		.loc 1 98 0
 152 002e 1046     		mov	r0, r2
 153 0030 0133     		adds	r3, r3, #1
 154              	.LVL8:
 155 0032 002A     		cmp	r2, #0
 156 0034 EFD1     		bne	.L11
 157              		.loc 1 100 0 discriminator 1
 158 0036 6B46     		mov	r3, sp
 159 0038 9C42     		cmp	r4, r3
 160 003a 0AD9     		bls	.L8
 161 003c 094E     		ldr	r6, .L18
 162 003e 02E0     		b	.L14
 163              	.LVL9:
 164              	.L17:
 165 0040 14F8021C 		ldrb	r1, [r4, #-2]	@ zero_extendqisi2
 166 0044 013C     		subs	r4, r4, #1
 167              	.L14:
 168              		.loc 1 101 0
 169 0046 3068     		ldr	r0, [r6, #0]
 170 0048 0368     		ldr	r3, [r0, #0]
 171 004a 9B68     		ldr	r3, [r3, #8]
ARM GAS  /var/folders/dt/0wfd0knj7gs46m8vwfzktm600000gn/T//ccOL9aFM.s 			page 4


 172 004c 9847     		blx	r3
 173              	.LVL10:
 174              		.loc 1 100 0
 175 004e AC42     		cmp	r4, r5
 176 0050 F6D1     		bne	.L17
 177              	.L8:
 178              		.loc 1 103 0
 179 0052 04B0     		add	sp, sp, #16
 180 0054 70BD     		pop	{r4, r5, r6, pc}
 181              	.LVL11:
 182              	.L16:
 183              	.LBB55:
 184              	.LBB53:
 185              		.loc 1 95 0
 186 0056 034B     		ldr	r3, .L18
 187 0058 3021     		movs	r1, #48
 188 005a 1868     		ldr	r0, [r3, #0]
 189              	.LVL12:
 190 005c 0368     		ldr	r3, [r0, #0]
 191 005e 9B68     		ldr	r3, [r3, #8]
 192 0060 9847     		blx	r3
 193              	.LVL13:
 194 0062 F6E7     		b	.L8
 195              	.L19:
 196              		.align	2
 197              	.L18:
 198 0064 00000000 		.word	.LANCHOR1
 199              	.LBE53:
 200              	.LBE55:
 201              		.cfi_endproc
 202              	.LFE63:
 203              		.size	test_printn, .-test_printn
 204 0068 AFF30080 		.section	.text.test_print,"ax",%progbits
 204      AFF30080 
 205              		.align	2
 206              		.p2align 4,,15
 207              		.global	test_print
 208              		.thumb
 209              		.thumb_func
 210              		.type	test_print, %function
 211              	test_print:
 212              	.LFB64:
 213              		.loc 1 110 0
 214              		.cfi_startproc
 215              		@ args = 0, pretend = 0, frame = 0
 216              		@ frame_needed = 0, uses_anonymous_args = 0
 217              	.LVL14:
 218 0000 38B5     		push	{r3, r4, r5, lr}
 219              	.LCFI3:
 220              		.cfi_def_cfa_offset 16
 221              		.cfi_offset 3, -16
 222              		.cfi_offset 4, -12
 223              		.cfi_offset 5, -8
 224              		.cfi_offset 14, -4
 225              		.loc 1 112 0
 226 0002 0178     		ldrb	r1, [r0, #0]	@ zero_extendqisi2
 227 0004 49B1     		cbz	r1, .L20
ARM GAS  /var/folders/dt/0wfd0knj7gs46m8vwfzktm600000gn/T//ccOL9aFM.s 			page 5


 228 0006 054D     		ldr	r5, .L25
 229 0008 0446     		mov	r4, r0
 230              	.LVL15:
 231              	.L22:
 232              		.loc 1 113 0
 233 000a 2868     		ldr	r0, [r5, #0]
 234 000c 0368     		ldr	r3, [r0, #0]
 235 000e 9B68     		ldr	r3, [r3, #8]
 236 0010 9847     		blx	r3
 237              	.LVL16:
 238              		.loc 1 112 0
 239 0012 14F8011F 		ldrb	r1, [r4, #1]!	@ zero_extendqisi2
 240 0016 0029     		cmp	r1, #0
 241 0018 F7D1     		bne	.L22
 242              	.L20:
 243 001a 38BD     		pop	{r3, r4, r5, pc}
 244              	.L26:
 245              		.align	2
 246              	.L25:
 247 001c 00000000 		.word	.LANCHOR1
 248              		.cfi_endproc
 249              	.LFE64:
 250              		.size	test_print, .-test_print
 251              		.section	.text.test_println,"ax",%progbits
 252              		.align	2
 253              		.p2align 4,,15
 254              		.global	test_println
 255              		.thumb
 256              		.thumb_func
 257              		.type	test_println, %function
 258              	test_println:
 259              	.LFB65:
 260              		.loc 1 121 0
 261              		.cfi_startproc
 262              		@ args = 0, pretend = 0, frame = 0
 263              		@ frame_needed = 0, uses_anonymous_args = 0
 264              	.LVL17:
 265 0000 38B5     		push	{r3, r4, r5, lr}
 266              	.LCFI4:
 267              		.cfi_def_cfa_offset 16
 268              		.cfi_offset 3, -16
 269              		.cfi_offset 4, -12
 270              		.cfi_offset 5, -8
 271              		.cfi_offset 14, -4
 272              	.LBB56:
 273              	.LBB57:
 274              		.loc 1 112 0
 275 0002 0178     		ldrb	r1, [r0, #0]	@ zero_extendqisi2
 276 0004 084D     		ldr	r5, .L33
 277 0006 41B1     		cbz	r1, .L30
 278 0008 0446     		mov	r4, r0
 279              	.LVL18:
 280              	.L29:
 281              		.loc 1 113 0
 282 000a 2868     		ldr	r0, [r5, #0]
 283 000c 0368     		ldr	r3, [r0, #0]
 284 000e 9B68     		ldr	r3, [r3, #8]
ARM GAS  /var/folders/dt/0wfd0knj7gs46m8vwfzktm600000gn/T//ccOL9aFM.s 			page 6


 285 0010 9847     		blx	r3
 286              	.LVL19:
 287              		.loc 1 112 0
 288 0012 14F8011F 		ldrb	r1, [r4, #1]!	@ zero_extendqisi2
 289 0016 0029     		cmp	r1, #0
 290 0018 F7D1     		bne	.L29
 291              	.L30:
 292              	.LBE57:
 293              	.LBE56:
 294              		.loc 1 124 0
 295 001a 2868     		ldr	r0, [r5, #0]
 296 001c 0349     		ldr	r1, .L33+4
 297 001e 0368     		ldr	r3, [r0, #0]
 298 0020 0222     		movs	r2, #2
 299 0022 1B68     		ldr	r3, [r3, #0]
 300 0024 9847     		blx	r3
 301              	.LVL20:
 302 0026 38BD     		pop	{r3, r4, r5, pc}
 303              	.L34:
 304              		.align	2
 305              	.L33:
 306 0028 00000000 		.word	.LANCHOR1
 307 002c 00000000 		.word	.LC0
 308              		.cfi_endproc
 309              	.LFE65:
 310              		.size	test_println, .-test_println
 311              		.section	.text.test_emit_token,"ax",%progbits
 312              		.align	2
 313              		.p2align 4,,15
 314              		.global	test_emit_token
 315              		.thumb
 316              		.thumb_func
 317              		.type	test_emit_token, %function
 318              	test_emit_token:
 319              	.LFB68:
 320              		.loc 1 147 0
 321              		.cfi_startproc
 322              		@ args = 0, pretend = 0, frame = 0
 323              		@ frame_needed = 0, uses_anonymous_args = 0
 324              		@ link register save eliminated.
 325              	.LVL21:
 326              	.LBB58:
 327              		.loc 1 149 0
 328 0000 2023     		movs	r3, #32
 329              	.LVL22:
 330              	@ 149 "../../test/test.c" 1
 331 0002 83F31188 		msr     BASEPRI, r3
 332              	@ 0 "" 2
 333              	.LVL23:
 334              		.thumb
 335              	.LBE58:
 336              		.loc 1 150 0
 337 0006 40F20002 		movw	r2, #:lower16:.LANCHOR2
 338 000a C0F20002 		movt	r2, #:upper16:.LANCHOR2
 339 000e 1168     		ldr	r1, [r2, #0]
 340              	.LBB59:
 341              		.loc 1 151 0
ARM GAS  /var/folders/dt/0wfd0knj7gs46m8vwfzktm600000gn/T//ccOL9aFM.s 			page 7


 342 0010 0023     		movs	r3, #0
 343              	.LVL24:
 344              	.LBE59:
 345              		.loc 1 150 0
 346 0012 01F8010B 		strb	r0, [r1], #1
 347 0016 1160     		str	r1, [r2, #0]
 348              	.LBB60:
 349              		.loc 1 151 0
 350              	@ 151 "../../test/test.c" 1
 351 0018 83F31188 		msr     BASEPRI, r3
 352              	@ 0 "" 2
 353              	.LVL25:
 354              		.thumb
 355 001c 7047     		bx	lr
 356              	.LBE60:
 357              		.cfi_endproc
 358              	.LFE68:
 359              		.size	test_emit_token, .-test_emit_token
 360 001e 00BF     		.section	.text._test_fail,"ax",%progbits
 361              		.align	2
 362              		.p2align 4,,15
 363              		.global	_test_fail
 364              		.thumb
 365              		.thumb_func
 366              		.type	_test_fail, %function
 367              	_test_fail:
 368              	.LFB69:
 369              		.loc 1 157 0
 370              		.cfi_startproc
 371              		@ args = 0, pretend = 0, frame = 0
 372              		@ frame_needed = 0, uses_anonymous_args = 0
 373              		@ link register save eliminated.
 374              	.LVL26:
 375 0000 10B4     		push	{r4}
 376              	.LCFI5:
 377              		.cfi_def_cfa_offset 4
 378              		.cfi_offset 4, -4
 379              		.loc 1 159 0
 380 0002 40F20001 		movw	r1, #:lower16:.LANCHOR3
 381              		.loc 1 160 0
 382 0006 40F20002 		movw	r2, #:lower16:.LANCHOR4
 383              		.loc 1 161 0
 384 000a 40F20004 		movw	r4, #:lower16:.LANCHOR5
 385              		.loc 1 159 0
 386 000e 0123     		movs	r3, #1
 387 0010 C0F20001 		movt	r1, #:upper16:.LANCHOR3
 388              		.loc 1 160 0
 389 0014 C0F20002 		movt	r2, #:upper16:.LANCHOR4
 390              		.loc 1 161 0
 391 0018 C0F20004 		movt	r4, #:upper16:.LANCHOR5
 392 001c 2060     		str	r0, [r4, #0]
 393              		.loc 1 159 0
 394 001e 0B70     		strb	r3, [r1, #0]
 395              		.loc 1 160 0
 396 0020 1370     		strb	r3, [r2, #0]
 397              		.loc 1 163 0
 398 0022 1846     		mov	r0, r3
ARM GAS  /var/folders/dt/0wfd0knj7gs46m8vwfzktm600000gn/T//ccOL9aFM.s 			page 8


 399              	.LVL27:
 400 0024 10BC     		pop	{r4}
 401 0026 7047     		bx	lr
 402              		.cfi_endproc
 403              	.LFE69:
 404              		.size	_test_fail, .-_test_fail
 405 0028 AFF30080 		.section	.text._test_assert,"ax",%progbits
 405      AFF30080 
 406              		.align	2
 407              		.p2align 4,,15
 408              		.global	_test_assert
 409              		.thumb
 410              		.thumb_func
 411              		.type	_test_assert, %function
 412              	_test_assert:
 413              	.LFB70:
 414              		.loc 1 165 0
 415              		.cfi_startproc
 416              		@ args = 0, pretend = 0, frame = 0
 417              		@ frame_needed = 0, uses_anonymous_args = 0
 418              		@ link register save eliminated.
 419              	.LVL28:
 420              		.loc 1 167 0
 421 0000 41B9     		cbnz	r1, .L39
 422              	.LVL29:
 423              	.LBB61:
 424              	.LBB62:
 425              		.loc 1 159 0
 426 0002 054A     		ldr	r2, .L40
 427 0004 0123     		movs	r3, #1
 428 0006 1370     		strb	r3, [r2, #0]
 429              		.loc 1 160 0
 430 0008 044A     		ldr	r2, .L40+4
 431 000a 1370     		strb	r3, [r2, #0]
 432              		.loc 1 161 0
 433 000c 044A     		ldr	r2, .L40+8
 434 000e 1060     		str	r0, [r2, #0]
 435              	.LBE62:
 436              	.LBE61:
 437              		.loc 1 168 0
 438 0010 1846     		mov	r0, r3
 439              	.LVL30:
 440 0012 7047     		bx	lr
 441              	.LVL31:
 442              	.L39:
 443              		.loc 1 169 0
 444 0014 0020     		movs	r0, #0
 445              	.LVL32:
 446              		.loc 1 170 0
 447 0016 7047     		bx	lr
 448              	.L41:
 449              		.align	2
 450              	.L40:
 451 0018 00000000 		.word	.LANCHOR3
 452 001c 00000000 		.word	.LANCHOR4
 453 0020 00000000 		.word	.LANCHOR5
 454              		.cfi_endproc
ARM GAS  /var/folders/dt/0wfd0knj7gs46m8vwfzktm600000gn/T//ccOL9aFM.s 			page 9


 455              	.LFE70:
 456              		.size	_test_assert, .-_test_assert
 457 0024 AFF30080 		.section	.text._test_assert_sequence,"ax",%progbits
 457      AFF30080 
 457      AFF30080 
 458              		.align	2
 459              		.p2align 4,,15
 460              		.global	_test_assert_sequence
 461              		.thumb
 462              		.thumb_func
 463              		.type	_test_assert_sequence, %function
 464              	_test_assert_sequence:
 465              	.LFB71:
 466              		.loc 1 172 0
 467              		.cfi_startproc
 468              		@ args = 0, pretend = 0, frame = 0
 469              		@ frame_needed = 0, uses_anonymous_args = 0
 470              		@ link register save eliminated.
 471              	.LVL33:
 472 0000 F0B4     		push	{r4, r5, r6, r7}
 473              	.LCFI6:
 474              		.cfi_def_cfa_offset 16
 475              		.cfi_offset 4, -16
 476              		.cfi_offset 5, -12
 477              		.cfi_offset 6, -8
 478              		.cfi_offset 7, -4
 479 0002 0F4E     		ldr	r6, .L49
 480              		.loc 1 173 0
 481 0004 0F4F     		ldr	r7, .L49+4
 482 0006 3568     		ldr	r5, [r6, #0]
 483 0008 3B46     		mov	r3, r7
 484              		.loc 1 174 0
 485 000a 04E0     		b	.L43
 486              	.LVL34:
 487              	.L45:
 488              		.loc 1 175 0
 489 000c 11F8014B 		ldrb	r4, [r1], #1	@ zero_extendqisi2
 490              	.LVL35:
 491 0010 1278     		ldrb	r2, [r2, #0]	@ zero_extendqisi2
 492 0012 A242     		cmp	r2, r4
 493 0014 09D1     		bne	.L48
 494              	.L43:
 495              		.loc 1 174 0 discriminator 1
 496 0016 9D42     		cmp	r5, r3
 497 0018 1A46     		mov	r2, r3
 498 001a 03F10103 		add	r3, r3, #1
 499 001e F5D8     		bhi	.L45
 500              		.loc 1 178 0
 501 0020 0B78     		ldrb	r3, [r1, #0]	@ zero_extendqisi2
 502 0022 13B9     		cbnz	r3, .L48
 503              	.LBB63:
 504              	.LBB64:
 505              		.loc 1 132 0
 506 0024 3760     		str	r7, [r6, #0]
 507              	.LBE64:
 508              	.LBE63:
 509              		.loc 1 181 0
ARM GAS  /var/folders/dt/0wfd0knj7gs46m8vwfzktm600000gn/T//ccOL9aFM.s 			page 10


 510 0026 1846     		mov	r0, r3
 511              	.LVL36:
 512 0028 07E0     		b	.L44
 513              	.LVL37:
 514              	.L48:
 515              	.LBB65:
 516              	.LBB66:
 517              		.loc 1 159 0
 518 002a 074A     		ldr	r2, .L49+8
 519 002c 0123     		movs	r3, #1
 520 002e 1370     		strb	r3, [r2, #0]
 521              		.loc 1 160 0
 522 0030 064A     		ldr	r2, .L49+12
 523 0032 1370     		strb	r3, [r2, #0]
 524              		.loc 1 161 0
 525 0034 064A     		ldr	r2, .L49+16
 526 0036 1060     		str	r0, [r2, #0]
 527              	.LBE66:
 528              	.LBE65:
 529              		.loc 1 179 0
 530 0038 1846     		mov	r0, r3
 531              	.LVL38:
 532              	.L44:
 533              		.loc 1 182 0
 534 003a F0BC     		pop	{r4, r5, r6, r7}
 535 003c 7047     		bx	lr
 536              	.L50:
 537 003e 00BF     		.align	2
 538              	.L49:
 539 0040 00000000 		.word	.LANCHOR2
 540 0044 00000000 		.word	.LANCHOR6
 541 0048 00000000 		.word	.LANCHOR3
 542 004c 00000000 		.word	.LANCHOR4
 543 0050 00000000 		.word	.LANCHOR5
 544              		.cfi_endproc
 545              	.LFE71:
 546              		.size	_test_assert_sequence, .-_test_assert_sequence
 547 0054 AFF30080 		.section	.text._test_assert_time_window,"ax",%progbits
 547      AFF30080 
 547      AFF30080 
 548              		.align	2
 549              		.p2align 4,,15
 550              		.global	_test_assert_time_window
 551              		.thumb
 552              		.thumb_func
 553              		.type	_test_assert_time_window, %function
 554              	_test_assert_time_window:
 555              	.LFB72:
 556              		.loc 1 184 0
 557              		.cfi_startproc
 558              		@ args = 0, pretend = 0, frame = 0
 559              		@ frame_needed = 0, uses_anonymous_args = 0
 560              	.LVL39:
 561 0000 10B5     		push	{r4, lr}
 562              	.LCFI7:
 563              		.cfi_def_cfa_offset 8
 564              		.cfi_offset 4, -8
ARM GAS  /var/folders/dt/0wfd0knj7gs46m8vwfzktm600000gn/T//ccOL9aFM.s 			page 11


 565              		.cfi_offset 14, -4
 566              		.loc 1 184 0
 567 0002 0446     		mov	r4, r0
 568              		.loc 1 186 0
 569 0004 0846     		mov	r0, r1
 570              	.LVL40:
 571 0006 1146     		mov	r1, r2
 572              	.LVL41:
 573 0008 FFF7FEFF 		bl	chTimeIsWithin
 574              	.LVL42:
 575              	.LBB67:
 576              	.LBB68:
 577              		.loc 1 167 0
 578 000c 40B9     		cbnz	r0, .L53
 579              	.LVL43:
 580              	.LBB69:
 581              	.LBB70:
 582              		.loc 1 159 0
 583 000e 054A     		ldr	r2, .L54
 584 0010 0123     		movs	r3, #1
 585 0012 1370     		strb	r3, [r2, #0]
 586              		.loc 1 160 0
 587 0014 044A     		ldr	r2, .L54+4
 588              		.loc 1 168 0
 589 0016 1846     		mov	r0, r3
 590              	.LVL44:
 591              		.loc 1 160 0
 592 0018 1370     		strb	r3, [r2, #0]
 593              		.loc 1 161 0
 594 001a 044A     		ldr	r2, .L54+8
 595 001c 1460     		str	r4, [r2, #0]
 596 001e 10BD     		pop	{r4, pc}
 597              	.LVL45:
 598              	.L53:
 599              	.LBE70:
 600              	.LBE69:
 601              		.loc 1 169 0
 602 0020 0020     		movs	r0, #0
 603              	.LVL46:
 604              	.LBE68:
 605              	.LBE67:
 606              		.loc 1 187 0
 607 0022 10BD     		pop	{r4, pc}
 608              	.L55:
 609              		.align	2
 610              	.L54:
 611 0024 00000000 		.word	.LANCHOR3
 612 0028 00000000 		.word	.LANCHOR4
 613 002c 00000000 		.word	.LANCHOR5
 614              		.cfi_endproc
 615              	.LFE72:
 616              		.size	_test_assert_time_window, .-_test_assert_time_window
 617              		.section	.text.test_terminate_threads,"ax",%progbits
 618              		.align	2
 619              		.p2align 4,,15
 620              		.global	test_terminate_threads
 621              		.thumb
ARM GAS  /var/folders/dt/0wfd0knj7gs46m8vwfzktm600000gn/T//ccOL9aFM.s 			page 12


 622              		.thumb_func
 623              		.type	test_terminate_threads, %function
 624              	test_terminate_threads:
 625              	.LFB73:
 626              		.loc 1 196 0
 627              		.cfi_startproc
 628              		@ args = 0, pretend = 0, frame = 0
 629              		@ frame_needed = 0, uses_anonymous_args = 0
 630              	.LVL47:
 631 0000 38B5     		push	{r3, r4, r5, lr}
 632              	.LCFI8:
 633              		.cfi_def_cfa_offset 16
 634              		.cfi_offset 3, -16
 635              		.cfi_offset 4, -12
 636              		.cfi_offset 5, -8
 637              		.cfi_offset 14, -4
 638              		.loc 1 196 0
 639 0002 064C     		ldr	r4, .L63
 640 0004 04F11405 		add	r5, r4, #20
 641              	.LVL48:
 642              	.L58:
 643              		.loc 1 200 0
 644 0008 54F8043F 		ldr	r3, [r4, #4]!
 645              		.loc 1 201 0
 646 000c 1846     		mov	r0, r3
 647              		.loc 1 200 0
 648 000e 0BB1     		cbz	r3, .L57
 649              		.loc 1 201 0
 650 0010 FFF7FEFF 		bl	chThdTerminate
 651              	.LVL49:
 652              	.L57:
 653              		.loc 1 199 0
 654 0014 AC42     		cmp	r4, r5
 655 0016 F7D1     		bne	.L58
 656              		.loc 1 202 0
 657 0018 38BD     		pop	{r3, r4, r5, pc}
 658              	.L64:
 659 001a 00BF     		.align	2
 660              	.L63:
 661 001c FCFFFFFF 		.word	.LANCHOR7-4
 662              		.cfi_endproc
 663              	.LFE73:
 664              		.size	test_terminate_threads, .-test_terminate_threads
 665              		.section	.text.test_wait_threads,"ax",%progbits
 666              		.align	2
 667              		.p2align 4,,15
 668              		.global	test_wait_threads
 669              		.thumb
 670              		.thumb_func
 671              		.type	test_wait_threads, %function
 672              	test_wait_threads:
 673              	.LFB74:
 674              		.loc 1 207 0
 675              		.cfi_startproc
 676              		@ args = 0, pretend = 0, frame = 0
 677              		@ frame_needed = 0, uses_anonymous_args = 0
 678              	.LVL50:
ARM GAS  /var/folders/dt/0wfd0knj7gs46m8vwfzktm600000gn/T//ccOL9aFM.s 			page 13


 679 0000 70B5     		push	{r4, r5, r6, lr}
 680              	.LCFI9:
 681              		.cfi_def_cfa_offset 16
 682              		.cfi_offset 4, -16
 683              		.cfi_offset 5, -12
 684              		.cfi_offset 6, -8
 685              		.cfi_offset 14, -4
 686 0002 074C     		ldr	r4, .L72
 687              		.loc 1 213 0
 688 0004 0026     		movs	r6, #0
 689              		.loc 1 207 0
 690 0006 04F11405 		add	r5, r4, #20
 691              	.LVL51:
 692              	.L67:
 693              		.loc 1 211 0
 694 000a 54F8043B 		ldr	r3, [r4], #4
 695              		.loc 1 212 0
 696 000e 1846     		mov	r0, r3
 697              		.loc 1 211 0
 698 0010 1BB1     		cbz	r3, .L66
 699              		.loc 1 212 0
 700 0012 FFF7FEFF 		bl	chThdWait
 701              	.LVL52:
 702              		.loc 1 213 0
 703 0016 44F8046C 		str	r6, [r4, #-4]
 704              	.L66:
 705              		.loc 1 210 0
 706 001a AC42     		cmp	r4, r5
 707 001c F5D1     		bne	.L67
 708              		.loc 1 215 0
 709 001e 70BD     		pop	{r4, r5, r6, pc}
 710              	.L73:
 711              		.align	2
 712              	.L72:
 713 0020 00000000 		.word	.LANCHOR7
 714              		.cfi_endproc
 715              	.LFE74:
 716              		.size	test_wait_threads, .-test_wait_threads
 717 0024 AFF30080 		.section	.text.test_cpu_pulse,"ax",%progbits
 717      AFF30080 
 717      AFF30080 
 718              		.align	2
 719              		.p2align 4,,15
 720              		.global	test_cpu_pulse
 721              		.thumb
 722              		.thumb_func
 723              		.type	test_cpu_pulse, %function
 724              	test_cpu_pulse:
 725              	.LFB75:
 726              		.loc 1 224 0
 727              		.cfi_startproc
 728              		@ args = 0, pretend = 0, frame = 0
 729              		@ frame_needed = 0, uses_anonymous_args = 0
 730              		@ link register save eliminated.
 731              	.LVL53:
 732              		.loc 1 228 0
 733 0000 4FF47A73 		mov	r3, #1000
ARM GAS  /var/folders/dt/0wfd0knj7gs46m8vwfzktm600000gn/T//ccOL9aFM.s 			page 14


 734 0004 03FB00F0 		mul	r0, r3, r0
 735              	.LVL54:
 736              		.loc 1 227 0
 737 0008 134A     		ldr	r2, .L80
 738              		.loc 1 228 0
 739 000a 44F6D353 		movw	r3, #19923
 740 000e 411E     		subs	r1, r0, #1
 741              		.loc 1 224 0
 742 0010 10B4     		push	{r4}
 743              	.LCFI10:
 744              		.cfi_def_cfa_offset 4
 745              		.cfi_offset 4, -4
 746              		.loc 1 228 0
 747 0012 C1F26203 		movt	r3, 4194
 748              		.loc 1 227 0
 749 0016 9469     		ldr	r4, [r2, #24]
 750              		.loc 1 228 0
 751 0018 A3FB0123 		umull	r2, r3, r3, r1
 752              		.loc 1 227 0
 753 001c 226A     		ldr	r2, [r4, #32]
 754              	.LVL55:
 755              		.loc 1 228 0
 756 001e 501C     		adds	r0, r2, #1
 757 0020 00EB9311 		add	r1, r0, r3, lsr #6
 758              	.LVL56:
 759              	.L77:
 760              		.loc 1 235 0
 761 0024 8A42     		cmp	r2, r1
 762              		.loc 1 230 0
 763 0026 236A     		ldr	r3, [r4, #32]
 764              	.LVL57:
 765              		.loc 1 235 0
 766 0028 0AD2     		bcs	.L75
 767              		.loc 1 235 0 is_stmt 0 discriminator 1
 768 002a 8B42     		cmp	r3, r1
 769 002c 2CBF     		ite	cs
 770 002e 0020     		movcs	r0, #0
 771 0030 0120     		movcc	r0, #1
 772 0032 9342     		cmp	r3, r2
 773 0034 38BF     		it	cc
 774 0036 0020     		movcc	r0, #0
 775              		.loc 1 236 0 is_stmt 1 discriminator 1
 776 0038 0028     		cmp	r0, #0
 777 003a F3D1     		bne	.L77
 778              	.L79:
 779              		.loc 1 237 0
 780 003c 10BC     		pop	{r4}
 781 003e 7047     		bx	lr
 782              	.L75:
 783              		.loc 1 236 0 discriminator 2
 784 0040 9342     		cmp	r3, r2
 785 0042 34BF     		ite	cc
 786 0044 0020     		movcc	r0, #0
 787 0046 0120     		movcs	r0, #1
 788 0048 8B42     		cmp	r3, r1
 789 004a 38BF     		it	cc
 790 004c 40F00100 		orrcc	r0, r0, #1
ARM GAS  /var/folders/dt/0wfd0knj7gs46m8vwfzktm600000gn/T//ccOL9aFM.s 			page 15


 791 0050 0028     		cmp	r0, #0
 792 0052 E7D1     		bne	.L77
 793 0054 F2E7     		b	.L79
 794              	.L81:
 795 0056 00BF     		.align	2
 796              	.L80:
 797 0058 00000000 		.word	rlist
 798              		.cfi_endproc
 799              	.LFE75:
 800              		.size	test_cpu_pulse, .-test_cpu_pulse
 801 005c AFF30080 		.section	.text.test_wait_tick,"ax",%progbits
 802              		.align	2
 803              		.p2align 4,,15
 804              		.global	test_wait_tick
 805              		.thumb
 806              		.thumb_func
 807              		.type	test_wait_tick, %function
 808              	test_wait_tick:
 809              	.LFB76:
 810              		.loc 1 245 0
 811              		.cfi_startproc
 812              		@ args = 0, pretend = 0, frame = 0
 813              		@ frame_needed = 0, uses_anonymous_args = 0
 814 0000 08B5     		push	{r3, lr}
 815              	.LCFI11:
 816              		.cfi_def_cfa_offset 8
 817              		.cfi_offset 3, -8
 818              		.cfi_offset 14, -4
 819              		.loc 1 247 0
 820 0002 0120     		movs	r0, #1
 821 0004 FFF7FEFF 		bl	chThdSleep
 822              	.LVL58:
 823              		.loc 1 248 0
 824 0008 40F20003 		movw	r3, #:lower16:vtlist
 825 000c C0F20003 		movt	r3, #:upper16:vtlist
 826 0010 D868     		ldr	r0, [r3, #12]
 827              		.loc 1 249 0
 828 0012 08BD     		pop	{r3, pc}
 829              		.cfi_endproc
 830              	.LFE76:
 831              		.size	test_wait_tick, .-test_wait_tick
 832 0014 AFF30080 		.section	.text.test_start_timer,"ax",%progbits
 832      AFF30080 
 832      AFF30080 
 833              		.align	2
 834              		.p2align 4,,15
 835              		.global	test_start_timer
 836              		.thumb
 837              		.thumb_func
 838              		.type	test_start_timer, %function
 839              	test_start_timer:
 840              	.LFB78:
 841              		.loc 1 272 0
 842              		.cfi_startproc
 843              		@ args = 0, pretend = 0, frame = 0
 844              		@ frame_needed = 0, uses_anonymous_args = 0
 845              	.LVL59:
ARM GAS  /var/folders/dt/0wfd0knj7gs46m8vwfzktm600000gn/T//ccOL9aFM.s 			page 16


 846              		.loc 1 275 0
 847 0000 40F20003 		movw	r3, #:lower16:.LANCHOR0
 848              		.loc 1 272 0
 849 0004 10B5     		push	{r4, lr}
 850              	.LCFI12:
 851              		.cfi_def_cfa_offset 8
 852              		.cfi_offset 4, -8
 853              		.cfi_offset 14, -4
 854              		.loc 1 275 0
 855 0006 C0F20003 		movt	r3, #:upper16:.LANCHOR0
 856 000a 0024     		movs	r4, #0
 857 000c 1C70     		strb	r4, [r3, #0]
 858              	.LVL60:
 859              	.LBB71:
 860              		.loc 1 276 0
 861 000e 2023     		movs	r3, #32
 862              	.LVL61:
 863              	@ 276 "../../test/test.c" 1
 864 0010 83F31188 		msr     BASEPRI, r3
 865              	@ 0 "" 2
 866              	.LVL62:
 867              		.thumb
 868              	.LBE71:
 869              		.loc 1 274 0
 870 0014 4FF47A73 		mov	r3, #1000
 871              	.LVL63:
 872 0018 03FB00F0 		mul	r0, r3, r0
 873              	.LVL64:
 874 001c 44F6D353 		movw	r3, #19923
 875 0020 0138     		subs	r0, r0, #1
 876 0022 C1F26203 		movt	r3, 4194
 877 0026 A3FB0023 		umull	r2, r3, r3, r0
 878              		.loc 1 276 0
 879 002a 40F20000 		movw	r0, #:lower16:.LANCHOR8
 880              		.loc 1 274 0
 881 002e 9909     		lsrs	r1, r3, #6
 882              		.loc 1 276 0
 883 0030 40F20002 		movw	r2, #:lower16:tmr
 884 0034 2346     		mov	r3, r4
 885 0036 C0F20000 		movt	r0, #:upper16:.LANCHOR8
 886 003a 0131     		adds	r1, r1, #1
 887 003c C0F20002 		movt	r2, #:upper16:tmr
 888 0040 FFF7FEFF 		bl	chVTSetI
 889              	.LVL65:
 890              	.LBB72:
 891 0044 2346     		mov	r3, r4
 892              	.LVL66:
 893              	@ 276 "../../test/test.c" 1
 894 0046 83F31188 		msr     BASEPRI, r3
 895              	@ 0 "" 2
 896              	.LVL67:
 897              		.thumb
 898 004a 10BD     		pop	{r4, pc}
 899              	.LBE72:
 900              		.cfi_endproc
 901              	.LFE78:
 902              		.size	test_start_timer, .-test_start_timer
ARM GAS  /var/folders/dt/0wfd0knj7gs46m8vwfzktm600000gn/T//ccOL9aFM.s 			page 17


 903 004c AFF30080 		.section	.text.TestThread,"ax",%progbits
 904              		.align	2
 905              		.p2align 4,,15
 906              		.global	TestThread
 907              		.thumb
 908              		.thumb_func
 909              		.type	TestThread, %function
 910              	TestThread:
 911              	.LFB81:
 912              		.loc 1 314 0
 913              		.cfi_startproc
 914              		@ args = 0, pretend = 0, frame = 8
 915              		@ frame_needed = 0, uses_anonymous_args = 0
 916              	.LVL68:
 917 0000 2DE9F04F 		push	{r4, r5, r6, r7, r8, r9, sl, fp, lr}
 918              	.LCFI13:
 919              		.cfi_def_cfa_offset 36
 920              		.cfi_offset 4, -36
 921              		.cfi_offset 5, -32
 922              		.cfi_offset 6, -28
 923              		.cfi_offset 7, -24
 924              		.cfi_offset 8, -20
 925              		.cfi_offset 9, -16
 926              		.cfi_offset 10, -12
 927              		.cfi_offset 11, -8
 928              		.cfi_offset 14, -4
 929              		.loc 1 317 0
 930 0004 9D4C     		ldr	r4, .L157
 931              		.loc 1 314 0
 932 0006 83B0     		sub	sp, sp, #12
 933              	.LCFI14:
 934              		.cfi_def_cfa_offset 48
 935              		.loc 1 317 0
 936 0008 2060     		str	r0, [r4, #0]
 937              		.loc 1 318 0
 938 000a 9D48     		ldr	r0, .L157+4
 939              	.LVL69:
 940 000c FFF7FEFF 		bl	test_println
 941              	.LVL70:
 942              		.loc 1 319 0
 943 0010 9C48     		ldr	r0, .L157+8
 944 0012 FFF7FEFF 		bl	test_println
 945              	.LVL71:
 946 0016 9C4D     		ldr	r5, .L157+12
 947              		.loc 1 320 0
 948 0018 9C48     		ldr	r0, .L157+16
 949 001a FFF7FEFF 		bl	test_println
 950              	.LVL72:
 951              		.loc 1 112 0
 952 001e 2A21     		movs	r1, #42
 953              	.LVL73:
 954              	.L85:
 955              	.LBB109:
 956              	.LBB110:
 957              		.loc 1 113 0
 958 0020 2068     		ldr	r0, [r4, #0]
 959 0022 0368     		ldr	r3, [r0, #0]
ARM GAS  /var/folders/dt/0wfd0knj7gs46m8vwfzktm600000gn/T//ccOL9aFM.s 			page 18


 960 0024 9B68     		ldr	r3, [r3, #8]
 961 0026 9847     		blx	r3
 962              	.LVL74:
 963              		.loc 1 112 0
 964 0028 15F8011F 		ldrb	r1, [r5, #1]!	@ zero_extendqisi2
 965 002c 0029     		cmp	r1, #0
 966 002e F7D1     		bne	.L85
 967              	.LBE110:
 968              	.LBE109:
 969              		.loc 1 322 0
 970 0030 9748     		ldr	r0, .L157+20
 971 0032 984D     		ldr	r5, .L157+24
 972 0034 FFF7FEFF 		bl	test_println
 973              	.LVL75:
 974              		.loc 1 112 0
 975 0038 2A21     		movs	r1, #42
 976              	.LVL76:
 977              	.L87:
 978              	.LBB111:
 979              	.LBB112:
 980              		.loc 1 113 0
 981 003a 2068     		ldr	r0, [r4, #0]
 982 003c 0368     		ldr	r3, [r0, #0]
 983 003e 9B68     		ldr	r3, [r3, #8]
 984 0040 9847     		blx	r3
 985              	.LVL77:
 986              		.loc 1 112 0
 987 0042 15F8011F 		ldrb	r1, [r5, #1]!	@ zero_extendqisi2
 988 0046 0029     		cmp	r1, #0
 989 0048 F7D1     		bne	.L87
 990              	.LBE112:
 991              	.LBE111:
 992              		.loc 1 324 0
 993 004a 9348     		ldr	r0, .L157+28
 994 004c 934D     		ldr	r5, .L157+32
 995 004e FFF7FEFF 		bl	test_println
 996              	.LVL78:
 997              		.loc 1 112 0
 998 0052 2A21     		movs	r1, #42
 999              	.LVL79:
 1000              	.L89:
 1001              	.LBB113:
 1002              	.LBB114:
 1003              		.loc 1 113 0
 1004 0054 2068     		ldr	r0, [r4, #0]
 1005 0056 0368     		ldr	r3, [r0, #0]
 1006 0058 9B68     		ldr	r3, [r3, #8]
 1007 005a 9847     		blx	r3
 1008              	.LVL80:
 1009              		.loc 1 112 0
 1010 005c 15F8011F 		ldrb	r1, [r5, #1]!	@ zero_extendqisi2
 1011 0060 0029     		cmp	r1, #0
 1012 0062 F7D1     		bne	.L89
 1013              	.LBE114:
 1014              	.LBE113:
 1015              		.loc 1 327 0
 1016 0064 8E48     		ldr	r0, .L157+36
ARM GAS  /var/folders/dt/0wfd0knj7gs46m8vwfzktm600000gn/T//ccOL9aFM.s 			page 19


 1017 0066 8F4D     		ldr	r5, .L157+40
 1018 0068 FFF7FEFF 		bl	test_println
 1019              	.LVL81:
 1020              		.loc 1 112 0
 1021 006c 2A21     		movs	r1, #42
 1022              	.LVL82:
 1023              	.L91:
 1024              	.LBB115:
 1025              	.LBB116:
 1026              		.loc 1 113 0
 1027 006e 2068     		ldr	r0, [r4, #0]
 1028 0070 0368     		ldr	r3, [r0, #0]
 1029 0072 9B68     		ldr	r3, [r3, #8]
 1030 0074 9847     		blx	r3
 1031              	.LVL83:
 1032              		.loc 1 112 0
 1033 0076 15F8011F 		ldrb	r1, [r5, #1]!	@ zero_extendqisi2
 1034 007a 0029     		cmp	r1, #0
 1035 007c F7D1     		bne	.L91
 1036              	.LBE116:
 1037              	.LBE115:
 1038              		.loc 1 330 0
 1039 007e 8A48     		ldr	r0, .L157+44
 1040 0080 8A4D     		ldr	r5, .L157+48
 1041 0082 FFF7FEFF 		bl	test_println
 1042              	.LVL84:
 1043              		.loc 1 112 0
 1044 0086 2A21     		movs	r1, #42
 1045              	.LVL85:
 1046              	.L93:
 1047              	.LBB117:
 1048              	.LBB118:
 1049              		.loc 1 113 0
 1050 0088 2068     		ldr	r0, [r4, #0]
 1051 008a 0368     		ldr	r3, [r0, #0]
 1052 008c 9B68     		ldr	r3, [r3, #8]
 1053 008e 9847     		blx	r3
 1054              	.LVL86:
 1055              		.loc 1 112 0
 1056 0090 15F8011F 		ldrb	r1, [r5, #1]!	@ zero_extendqisi2
 1057 0094 0029     		cmp	r1, #0
 1058 0096 F7D1     		bne	.L93
 1059              	.LBE118:
 1060              	.LBE117:
 1061              		.loc 1 333 0
 1062 0098 8548     		ldr	r0, .L157+52
 1063 009a 864D     		ldr	r5, .L157+56
 1064 009c FFF7FEFF 		bl	test_println
 1065              	.LVL87:
 1066              		.loc 1 112 0
 1067 00a0 2A21     		movs	r1, #42
 1068              	.LVL88:
 1069              	.L95:
 1070              	.LBB119:
 1071              	.LBB120:
 1072              		.loc 1 113 0
 1073 00a2 2068     		ldr	r0, [r4, #0]
ARM GAS  /var/folders/dt/0wfd0knj7gs46m8vwfzktm600000gn/T//ccOL9aFM.s 			page 20


 1074 00a4 0368     		ldr	r3, [r0, #0]
 1075 00a6 9B68     		ldr	r3, [r3, #8]
 1076 00a8 9847     		blx	r3
 1077              	.LVL89:
 1078              		.loc 1 112 0
 1079 00aa 15F8011F 		ldrb	r1, [r5, #1]!	@ zero_extendqisi2
 1080 00ae 0029     		cmp	r1, #0
 1081 00b0 F7D1     		bne	.L95
 1082              	.LBE120:
 1083              	.LBE119:
 1084              		.loc 1 337 0
 1085 00b2 8148     		ldr	r0, .L157+60
 1086 00b4 814D     		ldr	r5, .L157+64
 1087 00b6 FFF7FEFF 		bl	test_println
 1088              	.LVL90:
 1089              		.loc 1 112 0
 1090 00ba 2A21     		movs	r1, #42
 1091              	.LVL91:
 1092              	.L97:
 1093              	.LBB121:
 1094              	.LBB122:
 1095              		.loc 1 113 0
 1096 00bc 2068     		ldr	r0, [r4, #0]
 1097 00be 0368     		ldr	r3, [r0, #0]
 1098 00c0 9B68     		ldr	r3, [r3, #8]
 1099 00c2 9847     		blx	r3
 1100              	.LVL92:
 1101              		.loc 1 112 0
 1102 00c4 15F8011F 		ldrb	r1, [r5, #1]!	@ zero_extendqisi2
 1103 00c8 0029     		cmp	r1, #0
 1104 00ca F7D1     		bne	.L97
 1105              	.LBE122:
 1106              	.LBE121:
 1107              		.loc 1 341 0
 1108 00cc 7C48     		ldr	r0, .L157+68
 1109 00ce 7D4D     		ldr	r5, .L157+72
 1110 00d0 FFF7FEFF 		bl	test_println
 1111              	.LVL93:
 1112              		.loc 1 112 0
 1113 00d4 2A21     		movs	r1, #42
 1114              	.LVL94:
 1115              	.L99:
 1116              	.LBB123:
 1117              	.LBB124:
 1118              		.loc 1 113 0
 1119 00d6 2068     		ldr	r0, [r4, #0]
 1120 00d8 0368     		ldr	r3, [r0, #0]
 1121 00da 9B68     		ldr	r3, [r3, #8]
 1122 00dc 9847     		blx	r3
 1123              	.LVL95:
 1124              		.loc 1 112 0
 1125 00de 15F8011F 		ldrb	r1, [r5, #1]!	@ zero_extendqisi2
 1126 00e2 0029     		cmp	r1, #0
 1127 00e4 F7D1     		bne	.L99
 1128              	.LBE124:
 1129              	.LBE123:
 1130              		.loc 1 345 0
ARM GAS  /var/folders/dt/0wfd0knj7gs46m8vwfzktm600000gn/T//ccOL9aFM.s 			page 21


 1131 00e6 7848     		ldr	r0, .L157+76
 1132 00e8 0091     		str	r1, [sp, #0]
 1133 00ea FFF7FEFF 		bl	test_println
 1134              	.LVL96:
 1135              		.loc 1 347 0
 1136 00ee 6448     		ldr	r0, .L157+4
 1137 00f0 FFF7FEFF 		bl	test_println
 1138              	.LVL97:
 1139              		.loc 1 349 0
 1140 00f4 0099     		ldr	r1, [sp, #0]
 1141 00f6 754A     		ldr	r2, .L157+80
 1142 00f8 40F20003 		movw	r3, #:lower16:.LANCHOR4
 1143 00fc C0F20003 		movt	r3, #:upper16:.LANCHOR4
 1144 0100 734F     		ldr	r7, .L157+84
 1145              	.LBB125:
 1146              	.LBB126:
 1147              	.LBB127:
 1148              	.LBB128:
 1149              		.loc 1 132 0
 1150 0102 744E     		ldr	r6, .L157+88
 1151 0104 DFF80092 		ldr	r9, .L157+140
 1152 0108 0192     		str	r2, [sp, #4]
 1153              	.LBE128:
 1154              	.LBE127:
 1155              	.LBE126:
 1156              	.LBE125:
 1157              		.loc 1 349 0
 1158 010a 1970     		strb	r1, [r3, #0]
 1159              	.LVL98:
 1160              		.loc 1 350 0
 1161 010c 8A46     		mov	sl, r1
 1162              	.LVL99:
 1163              	.L124:
 1164 010e 0AF1010A 		add	sl, sl, #1
 1165              		.loc 1 112 0 discriminator 1
 1166 0112 4FF00008 		mov	r8, #0
 1167              	.L153:
 1168              	.LVL100:
 1169              		.loc 1 353 0 discriminator 1
 1170 0116 57F8043B 		ldr	r3, [r7], #4
 1171 011a 002B     		cmp	r3, #0
 1172 011c 00F08580 		beq	.L155
 1173              	.L118:
 1174 0120 6D4D     		ldr	r5, .L157+92
 1175              		.loc 1 354 0
 1176 0122 FFF7FEFF 		bl	print_line
 1177              	.LVL101:
 1178              		.loc 1 112 0
 1179 0126 2D21     		movs	r1, #45
 1180              	.LVL102:
 1181              	.L101:
 1182              	.LBB133:
 1183              	.LBB134:
 1184              		.loc 1 113 0
 1185 0128 2068     		ldr	r0, [r4, #0]
 1186 012a 0368     		ldr	r3, [r0, #0]
 1187 012c 9B68     		ldr	r3, [r3, #8]
ARM GAS  /var/folders/dt/0wfd0knj7gs46m8vwfzktm600000gn/T//ccOL9aFM.s 			page 22


 1188 012e 9847     		blx	r3
 1189              	.LVL103:
 1190              		.loc 1 112 0
 1191 0130 15F8011F 		ldrb	r1, [r5, #1]!	@ zero_extendqisi2
 1192 0134 0029     		cmp	r1, #0
 1193 0136 F7D1     		bne	.L101
 1194              	.LBE134:
 1195              	.LBE133:
 1196              		.loc 1 356 0
 1197 0138 5046     		mov	r0, sl
 1198 013a FFF7FEFF 		bl	test_printn
 1199              	.LVL104:
 1200              	.LBB135:
 1201              	.LBB136:
 1202              		.loc 1 113 0
 1203 013e 4F4B     		ldr	r3, .L157
 1204 0140 2E21     		movs	r1, #46
 1205 0142 1868     		ldr	r0, [r3, #0]
 1206              	.LVL105:
 1207              	.LBE136:
 1208              	.LBE135:
 1209              		.loc 1 358 0
 1210 0144 08F10108 		add	r8, r8, #1
 1211              	.LVL106:
 1212              	.LBB138:
 1213              	.LBB137:
 1214              		.loc 1 113 0
 1215 0148 0368     		ldr	r3, [r0, #0]
 1216 014a 644D     		ldr	r5, .L157+96
 1217 014c 9B68     		ldr	r3, [r3, #8]
 1218 014e 9847     		blx	r3
 1219              	.LVL107:
 1220              	.LBE137:
 1221              	.LBE138:
 1222              		.loc 1 358 0
 1223 0150 4046     		mov	r0, r8
 1224 0152 FFF7FEFF 		bl	test_printn
 1225              	.LVL108:
 1226              		.loc 1 112 0
 1227 0156 2021     		movs	r1, #32
 1228              	.LVL109:
 1229              	.L103:
 1230              	.LBB139:
 1231              	.LBB140:
 1232              		.loc 1 113 0
 1233 0158 2068     		ldr	r0, [r4, #0]
 1234 015a 0368     		ldr	r3, [r0, #0]
 1235 015c 9B68     		ldr	r3, [r3, #8]
 1236 015e 9847     		blx	r3
 1237              	.LVL110:
 1238              		.loc 1 112 0
 1239 0160 15F8011F 		ldrb	r1, [r5, #1]!	@ zero_extendqisi2
 1240 0164 0029     		cmp	r1, #0
 1241 0166 F7D1     		bne	.L103
 1242              	.LBE140:
 1243              	.LBE139:
 1244              		.loc 1 360 0
ARM GAS  /var/folders/dt/0wfd0knj7gs46m8vwfzktm600000gn/T//ccOL9aFM.s 			page 23


 1245 0168 57F8043C 		ldr	r3, [r7, #-4]
 1246 016c 1D68     		ldr	r5, [r3, #0]
 1247              	.LVL111:
 1248              	.LBB141:
 1249              	.LBB142:
 1250              		.loc 1 112 0
 1251 016e 2978     		ldrb	r1, [r5, #0]	@ zero_extendqisi2
 1252 0170 39B1     		cbz	r1, .L108
 1253              	.LVL112:
 1254              	.L107:
 1255              		.loc 1 113 0
 1256 0172 2068     		ldr	r0, [r4, #0]
 1257 0174 0368     		ldr	r3, [r0, #0]
 1258 0176 9B68     		ldr	r3, [r3, #8]
 1259 0178 9847     		blx	r3
 1260              	.LVL113:
 1261              		.loc 1 112 0
 1262 017a 15F8011F 		ldrb	r1, [r5, #1]!	@ zero_extendqisi2
 1263 017e 0029     		cmp	r1, #0
 1264 0180 F7D1     		bne	.L107
 1265              	.L108:
 1266              	.LBE142:
 1267              	.LBE141:
 1268              		.loc 1 361 0
 1269 0182 5748     		ldr	r0, .L157+100
 1270 0184 FFF7FEFF 		bl	test_println
 1271              	.LVL114:
 1272              		.loc 1 363 0
 1273 0188 C820     		movs	r0, #200
 1274 018a FFF7FEFF 		bl	chThdSleep
 1275              	.LVL115:
 1276              	.LBB143:
 1277              	.LBB131:
 1278              		.loc 1 289 0
 1279 018e 554A     		ldr	r2, .L157+104
 1280              	.LBE131:
 1281              	.LBE143:
 1282              		.loc 1 365 0
 1283 0190 57F804BC 		ldr	fp, [r7, #-4]
 1284              	.LVL116:
 1285              	.LBB144:
 1286              	.LBB132:
 1287              		.loc 1 287 0
 1288 0194 0023     		movs	r3, #0
 1289              		.loc 1 289 0
 1290 0196 1360     		str	r3, [r2, #0]
 1291 0198 5360     		str	r3, [r2, #4]
 1292 019a 9360     		str	r3, [r2, #8]
 1293 019c D360     		str	r3, [r2, #12]
 1294 019e 1361     		str	r3, [r2, #16]
 1295              		.loc 1 287 0
 1296 01a0 514D     		ldr	r5, .L157+108
 1297              		.loc 1 291 0
 1298 01a2 DBF80420 		ldr	r2, [fp, #4]
 1299              	.LBB130:
 1300              	.LBB129:
 1301              		.loc 1 132 0
ARM GAS  /var/folders/dt/0wfd0knj7gs46m8vwfzktm600000gn/T//ccOL9aFM.s 			page 24


 1302 01a6 C6F80090 		str	r9, [r6, #0]
 1303              	.LBE129:
 1304              	.LBE130:
 1305              		.loc 1 287 0
 1306 01aa 2B70     		strb	r3, [r5, #0]
 1307              	.LVL117:
 1308              		.loc 1 291 0
 1309 01ac 02B1     		cbz	r2, .L106
 1310              		.loc 1 292 0
 1311 01ae 9047     		blx	r2
 1312              	.LVL118:
 1313              	.L106:
 1314              		.loc 1 293 0
 1315 01b0 DBF80C30 		ldr	r3, [fp, #12]
 1316 01b4 9847     		blx	r3
 1317              	.LVL119:
 1318              		.loc 1 294 0
 1319 01b6 DBF80830 		ldr	r3, [fp, #8]
 1320 01ba 03B1     		cbz	r3, .L109
 1321              		.loc 1 295 0
 1322 01bc 9847     		blx	r3
 1323              	.LVL120:
 1324              	.L109:
 1325              		.loc 1 297 0
 1326 01be FFF7FEFF 		bl	test_wait_threads
 1327              	.LVL121:
 1328              	.LBE132:
 1329              	.LBE144:
 1330              		.loc 1 366 0
 1331 01c2 2B78     		ldrb	r3, [r5, #0]	@ zero_extendqisi2
 1332 01c4 002B     		cmp	r3, #0
 1333 01c6 00F0A180 		beq	.L110
 1334 01ca 484D     		ldr	r5, .L157+112
 1335              		.loc 1 112 0
 1336 01cc 2D21     		movs	r1, #45
 1337              	.L111:
 1338              	.LBB145:
 1339              	.LBB146:
 1340              		.loc 1 113 0
 1341 01ce 2068     		ldr	r0, [r4, #0]
 1342              	.LVL122:
 1343 01d0 0368     		ldr	r3, [r0, #0]
 1344 01d2 9B68     		ldr	r3, [r3, #8]
 1345 01d4 9847     		blx	r3
 1346              	.LVL123:
 1347              		.loc 1 112 0
 1348 01d6 15F8011F 		ldrb	r1, [r5, #1]!	@ zero_extendqisi2
 1349 01da 0029     		cmp	r1, #0
 1350 01dc F7D1     		bne	.L111
 1351              	.LBE146:
 1352              	.LBE145:
 1353              		.loc 1 368 0
 1354 01de 444B     		ldr	r3, .L157+116
 1355 01e0 444D     		ldr	r5, .L157+120
 1356 01e2 1868     		ldr	r0, [r3, #0]
 1357 01e4 FFF7FEFF 		bl	test_printn
 1358              	.LVL124:
ARM GAS  /var/folders/dt/0wfd0knj7gs46m8vwfzktm600000gn/T//ccOL9aFM.s 			page 25


 1359              		.loc 1 112 0
 1360 01e8 2021     		movs	r1, #32
 1361              	.LVL125:
 1362              	.L113:
 1363              	.LBB147:
 1364              	.LBB148:
 1365              		.loc 1 113 0
 1366 01ea 2068     		ldr	r0, [r4, #0]
 1367 01ec 0368     		ldr	r3, [r0, #0]
 1368 01ee 9B68     		ldr	r3, [r3, #8]
 1369 01f0 9847     		blx	r3
 1370              	.LVL126:
 1371              		.loc 1 112 0
 1372 01f2 15F8011F 		ldrb	r1, [r5, #1]!	@ zero_extendqisi2
 1373 01f6 0029     		cmp	r1, #0
 1374 01f8 F7D1     		bne	.L113
 1375              	.LVL127:
 1376              	.LBE148:
 1377              	.LBE147:
 1378              	.LBB149:
 1379              	.LBB150:
 1380              		.loc 1 138 0
 1381 01fa 3368     		ldr	r3, [r6, #0]
 1382 01fc 4B45     		cmp	r3, r9
 1383              	.LBE150:
 1384              	.LBE149:
 1385              		.loc 1 314 0
 1386 01fe 88BF     		it	hi
 1387 0200 3D4D     		ldrhi	r5, .L157+124
 1388              	.LBB152:
 1389              	.LBB151:
 1390              		.loc 1 138 0
 1391 0202 0AD9     		bls	.L117
 1392              	.LVL128:
 1393              	.L116:
 1394              		.loc 1 139 0
 1395 0204 2068     		ldr	r0, [r4, #0]
 1396 0206 15F8011C 		ldrb	r1, [r5, #-1]	@ zero_extendqisi2
 1397 020a 0368     		ldr	r3, [r0, #0]
 1398 020c 9B68     		ldr	r3, [r3, #8]
 1399 020e 9847     		blx	r3
 1400              	.LVL129:
 1401              		.loc 1 138 0
 1402 0210 3368     		ldr	r3, [r6, #0]
 1403              		.loc 1 314 0
 1404 0212 2A46     		mov	r2, r5
 1405              	.LVL130:
 1406 0214 0135     		adds	r5, r5, #1
 1407              		.loc 1 138 0
 1408 0216 9A42     		cmp	r2, r3
 1409 0218 F4D3     		bcc	.L116
 1410              	.LVL131:
 1411              	.L117:
 1412              	.LBE151:
 1413              	.LBE152:
 1414              		.loc 1 371 0
 1415 021a 3848     		ldr	r0, .L157+128
ARM GAS  /var/folders/dt/0wfd0knj7gs46m8vwfzktm600000gn/T//ccOL9aFM.s 			page 26


 1416 021c FFF7FEFF 		bl	test_println
 1417              	.LVL132:
 1418              		.loc 1 353 0
 1419 0220 57F8043B 		ldr	r3, [r7], #4
 1420 0224 002B     		cmp	r3, #0
 1421 0226 7FF47BAF 		bne	.L118
 1422              	.LVL133:
 1423              	.L155:
 1424              		.loc 1 351 0
 1425 022a 019A     		ldr	r2, [sp, #4]
 1426 022c 52F8047F 		ldr	r7, [r2, #4]!
 1427 0230 0192     		str	r2, [sp, #4]
 1428 0232 002F     		cmp	r7, #0
 1429 0234 7FF46BAF 		bne	.L124
 1430              		.loc 1 379 0
 1431 0238 FFF7FEFF 		bl	print_line
 1432              	.LVL134:
 1433 023c 304D     		ldr	r5, .L157+132
 1434              		.loc 1 380 0
 1435 023e 1048     		ldr	r0, .L157+4
 1436 0240 FFF7FEFF 		bl	test_println
 1437              	.LVL135:
 1438              		.loc 1 112 0
 1439 0244 4621     		movs	r1, #70
 1440              	.LVL136:
 1441              	.L121:
 1442              	.LBB153:
 1443              	.LBB154:
 1444              		.loc 1 113 0
 1445 0246 2068     		ldr	r0, [r4, #0]
 1446 0248 0368     		ldr	r3, [r0, #0]
 1447 024a 9B68     		ldr	r3, [r3, #8]
 1448 024c 9847     		blx	r3
 1449              	.LVL137:
 1450              		.loc 1 112 0
 1451 024e 15F8011F 		ldrb	r1, [r5, #1]!	@ zero_extendqisi2
 1452 0252 0029     		cmp	r1, #0
 1453 0254 F7D1     		bne	.L121
 1454              	.LBE154:
 1455              	.LBE153:
 1456              		.loc 1 382 0
 1457 0256 40F20002 		movw	r2, #:lower16:.LANCHOR4
 1458 025a C0F20002 		movt	r2, #:upper16:.LANCHOR4
 1459 025e 1378     		ldrb	r3, [r2, #0]	@ zero_extendqisi2
 1460 0260 002B     		cmp	r3, #0
 1461 0262 57D1     		bne	.L156
 1462              		.loc 1 385 0
 1463 0264 2748     		ldr	r0, .L157+136
 1464 0266 FFF7FEFF 		bl	test_println
 1465              	.LVL138:
 1466              	.L123:
 1467              		.loc 1 387 0
 1468 026a 40F20003 		movw	r3, #:lower16:.LANCHOR4
 1469 026e C0F20003 		movt	r3, #:upper16:.LANCHOR4
 1470 0272 1878     		ldrb	r0, [r3, #0]	@ zero_extendqisi2
 1471              		.loc 1 388 0
 1472 0274 03B0     		add	sp, sp, #12
ARM GAS  /var/folders/dt/0wfd0knj7gs46m8vwfzktm600000gn/T//ccOL9aFM.s 			page 27


 1473 0276 BDE8F08F 		pop	{r4, r5, r6, r7, r8, r9, sl, fp, pc}
 1474              	.L158:
 1475 027a 00BF     		.align	2
 1476              	.L157:
 1477 027c 00000000 		.word	.LANCHOR1
 1478 0280 04000000 		.word	.LC1
 1479 0284 08000000 		.word	.LC2
 1480 0288 28000000 		.word	.LC4
 1481 028c 24000000 		.word	.LC3
 1482 0290 90000000 		.word	.LC12
 1483 0294 98000000 		.word	.LC13
 1484 0298 AC000000 		.word	.LC14
 1485 029c C4000000 		.word	.LC15
 1486 02a0 D8000000 		.word	.LC16
 1487 02a4 E4000000 		.word	.LC17
 1488 02a8 F8000000 		.word	.LC18
 1489 02ac 00010000 		.word	.LC19
 1490 02b0 14010000 		.word	.LC20
 1491 02b4 20010000 		.word	.LC21
 1492 02b8 34010000 		.word	.LC22
 1493 02bc 4C010000 		.word	.LC23
 1494 02c0 60010000 		.word	.LC24
 1495 02c4 7C010000 		.word	.LC25
 1496 02c8 90010000 		.word	.LC26
 1497 02cc 00000000 		.word	.LANCHOR9
 1498 02d0 00000000 		.word	patternthd
 1499 02d4 00000000 		.word	.LANCHOR2
 1500 02d8 3C000000 		.word	.LC5
 1501 02dc A8010000 		.word	.LC27
 1502 02e0 4C000000 		.word	.LC6
 1503 02e4 00000000 		.word	.LANCHOR7
 1504 02e8 00000000 		.word	.LANCHOR3
 1505 02ec 50000000 		.word	.LC7
 1506 02f0 00000000 		.word	.LANCHOR5
 1507 02f4 AC010000 		.word	.LC28
 1508 02f8 01000000 		.word	.LANCHOR6+1
 1509 02fc 68000000 		.word	.LC8
 1510 0300 B0010000 		.word	.LC29
 1511 0304 88000000 		.word	.LC11
 1512 0308 00000000 		.word	.LANCHOR6
 1513              	.LVL139:
 1514              	.L110:
 1515              		.loc 1 374 0
 1516 030c 0348     		ldr	r0, .L159
 1517 030e FFF7FEFF 		bl	test_println
 1518              	.LVL140:
 1519 0312 00E7     		b	.L153
 1520              	.LVL141:
 1521              	.L156:
 1522              		.loc 1 383 0
 1523 0314 0248     		ldr	r0, .L159+4
 1524 0316 FFF7FEFF 		bl	test_println
 1525              	.LVL142:
 1526 031a A6E7     		b	.L123
 1527              	.L160:
 1528              		.align	2
 1529              	.L159:
ARM GAS  /var/folders/dt/0wfd0knj7gs46m8vwfzktm600000gn/T//ccOL9aFM.s 			page 28


 1530 031c 6C000000 		.word	.LC9
 1531 0320 80000000 		.word	.LC10
 1532              		.cfi_endproc
 1533              	.LFE81:
 1534              		.size	TestThread, .-TestThread
 1535              		.global	test_timer_done
 1536              		.global	wa
 1537              		.global	threads
 1538              		.global	test
 1539 0324 AFF30080 		.section	.bss.test,"aw",%nobits
 1539      AFF30080 
 1539      AFF30080 
 1540              		.align	3
 1541              		.type	test, %object
 1542              		.size	test, 1520
 1543              	test:
 1544 0000 00000000 		.space	1520
 1544      00000000 
 1544      00000000 
 1544      00000000 
 1544      00000000 
 1545              		.section	.bss.failpoint,"aw",%nobits
 1546              		.align	2
 1547              		.set	.LANCHOR5,. + 0
 1548              		.type	failpoint, %object
 1549              		.size	failpoint, 4
 1550              	failpoint:
 1551 0000 00000000 		.space	4
 1552              		.section	.bss.local_fail,"aw",%nobits
 1553              		.set	.LANCHOR3,. + 0
 1554              		.type	local_fail, %object
 1555              		.size	local_fail, 1
 1556              	local_fail:
 1557 0000 00       		.space	1
 1558              		.section	.bss.test_timer_done,"aw",%nobits
 1559              		.set	.LANCHOR0,. + 0
 1560              		.type	test_timer_done, %object
 1561              		.size	test_timer_done, 1
 1562              	test_timer_done:
 1563 0000 00       		.space	1
 1564              		.section	.rodata.wa,"a",%progbits
 1565              		.align	2
 1566              		.type	wa, %object
 1567              		.size	wa, 20
 1568              	wa:
 1569 0000 00000000 		.word	test
 1570 0004 30010000 		.word	test+304
 1571 0008 60020000 		.word	test+608
 1572 000c 90030000 		.word	test+912
 1573 0010 C0040000 		.word	test+1216
 1574              		.section	.bss.tokp,"aw",%nobits
 1575              		.align	2
 1576              		.set	.LANCHOR2,. + 0
 1577              		.type	tokp, %object
 1578              		.size	tokp, 4
 1579              	tokp:
 1580 0000 00000000 		.space	4
ARM GAS  /var/folders/dt/0wfd0knj7gs46m8vwfzktm600000gn/T//ccOL9aFM.s 			page 29


 1581              		.section	.bss.global_fail,"aw",%nobits
 1582              		.set	.LANCHOR4,. + 0
 1583              		.type	global_fail, %object
 1584              		.size	global_fail, 1
 1585              	global_fail:
 1586 0000 00       		.space	1
 1587              		.section	.rodata.str1.4,"aMS",%progbits,1
 1588              		.align	2
 1589              	.LC0:
 1590 0000 0D0A00   		.ascii	"\015\012\000"
 1591 0003 00       		.space	1
 1592              	.LC1:
 1593 0004 00       		.ascii	"\000"
 1594 0005 000000   		.space	3
 1595              	.LC2:
 1596 0008 2A2A2A20 		.ascii	"*** ChibiOS/RT test suite\000"
 1596      43686962 
 1596      694F532F 
 1596      52542074 
 1596      65737420 
 1597 0022 0000     		.space	2
 1598              	.LC3:
 1599 0024 2A2A2A00 		.ascii	"***\000"
 1600              	.LC4:
 1601 0028 2A2A2A20 		.ascii	"*** Kernel:       \000"
 1601      4B65726E 
 1601      656C3A20 
 1601      20202020 
 1601      202000
 1602 003b 00       		.space	1
 1603              	.LC5:
 1604 003c 2D2D2D20 		.ascii	"--- Test Case \000"
 1604      54657374 
 1604      20436173 
 1604      652000
 1605 004b 00       		.space	1
 1606              	.LC6:
 1607 004c 2900     		.ascii	")\000"
 1608 004e 0000     		.space	2
 1609              	.LC7:
 1610 0050 2D2D2D20 		.ascii	"--- Result: FAILURE (#\000"
 1610      52657375 
 1610      6C743A20 
 1610      4641494C 
 1610      55524520 
 1611 0067 00       		.space	1
 1612              	.LC8:
 1613 0068 5D2900   		.ascii	"])\000"
 1614 006b 00       		.space	1
 1615              	.LC9:
 1616 006c 2D2D2D20 		.ascii	"--- Result: SUCCESS\000"
 1616      52657375 
 1616      6C743A20 
 1616      53554343 
 1616      45535300 
 1617              	.LC10:
 1618 0080 4641494C 		.ascii	"FAILURE\000"
ARM GAS  /var/folders/dt/0wfd0knj7gs46m8vwfzktm600000gn/T//ccOL9aFM.s 			page 30


 1618      55524500 
 1619              	.LC11:
 1620 0088 53554343 		.ascii	"SUCCESS\000"
 1620      45535300 
 1621              	.LC12:
 1622 0090 322E362E 		.ascii	"2.6.1\000"
 1622      3100
 1623 0096 0000     		.space	2
 1624              	.LC13:
 1625 0098 2A2A2A20 		.ascii	"*** Compiled:     \000"
 1625      436F6D70 
 1625      696C6564 
 1625      3A202020 
 1625      202000
 1626 00ab 00       		.space	1
 1627              	.LC14:
 1628 00ac 4E6F7620 		.ascii	"Nov 18 2013 - 17:59:34\000"
 1628      31382032 
 1628      30313320 
 1628      2D203137 
 1628      3A35393A 
 1629 00c3 00       		.space	1
 1630              	.LC15:
 1631 00c4 2A2A2A20 		.ascii	"*** Compiler:     \000"
 1631      436F6D70 
 1631      696C6572 
 1631      3A202020 
 1631      202000
 1632 00d7 00       		.space	1
 1633              	.LC16:
 1634 00d8 47434320 		.ascii	"GCC 4.7.2\000"
 1634      342E372E 
 1634      3200
 1635 00e2 0000     		.space	2
 1636              	.LC17:
 1637 00e4 2A2A2A20 		.ascii	"*** Architecture: \000"
 1637      41726368 
 1637      69746563 
 1637      74757265 
 1637      3A2000
 1638 00f7 00       		.space	1
 1639              	.LC18:
 1640 00f8 41524D76 		.ascii	"ARMv7-M\000"
 1640      372D4D00 
 1641              	.LC19:
 1642 0100 2A2A2A20 		.ascii	"*** Core Variant: \000"
 1642      436F7265 
 1642      20566172 
 1642      69616E74 
 1642      3A2000
 1643 0113 00       		.space	1
 1644              	.LC20:
 1645 0114 436F7274 		.ascii	"Cortex-M3\000"
 1645      65782D4D 
 1645      3300
 1646 011e 0000     		.space	2
 1647              	.LC21:
ARM GAS  /var/folders/dt/0wfd0knj7gs46m8vwfzktm600000gn/T//ccOL9aFM.s 			page 31


 1648 0120 2A2A2A20 		.ascii	"*** Port Info:    \000"
 1648      506F7274 
 1648      20496E66 
 1648      6F3A2020 
 1648      202000
 1649 0133 00       		.space	1
 1650              	.LC22:
 1651 0134 41647661 		.ascii	"Advanced kernel mode\000"
 1651      6E636564 
 1651      206B6572 
 1651      6E656C20 
 1651      6D6F6465 
 1652 0149 000000   		.space	3
 1653              	.LC23:
 1654 014c 2A2A2A20 		.ascii	"*** Platform:     \000"
 1654      506C6174 
 1654      666F726D 
 1654      3A202020 
 1654      202000
 1655 015f 00       		.space	1
 1656              	.LC24:
 1657 0160 53544D33 		.ascii	"STM32F10x Connectivity Line\000"
 1657      32463130 
 1657      7820436F 
 1657      6E6E6563 
 1657      74697669 
 1658              	.LC25:
 1659 017c 2A2A2A20 		.ascii	"*** Test Board:   \000"
 1659      54657374 
 1659      20426F61 
 1659      72643A20 
 1659      202000
 1660 018f 00       		.space	1
 1661              	.LC26:
 1662 0190 4D4C4142 		.ascii	"MLAB STM32F107CxT01A\000"
 1662      2053544D 
 1662      33324631 
 1662      30374378 
 1662      54303141 
 1663 01a5 000000   		.space	3
 1664              	.LC27:
 1665 01a8 202800   		.ascii	" (\000"
 1666 01ab 00       		.space	1
 1667              	.LC28:
 1668 01ac 205B00   		.ascii	" [\000"
 1669 01af 00       		.space	1
 1670              	.LC29:
 1671 01b0 46696E61 		.ascii	"Final result: \000"
 1671      6C207265 
 1671      73756C74 
 1671      3A2000
 1672 01bf 00       		.section	.bss.vt,"aw",%nobits
 1673              		.align	2
 1674              		.set	.LANCHOR8,. + 0
 1675              		.type	vt, %object
 1676              		.size	vt, 20
 1677              	vt:
ARM GAS  /var/folders/dt/0wfd0knj7gs46m8vwfzktm600000gn/T//ccOL9aFM.s 			page 32


 1678 0000 00000000 		.space	20
 1678      00000000 
 1678      00000000 
 1678      00000000 
 1678      00000000 
 1679              		.section	.bss.threads,"aw",%nobits
 1680              		.align	2
 1681              		.set	.LANCHOR7,. + 0
 1682              		.type	threads, %object
 1683              		.size	threads, 20
 1684              	threads:
 1685 0000 00000000 		.space	20
 1685      00000000 
 1685      00000000 
 1685      00000000 
 1685      00000000 
 1686              		.section	.rodata.patterns,"a",%progbits
 1687              		.align	2
 1688              		.set	.LANCHOR9,. + 0
 1689              		.type	patterns, %object
 1690              		.size	patterns, 48
 1691              	patterns:
 1692 0000 00000000 		.word	patternthd
 1693 0004 00000000 		.word	patternsem
 1694 0008 00000000 		.word	patternmtx
 1695 000c 00000000 		.word	patternmsg
 1696 0010 00000000 		.word	patternmbox
 1697 0014 00000000 		.word	patternevt
 1698 0018 00000000 		.word	patternheap
 1699 001c 00000000 		.word	patternpools
 1700 0020 00000000 		.word	patterndyn
 1701 0024 00000000 		.word	patternqueues
 1702 0028 00000000 		.word	patternbmk
 1703 002c 00000000 		.word	0
 1704              		.section	.bss.chp,"aw",%nobits
 1705              		.align	2
 1706              		.set	.LANCHOR1,. + 0
 1707              		.type	chp, %object
 1708              		.size	chp, 4
 1709              	chp:
 1710 0000 00000000 		.space	4
 1711              		.section	.bss.tokens_buffer,"aw",%nobits
 1712              		.align	2
 1713              		.set	.LANCHOR6,. + 0
 1714              		.type	tokens_buffer, %object
 1715              		.size	tokens_buffer, 16
 1716              	tokens_buffer:
 1717 0000 00000000 		.space	16
 1717      00000000 
 1717      00000000 
 1717      00000000 
 1718              		.text
 1719              	.Letext0:
 1720              		.file 2 "/Users/toxygen/Applications/yagarto-4.7.2/bin/../lib/gcc/arm-none-eabi/4.7.2/include/stdd
 1721              		.file 3 "/Users/toxygen/Applications/yagarto-4.7.2/bin/../lib/gcc/arm-none-eabi/4.7.2/../../../../
 1722              		.file 4 "../../os/ports/GCC/ARMCMx/chtypes.h"
 1723              		.file 5 "../../os/kernel/include/chlists.h"
ARM GAS  /var/folders/dt/0wfd0knj7gs46m8vwfzktm600000gn/T//ccOL9aFM.s 			page 33


 1724              		.file 6 "../../os/kernel/include/chthreads.h"
 1725              		.file 7 "../../os/ports/GCC/ARMCMx/chcore_v7m.h"
 1726              		.file 8 "../../os/kernel/include/chvt.h"
 1727              		.file 9 "../../os/kernel/include/chschd.h"
 1728              		.file 10 "../../os/kernel/include/chmtx.h"
 1729              		.file 11 "../../os/kernel/include/chstreams.h"
 1730              		.file 12 "../../test/test.h"
 1731              		.file 13 "../../os/ports/common/ARMCMx/CMSIS/include/core_cm3.h"
 1732              		.file 14 "../../test/testthd.h"
 1733              		.file 15 "../../test/testsem.h"
 1734              		.file 16 "../../test/testmtx.h"
 1735              		.file 17 "../../test/testmsg.h"
 1736              		.file 18 "../../test/testmbox.h"
 1737              		.file 19 "../../test/testevt.h"
 1738              		.file 20 "../../test/testheap.h"
 1739              		.file 21 "../../test/testpools.h"
 1740              		.file 22 "../../test/testdyn.h"
 1741              		.file 23 "../../test/testqueues.h"
 1742              		.file 24 "../../test/testbmk.h"