ARM GAS  /var/folders/dt/0wfd0knj7gs46m8vwfzktm600000gn/T//cctF5Ltj.s 			page 1


   1              		.syntax unified
   2              		.cpu cortex-m3
   3              		.fpu softvfp
   4              		.eabi_attribute 20, 1
   5              		.eabi_attribute 21, 1
   6              		.eabi_attribute 23, 3
   7              		.eabi_attribute 24, 1
   8              		.eabi_attribute 25, 1
   9              		.eabi_attribute 26, 1
  10              		.eabi_attribute 30, 2
  11              		.eabi_attribute 34, 1
  12              		.eabi_attribute 18, 4
  13              		.thumb
  14              		.file	"testmtx.c"
  15              		.text
  16              	.Ltext0:
  17              		.cfi_sections	.debug_frame
  18              		.section	.text.mtx8_execute,"ax",%progbits
  19              		.align	2
  20              		.p2align 4,,15
  21              		.thumb
  22              		.thumb_func
  23              		.type	mtx8_execute, %function
  24              	mtx8_execute:
  25              	.LFB36:
  26              		.file 1 "../../test/testmtx.c"
  27              		.loc 1 595 0
  28              		.cfi_startproc
  29              		@ args = 0, pretend = 0, frame = 0
  30              		@ frame_needed = 0, uses_anonymous_args = 0
  31 0000 F0B5     		push	{r4, r5, r6, r7, lr}
  32              	.LCFI0:
  33              		.cfi_def_cfa_offset 20
  34              		.cfi_offset 4, -20
  35              		.cfi_offset 5, -16
  36              		.cfi_offset 6, -12
  37              		.cfi_offset 7, -8
  38              		.cfi_offset 14, -4
  39              		.loc 1 597 0
  40 0002 40F20003 		movw	r3, #:lower16:rlist
  41 0006 C0F20003 		movt	r3, #:upper16:rlist
  42 000a 9B69     		ldr	r3, [r3, #24]
  43              		.loc 1 598 0
  44 000c 40F20005 		movw	r5, #:lower16:wa
  45              		.loc 1 597 0
  46 0010 9E68     		ldr	r6, [r3, #8]
  47              	.LVL0:
  48              		.loc 1 598 0
  49 0012 40F20004 		movw	r4, #:lower16:.LC0
  50              		.loc 1 595 0
  51 0016 83B0     		sub	sp, sp, #12
  52              	.LCFI1:
  53              		.cfi_def_cfa_offset 32
  54              		.loc 1 598 0
  55 0018 C0F20005 		movt	r5, #:upper16:wa
  56 001c C0F20004 		movt	r4, #:upper16:.LC0
  57 0020 40F20003 		movw	r3, #:lower16:thread11
ARM GAS  /var/folders/dt/0wfd0knj7gs46m8vwfzktm600000gn/T//cctF5Ltj.s 			page 2


  58 0024 721C     		adds	r2, r6, #1
  59 0026 0094     		str	r4, [sp, #0]
  60 0028 2868     		ldr	r0, [r5, #0]
  61 002a 4FF49871 		mov	r1, #304
  62 002e C0F20003 		movt	r3, #:upper16:thread11
  63 0032 FFF7FEFF 		bl	chThdCreateStatic
  64              	.LVL1:
  65 0036 40F20004 		movw	r4, #:lower16:threads
  66 003a C0F20004 		movt	r4, #:upper16:threads
  67              		.loc 1 599 0
  68 003e 6F68     		ldr	r7, [r5, #4]
  69              		.loc 1 598 0
  70 0040 2060     		str	r0, [r4, #0]
  71              		.loc 1 599 0
  72 0042 40F20000 		movw	r0, #:lower16:.LC1
  73 0046 C0F20000 		movt	r0, #:upper16:.LC1
  74 004a 40F20003 		movw	r3, #:lower16:thread10
  75 004e B21C     		adds	r2, r6, #2
  76 0050 0090     		str	r0, [sp, #0]
  77 0052 4FF49871 		mov	r1, #304
  78 0056 C0F20003 		movt	r3, #:upper16:thread10
  79 005a 3846     		mov	r0, r7
  80 005c FFF7FEFF 		bl	chThdCreateStatic
  81              	.LVL2:
  82              		.loc 1 600 0
  83 0060 AD68     		ldr	r5, [r5, #8]
  84              		.loc 1 599 0
  85 0062 6060     		str	r0, [r4, #4]
  86              		.loc 1 600 0
  87 0064 40F20000 		movw	r0, #:lower16:.LC2
  88 0068 C0F20000 		movt	r0, #:upper16:.LC2
  89 006c 40F20003 		movw	r3, #:lower16:thread12
  90 0070 4FF49871 		mov	r1, #304
  91 0074 F21C     		adds	r2, r6, #3
  92 0076 C0F20003 		movt	r3, #:upper16:thread12
  93 007a 0090     		str	r0, [sp, #0]
  94 007c 2846     		mov	r0, r5
  95 007e FFF7FEFF 		bl	chThdCreateStatic
  96              	.LVL3:
  97              		.loc 1 601 0
  98 0082 40F20005 		movw	r5, #:lower16:.LANCHOR0
  99 0086 C0F20005 		movt	r5, #:upper16:.LANCHOR0
 100              		.loc 1 600 0
 101 008a A060     		str	r0, [r4, #8]
 102              		.loc 1 601 0
 103 008c 2846     		mov	r0, r5
 104 008e FFF7FEFF 		bl	chCondSignal
 105              	.LVL4:
 106              		.loc 1 602 0
 107 0092 2846     		mov	r0, r5
 108 0094 FFF7FEFF 		bl	chCondSignal
 109              	.LVL5:
 110              		.loc 1 603 0
 111 0098 FFF7FEFF 		bl	test_wait_threads
 112              	.LVL6:
 113              		.loc 1 604 0
 114 009c 40F20001 		movw	r1, #:lower16:.LC3
ARM GAS  /var/folders/dt/0wfd0knj7gs46m8vwfzktm600000gn/T//cctF5Ltj.s 			page 3


 115 00a0 0120     		movs	r0, #1
 116 00a2 C0F20001 		movt	r1, #:upper16:.LC3
 117              		.loc 1 605 0
 118 00a6 03B0     		add	sp, sp, #12
 119 00a8 BDE8F040 		pop	{r4, r5, r6, r7, lr}
 120              		.loc 1 604 0
 121 00ac FFF7FEBF 		b	_test_assert_sequence
 122              	.LVL7:
 123              		.cfi_endproc
 124              	.LFE36:
 125              		.size	mtx8_execute, .-mtx8_execute
 126              		.section	.text.thread12,"ax",%progbits
 127              		.align	2
 128              		.p2align 4,,15
 129              		.thumb
 130              		.thumb_func
 131              		.type	thread12, %function
 132              	thread12:
 133              	.LFB35:
 134              		.loc 1 587 0
 135              		.cfi_startproc
 136              		@ args = 0, pretend = 0, frame = 0
 137              		@ frame_needed = 0, uses_anonymous_args = 0
 138              	.LVL8:
 139 0000 10B5     		push	{r4, lr}
 140              	.LCFI2:
 141              		.cfi_def_cfa_offset 8
 142              		.cfi_offset 4, -8
 143              		.cfi_offset 14, -4
 144              		.loc 1 587 0
 145 0002 0446     		mov	r4, r0
 146              		.loc 1 589 0
 147 0004 40F20000 		movw	r0, #:lower16:.LANCHOR1
 148              	.LVL9:
 149 0008 C0F20000 		movt	r0, #:upper16:.LANCHOR1
 150 000c FFF7FEFF 		bl	chMtxLock
 151              	.LVL10:
 152              		.loc 1 590 0
 153 0010 2078     		ldrb	r0, [r4, #0]	@ zero_extendqisi2
 154 0012 FFF7FEFF 		bl	test_emit_token
 155              	.LVL11:
 156              		.loc 1 591 0
 157 0016 FFF7FEFF 		bl	chMtxUnlock
 158              	.LVL12:
 159              		.loc 1 593 0
 160 001a 0020     		movs	r0, #0
 161 001c 10BD     		pop	{r4, pc}
 162              		.cfi_endproc
 163              	.LFE35:
 164              		.size	thread12, .-thread12
 165 001e 00BF     		.section	.text.thread1,"ax",%progbits
 166              		.align	2
 167              		.p2align 4,,15
 168              		.thumb
 169              		.thumb_func
 170              		.type	thread1, %function
 171              	thread1:
ARM GAS  /var/folders/dt/0wfd0knj7gs46m8vwfzktm600000gn/T//cctF5Ltj.s 			page 4


 172              	.LFB8:
 173              		.loc 1 89 0
 174              		.cfi_startproc
 175              		@ args = 0, pretend = 0, frame = 0
 176              		@ frame_needed = 0, uses_anonymous_args = 0
 177              	.LVL13:
 178 0000 10B5     		push	{r4, lr}
 179              	.LCFI3:
 180              		.cfi_def_cfa_offset 8
 181              		.cfi_offset 4, -8
 182              		.cfi_offset 14, -4
 183              		.loc 1 89 0
 184 0002 0446     		mov	r4, r0
 185              		.loc 1 91 0
 186 0004 40F20000 		movw	r0, #:lower16:.LANCHOR2
 187              	.LVL14:
 188 0008 C0F20000 		movt	r0, #:upper16:.LANCHOR2
 189 000c FFF7FEFF 		bl	chMtxLock
 190              	.LVL15:
 191              		.loc 1 92 0
 192 0010 2078     		ldrb	r0, [r4, #0]	@ zero_extendqisi2
 193 0012 FFF7FEFF 		bl	test_emit_token
 194              	.LVL16:
 195              		.loc 1 93 0
 196 0016 FFF7FEFF 		bl	chMtxUnlock
 197              	.LVL17:
 198              		.loc 1 95 0
 199 001a 0020     		movs	r0, #0
 200 001c 10BD     		pop	{r4, pc}
 201              		.cfi_endproc
 202              	.LFE8:
 203              		.size	thread1, .-thread1
 204 001e 00BF     		.section	.text.thread10,"ax",%progbits
 205              		.align	2
 206              		.p2align 4,,15
 207              		.thumb
 208              		.thumb_func
 209              		.type	thread10, %function
 210              	thread10:
 211              	.LFB29:
 212              		.loc 1 484 0
 213              		.cfi_startproc
 214              		@ args = 0, pretend = 0, frame = 0
 215              		@ frame_needed = 0, uses_anonymous_args = 0
 216              	.LVL18:
 217 0000 10B5     		push	{r4, lr}
 218              	.LCFI4:
 219              		.cfi_def_cfa_offset 8
 220              		.cfi_offset 4, -8
 221              		.cfi_offset 14, -4
 222              		.loc 1 484 0
 223 0002 0446     		mov	r4, r0
 224              		.loc 1 486 0
 225 0004 40F20000 		movw	r0, #:lower16:.LANCHOR2
 226              	.LVL19:
 227 0008 C0F20000 		movt	r0, #:upper16:.LANCHOR2
 228 000c FFF7FEFF 		bl	chMtxLock
ARM GAS  /var/folders/dt/0wfd0knj7gs46m8vwfzktm600000gn/T//cctF5Ltj.s 			page 5


 229              	.LVL20:
 230              		.loc 1 487 0
 231 0010 40F20000 		movw	r0, #:lower16:.LANCHOR0
 232 0014 C0F20000 		movt	r0, #:upper16:.LANCHOR0
 233 0018 FFF7FEFF 		bl	chCondWait
 234              	.LVL21:
 235              		.loc 1 488 0
 236 001c 2078     		ldrb	r0, [r4, #0]	@ zero_extendqisi2
 237 001e FFF7FEFF 		bl	test_emit_token
 238              	.LVL22:
 239              		.loc 1 489 0
 240 0022 FFF7FEFF 		bl	chMtxUnlock
 241              	.LVL23:
 242              		.loc 1 491 0
 243 0026 0020     		movs	r0, #0
 244 0028 10BD     		pop	{r4, pc}
 245              		.cfi_endproc
 246              	.LFE29:
 247              		.size	thread10, .-thread10
 248 002a 00BFAFF3 		.section	.text.thread11,"ax",%progbits
 248      0080
 249              		.align	2
 250              		.p2align 4,,15
 251              		.thumb
 252              		.thumb_func
 253              		.type	thread11, %function
 254              	thread11:
 255              	.LFB34:
 256              		.loc 1 572 0
 257              		.cfi_startproc
 258              		@ args = 0, pretend = 0, frame = 0
 259              		@ frame_needed = 0, uses_anonymous_args = 0
 260              	.LVL24:
 261 0000 10B5     		push	{r4, lr}
 262              	.LCFI5:
 263              		.cfi_def_cfa_offset 8
 264              		.cfi_offset 4, -8
 265              		.cfi_offset 14, -4
 266              		.loc 1 572 0
 267 0002 0446     		mov	r4, r0
 268              		.loc 1 574 0
 269 0004 40F20000 		movw	r0, #:lower16:.LANCHOR1
 270              	.LVL25:
 271 0008 C0F20000 		movt	r0, #:upper16:.LANCHOR1
 272 000c FFF7FEFF 		bl	chMtxLock
 273              	.LVL26:
 274              		.loc 1 575 0
 275 0010 40F20000 		movw	r0, #:lower16:.LANCHOR2
 276 0014 C0F20000 		movt	r0, #:upper16:.LANCHOR2
 277 0018 FFF7FEFF 		bl	chMtxLock
 278              	.LVL27:
 279              		.loc 1 577 0
 280 001c 40F20000 		movw	r0, #:lower16:.LANCHOR0
 281 0020 4FF0FF31 		mov	r1, #-1
 282 0024 C0F20000 		movt	r0, #:upper16:.LANCHOR0
 283 0028 FFF7FEFF 		bl	chCondWaitTimeout
 284              	.LVL28:
ARM GAS  /var/folders/dt/0wfd0knj7gs46m8vwfzktm600000gn/T//cctF5Ltj.s 			page 6


 285              		.loc 1 581 0
 286 002c 2078     		ldrb	r0, [r4, #0]	@ zero_extendqisi2
 287 002e FFF7FEFF 		bl	test_emit_token
 288              	.LVL29:
 289              		.loc 1 582 0
 290 0032 FFF7FEFF 		bl	chMtxUnlock
 291              	.LVL30:
 292              		.loc 1 583 0
 293 0036 FFF7FEFF 		bl	chMtxUnlock
 294              	.LVL31:
 295              		.loc 1 585 0
 296 003a 0020     		movs	r0, #0
 297 003c 10BD     		pop	{r4, pc}
 298              		.cfi_endproc
 299              	.LFE34:
 300              		.size	thread11, .-thread11
 301 003e 00BF     		.section	.text.mtx8_setup,"ax",%progbits
 302              		.align	2
 303              		.p2align 4,,15
 304              		.thumb
 305              		.thumb_func
 306              		.type	mtx8_setup, %function
 307              	mtx8_setup:
 308              	.LFB33:
 309              		.loc 1 565 0
 310              		.cfi_startproc
 311              		@ args = 0, pretend = 0, frame = 0
 312              		@ frame_needed = 0, uses_anonymous_args = 0
 313              		.loc 1 567 0
 314 0000 40F20000 		movw	r0, #:lower16:.LANCHOR0
 315              		.loc 1 565 0
 316 0004 08B5     		push	{r3, lr}
 317              	.LCFI6:
 318              		.cfi_def_cfa_offset 8
 319              		.cfi_offset 3, -8
 320              		.cfi_offset 14, -4
 321              		.loc 1 567 0
 322 0006 C0F20000 		movt	r0, #:upper16:.LANCHOR0
 323 000a FFF7FEFF 		bl	chCondInit
 324              	.LVL32:
 325              		.loc 1 568 0
 326 000e 40F20000 		movw	r0, #:lower16:.LANCHOR2
 327 0012 C0F20000 		movt	r0, #:upper16:.LANCHOR2
 328 0016 FFF7FEFF 		bl	chMtxInit
 329              	.LVL33:
 330              		.loc 1 569 0
 331 001a 40F20000 		movw	r0, #:lower16:.LANCHOR1
 332 001e C0F20000 		movt	r0, #:upper16:.LANCHOR1
 333              		.loc 1 570 0
 334 0022 BDE80840 		pop	{r3, lr}
 335              		.loc 1 569 0
 336 0026 FFF7FEBF 		b	chMtxInit
 337              	.LVL34:
 338              		.cfi_endproc
 339              	.LFE33:
 340              		.size	mtx8_setup, .-mtx8_setup
 341 002a 00BFAFF3 		.section	.text.mtx7_setup,"ax",%progbits
ARM GAS  /var/folders/dt/0wfd0knj7gs46m8vwfzktm600000gn/T//cctF5Ltj.s 			page 7


 341      0080
 342              		.align	2
 343              		.p2align 4,,15
 344              		.thumb
 345              		.thumb_func
 346              		.type	mtx7_setup, %function
 347              	mtx7_setup:
 348              	.LFB31:
 349              		.loc 1 530 0
 350              		.cfi_startproc
 351              		@ args = 0, pretend = 0, frame = 0
 352              		@ frame_needed = 0, uses_anonymous_args = 0
 353              		.loc 1 532 0
 354 0000 40F20000 		movw	r0, #:lower16:.LANCHOR0
 355              		.loc 1 530 0
 356 0004 08B5     		push	{r3, lr}
 357              	.LCFI7:
 358              		.cfi_def_cfa_offset 8
 359              		.cfi_offset 3, -8
 360              		.cfi_offset 14, -4
 361              		.loc 1 532 0
 362 0006 C0F20000 		movt	r0, #:upper16:.LANCHOR0
 363 000a FFF7FEFF 		bl	chCondInit
 364              	.LVL35:
 365              		.loc 1 533 0
 366 000e 40F20000 		movw	r0, #:lower16:.LANCHOR2
 367 0012 C0F20000 		movt	r0, #:upper16:.LANCHOR2
 368              		.loc 1 534 0
 369 0016 BDE80840 		pop	{r3, lr}
 370              		.loc 1 533 0
 371 001a FFF7FEBF 		b	chMtxInit
 372              	.LVL36:
 373              		.cfi_endproc
 374              	.LFE31:
 375              		.size	mtx7_setup, .-mtx7_setup
 376 001e 00BF     		.section	.text.mtx6_setup,"ax",%progbits
 377              		.align	2
 378              		.p2align 4,,15
 379              		.thumb
 380              		.thumb_func
 381              		.type	mtx6_setup, %function
 382              	mtx6_setup:
 383              	.LFB28:
 384              		.loc 1 478 0
 385              		.cfi_startproc
 386              		@ args = 0, pretend = 0, frame = 0
 387              		@ frame_needed = 0, uses_anonymous_args = 0
 388              		.loc 1 480 0
 389 0000 40F20000 		movw	r0, #:lower16:.LANCHOR0
 390              		.loc 1 478 0
 391 0004 08B5     		push	{r3, lr}
 392              	.LCFI8:
 393              		.cfi_def_cfa_offset 8
 394              		.cfi_offset 3, -8
 395              		.cfi_offset 14, -4
 396              		.loc 1 480 0
 397 0006 C0F20000 		movt	r0, #:upper16:.LANCHOR0
ARM GAS  /var/folders/dt/0wfd0knj7gs46m8vwfzktm600000gn/T//cctF5Ltj.s 			page 8


 398 000a FFF7FEFF 		bl	chCondInit
 399              	.LVL37:
 400              		.loc 1 481 0
 401 000e 40F20000 		movw	r0, #:lower16:.LANCHOR2
 402 0012 C0F20000 		movt	r0, #:upper16:.LANCHOR2
 403              		.loc 1 482 0
 404 0016 BDE80840 		pop	{r3, lr}
 405              		.loc 1 481 0
 406 001a FFF7FEBF 		b	chMtxInit
 407              	.LVL38:
 408              		.cfi_endproc
 409              	.LFE28:
 410              		.size	mtx6_setup, .-mtx6_setup
 411 001e 00BF     		.section	.text.mtx5_setup,"ax",%progbits
 412              		.align	2
 413              		.p2align 4,,15
 414              		.thumb
 415              		.thumb_func
 416              		.type	mtx5_setup, %function
 417              	mtx5_setup:
 418              	.LFB26:
 419              		.loc 1 428 0
 420              		.cfi_startproc
 421              		@ args = 0, pretend = 0, frame = 0
 422              		@ frame_needed = 0, uses_anonymous_args = 0
 423              		@ link register save eliminated.
 424              		.loc 1 430 0
 425 0000 40F20000 		movw	r0, #:lower16:.LANCHOR2
 426 0004 C0F20000 		movt	r0, #:upper16:.LANCHOR2
 427              		.loc 1 431 0
 428              		.loc 1 430 0
 429 0008 FFF7FEBF 		b	chMtxInit
 430              	.LVL39:
 431              		.cfi_endproc
 432              	.LFE26:
 433              		.size	mtx5_setup, .-mtx5_setup
 434 000c AFF30080 		.section	.text.mtx4_setup,"ax",%progbits
 435              		.align	2
 436              		.p2align 4,,15
 437              		.thumb
 438              		.thumb_func
 439              		.type	mtx4_setup, %function
 440              	mtx4_setup:
 441              	.LFB22:
 442              		.loc 1 341 0
 443              		.cfi_startproc
 444              		@ args = 0, pretend = 0, frame = 0
 445              		@ frame_needed = 0, uses_anonymous_args = 0
 446              		.loc 1 343 0
 447 0000 40F20000 		movw	r0, #:lower16:.LANCHOR2
 448              		.loc 1 341 0
 449 0004 08B5     		push	{r3, lr}
 450              	.LCFI9:
 451              		.cfi_def_cfa_offset 8
 452              		.cfi_offset 3, -8
 453              		.cfi_offset 14, -4
 454              		.loc 1 343 0
ARM GAS  /var/folders/dt/0wfd0knj7gs46m8vwfzktm600000gn/T//cctF5Ltj.s 			page 9


 455 0006 C0F20000 		movt	r0, #:upper16:.LANCHOR2
 456 000a FFF7FEFF 		bl	chMtxInit
 457              	.LVL40:
 458              		.loc 1 344 0
 459 000e 40F20000 		movw	r0, #:lower16:.LANCHOR1
 460 0012 C0F20000 		movt	r0, #:upper16:.LANCHOR1
 461              		.loc 1 345 0
 462 0016 BDE80840 		pop	{r3, lr}
 463              		.loc 1 344 0
 464 001a FFF7FEBF 		b	chMtxInit
 465              	.LVL41:
 466              		.cfi_endproc
 467              	.LFE22:
 468              		.size	mtx4_setup, .-mtx4_setup
 469 001e 00BF     		.section	.text.mtx3_setup,"ax",%progbits
 470              		.align	2
 471              		.p2align 4,,15
 472              		.thumb
 473              		.thumb_func
 474              		.type	mtx3_setup, %function
 475              	mtx3_setup:
 476              	.LFB15:
 477              		.loc 1 241 0
 478              		.cfi_startproc
 479              		@ args = 0, pretend = 0, frame = 0
 480              		@ frame_needed = 0, uses_anonymous_args = 0
 481              		.loc 1 243 0
 482 0000 40F20000 		movw	r0, #:lower16:.LANCHOR2
 483              		.loc 1 241 0
 484 0004 08B5     		push	{r3, lr}
 485              	.LCFI10:
 486              		.cfi_def_cfa_offset 8
 487              		.cfi_offset 3, -8
 488              		.cfi_offset 14, -4
 489              		.loc 1 243 0
 490 0006 C0F20000 		movt	r0, #:upper16:.LANCHOR2
 491 000a FFF7FEFF 		bl	chMtxInit
 492              	.LVL42:
 493              		.loc 1 244 0
 494 000e 40F20000 		movw	r0, #:lower16:.LANCHOR1
 495 0012 C0F20000 		movt	r0, #:upper16:.LANCHOR1
 496              		.loc 1 245 0
 497 0016 BDE80840 		pop	{r3, lr}
 498              		.loc 1 244 0
 499 001a FFF7FEBF 		b	chMtxInit
 500              	.LVL43:
 501              		.cfi_endproc
 502              	.LFE15:
 503              		.size	mtx3_setup, .-mtx3_setup
 504 001e 00BF     		.section	.text.mtx2_setup,"ax",%progbits
 505              		.align	2
 506              		.p2align 4,,15
 507              		.thumb
 508              		.thumb_func
 509              		.type	mtx2_setup, %function
 510              	mtx2_setup:
 511              	.LFB10:
ARM GAS  /var/folders/dt/0wfd0knj7gs46m8vwfzktm600000gn/T//cctF5Ltj.s 			page 10


 512              		.loc 1 151 0
 513              		.cfi_startproc
 514              		@ args = 0, pretend = 0, frame = 0
 515              		@ frame_needed = 0, uses_anonymous_args = 0
 516              		@ link register save eliminated.
 517              		.loc 1 153 0
 518 0000 40F20000 		movw	r0, #:lower16:.LANCHOR2
 519 0004 C0F20000 		movt	r0, #:upper16:.LANCHOR2
 520              		.loc 1 154 0
 521              		.loc 1 153 0
 522 0008 FFF7FEBF 		b	chMtxInit
 523              	.LVL44:
 524              		.cfi_endproc
 525              	.LFE10:
 526              		.size	mtx2_setup, .-mtx2_setup
 527 000c AFF30080 		.section	.text.mtx1_setup,"ax",%progbits
 528              		.align	2
 529              		.p2align 4,,15
 530              		.thumb
 531              		.thumb_func
 532              		.type	mtx1_setup, %function
 533              	mtx1_setup:
 534              	.LFB7:
 535              		.loc 1 84 0
 536              		.cfi_startproc
 537              		@ args = 0, pretend = 0, frame = 0
 538              		@ frame_needed = 0, uses_anonymous_args = 0
 539              		@ link register save eliminated.
 540              		.loc 1 86 0
 541 0000 40F20000 		movw	r0, #:lower16:.LANCHOR2
 542 0004 C0F20000 		movt	r0, #:upper16:.LANCHOR2
 543              		.loc 1 87 0
 544              		.loc 1 86 0
 545 0008 FFF7FEBF 		b	chMtxInit
 546              	.LVL45:
 547              		.cfi_endproc
 548              	.LFE7:
 549              		.size	mtx1_setup, .-mtx1_setup
 550 000c AFF30080 		.section	.text.mtx7_execute,"ax",%progbits
 551              		.align	2
 552              		.p2align 4,,15
 553              		.thumb
 554              		.thumb_func
 555              		.type	mtx7_execute, %function
 556              	mtx7_execute:
 557              	.LFB32:
 558              		.loc 1 536 0
 559              		.cfi_startproc
 560              		@ args = 0, pretend = 0, frame = 0
 561              		@ frame_needed = 0, uses_anonymous_args = 0
 562 0000 F0B5     		push	{r4, r5, r6, r7, lr}
 563              	.LCFI11:
 564              		.cfi_def_cfa_offset 20
 565              		.cfi_offset 4, -20
 566              		.cfi_offset 5, -16
 567              		.cfi_offset 6, -12
 568              		.cfi_offset 7, -8
ARM GAS  /var/folders/dt/0wfd0knj7gs46m8vwfzktm600000gn/T//cctF5Ltj.s 			page 11


 569              		.cfi_offset 14, -4
 570              		.loc 1 538 0
 571 0002 40F20003 		movw	r3, #:lower16:rlist
 572 0006 C0F20003 		movt	r3, #:upper16:rlist
 573 000a 9B69     		ldr	r3, [r3, #24]
 574              		.loc 1 539 0
 575 000c 40F20006 		movw	r6, #:lower16:wa
 576              		.loc 1 538 0
 577 0010 9F68     		ldr	r7, [r3, #8]
 578              	.LVL46:
 579              		.loc 1 539 0
 580 0012 40F20005 		movw	r5, #:lower16:thread10
 581 0016 40F20004 		movw	r4, #:lower16:.LC4
 582              		.loc 1 536 0
 583 001a 83B0     		sub	sp, sp, #12
 584              	.LCFI12:
 585              		.cfi_def_cfa_offset 32
 586              		.loc 1 539 0
 587 001c C0F20005 		movt	r5, #:upper16:thread10
 588 0020 C0F20006 		movt	r6, #:upper16:wa
 589 0024 C0F20004 		movt	r4, #:upper16:.LC4
 590 0028 7A1C     		adds	r2, r7, #1
 591 002a 2B46     		mov	r3, r5
 592 002c 0094     		str	r4, [sp, #0]
 593 002e 3068     		ldr	r0, [r6, #0]
 594 0030 4FF49871 		mov	r1, #304
 595 0034 FFF7FEFF 		bl	chThdCreateStatic
 596              	.LVL47:
 597 0038 40F20004 		movw	r4, #:lower16:threads
 598 003c C0F20004 		movt	r4, #:upper16:threads
 599 0040 2060     		str	r0, [r4, #0]
 600              		.loc 1 540 0
 601 0042 40F20000 		movw	r0, #:lower16:.LC5
 602 0046 C0F20000 		movt	r0, #:upper16:.LC5
 603 004a BA1C     		adds	r2, r7, #2
 604 004c 2B46     		mov	r3, r5
 605 004e 0090     		str	r0, [sp, #0]
 606 0050 4FF49871 		mov	r1, #304
 607 0054 7068     		ldr	r0, [r6, #4]
 608 0056 FFF7FEFF 		bl	chThdCreateStatic
 609              	.LVL48:
 610 005a 6060     		str	r0, [r4, #4]
 611              		.loc 1 541 0
 612 005c 40F20000 		movw	r0, #:lower16:.LC1
 613 0060 C0F20000 		movt	r0, #:upper16:.LC1
 614 0064 FA1C     		adds	r2, r7, #3
 615 0066 2B46     		mov	r3, r5
 616 0068 0090     		str	r0, [sp, #0]
 617 006a 4FF49871 		mov	r1, #304
 618 006e B068     		ldr	r0, [r6, #8]
 619 0070 FFF7FEFF 		bl	chThdCreateStatic
 620              	.LVL49:
 621 0074 A060     		str	r0, [r4, #8]
 622              		.loc 1 542 0
 623 0076 40F20000 		movw	r0, #:lower16:.LC2
 624 007a C0F20000 		movt	r0, #:upper16:.LC2
 625 007e 3A1D     		adds	r2, r7, #4
ARM GAS  /var/folders/dt/0wfd0knj7gs46m8vwfzktm600000gn/T//cctF5Ltj.s 			page 12


 626 0080 2B46     		mov	r3, r5
 627 0082 0090     		str	r0, [sp, #0]
 628 0084 4FF49871 		mov	r1, #304
 629 0088 F068     		ldr	r0, [r6, #12]
 630 008a FFF7FEFF 		bl	chThdCreateStatic
 631              	.LVL50:
 632              		.loc 1 543 0
 633 008e 3669     		ldr	r6, [r6, #16]
 634              		.loc 1 542 0
 635 0090 E060     		str	r0, [r4, #12]
 636              		.loc 1 543 0
 637 0092 40F20000 		movw	r0, #:lower16:.LC0
 638 0096 C0F20000 		movt	r0, #:upper16:.LC0
 639 009a 4FF49871 		mov	r1, #304
 640 009e 7A1D     		adds	r2, r7, #5
 641 00a0 2B46     		mov	r3, r5
 642 00a2 0090     		str	r0, [sp, #0]
 643 00a4 3046     		mov	r0, r6
 644 00a6 FFF7FEFF 		bl	chThdCreateStatic
 645              	.LVL51:
 646 00aa 2061     		str	r0, [r4, #16]
 647              		.loc 1 544 0
 648 00ac 40F20000 		movw	r0, #:lower16:.LANCHOR0
 649 00b0 C0F20000 		movt	r0, #:upper16:.LANCHOR0
 650 00b4 FFF7FEFF 		bl	chCondBroadcast
 651              	.LVL52:
 652              		.loc 1 545 0
 653 00b8 FFF7FEFF 		bl	test_wait_threads
 654              	.LVL53:
 655              		.loc 1 546 0
 656 00bc 40F20001 		movw	r1, #:lower16:.LC6
 657 00c0 0120     		movs	r0, #1
 658 00c2 C0F20001 		movt	r1, #:upper16:.LC6
 659              		.loc 1 547 0
 660 00c6 03B0     		add	sp, sp, #12
 661 00c8 BDE8F040 		pop	{r4, r5, r6, r7, lr}
 662              		.loc 1 546 0
 663 00cc FFF7FEBF 		b	_test_assert_sequence
 664              	.LVL54:
 665              		.cfi_endproc
 666              	.LFE32:
 667              		.size	mtx7_execute, .-mtx7_execute
 668              		.section	.text.mtx6_execute,"ax",%progbits
 669              		.align	2
 670              		.p2align 4,,15
 671              		.thumb
 672              		.thumb_func
 673              		.type	mtx6_execute, %function
 674              	mtx6_execute:
 675              	.LFB30:
 676              		.loc 1 493 0
 677              		.cfi_startproc
 678              		@ args = 0, pretend = 0, frame = 0
 679              		@ frame_needed = 0, uses_anonymous_args = 0
 680 0000 F0B5     		push	{r4, r5, r6, r7, lr}
 681              	.LCFI13:
 682              		.cfi_def_cfa_offset 20
ARM GAS  /var/folders/dt/0wfd0knj7gs46m8vwfzktm600000gn/T//cctF5Ltj.s 			page 13


 683              		.cfi_offset 4, -20
 684              		.cfi_offset 5, -16
 685              		.cfi_offset 6, -12
 686              		.cfi_offset 7, -8
 687              		.cfi_offset 14, -4
 688              		.loc 1 495 0
 689 0002 40F20003 		movw	r3, #:lower16:rlist
 690 0006 C0F20003 		movt	r3, #:upper16:rlist
 691 000a 9B69     		ldr	r3, [r3, #24]
 692              		.loc 1 496 0
 693 000c 40F20006 		movw	r6, #:lower16:wa
 694              		.loc 1 495 0
 695 0010 9F68     		ldr	r7, [r3, #8]
 696              	.LVL55:
 697              		.loc 1 496 0
 698 0012 40F20005 		movw	r5, #:lower16:thread10
 699 0016 40F20001 		movw	r1, #:lower16:.LC4
 700              		.loc 1 493 0
 701 001a 83B0     		sub	sp, sp, #12
 702              	.LCFI14:
 703              		.cfi_def_cfa_offset 32
 704              		.loc 1 496 0
 705 001c C0F20006 		movt	r6, #:upper16:wa
 706 0020 C0F20005 		movt	r5, #:upper16:thread10
 707 0024 C0F20001 		movt	r1, #:upper16:.LC4
 708 0028 7A1C     		adds	r2, r7, #1
 709 002a 2B46     		mov	r3, r5
 710 002c 0091     		str	r1, [sp, #0]
 711 002e 3068     		ldr	r0, [r6, #0]
 712 0030 4FF49871 		mov	r1, #304
 713 0034 FFF7FEFF 		bl	chThdCreateStatic
 714              	.LVL56:
 715 0038 40F20004 		movw	r4, #:lower16:threads
 716 003c C0F20004 		movt	r4, #:upper16:threads
 717              		.loc 1 497 0
 718 0040 7168     		ldr	r1, [r6, #4]
 719              		.loc 1 496 0
 720 0042 2060     		str	r0, [r4, #0]
 721              		.loc 1 497 0
 722 0044 40F20000 		movw	r0, #:lower16:.LC5
 723 0048 C0F20000 		movt	r0, #:upper16:.LC5
 724 004c BA1C     		adds	r2, r7, #2
 725 004e 2B46     		mov	r3, r5
 726 0050 0090     		str	r0, [sp, #0]
 727 0052 0846     		mov	r0, r1
 728 0054 4FF49871 		mov	r1, #304
 729 0058 FFF7FEFF 		bl	chThdCreateStatic
 730              	.LVL57:
 731              		.loc 1 498 0
 732 005c B168     		ldr	r1, [r6, #8]
 733              		.loc 1 497 0
 734 005e 6060     		str	r0, [r4, #4]
 735              		.loc 1 498 0
 736 0060 40F20000 		movw	r0, #:lower16:.LC1
 737 0064 C0F20000 		movt	r0, #:upper16:.LC1
 738 0068 FA1C     		adds	r2, r7, #3
 739 006a 2B46     		mov	r3, r5
ARM GAS  /var/folders/dt/0wfd0knj7gs46m8vwfzktm600000gn/T//cctF5Ltj.s 			page 14


 740 006c 0090     		str	r0, [sp, #0]
 741 006e 0846     		mov	r0, r1
 742 0070 4FF49871 		mov	r1, #304
 743 0074 FFF7FEFF 		bl	chThdCreateStatic
 744              	.LVL58:
 745              		.loc 1 499 0
 746 0078 F168     		ldr	r1, [r6, #12]
 747              		.loc 1 498 0
 748 007a A060     		str	r0, [r4, #8]
 749              		.loc 1 499 0
 750 007c 40F20000 		movw	r0, #:lower16:.LC2
 751 0080 C0F20000 		movt	r0, #:upper16:.LC2
 752 0084 3A1D     		adds	r2, r7, #4
 753 0086 2B46     		mov	r3, r5
 754 0088 0090     		str	r0, [sp, #0]
 755 008a 0846     		mov	r0, r1
 756 008c 4FF49871 		mov	r1, #304
 757 0090 FFF7FEFF 		bl	chThdCreateStatic
 758              	.LVL59:
 759              		.loc 1 500 0
 760 0094 3269     		ldr	r2, [r6, #16]
 761 0096 40F20001 		movw	r1, #:lower16:.LC0
 762 009a C0F20001 		movt	r1, #:upper16:.LC0
 763              		.loc 1 499 0
 764 009e E060     		str	r0, [r4, #12]
 765              		.loc 1 500 0
 766 00a0 2B46     		mov	r3, r5
 767 00a2 0091     		str	r1, [sp, #0]
 768 00a4 1046     		mov	r0, r2
 769 00a6 4FF49871 		mov	r1, #304
 770 00aa 7A1D     		adds	r2, r7, #5
 771 00ac FFF7FEFF 		bl	chThdCreateStatic
 772              	.LVL60:
 773              	.LBB2:
 774              		.loc 1 501 0
 775 00b0 2023     		movs	r3, #32
 776              	.LVL61:
 777              	.LBE2:
 778              		.loc 1 500 0
 779 00b2 2061     		str	r0, [r4, #16]
 780              	.LBB3:
 781              		.loc 1 501 0
 782              	@ 501 "../../test/testmtx.c" 1
 783 00b4 83F31188 		msr     BASEPRI, r3
 784              	@ 0 "" 2
 785              	.LVL62:
 786              		.thumb
 787              	.LBE3:
 788              		.loc 1 502 0
 789 00b8 40F20004 		movw	r4, #:lower16:.LANCHOR0
 790 00bc C0F20004 		movt	r4, #:upper16:.LANCHOR0
 791 00c0 2046     		mov	r0, r4
 792 00c2 FFF7FEFF 		bl	chCondSignalI
 793              	.LVL63:
 794              		.loc 1 503 0
 795 00c6 2046     		mov	r0, r4
 796 00c8 FFF7FEFF 		bl	chCondSignalI
ARM GAS  /var/folders/dt/0wfd0knj7gs46m8vwfzktm600000gn/T//cctF5Ltj.s 			page 15


 797              	.LVL64:
 798              		.loc 1 504 0
 799 00cc 2046     		mov	r0, r4
 800 00ce FFF7FEFF 		bl	chCondSignalI
 801              	.LVL65:
 802              		.loc 1 505 0
 803 00d2 2046     		mov	r0, r4
 804 00d4 FFF7FEFF 		bl	chCondSignalI
 805              	.LVL66:
 806              		.loc 1 506 0
 807 00d8 2046     		mov	r0, r4
 808 00da FFF7FEFF 		bl	chCondSignalI
 809              	.LVL67:
 810              		.loc 1 507 0
 811 00de FFF7FEFF 		bl	chSchRescheduleS
 812              	.LVL68:
 813              	.LBB4:
 814              		.loc 1 508 0
 815 00e2 0023     		movs	r3, #0
 816              	.LVL69:
 817              	@ 508 "../../test/testmtx.c" 1
 818 00e4 83F31188 		msr     BASEPRI, r3
 819              	@ 0 "" 2
 820              	.LVL70:
 821              		.thumb
 822              	.LBE4:
 823              		.loc 1 509 0
 824 00e8 FFF7FEFF 		bl	test_wait_threads
 825              	.LVL71:
 826              		.loc 1 510 0
 827 00ec 40F20001 		movw	r1, #:lower16:.LC6
 828 00f0 0120     		movs	r0, #1
 829 00f2 C0F20001 		movt	r1, #:upper16:.LC6
 830              		.loc 1 511 0
 831 00f6 03B0     		add	sp, sp, #12
 832 00f8 BDE8F040 		pop	{r4, r5, r6, r7, lr}
 833              		.loc 1 510 0
 834 00fc FFF7FEBF 		b	_test_assert_sequence
 835              	.LVL72:
 836              		.cfi_endproc
 837              	.LFE30:
 838              		.size	mtx6_execute, .-mtx6_execute
 839              		.section	.text.mtx1_execute,"ax",%progbits
 840              		.align	2
 841              		.p2align 4,,15
 842              		.thumb
 843              		.thumb_func
 844              		.type	mtx1_execute, %function
 845              	mtx1_execute:
 846              	.LFB9:
 847              		.loc 1 97 0
 848              		.cfi_startproc
 849              		@ args = 0, pretend = 0, frame = 8
 850              		@ frame_needed = 0, uses_anonymous_args = 0
 851 0000 F0B5     		push	{r4, r5, r6, r7, lr}
 852              	.LCFI15:
 853              		.cfi_def_cfa_offset 20
ARM GAS  /var/folders/dt/0wfd0knj7gs46m8vwfzktm600000gn/T//cctF5Ltj.s 			page 16


 854              		.cfi_offset 4, -20
 855              		.cfi_offset 5, -16
 856              		.cfi_offset 6, -12
 857              		.cfi_offset 7, -8
 858              		.cfi_offset 14, -4
 859              		.loc 1 99 0
 860 0002 2C4F     		ldr	r7, .L20
 861              		.loc 1 101 0
 862 0004 2C4E     		ldr	r6, .L20+4
 863              		.loc 1 99 0
 864 0006 BB69     		ldr	r3, [r7, #24]
 865              		.loc 1 101 0
 866 0008 2C4D     		ldr	r5, .L20+8
 867              		.loc 1 99 0
 868 000a 9C68     		ldr	r4, [r3, #8]
 869              	.LVL73:
 870              		.loc 1 97 0
 871 000c 85B0     		sub	sp, sp, #20
 872              	.LCFI16:
 873              		.cfi_def_cfa_offset 40
 874              		.loc 1 100 0
 875 000e 2C48     		ldr	r0, .L20+12
 876 0010 FFF7FEFF 		bl	chMtxLock
 877              	.LVL74:
 878              		.loc 1 101 0
 879 0014 621C     		adds	r2, r4, #1
 880 0016 3068     		ldr	r0, [r6, #0]
 881 0018 4FF49871 		mov	r1, #304
 882 001c 294B     		ldr	r3, .L20+16
 883 001e 0095     		str	r5, [sp, #0]
 884 0020 FFF7FEFF 		bl	chThdCreateStatic
 885              	.LVL75:
 886 0024 284D     		ldr	r5, .L20+20
 887              		.loc 1 102 0
 888 0026 7368     		ldr	r3, [r6, #4]
 889              		.loc 1 101 0
 890 0028 2860     		str	r0, [r5, #0]
 891              		.loc 1 102 0
 892 002a 2848     		ldr	r0, .L20+24
 893 002c 0393     		str	r3, [sp, #12]
 894 002e A21C     		adds	r2, r4, #2
 895 0030 4FF49871 		mov	r1, #304
 896 0034 234B     		ldr	r3, .L20+16
 897 0036 0090     		str	r0, [sp, #0]
 898 0038 0398     		ldr	r0, [sp, #12]
 899 003a FFF7FEFF 		bl	chThdCreateStatic
 900              	.LVL76:
 901              		.loc 1 103 0
 902 003e B368     		ldr	r3, [r6, #8]
 903              		.loc 1 102 0
 904 0040 6860     		str	r0, [r5, #4]
 905              		.loc 1 103 0
 906 0042 2348     		ldr	r0, .L20+28
 907 0044 0393     		str	r3, [sp, #12]
 908 0046 E21C     		adds	r2, r4, #3
 909 0048 4FF49871 		mov	r1, #304
 910 004c 1D4B     		ldr	r3, .L20+16
ARM GAS  /var/folders/dt/0wfd0knj7gs46m8vwfzktm600000gn/T//cctF5Ltj.s 			page 17


 911 004e 0090     		str	r0, [sp, #0]
 912 0050 0398     		ldr	r0, [sp, #12]
 913 0052 FFF7FEFF 		bl	chThdCreateStatic
 914              	.LVL77:
 915              		.loc 1 104 0
 916 0056 F368     		ldr	r3, [r6, #12]
 917              		.loc 1 103 0
 918 0058 A860     		str	r0, [r5, #8]
 919              		.loc 1 104 0
 920 005a 1E48     		ldr	r0, .L20+32
 921 005c 0393     		str	r3, [sp, #12]
 922 005e 221D     		adds	r2, r4, #4
 923 0060 4FF49871 		mov	r1, #304
 924 0064 174B     		ldr	r3, .L20+16
 925 0066 0090     		str	r0, [sp, #0]
 926 0068 0398     		ldr	r0, [sp, #12]
 927 006a FFF7FEFF 		bl	chThdCreateStatic
 928              	.LVL78:
 929              		.loc 1 105 0
 930 006e 3669     		ldr	r6, [r6, #16]
 931              		.loc 1 104 0
 932 0070 E860     		str	r0, [r5, #12]
 933              		.loc 1 105 0
 934 0072 1948     		ldr	r0, .L20+36
 935 0074 4FF49871 		mov	r1, #304
 936 0078 621D     		adds	r2, r4, #5
 937 007a 124B     		ldr	r3, .L20+16
 938 007c 0090     		str	r0, [sp, #0]
 939 007e 3046     		mov	r0, r6
 940 0080 FFF7FEFF 		bl	chThdCreateStatic
 941              	.LVL79:
 942 0084 2861     		str	r0, [r5, #16]
 943              		.loc 1 106 0
 944 0086 FFF7FEFF 		bl	chMtxUnlock
 945              	.LVL80:
 946              		.loc 1 107 0
 947 008a FFF7FEFF 		bl	test_wait_threads
 948              	.LVL81:
 949              		.loc 1 108 0
 950 008e BB69     		ldr	r3, [r7, #24]
 951 0090 0120     		movs	r0, #1
 952 0092 9968     		ldr	r1, [r3, #8]
 953 0094 0B1B     		subs	r3, r1, r4
 954 0096 5942     		rsbs	r1, r3, #0
 955 0098 5941     		adcs	r1, r1, r3
 956 009a FFF7FEFF 		bl	_test_assert
 957              	.LVL82:
 958 009e 08B1     		cbz	r0, .L19
 959              		.loc 1 110 0
 960 00a0 05B0     		add	sp, sp, #20
 961 00a2 F0BD     		pop	{r4, r5, r6, r7, pc}
 962              	.L19:
 963              		.loc 1 109 0
 964 00a4 0D49     		ldr	r1, .L20+40
 965 00a6 0220     		movs	r0, #2
 966              		.loc 1 110 0
 967 00a8 05B0     		add	sp, sp, #20
ARM GAS  /var/folders/dt/0wfd0knj7gs46m8vwfzktm600000gn/T//cctF5Ltj.s 			page 18


 968 00aa BDE8F040 		pop	{r4, r5, r6, r7, lr}
 969              		.loc 1 109 0
 970 00ae FFF7FEBF 		b	_test_assert_sequence
 971              	.LVL83:
 972              	.L21:
 973 00b2 00BF     		.align	2
 974              	.L20:
 975 00b4 00000000 		.word	rlist
 976 00b8 00000000 		.word	wa
 977 00bc 10000000 		.word	.LC4
 978 00c0 00000000 		.word	.LANCHOR2
 979 00c4 00000000 		.word	thread1
 980 00c8 00000000 		.word	threads
 981 00cc 14000000 		.word	.LC5
 982 00d0 04000000 		.word	.LC1
 983 00d4 08000000 		.word	.LC2
 984 00d8 00000000 		.word	.LC0
 985 00dc 18000000 		.word	.LC6
 986              		.cfi_endproc
 987              	.LFE9:
 988              		.size	mtx1_execute, .-mtx1_execute
 989              		.section	.text.mtx5_execute,"ax",%progbits
 990              		.align	2
 991              		.p2align 4,,15
 992              		.thumb
 993              		.thumb_func
 994              		.type	mtx5_execute, %function
 995              	mtx5_execute:
 996              	.LFB27:
 997              		.loc 1 433 0
 998              		.cfi_startproc
 999              		@ args = 0, pretend = 0, frame = 0
 1000              		@ frame_needed = 0, uses_anonymous_args = 0
 1001 0000 F8B5     		push	{r3, r4, r5, r6, r7, lr}
 1002              	.LCFI17:
 1003              		.cfi_def_cfa_offset 24
 1004              		.cfi_offset 3, -24
 1005              		.cfi_offset 4, -20
 1006              		.cfi_offset 5, -16
 1007              		.cfi_offset 6, -12
 1008              		.cfi_offset 7, -8
 1009              		.cfi_offset 14, -4
 1010              		.loc 1 437 0
 1011 0002 2E4D     		ldr	r5, .L27
 1012              		.loc 1 439 0
 1013 0004 2E4C     		ldr	r4, .L27+4
 1014              		.loc 1 437 0
 1015 0006 AB69     		ldr	r3, [r5, #24]
 1016              		.loc 1 439 0
 1017 0008 2046     		mov	r0, r4
 1018              		.loc 1 437 0
 1019 000a 9E68     		ldr	r6, [r3, #8]
 1020              	.LVL84:
 1021              		.loc 1 439 0
 1022 000c FFF7FEFF 		bl	chMtxTryLock
 1023              	.LVL85:
 1024              		.loc 1 440 0
ARM GAS  /var/folders/dt/0wfd0knj7gs46m8vwfzktm600000gn/T//cctF5Ltj.s 			page 19


 1025 0010 0146     		mov	r1, r0
 1026 0012 0120     		movs	r0, #1
 1027              	.LVL86:
 1028 0014 FFF7FEFF 		bl	_test_assert
 1029              	.LVL87:
 1030 0018 00B1     		cbz	r0, .L26
 1031              	.L22:
 1032 001a F8BD     		pop	{r3, r4, r5, r6, r7, pc}
 1033              	.L26:
 1034              		.loc 1 442 0
 1035 001c 2046     		mov	r0, r4
 1036 001e FFF7FEFF 		bl	chMtxTryLock
 1037              	.LVL88:
 1038              		.loc 1 443 0
 1039 0022 80F00101 		eor	r1, r0, #1
 1040 0026 C9B2     		uxtb	r1, r1
 1041 0028 0220     		movs	r0, #2
 1042              	.LVL89:
 1043 002a FFF7FEFF 		bl	_test_assert
 1044              	.LVL90:
 1045 002e 0746     		mov	r7, r0
 1046 0030 0028     		cmp	r0, #0
 1047 0032 F2D1     		bne	.L22
 1048              	.LBB5:
 1049              		.loc 1 445 0
 1050 0034 2023     		movs	r3, #32
 1051              	.LVL91:
 1052              	@ 445 "../../test/testmtx.c" 1
 1053 0036 83F31188 		msr     BASEPRI, r3
 1054              	@ 0 "" 2
 1055              	.LVL92:
 1056              		.thumb
 1057              	.LBE5:
 1058              		.loc 1 446 0
 1059 003a FFF7FEFF 		bl	chMtxUnlockS
 1060              	.LVL93:
 1061              	.LBB6:
 1062              		.loc 1 447 0
 1063 003e 3B46     		mov	r3, r7
 1064              	.LVL94:
 1065              	@ 447 "../../test/testmtx.c" 1
 1066 0040 83F31188 		msr     BASEPRI, r3
 1067              	@ 0 "" 2
 1068              	.LVL95:
 1069              		.thumb
 1070              	.LBE6:
 1071              		.loc 1 449 0
 1072 0044 2168     		ldr	r1, [r4, #0]
 1073 0046 0320     		movs	r0, #3
 1074 0048 B1EB040C 		subs	ip, r1, r4
 1075 004c DCF10001 		rsbs	r1, ip, #0
 1076 0050 51EB0C01 		adcs	r1, r1, ip
 1077 0054 FFF7FEFF 		bl	_test_assert
 1078              	.LVL96:
 1079 0058 0028     		cmp	r0, #0
 1080 005a DED1     		bne	.L22
 1081              		.loc 1 450 0
ARM GAS  /var/folders/dt/0wfd0knj7gs46m8vwfzktm600000gn/T//cctF5Ltj.s 			page 20


 1082 005c A168     		ldr	r1, [r4, #8]
 1083 005e 0420     		movs	r0, #4
 1084 0060 D1F10101 		rsbs	r1, r1, #1
 1085 0064 38BF     		it	cc
 1086 0066 0021     		movcc	r1, #0
 1087 0068 FFF7FEFF 		bl	_test_assert
 1088              	.LVL97:
 1089 006c 0028     		cmp	r0, #0
 1090 006e D4D1     		bne	.L22
 1091              		.loc 1 451 0
 1092 0070 AB69     		ldr	r3, [r5, #24]
 1093 0072 0520     		movs	r0, #5
 1094 0074 9968     		ldr	r1, [r3, #8]
 1095 0076 B1EB060E 		subs	lr, r1, r6
 1096 007a DEF10001 		rsbs	r1, lr, #0
 1097 007e 51EB0E01 		adcs	r1, r1, lr
 1098 0082 FFF7FEFF 		bl	_test_assert
 1099              	.LVL98:
 1100 0086 0028     		cmp	r0, #0
 1101 0088 C7D1     		bne	.L22
 1102              		.loc 1 453 0
 1103 008a 2046     		mov	r0, r4
 1104 008c FFF7FEFF 		bl	chMtxLock
 1105              	.LVL99:
 1106              		.loc 1 454 0
 1107 0090 FFF7FEFF 		bl	chMtxUnlockAll
 1108              	.LVL100:
 1109              		.loc 1 455 0
 1110 0094 2168     		ldr	r1, [r4, #0]
 1111 0096 0620     		movs	r0, #6
 1112 0098 0A1B     		subs	r2, r1, r4
 1113 009a 5142     		rsbs	r1, r2, #0
 1114 009c 5141     		adcs	r1, r1, r2
 1115 009e FFF7FEFF 		bl	_test_assert
 1116              	.LVL101:
 1117 00a2 0028     		cmp	r0, #0
 1118 00a4 B9D1     		bne	.L22
 1119              		.loc 1 456 0
 1120 00a6 A168     		ldr	r1, [r4, #8]
 1121 00a8 0720     		movs	r0, #7
 1122 00aa D1F10101 		rsbs	r1, r1, #1
 1123 00ae 38BF     		it	cc
 1124 00b0 0021     		movcc	r1, #0
 1125              		.loc 1 457 0
 1126 00b2 BDE8F840 		pop	{r3, r4, r5, r6, r7, lr}
 1127              		.loc 1 456 0
 1128 00b6 FFF7FEBF 		b	_test_assert
 1129              	.LVL102:
 1130              	.L28:
 1131 00ba 00BF     		.align	2
 1132              	.L27:
 1133 00bc 00000000 		.word	rlist
 1134 00c0 00000000 		.word	.LANCHOR2
 1135              		.cfi_endproc
 1136              	.LFE27:
 1137              		.size	mtx5_execute, .-mtx5_execute
 1138 00c4 AFF30080 		.section	.text.mtx4_execute,"ax",%progbits
ARM GAS  /var/folders/dt/0wfd0knj7gs46m8vwfzktm600000gn/T//cctF5Ltj.s 			page 21


 1138      AFF30080 
 1138      AFF30080 
 1139              		.align	2
 1140              		.p2align 4,,15
 1141              		.thumb
 1142              		.thumb_func
 1143              		.type	mtx4_execute, %function
 1144              	mtx4_execute:
 1145              	.LFB25:
 1146              		.loc 1 365 0
 1147              		.cfi_startproc
 1148              		@ args = 0, pretend = 0, frame = 8
 1149              		@ frame_needed = 0, uses_anonymous_args = 0
 1150 0000 2DE9F046 		push	{r4, r5, r6, r7, r9, sl, lr}
 1151              	.LCFI18:
 1152              		.cfi_def_cfa_offset 28
 1153              		.cfi_offset 4, -28
 1154              		.cfi_offset 5, -24
 1155              		.cfi_offset 6, -20
 1156              		.cfi_offset 7, -16
 1157              		.cfi_offset 9, -12
 1158              		.cfi_offset 10, -8
 1159              		.cfi_offset 14, -4
 1160              		.loc 1 368 0
 1161 0004 8A4D     		ldr	r5, .L34
 1162              		.loc 1 371 0
 1163 0006 8B4E     		ldr	r6, .L34+4
 1164              		.loc 1 368 0
 1165 0008 AB69     		ldr	r3, [r5, #24]
 1166              		.loc 1 371 0
 1167 000a 3268     		ldr	r2, [r6, #0]
 1168              		.loc 1 368 0
 1169 000c 9C68     		ldr	r4, [r3, #8]
 1170              	.LVL103:
 1171              		.loc 1 365 0
 1172 000e 85B0     		sub	sp, sp, #20
 1173              	.LCFI19:
 1174              		.cfi_def_cfa_offset 48
 1175              		.loc 1 371 0
 1176 0010 8948     		ldr	r0, .L34+8
 1177 0012 0392     		str	r2, [sp, #12]
 1178              		.loc 1 369 0
 1179 0014 04F10109 		add	r9, r4, #1
 1180              	.LVL104:
 1181              		.loc 1 371 0
 1182 0018 4FF49871 		mov	r1, #304
 1183 001c 4A46     		mov	r2, r9
 1184 001e 874B     		ldr	r3, .L34+12
 1185 0020 0090     		str	r0, [sp, #0]
 1186 0022 0398     		ldr	r0, [sp, #12]
 1187 0024 FFF7FEFF 		bl	chThdCreateStatic
 1188              	.LVL105:
 1189 0028 854F     		ldr	r7, .L34+16
 1190              		.loc 1 372 0
 1191 002a 7668     		ldr	r6, [r6, #4]
 1192              		.loc 1 371 0
 1193 002c 3860     		str	r0, [r7, #0]
ARM GAS  /var/folders/dt/0wfd0knj7gs46m8vwfzktm600000gn/T//cctF5Ltj.s 			page 22


 1194              		.loc 1 372 0
 1195 002e 8548     		ldr	r0, .L34+20
 1196              		.loc 1 370 0
 1197 0030 04F1020A 		add	sl, r4, #2
 1198              	.LVL106:
 1199              		.loc 1 372 0
 1200 0034 4FF49871 		mov	r1, #304
 1201 0038 5246     		mov	r2, sl
 1202 003a 834B     		ldr	r3, .L34+24
 1203 003c 0090     		str	r0, [sp, #0]
 1204 003e 3046     		mov	r0, r6
 1205 0040 FFF7FEFF 		bl	chThdCreateStatic
 1206              	.LVL107:
 1207 0044 7860     		str	r0, [r7, #4]
 1208              		.loc 1 373 0
 1209 0046 8148     		ldr	r0, .L34+28
 1210 0048 FFF7FEFF 		bl	chMtxLock
 1211              	.LVL108:
 1212              		.loc 1 374 0
 1213 004c AB69     		ldr	r3, [r5, #24]
 1214 004e 0120     		movs	r0, #1
 1215 0050 9968     		ldr	r1, [r3, #8]
 1216 0052 0A1B     		subs	r2, r1, r4
 1217 0054 5142     		rsbs	r1, r2, #0
 1218 0056 5141     		adcs	r1, r1, r2
 1219 0058 FFF7FEFF 		bl	_test_assert
 1220              	.LVL109:
 1221 005c 10B1     		cbz	r0, .L33
 1222              	.L29:
 1223              		.loc 1 409 0
 1224 005e 05B0     		add	sp, sp, #20
 1225 0060 BDE8F086 		pop	{r4, r5, r6, r7, r9, sl, pc}
 1226              	.L33:
 1227              		.loc 1 375 0
 1228 0064 6420     		movs	r0, #100
 1229 0066 FFF7FEFF 		bl	chThdSleep
 1230              	.LVL110:
 1231              		.loc 1 376 0
 1232 006a AB69     		ldr	r3, [r5, #24]
 1233 006c 0220     		movs	r0, #2
 1234 006e 9968     		ldr	r1, [r3, #8]
 1235 0070 B1EB0903 		subs	r3, r1, r9
 1236 0074 5942     		rsbs	r1, r3, #0
 1237 0076 5941     		adcs	r1, r1, r3
 1238 0078 FFF7FEFF 		bl	_test_assert
 1239              	.LVL111:
 1240 007c 0028     		cmp	r0, #0
 1241 007e EED1     		bne	.L29
 1242              		.loc 1 377 0
 1243 0080 7348     		ldr	r0, .L34+32
 1244 0082 FFF7FEFF 		bl	chMtxLock
 1245              	.LVL112:
 1246              		.loc 1 378 0
 1247 0086 AB69     		ldr	r3, [r5, #24]
 1248 0088 0320     		movs	r0, #3
 1249 008a 9968     		ldr	r1, [r3, #8]
 1250 008c B1EB090C 		subs	ip, r1, r9
ARM GAS  /var/folders/dt/0wfd0knj7gs46m8vwfzktm600000gn/T//cctF5Ltj.s 			page 23


 1251 0090 DCF10001 		rsbs	r1, ip, #0
 1252 0094 51EB0C01 		adcs	r1, r1, ip
 1253 0098 FFF7FEFF 		bl	_test_assert
 1254              	.LVL113:
 1255 009c 0028     		cmp	r0, #0
 1256 009e DED1     		bne	.L29
 1257              		.loc 1 379 0
 1258 00a0 6420     		movs	r0, #100
 1259 00a2 FFF7FEFF 		bl	chThdSleep
 1260              	.LVL114:
 1261              		.loc 1 380 0
 1262 00a6 AB69     		ldr	r3, [r5, #24]
 1263 00a8 0420     		movs	r0, #4
 1264 00aa 9968     		ldr	r1, [r3, #8]
 1265 00ac B1EB0A0E 		subs	lr, r1, sl
 1266 00b0 DEF10001 		rsbs	r1, lr, #0
 1267 00b4 51EB0E01 		adcs	r1, r1, lr
 1268 00b8 FFF7FEFF 		bl	_test_assert
 1269              	.LVL115:
 1270 00bc 0028     		cmp	r0, #0
 1271 00be CED1     		bne	.L29
 1272              		.loc 1 381 0
 1273 00c0 FFF7FEFF 		bl	chMtxUnlock
 1274              	.LVL116:
 1275              		.loc 1 382 0
 1276 00c4 AB69     		ldr	r3, [r5, #24]
 1277 00c6 0520     		movs	r0, #5
 1278 00c8 9968     		ldr	r1, [r3, #8]
 1279 00ca B1EB0902 		subs	r2, r1, r9
 1280 00ce 5142     		rsbs	r1, r2, #0
 1281 00d0 5141     		adcs	r1, r1, r2
 1282 00d2 FFF7FEFF 		bl	_test_assert
 1283              	.LVL117:
 1284 00d6 0028     		cmp	r0, #0
 1285 00d8 C1D1     		bne	.L29
 1286              		.loc 1 383 0
 1287 00da 6420     		movs	r0, #100
 1288 00dc FFF7FEFF 		bl	chThdSleep
 1289              	.LVL118:
 1290              		.loc 1 384 0
 1291 00e0 AB69     		ldr	r3, [r5, #24]
 1292 00e2 0620     		movs	r0, #6
 1293 00e4 9968     		ldr	r1, [r3, #8]
 1294 00e6 B1EB0903 		subs	r3, r1, r9
 1295 00ea 5942     		rsbs	r1, r3, #0
 1296 00ec 5941     		adcs	r1, r1, r3
 1297 00ee FFF7FEFF 		bl	_test_assert
 1298              	.LVL119:
 1299 00f2 0028     		cmp	r0, #0
 1300 00f4 B3D1     		bne	.L29
 1301              		.loc 1 385 0
 1302 00f6 FFF7FEFF 		bl	chMtxUnlockAll
 1303              	.LVL120:
 1304              		.loc 1 386 0
 1305 00fa AB69     		ldr	r3, [r5, #24]
 1306 00fc 0720     		movs	r0, #7
 1307 00fe 9968     		ldr	r1, [r3, #8]
ARM GAS  /var/folders/dt/0wfd0knj7gs46m8vwfzktm600000gn/T//cctF5Ltj.s 			page 24


 1308 0100 B1EB040C 		subs	ip, r1, r4
 1309 0104 DCF10001 		rsbs	r1, ip, #0
 1310 0108 51EB0C01 		adcs	r1, r1, ip
 1311 010c FFF7FEFF 		bl	_test_assert
 1312              	.LVL121:
 1313 0110 0028     		cmp	r0, #0
 1314 0112 A4D1     		bne	.L29
 1315              		.loc 1 387 0
 1316 0114 FFF7FEFF 		bl	test_wait_threads
 1317              	.LVL122:
 1318              		.loc 1 390 0
 1319 0118 4E48     		ldr	r0, .L34+36
 1320 011a 4FF49871 		mov	r1, #304
 1321 011e 4A46     		mov	r2, r9
 1322 0120 464B     		ldr	r3, .L34+12
 1323 0122 0090     		str	r0, [sp, #0]
 1324 0124 0398     		ldr	r0, [sp, #12]
 1325 0126 FFF7FEFF 		bl	chThdCreateStatic
 1326              	.LVL123:
 1327 012a 3860     		str	r0, [r7, #0]
 1328              		.loc 1 391 0
 1329 012c 4A48     		ldr	r0, .L34+40
 1330 012e 4FF49871 		mov	r1, #304
 1331 0132 454B     		ldr	r3, .L34+24
 1332 0134 5246     		mov	r2, sl
 1333 0136 0090     		str	r0, [sp, #0]
 1334 0138 3046     		mov	r0, r6
 1335 013a FFF7FEFF 		bl	chThdCreateStatic
 1336              	.LVL124:
 1337 013e 7860     		str	r0, [r7, #4]
 1338              		.loc 1 392 0
 1339 0140 4248     		ldr	r0, .L34+28
 1340 0142 FFF7FEFF 		bl	chMtxLock
 1341              	.LVL125:
 1342              		.loc 1 393 0
 1343 0146 AB69     		ldr	r3, [r5, #24]
 1344 0148 0820     		movs	r0, #8
 1345 014a 9968     		ldr	r1, [r3, #8]
 1346 014c B1EB040E 		subs	lr, r1, r4
 1347 0150 DEF10001 		rsbs	r1, lr, #0
 1348 0154 51EB0E01 		adcs	r1, r1, lr
 1349 0158 FFF7FEFF 		bl	_test_assert
 1350              	.LVL126:
 1351 015c 0028     		cmp	r0, #0
 1352 015e 7FF47EAF 		bne	.L29
 1353              		.loc 1 394 0
 1354 0162 6420     		movs	r0, #100
 1355 0164 FFF7FEFF 		bl	chThdSleep
 1356              	.LVL127:
 1357              		.loc 1 395 0
 1358 0168 AB69     		ldr	r3, [r5, #24]
 1359 016a 0920     		movs	r0, #9
 1360 016c 9968     		ldr	r1, [r3, #8]
 1361 016e B1EB0902 		subs	r2, r1, r9
 1362 0172 5142     		rsbs	r1, r2, #0
 1363 0174 5141     		adcs	r1, r1, r2
 1364 0176 FFF7FEFF 		bl	_test_assert
ARM GAS  /var/folders/dt/0wfd0knj7gs46m8vwfzktm600000gn/T//cctF5Ltj.s 			page 25


 1365              	.LVL128:
 1366 017a 0028     		cmp	r0, #0
 1367 017c 7FF46FAF 		bne	.L29
 1368              		.loc 1 396 0
 1369 0180 3348     		ldr	r0, .L34+32
 1370 0182 FFF7FEFF 		bl	chMtxLock
 1371              	.LVL129:
 1372              		.loc 1 397 0
 1373 0186 AB69     		ldr	r3, [r5, #24]
 1374 0188 0A20     		movs	r0, #10
 1375 018a 9968     		ldr	r1, [r3, #8]
 1376 018c B1EB0903 		subs	r3, r1, r9
 1377 0190 5942     		rsbs	r1, r3, #0
 1378 0192 5941     		adcs	r1, r1, r3
 1379 0194 FFF7FEFF 		bl	_test_assert
 1380              	.LVL130:
 1381 0198 0028     		cmp	r0, #0
 1382 019a 7FF460AF 		bne	.L29
 1383              		.loc 1 398 0
 1384 019e 6420     		movs	r0, #100
 1385 01a0 FFF7FEFF 		bl	chThdSleep
 1386              	.LVL131:
 1387              		.loc 1 399 0
 1388 01a4 AB69     		ldr	r3, [r5, #24]
 1389 01a6 0B20     		movs	r0, #11
 1390 01a8 9968     		ldr	r1, [r3, #8]
 1391 01aa B1EB0A0C 		subs	ip, r1, sl
 1392 01ae DCF10001 		rsbs	r1, ip, #0
 1393 01b2 51EB0C01 		adcs	r1, r1, ip
 1394 01b6 FFF7FEFF 		bl	_test_assert
 1395              	.LVL132:
 1396 01ba 0646     		mov	r6, r0
 1397 01bc 0028     		cmp	r0, #0
 1398 01be 7FF44EAF 		bne	.L29
 1399              	.LBB7:
 1400              		.loc 1 400 0
 1401 01c2 2023     		movs	r3, #32
 1402              	.LVL133:
 1403              	@ 400 "../../test/testmtx.c" 1
 1404 01c4 83F31188 		msr     BASEPRI, r3
 1405              	@ 0 "" 2
 1406              	.LVL134:
 1407              		.thumb
 1408              	.LBE7:
 1409              		.loc 1 401 0
 1410 01c8 FFF7FEFF 		bl	chMtxUnlockS
 1411              	.LVL135:
 1412              	.LBB8:
 1413              		.loc 1 402 0
 1414 01cc 3346     		mov	r3, r6
 1415              	.LVL136:
 1416              	@ 402 "../../test/testmtx.c" 1
 1417 01ce 83F31188 		msr     BASEPRI, r3
 1418              	@ 0 "" 2
 1419              	.LVL137:
 1420              		.thumb
 1421              	.LBE8:
ARM GAS  /var/folders/dt/0wfd0knj7gs46m8vwfzktm600000gn/T//cctF5Ltj.s 			page 26


 1422              		.loc 1 403 0
 1423 01d2 AB69     		ldr	r3, [r5, #24]
 1424              	.LVL138:
 1425 01d4 0C20     		movs	r0, #12
 1426 01d6 9968     		ldr	r1, [r3, #8]
 1427 01d8 B1EB090E 		subs	lr, r1, r9
 1428 01dc DEF10001 		rsbs	r1, lr, #0
 1429 01e0 51EB0E01 		adcs	r1, r1, lr
 1430 01e4 FFF7FEFF 		bl	_test_assert
 1431              	.LVL139:
 1432 01e8 0028     		cmp	r0, #0
 1433 01ea 7FF438AF 		bne	.L29
 1434              		.loc 1 404 0
 1435 01ee 6420     		movs	r0, #100
 1436 01f0 FFF7FEFF 		bl	chThdSleep
 1437              	.LVL140:
 1438              		.loc 1 405 0
 1439 01f4 AB69     		ldr	r3, [r5, #24]
 1440 01f6 0D20     		movs	r0, #13
 1441 01f8 9968     		ldr	r1, [r3, #8]
 1442 01fa B1EB0902 		subs	r2, r1, r9
 1443 01fe 5142     		rsbs	r1, r2, #0
 1444 0200 5141     		adcs	r1, r1, r2
 1445 0202 FFF7FEFF 		bl	_test_assert
 1446              	.LVL141:
 1447 0206 0028     		cmp	r0, #0
 1448 0208 7FF429AF 		bne	.L29
 1449              		.loc 1 406 0
 1450 020c FFF7FEFF 		bl	chMtxUnlockAll
 1451              	.LVL142:
 1452              		.loc 1 407 0
 1453 0210 AB69     		ldr	r3, [r5, #24]
 1454 0212 0E20     		movs	r0, #14
 1455 0214 9968     		ldr	r1, [r3, #8]
 1456 0216 0B1B     		subs	r3, r1, r4
 1457 0218 5942     		rsbs	r1, r3, #0
 1458 021a 5941     		adcs	r1, r1, r3
 1459 021c FFF7FEFF 		bl	_test_assert
 1460              	.LVL143:
 1461 0220 0028     		cmp	r0, #0
 1462 0222 7FF41CAF 		bne	.L29
 1463              		.loc 1 409 0
 1464 0226 05B0     		add	sp, sp, #20
 1465 0228 BDE8F046 		pop	{r4, r5, r6, r7, r9, sl, lr}
 1466              		.loc 1 408 0
 1467 022c FFF7FEBF 		b	test_wait_threads
 1468              	.LVL144:
 1469              	.L35:
 1470              		.align	2
 1471              	.L34:
 1472 0230 00000000 		.word	rlist
 1473 0234 00000000 		.word	wa
 1474 0238 08000000 		.word	.LC2
 1475 023c 00000000 		.word	thread4a
 1476 0240 00000000 		.word	threads
 1477 0244 00000000 		.word	.LC0
 1478 0248 00000000 		.word	thread4b
ARM GAS  /var/folders/dt/0wfd0knj7gs46m8vwfzktm600000gn/T//cctF5Ltj.s 			page 27


 1479 024c 00000000 		.word	.LANCHOR1
 1480 0250 00000000 		.word	.LANCHOR2
 1481 0254 14000000 		.word	.LC5
 1482 0258 04000000 		.word	.LC1
 1483              		.cfi_endproc
 1484              	.LFE25:
 1485              		.size	mtx4_execute, .-mtx4_execute
 1486 025c AFF30080 		.section	.text.thread4b,"ax",%progbits
 1487              		.align	2
 1488              		.p2align 4,,15
 1489              		.thumb
 1490              		.thumb_func
 1491              		.type	thread4b, %function
 1492              	thread4b:
 1493              	.LFB24:
 1494              		.loc 1 356 0
 1495              		.cfi_startproc
 1496              		@ args = 0, pretend = 0, frame = 0
 1497              		@ frame_needed = 0, uses_anonymous_args = 0
 1498              	.LVL145:
 1499 0000 08B5     		push	{r3, lr}
 1500              	.LCFI20:
 1501              		.cfi_def_cfa_offset 8
 1502              		.cfi_offset 3, -8
 1503              		.cfi_offset 14, -4
 1504              		.loc 1 359 0
 1505 0002 9620     		movs	r0, #150
 1506              	.LVL146:
 1507 0004 FFF7FEFF 		bl	chThdSleep
 1508              	.LVL147:
 1509              		.loc 1 360 0
 1510 0008 40F20000 		movw	r0, #:lower16:.LANCHOR2
 1511 000c C0F20000 		movt	r0, #:upper16:.LANCHOR2
 1512 0010 FFF7FEFF 		bl	chMtxLock
 1513              	.LVL148:
 1514              		.loc 1 361 0
 1515 0014 FFF7FEFF 		bl	chMtxUnlock
 1516              	.LVL149:
 1517              		.loc 1 363 0
 1518 0018 0020     		movs	r0, #0
 1519 001a 08BD     		pop	{r3, pc}
 1520              		.cfi_endproc
 1521              	.LFE24:
 1522              		.size	thread4b, .-thread4b
 1523 001c AFF30080 		.section	.text.thread4a,"ax",%progbits
 1524              		.align	2
 1525              		.p2align 4,,15
 1526              		.thumb
 1527              		.thumb_func
 1528              		.type	thread4a, %function
 1529              	thread4a:
 1530              	.LFB23:
 1531              		.loc 1 347 0
 1532              		.cfi_startproc
 1533              		@ args = 0, pretend = 0, frame = 0
 1534              		@ frame_needed = 0, uses_anonymous_args = 0
 1535              	.LVL150:
ARM GAS  /var/folders/dt/0wfd0knj7gs46m8vwfzktm600000gn/T//cctF5Ltj.s 			page 28


 1536 0000 08B5     		push	{r3, lr}
 1537              	.LCFI21:
 1538              		.cfi_def_cfa_offset 8
 1539              		.cfi_offset 3, -8
 1540              		.cfi_offset 14, -4
 1541              		.loc 1 350 0
 1542 0002 3220     		movs	r0, #50
 1543              	.LVL151:
 1544 0004 FFF7FEFF 		bl	chThdSleep
 1545              	.LVL152:
 1546              		.loc 1 351 0
 1547 0008 40F20000 		movw	r0, #:lower16:.LANCHOR1
 1548 000c C0F20000 		movt	r0, #:upper16:.LANCHOR1
 1549 0010 FFF7FEFF 		bl	chMtxLock
 1550              	.LVL153:
 1551              		.loc 1 352 0
 1552 0014 FFF7FEFF 		bl	chMtxUnlock
 1553              	.LVL154:
 1554              		.loc 1 354 0
 1555 0018 0020     		movs	r0, #0
 1556 001a 08BD     		pop	{r3, pc}
 1557              		.cfi_endproc
 1558              	.LFE23:
 1559              		.size	thread4a, .-thread4a
 1560 001c AFF30080 		.section	.text.mtx3_execute,"ax",%progbits
 1561              		.align	2
 1562              		.p2align 4,,15
 1563              		.thumb
 1564              		.thumb_func
 1565              		.type	mtx3_execute, %function
 1566              	mtx3_execute:
 1567              	.LFB21:
 1568              		.loc 1 308 0
 1569              		.cfi_startproc
 1570              		@ args = 0, pretend = 0, frame = 8
 1571              		@ frame_needed = 0, uses_anonymous_args = 0
 1572 0000 2DE9F041 		push	{r4, r5, r6, r7, r8, lr}
 1573              	.LCFI22:
 1574              		.cfi_def_cfa_offset 24
 1575              		.cfi_offset 4, -24
 1576              		.cfi_offset 5, -20
 1577              		.cfi_offset 6, -16
 1578              		.cfi_offset 7, -12
 1579              		.cfi_offset 8, -8
 1580              		.cfi_offset 14, -4
 1581              		.loc 1 313 0
 1582 0004 304E     		ldr	r6, .L41
 1583              		.loc 1 308 0
 1584 0006 84B0     		sub	sp, sp, #16
 1585              	.LCFI23:
 1586              		.cfi_def_cfa_offset 40
 1587              		.loc 1 311 0
 1588 0008 FFF7FEFF 		bl	test_wait_tick
 1589              	.LVL155:
 1590              		.loc 1 313 0
 1591 000c B369     		ldr	r3, [r6, #24]
 1592 000e DFF8DC80 		ldr	r8, .L41+36
ARM GAS  /var/folders/dt/0wfd0knj7gs46m8vwfzktm600000gn/T//cctF5Ltj.s 			page 29


 1593 0012 9A68     		ldr	r2, [r3, #8]
 1594 0014 0025     		movs	r5, #0
 1595              		.loc 1 312 0
 1596 0016 2D4C     		ldr	r4, .L41+4
 1597              		.loc 1 313 0
 1598 0018 4FF49871 		mov	r1, #304
 1599 001c 053A     		subs	r2, r2, #5
 1600 001e 2C4B     		ldr	r3, .L41+8
 1601 0020 0095     		str	r5, [sp, #0]
 1602 0022 D8F80000 		ldr	r0, [r8, #0]
 1603              		.loc 1 312 0
 1604 0026 E768     		ldr	r7, [r4, #12]
 1605              	.LVL156:
 1606              		.loc 1 313 0
 1607 0028 FFF7FEFF 		bl	chThdCreateStatic
 1608              	.LVL157:
 1609              		.loc 1 314 0
 1610 002c B369     		ldr	r3, [r6, #24]
 1611              		.loc 1 313 0
 1612 002e 294C     		ldr	r4, .L41+12
 1613              		.loc 1 314 0
 1614 0030 9A68     		ldr	r2, [r3, #8]
 1615 0032 D8F80430 		ldr	r3, [r8, #4]
 1616              		.loc 1 313 0
 1617 0036 2060     		str	r0, [r4, #0]
 1618              		.loc 1 314 0
 1619 0038 0393     		str	r3, [sp, #12]
 1620 003a 4FF49871 		mov	r1, #304
 1621 003e 043A     		subs	r2, r2, #4
 1622 0040 254B     		ldr	r3, .L41+16
 1623 0042 0095     		str	r5, [sp, #0]
 1624 0044 0398     		ldr	r0, [sp, #12]
 1625 0046 FFF7FEFF 		bl	chThdCreateStatic
 1626              	.LVL158:
 1627              		.loc 1 315 0
 1628 004a B369     		ldr	r3, [r6, #24]
 1629 004c D8F80820 		ldr	r2, [r8, #8]
 1630 0050 4FF49871 		mov	r1, #304
 1631 0054 0392     		str	r2, [sp, #12]
 1632 0056 9A68     		ldr	r2, [r3, #8]
 1633              		.loc 1 314 0
 1634 0058 6060     		str	r0, [r4, #4]
 1635              		.loc 1 315 0
 1636 005a 033A     		subs	r2, r2, #3
 1637 005c 1F4B     		ldr	r3, .L41+20
 1638 005e 0095     		str	r5, [sp, #0]
 1639 0060 0398     		ldr	r0, [sp, #12]
 1640 0062 FFF7FEFF 		bl	chThdCreateStatic
 1641              	.LVL159:
 1642              		.loc 1 316 0
 1643 0066 B369     		ldr	r3, [r6, #24]
 1644 0068 D8F80C20 		ldr	r2, [r8, #12]
 1645 006c 4FF49871 		mov	r1, #304
 1646 0070 0392     		str	r2, [sp, #12]
 1647 0072 9A68     		ldr	r2, [r3, #8]
 1648              		.loc 1 315 0
 1649 0074 A060     		str	r0, [r4, #8]
ARM GAS  /var/folders/dt/0wfd0knj7gs46m8vwfzktm600000gn/T//cctF5Ltj.s 			page 30


 1650              		.loc 1 316 0
 1651 0076 023A     		subs	r2, r2, #2
 1652 0078 194B     		ldr	r3, .L41+24
 1653 007a 0095     		str	r5, [sp, #0]
 1654 007c 0398     		ldr	r0, [sp, #12]
 1655 007e FFF7FEFF 		bl	chThdCreateStatic
 1656              	.LVL160:
 1657              		.loc 1 317 0
 1658 0082 B369     		ldr	r3, [r6, #24]
 1659 0084 D8F81060 		ldr	r6, [r8, #16]
 1660 0088 9A68     		ldr	r2, [r3, #8]
 1661 008a 4FF49871 		mov	r1, #304
 1662              		.loc 1 316 0
 1663 008e E060     		str	r0, [r4, #12]
 1664              		.loc 1 317 0
 1665 0090 013A     		subs	r2, r2, #1
 1666 0092 144B     		ldr	r3, .L41+28
 1667 0094 0095     		str	r5, [sp, #0]
 1668 0096 3046     		mov	r0, r6
 1669 0098 FFF7FEFF 		bl	chThdCreateStatic
 1670              	.LVL161:
 1671 009c 2061     		str	r0, [r4, #16]
 1672              		.loc 1 318 0
 1673 009e FFF7FEFF 		bl	test_wait_threads
 1674              	.LVL162:
 1675              		.loc 1 319 0
 1676 00a2 0120     		movs	r0, #1
 1677 00a4 1049     		ldr	r1, .L41+32
 1678 00a6 FFF7FEFF 		bl	_test_assert_sequence
 1679              	.LVL163:
 1680 00aa 10B1     		cbz	r0, .L40
 1681              		.loc 1 321 0
 1682 00ac 04B0     		add	sp, sp, #16
 1683 00ae BDE8F081 		pop	{r4, r5, r6, r7, r8, pc}
 1684              	.L40:
 1685              		.loc 1 320 0
 1686 00b2 0220     		movs	r0, #2
 1687 00b4 07F16E01 		add	r1, r7, #110
 1688 00b8 07F17302 		add	r2, r7, #115
 1689              		.loc 1 321 0
 1690 00bc 04B0     		add	sp, sp, #16
 1691 00be BDE8F041 		pop	{r4, r5, r6, r7, r8, lr}
 1692              		.loc 1 320 0
 1693 00c2 FFF7FEBF 		b	_test_assert_time_window
 1694              	.LVL164:
 1695              	.L42:
 1696 00c6 00BF     		.align	2
 1697              	.L41:
 1698 00c8 00000000 		.word	rlist
 1699 00cc 00000000 		.word	vtlist
 1700 00d0 00000000 		.word	thread3LL
 1701 00d4 00000000 		.word	threads
 1702 00d8 00000000 		.word	thread3L
 1703 00dc 00000000 		.word	thread3M
 1704 00e0 00000000 		.word	thread3H
 1705 00e4 00000000 		.word	thread3HH
 1706 00e8 18000000 		.word	.LC6
ARM GAS  /var/folders/dt/0wfd0knj7gs46m8vwfzktm600000gn/T//cctF5Ltj.s 			page 31


 1707 00ec 00000000 		.word	wa
 1708              		.cfi_endproc
 1709              	.LFE21:
 1710              		.size	mtx3_execute, .-mtx3_execute
 1711              		.section	.text.mtx2_execute,"ax",%progbits
 1712              		.align	2
 1713              		.p2align 4,,15
 1714              		.thumb
 1715              		.thumb_func
 1716              		.type	mtx2_execute, %function
 1717              	mtx2_execute:
 1718              	.LFB14:
 1719              		.loc 1 190 0
 1720              		.cfi_startproc
 1721              		@ args = 0, pretend = 0, frame = 8
 1722              		@ frame_needed = 0, uses_anonymous_args = 0
 1723 0000 2DE9F041 		push	{r4, r5, r6, r7, r8, lr}
 1724              	.LCFI24:
 1725              		.cfi_def_cfa_offset 24
 1726              		.cfi_offset 4, -24
 1727              		.cfi_offset 5, -20
 1728              		.cfi_offset 6, -16
 1729              		.cfi_offset 7, -12
 1730              		.cfi_offset 8, -8
 1731              		.cfi_offset 14, -4
 1732              		.loc 1 195 0
 1733 0004 224E     		ldr	r6, .L46
 1734              		.loc 1 190 0
 1735 0006 84B0     		sub	sp, sp, #16
 1736              	.LCFI25:
 1737              		.cfi_def_cfa_offset 40
 1738              		.loc 1 193 0
 1739 0008 FFF7FEFF 		bl	test_wait_tick
 1740              	.LVL165:
 1741              		.loc 1 195 0
 1742 000c B369     		ldr	r3, [r6, #24]
 1743 000e DFF89C80 		ldr	r8, .L46+28
 1744 0012 9A68     		ldr	r2, [r3, #8]
 1745 0014 0025     		movs	r5, #0
 1746              		.loc 1 194 0
 1747 0016 1F4C     		ldr	r4, .L46+4
 1748              		.loc 1 195 0
 1749 0018 4FF49871 		mov	r1, #304
 1750 001c 013A     		subs	r2, r2, #1
 1751 001e 1E4B     		ldr	r3, .L46+8
 1752 0020 0095     		str	r5, [sp, #0]
 1753 0022 D8F80000 		ldr	r0, [r8, #0]
 1754              		.loc 1 194 0
 1755 0026 E768     		ldr	r7, [r4, #12]
 1756              	.LVL166:
 1757              		.loc 1 195 0
 1758 0028 FFF7FEFF 		bl	chThdCreateStatic
 1759              	.LVL167:
 1760              		.loc 1 196 0
 1761 002c B369     		ldr	r3, [r6, #24]
 1762              		.loc 1 195 0
 1763 002e 1B4C     		ldr	r4, .L46+12
ARM GAS  /var/folders/dt/0wfd0knj7gs46m8vwfzktm600000gn/T//cctF5Ltj.s 			page 32


 1764              		.loc 1 196 0
 1765 0030 9A68     		ldr	r2, [r3, #8]
 1766 0032 D8F80430 		ldr	r3, [r8, #4]
 1767              		.loc 1 195 0
 1768 0036 2060     		str	r0, [r4, #0]
 1769              		.loc 1 196 0
 1770 0038 0393     		str	r3, [sp, #12]
 1771 003a 4FF49871 		mov	r1, #304
 1772 003e 023A     		subs	r2, r2, #2
 1773 0040 174B     		ldr	r3, .L46+16
 1774 0042 0095     		str	r5, [sp, #0]
 1775 0044 0398     		ldr	r0, [sp, #12]
 1776 0046 FFF7FEFF 		bl	chThdCreateStatic
 1777              	.LVL168:
 1778              		.loc 1 197 0
 1779 004a B369     		ldr	r3, [r6, #24]
 1780 004c D8F80860 		ldr	r6, [r8, #8]
 1781 0050 9A68     		ldr	r2, [r3, #8]
 1782 0052 4FF49871 		mov	r1, #304
 1783              		.loc 1 196 0
 1784 0056 6060     		str	r0, [r4, #4]
 1785              		.loc 1 197 0
 1786 0058 033A     		subs	r2, r2, #3
 1787 005a 124B     		ldr	r3, .L46+20
 1788 005c 0095     		str	r5, [sp, #0]
 1789 005e 3046     		mov	r0, r6
 1790 0060 FFF7FEFF 		bl	chThdCreateStatic
 1791              	.LVL169:
 1792 0064 A060     		str	r0, [r4, #8]
 1793              		.loc 1 198 0
 1794 0066 FFF7FEFF 		bl	test_wait_threads
 1795              	.LVL170:
 1796              		.loc 1 199 0
 1797 006a 0120     		movs	r0, #1
 1798 006c 0E49     		ldr	r1, .L46+24
 1799 006e FFF7FEFF 		bl	_test_assert_sequence
 1800              	.LVL171:
 1801 0072 10B1     		cbz	r0, .L45
 1802              		.loc 1 201 0
 1803 0074 04B0     		add	sp, sp, #16
 1804 0076 BDE8F081 		pop	{r4, r5, r6, r7, r8, pc}
 1805              	.L45:
 1806              		.loc 1 200 0
 1807 007a 0220     		movs	r0, #2
 1808 007c 07F16401 		add	r1, r7, #100
 1809 0080 07F16902 		add	r2, r7, #105
 1810              		.loc 1 201 0
 1811 0084 04B0     		add	sp, sp, #16
 1812 0086 BDE8F041 		pop	{r4, r5, r6, r7, r8, lr}
 1813              		.loc 1 200 0
 1814 008a FFF7FEBF 		b	_test_assert_time_window
 1815              	.LVL172:
 1816              	.L47:
 1817 008e 00BF     		.align	2
 1818              	.L46:
 1819 0090 00000000 		.word	rlist
 1820 0094 00000000 		.word	vtlist
ARM GAS  /var/folders/dt/0wfd0knj7gs46m8vwfzktm600000gn/T//cctF5Ltj.s 			page 33


 1821 0098 00000000 		.word	thread2H
 1822 009c 00000000 		.word	threads
 1823 00a0 00000000 		.word	thread2M
 1824 00a4 00000000 		.word	thread2L
 1825 00a8 0C000000 		.word	.LC3
 1826 00ac 00000000 		.word	wa
 1827              		.cfi_endproc
 1828              	.LFE14:
 1829              		.size	mtx2_execute, .-mtx2_execute
 1830              		.section	.text.thread3HH,"ax",%progbits
 1831              		.align	2
 1832              		.p2align 4,,15
 1833              		.thumb
 1834              		.thumb_func
 1835              		.type	thread3HH, %function
 1836              	thread3HH:
 1837              	.LFB20:
 1838              		.loc 1 297 0
 1839              		.cfi_startproc
 1840              		@ args = 0, pretend = 0, frame = 0
 1841              		@ frame_needed = 0, uses_anonymous_args = 0
 1842              	.LVL173:
 1843 0000 08B5     		push	{r3, lr}
 1844              	.LCFI26:
 1845              		.cfi_def_cfa_offset 8
 1846              		.cfi_offset 3, -8
 1847              		.cfi_offset 14, -4
 1848              		.loc 1 300 0
 1849 0002 3220     		movs	r0, #50
 1850              	.LVL174:
 1851 0004 FFF7FEFF 		bl	chThdSleep
 1852              	.LVL175:
 1853              		.loc 1 301 0
 1854 0008 40F20000 		movw	r0, #:lower16:.LANCHOR1
 1855 000c C0F20000 		movt	r0, #:upper16:.LANCHOR1
 1856 0010 FFF7FEFF 		bl	chMtxLock
 1857              	.LVL176:
 1858              		.loc 1 302 0
 1859 0014 0A20     		movs	r0, #10
 1860 0016 FFF7FEFF 		bl	test_cpu_pulse
 1861              	.LVL177:
 1862              		.loc 1 303 0
 1863 001a FFF7FEFF 		bl	chMtxUnlock
 1864              	.LVL178:
 1865              		.loc 1 304 0
 1866 001e 4120     		movs	r0, #65
 1867 0020 FFF7FEFF 		bl	test_emit_token
 1868              	.LVL179:
 1869              		.loc 1 306 0
 1870 0024 0020     		movs	r0, #0
 1871 0026 08BD     		pop	{r3, pc}
 1872              		.cfi_endproc
 1873              	.LFE20:
 1874              		.size	thread3HH, .-thread3HH
 1875 0028 AFF30080 		.section	.text.thread3H,"ax",%progbits
 1875      AFF30080 
 1876              		.align	2
ARM GAS  /var/folders/dt/0wfd0knj7gs46m8vwfzktm600000gn/T//cctF5Ltj.s 			page 34


 1877              		.p2align 4,,15
 1878              		.thumb
 1879              		.thumb_func
 1880              		.type	thread3H, %function
 1881              	thread3H:
 1882              	.LFB19:
 1883              		.loc 1 287 0
 1884              		.cfi_startproc
 1885              		@ args = 0, pretend = 0, frame = 0
 1886              		@ frame_needed = 0, uses_anonymous_args = 0
 1887              	.LVL180:
 1888 0000 08B5     		push	{r3, lr}
 1889              	.LCFI27:
 1890              		.cfi_def_cfa_offset 8
 1891              		.cfi_offset 3, -8
 1892              		.cfi_offset 14, -4
 1893              		.loc 1 290 0
 1894 0002 2820     		movs	r0, #40
 1895              	.LVL181:
 1896 0004 FFF7FEFF 		bl	chThdSleep
 1897              	.LVL182:
 1898              		.loc 1 291 0
 1899 0008 1420     		movs	r0, #20
 1900 000a FFF7FEFF 		bl	test_cpu_pulse
 1901              	.LVL183:
 1902              		.loc 1 292 0
 1903 000e 4220     		movs	r0, #66
 1904 0010 FFF7FEFF 		bl	test_emit_token
 1905              	.LVL184:
 1906              		.loc 1 294 0
 1907 0014 0020     		movs	r0, #0
 1908 0016 08BD     		pop	{r3, pc}
 1909              		.cfi_endproc
 1910              	.LFE19:
 1911              		.size	thread3H, .-thread3H
 1912 0018 AFF30080 		.section	.text.thread3M,"ax",%progbits
 1912      AFF30080 
 1913              		.align	2
 1914              		.p2align 4,,15
 1915              		.thumb
 1916              		.thumb_func
 1917              		.type	thread3M, %function
 1918              	thread3M:
 1919              	.LFB18:
 1920              		.loc 1 275 0
 1921              		.cfi_startproc
 1922              		@ args = 0, pretend = 0, frame = 0
 1923              		@ frame_needed = 0, uses_anonymous_args = 0
 1924              	.LVL185:
 1925 0000 08B5     		push	{r3, lr}
 1926              	.LCFI28:
 1927              		.cfi_def_cfa_offset 8
 1928              		.cfi_offset 3, -8
 1929              		.cfi_offset 14, -4
 1930              		.loc 1 278 0
 1931 0002 1420     		movs	r0, #20
 1932              	.LVL186:
ARM GAS  /var/folders/dt/0wfd0knj7gs46m8vwfzktm600000gn/T//cctF5Ltj.s 			page 35


 1933 0004 FFF7FEFF 		bl	chThdSleep
 1934              	.LVL187:
 1935              		.loc 1 279 0
 1936 0008 40F20000 		movw	r0, #:lower16:.LANCHOR1
 1937 000c C0F20000 		movt	r0, #:upper16:.LANCHOR1
 1938 0010 FFF7FEFF 		bl	chMtxLock
 1939              	.LVL188:
 1940              		.loc 1 280 0
 1941 0014 0A20     		movs	r0, #10
 1942 0016 FFF7FEFF 		bl	test_cpu_pulse
 1943              	.LVL189:
 1944              		.loc 1 281 0
 1945 001a FFF7FEFF 		bl	chMtxUnlock
 1946              	.LVL190:
 1947              		.loc 1 282 0
 1948 001e 4320     		movs	r0, #67
 1949 0020 FFF7FEFF 		bl	test_emit_token
 1950              	.LVL191:
 1951              		.loc 1 284 0
 1952 0024 0020     		movs	r0, #0
 1953 0026 08BD     		pop	{r3, pc}
 1954              		.cfi_endproc
 1955              	.LFE18:
 1956              		.size	thread3M, .-thread3M
 1957 0028 AFF30080 		.section	.text.thread3L,"ax",%progbits
 1957      AFF30080 
 1958              		.align	2
 1959              		.p2align 4,,15
 1960              		.thumb
 1961              		.thumb_func
 1962              		.type	thread3L, %function
 1963              	thread3L:
 1964              	.LFB17:
 1965              		.loc 1 259 0
 1966              		.cfi_startproc
 1967              		@ args = 0, pretend = 0, frame = 0
 1968              		@ frame_needed = 0, uses_anonymous_args = 0
 1969              	.LVL192:
 1970 0000 08B5     		push	{r3, lr}
 1971              	.LCFI29:
 1972              		.cfi_def_cfa_offset 8
 1973              		.cfi_offset 3, -8
 1974              		.cfi_offset 14, -4
 1975              		.loc 1 262 0
 1976 0002 0A20     		movs	r0, #10
 1977              	.LVL193:
 1978 0004 FFF7FEFF 		bl	chThdSleep
 1979              	.LVL194:
 1980              		.loc 1 263 0
 1981 0008 40F20000 		movw	r0, #:lower16:.LANCHOR1
 1982 000c C0F20000 		movt	r0, #:upper16:.LANCHOR1
 1983 0010 FFF7FEFF 		bl	chMtxLock
 1984              	.LVL195:
 1985              		.loc 1 264 0
 1986 0014 1420     		movs	r0, #20
 1987 0016 FFF7FEFF 		bl	test_cpu_pulse
 1988              	.LVL196:
ARM GAS  /var/folders/dt/0wfd0knj7gs46m8vwfzktm600000gn/T//cctF5Ltj.s 			page 36


 1989              		.loc 1 265 0
 1990 001a 40F20000 		movw	r0, #:lower16:.LANCHOR2
 1991 001e C0F20000 		movt	r0, #:upper16:.LANCHOR2
 1992 0022 FFF7FEFF 		bl	chMtxLock
 1993              	.LVL197:
 1994              		.loc 1 266 0
 1995 0026 0A20     		movs	r0, #10
 1996 0028 FFF7FEFF 		bl	test_cpu_pulse
 1997              	.LVL198:
 1998              		.loc 1 267 0
 1999 002c FFF7FEFF 		bl	chMtxUnlock
 2000              	.LVL199:
 2001              		.loc 1 268 0
 2002 0030 0A20     		movs	r0, #10
 2003 0032 FFF7FEFF 		bl	test_cpu_pulse
 2004              	.LVL200:
 2005              		.loc 1 269 0
 2006 0036 FFF7FEFF 		bl	chMtxUnlock
 2007              	.LVL201:
 2008              		.loc 1 270 0
 2009 003a 4420     		movs	r0, #68
 2010 003c FFF7FEFF 		bl	test_emit_token
 2011              	.LVL202:
 2012              		.loc 1 272 0
 2013 0040 0020     		movs	r0, #0
 2014 0042 08BD     		pop	{r3, pc}
 2015              		.cfi_endproc
 2016              	.LFE17:
 2017              		.size	thread3L, .-thread3L
 2018 0044 AFF30080 		.section	.text.thread3LL,"ax",%progbits
 2018      AFF30080 
 2018      AFF30080 
 2019              		.align	2
 2020              		.p2align 4,,15
 2021              		.thumb
 2022              		.thumb_func
 2023              		.type	thread3LL, %function
 2024              	thread3LL:
 2025              	.LFB16:
 2026              		.loc 1 248 0
 2027              		.cfi_startproc
 2028              		@ args = 0, pretend = 0, frame = 0
 2029              		@ frame_needed = 0, uses_anonymous_args = 0
 2030              	.LVL203:
 2031              		.loc 1 251 0
 2032 0000 40F20000 		movw	r0, #:lower16:.LANCHOR2
 2033              	.LVL204:
 2034              		.loc 1 248 0
 2035 0004 08B5     		push	{r3, lr}
 2036              	.LCFI30:
 2037              		.cfi_def_cfa_offset 8
 2038              		.cfi_offset 3, -8
 2039              		.cfi_offset 14, -4
 2040              		.loc 1 251 0
 2041 0006 C0F20000 		movt	r0, #:upper16:.LANCHOR2
 2042 000a FFF7FEFF 		bl	chMtxLock
 2043              	.LVL205:
ARM GAS  /var/folders/dt/0wfd0knj7gs46m8vwfzktm600000gn/T//cctF5Ltj.s 			page 37


 2044              		.loc 1 252 0
 2045 000e 1E20     		movs	r0, #30
 2046 0010 FFF7FEFF 		bl	test_cpu_pulse
 2047              	.LVL206:
 2048              		.loc 1 253 0
 2049 0014 FFF7FEFF 		bl	chMtxUnlock
 2050              	.LVL207:
 2051              		.loc 1 254 0
 2052 0018 4520     		movs	r0, #69
 2053 001a FFF7FEFF 		bl	test_emit_token
 2054              	.LVL208:
 2055              		.loc 1 256 0
 2056 001e 0020     		movs	r0, #0
 2057 0020 08BD     		pop	{r3, pc}
 2058              		.cfi_endproc
 2059              	.LFE16:
 2060              		.size	thread3LL, .-thread3LL
 2061 0022 00BFAFF3 		.section	.text.thread2L,"ax",%progbits
 2061      0080AFF3 
 2061      0080AFF3 
 2061      0080
 2062              		.align	2
 2063              		.p2align 4,,15
 2064              		.thumb
 2065              		.thumb_func
 2066              		.type	thread2L, %function
 2067              	thread2L:
 2068              	.LFB11:
 2069              		.loc 1 157 0
 2070              		.cfi_startproc
 2071              		@ args = 0, pretend = 0, frame = 0
 2072              		@ frame_needed = 0, uses_anonymous_args = 0
 2073              	.LVL209:
 2074              		.loc 1 160 0
 2075 0000 40F20000 		movw	r0, #:lower16:.LANCHOR2
 2076              	.LVL210:
 2077              		.loc 1 157 0
 2078 0004 08B5     		push	{r3, lr}
 2079              	.LCFI31:
 2080              		.cfi_def_cfa_offset 8
 2081              		.cfi_offset 3, -8
 2082              		.cfi_offset 14, -4
 2083              		.loc 1 160 0
 2084 0006 C0F20000 		movt	r0, #:upper16:.LANCHOR2
 2085 000a FFF7FEFF 		bl	chMtxLock
 2086              	.LVL211:
 2087              		.loc 1 161 0
 2088 000e 2820     		movs	r0, #40
 2089 0010 FFF7FEFF 		bl	test_cpu_pulse
 2090              	.LVL212:
 2091              		.loc 1 162 0
 2092 0014 FFF7FEFF 		bl	chMtxUnlock
 2093              	.LVL213:
 2094              		.loc 1 163 0
 2095 0018 0A20     		movs	r0, #10
 2096 001a FFF7FEFF 		bl	test_cpu_pulse
 2097              	.LVL214:
ARM GAS  /var/folders/dt/0wfd0knj7gs46m8vwfzktm600000gn/T//cctF5Ltj.s 			page 38


 2098              		.loc 1 164 0
 2099 001e 4320     		movs	r0, #67
 2100 0020 FFF7FEFF 		bl	test_emit_token
 2101              	.LVL215:
 2102              		.loc 1 166 0
 2103 0024 0020     		movs	r0, #0
 2104 0026 08BD     		pop	{r3, pc}
 2105              		.cfi_endproc
 2106              	.LFE11:
 2107              		.size	thread2L, .-thread2L
 2108 0028 AFF30080 		.section	.text.thread2M,"ax",%progbits
 2108      AFF30080 
 2109              		.align	2
 2110              		.p2align 4,,15
 2111              		.thumb
 2112              		.thumb_func
 2113              		.type	thread2M, %function
 2114              	thread2M:
 2115              	.LFB12:
 2116              		.loc 1 169 0
 2117              		.cfi_startproc
 2118              		@ args = 0, pretend = 0, frame = 0
 2119              		@ frame_needed = 0, uses_anonymous_args = 0
 2120              	.LVL216:
 2121 0000 08B5     		push	{r3, lr}
 2122              	.LCFI32:
 2123              		.cfi_def_cfa_offset 8
 2124              		.cfi_offset 3, -8
 2125              		.cfi_offset 14, -4
 2126              		.loc 1 172 0
 2127 0002 1420     		movs	r0, #20
 2128              	.LVL217:
 2129 0004 FFF7FEFF 		bl	chThdSleep
 2130              	.LVL218:
 2131              		.loc 1 173 0
 2132 0008 2820     		movs	r0, #40
 2133 000a FFF7FEFF 		bl	test_cpu_pulse
 2134              	.LVL219:
 2135              		.loc 1 174 0
 2136 000e 4220     		movs	r0, #66
 2137 0010 FFF7FEFF 		bl	test_emit_token
 2138              	.LVL220:
 2139              		.loc 1 176 0
 2140 0014 0020     		movs	r0, #0
 2141 0016 08BD     		pop	{r3, pc}
 2142              		.cfi_endproc
 2143              	.LFE12:
 2144              		.size	thread2M, .-thread2M
 2145 0018 AFF30080 		.section	.text.thread2H,"ax",%progbits
 2145      AFF30080 
 2146              		.align	2
 2147              		.p2align 4,,15
 2148              		.thumb
 2149              		.thumb_func
 2150              		.type	thread2H, %function
 2151              	thread2H:
 2152              	.LFB13:
ARM GAS  /var/folders/dt/0wfd0knj7gs46m8vwfzktm600000gn/T//cctF5Ltj.s 			page 39


 2153              		.loc 1 179 0
 2154              		.cfi_startproc
 2155              		@ args = 0, pretend = 0, frame = 0
 2156              		@ frame_needed = 0, uses_anonymous_args = 0
 2157              	.LVL221:
 2158 0000 08B5     		push	{r3, lr}
 2159              	.LCFI33:
 2160              		.cfi_def_cfa_offset 8
 2161              		.cfi_offset 3, -8
 2162              		.cfi_offset 14, -4
 2163              		.loc 1 182 0
 2164 0002 2820     		movs	r0, #40
 2165              	.LVL222:
 2166 0004 FFF7FEFF 		bl	chThdSleep
 2167              	.LVL223:
 2168              		.loc 1 183 0
 2169 0008 40F20000 		movw	r0, #:lower16:.LANCHOR2
 2170 000c C0F20000 		movt	r0, #:upper16:.LANCHOR2
 2171 0010 FFF7FEFF 		bl	chMtxLock
 2172              	.LVL224:
 2173              		.loc 1 184 0
 2174 0014 0A20     		movs	r0, #10
 2175 0016 FFF7FEFF 		bl	test_cpu_pulse
 2176              	.LVL225:
 2177              		.loc 1 185 0
 2178 001a FFF7FEFF 		bl	chMtxUnlock
 2179              	.LVL226:
 2180              		.loc 1 186 0
 2181 001e 4120     		movs	r0, #65
 2182 0020 FFF7FEFF 		bl	test_emit_token
 2183              	.LVL227:
 2184              		.loc 1 188 0
 2185 0024 0020     		movs	r0, #0
 2186 0026 08BD     		pop	{r3, pc}
 2187              		.cfi_endproc
 2188              	.LFE13:
 2189              		.size	thread2H, .-thread2H
 2190              		.global	patternmtx
 2191              		.global	testmtx8
 2192              		.global	testmtx7
 2193              		.global	testmtx6
 2194              		.global	testmtx5
 2195              		.global	testmtx4
 2196              		.global	testmtx3
 2197              		.global	testmtx2
 2198              		.global	testmtx1
 2199 0028 AFF30080 		.section	.rodata.testmtx5,"a",%progbits
 2199      AFF30080 
 2200              		.align	2
 2201              		.type	testmtx5, %object
 2202              		.size	testmtx5, 16
 2203              	testmtx5:
 2204 0000 64000000 		.word	.LC10
 2205 0004 00000000 		.word	mtx5_setup
 2206 0008 00000000 		.word	0
 2207 000c 00000000 		.word	mtx5_execute
 2208              		.section	.rodata.testmtx6,"a",%progbits
ARM GAS  /var/folders/dt/0wfd0knj7gs46m8vwfzktm600000gn/T//cctF5Ltj.s 			page 40


 2209              		.align	2
 2210              		.type	testmtx6, %object
 2211              		.size	testmtx6, 16
 2212              	testmtx6:
 2213 0000 4C000000 		.word	.LC9
 2214 0004 00000000 		.word	mtx6_setup
 2215 0008 00000000 		.word	0
 2216 000c 00000000 		.word	mtx6_execute
 2217              		.section	.rodata.testmtx7,"a",%progbits
 2218              		.align	2
 2219              		.type	testmtx7, %object
 2220              		.size	testmtx7, 16
 2221              	testmtx7:
 2222 0000 34000000 		.word	.LC8
 2223 0004 00000000 		.word	mtx7_setup
 2224 0008 00000000 		.word	0
 2225 000c 00000000 		.word	mtx7_execute
 2226              		.section	.rodata.testmtx8,"a",%progbits
 2227              		.align	2
 2228              		.type	testmtx8, %object
 2229              		.size	testmtx8, 16
 2230              	testmtx8:
 2231 0000 20000000 		.word	.LC7
 2232 0004 00000000 		.word	mtx8_setup
 2233 0008 00000000 		.word	0
 2234 000c 00000000 		.word	mtx8_execute
 2235              		.section	.data.m1,"aw",%progbits
 2236              		.align	2
 2237              		.set	.LANCHOR2,. + 0
 2238              		.type	m1, %object
 2239              		.size	m1, 16
 2240              	m1:
 2241 0000 00000000 		.word	m1
 2242 0004 00000000 		.word	m1
 2243 0008 00000000 		.word	0
 2244 000c 00000000 		.word	0
 2245              		.section	.data.m2,"aw",%progbits
 2246              		.align	2
 2247              		.set	.LANCHOR1,. + 0
 2248              		.type	m2, %object
 2249              		.size	m2, 16
 2250              	m2:
 2251 0000 00000000 		.word	m2
 2252 0004 00000000 		.word	m2
 2253 0008 00000000 		.word	0
 2254 000c 00000000 		.word	0
 2255              		.section	.rodata.str1.4,"aMS",%progbits,1
 2256              		.align	2
 2257              	.LC0:
 2258 0000 4100     		.ascii	"A\000"
 2259 0002 0000     		.space	2
 2260              	.LC1:
 2261 0004 4300     		.ascii	"C\000"
 2262 0006 0000     		.space	2
 2263              	.LC2:
 2264 0008 4200     		.ascii	"B\000"
 2265 000a 0000     		.space	2
ARM GAS  /var/folders/dt/0wfd0knj7gs46m8vwfzktm600000gn/T//cctF5Ltj.s 			page 41


 2266              	.LC3:
 2267 000c 41424300 		.ascii	"ABC\000"
 2268              	.LC4:
 2269 0010 4500     		.ascii	"E\000"
 2270 0012 0000     		.space	2
 2271              	.LC5:
 2272 0014 4400     		.ascii	"D\000"
 2273 0016 0000     		.space	2
 2274              	.LC6:
 2275 0018 41424344 		.ascii	"ABCDE\000"
 2275      4500
 2276 001e 0000     		.space	2
 2277              	.LC7:
 2278 0020 436F6E64 		.ascii	"CondVar, boost test\000"
 2278      5661722C 
 2278      20626F6F 
 2278      73742074 
 2278      65737400 
 2279              	.LC8:
 2280 0034 436F6E64 		.ascii	"CondVar, broadcast test\000"
 2280      5661722C 
 2280      2062726F 
 2280      61646361 
 2280      73742074 
 2281              	.LC9:
 2282 004c 436F6E64 		.ascii	"CondVar, signal test\000"
 2282      5661722C 
 2282      20736967 
 2282      6E616C20 
 2282      74657374 
 2283 0061 000000   		.space	3
 2284              	.LC10:
 2285 0064 4D757465 		.ascii	"Mutexes, status\000"
 2285      7865732C 
 2285      20737461 
 2285      74757300 
 2286              	.LC11:
 2287 0074 4D757465 		.ascii	"Mutexes, priority return\000"
 2287      7865732C 
 2287      20707269 
 2287      6F726974 
 2287      79207265 
 2288 008d 000000   		.space	3
 2289              	.LC12:
 2290 0090 4D757465 		.ascii	"Mutexes, priority inheritance, complex case\000"
 2290      7865732C 
 2290      20707269 
 2290      6F726974 
 2290      7920696E 
 2291              	.LC13:
 2292 00bc 4D757465 		.ascii	"Mutexes, priority inheritance, simple case\000"
 2292      7865732C 
 2292      20707269 
 2292      6F726974 
 2292      7920696E 
 2293 00e7 00       		.space	1
 2294              	.LC14:
ARM GAS  /var/folders/dt/0wfd0knj7gs46m8vwfzktm600000gn/T//cctF5Ltj.s 			page 42


 2295 00e8 4D757465 		.ascii	"Mutexes, priority enqueuing test\000"
 2295      7865732C 
 2295      20707269 
 2295      6F726974 
 2295      7920656E 
 2296 0109 000000   		.section	.rodata.patternmtx,"a",%progbits
 2297              		.align	2
 2298              		.type	patternmtx, %object
 2299              		.size	patternmtx, 36
 2300              	patternmtx:
 2301 0000 00000000 		.word	testmtx1
 2302 0004 00000000 		.word	testmtx2
 2303 0008 00000000 		.word	testmtx3
 2304 000c 00000000 		.word	testmtx4
 2305 0010 00000000 		.word	testmtx5
 2306 0014 00000000 		.word	testmtx6
 2307 0018 00000000 		.word	testmtx7
 2308 001c 00000000 		.word	testmtx8
 2309 0020 00000000 		.word	0
 2310              		.section	.data.c1,"aw",%progbits
 2311              		.align	2
 2312              		.set	.LANCHOR0,. + 0
 2313              		.type	c1, %object
 2314              		.size	c1, 8
 2315              	c1:
 2316 0000 00000000 		.word	c1
 2317 0004 00000000 		.word	c1
 2318              		.section	.rodata.testmtx1,"a",%progbits
 2319              		.align	2
 2320              		.type	testmtx1, %object
 2321              		.size	testmtx1, 16
 2322              	testmtx1:
 2323 0000 E8000000 		.word	.LC14
 2324 0004 00000000 		.word	mtx1_setup
 2325 0008 00000000 		.word	0
 2326 000c 00000000 		.word	mtx1_execute
 2327              		.section	.rodata.testmtx2,"a",%progbits
 2328              		.align	2
 2329              		.type	testmtx2, %object
 2330              		.size	testmtx2, 16
 2331              	testmtx2:
 2332 0000 BC000000 		.word	.LC13
 2333 0004 00000000 		.word	mtx2_setup
 2334 0008 00000000 		.word	0
 2335 000c 00000000 		.word	mtx2_execute
 2336              		.section	.rodata.testmtx3,"a",%progbits
 2337              		.align	2
 2338              		.type	testmtx3, %object
 2339              		.size	testmtx3, 16
 2340              	testmtx3:
 2341 0000 90000000 		.word	.LC12
 2342 0004 00000000 		.word	mtx3_setup
 2343 0008 00000000 		.word	0
 2344 000c 00000000 		.word	mtx3_execute
 2345              		.section	.rodata.testmtx4,"a",%progbits
 2346              		.align	2
 2347              		.type	testmtx4, %object
ARM GAS  /var/folders/dt/0wfd0knj7gs46m8vwfzktm600000gn/T//cctF5Ltj.s 			page 43


 2348              		.size	testmtx4, 16
 2349              	testmtx4:
 2350 0000 74000000 		.word	.LC11
 2351 0004 00000000 		.word	mtx4_setup
 2352 0008 00000000 		.word	0
 2353 000c 00000000 		.word	mtx4_execute
 2354              		.text
 2355              	.Letext0:
 2356              		.file 2 "/Users/toxygen/Applications/yagarto-4.7.2/bin/../lib/gcc/arm-none-eabi/4.7.2/include/stdd
 2357              		.file 3 "/Users/toxygen/Applications/yagarto-4.7.2/bin/../lib/gcc/arm-none-eabi/4.7.2/../../../../
 2358              		.file 4 "../../os/ports/GCC/ARMCMx/chtypes.h"
 2359              		.file 5 "../../os/kernel/include/chlists.h"
 2360              		.file 6 "../../os/kernel/include/chthreads.h"
 2361              		.file 7 "../../os/ports/GCC/ARMCMx/chcore_v7m.h"
 2362              		.file 8 "../../os/kernel/include/chvt.h"
 2363              		.file 9 "../../os/kernel/include/chschd.h"
 2364              		.file 10 "../../os/kernel/include/chmtx.h"
 2365              		.file 11 "../../os/kernel/include/chcond.h"
 2366              		.file 12 "../../test/test.h"