ARM GAS  /var/folders/dt/0wfd0knj7gs46m8vwfzktm600000gn/T//ccQ7ZyKm.s 			page 1


   1              		.syntax unified
   2              		.cpu cortex-m3
   3              		.fpu softvfp
   4              		.eabi_attribute 20, 1
   5              		.eabi_attribute 21, 1
   6              		.eabi_attribute 23, 3
   7              		.eabi_attribute 24, 1
   8              		.eabi_attribute 25, 1
   9              		.eabi_attribute 26, 1
  10              		.eabi_attribute 30, 2
  11              		.eabi_attribute 34, 1
  12              		.eabi_attribute 18, 4
  13              		.thumb
  14              		.file	"testbmk.c"
  15              		.text
  16              	.Ltext0:
  17              		.cfi_sections	.debug_frame
  18              		.section	.text.thread2,"ax",%progbits
  19              		.align	2
  20              		.p2align 4,,15
  21              		.thumb
  22              		.thumb_func
  23              		.type	thread2, %function
  24              	thread2:
  25              	.LFB11:
  26              		.file 1 "../../test/testbmk.c"
  27              		.loc 1 154 0
  28              		.cfi_startproc
  29              		@ args = 0, pretend = 0, frame = 0
  30              		@ frame_needed = 0, uses_anonymous_args = 0
  31              		@ link register save eliminated.
  32              	.LVL0:
  33              		.loc 1 157 0
  34 0000 7047     		bx	lr
  35              		.cfi_endproc
  36              	.LFE11:
  37              		.size	thread2, .-thread2
  38 0002 00BFAFF3 		.section	.text.tmo,"ax",%progbits
  38      0080AFF3 
  38      0080AFF3 
  38      0080
  39              		.align	2
  40              		.p2align 4,,15
  41              		.thumb
  42              		.thumb_func
  43              		.type	tmo, %function
  44              	tmo:
  45              	.LFB23:
  46              		.loc 1 502 0
  47              		.cfi_startproc
  48              		@ args = 0, pretend = 0, frame = 0
  49              		@ frame_needed = 0, uses_anonymous_args = 0
  50              		@ link register save eliminated.
  51              	.LVL1:
  52 0000 7047     		bx	lr
  53              		.cfi_endproc
  54              	.LFE23:
ARM GAS  /var/folders/dt/0wfd0knj7gs46m8vwfzktm600000gn/T//ccQ7ZyKm.s 			page 2


  55              		.size	tmo, .-tmo
  56 0002 00BFAFF3 		.section	.text.bmk13_execute,"ax",%progbits
  56      0080AFF3 
  56      0080AFF3 
  56      0080
  57              		.align	2
  58              		.p2align 4,,15
  59              		.thumb
  60              		.thumb_func
  61              		.type	bmk13_execute, %function
  62              	bmk13_execute:
  63              	.LFB29:
  64              		.loc 1 637 0
  65              		.cfi_startproc
  66              		@ args = 0, pretend = 0, frame = 0
  67              		@ frame_needed = 0, uses_anonymous_args = 0
  68              		.loc 1 639 0
  69 0000 40F20000 		movw	r0, #:lower16:.LC0
  70              		.loc 1 637 0
  71 0004 10B5     		push	{r4, lr}
  72              	.LCFI0:
  73              		.cfi_def_cfa_offset 8
  74              		.cfi_offset 4, -8
  75              		.cfi_offset 14, -4
  76              		.loc 1 639 0
  77 0006 C0F20000 		movt	r0, #:upper16:.LC0
  78              		.loc 1 645 0
  79 000a 40F20004 		movw	r4, #:lower16:.LC1
  80 000e C0F20004 		movt	r4, #:upper16:.LC1
  81              		.loc 1 639 0
  82 0012 FFF7FEFF 		bl	test_print
  83              	.LVL2:
  84              		.loc 1 640 0
  85 0016 4FF4CA70 		mov	r0, #404
  86 001a FFF7FEFF 		bl	test_printn
  87              	.LVL3:
  88              		.loc 1 645 0
  89 001e 2046     		mov	r0, r4
  90 0020 FFF7FEFF 		bl	test_println
  91              	.LVL4:
  92              		.loc 1 646 0
  93 0024 40F20000 		movw	r0, #:lower16:.LC2
  94 0028 C0F20000 		movt	r0, #:upper16:.LC2
  95 002c FFF7FEFF 		bl	test_print
  96              	.LVL5:
  97              		.loc 1 647 0
  98 0030 4820     		movs	r0, #72
  99 0032 FFF7FEFF 		bl	test_printn
 100              	.LVL6:
 101              		.loc 1 648 0
 102 0036 2046     		mov	r0, r4
 103 0038 FFF7FEFF 		bl	test_println
 104              	.LVL7:
 105              		.loc 1 649 0
 106 003c 40F20000 		movw	r0, #:lower16:.LC3
 107 0040 C0F20000 		movt	r0, #:upper16:.LC3
 108 0044 FFF7FEFF 		bl	test_print
ARM GAS  /var/folders/dt/0wfd0knj7gs46m8vwfzktm600000gn/T//ccQ7ZyKm.s 			page 3


 109              	.LVL8:
 110              		.loc 1 650 0
 111 0048 1420     		movs	r0, #20
 112 004a FFF7FEFF 		bl	test_printn
 113              	.LVL9:
 114              		.loc 1 651 0
 115 004e 2046     		mov	r0, r4
 116 0050 FFF7FEFF 		bl	test_println
 117              	.LVL10:
 118              		.loc 1 653 0
 119 0054 40F20000 		movw	r0, #:lower16:.LC4
 120 0058 C0F20000 		movt	r0, #:upper16:.LC4
 121 005c FFF7FEFF 		bl	test_print
 122              	.LVL11:
 123              		.loc 1 654 0
 124 0060 0C20     		movs	r0, #12
 125 0062 FFF7FEFF 		bl	test_printn
 126              	.LVL12:
 127              		.loc 1 655 0
 128 0066 2046     		mov	r0, r4
 129 0068 FFF7FEFF 		bl	test_println
 130              	.LVL13:
 131              		.loc 1 658 0
 132 006c 40F20000 		movw	r0, #:lower16:.LC5
 133 0070 C0F20000 		movt	r0, #:upper16:.LC5
 134 0074 FFF7FEFF 		bl	test_print
 135              	.LVL14:
 136              		.loc 1 659 0
 137 0078 0420     		movs	r0, #4
 138 007a FFF7FEFF 		bl	test_printn
 139              	.LVL15:
 140              		.loc 1 660 0
 141 007e 2046     		mov	r0, r4
 142 0080 FFF7FEFF 		bl	test_println
 143              	.LVL16:
 144              		.loc 1 661 0
 145 0084 40F20000 		movw	r0, #:lower16:.LC6
 146 0088 C0F20000 		movt	r0, #:upper16:.LC6
 147 008c FFF7FEFF 		bl	test_print
 148              	.LVL17:
 149              		.loc 1 662 0
 150 0090 1020     		movs	r0, #16
 151 0092 FFF7FEFF 		bl	test_printn
 152              	.LVL18:
 153              		.loc 1 663 0
 154 0096 2046     		mov	r0, r4
 155 0098 FFF7FEFF 		bl	test_println
 156              	.LVL19:
 157              		.loc 1 666 0
 158 009c 40F20000 		movw	r0, #:lower16:.LC7
 159 00a0 C0F20000 		movt	r0, #:upper16:.LC7
 160 00a4 FFF7FEFF 		bl	test_print
 161              	.LVL20:
 162              		.loc 1 667 0
 163 00a8 1020     		movs	r0, #16
 164 00aa FFF7FEFF 		bl	test_printn
 165              	.LVL21:
ARM GAS  /var/folders/dt/0wfd0knj7gs46m8vwfzktm600000gn/T//ccQ7ZyKm.s 			page 4


 166              		.loc 1 668 0
 167 00ae 2046     		mov	r0, r4
 168 00b0 FFF7FEFF 		bl	test_println
 169              	.LVL22:
 170              		.loc 1 671 0
 171 00b4 40F20000 		movw	r0, #:lower16:.LC8
 172 00b8 C0F20000 		movt	r0, #:upper16:.LC8
 173 00bc FFF7FEFF 		bl	test_print
 174              	.LVL23:
 175              		.loc 1 672 0
 176 00c0 0820     		movs	r0, #8
 177 00c2 FFF7FEFF 		bl	test_printn
 178              	.LVL24:
 179              		.loc 1 673 0
 180 00c6 2046     		mov	r0, r4
 181 00c8 FFF7FEFF 		bl	test_println
 182              	.LVL25:
 183              		.loc 1 676 0
 184 00cc 40F20000 		movw	r0, #:lower16:.LC9
 185 00d0 C0F20000 		movt	r0, #:upper16:.LC9
 186 00d4 FFF7FEFF 		bl	test_print
 187              	.LVL26:
 188              		.loc 1 677 0
 189 00d8 2420     		movs	r0, #36
 190 00da FFF7FEFF 		bl	test_printn
 191              	.LVL27:
 192              		.loc 1 678 0
 193 00de 2046     		mov	r0, r4
 194 00e0 FFF7FEFF 		bl	test_println
 195              	.LVL28:
 196              		.loc 1 681 0
 197 00e4 40F20000 		movw	r0, #:lower16:.LC10
 198 00e8 C0F20000 		movt	r0, #:upper16:.LC10
 199 00ec FFF7FEFF 		bl	test_print
 200              	.LVL29:
 201              		.loc 1 682 0
 202 00f0 2820     		movs	r0, #40
 203 00f2 FFF7FEFF 		bl	test_printn
 204              	.LVL30:
 205              		.loc 1 683 0
 206 00f6 2046     		mov	r0, r4
 207              		.loc 1 685 0
 208 00f8 BDE81040 		pop	{r4, lr}
 209              		.loc 1 683 0
 210 00fc FFF7FEBF 		b	test_println
 211              	.LVL31:
 212              		.cfi_endproc
 213              	.LFE29:
 214              		.size	bmk13_execute, .-bmk13_execute
 215              		.section	.text.bmk12_execute,"ax",%progbits
 216              		.align	2
 217              		.p2align 4,,15
 218              		.thumb
 219              		.thumb_func
 220              		.type	bmk12_execute, %function
 221              	bmk12_execute:
 222              	.LFB28:
ARM GAS  /var/folders/dt/0wfd0knj7gs46m8vwfzktm600000gn/T//ccQ7ZyKm.s 			page 5


 223              		.loc 1 598 0
 224              		.cfi_startproc
 225              		@ args = 0, pretend = 0, frame = 0
 226              		@ frame_needed = 0, uses_anonymous_args = 0
 227              	.LVL32:
 228 0000 38B5     		push	{r3, r4, r5, lr}
 229              	.LCFI1:
 230              		.cfi_def_cfa_offset 16
 231              		.cfi_offset 3, -16
 232              		.cfi_offset 4, -12
 233              		.cfi_offset 5, -8
 234              		.cfi_offset 14, -4
 235              		.loc 1 601 0
 236 0002 FFF7FEFF 		bl	test_wait_tick
 237              	.LVL33:
 238              		.loc 1 602 0
 239 0006 4FF47A70 		mov	r0, #1000
 240 000a FFF7FEFF 		bl	test_start_timer
 241              	.LVL34:
 242 000e 124D     		ldr	r5, .L11
 243              		.loc 1 599 0
 244 0010 0024     		movs	r4, #0
 245              	.LVL35:
 246              	.L5:
 247              		.loc 1 604 0 discriminator 1
 248 0012 1248     		ldr	r0, .L11+4
 249 0014 FFF7FEFF 		bl	chMtxLock
 250              	.LVL36:
 251              		.loc 1 605 0 discriminator 1
 252 0018 FFF7FEFF 		bl	chMtxUnlock
 253              	.LVL37:
 254              		.loc 1 606 0 discriminator 1
 255 001c 0F48     		ldr	r0, .L11+4
 256 001e FFF7FEFF 		bl	chMtxLock
 257              	.LVL38:
 258              		.loc 1 607 0 discriminator 1
 259 0022 FFF7FEFF 		bl	chMtxUnlock
 260              	.LVL39:
 261              		.loc 1 608 0 discriminator 1
 262 0026 0D48     		ldr	r0, .L11+4
 263 0028 FFF7FEFF 		bl	chMtxLock
 264              	.LVL40:
 265              		.loc 1 609 0 discriminator 1
 266 002c FFF7FEFF 		bl	chMtxUnlock
 267              	.LVL41:
 268              		.loc 1 610 0 discriminator 1
 269 0030 0A48     		ldr	r0, .L11+4
 270 0032 FFF7FEFF 		bl	chMtxLock
 271              	.LVL42:
 272              		.loc 1 611 0 discriminator 1
 273 0036 FFF7FEFF 		bl	chMtxUnlock
 274              	.LVL43:
 275              		.loc 1 616 0 discriminator 1
 276 003a 2B78     		ldrb	r3, [r5, #0]	@ zero_extendqisi2
 277              		.loc 1 612 0 discriminator 1
 278 003c 0134     		adds	r4, r4, #1
 279              	.LVL44:
ARM GAS  /var/folders/dt/0wfd0knj7gs46m8vwfzktm600000gn/T//ccQ7ZyKm.s 			page 6


 280              		.loc 1 616 0 discriminator 1
 281 003e 002B     		cmp	r3, #0
 282 0040 E7D0     		beq	.L5
 283              		.loc 1 617 0
 284 0042 0748     		ldr	r0, .L11+8
 285 0044 FFF7FEFF 		bl	test_print
 286              	.LVL45:
 287              		.loc 1 618 0
 288 0048 A000     		lsls	r0, r4, #2
 289 004a FFF7FEFF 		bl	test_printn
 290              	.LVL46:
 291              		.loc 1 619 0
 292 004e 0548     		ldr	r0, .L11+12
 293              		.loc 1 620 0
 294 0050 BDE83840 		pop	{r3, r4, r5, lr}
 295              		.loc 1 619 0
 296 0054 FFF7FEBF 		b	test_println
 297              	.LVL47:
 298              	.L12:
 299              		.align	2
 300              	.L11:
 301 0058 00000000 		.word	test_timer_done
 302 005c 00000000 		.word	.LANCHOR0
 303 0060 A8000000 		.word	.LC11
 304 0064 B8000000 		.word	.LC12
 305              		.cfi_endproc
 306              	.LFE28:
 307              		.size	bmk12_execute, .-bmk12_execute
 308 0068 AFF30080 		.section	.text.bmk12_setup,"ax",%progbits
 308      AFF30080 
 309              		.align	2
 310              		.p2align 4,,15
 311              		.thumb
 312              		.thumb_func
 313              		.type	bmk12_setup, %function
 314              	bmk12_setup:
 315              	.LFB27:
 316              		.loc 1 593 0
 317              		.cfi_startproc
 318              		@ args = 0, pretend = 0, frame = 0
 319              		@ frame_needed = 0, uses_anonymous_args = 0
 320              		@ link register save eliminated.
 321              		.loc 1 595 0
 322 0000 40F20000 		movw	r0, #:lower16:.LANCHOR0
 323 0004 C0F20000 		movt	r0, #:upper16:.LANCHOR0
 324              		.loc 1 596 0
 325              		.loc 1 595 0
 326 0008 FFF7FEBF 		b	chMtxInit
 327              	.LVL48:
 328              		.cfi_endproc
 329              	.LFE27:
 330              		.size	bmk12_setup, .-bmk12_setup
 331 000c AFF30080 		.section	.text.thread3,"ax",%progbits
 332              		.align	2
 333              		.p2align 4,,15
 334              		.thumb
 335              		.thumb_func
ARM GAS  /var/folders/dt/0wfd0knj7gs46m8vwfzktm600000gn/T//ccQ7ZyKm.s 			page 7


 336              		.type	thread3, %function
 337              	thread3:
 338              	.LFB17:
 339              		.loc 1 341 0
 340              		.cfi_startproc
 341              		@ args = 0, pretend = 0, frame = 0
 342              		@ frame_needed = 0, uses_anonymous_args = 0
 343              	.LVL49:
 344 0000 10B5     		push	{r4, lr}
 345              	.LCFI2:
 346              		.cfi_def_cfa_offset 8
 347              		.cfi_offset 4, -8
 348              		.cfi_offset 14, -4
 349              		.loc 1 344 0
 350 0002 074C     		ldr	r4, .L27
 351 0004 02E0     		b	.L25
 352              	.LVL50:
 353              	.L26:
 354              		.loc 1 345 0
 355 0006 0748     		ldr	r0, .L27+4
 356 0008 FFF7FEFF 		bl	chSemWait
 357              	.LVL51:
 358              	.L25:
 359              		.loc 1 344 0
 360 000c A369     		ldr	r3, [r4, #24]
 361 000e 5B7F     		ldrb	r3, [r3, #29]	@ zero_extendqisi2
 362 0010 03F00403 		and	r3, r3, #4
 363 0014 DBB2     		uxtb	r3, r3
 364 0016 002B     		cmp	r3, #0
 365 0018 F5D0     		beq	.L26
 366              		.loc 1 347 0
 367 001a 0020     		movs	r0, #0
 368 001c 10BD     		pop	{r4, pc}
 369              	.L28:
 370 001e 00BF     		.align	2
 371              	.L27:
 372 0020 00000000 		.word	rlist
 373 0024 00000000 		.word	.LANCHOR1
 374              		.cfi_endproc
 375              	.LFE17:
 376              		.size	thread3, .-thread3
 377 0028 AFF30080 		.section	.text.bmk11_execute,"ax",%progbits
 377      AFF30080 
 378              		.align	2
 379              		.p2align 4,,15
 380              		.thumb
 381              		.thumb_func
 382              		.type	bmk11_execute, %function
 383              	bmk11_execute:
 384              	.LFB26:
 385              		.loc 1 550 0
 386              		.cfi_startproc
 387              		@ args = 0, pretend = 0, frame = 0
 388              		@ frame_needed = 0, uses_anonymous_args = 0
 389              	.LVL52:
 390 0000 38B5     		push	{r3, r4, r5, lr}
 391              	.LCFI3:
ARM GAS  /var/folders/dt/0wfd0knj7gs46m8vwfzktm600000gn/T//ccQ7ZyKm.s 			page 8


 392              		.cfi_def_cfa_offset 16
 393              		.cfi_offset 3, -16
 394              		.cfi_offset 4, -12
 395              		.cfi_offset 5, -8
 396              		.cfi_offset 14, -4
 397              		.loc 1 553 0
 398 0002 FFF7FEFF 		bl	test_wait_tick
 399              	.LVL53:
 400              		.loc 1 554 0
 401 0006 4FF47A70 		mov	r0, #1000
 402 000a FFF7FEFF 		bl	test_start_timer
 403              	.LVL54:
 404 000e 144D     		ldr	r5, .L35
 405              		.loc 1 551 0
 406 0010 0024     		movs	r4, #0
 407              	.LVL55:
 408              	.L30:
 409              		.loc 1 556 0 discriminator 1
 410 0012 1448     		ldr	r0, .L35+4
 411 0014 FFF7FEFF 		bl	chSemWait
 412              	.LVL56:
 413              		.loc 1 557 0 discriminator 1
 414 0018 1248     		ldr	r0, .L35+4
 415 001a FFF7FEFF 		bl	chSemSignal
 416              	.LVL57:
 417              		.loc 1 558 0 discriminator 1
 418 001e 1148     		ldr	r0, .L35+4
 419 0020 FFF7FEFF 		bl	chSemWait
 420              	.LVL58:
 421              		.loc 1 559 0 discriminator 1
 422 0024 0F48     		ldr	r0, .L35+4
 423 0026 FFF7FEFF 		bl	chSemSignal
 424              	.LVL59:
 425              		.loc 1 560 0 discriminator 1
 426 002a 0E48     		ldr	r0, .L35+4
 427 002c FFF7FEFF 		bl	chSemWait
 428              	.LVL60:
 429              		.loc 1 561 0 discriminator 1
 430 0030 0C48     		ldr	r0, .L35+4
 431 0032 FFF7FEFF 		bl	chSemSignal
 432              	.LVL61:
 433              		.loc 1 562 0 discriminator 1
 434 0036 0B48     		ldr	r0, .L35+4
 435 0038 FFF7FEFF 		bl	chSemWait
 436              	.LVL62:
 437              		.loc 1 563 0 discriminator 1
 438 003c 0948     		ldr	r0, .L35+4
 439 003e FFF7FEFF 		bl	chSemSignal
 440              	.LVL63:
 441              		.loc 1 568 0 discriminator 1
 442 0042 2B78     		ldrb	r3, [r5, #0]	@ zero_extendqisi2
 443              		.loc 1 564 0 discriminator 1
 444 0044 0134     		adds	r4, r4, #1
 445              	.LVL64:
 446              		.loc 1 568 0 discriminator 1
 447 0046 002B     		cmp	r3, #0
 448 0048 E3D0     		beq	.L30
ARM GAS  /var/folders/dt/0wfd0knj7gs46m8vwfzktm600000gn/T//ccQ7ZyKm.s 			page 9


 449              		.loc 1 569 0
 450 004a 0748     		ldr	r0, .L35+8
 451 004c FFF7FEFF 		bl	test_print
 452              	.LVL65:
 453              		.loc 1 570 0
 454 0050 A000     		lsls	r0, r4, #2
 455 0052 FFF7FEFF 		bl	test_printn
 456              	.LVL66:
 457              		.loc 1 571 0
 458 0056 0548     		ldr	r0, .L35+12
 459              		.loc 1 572 0
 460 0058 BDE83840 		pop	{r3, r4, r5, lr}
 461              		.loc 1 571 0
 462 005c FFF7FEBF 		b	test_println
 463              	.LVL67:
 464              	.L36:
 465              		.align	2
 466              	.L35:
 467 0060 00000000 		.word	test_timer_done
 468 0064 00000000 		.word	.LANCHOR1
 469 0068 A8000000 		.word	.LC11
 470 006c C8000000 		.word	.LC13
 471              		.cfi_endproc
 472              	.LFE26:
 473              		.size	bmk11_execute, .-bmk11_execute
 474              		.section	.text.bmk11_setup,"ax",%progbits
 475              		.align	2
 476              		.p2align 4,,15
 477              		.thumb
 478              		.thumb_func
 479              		.type	bmk11_setup, %function
 480              	bmk11_setup:
 481              	.LFB25:
 482              		.loc 1 545 0
 483              		.cfi_startproc
 484              		@ args = 0, pretend = 0, frame = 0
 485              		@ frame_needed = 0, uses_anonymous_args = 0
 486              		@ link register save eliminated.
 487              		.loc 1 547 0
 488 0000 40F20000 		movw	r0, #:lower16:.LANCHOR1
 489 0004 C0F20000 		movt	r0, #:upper16:.LANCHOR1
 490 0008 0121     		movs	r1, #1
 491              		.loc 1 548 0
 492              		.loc 1 547 0
 493 000a FFF7FEBF 		b	chSemInit
 494              	.LVL68:
 495              		.cfi_endproc
 496              	.LFE25:
 497              		.size	bmk11_setup, .-bmk11_setup
 498              		.section	.text.bmk7_setup,"ax",%progbits
 499              		.align	2
 500              		.p2align 4,,15
 501              		.thumb
 502              		.thumb_func
 503              		.type	bmk7_setup, %function
 504              	bmk7_setup:
 505              	.LFB18:
ARM GAS  /var/folders/dt/0wfd0knj7gs46m8vwfzktm600000gn/T//ccQ7ZyKm.s 			page 10


 506              		.loc 1 349 0
 507              		.cfi_startproc
 508              		@ args = 0, pretend = 0, frame = 0
 509              		@ frame_needed = 0, uses_anonymous_args = 0
 510              		@ link register save eliminated.
 511              		.loc 1 351 0
 512 0000 40F20000 		movw	r0, #:lower16:.LANCHOR1
 513 0004 C0F20000 		movt	r0, #:upper16:.LANCHOR1
 514 0008 0021     		movs	r1, #0
 515              		.loc 1 352 0
 516              		.loc 1 351 0
 517 000a FFF7FEBF 		b	chSemInit
 518              	.LVL69:
 519              		.cfi_endproc
 520              	.LFE18:
 521              		.size	bmk7_setup, .-bmk7_setup
 522              		.section	.text.bmk10_execute,"ax",%progbits
 523              		.align	2
 524              		.p2align 4,,15
 525              		.thumb
 526              		.thumb_func
 527              		.type	bmk10_execute, %function
 528              	bmk10_execute:
 529              	.LFB24:
 530              		.loc 1 504 0
 531              		.cfi_startproc
 532              		@ args = 0, pretend = 0, frame = 0
 533              		@ frame_needed = 0, uses_anonymous_args = 0
 534              	.LVL70:
 535 0000 38B5     		push	{r3, r4, r5, lr}
 536              	.LCFI4:
 537              		.cfi_def_cfa_offset 16
 538              		.cfi_offset 3, -16
 539              		.cfi_offset 4, -12
 540              		.cfi_offset 5, -8
 541              		.cfi_offset 14, -4
 542              		.loc 1 508 0
 543 0002 FFF7FEFF 		bl	test_wait_tick
 544              	.LVL71:
 545              		.loc 1 509 0
 546 0006 4FF47A70 		mov	r0, #1000
 547 000a FFF7FEFF 		bl	test_start_timer
 548              	.LVL72:
 549 000e 154D     		ldr	r5, .L45
 550              		.loc 1 506 0
 551 0010 0024     		movs	r4, #0
 552              	.LVL73:
 553              	.L40:
 554              	.LBB2:
 555              		.loc 1 511 0 discriminator 1
 556 0012 2023     		movs	r3, #32
 557              	.LVL74:
 558              	@ 511 "../../test/testbmk.c" 1
 559 0014 83F31188 		msr     BASEPRI, r3
 560              	@ 0 "" 2
 561              	.LVL75:
 562              		.thumb
ARM GAS  /var/folders/dt/0wfd0knj7gs46m8vwfzktm600000gn/T//ccQ7ZyKm.s 			page 11


 563              	.LBE2:
 564              		.loc 1 512 0 discriminator 1
 565 0018 0121     		movs	r1, #1
 566 001a 0023     		movs	r3, #0
 567              	.LVL76:
 568 001c 1248     		ldr	r0, .L45+4
 569 001e 134A     		ldr	r2, .L45+8
 570 0020 FFF7FEFF 		bl	chVTSetI
 571              	.LVL77:
 572              		.loc 1 513 0 discriminator 1
 573 0024 0023     		movs	r3, #0
 574 0026 42F21071 		movw	r1, #10000
 575 002a 104A     		ldr	r2, .L45+8
 576 002c 1048     		ldr	r0, .L45+12
 577 002e FFF7FEFF 		bl	chVTSetI
 578              	.LVL78:
 579              		.loc 1 514 0 discriminator 1
 580 0032 0D48     		ldr	r0, .L45+4
 581 0034 FFF7FEFF 		bl	chVTResetI
 582              	.LVL79:
 583              		.loc 1 515 0 discriminator 1
 584 0038 0D48     		ldr	r0, .L45+12
 585 003a FFF7FEFF 		bl	chVTResetI
 586              	.LVL80:
 587              	.LBB3:
 588              		.loc 1 516 0 discriminator 1
 589 003e 0023     		movs	r3, #0
 590              	.LVL81:
 591              	@ 516 "../../test/testbmk.c" 1
 592 0040 83F31188 		msr     BASEPRI, r3
 593              	@ 0 "" 2
 594              	.LVL82:
 595              		.thumb
 596              	.LBE3:
 597              		.loc 1 521 0 discriminator 1
 598 0044 2B78     		ldrb	r3, [r5, #0]	@ zero_extendqisi2
 599              	.LVL83:
 600              		.loc 1 517 0 discriminator 1
 601 0046 0134     		adds	r4, r4, #1
 602              	.LVL84:
 603              		.loc 1 521 0 discriminator 1
 604 0048 002B     		cmp	r3, #0
 605 004a E2D0     		beq	.L40
 606              		.loc 1 522 0
 607 004c 0948     		ldr	r0, .L45+16
 608 004e FFF7FEFF 		bl	test_print
 609              	.LVL85:
 610              		.loc 1 523 0
 611 0052 6000     		lsls	r0, r4, #1
 612 0054 FFF7FEFF 		bl	test_printn
 613              	.LVL86:
 614              		.loc 1 524 0
 615 0058 0748     		ldr	r0, .L45+20
 616              		.loc 1 525 0
 617 005a BDE83840 		pop	{r3, r4, r5, lr}
 618              		.loc 1 524 0
 619 005e FFF7FEBF 		b	test_println
ARM GAS  /var/folders/dt/0wfd0knj7gs46m8vwfzktm600000gn/T//ccQ7ZyKm.s 			page 12


 620              	.LVL87:
 621              	.L46:
 622 0062 00BF     		.align	2
 623              	.L45:
 624 0064 00000000 		.word	test_timer_done
 625 0068 00000000 		.word	.LANCHOR2
 626 006c 00000000 		.word	tmo
 627 0070 00000000 		.word	.LANCHOR3
 628 0074 A8000000 		.word	.LC11
 629 0078 D8000000 		.word	.LC14
 630              		.cfi_endproc
 631              	.LFE24:
 632              		.size	bmk10_execute, .-bmk10_execute
 633 007c AFF30080 		.section	.text.bmk9_execute,"ax",%progbits
 634              		.align	2
 635              		.p2align 4,,15
 636              		.thumb
 637              		.thumb_func
 638              		.type	bmk9_execute, %function
 639              	bmk9_execute:
 640              	.LFB22:
 641              		.loc 1 455 0
 642              		.cfi_startproc
 643              		@ args = 0, pretend = 0, frame = 0
 644              		@ frame_needed = 0, uses_anonymous_args = 0
 645 0000 30B5     		push	{r4, r5, lr}
 646              	.LCFI5:
 647              		.cfi_def_cfa_offset 12
 648              		.cfi_offset 4, -12
 649              		.cfi_offset 5, -8
 650              		.cfi_offset 14, -4
 651              		.loc 1 460 0
 652 0002 0024     		movs	r4, #0
 653              		.loc 1 455 0
 654 0004 83B0     		sub	sp, sp, #12
 655              	.LCFI6:
 656              		.cfi_def_cfa_offset 24
 657              		.loc 1 460 0
 658 0006 2449     		ldr	r1, .L53
 659 0008 1022     		movs	r2, #16
 660 000a 2346     		mov	r3, r4
 661 000c 2348     		ldr	r0, .L53+4
 662 000e 0094     		str	r4, [sp, #0]
 663 0010 FFF7FEFF 		bl	chIQInit
 664              	.LVL88:
 665              		.loc 1 462 0
 666 0014 FFF7FEFF 		bl	test_wait_tick
 667              	.LVL89:
 668              		.loc 1 463 0
 669 0018 4FF47A70 		mov	r0, #1000
 670 001c FFF7FEFF 		bl	test_start_timer
 671              	.LVL90:
 672 0020 1F4D     		ldr	r5, .L53+8
 673              	.LVL91:
 674              	.L48:
 675              	.LBB4:
 676              		.loc 1 465 0 discriminator 1
ARM GAS  /var/folders/dt/0wfd0knj7gs46m8vwfzktm600000gn/T//ccQ7ZyKm.s 			page 13


 677 0022 2023     		movs	r3, #32
 678              	.LVL92:
 679              	@ 465 "../../test/testbmk.c" 1
 680 0024 83F31188 		msr     BASEPRI, r3
 681              	@ 0 "" 2
 682              	.LVL93:
 683              		.thumb
 684              	.LBE4:
 685              		.loc 1 466 0 discriminator 1
 686 0028 0021     		movs	r1, #0
 687 002a 1C48     		ldr	r0, .L53+4
 688 002c FFF7FEFF 		bl	chIQPutI
 689              	.LVL94:
 690              		.loc 1 467 0 discriminator 1
 691 0030 0121     		movs	r1, #1
 692 0032 1A48     		ldr	r0, .L53+4
 693 0034 FFF7FEFF 		bl	chIQPutI
 694              	.LVL95:
 695              		.loc 1 468 0 discriminator 1
 696 0038 0221     		movs	r1, #2
 697 003a 1848     		ldr	r0, .L53+4
 698 003c FFF7FEFF 		bl	chIQPutI
 699              	.LVL96:
 700              		.loc 1 469 0 discriminator 1
 701 0040 0321     		movs	r1, #3
 702 0042 1648     		ldr	r0, .L53+4
 703 0044 FFF7FEFF 		bl	chIQPutI
 704              	.LVL97:
 705              	.LBB5:
 706              		.loc 1 470 0 discriminator 1
 707 0048 0023     		movs	r3, #0
 708              	.LVL98:
 709              	@ 470 "../../test/testbmk.c" 1
 710 004a 83F31188 		msr     BASEPRI, r3
 711              	@ 0 "" 2
 712              	.LVL99:
 713              		.thumb
 714              	.LBE5:
 715              		.loc 1 471 0 discriminator 1
 716 004e 4FF0FF31 		mov	r1, #-1
 717 0052 1248     		ldr	r0, .L53+4
 718 0054 FFF7FEFF 		bl	chIQGetTimeout
 719              	.LVL100:
 720              		.loc 1 472 0 discriminator 1
 721 0058 4FF0FF31 		mov	r1, #-1
 722 005c 0F48     		ldr	r0, .L53+4
 723 005e FFF7FEFF 		bl	chIQGetTimeout
 724              	.LVL101:
 725              		.loc 1 473 0 discriminator 1
 726 0062 4FF0FF31 		mov	r1, #-1
 727 0066 0D48     		ldr	r0, .L53+4
 728 0068 FFF7FEFF 		bl	chIQGetTimeout
 729              	.LVL102:
 730              		.loc 1 474 0 discriminator 1
 731 006c 0B48     		ldr	r0, .L53+4
 732 006e 4FF0FF31 		mov	r1, #-1
 733 0072 FFF7FEFF 		bl	chIQGetTimeout
ARM GAS  /var/folders/dt/0wfd0knj7gs46m8vwfzktm600000gn/T//ccQ7ZyKm.s 			page 14


 734              	.LVL103:
 735              		.loc 1 479 0 discriminator 1
 736 0076 2B78     		ldrb	r3, [r5, #0]	@ zero_extendqisi2
 737              		.loc 1 475 0 discriminator 1
 738 0078 0134     		adds	r4, r4, #1
 739              	.LVL104:
 740              		.loc 1 479 0 discriminator 1
 741 007a 002B     		cmp	r3, #0
 742 007c D1D0     		beq	.L48
 743              		.loc 1 480 0
 744 007e 0948     		ldr	r0, .L53+12
 745 0080 FFF7FEFF 		bl	test_print
 746              	.LVL105:
 747              		.loc 1 481 0
 748 0084 A000     		lsls	r0, r4, #2
 749 0086 FFF7FEFF 		bl	test_printn
 750              	.LVL106:
 751              		.loc 1 482 0
 752 008a 0748     		ldr	r0, .L53+16
 753              		.loc 1 483 0
 754 008c 03B0     		add	sp, sp, #12
 755 008e BDE83040 		pop	{r4, r5, lr}
 756              		.loc 1 482 0
 757 0092 FFF7FEBF 		b	test_println
 758              	.LVL107:
 759              	.L54:
 760 0096 00BF     		.align	2
 761              	.L53:
 762 0098 00000000 		.word	.LANCHOR5
 763 009c 00000000 		.word	.LANCHOR4
 764 00a0 00000000 		.word	test_timer_done
 765 00a4 A8000000 		.word	.LC11
 766 00a8 E4000000 		.word	.LC15
 767              		.cfi_endproc
 768              	.LFE22:
 769              		.size	bmk9_execute, .-bmk9_execute
 770 00ac AFF30080 		.section	.text.bmk6_execute,"ax",%progbits
 771              		.align	2
 772              		.p2align 4,,15
 773              		.thumb
 774              		.thumb_func
 775              		.type	bmk6_execute, %function
 776              	bmk6_execute:
 777              	.LFB16:
 778              		.loc 1 304 0
 779              		.cfi_startproc
 780              		@ args = 0, pretend = 0, frame = 0
 781              		@ frame_needed = 0, uses_anonymous_args = 0
 782              	.LVL108:
 783 0000 2DE9F041 		push	{r4, r5, r6, r7, r8, lr}
 784              	.LCFI7:
 785              		.cfi_def_cfa_offset 24
 786              		.cfi_offset 4, -24
 787              		.cfi_offset 5, -20
 788              		.cfi_offset 6, -16
 789              		.cfi_offset 7, -12
 790              		.cfi_offset 8, -8
ARM GAS  /var/folders/dt/0wfd0knj7gs46m8vwfzktm600000gn/T//ccQ7ZyKm.s 			page 15


 791              		.cfi_offset 14, -4
 792              		.loc 1 308 0
 793 0004 144B     		ldr	r3, .L61
 794              		.loc 1 307 0
 795 0006 154A     		ldr	r2, .L61+4
 796              		.loc 1 308 0
 797 0008 9B69     		ldr	r3, [r3, #24]
 798              		.loc 1 304 0
 799 000a 82B0     		sub	sp, sp, #8
 800              	.LCFI8:
 801              		.cfi_def_cfa_offset 32
 802              		.loc 1 308 0
 803 000c 9F68     		ldr	r7, [r3, #8]
 804              		.loc 1 307 0
 805 000e D2F80080 		ldr	r8, [r2, #0]
 806              	.LVL109:
 807              		.loc 1 309 0
 808 0012 FFF7FEFF 		bl	test_wait_tick
 809              	.LVL110:
 810              		.loc 1 310 0
 811 0016 4FF47A70 		mov	r0, #1000
 812 001a FFF7FEFF 		bl	test_start_timer
 813              	.LVL111:
 814              		.loc 1 306 0
 815 001e 0024     		movs	r4, #0
 816 0020 0F4E     		ldr	r6, .L61+8
 817              		.loc 1 308 0
 818 0022 0137     		adds	r7, r7, #1
 819              	.LVL112:
 820              		.loc 1 312 0
 821 0024 2546     		mov	r5, r4
 822              	.LVL113:
 823              	.L56:
 824              		.loc 1 312 0 is_stmt 0 discriminator 1
 825 0026 0F4B     		ldr	r3, .L61+12
 826 0028 0095     		str	r5, [sp, #0]
 827 002a 4046     		mov	r0, r8
 828 002c 4FF49871 		mov	r1, #304
 829 0030 3A46     		mov	r2, r7
 830 0032 FFF7FEFF 		bl	chThdCreateStatic
 831              	.LVL114:
 832              		.loc 1 317 0 is_stmt 1 discriminator 1
 833 0036 3378     		ldrb	r3, [r6, #0]	@ zero_extendqisi2
 834              		.loc 1 313 0 discriminator 1
 835 0038 0134     		adds	r4, r4, #1
 836              	.LVL115:
 837              		.loc 1 317 0 discriminator 1
 838 003a 002B     		cmp	r3, #0
 839 003c F3D0     		beq	.L56
 840              		.loc 1 318 0
 841 003e 0A48     		ldr	r0, .L61+16
 842 0040 FFF7FEFF 		bl	test_print
 843              	.LVL116:
 844              		.loc 1 319 0
 845 0044 2046     		mov	r0, r4
 846 0046 FFF7FEFF 		bl	test_printn
 847              	.LVL117:
ARM GAS  /var/folders/dt/0wfd0knj7gs46m8vwfzktm600000gn/T//ccQ7ZyKm.s 			page 16


 848              		.loc 1 320 0
 849 004a 0848     		ldr	r0, .L61+20
 850              		.loc 1 321 0
 851 004c 02B0     		add	sp, sp, #8
 852 004e BDE8F041 		pop	{r4, r5, r6, r7, r8, lr}
 853              		.loc 1 320 0
 854 0052 FFF7FEBF 		b	test_println
 855              	.LVL118:
 856              	.L62:
 857 0056 00BF     		.align	2
 858              	.L61:
 859 0058 00000000 		.word	rlist
 860 005c 00000000 		.word	wa
 861 0060 00000000 		.word	test_timer_done
 862 0064 00000000 		.word	thread2
 863 0068 A8000000 		.word	.LC11
 864 006c F0000000 		.word	.LC16
 865              		.cfi_endproc
 866              	.LFE16:
 867              		.size	bmk6_execute, .-bmk6_execute
 868              		.section	.text.bmk8_execute,"ax",%progbits
 869              		.align	2
 870              		.p2align 4,,15
 871              		.thumb
 872              		.thumb_func
 873              		.type	bmk8_execute, %function
 874              	bmk8_execute:
 875              	.LFB21:
 876              		.loc 1 416 0
 877              		.cfi_startproc
 878              		@ args = 0, pretend = 0, frame = 8
 879              		@ frame_needed = 0, uses_anonymous_args = 0
 880 0000 2DE9F043 		push	{r4, r5, r6, r7, r8, r9, lr}
 881              	.LCFI9:
 882              		.cfi_def_cfa_offset 28
 883              		.cfi_offset 4, -28
 884              		.cfi_offset 5, -24
 885              		.cfi_offset 6, -20
 886              		.cfi_offset 7, -16
 887              		.cfi_offset 8, -12
 888              		.cfi_offset 9, -8
 889              		.cfi_offset 14, -4
 890              		.loc 1 422 0
 891 0004 40F20009 		movw	r9, #:lower16:rlist
 892              		.loc 1 416 0
 893 0008 85B0     		sub	sp, sp, #20
 894              	.LCFI10:
 895              		.cfi_def_cfa_offset 48
 896              		.loc 1 419 0
 897 000a 04AC     		add	r4, sp, #16
 898              		.loc 1 422 0
 899 000c C0F20009 		movt	r9, #:upper16:rlist
 900              		.loc 1 419 0
 901 0010 0023     		movs	r3, #0
 902 0012 44F8043D 		str	r3, [r4, #-4]!
 903              	.LVL119:
 904              		.loc 1 420 0
ARM GAS  /var/folders/dt/0wfd0knj7gs46m8vwfzktm600000gn/T//ccQ7ZyKm.s 			page 17


 905 0016 FFF7FEFF 		bl	test_wait_tick
 906              	.LVL120:
 907              		.loc 1 422 0
 908 001a D9F81830 		ldr	r3, [r9, #24]
 909 001e 40F20008 		movw	r8, #:lower16:wa
 910 0022 9A68     		ldr	r2, [r3, #8]
 911 0024 40F20006 		movw	r6, #:lower16:thread8
 912 0028 C0F20008 		movt	r8, #:upper16:wa
 913 002c C0F20006 		movt	r6, #:upper16:thread8
 914 0030 013A     		subs	r2, r2, #1
 915 0032 3346     		mov	r3, r6
 916 0034 D8F80000 		ldr	r0, [r8, #0]
 917 0038 4FF49871 		mov	r1, #304
 918 003c 0094     		str	r4, [sp, #0]
 919 003e FFF7FEFF 		bl	chThdCreateStatic
 920              	.LVL121:
 921              		.loc 1 423 0
 922 0042 D9F81830 		ldr	r3, [r9, #24]
 923 0046 D8F80470 		ldr	r7, [r8, #4]
 924 004a 9A68     		ldr	r2, [r3, #8]
 925              		.loc 1 422 0
 926 004c 40F20005 		movw	r5, #:lower16:threads
 927 0050 C0F20005 		movt	r5, #:upper16:threads
 928 0054 2860     		str	r0, [r5, #0]
 929              		.loc 1 423 0
 930 0056 013A     		subs	r2, r2, #1
 931 0058 3346     		mov	r3, r6
 932 005a 4FF49871 		mov	r1, #304
 933 005e 0094     		str	r4, [sp, #0]
 934 0060 3846     		mov	r0, r7
 935 0062 FFF7FEFF 		bl	chThdCreateStatic
 936              	.LVL122:
 937              		.loc 1 424 0
 938 0066 D9F81830 		ldr	r3, [r9, #24]
 939 006a D8F80870 		ldr	r7, [r8, #8]
 940 006e 9A68     		ldr	r2, [r3, #8]
 941 0070 4FF49871 		mov	r1, #304
 942              		.loc 1 423 0
 943 0074 6860     		str	r0, [r5, #4]
 944              		.loc 1 424 0
 945 0076 013A     		subs	r2, r2, #1
 946 0078 3346     		mov	r3, r6
 947 007a 0094     		str	r4, [sp, #0]
 948 007c 3846     		mov	r0, r7
 949 007e FFF7FEFF 		bl	chThdCreateStatic
 950              	.LVL123:
 951              		.loc 1 425 0
 952 0082 D9F81830 		ldr	r3, [r9, #24]
 953 0086 D8F80C70 		ldr	r7, [r8, #12]
 954 008a 9A68     		ldr	r2, [r3, #8]
 955 008c 4FF49871 		mov	r1, #304
 956              		.loc 1 424 0
 957 0090 A860     		str	r0, [r5, #8]
 958              		.loc 1 425 0
 959 0092 013A     		subs	r2, r2, #1
 960 0094 3346     		mov	r3, r6
 961 0096 0094     		str	r4, [sp, #0]
ARM GAS  /var/folders/dt/0wfd0knj7gs46m8vwfzktm600000gn/T//ccQ7ZyKm.s 			page 18


 962 0098 3846     		mov	r0, r7
 963 009a FFF7FEFF 		bl	chThdCreateStatic
 964              	.LVL124:
 965              		.loc 1 426 0
 966 009e D9F81830 		ldr	r3, [r9, #24]
 967 00a2 D8F81070 		ldr	r7, [r8, #16]
 968 00a6 9A68     		ldr	r2, [r3, #8]
 969 00a8 4FF49871 		mov	r1, #304
 970 00ac 013A     		subs	r2, r2, #1
 971 00ae 3346     		mov	r3, r6
 972              		.loc 1 425 0
 973 00b0 E860     		str	r0, [r5, #12]
 974              		.loc 1 426 0
 975 00b2 0094     		str	r4, [sp, #0]
 976 00b4 3846     		mov	r0, r7
 977 00b6 FFF7FEFF 		bl	chThdCreateStatic
 978              	.LVL125:
 979 00ba 2861     		str	r0, [r5, #16]
 980              		.loc 1 428 0
 981 00bc 4FF47A70 		mov	r0, #1000
 982 00c0 FFF7FEFF 		bl	chThdSleep
 983              	.LVL126:
 984              		.loc 1 429 0
 985 00c4 FFF7FEFF 		bl	test_terminate_threads
 986              	.LVL127:
 987              		.loc 1 430 0
 988 00c8 FFF7FEFF 		bl	test_wait_threads
 989              	.LVL128:
 990              		.loc 1 432 0
 991 00cc 40F20000 		movw	r0, #:lower16:.LC11
 992 00d0 C0F20000 		movt	r0, #:upper16:.LC11
 993 00d4 FFF7FEFF 		bl	test_print
 994              	.LVL129:
 995              		.loc 1 433 0
 996 00d8 0398     		ldr	r0, [sp, #12]
 997 00da FFF7FEFF 		bl	test_printn
 998              	.LVL130:
 999              		.loc 1 434 0
 1000 00de 40F20000 		movw	r0, #:lower16:.LC17
 1001 00e2 C0F20000 		movt	r0, #:upper16:.LC17
 1002 00e6 FFF7FEFF 		bl	test_println
 1003              	.LVL131:
 1004              		.loc 1 435 0
 1005 00ea 05B0     		add	sp, sp, #20
 1006 00ec BDE8F083 		pop	{r4, r5, r6, r7, r8, r9, pc}
 1007              		.cfi_endproc
 1008              	.LFE21:
 1009              		.size	bmk8_execute, .-bmk8_execute
 1010              		.section	.text.thread8,"ax",%progbits
 1011              		.align	2
 1012              		.p2align 4,,15
 1013              		.thumb
 1014              		.thumb_func
 1015              		.type	thread8, %function
 1016              	thread8:
 1017              	.LFB20:
 1018              		.loc 1 401 0
ARM GAS  /var/folders/dt/0wfd0knj7gs46m8vwfzktm600000gn/T//ccQ7ZyKm.s 			page 19


 1019              		.cfi_startproc
 1020              		@ args = 0, pretend = 0, frame = 0
 1021              		@ frame_needed = 0, uses_anonymous_args = 0
 1022              	.LVL132:
 1023 0000 38B5     		push	{r3, r4, r5, lr}
 1024              	.LCFI11:
 1025              		.cfi_def_cfa_offset 16
 1026              		.cfi_offset 3, -16
 1027              		.cfi_offset 4, -12
 1028              		.cfi_offset 5, -8
 1029              		.cfi_offset 14, -4
 1030 0002 0B4D     		ldr	r5, .L70
 1031              		.loc 1 401 0
 1032 0004 0446     		mov	r4, r0
 1033              	.LVL133:
 1034              	.L65:
 1035              		.loc 1 404 0 discriminator 1
 1036 0006 FFF7FEFF 		bl	chThdYield
 1037              	.LVL134:
 1038              		.loc 1 405 0 discriminator 1
 1039 000a FFF7FEFF 		bl	chThdYield
 1040              	.LVL135:
 1041              		.loc 1 406 0 discriminator 1
 1042 000e FFF7FEFF 		bl	chThdYield
 1043              	.LVL136:
 1044              		.loc 1 407 0 discriminator 1
 1045 0012 FFF7FEFF 		bl	chThdYield
 1046              	.LVL137:
 1047              		.loc 1 408 0 discriminator 1
 1048 0016 2268     		ldr	r2, [r4, #0]
 1049              		.loc 1 412 0 discriminator 1
 1050 0018 AB69     		ldr	r3, [r5, #24]
 1051              		.loc 1 408 0 discriminator 1
 1052 001a 0432     		adds	r2, r2, #4
 1053 001c 2260     		str	r2, [r4, #0]
 1054              		.loc 1 412 0 discriminator 1
 1055 001e 5B7F     		ldrb	r3, [r3, #29]	@ zero_extendqisi2
 1056 0020 03F00403 		and	r3, r3, #4
 1057 0024 DBB2     		uxtb	r3, r3
 1058 0026 002B     		cmp	r3, #0
 1059 0028 EDD0     		beq	.L65
 1060              		.loc 1 414 0
 1061 002a 0020     		movs	r0, #0
 1062 002c 38BD     		pop	{r3, r4, r5, pc}
 1063              	.L71:
 1064 002e 00BF     		.align	2
 1065              	.L70:
 1066 0030 00000000 		.word	rlist
 1067              		.cfi_endproc
 1068              	.LFE20:
 1069              		.size	thread8, .-thread8
 1070 0034 AFF30080 		.section	.text.bmk7_execute,"ax",%progbits
 1070      AFF30080 
 1070      AFF30080 
 1071              		.align	2
 1072              		.p2align 4,,15
 1073              		.thumb
ARM GAS  /var/folders/dt/0wfd0knj7gs46m8vwfzktm600000gn/T//ccQ7ZyKm.s 			page 20


 1074              		.thumb_func
 1075              		.type	bmk7_execute, %function
 1076              	bmk7_execute:
 1077              	.LFB19:
 1078              		.loc 1 354 0
 1079              		.cfi_startproc
 1080              		@ args = 0, pretend = 0, frame = 8
 1081              		@ frame_needed = 0, uses_anonymous_args = 0
 1082 0000 F0B5     		push	{r4, r5, r6, r7, lr}
 1083              	.LCFI12:
 1084              		.cfi_def_cfa_offset 20
 1085              		.cfi_offset 4, -20
 1086              		.cfi_offset 5, -16
 1087              		.cfi_offset 6, -12
 1088              		.cfi_offset 7, -8
 1089              		.cfi_offset 14, -4
 1090              		.loc 1 357 0
 1091 0002 374F     		ldr	r7, .L78
 1092 0004 374E     		ldr	r6, .L78+4
 1093 0006 BB69     		ldr	r3, [r7, #24]
 1094              		.loc 1 354 0
 1095 0008 85B0     		sub	sp, sp, #20
 1096              	.LCFI13:
 1097              		.cfi_def_cfa_offset 40
 1098              		.loc 1 357 0
 1099 000a 9A68     		ldr	r2, [r3, #8]
 1100 000c 0024     		movs	r4, #0
 1101 000e 3068     		ldr	r0, [r6, #0]
 1102 0010 4FF49871 		mov	r1, #304
 1103 0014 0532     		adds	r2, r2, #5
 1104 0016 344B     		ldr	r3, .L78+8
 1105 0018 0094     		str	r4, [sp, #0]
 1106 001a FFF7FEFF 		bl	chThdCreateStatic
 1107              	.LVL138:
 1108              		.loc 1 358 0
 1109 001e BB69     		ldr	r3, [r7, #24]
 1110              		.loc 1 357 0
 1111 0020 324D     		ldr	r5, .L78+12
 1112              		.loc 1 358 0
 1113 0022 9A68     		ldr	r2, [r3, #8]
 1114 0024 7368     		ldr	r3, [r6, #4]
 1115              		.loc 1 357 0
 1116 0026 2860     		str	r0, [r5, #0]
 1117              		.loc 1 358 0
 1118 0028 0393     		str	r3, [sp, #12]
 1119 002a 4FF49871 		mov	r1, #304
 1120 002e 0432     		adds	r2, r2, #4
 1121 0030 2D4B     		ldr	r3, .L78+8
 1122 0032 0094     		str	r4, [sp, #0]
 1123 0034 0398     		ldr	r0, [sp, #12]
 1124 0036 FFF7FEFF 		bl	chThdCreateStatic
 1125              	.LVL139:
 1126              		.loc 1 359 0
 1127 003a BB69     		ldr	r3, [r7, #24]
 1128 003c B268     		ldr	r2, [r6, #8]
 1129 003e 4FF49871 		mov	r1, #304
 1130 0042 0392     		str	r2, [sp, #12]
ARM GAS  /var/folders/dt/0wfd0knj7gs46m8vwfzktm600000gn/T//ccQ7ZyKm.s 			page 21


 1131 0044 9A68     		ldr	r2, [r3, #8]
 1132              		.loc 1 358 0
 1133 0046 6860     		str	r0, [r5, #4]
 1134              		.loc 1 359 0
 1135 0048 0332     		adds	r2, r2, #3
 1136 004a 274B     		ldr	r3, .L78+8
 1137 004c 0094     		str	r4, [sp, #0]
 1138 004e 0398     		ldr	r0, [sp, #12]
 1139 0050 FFF7FEFF 		bl	chThdCreateStatic
 1140              	.LVL140:
 1141              		.loc 1 360 0
 1142 0054 BB69     		ldr	r3, [r7, #24]
 1143 0056 F268     		ldr	r2, [r6, #12]
 1144 0058 4FF49871 		mov	r1, #304
 1145 005c 0392     		str	r2, [sp, #12]
 1146 005e 9A68     		ldr	r2, [r3, #8]
 1147              		.loc 1 359 0
 1148 0060 A860     		str	r0, [r5, #8]
 1149              		.loc 1 360 0
 1150 0062 0232     		adds	r2, r2, #2
 1151 0064 204B     		ldr	r3, .L78+8
 1152 0066 0094     		str	r4, [sp, #0]
 1153 0068 0398     		ldr	r0, [sp, #12]
 1154 006a FFF7FEFF 		bl	chThdCreateStatic
 1155              	.LVL141:
 1156              		.loc 1 361 0
 1157 006e BB69     		ldr	r3, [r7, #24]
 1158 0070 3669     		ldr	r6, [r6, #16]
 1159 0072 9A68     		ldr	r2, [r3, #8]
 1160 0074 4FF49871 		mov	r1, #304
 1161              		.loc 1 360 0
 1162 0078 E860     		str	r0, [r5, #12]
 1163              		.loc 1 361 0
 1164 007a 0132     		adds	r2, r2, #1
 1165 007c 1A4B     		ldr	r3, .L78+8
 1166 007e 0094     		str	r4, [sp, #0]
 1167 0080 3046     		mov	r0, r6
 1168 0082 FFF7FEFF 		bl	chThdCreateStatic
 1169              	.LVL142:
 1170 0086 2861     		str	r0, [r5, #16]
 1171              	.LVL143:
 1172              		.loc 1 364 0
 1173 0088 FFF7FEFF 		bl	test_wait_tick
 1174              	.LVL144:
 1175              		.loc 1 365 0
 1176 008c 4FF47A70 		mov	r0, #1000
 1177 0090 FFF7FEFF 		bl	test_start_timer
 1178              	.LVL145:
 1179 0094 164D     		ldr	r5, .L78+16
 1180              	.LVL146:
 1181              	.L73:
 1182              		.loc 1 367 0 discriminator 1
 1183 0096 1748     		ldr	r0, .L78+20
 1184 0098 0021     		movs	r1, #0
 1185 009a FFF7FEFF 		bl	chSemReset
 1186              	.LVL147:
 1187              		.loc 1 372 0 discriminator 1
ARM GAS  /var/folders/dt/0wfd0knj7gs46m8vwfzktm600000gn/T//ccQ7ZyKm.s 			page 22


 1188 009e 2B78     		ldrb	r3, [r5, #0]	@ zero_extendqisi2
 1189              		.loc 1 368 0 discriminator 1
 1190 00a0 0134     		adds	r4, r4, #1
 1191              	.LVL148:
 1192              		.loc 1 372 0 discriminator 1
 1193 00a2 002B     		cmp	r3, #0
 1194 00a4 F7D0     		beq	.L73
 1195              		.loc 1 373 0
 1196 00a6 FFF7FEFF 		bl	test_terminate_threads
 1197              	.LVL149:
 1198              		.loc 1 374 0
 1199 00aa 0021     		movs	r1, #0
 1200 00ac 1148     		ldr	r0, .L78+20
 1201 00ae FFF7FEFF 		bl	chSemReset
 1202              	.LVL150:
 1203              		.loc 1 375 0
 1204 00b2 FFF7FEFF 		bl	test_wait_threads
 1205              	.LVL151:
 1206              		.loc 1 377 0
 1207 00b6 1048     		ldr	r0, .L78+24
 1208 00b8 FFF7FEFF 		bl	test_print
 1209              	.LVL152:
 1210              		.loc 1 378 0
 1211 00bc 2046     		mov	r0, r4
 1212 00be FFF7FEFF 		bl	test_printn
 1213              	.LVL153:
 1214              		.loc 1 379 0
 1215 00c2 0E48     		ldr	r0, .L78+28
 1216 00c4 FFF7FEFF 		bl	test_print
 1217              	.LVL154:
 1218              		.loc 1 380 0
 1219 00c8 04EB4400 		add	r0, r4, r4, lsl #1
 1220 00cc 4000     		lsls	r0, r0, #1
 1221 00ce FFF7FEFF 		bl	test_printn
 1222              	.LVL155:
 1223              		.loc 1 381 0
 1224 00d2 0B48     		ldr	r0, .L78+32
 1225              		.loc 1 382 0
 1226 00d4 05B0     		add	sp, sp, #20
 1227 00d6 BDE8F040 		pop	{r4, r5, r6, r7, lr}
 1228              		.loc 1 381 0
 1229 00da FFF7FEBF 		b	test_println
 1230              	.LVL156:
 1231              	.L79:
 1232 00de 00BF     		.align	2
 1233              	.L78:
 1234 00e0 00000000 		.word	rlist
 1235 00e4 00000000 		.word	wa
 1236 00e8 00000000 		.word	thread3
 1237 00ec 00000000 		.word	threads
 1238 00f0 00000000 		.word	test_timer_done
 1239 00f4 00000000 		.word	.LANCHOR1
 1240 00f8 A8000000 		.word	.LC11
 1241 00fc 08010000 		.word	.LC18
 1242 0100 FC000000 		.word	.LC17
 1243              		.cfi_endproc
 1244              	.LFE19:
ARM GAS  /var/folders/dt/0wfd0knj7gs46m8vwfzktm600000gn/T//ccQ7ZyKm.s 			page 23


 1245              		.size	bmk7_execute, .-bmk7_execute
 1246 0104 AFF30080 		.section	.text.bmk5_execute,"ax",%progbits
 1246      AFF30080 
 1246      AFF30080 
 1247              		.align	2
 1248              		.p2align 4,,15
 1249              		.thumb
 1250              		.thumb_func
 1251              		.type	bmk5_execute, %function
 1252              	bmk5_execute:
 1253              	.LFB15:
 1254              		.loc 1 265 0
 1255              		.cfi_startproc
 1256              		@ args = 0, pretend = 0, frame = 0
 1257              		@ frame_needed = 0, uses_anonymous_args = 0
 1258              	.LVL157:
 1259 0000 2DE9F041 		push	{r4, r5, r6, r7, r8, lr}
 1260              	.LCFI14:
 1261              		.cfi_def_cfa_offset 24
 1262              		.cfi_offset 4, -24
 1263              		.cfi_offset 5, -20
 1264              		.cfi_offset 6, -16
 1265              		.cfi_offset 7, -12
 1266              		.cfi_offset 8, -8
 1267              		.cfi_offset 14, -4
 1268              		.loc 1 269 0
 1269 0004 154B     		ldr	r3, .L86
 1270              		.loc 1 268 0
 1271 0006 164A     		ldr	r2, .L86+4
 1272              		.loc 1 269 0
 1273 0008 9B69     		ldr	r3, [r3, #24]
 1274              		.loc 1 265 0
 1275 000a 82B0     		sub	sp, sp, #8
 1276              	.LCFI15:
 1277              		.cfi_def_cfa_offset 32
 1278              		.loc 1 269 0
 1279 000c 9F68     		ldr	r7, [r3, #8]
 1280              		.loc 1 268 0
 1281 000e D2F80080 		ldr	r8, [r2, #0]
 1282              	.LVL158:
 1283              		.loc 1 270 0
 1284 0012 FFF7FEFF 		bl	test_wait_tick
 1285              	.LVL159:
 1286              		.loc 1 271 0
 1287 0016 4FF47A70 		mov	r0, #1000
 1288 001a FFF7FEFF 		bl	test_start_timer
 1289              	.LVL160:
 1290              		.loc 1 267 0
 1291 001e 0024     		movs	r4, #0
 1292 0020 104E     		ldr	r6, .L86+8
 1293              		.loc 1 269 0
 1294 0022 013F     		subs	r7, r7, #1
 1295              	.LVL161:
 1296              		.loc 1 273 0
 1297 0024 2546     		mov	r5, r4
 1298              	.LVL162:
 1299              	.L81:
ARM GAS  /var/folders/dt/0wfd0knj7gs46m8vwfzktm600000gn/T//ccQ7ZyKm.s 			page 24


 1300              		.loc 1 273 0 is_stmt 0 discriminator 1
 1301 0026 104B     		ldr	r3, .L86+12
 1302 0028 4FF49871 		mov	r1, #304
 1303 002c 3A46     		mov	r2, r7
 1304 002e 0095     		str	r5, [sp, #0]
 1305 0030 4046     		mov	r0, r8
 1306 0032 FFF7FEFF 		bl	chThdCreateStatic
 1307              	.LVL163:
 1308 0036 FFF7FEFF 		bl	chThdWait
 1309              	.LVL164:
 1310              		.loc 1 278 0 is_stmt 1 discriminator 1
 1311 003a 3378     		ldrb	r3, [r6, #0]	@ zero_extendqisi2
 1312              		.loc 1 274 0 discriminator 1
 1313 003c 0134     		adds	r4, r4, #1
 1314              	.LVL165:
 1315              		.loc 1 278 0 discriminator 1
 1316 003e 002B     		cmp	r3, #0
 1317 0040 F1D0     		beq	.L81
 1318              		.loc 1 279 0
 1319 0042 0A48     		ldr	r0, .L86+16
 1320 0044 FFF7FEFF 		bl	test_print
 1321              	.LVL166:
 1322              		.loc 1 280 0
 1323 0048 2046     		mov	r0, r4
 1324 004a FFF7FEFF 		bl	test_printn
 1325              	.LVL167:
 1326              		.loc 1 281 0
 1327 004e 0848     		ldr	r0, .L86+20
 1328              		.loc 1 282 0
 1329 0050 02B0     		add	sp, sp, #8
 1330 0052 BDE8F041 		pop	{r4, r5, r6, r7, r8, lr}
 1331              		.loc 1 281 0
 1332 0056 FFF7FEBF 		b	test_println
 1333              	.LVL168:
 1334              	.L87:
 1335 005a 00BF     		.align	2
 1336              	.L86:
 1337 005c 00000000 		.word	rlist
 1338 0060 00000000 		.word	wa
 1339 0064 00000000 		.word	test_timer_done
 1340 0068 00000000 		.word	thread2
 1341 006c A8000000 		.word	.LC11
 1342 0070 F0000000 		.word	.LC16
 1343              		.cfi_endproc
 1344              	.LFE15:
 1345              		.size	bmk5_execute, .-bmk5_execute
 1346 0074 AFF30080 		.section	.text.bmk4_execute,"ax",%progbits
 1346      AFF30080 
 1346      AFF30080 
 1347              		.align	2
 1348              		.p2align 4,,15
 1349              		.thumb
 1350              		.thumb_func
 1351              		.type	bmk4_execute, %function
 1352              	bmk4_execute:
 1353              	.LFB14:
 1354              		.loc 1 217 0
ARM GAS  /var/folders/dt/0wfd0knj7gs46m8vwfzktm600000gn/T//ccQ7ZyKm.s 			page 25


 1355              		.cfi_startproc
 1356              		@ args = 0, pretend = 0, frame = 0
 1357              		@ frame_needed = 0, uses_anonymous_args = 0
 1358 0000 70B5     		push	{r4, r5, r6, lr}
 1359              	.LCFI16:
 1360              		.cfi_def_cfa_offset 16
 1361              		.cfi_offset 4, -16
 1362              		.cfi_offset 5, -12
 1363              		.cfi_offset 6, -8
 1364              		.cfi_offset 14, -4
 1365              		.loc 1 221 0
 1366 0002 254B     		ldr	r3, .L94
 1367 0004 2548     		ldr	r0, .L94+4
 1368 0006 9B69     		ldr	r3, [r3, #24]
 1369              		.loc 1 217 0
 1370 0008 82B0     		sub	sp, sp, #8
 1371              	.LCFI17:
 1372              		.cfi_def_cfa_offset 24
 1373              		.loc 1 221 0
 1374 000a 9A68     		ldr	r2, [r3, #8]
 1375 000c 0025     		movs	r5, #0
 1376 000e 4FF49871 		mov	r1, #304
 1377 0012 0132     		adds	r2, r2, #1
 1378 0014 224B     		ldr	r3, .L94+8
 1379 0016 0095     		str	r5, [sp, #0]
 1380 0018 0068     		ldr	r0, [r0, #0]
 1381 001a FFF7FEFF 		bl	chThdCreateStatic
 1382              	.LVL169:
 1383 001e 214B     		ldr	r3, .L94+12
 1384 0020 0446     		mov	r4, r0
 1385 0022 1860     		str	r0, [r3, #0]
 1386              	.LVL170:
 1387              		.loc 1 223 0
 1388 0024 FFF7FEFF 		bl	test_wait_tick
 1389              	.LVL171:
 1390              		.loc 1 224 0
 1391 0028 4FF47A70 		mov	r0, #1000
 1392 002c 1E4E     		ldr	r6, .L94+16
 1393 002e FFF7FEFF 		bl	test_start_timer
 1394              	.LVL172:
 1395              	.L89:
 1396              	.LBB6:
 1397              		.loc 1 226 0 discriminator 1
 1398 0032 2023     		movs	r3, #32
 1399              	.LVL173:
 1400              	@ 226 "../../test/testbmk.c" 1
 1401 0034 83F31188 		msr     BASEPRI, r3
 1402              	@ 0 "" 2
 1403              	.LVL174:
 1404              		.thumb
 1405              	.LBE6:
 1406              		.loc 1 227 0 discriminator 1
 1407 0038 0021     		movs	r1, #0
 1408 003a 2046     		mov	r0, r4
 1409 003c FFF7FEFF 		bl	chSchWakeupS
 1410              	.LVL175:
 1411              		.loc 1 228 0 discriminator 1
ARM GAS  /var/folders/dt/0wfd0knj7gs46m8vwfzktm600000gn/T//ccQ7ZyKm.s 			page 26


 1412 0040 2046     		mov	r0, r4
 1413 0042 0021     		movs	r1, #0
 1414 0044 FFF7FEFF 		bl	chSchWakeupS
 1415              	.LVL176:
 1416              		.loc 1 229 0 discriminator 1
 1417 0048 2046     		mov	r0, r4
 1418 004a 0021     		movs	r1, #0
 1419 004c FFF7FEFF 		bl	chSchWakeupS
 1420              	.LVL177:
 1421              		.loc 1 230 0 discriminator 1
 1422 0050 2046     		mov	r0, r4
 1423 0052 0021     		movs	r1, #0
 1424 0054 FFF7FEFF 		bl	chSchWakeupS
 1425              	.LVL178:
 1426              	.LBB7:
 1427              		.loc 1 231 0 discriminator 1
 1428 0058 0023     		movs	r3, #0
 1429              	.LVL179:
 1430              	@ 231 "../../test/testbmk.c" 1
 1431 005a 83F31188 		msr     BASEPRI, r3
 1432              	@ 0 "" 2
 1433              	.LVL180:
 1434              		.thumb
 1435              	.LBE7:
 1436              		.loc 1 236 0 discriminator 1
 1437 005e 3378     		ldrb	r3, [r6, #0]	@ zero_extendqisi2
 1438              	.LVL181:
 1439              		.loc 1 232 0 discriminator 1
 1440 0060 0435     		adds	r5, r5, #4
 1441              	.LVL182:
 1442              		.loc 1 236 0 discriminator 1
 1443 0062 002B     		cmp	r3, #0
 1444 0064 E5D0     		beq	.L89
 1445              	.LBB8:
 1446              		.loc 1 237 0
 1447 0066 2023     		movs	r3, #32
 1448              	.LVL183:
 1449              	@ 237 "../../test/testbmk.c" 1
 1450 0068 83F31188 		msr     BASEPRI, r3
 1451              	@ 0 "" 2
 1452              	.LVL184:
 1453              		.thumb
 1454              	.LBE8:
 1455              		.loc 1 238 0
 1456 006c 4FF0FF31 		mov	r1, #-1
 1457 0070 2046     		mov	r0, r4
 1458 0072 FFF7FEFF 		bl	chSchWakeupS
 1459              	.LVL185:
 1460              	.LBB9:
 1461              		.loc 1 239 0
 1462 0076 0023     		movs	r3, #0
 1463              	.LVL186:
 1464              	@ 239 "../../test/testbmk.c" 1
 1465 0078 83F31188 		msr     BASEPRI, r3
 1466              	@ 0 "" 2
 1467              	.LVL187:
 1468              		.thumb
ARM GAS  /var/folders/dt/0wfd0knj7gs46m8vwfzktm600000gn/T//ccQ7ZyKm.s 			page 27


 1469              	.LBE9:
 1470              		.loc 1 241 0
 1471 007c FFF7FEFF 		bl	test_wait_threads
 1472              	.LVL188:
 1473              		.loc 1 242 0
 1474 0080 0A48     		ldr	r0, .L94+20
 1475 0082 FFF7FEFF 		bl	test_print
 1476              	.LVL189:
 1477              		.loc 1 243 0
 1478 0086 6800     		lsls	r0, r5, #1
 1479 0088 FFF7FEFF 		bl	test_printn
 1480              	.LVL190:
 1481              		.loc 1 244 0
 1482 008c 0848     		ldr	r0, .L94+24
 1483              		.loc 1 245 0
 1484 008e 02B0     		add	sp, sp, #8
 1485 0090 BDE87040 		pop	{r4, r5, r6, lr}
 1486              		.loc 1 244 0
 1487 0094 FFF7FEBF 		b	test_println
 1488              	.LVL191:
 1489              	.L95:
 1490              		.align	2
 1491              	.L94:
 1492 0098 00000000 		.word	rlist
 1493 009c 00000000 		.word	wa
 1494 00a0 00000000 		.word	thread4
 1495 00a4 00000000 		.word	threads
 1496 00a8 00000000 		.word	test_timer_done
 1497 00ac A8000000 		.word	.LC11
 1498 00b0 FC000000 		.word	.LC17
 1499              		.cfi_endproc
 1500              	.LFE14:
 1501              		.size	bmk4_execute, .-bmk4_execute
 1502 00b4 AFF30080 		.section	.text.msg_loop_test,"ax",%progbits
 1502      AFF30080 
 1502      AFF30080 
 1503              		.align	2
 1504              		.p2align 4,,15
 1505              		.thumb
 1506              		.thumb_func
 1507              		.type	msg_loop_test, %function
 1508              	msg_loop_test:
 1509              	.LFB8:
 1510              		.loc 1 80 0
 1511              		.cfi_startproc
 1512              		@ args = 0, pretend = 0, frame = 0
 1513              		@ frame_needed = 0, uses_anonymous_args = 0
 1514              	.LVL192:
 1515 0000 70B5     		push	{r4, r5, r6, lr}
 1516              	.LCFI18:
 1517              		.cfi_def_cfa_offset 16
 1518              		.cfi_offset 4, -16
 1519              		.cfi_offset 5, -12
 1520              		.cfi_offset 6, -8
 1521              		.cfi_offset 14, -4
 1522              		.loc 1 80 0
 1523 0002 0546     		mov	r5, r0
ARM GAS  /var/folders/dt/0wfd0knj7gs46m8vwfzktm600000gn/T//ccQ7ZyKm.s 			page 28


 1524              		.loc 1 83 0
 1525 0004 FFF7FEFF 		bl	test_wait_tick
 1526              	.LVL193:
 1527              		.loc 1 84 0
 1528 0008 4FF47A70 		mov	r0, #1000
 1529 000c FFF7FEFF 		bl	test_start_timer
 1530              	.LVL194:
 1531 0010 074E     		ldr	r6, .L102
 1532              		.loc 1 82 0
 1533 0012 0024     		movs	r4, #0
 1534              	.LVL195:
 1535              	.L97:
 1536              		.loc 1 86 0 discriminator 1
 1537 0014 2846     		mov	r0, r5
 1538 0016 0121     		movs	r1, #1
 1539 0018 FFF7FEFF 		bl	chMsgSend
 1540              	.LVL196:
 1541              		.loc 1 91 0 discriminator 1
 1542 001c 3378     		ldrb	r3, [r6, #0]	@ zero_extendqisi2
 1543              		.loc 1 87 0 discriminator 1
 1544 001e 0134     		adds	r4, r4, #1
 1545              	.LVL197:
 1546              		.loc 1 91 0 discriminator 1
 1547 0020 002B     		cmp	r3, #0
 1548 0022 F7D0     		beq	.L97
 1549              		.loc 1 92 0
 1550 0024 2846     		mov	r0, r5
 1551 0026 0021     		movs	r1, #0
 1552 0028 FFF7FEFF 		bl	chMsgSend
 1553              	.LVL198:
 1554              		.loc 1 94 0
 1555 002c 2046     		mov	r0, r4
 1556 002e 70BD     		pop	{r4, r5, r6, pc}
 1557              	.L103:
 1558              		.align	2
 1559              	.L102:
 1560 0030 00000000 		.word	test_timer_done
 1561              		.cfi_endproc
 1562              	.LFE8:
 1563              		.size	msg_loop_test, .-msg_loop_test
 1564 0034 AFF30080 		.section	.text.bmk3_execute,"ax",%progbits
 1564      AFF30080 
 1564      AFF30080 
 1565              		.align	2
 1566              		.p2align 4,,15
 1567              		.thumb
 1568              		.thumb_func
 1569              		.type	bmk3_execute, %function
 1570              	bmk3_execute:
 1571              	.LFB12:
 1572              		.loc 1 169 0
 1573              		.cfi_startproc
 1574              		@ args = 0, pretend = 0, frame = 0
 1575              		@ frame_needed = 0, uses_anonymous_args = 0
 1576 0000 2DE9F041 		push	{r4, r5, r6, r7, r8, lr}
 1577              	.LCFI19:
 1578              		.cfi_def_cfa_offset 24
ARM GAS  /var/folders/dt/0wfd0knj7gs46m8vwfzktm600000gn/T//ccQ7ZyKm.s 			page 29


 1579              		.cfi_offset 4, -24
 1580              		.cfi_offset 5, -20
 1581              		.cfi_offset 6, -16
 1582              		.cfi_offset 7, -12
 1583              		.cfi_offset 8, -8
 1584              		.cfi_offset 14, -4
 1585              		.loc 1 172 0
 1586 0004 40F20006 		movw	r6, #:lower16:rlist
 1587 0008 C0F20006 		movt	r6, #:upper16:rlist
 1588 000c B369     		ldr	r3, [r6, #24]
 1589 000e 40F20005 		movw	r5, #:lower16:wa
 1590 0012 9A68     		ldr	r2, [r3, #8]
 1591              		.loc 1 169 0
 1592 0014 82B0     		sub	sp, sp, #8
 1593              	.LCFI20:
 1594              		.cfi_def_cfa_offset 32
 1595              		.loc 1 172 0
 1596 0016 0027     		movs	r7, #0
 1597 0018 C0F20005 		movt	r5, #:upper16:wa
 1598 001c 40F20003 		movw	r3, #:lower16:thread1
 1599 0020 0132     		adds	r2, r2, #1
 1600 0022 2868     		ldr	r0, [r5, #0]
 1601 0024 4FF49871 		mov	r1, #304
 1602 0028 C0F20003 		movt	r3, #:upper16:thread1
 1603 002c 0097     		str	r7, [sp, #0]
 1604 002e FFF7FEFF 		bl	chThdCreateStatic
 1605              	.LVL199:
 1606              		.loc 1 173 0
 1607 0032 B369     		ldr	r3, [r6, #24]
 1608              		.loc 1 172 0
 1609 0034 40F20004 		movw	r4, #:lower16:threads
 1610              		.loc 1 173 0
 1611 0038 9A68     		ldr	r2, [r3, #8]
 1612 003a 40F20008 		movw	r8, #:lower16:thread2
 1613              		.loc 1 172 0
 1614 003e C0F20004 		movt	r4, #:upper16:threads
 1615              		.loc 1 173 0
 1616 0042 C0F20008 		movt	r8, #:upper16:thread2
 1617              		.loc 1 172 0
 1618 0046 2060     		str	r0, [r4, #0]
 1619              		.loc 1 173 0
 1620 0048 023A     		subs	r2, r2, #2
 1621 004a 4346     		mov	r3, r8
 1622 004c 4FF49871 		mov	r1, #304
 1623 0050 0097     		str	r7, [sp, #0]
 1624 0052 6868     		ldr	r0, [r5, #4]
 1625 0054 FFF7FEFF 		bl	chThdCreateStatic
 1626              	.LVL200:
 1627              		.loc 1 174 0
 1628 0058 B369     		ldr	r3, [r6, #24]
 1629 005a 4FF49871 		mov	r1, #304
 1630 005e 9A68     		ldr	r2, [r3, #8]
 1631              		.loc 1 173 0
 1632 0060 6060     		str	r0, [r4, #4]
 1633              		.loc 1 174 0
 1634 0062 033A     		subs	r2, r2, #3
 1635 0064 4346     		mov	r3, r8
ARM GAS  /var/folders/dt/0wfd0knj7gs46m8vwfzktm600000gn/T//ccQ7ZyKm.s 			page 30


 1636 0066 0097     		str	r7, [sp, #0]
 1637 0068 A868     		ldr	r0, [r5, #8]
 1638 006a FFF7FEFF 		bl	chThdCreateStatic
 1639              	.LVL201:
 1640              		.loc 1 175 0
 1641 006e B369     		ldr	r3, [r6, #24]
 1642 0070 4FF49871 		mov	r1, #304
 1643 0074 9A68     		ldr	r2, [r3, #8]
 1644              		.loc 1 174 0
 1645 0076 A060     		str	r0, [r4, #8]
 1646              		.loc 1 175 0
 1647 0078 043A     		subs	r2, r2, #4
 1648 007a 4346     		mov	r3, r8
 1649 007c 0097     		str	r7, [sp, #0]
 1650 007e E868     		ldr	r0, [r5, #12]
 1651 0080 FFF7FEFF 		bl	chThdCreateStatic
 1652              	.LVL202:
 1653              		.loc 1 176 0
 1654 0084 B369     		ldr	r3, [r6, #24]
 1655 0086 2D69     		ldr	r5, [r5, #16]
 1656 0088 9A68     		ldr	r2, [r3, #8]
 1657 008a 4FF49871 		mov	r1, #304
 1658 008e 053A     		subs	r2, r2, #5
 1659 0090 4346     		mov	r3, r8
 1660              		.loc 1 175 0
 1661 0092 E060     		str	r0, [r4, #12]
 1662              		.loc 1 176 0
 1663 0094 0097     		str	r7, [sp, #0]
 1664 0096 2846     		mov	r0, r5
 1665 0098 FFF7FEFF 		bl	chThdCreateStatic
 1666              	.LVL203:
 1667 009c 2061     		str	r0, [r4, #16]
 1668              		.loc 1 177 0
 1669 009e 2068     		ldr	r0, [r4, #0]
 1670 00a0 FFF7FEFF 		bl	msg_loop_test
 1671              	.LVL204:
 1672 00a4 0446     		mov	r4, r0
 1673              	.LVL205:
 1674              		.loc 1 178 0
 1675 00a6 FFF7FEFF 		bl	test_wait_threads
 1676              	.LVL206:
 1677              		.loc 1 179 0
 1678 00aa 40F20000 		movw	r0, #:lower16:.LC11
 1679 00ae C0F20000 		movt	r0, #:upper16:.LC11
 1680 00b2 FFF7FEFF 		bl	test_print
 1681              	.LVL207:
 1682              		.loc 1 180 0
 1683 00b6 2046     		mov	r0, r4
 1684 00b8 FFF7FEFF 		bl	test_printn
 1685              	.LVL208:
 1686              		.loc 1 181 0
 1687 00bc 40F20000 		movw	r0, #:lower16:.LC19
 1688 00c0 C0F20000 		movt	r0, #:upper16:.LC19
 1689 00c4 FFF7FEFF 		bl	test_print
 1690              	.LVL209:
 1691              		.loc 1 182 0
 1692 00c8 6000     		lsls	r0, r4, #1
ARM GAS  /var/folders/dt/0wfd0knj7gs46m8vwfzktm600000gn/T//ccQ7ZyKm.s 			page 31


 1693 00ca FFF7FEFF 		bl	test_printn
 1694              	.LVL210:
 1695              		.loc 1 183 0
 1696 00ce 40F20000 		movw	r0, #:lower16:.LC17
 1697 00d2 C0F20000 		movt	r0, #:upper16:.LC17
 1698              		.loc 1 184 0
 1699 00d6 02B0     		add	sp, sp, #8
 1700 00d8 BDE8F041 		pop	{r4, r5, r6, r7, r8, lr}
 1701              		.loc 1 183 0
 1702 00dc FFF7FEBF 		b	test_println
 1703              	.LVL211:
 1704              		.cfi_endproc
 1705              	.LFE12:
 1706              		.size	bmk3_execute, .-bmk3_execute
 1707              		.section	.text.bmk2_execute,"ax",%progbits
 1708              		.align	2
 1709              		.p2align 4,,15
 1710              		.thumb
 1711              		.thumb_func
 1712              		.type	bmk2_execute, %function
 1713              	bmk2_execute:
 1714              	.LFB10:
 1715              		.loc 1 134 0
 1716              		.cfi_startproc
 1717              		@ args = 0, pretend = 0, frame = 0
 1718              		@ frame_needed = 0, uses_anonymous_args = 0
 1719 0000 10B5     		push	{r4, lr}
 1720              	.LCFI21:
 1721              		.cfi_def_cfa_offset 8
 1722              		.cfi_offset 4, -8
 1723              		.cfi_offset 14, -4
 1724              		.loc 1 137 0
 1725 0002 40F20003 		movw	r3, #:lower16:rlist
 1726 0006 C0F20003 		movt	r3, #:upper16:rlist
 1727 000a 9A69     		ldr	r2, [r3, #24]
 1728 000c 40F20003 		movw	r3, #:lower16:wa
 1729 0010 9268     		ldr	r2, [r2, #8]
 1730 0012 C0F20003 		movt	r3, #:upper16:wa
 1731              		.loc 1 134 0
 1732 0016 82B0     		sub	sp, sp, #8
 1733              	.LCFI22:
 1734              		.cfi_def_cfa_offset 16
 1735              		.loc 1 137 0
 1736 0018 0024     		movs	r4, #0
 1737 001a 1868     		ldr	r0, [r3, #0]
 1738 001c 40F20003 		movw	r3, #:lower16:thread1
 1739 0020 4FF49871 		mov	r1, #304
 1740 0024 0132     		adds	r2, r2, #1
 1741 0026 0094     		str	r4, [sp, #0]
 1742 0028 C0F20003 		movt	r3, #:upper16:thread1
 1743 002c FFF7FEFF 		bl	chThdCreateStatic
 1744              	.LVL212:
 1745 0030 40F20003 		movw	r3, #:lower16:threads
 1746 0034 C0F20003 		movt	r3, #:upper16:threads
 1747 0038 1860     		str	r0, [r3, #0]
 1748              		.loc 1 138 0
 1749 003a FFF7FEFF 		bl	msg_loop_test
ARM GAS  /var/folders/dt/0wfd0knj7gs46m8vwfzktm600000gn/T//ccQ7ZyKm.s 			page 32


 1750              	.LVL213:
 1751 003e 0446     		mov	r4, r0
 1752              	.LVL214:
 1753              		.loc 1 139 0
 1754 0040 FFF7FEFF 		bl	test_wait_threads
 1755              	.LVL215:
 1756              		.loc 1 140 0
 1757 0044 40F20000 		movw	r0, #:lower16:.LC11
 1758 0048 C0F20000 		movt	r0, #:upper16:.LC11
 1759 004c FFF7FEFF 		bl	test_print
 1760              	.LVL216:
 1761              		.loc 1 141 0
 1762 0050 2046     		mov	r0, r4
 1763 0052 FFF7FEFF 		bl	test_printn
 1764              	.LVL217:
 1765              		.loc 1 142 0
 1766 0056 40F20000 		movw	r0, #:lower16:.LC19
 1767 005a C0F20000 		movt	r0, #:upper16:.LC19
 1768 005e FFF7FEFF 		bl	test_print
 1769              	.LVL218:
 1770              		.loc 1 143 0
 1771 0062 6000     		lsls	r0, r4, #1
 1772 0064 FFF7FEFF 		bl	test_printn
 1773              	.LVL219:
 1774              		.loc 1 144 0
 1775 0068 40F20000 		movw	r0, #:lower16:.LC17
 1776 006c C0F20000 		movt	r0, #:upper16:.LC17
 1777              		.loc 1 145 0
 1778 0070 02B0     		add	sp, sp, #8
 1779 0072 BDE81040 		pop	{r4, lr}
 1780              		.loc 1 144 0
 1781 0076 FFF7FEBF 		b	test_println
 1782              	.LVL220:
 1783              		.cfi_endproc
 1784              	.LFE10:
 1785              		.size	bmk2_execute, .-bmk2_execute
 1786 007a 00BFAFF3 		.section	.text.bmk1_execute,"ax",%progbits
 1786      0080
 1787              		.align	2
 1788              		.p2align 4,,15
 1789              		.thumb
 1790              		.thumb_func
 1791              		.type	bmk1_execute, %function
 1792              	bmk1_execute:
 1793              	.LFB9:
 1794              		.loc 1 105 0
 1795              		.cfi_startproc
 1796              		@ args = 0, pretend = 0, frame = 0
 1797              		@ frame_needed = 0, uses_anonymous_args = 0
 1798 0000 10B5     		push	{r4, lr}
 1799              	.LCFI23:
 1800              		.cfi_def_cfa_offset 8
 1801              		.cfi_offset 4, -8
 1802              		.cfi_offset 14, -4
 1803              		.loc 1 108 0
 1804 0002 40F20003 		movw	r3, #:lower16:rlist
 1805 0006 C0F20003 		movt	r3, #:upper16:rlist
ARM GAS  /var/folders/dt/0wfd0knj7gs46m8vwfzktm600000gn/T//ccQ7ZyKm.s 			page 33


 1806 000a 9A69     		ldr	r2, [r3, #24]
 1807 000c 40F20003 		movw	r3, #:lower16:wa
 1808 0010 9268     		ldr	r2, [r2, #8]
 1809 0012 C0F20003 		movt	r3, #:upper16:wa
 1810              		.loc 1 105 0
 1811 0016 82B0     		sub	sp, sp, #8
 1812              	.LCFI24:
 1813              		.cfi_def_cfa_offset 16
 1814              		.loc 1 108 0
 1815 0018 0024     		movs	r4, #0
 1816 001a 1868     		ldr	r0, [r3, #0]
 1817 001c 40F20003 		movw	r3, #:lower16:thread1
 1818 0020 4FF49871 		mov	r1, #304
 1819 0024 013A     		subs	r2, r2, #1
 1820 0026 0094     		str	r4, [sp, #0]
 1821 0028 C0F20003 		movt	r3, #:upper16:thread1
 1822 002c FFF7FEFF 		bl	chThdCreateStatic
 1823              	.LVL221:
 1824 0030 40F20003 		movw	r3, #:lower16:threads
 1825 0034 C0F20003 		movt	r3, #:upper16:threads
 1826 0038 1860     		str	r0, [r3, #0]
 1827              		.loc 1 109 0
 1828 003a FFF7FEFF 		bl	msg_loop_test
 1829              	.LVL222:
 1830 003e 0446     		mov	r4, r0
 1831              	.LVL223:
 1832              		.loc 1 110 0
 1833 0040 FFF7FEFF 		bl	test_wait_threads
 1834              	.LVL224:
 1835              		.loc 1 111 0
 1836 0044 40F20000 		movw	r0, #:lower16:.LC11
 1837 0048 C0F20000 		movt	r0, #:upper16:.LC11
 1838 004c FFF7FEFF 		bl	test_print
 1839              	.LVL225:
 1840              		.loc 1 112 0
 1841 0050 2046     		mov	r0, r4
 1842 0052 FFF7FEFF 		bl	test_printn
 1843              	.LVL226:
 1844              		.loc 1 113 0
 1845 0056 40F20000 		movw	r0, #:lower16:.LC19
 1846 005a C0F20000 		movt	r0, #:upper16:.LC19
 1847 005e FFF7FEFF 		bl	test_print
 1848              	.LVL227:
 1849              		.loc 1 114 0
 1850 0062 6000     		lsls	r0, r4, #1
 1851 0064 FFF7FEFF 		bl	test_printn
 1852              	.LVL228:
 1853              		.loc 1 115 0
 1854 0068 40F20000 		movw	r0, #:lower16:.LC17
 1855 006c C0F20000 		movt	r0, #:upper16:.LC17
 1856              		.loc 1 116 0
 1857 0070 02B0     		add	sp, sp, #8
 1858 0072 BDE81040 		pop	{r4, lr}
 1859              		.loc 1 115 0
 1860 0076 FFF7FEBF 		b	test_println
 1861              	.LVL229:
 1862              		.cfi_endproc
ARM GAS  /var/folders/dt/0wfd0knj7gs46m8vwfzktm600000gn/T//ccQ7ZyKm.s 			page 34


 1863              	.LFE9:
 1864              		.size	bmk1_execute, .-bmk1_execute
 1865 007a 00BFAFF3 		.section	.text.thread1,"ax",%progbits
 1865      0080
 1866              		.align	2
 1867              		.p2align 4,,15
 1868              		.thumb
 1869              		.thumb_func
 1870              		.type	thread1, %function
 1871              	thread1:
 1872              	.LFB7:
 1873              		.loc 1 64 0
 1874              		.cfi_startproc
 1875              		@ args = 0, pretend = 0, frame = 0
 1876              		@ frame_needed = 0, uses_anonymous_args = 0
 1877              	.LVL230:
 1878 0000 10B5     		push	{r4, lr}
 1879              	.LCFI25:
 1880              		.cfi_def_cfa_offset 8
 1881              		.cfi_offset 4, -8
 1882              		.cfi_offset 14, -4
 1883              	.LVL231:
 1884              	.L108:
 1885              		.loc 1 70 0 discriminator 1
 1886 0002 FFF7FEFF 		bl	chMsgWait
 1887              	.LVL232:
 1888              		.loc 1 71 0 discriminator 1
 1889 0006 446B     		ldr	r4, [r0, #52]
 1890              	.LVL233:
 1891              		.loc 1 72 0 discriminator 1
 1892 0008 2146     		mov	r1, r4
 1893 000a FFF7FEFF 		bl	chMsgRelease
 1894              	.LVL234:
 1895              		.loc 1 73 0 discriminator 1
 1896 000e 002C     		cmp	r4, #0
 1897 0010 F7D1     		bne	.L108
 1898              		.loc 1 75 0
 1899 0012 2046     		mov	r0, r4
 1900 0014 10BD     		pop	{r4, pc}
 1901              		.cfi_endproc
 1902              	.LFE7:
 1903              		.size	thread1, .-thread1
 1904 0016 00BFAFF3 		.section	.text.thread4,"ax",%progbits
 1904      0080AFF3 
 1904      0080
 1905              		.align	2
 1906              		.p2align 4,,15
 1907              		.global	thread4
 1908              		.thumb
 1909              		.thumb_func
 1910              		.type	thread4, %function
 1911              	thread4:
 1912              	.LFB13:
 1913              		.loc 1 203 0
 1914              		.cfi_startproc
 1915              		@ args = 0, pretend = 0, frame = 0
 1916              		@ frame_needed = 0, uses_anonymous_args = 0
ARM GAS  /var/folders/dt/0wfd0knj7gs46m8vwfzktm600000gn/T//ccQ7ZyKm.s 			page 35


 1917              	.LVL235:
 1918              		.loc 1 205 0
 1919 0000 084A     		ldr	r2, .L116
 1920              		.loc 1 203 0
 1921 0002 10B5     		push	{r4, lr}
 1922              	.LCFI26:
 1923              		.cfi_def_cfa_offset 8
 1924              		.cfi_offset 4, -8
 1925              		.cfi_offset 14, -4
 1926              	.LBB10:
 1927              		.loc 1 208 0
 1928 0004 2023     		movs	r3, #32
 1929              	.LVL236:
 1930              	.LBE10:
 1931              		.loc 1 205 0
 1932 0006 9469     		ldr	r4, [r2, #24]
 1933              	.LVL237:
 1934              	.LBB11:
 1935              		.loc 1 208 0
 1936              	@ 208 "../../test/testbmk.c" 1
 1937 0008 83F31188 		msr     BASEPRI, r3
 1938              	@ 0 "" 2
 1939              	.LVL238:
 1940              		.thumb
 1941              	.L111:
 1942              	.LBE11:
 1943              		.loc 1 210 0 discriminator 1
 1944 000c 0220     		movs	r0, #2
 1945 000e FFF7FEFF 		bl	chSchGoSleepS
 1946              	.LVL239:
 1947              		.loc 1 212 0 discriminator 1
 1948 0012 636A     		ldr	r3, [r4, #36]
 1949 0014 002B     		cmp	r3, #0
 1950 0016 F9D0     		beq	.L111
 1951              	.LBB12:
 1952              		.loc 1 213 0
 1953 0018 0023     		movs	r3, #0
 1954              	.LVL240:
 1955              	@ 213 "../../test/testbmk.c" 1
 1956 001a 83F31188 		msr     BASEPRI, r3
 1957              	@ 0 "" 2
 1958              	.LVL241:
 1959              		.thumb
 1960              	.LBE12:
 1961              		.loc 1 215 0
 1962 001e 1846     		mov	r0, r3
 1963 0020 10BD     		pop	{r4, pc}
 1964              	.L117:
 1965 0022 00BF     		.align	2
 1966              	.L116:
 1967 0024 00000000 		.word	rlist
 1968              		.cfi_endproc
 1969              	.LFE13:
 1970              		.size	thread4, .-thread4
 1971              		.global	patternbmk
 1972              		.global	testbmk13
 1973              		.global	testbmk12
ARM GAS  /var/folders/dt/0wfd0knj7gs46m8vwfzktm600000gn/T//ccQ7ZyKm.s 			page 36


 1974              		.global	testbmk11
 1975              		.global	testbmk10
 1976              		.global	testbmk9
 1977              		.global	testbmk8
 1978              		.global	testbmk7
 1979              		.global	testbmk6
 1980              		.global	testbmk5
 1981              		.global	testbmk4
 1982              		.global	testbmk3
 1983              		.global	testbmk2
 1984              		.global	testbmk1
 1985 0028 AFF30080 		.section	.rodata.testbmk8,"a",%progbits
 1985      AFF30080 
 1986              		.align	2
 1987              		.type	testbmk8, %object
 1988              		.size	testbmk8, 16
 1989              	testbmk8:
 1990 0000 D0010000 		.word	.LC25
 1991 0004 00000000 		.word	0
 1992 0008 00000000 		.word	0
 1993 000c 00000000 		.word	bmk8_execute
 1994              		.section	.rodata.patternbmk,"a",%progbits
 1995              		.align	2
 1996              		.type	patternbmk, %object
 1997              		.size	patternbmk, 56
 1998              	patternbmk:
 1999 0000 00000000 		.word	testbmk1
 2000 0004 00000000 		.word	testbmk2
 2001 0008 00000000 		.word	testbmk3
 2002 000c 00000000 		.word	testbmk4
 2003 0010 00000000 		.word	testbmk5
 2004 0014 00000000 		.word	testbmk6
 2005 0018 00000000 		.word	testbmk7
 2006 001c 00000000 		.word	testbmk8
 2007 0020 00000000 		.word	testbmk9
 2008 0024 00000000 		.word	testbmk10
 2009 0028 00000000 		.word	testbmk11
 2010 002c 00000000 		.word	testbmk12
 2011 0030 00000000 		.word	testbmk13
 2012 0034 00000000 		.word	0
 2013              		.section	.bss.iq.4920,"aw",%nobits
 2014              		.align	2
 2015              		.set	.LANCHOR4,. + 0
 2016              		.type	iq.4920, %object
 2017              		.size	iq.4920, 36
 2018              	iq.4920:
 2019 0000 00000000 		.space	36
 2019      00000000 
 2019      00000000 
 2019      00000000 
 2019      00000000 
 2020              		.section	.rodata.testbmk3,"a",%progbits
 2021              		.align	2
 2022              		.type	testbmk3, %object
 2023              		.size	testbmk3, 16
 2024              	testbmk3:
 2025 0000 80020000 		.word	.LC30
ARM GAS  /var/folders/dt/0wfd0knj7gs46m8vwfzktm600000gn/T//ccQ7ZyKm.s 			page 37


 2026 0004 00000000 		.word	0
 2027 0008 00000000 		.word	0
 2028 000c 00000000 		.word	bmk3_execute
 2029              		.section	.rodata.testbmk10,"a",%progbits
 2030              		.align	2
 2031              		.type	testbmk10, %object
 2032              		.size	testbmk10, 16
 2033              	testbmk10:
 2034 0000 88010000 		.word	.LC23
 2035 0004 00000000 		.word	0
 2036 0008 00000000 		.word	0
 2037 000c 00000000 		.word	bmk10_execute
 2038              		.section	.rodata.testbmk11,"a",%progbits
 2039              		.align	2
 2040              		.type	testbmk11, %object
 2041              		.size	testbmk11, 16
 2042              	testbmk11:
 2043 0000 64010000 		.word	.LC22
 2044 0004 00000000 		.word	bmk11_setup
 2045 0008 00000000 		.word	0
 2046 000c 00000000 		.word	bmk11_execute
 2047              		.section	.bss.mtx1,"aw",%nobits
 2048              		.align	2
 2049              		.set	.LANCHOR0,. + 0
 2050              		.type	mtx1, %object
 2051              		.size	mtx1, 16
 2052              	mtx1:
 2053 0000 00000000 		.space	16
 2053      00000000 
 2053      00000000 
 2053      00000000 
 2054              		.section	.rodata.testbmk4,"a",%progbits
 2055              		.align	2
 2056              		.type	testbmk4, %object
 2057              		.size	testbmk4, 16
 2058              	testbmk4:
 2059 0000 64020000 		.word	.LC29
 2060 0004 00000000 		.word	0
 2061 0008 00000000 		.word	0
 2062 000c 00000000 		.word	bmk4_execute
 2063              		.section	.rodata.testbmk13,"a",%progbits
 2064              		.align	2
 2065              		.type	testbmk13, %object
 2066              		.size	testbmk13, 16
 2067              	testbmk13:
 2068 0000 28010000 		.word	.LC20
 2069 0004 00000000 		.word	0
 2070 0008 00000000 		.word	0
 2071 000c 00000000 		.word	bmk13_execute
 2072              		.section	.rodata.testbmk2,"a",%progbits
 2073              		.align	2
 2074              		.type	testbmk2, %object
 2075              		.size	testbmk2, 16
 2076              	testbmk2:
 2077 0000 98020000 		.word	.LC31
 2078 0004 00000000 		.word	0
 2079 0008 00000000 		.word	0
ARM GAS  /var/folders/dt/0wfd0knj7gs46m8vwfzktm600000gn/T//ccQ7ZyKm.s 			page 38


 2080 000c 00000000 		.word	bmk2_execute
 2081              		.section	.rodata.str1.4,"aMS",%progbits,1
 2082              		.align	2
 2083              	.LC0:
 2084 0000 2D2D2D20 		.ascii	"--- System: \000"
 2084      53797374 
 2084      656D3A20 
 2084      00
 2085 000d 000000   		.space	3
 2086              	.LC1:
 2087 0010 20627974 		.ascii	" bytes\000"
 2087      657300
 2088 0017 00       		.space	1
 2089              	.LC2:
 2090 0018 2D2D2D20 		.ascii	"--- Thread: \000"
 2090      54687265 
 2090      61643A20 
 2090      00
 2091 0025 000000   		.space	3
 2092              	.LC3:
 2093 0028 2D2D2D20 		.ascii	"--- Timer : \000"
 2093      54696D65 
 2093      72203A20 
 2093      00
 2094 0035 000000   		.space	3
 2095              	.LC4:
 2096 0038 2D2D2D20 		.ascii	"--- Semaph: \000"
 2096      53656D61 
 2096      70683A20 
 2096      00
 2097 0045 000000   		.space	3
 2098              	.LC5:
 2099 0048 2D2D2D20 		.ascii	"--- EventS: \000"
 2099      4576656E 
 2099      74533A20 
 2099      00
 2100 0055 000000   		.space	3
 2101              	.LC6:
 2102 0058 2D2D2D20 		.ascii	"--- EventL: \000"
 2102      4576656E 
 2102      744C3A20 
 2102      00
 2103 0065 000000   		.space	3
 2104              	.LC7:
 2105 0068 2D2D2D20 		.ascii	"--- Mutex : \000"
 2105      4D757465 
 2105      78203A20 
 2105      00
 2106 0075 000000   		.space	3
 2107              	.LC8:
 2108 0078 2D2D2D20 		.ascii	"--- CondV.: \000"
 2108      436F6E64 
 2108      562E3A20 
 2108      00
 2109 0085 000000   		.space	3
 2110              	.LC9:
 2111 0088 2D2D2D20 		.ascii	"--- Queue : \000"
ARM GAS  /var/folders/dt/0wfd0knj7gs46m8vwfzktm600000gn/T//ccQ7ZyKm.s 			page 39


 2111      51756575 
 2111      65203A20 
 2111      00
 2112 0095 000000   		.space	3
 2113              	.LC10:
 2114 0098 2D2D2D20 		.ascii	"--- MailB.: \000"
 2114      4D61696C 
 2114      422E3A20 
 2114      00
 2115 00a5 000000   		.space	3
 2116              	.LC11:
 2117 00a8 2D2D2D20 		.ascii	"--- Score : \000"
 2117      53636F72 
 2117      65203A20 
 2117      00
 2118 00b5 000000   		.space	3
 2119              	.LC12:
 2120 00b8 206C6F63 		.ascii	" lock+unlock/S\000"
 2120      6B2B756E 
 2120      6C6F636B 
 2120      2F5300
 2121 00c7 00       		.space	1
 2122              	.LC13:
 2123 00c8 20776169 		.ascii	" wait+signal/S\000"
 2123      742B7369 
 2123      676E616C 
 2123      2F5300
 2124 00d7 00       		.space	1
 2125              	.LC14:
 2126 00d8 2074696D 		.ascii	" timers/S\000"
 2126      6572732F 
 2126      5300
 2127 00e2 0000     		.space	2
 2128              	.LC15:
 2129 00e4 20627974 		.ascii	" bytes/S\000"
 2129      65732F53 
 2129      00
 2130 00ed 000000   		.space	3
 2131              	.LC16:
 2132 00f0 20746872 		.ascii	" threads/S\000"
 2132      65616473 
 2132      2F5300
 2133 00fb 00       		.space	1
 2134              	.LC17:
 2135 00fc 20637478 		.ascii	" ctxswc/S\000"
 2135      7377632F 
 2135      5300
 2136 0106 0000     		.space	2
 2137              	.LC18:
 2138 0108 20726573 		.ascii	" reschedules/S, \000"
 2138      63686564 
 2138      756C6573 
 2138      2F532C20 
 2138      00
 2139 0119 000000   		.space	3
 2140              	.LC19:
 2141 011c 206D7367 		.ascii	" msgs/S, \000"
ARM GAS  /var/folders/dt/0wfd0knj7gs46m8vwfzktm600000gn/T//ccQ7ZyKm.s 			page 40


 2141      732F532C 
 2141      2000
 2142 0126 0000     		.space	2
 2143              	.LC20:
 2144 0128 42656E63 		.ascii	"Benchmark, RAM footprint\000"
 2144      686D6172 
 2144      6B2C2052 
 2144      414D2066 
 2144      6F6F7470 
 2145 0141 000000   		.space	3
 2146              	.LC21:
 2147 0144 42656E63 		.ascii	"Benchmark, mutexes lock/unlock\000"
 2147      686D6172 
 2147      6B2C206D 
 2147      75746578 
 2147      6573206C 
 2148 0163 00       		.space	1
 2149              	.LC22:
 2150 0164 42656E63 		.ascii	"Benchmark, semaphores wait/signal\000"
 2150      686D6172 
 2150      6B2C2073 
 2150      656D6170 
 2150      686F7265 
 2151 0186 0000     		.space	2
 2152              	.LC23:
 2153 0188 42656E63 		.ascii	"Benchmark, virtual timers set/reset\000"
 2153      686D6172 
 2153      6B2C2076 
 2153      69727475 
 2153      616C2074 
 2154              	.LC24:
 2155 01ac 42656E63 		.ascii	"Benchmark, I/O Queues throughput\000"
 2155      686D6172 
 2155      6B2C2049 
 2155      2F4F2051 
 2155      75657565 
 2156 01cd 000000   		.space	3
 2157              	.LC25:
 2158 01d0 42656E63 		.ascii	"Benchmark, round robin context switching\000"
 2158      686D6172 
 2158      6B2C2072 
 2158      6F756E64 
 2158      20726F62 
 2159 01f9 000000   		.space	3
 2160              	.LC26:
 2161 01fc 42656E63 		.ascii	"Benchmark, mass reschedule, 5 threads\000"
 2161      686D6172 
 2161      6B2C206D 
 2161      61737320 
 2161      72657363 
 2162 0222 0000     		.space	2
 2163              	.LC27:
 2164 0224 42656E63 		.ascii	"Benchmark, threads, create only\000"
 2164      686D6172 
 2164      6B2C2074 
 2164      68726561 
 2164      64732C20 
ARM GAS  /var/folders/dt/0wfd0knj7gs46m8vwfzktm600000gn/T//ccQ7ZyKm.s 			page 41


 2165              	.LC28:
 2166 0244 42656E63 		.ascii	"Benchmark, threads, full cycle\000"
 2166      686D6172 
 2166      6B2C2074 
 2166      68726561 
 2166      64732C20 
 2167 0263 00       		.space	1
 2168              	.LC29:
 2169 0264 42656E63 		.ascii	"Benchmark, context switch\000"
 2169      686D6172 
 2169      6B2C2063 
 2169      6F6E7465 
 2169      78742073 
 2170 027e 0000     		.space	2
 2171              	.LC30:
 2172 0280 42656E63 		.ascii	"Benchmark, messages #3\000"
 2172      686D6172 
 2172      6B2C206D 
 2172      65737361 
 2172      67657320 
 2173 0297 00       		.space	1
 2174              	.LC31:
 2175 0298 42656E63 		.ascii	"Benchmark, messages #2\000"
 2175      686D6172 
 2175      6B2C206D 
 2175      65737361 
 2175      67657320 
 2176 02af 00       		.space	1
 2177              	.LC32:
 2178 02b0 42656E63 		.ascii	"Benchmark, messages #1\000"
 2178      686D6172 
 2178      6B2C206D 
 2178      65737361 
 2178      67657320 
 2179 02c7 00       		.section	.rodata.testbmk9,"a",%progbits
 2180              		.align	2
 2181              		.type	testbmk9, %object
 2182              		.size	testbmk9, 16
 2183              	testbmk9:
 2184 0000 AC010000 		.word	.LC24
 2185 0004 00000000 		.word	0
 2186 0008 00000000 		.word	0
 2187 000c 00000000 		.word	bmk9_execute
 2188              		.section	.bss.sem1,"aw",%nobits
 2189              		.align	2
 2190              		.set	.LANCHOR1,. + 0
 2191              		.type	sem1, %object
 2192              		.size	sem1, 12
 2193              	sem1:
 2194 0000 00000000 		.space	12
 2194      00000000 
 2194      00000000 
 2195              		.section	.bss.vt2.4933,"aw",%nobits
 2196              		.align	2
 2197              		.set	.LANCHOR3,. + 0
 2198              		.type	vt2.4933, %object
 2199              		.size	vt2.4933, 20
ARM GAS  /var/folders/dt/0wfd0knj7gs46m8vwfzktm600000gn/T//ccQ7ZyKm.s 			page 42


 2200              	vt2.4933:
 2201 0000 00000000 		.space	20
 2201      00000000 
 2201      00000000 
 2201      00000000 
 2201      00000000 
 2202              		.section	.rodata.testbmk1,"a",%progbits
 2203              		.align	2
 2204              		.type	testbmk1, %object
 2205              		.size	testbmk1, 16
 2206              	testbmk1:
 2207 0000 B0020000 		.word	.LC32
 2208 0004 00000000 		.word	0
 2209 0008 00000000 		.word	0
 2210 000c 00000000 		.word	bmk1_execute
 2211              		.section	.bss.ib.4919,"aw",%nobits
 2212              		.align	2
 2213              		.set	.LANCHOR5,. + 0
 2214              		.type	ib.4919, %object
 2215              		.size	ib.4919, 16
 2216              	ib.4919:
 2217 0000 00000000 		.space	16
 2217      00000000 
 2217      00000000 
 2217      00000000 
 2218              		.section	.rodata.testbmk12,"a",%progbits
 2219              		.align	2
 2220              		.type	testbmk12, %object
 2221              		.size	testbmk12, 16
 2222              	testbmk12:
 2223 0000 44010000 		.word	.LC21
 2224 0004 00000000 		.word	bmk12_setup
 2225 0008 00000000 		.word	0
 2226 000c 00000000 		.word	bmk12_execute
 2227              		.section	.bss.vt1.4932,"aw",%nobits
 2228              		.align	2
 2229              		.set	.LANCHOR2,. + 0
 2230              		.type	vt1.4932, %object
 2231              		.size	vt1.4932, 20
 2232              	vt1.4932:
 2233 0000 00000000 		.space	20
 2233      00000000 
 2233      00000000 
 2233      00000000 
 2233      00000000 
 2234              		.section	.rodata.testbmk5,"a",%progbits
 2235              		.align	2
 2236              		.type	testbmk5, %object
 2237              		.size	testbmk5, 16
 2238              	testbmk5:
 2239 0000 44020000 		.word	.LC28
 2240 0004 00000000 		.word	0
 2241 0008 00000000 		.word	0
 2242 000c 00000000 		.word	bmk5_execute
 2243              		.section	.rodata.testbmk6,"a",%progbits
 2244              		.align	2
 2245              		.type	testbmk6, %object
ARM GAS  /var/folders/dt/0wfd0knj7gs46m8vwfzktm600000gn/T//ccQ7ZyKm.s 			page 43


 2246              		.size	testbmk6, 16
 2247              	testbmk6:
 2248 0000 24020000 		.word	.LC27
 2249 0004 00000000 		.word	0
 2250 0008 00000000 		.word	0
 2251 000c 00000000 		.word	bmk6_execute
 2252              		.section	.rodata.testbmk7,"a",%progbits
 2253              		.align	2
 2254              		.type	testbmk7, %object
 2255              		.size	testbmk7, 16
 2256              	testbmk7:
 2257 0000 FC010000 		.word	.LC26
 2258 0004 00000000 		.word	bmk7_setup
 2259 0008 00000000 		.word	0
 2260 000c 00000000 		.word	bmk7_execute
 2261              		.text
 2262              	.Letext0:
 2263              		.file 2 "/Users/toxygen/Applications/yagarto-4.7.2/bin/../lib/gcc/arm-none-eabi/4.7.2/include/stdd
 2264              		.file 3 "/Users/toxygen/Applications/yagarto-4.7.2/bin/../lib/gcc/arm-none-eabi/4.7.2/../../../../
 2265              		.file 4 "../../os/ports/GCC/ARMCMx/chtypes.h"
 2266              		.file 5 "../../os/kernel/include/chlists.h"
 2267              		.file 6 "../../os/kernel/include/chthreads.h"
 2268              		.file 7 "../../os/ports/GCC/ARMCMx/chcore_v7m.h"
 2269              		.file 8 "../../os/kernel/include/chvt.h"
 2270              		.file 9 "../../os/kernel/include/chschd.h"
 2271              		.file 10 "../../os/kernel/include/chsem.h"
 2272              		.file 11 "../../os/kernel/include/chmtx.h"
 2273              		.file 12 "../../os/kernel/include/chqueues.h"
 2274              		.file 13 "../../test/test.h"
 2275              		.file 14 "../../os/kernel/include/chmsg.h"