ARM GAS  /var/folders/dt/0wfd0knj7gs46m8vwfzktm600000gn/T//ccftso6a.s 			page 1


   1              		.syntax unified
   2              		.cpu cortex-m3
   3              		.fpu softvfp
   4              		.eabi_attribute 20, 1
   5              		.eabi_attribute 21, 1
   6              		.eabi_attribute 23, 3
   7              		.eabi_attribute 24, 1
   8              		.eabi_attribute 25, 1
   9              		.eabi_attribute 26, 1
  10              		.eabi_attribute 30, 2
  11              		.eabi_attribute 34, 1
  12              		.eabi_attribute 18, 4
  13              		.thumb
  14              		.file	"chcore_v7m.c"
  15              		.text
  16              	.Ltext0:
  17              		.cfi_sections	.debug_frame
  18              		.section	.text._port_switch_from_isr,"ax",%progbits
  19              		.align	2
  20              		.p2align 4,,15
  21              		.global	_port_switch_from_isr
  22              		.thumb
  23              		.thumb_func
  24              		.type	_port_switch_from_isr, %function
  25              	_port_switch_from_isr:
  26              	.LFB11:
  27              		.file 1 "../../os/ports/GCC/ARMCMx/chcore_v7m.c"
  28              		.loc 1 207 0
  29              		.cfi_startproc
  30              		@ Naked Function: prologue and epilogue provided by programmer.
  31              		@ args = 0, pretend = 0, frame = 0
  32              		@ frame_needed = 0, uses_anonymous_args = 0
  33              		.loc 1 210 0
  34 0000 FFF7FEFF 		bl	chSchDoReschedule
  35              	.LVL0:
  36              		.loc 1 212 0
  37              	@ 212 "../../os/ports/GCC/ARMCMx/chcore_v7m.c" 1
  38              		_port_exit_from_isr:
  39              	@ 0 "" 2
  40              		.loc 1 214 0
  41              	@ 214 "../../os/ports/GCC/ARMCMx/chcore_v7m.c" 1
  42 0004 00DF     		svc     #0
  43              	@ 0 "" 2
  44              		.loc 1 221 0
  45              		.thumb
  46              		.cfi_endproc
  47              	.LFE11:
  48              		.size	_port_switch_from_isr, .-_port_switch_from_isr
  49 0006 00BFAFF3 		.section	.text.SVCallVector,"ax",%progbits
  49      0080AFF3 
  49      0080
  50              		.align	2
  51              		.p2align 4,,15
  52              		.global	SVCallVector
  53              		.thumb
  54              		.thumb_func
  55              		.type	SVCallVector, %function
ARM GAS  /var/folders/dt/0wfd0knj7gs46m8vwfzktm600000gn/T//ccftso6a.s 			page 2


  56              	SVCallVector:
  57              	.LFB8:
  58              		.loc 1 65 0
  59              		.cfi_startproc
  60              		@ args = 0, pretend = 0, frame = 0
  61              		@ frame_needed = 0, uses_anonymous_args = 0
  62              		@ link register save eliminated.
  63              		.loc 1 69 0
  64              	@ 69 "../../os/ports/GCC/ARMCMx/chcore_v7m.c" 1
  65 0000 EFF30983 		mrs     r3, PSP
  66              	@ 0 "" 2
  67              	.LVL1:
  68              		.loc 1 73 0
  69              		.thumb
  70 0004 2033     		adds	r3, r3, #32
  71              	.LVL2:
  72              		.loc 1 80 0
  73              	@ 80 "../../os/ports/GCC/ARMCMx/chcore_v7m.c" 1
  74 0006 83F30988 		msr     PSP, r3
  75              	@ 0 "" 2
  76              		.thumb
  77              	.LBB2:
  78              		.loc 1 81 0
  79 000a 0023     		movs	r3, #0
  80              	.LVL3:
  81              	@ 81 "../../os/ports/GCC/ARMCMx/chcore_v7m.c" 1
  82 000c 83F31188 		msr     BASEPRI, r3
  83              	@ 0 "" 2
  84              	.LVL4:
  85              		.thumb
  86 0010 7047     		bx	lr
  87              	.LBE2:
  88              		.cfi_endproc
  89              	.LFE8:
  90              		.size	SVCallVector, .-SVCallVector
  91 0012 00BFAFF3 		.section	.text._port_init,"ax",%progbits
  91      0080AFF3 
  91      0080AFF3 
  91      0080
  92              		.align	2
  93              		.p2align 4,,15
  94              		.global	_port_init
  95              		.thumb
  96              		.thumb_func
  97              		.type	_port_init, %function
  98              	_port_init:
  99              	.LFB9:
 100              		.loc 1 118 0
 101              		.cfi_startproc
 102              		@ args = 0, pretend = 0, frame = 0
 103              		@ frame_needed = 0, uses_anonymous_args = 0
 104 0000 08B5     		push	{r3, lr}
 105              	.LCFI0:
 106              		.cfi_def_cfa_offset 8
 107              		.cfi_offset 3, -8
 108              		.cfi_offset 14, -4
 109              		.loc 1 122 0
ARM GAS  /var/folders/dt/0wfd0knj7gs46m8vwfzktm600000gn/T//ccftso6a.s 			page 3


 110 0002 0022     		movs	r2, #0
 111              		.loc 1 121 0
 112 0004 4FF46D43 		mov	r3, #60672
 113 0008 CEF20003 		movt	r3, 57344
 114              		.loc 1 122 0
 115 000c C0F2FA52 		movt	r2, 1530
 116              		.loc 1 121 0
 117 0010 0021     		movs	r1, #0
 118 0012 9960     		str	r1, [r3, #8]
 119              		.loc 1 125 0
 120 0014 0720     		movs	r0, #7
 121 0016 1021     		movs	r1, #16
 122              		.loc 1 122 0
 123 0018 DA60     		str	r2, [r3, #12]
 124              		.loc 1 125 0
 125 001a FFF7FEFF 		bl	nvicSetSystemHandlerPriority
 126              	.LVL5:
 127              		.loc 1 127 0
 128 001e 0A20     		movs	r0, #10
 129 0020 4FF40071 		mov	r1, #512
 130 0024 FFF7FEFF 		bl	nvicSetSystemHandlerPriority
 131              	.LVL6:
 132              		.loc 1 129 0
 133 0028 0B20     		movs	r0, #11
 134 002a 8021     		movs	r1, #128
 135              		.loc 1 131 0
 136 002c BDE80840 		pop	{r3, lr}
 137              		.loc 1 129 0
 138 0030 FFF7FEBF 		b	nvicSetSystemHandlerPriority
 139              	.LVL7:
 140              		.cfi_endproc
 141              	.LFE9:
 142              		.size	_port_init, .-_port_init
 143 0034 AFF30080 		.section	.text._port_irq_epilogue,"ax",%progbits
 143      AFF30080 
 143      AFF30080 
 144              		.align	2
 145              		.p2align 4,,15
 146              		.global	_port_irq_epilogue
 147              		.thumb
 148              		.thumb_func
 149              		.type	_port_irq_epilogue, %function
 150              	_port_irq_epilogue:
 151              	.LFB10:
 152              		.loc 1 148 0
 153              		.cfi_startproc
 154              		@ args = 0, pretend = 0, frame = 0
 155              		@ frame_needed = 0, uses_anonymous_args = 0
 156              		@ link register save eliminated.
 157              	.LBB3:
 158              		.loc 1 150 0
 159 0000 2023     		movs	r3, #32
 160              	.LVL8:
 161              	@ 150 "../../os/ports/GCC/ARMCMx/chcore_v7m.c" 1
 162 0002 83F31188 		msr     BASEPRI, r3
 163              	@ 0 "" 2
 164              	.LVL9:
ARM GAS  /var/folders/dt/0wfd0knj7gs46m8vwfzktm600000gn/T//ccftso6a.s 			page 4


 165              		.thumb
 166              	.LBE3:
 167              		.loc 1 151 0
 168 0006 4FF46D43 		mov	r3, #60672
 169              	.LVL10:
 170 000a CEF20003 		movt	r3, 57344
 171 000e 5B68     		ldr	r3, [r3, #4]
 172 0010 13F40063 		ands	r3, r3, #2048
 173 0014 19D0     		beq	.L5
 174              	.LBB4:
 175              		.loc 1 155 0
 176              	@ 155 "../../os/ports/GCC/ARMCMx/chcore_v7m.c" 1
 177 0016 EFF30983 		mrs     r3, PSP
 178              	@ 0 "" 2
 179              	.LVL11:
 180              		.loc 1 159 0
 181              		.thumb
 182 001a A3F12002 		sub	r2, r3, #32
 183              	.LVL12:
 184              		.loc 1 160 0
 185              	@ 160 "../../os/ports/GCC/ARMCMx/chcore_v7m.c" 1
 186 001e 82F30988 		msr     PSP, r2
 187              	@ 0 "" 2
 188              		.loc 1 165 0
 189              		.thumb
 190 0022 124A     		ldr	r2, .L12
 191              	.LVL13:
 192              		.loc 1 161 0
 193 0024 4FF08070 		mov	r0, #16777216
 194              		.loc 1 165 0
 195 0028 9169     		ldr	r1, [r2, #24]
 196              		.loc 1 161 0
 197 002a 43F8040C 		str	r0, [r3, #-4]
 198              		.loc 1 165 0
 199 002e 79B1     		cbz	r1, .L6
 200              		.loc 1 165 0 is_stmt 0 discriminator 1
 201 0030 1168     		ldr	r1, [r2, #0]
 202 0032 D269     		ldr	r2, [r2, #28]
 203 0034 8968     		ldr	r1, [r1, #8]
 204 0036 9268     		ldr	r2, [r2, #8]
 205 0038 9142     		cmp	r1, r2
 206 003a 94BF     		ite	ls
 207 003c 0022     		movls	r2, #0
 208 003e 0122     		movhi	r2, #1
 209 0040 82B1     		cbz	r2, .L8
 210              	.L11:
 211              		.loc 1 167 0 is_stmt 1
 212 0042 0B4A     		ldr	r2, .L12+4
 213 0044 43F8082C 		str	r2, [r3, #-8]
 214 0048 7047     		bx	lr
 215              	.LVL14:
 216              	.L5:
 217              	.LBE4:
 218              	.LBB5:
 219              		.loc 1 197 0
 220              	@ 197 "../../os/ports/GCC/ARMCMx/chcore_v7m.c" 1
 221 004a 83F31188 		msr     BASEPRI, r3
ARM GAS  /var/folders/dt/0wfd0knj7gs46m8vwfzktm600000gn/T//ccftso6a.s 			page 5


 222              	@ 0 "" 2
 223              	.LVL15:
 224              		.thumb
 225 004e 7047     		bx	lr
 226              	.LVL16:
 227              	.L6:
 228              	.LBE5:
 229              	.LBB6:
 230              		.loc 1 165 0 discriminator 2
 231 0050 1168     		ldr	r1, [r2, #0]
 232 0052 D269     		ldr	r2, [r2, #28]
 233 0054 8968     		ldr	r1, [r1, #8]
 234 0056 9268     		ldr	r2, [r2, #8]
 235 0058 9142     		cmp	r1, r2
 236 005a 34BF     		ite	cc
 237 005c 0022     		movcc	r2, #0
 238 005e 0122     		movcs	r2, #1
 239 0060 002A     		cmp	r2, #0
 240 0062 EED1     		bne	.L11
 241              	.L8:
 242              		.loc 1 176 0
 243 0064 034A     		ldr	r2, .L12+8
 244 0066 43F8082C 		str	r2, [r3, #-8]
 245 006a 7047     		bx	lr
 246              	.L13:
 247              		.align	2
 248              	.L12:
 249 006c 00000000 		.word	rlist
 250 0070 00000000 		.word	_port_switch_from_isr
 251 0074 04000000 		.word	_port_exit_from_isr
 252              	.LBE6:
 253              		.cfi_endproc
 254              	.LFE10:
 255              		.size	_port_irq_epilogue, .-_port_irq_epilogue
 256 0078 AFF30080 		.section	.text.SysTickVector,"ax",%progbits
 256      AFF30080 
 257              		.align	2
 258              		.p2align 4,,15
 259              		.global	SysTickVector
 260              		.thumb
 261              		.thumb_func
 262              		.type	SysTickVector, %function
 263              	SysTickVector:
 264              	.LFB7:
 265              		.loc 1 47 0
 266              		.cfi_startproc
 267              		@ args = 0, pretend = 0, frame = 0
 268              		@ frame_needed = 0, uses_anonymous_args = 0
 269 0000 08B5     		push	{r3, lr}
 270              	.LCFI1:
 271              		.cfi_def_cfa_offset 8
 272              		.cfi_offset 3, -8
 273              		.cfi_offset 14, -4
 274              	.LBB7:
 275              		.loc 1 51 0
 276 0002 2023     		movs	r3, #32
 277              	.LVL17:
ARM GAS  /var/folders/dt/0wfd0knj7gs46m8vwfzktm600000gn/T//ccftso6a.s 			page 6


 278              	@ 51 "../../os/ports/GCC/ARMCMx/chcore_v7m.c" 1
 279 0004 83F31188 		msr     BASEPRI, r3
 280              	@ 0 "" 2
 281              	.LVL18:
 282              		.thumb
 283              	.LBE7:
 284              		.loc 1 52 0
 285 0008 FFF7FEFF 		bl	chSysTimerHandlerI
 286              	.LVL19:
 287              	.LBB8:
 288              		.loc 1 53 0
 289 000c 0023     		movs	r3, #0
 290              	.LVL20:
 291              	@ 53 "../../os/ports/GCC/ARMCMx/chcore_v7m.c" 1
 292 000e 83F31188 		msr     BASEPRI, r3
 293              	@ 0 "" 2
 294              	.LVL21:
 295              		.thumb
 296              	.LBE8:
 297              		.loc 1 56 0
 298 0012 BDE80840 		pop	{r3, lr}
 299              		.loc 1 55 0
 300 0016 FFF7FEBF 		b	_port_irq_epilogue
 301              	.LVL22:
 302              		.cfi_endproc
 303              	.LFE7:
 304              		.size	SysTickVector, .-SysTickVector
 305 001a 00BFAFF3 		.section	.text._port_switch,"ax",%progbits
 305      0080
 306              		.align	2
 307              		.p2align 4,,15
 308              		.global	_port_switch
 309              		.thumb
 310              		.thumb_func
 311              		.type	_port_switch, %function
 312              	_port_switch:
 313              	.LFB12:
 314              		.loc 1 236 0
 315              		.cfi_startproc
 316              		@ Naked Function: prologue and epilogue provided by programmer.
 317              		@ args = 0, pretend = 0, frame = 0
 318              		@ frame_needed = 0, uses_anonymous_args = 0
 319              	.LVL23:
 320              		.loc 1 238 0
 321              	@ 238 "../../os/ports/GCC/ARMCMx/chcore_v7m.c" 1
 322 0000 2DE9F04F 		push    {r4, r5, r6, r7, r8, r9, r10, r11, lr}
 323              	@ 0 "" 2
 324              		.loc 1 244 0
 325              	@ 244 "../../os/ports/GCC/ARMCMx/chcore_v7m.c" 1
 326 0004 C1F80CD0 		str     sp, [r1, #12]                          
 327 0008 D0F80CD0 		ldr     sp, [r0, #12]
 328              	@ 0 "" 2
 329              		.loc 1 250 0
 330              	@ 250 "../../os/ports/GCC/ARMCMx/chcore_v7m.c" 1
 331 000c BDE8F08F 		pop     {r4, r5, r6, r7, r8, r9, r10, r11, pc}
 332              	@ 0 "" 2
 333              		.loc 1 252 0
ARM GAS  /var/folders/dt/0wfd0knj7gs46m8vwfzktm600000gn/T//ccftso6a.s 			page 7


 334              		.thumb
 335              		.cfi_endproc
 336              	.LFE12:
 337              		.size	_port_switch, .-_port_switch
 338              		.section	.text._port_thread_start,"ax",%progbits
 339              		.align	2
 340              		.p2align 4,,15
 341              		.global	_port_thread_start
 342              		.thumb
 343              		.thumb_func
 344              		.type	_port_thread_start, %function
 345              	_port_thread_start:
 346              	.LFB13:
 347              		.loc 1 259 0
 348              		.cfi_startproc
 349              		@ args = 0, pretend = 0, frame = 0
 350              		@ frame_needed = 0, uses_anonymous_args = 0
 351              		@ link register save eliminated.
 352              	.LBB9:
 353              		.loc 1 261 0
 354 0000 0023     		movs	r3, #0
 355              	.LVL24:
 356              	@ 261 "../../os/ports/GCC/ARMCMx/chcore_v7m.c" 1
 357 0002 83F31188 		msr     BASEPRI, r3
 358              	@ 0 "" 2
 359              	.LVL25:
 360              		.thumb
 361              	.LBE9:
 362              		.loc 1 262 0
 363              	@ 262 "../../os/ports/GCC/ARMCMx/chcore_v7m.c" 1
 364 0006 2846     		mov     r0, r5                                 
 365 0008 A047     		blx     r4                                     
 366 000a FFF7FEFF 		bl      chThdExit
 367              	@ 0 "" 2
 368              		.thumb
 369 000e 7047     		bx	lr
 370              		.cfi_endproc
 371              	.LFE13:
 372              		.size	_port_thread_start, .-_port_thread_start
 373              		.text
 374              	.Letext0:
 375              		.file 2 "/Users/toxygen/Applications/yagarto-4.7.2/bin/../lib/gcc/arm-none-eabi/4.7.2/../../../../
 376              		.file 3 "../../os/ports/GCC/ARMCMx/chtypes.h"
 377              		.file 4 "../../os/kernel/include/chlists.h"
 378              		.file 5 "../../os/kernel/include/chthreads.h"
 379              		.file 6 "../../os/ports/GCC/ARMCMx/chcore_v7m.h"
 380              		.file 7 "../../os/ports/common/ARMCMx/nvic.h"
 381              		.file 8 "../../os/kernel/include/chschd.h"
 382              		.file 9 "../../os/kernel/include/chmtx.h"
 383              		.file 10 "../../os/kernel/include/chsys.h"