ARM GAS  /var/folders/dt/0wfd0knj7gs46m8vwfzktm600000gn/T//ccm4MCQp.s 			page 1


   1              		.syntax unified
   2              		.cpu cortex-m3
   3              		.fpu softvfp
   4              		.eabi_attribute 20, 1
   5              		.eabi_attribute 21, 1
   6              		.eabi_attribute 23, 3
   7              		.eabi_attribute 24, 1
   8              		.eabi_attribute 25, 1
   9              		.eabi_attribute 26, 1
  10              		.eabi_attribute 30, 2
  11              		.eabi_attribute 34, 1
  12              		.eabi_attribute 18, 4
  13              		.thumb
  14              		.file	"chcond.c"
  15              		.text
  16              	.Ltext0:
  17              		.cfi_sections	.debug_frame
  18              		.section	.text.chCondInit,"ax",%progbits
  19              		.align	2
  20              		.p2align 4,,15
  21              		.global	chCondInit
  22              		.thumb
  23              		.thumb_func
  24              		.type	chCondInit, %function
  25              	chCondInit:
  26              	.LFB7:
  27              		.file 1 "../../os/kernel/src/chcond.c"
  28              		.loc 1 59 0
  29              		.cfi_startproc
  30              		@ args = 0, pretend = 0, frame = 0
  31              		@ frame_needed = 0, uses_anonymous_args = 0
  32              		@ link register save eliminated.
  33              	.LVL0:
  34              		.loc 1 63 0
  35 0000 4060     		str	r0, [r0, #4]
  36 0002 0060     		str	r0, [r0, #0]
  37 0004 7047     		bx	lr
  38              		.cfi_endproc
  39              	.LFE7:
  40              		.size	chCondInit, .-chCondInit
  41 0006 00BFAFF3 		.section	.text.chCondSignal,"ax",%progbits
  41      0080AFF3 
  41      0080
  42              		.align	2
  43              		.p2align 4,,15
  44              		.global	chCondSignal
  45              		.thumb
  46              		.thumb_func
  47              		.type	chCondSignal, %function
  48              	chCondSignal:
  49              	.LFB8:
  50              		.loc 1 73 0
  51              		.cfi_startproc
  52              		@ args = 0, pretend = 0, frame = 0
  53              		@ frame_needed = 0, uses_anonymous_args = 0
  54              	.LVL1:
  55 0000 08B5     		push	{r3, lr}
ARM GAS  /var/folders/dt/0wfd0knj7gs46m8vwfzktm600000gn/T//ccm4MCQp.s 			page 2


  56              	.LCFI0:
  57              		.cfi_def_cfa_offset 8
  58              		.cfi_offset 3, -8
  59              		.cfi_offset 14, -4
  60              		.loc 1 73 0
  61 0002 0246     		mov	r2, r0
  62              	.LBB14:
  63              		.loc 1 77 0
  64 0004 2023     		movs	r3, #32
  65              	.LVL2:
  66              	@ 77 "../../os/kernel/src/chcond.c" 1
  67 0006 83F31188 		msr     BASEPRI, r3
  68              	@ 0 "" 2
  69              	.LVL3:
  70              		.thumb
  71              	.LBE14:
  72              		.loc 1 78 0
  73 000a 0068     		ldr	r0, [r0, #0]
  74              	.LVL4:
  75 000c 9042     		cmp	r0, r2
  76 000e 05D0     		beq	.L3
  77              	.LVL5:
  78              	.LBB15:
  79              	.LBB16:
  80              		.file 2 "../../os/kernel/include/chinline.h"
  81              		.loc 2 62 0
  82 0010 0368     		ldr	r3, [r0, #0]
  83              	.LVL6:
  84              	.LBE16:
  85              	.LBE15:
  86              		.loc 1 79 0
  87 0012 0021     		movs	r1, #0
  88              	.LBB18:
  89              	.LBB17:
  90              		.loc 2 62 0
  91 0014 1360     		str	r3, [r2, #0]
  92 0016 5A60     		str	r2, [r3, #4]
  93              	.LBE17:
  94              	.LBE18:
  95              		.loc 1 79 0
  96 0018 FFF7FEFF 		bl	chSchWakeupS
  97              	.LVL7:
  98              	.L3:
  99              	.LBB19:
 100              		.loc 1 80 0
 101 001c 0023     		movs	r3, #0
 102              	.LVL8:
 103              	@ 80 "../../os/kernel/src/chcond.c" 1
 104 001e 83F31188 		msr     BASEPRI, r3
 105              	@ 0 "" 2
 106              	.LVL9:
 107              		.thumb
 108 0022 08BD     		pop	{r3, pc}
 109              	.LBE19:
 110              		.cfi_endproc
 111              	.LFE8:
 112              		.size	chCondSignal, .-chCondSignal
ARM GAS  /var/folders/dt/0wfd0knj7gs46m8vwfzktm600000gn/T//ccm4MCQp.s 			page 3


 113 0024 AFF30080 		.section	.text.chCondSignalI,"ax",%progbits
 113      AFF30080 
 113      AFF30080 
 114              		.align	2
 115              		.p2align 4,,15
 116              		.global	chCondSignalI
 117              		.thumb
 118              		.thumb_func
 119              		.type	chCondSignalI, %function
 120              	chCondSignalI:
 121              	.LFB9:
 122              		.loc 1 94 0
 123              		.cfi_startproc
 124              		@ args = 0, pretend = 0, frame = 0
 125              		@ frame_needed = 0, uses_anonymous_args = 0
 126              	.LVL10:
 127 0000 08B5     		push	{r3, lr}
 128              	.LCFI1:
 129              		.cfi_def_cfa_offset 8
 130              		.cfi_offset 3, -8
 131              		.cfi_offset 14, -4
 132              		.loc 1 94 0
 133 0002 0346     		mov	r3, r0
 134              		.loc 1 99 0
 135 0004 0068     		ldr	r0, [r0, #0]
 136              	.LVL11:
 137 0006 9842     		cmp	r0, r3
 138 0008 06D0     		beq	.L5
 139              	.LVL12:
 140              	.LBB20:
 141              	.LBB21:
 142              		.loc 2 62 0
 143 000a 0268     		ldr	r2, [r0, #0]
 144 000c 1A60     		str	r2, [r3, #0]
 145 000e 5360     		str	r3, [r2, #4]
 146              	.LBE21:
 147              	.LBE20:
 148              		.loc 1 100 0
 149 0010 FFF7FEFF 		bl	chSchReadyI
 150              	.LVL13:
 151 0014 0023     		movs	r3, #0
 152 0016 4362     		str	r3, [r0, #36]
 153              	.LVL14:
 154              	.L5:
 155 0018 08BD     		pop	{r3, pc}
 156              		.cfi_endproc
 157              	.LFE9:
 158              		.size	chCondSignalI, .-chCondSignalI
 159 001a 00BFAFF3 		.section	.text.chCondBroadcastI,"ax",%progbits
 159      0080
 160              		.align	2
 161              		.p2align 4,,15
 162              		.global	chCondBroadcastI
 163              		.thumb
 164              		.thumb_func
 165              		.type	chCondBroadcastI, %function
 166              	chCondBroadcastI:
ARM GAS  /var/folders/dt/0wfd0knj7gs46m8vwfzktm600000gn/T//ccm4MCQp.s 			page 4


 167              	.LFB11:
 168              		.loc 1 129 0
 169              		.cfi_startproc
 170              		@ args = 0, pretend = 0, frame = 0
 171              		@ frame_needed = 0, uses_anonymous_args = 0
 172              	.LVL15:
 173 0000 38B5     		push	{r3, r4, r5, lr}
 174              	.LCFI2:
 175              		.cfi_def_cfa_offset 16
 176              		.cfi_offset 3, -16
 177              		.cfi_offset 4, -12
 178              		.cfi_offset 5, -8
 179              		.cfi_offset 14, -4
 180              		.loc 1 129 0
 181 0002 0446     		mov	r4, r0
 182              		.loc 1 137 0
 183 0004 0068     		ldr	r0, [r0, #0]
 184              	.LVL16:
 185 0006 A042     		cmp	r0, r4
 186 0008 0AD0     		beq	.L7
 187              		.loc 1 138 0
 188 000a 6FF00105 		mvn	r5, #1
 189              	.L11:
 190              	.LVL17:
 191              	.LBB22:
 192              	.LBB23:
 193              		.loc 2 62 0
 194 000e 0368     		ldr	r3, [r0, #0]
 195 0010 2360     		str	r3, [r4, #0]
 196 0012 5C60     		str	r4, [r3, #4]
 197              	.LBE23:
 198              	.LBE22:
 199              		.loc 1 138 0
 200 0014 FFF7FEFF 		bl	chSchReadyI
 201              	.LVL18:
 202 0018 4562     		str	r5, [r0, #36]
 203              		.loc 1 137 0
 204 001a 2068     		ldr	r0, [r4, #0]
 205 001c A042     		cmp	r0, r4
 206 001e F6D1     		bne	.L11
 207              	.LVL19:
 208              	.L7:
 209 0020 38BD     		pop	{r3, r4, r5, pc}
 210              		.cfi_endproc
 211              	.LFE11:
 212              		.size	chCondBroadcastI, .-chCondBroadcastI
 213 0022 00BFAFF3 		.section	.text.chCondBroadcast,"ax",%progbits
 213      0080AFF3 
 213      0080AFF3 
 213      0080
 214              		.align	2
 215              		.p2align 4,,15
 216              		.global	chCondBroadcast
 217              		.thumb
 218              		.thumb_func
 219              		.type	chCondBroadcast, %function
 220              	chCondBroadcast:
ARM GAS  /var/folders/dt/0wfd0knj7gs46m8vwfzktm600000gn/T//ccm4MCQp.s 			page 5


 221              	.LFB10:
 222              		.loc 1 110 0
 223              		.cfi_startproc
 224              		@ args = 0, pretend = 0, frame = 0
 225              		@ frame_needed = 0, uses_anonymous_args = 0
 226              	.LVL20:
 227 0000 08B5     		push	{r3, lr}
 228              	.LCFI3:
 229              		.cfi_def_cfa_offset 8
 230              		.cfi_offset 3, -8
 231              		.cfi_offset 14, -4
 232              	.LBB24:
 233              		.loc 1 112 0
 234 0002 2023     		movs	r3, #32
 235              	.LVL21:
 236              	@ 112 "../../os/kernel/src/chcond.c" 1
 237 0004 83F31188 		msr     BASEPRI, r3
 238              	@ 0 "" 2
 239              	.LVL22:
 240              		.thumb
 241              	.LBE24:
 242              		.loc 1 113 0
 243 0008 FFF7FEFF 		bl	chCondBroadcastI
 244              	.LVL23:
 245              		.loc 1 114 0
 246 000c FFF7FEFF 		bl	chSchRescheduleS
 247              	.LVL24:
 248              	.LBB25:
 249              		.loc 1 115 0
 250 0010 0023     		movs	r3, #0
 251              	.LVL25:
 252              	@ 115 "../../os/kernel/src/chcond.c" 1
 253 0012 83F31188 		msr     BASEPRI, r3
 254              	@ 0 "" 2
 255              	.LVL26:
 256              		.thumb
 257 0016 08BD     		pop	{r3, pc}
 258              	.LBE25:
 259              		.cfi_endproc
 260              	.LFE10:
 261              		.size	chCondBroadcast, .-chCondBroadcast
 262 0018 AFF30080 		.section	.text.chCondWaitS,"ax",%progbits
 262      AFF30080 
 263              		.align	2
 264              		.p2align 4,,15
 265              		.global	chCondWaitS
 266              		.thumb
 267              		.thumb_func
 268              		.type	chCondWaitS, %function
 269              	chCondWaitS:
 270              	.LFB13:
 271              		.loc 1 184 0
 272              		.cfi_startproc
 273              		@ args = 0, pretend = 0, frame = 0
 274              		@ frame_needed = 0, uses_anonymous_args = 0
 275              	.LVL27:
 276 0000 F8B5     		push	{r3, r4, r5, r6, r7, lr}
ARM GAS  /var/folders/dt/0wfd0knj7gs46m8vwfzktm600000gn/T//ccm4MCQp.s 			page 6


 277              	.LCFI4:
 278              		.cfi_def_cfa_offset 24
 279              		.cfi_offset 3, -24
 280              		.cfi_offset 4, -20
 281              		.cfi_offset 5, -16
 282              		.cfi_offset 6, -12
 283              		.cfi_offset 7, -8
 284              		.cfi_offset 14, -4
 285              		.loc 1 185 0
 286 0002 104B     		ldr	r3, .L22
 287              		.loc 1 184 0
 288 0004 0546     		mov	r5, r0
 289              		.loc 1 185 0
 290 0006 DC69     		ldr	r4, [r3, #28]
 291              	.LVL28:
 292              		.loc 1 195 0
 293 0008 FFF7FEFF 		bl	chMtxUnlockS
 294              	.LVL29:
 295              		.loc 1 197 0
 296 000c 2E46     		mov	r6, r5
 297              		.loc 1 195 0
 298 000e 0746     		mov	r7, r0
 299              	.LVL30:
 300              		.loc 1 196 0
 301 0010 6562     		str	r5, [r4, #36]
 302              		.loc 2 43 0
 303 0012 2B46     		mov	r3, r5
 304 0014 03E0     		b	.L16
 305              	.LVL31:
 306              	.L21:
 307              	.LBB26:
 308              	.LBB27:
 309              		.loc 2 46 0
 310 0016 9968     		ldr	r1, [r3, #8]
 311 0018 A268     		ldr	r2, [r4, #8]
 312 001a 9142     		cmp	r1, r2
 313 001c 10D3     		bcc	.L20
 314              	.L16:
 315              		.loc 2 45 0
 316 001e 1B68     		ldr	r3, [r3, #0]
 317              	.LVL32:
 318              		.loc 2 46 0
 319 0020 9D42     		cmp	r5, r3
 320 0022 F8D1     		bne	.L21
 321              	.L17:
 322              		.loc 2 48 0
 323 0024 7368     		ldr	r3, [r6, #4]
 324              	.LVL33:
 325              		.loc 2 47 0
 326 0026 2660     		str	r6, [r4, #0]
 327              		.loc 2 48 0
 328 0028 6360     		str	r3, [r4, #4]
 329              		.loc 2 49 0
 330 002a 1C60     		str	r4, [r3, #0]
 331 002c 7460     		str	r4, [r6, #4]
 332              	.LBE27:
 333              	.LBE26:
ARM GAS  /var/folders/dt/0wfd0knj7gs46m8vwfzktm600000gn/T//ccm4MCQp.s 			page 7


 334              		.loc 1 198 0
 335 002e 0520     		movs	r0, #5
 336              	.LVL34:
 337 0030 FFF7FEFF 		bl	chSchGoSleepS
 338              	.LVL35:
 339              		.loc 1 199 0
 340 0034 646A     		ldr	r4, [r4, #36]
 341              	.LVL36:
 342              		.loc 1 200 0
 343 0036 3846     		mov	r0, r7
 344 0038 FFF7FEFF 		bl	chMtxLockS
 345              	.LVL37:
 346              		.loc 1 202 0
 347 003c 2046     		mov	r0, r4
 348 003e F8BD     		pop	{r3, r4, r5, r6, r7, pc}
 349              	.LVL38:
 350              	.L20:
 351              	.LBB29:
 352              	.LBB28:
 353              		.loc 2 46 0
 354 0040 1E46     		mov	r6, r3
 355 0042 EFE7     		b	.L17
 356              	.L23:
 357              		.align	2
 358              	.L22:
 359 0044 00000000 		.word	rlist
 360              	.LBE28:
 361              	.LBE29:
 362              		.cfi_endproc
 363              	.LFE13:
 364              		.size	chCondWaitS, .-chCondWaitS
 365 0048 AFF30080 		.section	.text.chCondWait,"ax",%progbits
 365      AFF30080 
 366              		.align	2
 367              		.p2align 4,,15
 368              		.global	chCondWait
 369              		.thumb
 370              		.thumb_func
 371              		.type	chCondWait, %function
 372              	chCondWait:
 373              	.LFB12:
 374              		.loc 1 158 0
 375              		.cfi_startproc
 376              		@ args = 0, pretend = 0, frame = 0
 377              		@ frame_needed = 0, uses_anonymous_args = 0
 378              	.LVL39:
 379 0000 08B5     		push	{r3, lr}
 380              	.LCFI5:
 381              		.cfi_def_cfa_offset 8
 382              		.cfi_offset 3, -8
 383              		.cfi_offset 14, -4
 384              	.LBB30:
 385              		.loc 1 161 0
 386 0002 2023     		movs	r3, #32
 387              	.LVL40:
 388              	@ 161 "../../os/kernel/src/chcond.c" 1
 389 0004 83F31188 		msr     BASEPRI, r3
ARM GAS  /var/folders/dt/0wfd0knj7gs46m8vwfzktm600000gn/T//ccm4MCQp.s 			page 8


 390              	@ 0 "" 2
 391              	.LVL41:
 392              		.thumb
 393              	.LBE30:
 394              		.loc 1 162 0
 395 0008 FFF7FEFF 		bl	chCondWaitS
 396              	.LVL42:
 397              	.LBB31:
 398              		.loc 1 163 0
 399 000c 0023     		movs	r3, #0
 400              	.LVL43:
 401              	@ 163 "../../os/kernel/src/chcond.c" 1
 402 000e 83F31188 		msr     BASEPRI, r3
 403              	@ 0 "" 2
 404              	.LVL44:
 405              		.thumb
 406              	.LBE31:
 407              		.loc 1 165 0
 408 0012 08BD     		pop	{r3, pc}
 409              		.cfi_endproc
 410              	.LFE12:
 411              		.size	chCondWait, .-chCondWait
 412 0014 AFF30080 		.section	.text.chCondWaitTimeoutS,"ax",%progbits
 412      AFF30080 
 412      AFF30080 
 413              		.align	2
 414              		.p2align 4,,15
 415              		.global	chCondWaitTimeoutS
 416              		.thumb
 417              		.thumb_func
 418              		.type	chCondWaitTimeoutS, %function
 419              	chCondWaitTimeoutS:
 420              	.LFB15:
 421              		.loc 1 270 0
 422              		.cfi_startproc
 423              		@ args = 0, pretend = 0, frame = 0
 424              		@ frame_needed = 0, uses_anonymous_args = 0
 425              	.LVL45:
 426 0000 2DE9F041 		push	{r4, r5, r6, r7, r8, lr}
 427              	.LCFI6:
 428              		.cfi_def_cfa_offset 24
 429              		.cfi_offset 4, -24
 430              		.cfi_offset 5, -20
 431              		.cfi_offset 6, -16
 432              		.cfi_offset 7, -12
 433              		.cfi_offset 8, -8
 434              		.cfi_offset 14, -4
 435              		.loc 1 270 0
 436 0004 0646     		mov	r6, r0
 437 0006 8846     		mov	r8, r1
 438              		.loc 1 280 0
 439 0008 FFF7FEFF 		bl	chMtxUnlockS
 440              	.LVL46:
 441              		.loc 1 281 0
 442 000c 0E4A     		ldr	r2, .L32
 443              		.loc 1 280 0
 444 000e 0746     		mov	r7, r0
ARM GAS  /var/folders/dt/0wfd0knj7gs46m8vwfzktm600000gn/T//ccm4MCQp.s 			page 9


 445              	.LVL47:
 446              		.loc 1 281 0
 447 0010 D269     		ldr	r2, [r2, #28]
 448              		.loc 2 43 0
 449 0012 3346     		mov	r3, r6
 450              		.loc 1 281 0
 451 0014 5662     		str	r6, [r2, #36]
 452              	.LVL48:
 453              	.L29:
 454              	.LBB32:
 455              	.LBB33:
 456              		.loc 2 45 0
 457 0016 1B68     		ldr	r3, [r3, #0]
 458              	.LVL49:
 459              		.loc 2 46 0
 460 0018 9E42     		cmp	r6, r3
 461 001a 03D0     		beq	.L30
 462 001c 9D68     		ldr	r5, [r3, #8]
 463 001e 9468     		ldr	r4, [r2, #8]
 464 0020 A542     		cmp	r5, r4
 465 0022 F8D2     		bcs	.L29
 466              	.L30:
 467              		.loc 2 48 0
 468 0024 5C68     		ldr	r4, [r3, #4]
 469              	.LBE33:
 470              	.LBE32:
 471              		.loc 1 283 0
 472 0026 0520     		movs	r0, #5
 473              	.LVL50:
 474              	.LBB36:
 475              	.LBB34:
 476              		.loc 2 48 0
 477 0028 82E81800 		stmia	r2, {r3, r4}
 478              	.LBE34:
 479              	.LBE36:
 480              		.loc 1 283 0
 481 002c 4146     		mov	r1, r8
 482              	.LBB37:
 483              	.LBB35:
 484              		.loc 2 49 0
 485 002e 2260     		str	r2, [r4, #0]
 486 0030 5A60     		str	r2, [r3, #4]
 487              	.LBE35:
 488              	.LBE37:
 489              		.loc 1 283 0
 490 0032 FFF7FEFF 		bl	chSchGoSleepTimeoutS
 491              	.LVL51:
 492              		.loc 1 284 0
 493 0036 431C     		adds	r3, r0, #1
 494              		.loc 1 283 0
 495 0038 0446     		mov	r4, r0
 496              	.LVL52:
 497              		.loc 1 284 0
 498 003a 02D0     		beq	.L28
 499              		.loc 1 285 0
 500 003c 3846     		mov	r0, r7
 501              	.LVL53:
ARM GAS  /var/folders/dt/0wfd0knj7gs46m8vwfzktm600000gn/T//ccm4MCQp.s 			page 10


 502 003e FFF7FEFF 		bl	chMtxLockS
 503              	.LVL54:
 504              	.L28:
 505              		.loc 1 287 0
 506 0042 2046     		mov	r0, r4
 507 0044 BDE8F081 		pop	{r4, r5, r6, r7, r8, pc}
 508              	.L33:
 509              		.align	2
 510              	.L32:
 511 0048 00000000 		.word	rlist
 512              		.cfi_endproc
 513              	.LFE15:
 514              		.size	chCondWaitTimeoutS, .-chCondWaitTimeoutS
 515 004c AFF30080 		.section	.text.chCondWaitTimeout,"ax",%progbits
 516              		.align	2
 517              		.p2align 4,,15
 518              		.global	chCondWaitTimeout
 519              		.thumb
 520              		.thumb_func
 521              		.type	chCondWaitTimeout, %function
 522              	chCondWaitTimeout:
 523              	.LFB14:
 524              		.loc 1 233 0
 525              		.cfi_startproc
 526              		@ args = 0, pretend = 0, frame = 0
 527              		@ frame_needed = 0, uses_anonymous_args = 0
 528              	.LVL55:
 529 0000 08B5     		push	{r3, lr}
 530              	.LCFI7:
 531              		.cfi_def_cfa_offset 8
 532              		.cfi_offset 3, -8
 533              		.cfi_offset 14, -4
 534              	.LBB38:
 535              		.loc 1 236 0
 536 0002 2023     		movs	r3, #32
 537              	.LVL56:
 538              	@ 236 "../../os/kernel/src/chcond.c" 1
 539 0004 83F31188 		msr     BASEPRI, r3
 540              	@ 0 "" 2
 541              	.LVL57:
 542              		.thumb
 543              	.LBE38:
 544              		.loc 1 237 0
 545 0008 FFF7FEFF 		bl	chCondWaitTimeoutS
 546              	.LVL58:
 547              	.LBB39:
 548              		.loc 1 238 0
 549 000c 0023     		movs	r3, #0
 550              	.LVL59:
 551              	@ 238 "../../os/kernel/src/chcond.c" 1
 552 000e 83F31188 		msr     BASEPRI, r3
 553              	@ 0 "" 2
 554              	.LVL60:
 555              		.thumb
 556              	.LBE39:
 557              		.loc 1 240 0
 558 0012 08BD     		pop	{r3, pc}
ARM GAS  /var/folders/dt/0wfd0knj7gs46m8vwfzktm600000gn/T//ccm4MCQp.s 			page 11


 559              		.cfi_endproc
 560              	.LFE14:
 561              		.size	chCondWaitTimeout, .-chCondWaitTimeout
 562 0014 AFF30080 		.text
 562      AFF30080 
 562      AFF30080 
 563              	.Letext0:
 564              		.file 3 "/Users/toxygen/Applications/yagarto-4.7.2/bin/../lib/gcc/arm-none-eabi/4.7.2/../../../../
 565              		.file 4 "../../os/ports/GCC/ARMCMx/chtypes.h"
 566              		.file 5 "../../os/kernel/include/chlists.h"
 567              		.file 6 "../../os/kernel/include/chthreads.h"
 568              		.file 7 "../../os/ports/GCC/ARMCMx/chcore_v7m.h"
 569              		.file 8 "../../os/kernel/include/chschd.h"
 570              		.file 9 "../../os/kernel/include/chmtx.h"
 571              		.file 10 "../../os/kernel/include/chcond.h"
 572              		.section	.debug_info,"",%progbits
 573              	.Ldebug_info0:
 574 0000 F5090000 		.4byte	0x9f5
 575 0004 0200     		.2byte	0x2
 576 0006 00000000 		.4byte	.Ldebug_abbrev0
 577 000a 04       		.byte	0x4
 578 000b 01       		.uleb128 0x1
 579 000c 07020000 		.4byte	.LASF78
 580 0010 01       		.byte	0x1
 581 0011 1C010000 		.4byte	.LASF79
 582 0015 11000000 		.4byte	.LASF80
 583 0019 A0000000 		.4byte	.Ldebug_ranges0+0xa0
 584 001d 00000000 		.4byte	0
 585 0021 00000000 		.4byte	0
 586 0025 00000000 		.4byte	.Ldebug_line0
 587 0029 02       		.uleb128 0x2
 588 002a 04       		.byte	0x4
 589 002b 05       		.byte	0x5
 590 002c 696E7400 		.ascii	"int\000"
 591 0030 03       		.uleb128 0x3
 592 0031 04       		.byte	0x4
 593 0032 07       		.byte	0x7
 594 0033 59010000 		.4byte	.LASF0
 595 0037 03       		.uleb128 0x3
 596 0038 01       		.byte	0x1
 597 0039 06       		.byte	0x6
 598 003a B1000000 		.4byte	.LASF1
 599 003e 04       		.uleb128 0x4
 600 003f 6F030000 		.4byte	.LASF5
 601 0043 03       		.byte	0x3
 602 0044 2A       		.byte	0x2a
 603 0045 49000000 		.4byte	0x49
 604 0049 03       		.uleb128 0x3
 605 004a 01       		.byte	0x1
 606 004b 08       		.byte	0x8
 607 004c 62020000 		.4byte	.LASF2
 608 0050 03       		.uleb128 0x3
 609 0051 02       		.byte	0x2
 610 0052 05       		.byte	0x5
 611 0053 7A020000 		.4byte	.LASF3
 612 0057 03       		.uleb128 0x3
 613 0058 02       		.byte	0x2
ARM GAS  /var/folders/dt/0wfd0knj7gs46m8vwfzktm600000gn/T//ccm4MCQp.s 			page 12


 614 0059 07       		.byte	0x7
 615 005a 80010000 		.4byte	.LASF4
 616 005e 04       		.uleb128 0x4
 617 005f 5A020000 		.4byte	.LASF6
 618 0063 03       		.byte	0x3
 619 0064 4F       		.byte	0x4f
 620 0065 69000000 		.4byte	0x69
 621 0069 03       		.uleb128 0x3
 622 006a 04       		.byte	0x4
 623 006b 05       		.byte	0x5
 624 006c D5000000 		.4byte	.LASF7
 625 0070 04       		.uleb128 0x4
 626 0071 D1020000 		.4byte	.LASF8
 627 0075 03       		.byte	0x3
 628 0076 50       		.byte	0x50
 629 0077 7B000000 		.4byte	0x7b
 630 007b 03       		.uleb128 0x3
 631 007c 04       		.byte	0x4
 632 007d 07       		.byte	0x7
 633 007e 66010000 		.4byte	.LASF9
 634 0082 03       		.uleb128 0x3
 635 0083 08       		.byte	0x8
 636 0084 05       		.byte	0x5
 637 0085 A3000000 		.4byte	.LASF10
 638 0089 03       		.uleb128 0x3
 639 008a 08       		.byte	0x8
 640 008b 07       		.byte	0x7
 641 008c 6B000000 		.4byte	.LASF11
 642 0090 04       		.uleb128 0x4
 643 0091 A5010000 		.4byte	.LASF12
 644 0095 04       		.byte	0x4
 645 0096 2F       		.byte	0x2f
 646 0097 3E000000 		.4byte	0x3e
 647 009b 04       		.uleb128 0x4
 648 009c DE000000 		.4byte	.LASF13
 649 00a0 04       		.byte	0x4
 650 00a1 30       		.byte	0x30
 651 00a2 3E000000 		.4byte	0x3e
 652 00a6 04       		.uleb128 0x4
 653 00a7 35020000 		.4byte	.LASF14
 654 00ab 04       		.byte	0x4
 655 00ac 31       		.byte	0x31
 656 00ad 3E000000 		.4byte	0x3e
 657 00b1 04       		.uleb128 0x4
 658 00b2 44020000 		.4byte	.LASF15
 659 00b6 04       		.byte	0x4
 660 00b7 32       		.byte	0x32
 661 00b8 70000000 		.4byte	0x70
 662 00bc 04       		.uleb128 0x4
 663 00bd 93010000 		.4byte	.LASF16
 664 00c1 04       		.byte	0x4
 665 00c2 33       		.byte	0x33
 666 00c3 5E000000 		.4byte	0x5e
 667 00c7 04       		.uleb128 0x4
 668 00c8 B9010000 		.4byte	.LASF17
 669 00cc 04       		.byte	0x4
 670 00cd 35       		.byte	0x35
ARM GAS  /var/folders/dt/0wfd0knj7gs46m8vwfzktm600000gn/T//ccm4MCQp.s 			page 13


 671 00ce 70000000 		.4byte	0x70
 672 00d2 04       		.uleb128 0x4
 673 00d3 12030000 		.4byte	.LASF18
 674 00d7 04       		.byte	0x4
 675 00d8 36       		.byte	0x36
 676 00d9 70000000 		.4byte	0x70
 677 00dd 04       		.uleb128 0x4
 678 00de 46010000 		.4byte	.LASF19
 679 00e2 04       		.byte	0x4
 680 00e3 37       		.byte	0x37
 681 00e4 5E000000 		.4byte	0x5e
 682 00e8 04       		.uleb128 0x4
 683 00e9 A9020000 		.4byte	.LASF20
 684 00ed 05       		.byte	0x5
 685 00ee 2A       		.byte	0x2a
 686 00ef F3000000 		.4byte	0xf3
 687 00f3 05       		.uleb128 0x5
 688 00f4 A9020000 		.4byte	.LASF20
 689 00f8 48       		.byte	0x48
 690 00f9 06       		.byte	0x6
 691 00fa 5E       		.byte	0x5e
 692 00fb 0A020000 		.4byte	0x20a
 693 00ff 06       		.uleb128 0x6
 694 0100 9A020000 		.4byte	.LASF21
 695 0104 06       		.byte	0x6
 696 0105 5F       		.byte	0x5f
 697 0106 2F020000 		.4byte	0x22f
 698 010a 02       		.byte	0x2
 699 010b 23       		.byte	0x23
 700 010c 00       		.uleb128 0
 701 010d 06       		.uleb128 0x6
 702 010e 3D020000 		.4byte	.LASF22
 703 0112 06       		.byte	0x6
 704 0113 61       		.byte	0x61
 705 0114 2F020000 		.4byte	0x22f
 706 0118 02       		.byte	0x2
 707 0119 23       		.byte	0x23
 708 011a 04       		.uleb128 0x4
 709 011b 06       		.uleb128 0x6
 710 011c 9C000000 		.4byte	.LASF23
 711 0120 06       		.byte	0x6
 712 0121 63       		.byte	0x63
 713 0122 B1000000 		.4byte	0xb1
 714 0126 02       		.byte	0x2
 715 0127 23       		.byte	0x23
 716 0128 08       		.uleb128 0x8
 717 0129 06       		.uleb128 0x6
 718 012a BE030000 		.4byte	.LASF24
 719 012e 06       		.byte	0x6
 720 012f 64       		.byte	0x64
 721 0130 FC020000 		.4byte	0x2fc
 722 0134 02       		.byte	0x2
 723 0135 23       		.byte	0x23
 724 0136 0C       		.uleb128 0xc
 725 0137 06       		.uleb128 0x6
 726 0138 F2000000 		.4byte	.LASF25
 727 013c 06       		.byte	0x6
ARM GAS  /var/folders/dt/0wfd0knj7gs46m8vwfzktm600000gn/T//ccm4MCQp.s 			page 14


 728 013d 66       		.byte	0x66
 729 013e 2F020000 		.4byte	0x22f
 730 0142 02       		.byte	0x2
 731 0143 23       		.byte	0x23
 732 0144 10       		.uleb128 0x10
 733 0145 06       		.uleb128 0x6
 734 0146 E7010000 		.4byte	.LASF26
 735 014a 06       		.byte	0x6
 736 014b 67       		.byte	0x67
 737 014c 2F020000 		.4byte	0x22f
 738 0150 02       		.byte	0x2
 739 0151 23       		.byte	0x23
 740 0152 14       		.uleb128 0x14
 741 0153 06       		.uleb128 0x6
 742 0154 7E030000 		.4byte	.LASF27
 743 0158 06       		.byte	0x6
 744 0159 6E       		.byte	0x6e
 745 015a 44040000 		.4byte	0x444
 746 015e 02       		.byte	0x2
 747 015f 23       		.byte	0x23
 748 0160 18       		.uleb128 0x18
 749 0161 06       		.uleb128 0x6
 750 0162 84020000 		.4byte	.LASF28
 751 0166 06       		.byte	0x6
 752 0167 79       		.byte	0x79
 753 0168 9B000000 		.4byte	0x9b
 754 016c 02       		.byte	0x2
 755 016d 23       		.byte	0x23
 756 016e 1C       		.uleb128 0x1c
 757 016f 06       		.uleb128 0x6
 758 0170 A1020000 		.4byte	.LASF29
 759 0174 06       		.byte	0x6
 760 0175 7D       		.byte	0x7d
 761 0176 90000000 		.4byte	0x90
 762 017a 02       		.byte	0x2
 763 017b 23       		.byte	0x23
 764 017c 1D       		.uleb128 0x1d
 765 017d 06       		.uleb128 0x6
 766 017e 58030000 		.4byte	.LASF30
 767 0182 06       		.byte	0x6
 768 0183 82       		.byte	0x82
 769 0184 A6000000 		.4byte	0xa6
 770 0188 02       		.byte	0x2
 771 0189 23       		.byte	0x23
 772 018a 1E       		.uleb128 0x1e
 773 018b 06       		.uleb128 0x6
 774 018c 32030000 		.4byte	.LASF31
 775 0190 06       		.byte	0x6
 776 0191 89       		.byte	0x89
 777 0192 26030000 		.4byte	0x326
 778 0196 02       		.byte	0x2
 779 0197 23       		.byte	0x23
 780 0198 20       		.uleb128 0x20
 781 0199 07       		.uleb128 0x7
 782 019a 705F7500 		.ascii	"p_u\000"
 783 019e 06       		.byte	0x6
 784 019f AE       		.byte	0xae
ARM GAS  /var/folders/dt/0wfd0knj7gs46m8vwfzktm600000gn/T//ccm4MCQp.s 			page 15


 785 01a0 0F040000 		.4byte	0x40f
 786 01a4 02       		.byte	0x2
 787 01a5 23       		.byte	0x23
 788 01a6 24       		.uleb128 0x24
 789 01a7 06       		.uleb128 0x6
 790 01a8 C4030000 		.4byte	.LASF32
 791 01ac 06       		.byte	0x6
 792 01ad B3       		.byte	0xb3
 793 01ae 57020000 		.4byte	0x257
 794 01b2 02       		.byte	0x2
 795 01b3 23       		.byte	0x23
 796 01b4 28       		.uleb128 0x28
 797 01b5 06       		.uleb128 0x6
 798 01b6 40030000 		.4byte	.LASF33
 799 01ba 06       		.byte	0x6
 800 01bb B9       		.byte	0xb9
 801 01bc 35020000 		.4byte	0x235
 802 01c0 02       		.byte	0x2
 803 01c1 23       		.byte	0x23
 804 01c2 2C       		.uleb128 0x2c
 805 01c3 06       		.uleb128 0x6
 806 01c4 00000000 		.4byte	.LASF34
 807 01c8 06       		.byte	0x6
 808 01c9 BD       		.byte	0xbd
 809 01ca BC000000 		.4byte	0xbc
 810 01ce 02       		.byte	0x2
 811 01cf 23       		.byte	0x23
 812 01d0 34       		.uleb128 0x34
 813 01d1 06       		.uleb128 0x6
 814 01d2 C6020000 		.4byte	.LASF35
 815 01d6 06       		.byte	0x6
 816 01d7 C3       		.byte	0xc3
 817 01d8 C7000000 		.4byte	0xc7
 818 01dc 02       		.byte	0x2
 819 01dd 23       		.byte	0x23
 820 01de 38       		.uleb128 0x38
 821 01df 06       		.uleb128 0x6
 822 01e0 70020000 		.4byte	.LASF36
 823 01e4 06       		.byte	0x6
 824 01e5 CA       		.byte	0xca
 825 01e6 56040000 		.4byte	0x456
 826 01ea 02       		.byte	0x2
 827 01eb 23       		.byte	0x23
 828 01ec 3C       		.uleb128 0x3c
 829 01ed 06       		.uleb128 0x6
 830 01ee 1C030000 		.4byte	.LASF37
 831 01f2 06       		.byte	0x6
 832 01f3 CE       		.byte	0xce
 833 01f4 B1000000 		.4byte	0xb1
 834 01f8 02       		.byte	0x2
 835 01f9 23       		.byte	0x23
 836 01fa 40       		.uleb128 0x40
 837 01fb 06       		.uleb128 0x6
 838 01fc BD000000 		.4byte	.LASF38
 839 0200 06       		.byte	0x6
 840 0201 D4       		.byte	0xd4
 841 0202 6D020000 		.4byte	0x26d
ARM GAS  /var/folders/dt/0wfd0knj7gs46m8vwfzktm600000gn/T//ccm4MCQp.s 			page 16


 842 0206 02       		.byte	0x2
 843 0207 23       		.byte	0x23
 844 0208 44       		.uleb128 0x44
 845 0209 00       		.byte	0
 846 020a 08       		.uleb128 0x8
 847 020b 08       		.byte	0x8
 848 020c 05       		.byte	0x5
 849 020d 61       		.byte	0x61
 850 020e 2F020000 		.4byte	0x22f
 851 0212 06       		.uleb128 0x6
 852 0213 9A020000 		.4byte	.LASF21
 853 0217 05       		.byte	0x5
 854 0218 62       		.byte	0x62
 855 0219 2F020000 		.4byte	0x22f
 856 021d 02       		.byte	0x2
 857 021e 23       		.byte	0x23
 858 021f 00       		.uleb128 0
 859 0220 06       		.uleb128 0x6
 860 0221 3D020000 		.4byte	.LASF22
 861 0225 05       		.byte	0x5
 862 0226 64       		.byte	0x64
 863 0227 2F020000 		.4byte	0x22f
 864 022b 02       		.byte	0x2
 865 022c 23       		.byte	0x23
 866 022d 04       		.uleb128 0x4
 867 022e 00       		.byte	0
 868 022f 09       		.uleb128 0x9
 869 0230 04       		.byte	0x4
 870 0231 E8000000 		.4byte	0xe8
 871 0235 04       		.uleb128 0x4
 872 0236 F5010000 		.4byte	.LASF39
 873 023a 05       		.byte	0x5
 874 023b 66       		.byte	0x66
 875 023c 0A020000 		.4byte	0x20a
 876 0240 08       		.uleb128 0x8
 877 0241 04       		.byte	0x4
 878 0242 05       		.byte	0x5
 879 0243 6B       		.byte	0x6b
 880 0244 57020000 		.4byte	0x257
 881 0248 06       		.uleb128 0x6
 882 0249 9A020000 		.4byte	.LASF21
 883 024d 05       		.byte	0x5
 884 024e 6D       		.byte	0x6d
 885 024f 2F020000 		.4byte	0x22f
 886 0253 02       		.byte	0x2
 887 0254 23       		.byte	0x23
 888 0255 00       		.uleb128 0
 889 0256 00       		.byte	0
 890 0257 04       		.uleb128 0x4
 891 0258 AD010000 		.4byte	.LASF40
 892 025c 05       		.byte	0x5
 893 025d 70       		.byte	0x70
 894 025e 40020000 		.4byte	0x240
 895 0262 04       		.uleb128 0x4
 896 0263 13010000 		.4byte	.LASF41
 897 0267 07       		.byte	0x7
 898 0268 D7       		.byte	0xd7
ARM GAS  /var/folders/dt/0wfd0knj7gs46m8vwfzktm600000gn/T//ccm4MCQp.s 			page 17


 899 0269 6D020000 		.4byte	0x26d
 900 026d 0A       		.uleb128 0xa
 901 026e 04       		.byte	0x4
 902 026f 05       		.uleb128 0x5
 903 0270 39030000 		.4byte	.LASF42
 904 0274 24       		.byte	0x24
 905 0275 07       		.byte	0x7
 906 0276 FE       		.byte	0xfe
 907 0277 FC020000 		.4byte	0x2fc
 908 027b 0B       		.uleb128 0xb
 909 027c 723400   		.ascii	"r4\000"
 910 027f 07       		.byte	0x7
 911 0280 1101     		.2byte	0x111
 912 0282 62020000 		.4byte	0x262
 913 0286 02       		.byte	0x2
 914 0287 23       		.byte	0x23
 915 0288 00       		.uleb128 0
 916 0289 0B       		.uleb128 0xb
 917 028a 723500   		.ascii	"r5\000"
 918 028d 07       		.byte	0x7
 919 028e 1201     		.2byte	0x112
 920 0290 62020000 		.4byte	0x262
 921 0294 02       		.byte	0x2
 922 0295 23       		.byte	0x23
 923 0296 04       		.uleb128 0x4
 924 0297 0B       		.uleb128 0xb
 925 0298 723600   		.ascii	"r6\000"
 926 029b 07       		.byte	0x7
 927 029c 1301     		.2byte	0x113
 928 029e 62020000 		.4byte	0x262
 929 02a2 02       		.byte	0x2
 930 02a3 23       		.byte	0x23
 931 02a4 08       		.uleb128 0x8
 932 02a5 0B       		.uleb128 0xb
 933 02a6 723700   		.ascii	"r7\000"
 934 02a9 07       		.byte	0x7
 935 02aa 1401     		.2byte	0x114
 936 02ac 62020000 		.4byte	0x262
 937 02b0 02       		.byte	0x2
 938 02b1 23       		.byte	0x23
 939 02b2 0C       		.uleb128 0xc
 940 02b3 0B       		.uleb128 0xb
 941 02b4 723800   		.ascii	"r8\000"
 942 02b7 07       		.byte	0x7
 943 02b8 1501     		.2byte	0x115
 944 02ba 62020000 		.4byte	0x262
 945 02be 02       		.byte	0x2
 946 02bf 23       		.byte	0x23
 947 02c0 10       		.uleb128 0x10
 948 02c1 0B       		.uleb128 0xb
 949 02c2 723900   		.ascii	"r9\000"
 950 02c5 07       		.byte	0x7
 951 02c6 1601     		.2byte	0x116
 952 02c8 62020000 		.4byte	0x262
 953 02cc 02       		.byte	0x2
 954 02cd 23       		.byte	0x23
 955 02ce 14       		.uleb128 0x14
ARM GAS  /var/folders/dt/0wfd0knj7gs46m8vwfzktm600000gn/T//ccm4MCQp.s 			page 18


 956 02cf 0B       		.uleb128 0xb
 957 02d0 72313000 		.ascii	"r10\000"
 958 02d4 07       		.byte	0x7
 959 02d5 1701     		.2byte	0x117
 960 02d7 62020000 		.4byte	0x262
 961 02db 02       		.byte	0x2
 962 02dc 23       		.byte	0x23
 963 02dd 18       		.uleb128 0x18
 964 02de 0B       		.uleb128 0xb
 965 02df 72313100 		.ascii	"r11\000"
 966 02e3 07       		.byte	0x7
 967 02e4 1801     		.2byte	0x118
 968 02e6 62020000 		.4byte	0x262
 969 02ea 02       		.byte	0x2
 970 02eb 23       		.byte	0x23
 971 02ec 1C       		.uleb128 0x1c
 972 02ed 0B       		.uleb128 0xb
 973 02ee 6C7200   		.ascii	"lr\000"
 974 02f1 07       		.byte	0x7
 975 02f2 1901     		.2byte	0x119
 976 02f4 62020000 		.4byte	0x262
 977 02f8 02       		.byte	0x2
 978 02f9 23       		.byte	0x23
 979 02fa 20       		.uleb128 0x20
 980 02fb 00       		.byte	0
 981 02fc 0C       		.uleb128 0xc
 982 02fd 78010000 		.4byte	.LASF43
 983 0301 04       		.byte	0x4
 984 0302 07       		.byte	0x7
 985 0303 2301     		.2byte	0x123
 986 0305 19030000 		.4byte	0x319
 987 0309 0B       		.uleb128 0xb
 988 030a 72313300 		.ascii	"r13\000"
 989 030e 07       		.byte	0x7
 990 030f 2401     		.2byte	0x124
 991 0311 19030000 		.4byte	0x319
 992 0315 02       		.byte	0x2
 993 0316 23       		.byte	0x23
 994 0317 00       		.uleb128 0
 995 0318 00       		.byte	0
 996 0319 09       		.uleb128 0x9
 997 031a 04       		.byte	0x4
 998 031b 6F020000 		.4byte	0x26f
 999 031f 03       		.uleb128 0x3
 1000 0320 04       		.byte	0x4
 1001 0321 07       		.byte	0x7
 1002 0322 CB010000 		.4byte	.LASF44
 1003 0326 0D       		.uleb128 0xd
 1004 0327 D2000000 		.4byte	0xd2
 1005 032b 08       		.uleb128 0x8
 1006 032c 20       		.byte	0x20
 1007 032d 08       		.byte	0x8
 1008 032e 5E       		.byte	0x5e
 1009 032f 96030000 		.4byte	0x396
 1010 0333 06       		.uleb128 0x6
 1011 0334 DA020000 		.4byte	.LASF45
 1012 0338 08       		.byte	0x8
ARM GAS  /var/folders/dt/0wfd0knj7gs46m8vwfzktm600000gn/T//ccm4MCQp.s 			page 19


 1013 0339 5F       		.byte	0x5f
 1014 033a 35020000 		.4byte	0x235
 1015 033e 02       		.byte	0x2
 1016 033f 23       		.byte	0x23
 1017 0340 00       		.uleb128 0
 1018 0341 06       		.uleb128 0x6
 1019 0342 8C020000 		.4byte	.LASF46
 1020 0346 08       		.byte	0x8
 1021 0347 60       		.byte	0x60
 1022 0348 B1000000 		.4byte	0xb1
 1023 034c 02       		.byte	0x2
 1024 034d 23       		.byte	0x23
 1025 034e 08       		.uleb128 0x8
 1026 034f 06       		.uleb128 0x6
 1027 0350 EF010000 		.4byte	.LASF47
 1028 0354 08       		.byte	0x8
 1029 0355 62       		.byte	0x62
 1030 0356 FC020000 		.4byte	0x2fc
 1031 035a 02       		.byte	0x2
 1032 035b 23       		.byte	0x23
 1033 035c 0C       		.uleb128 0xc
 1034 035d 06       		.uleb128 0x6
 1035 035e 0B010000 		.4byte	.LASF48
 1036 0362 08       		.byte	0x8
 1037 0363 65       		.byte	0x65
 1038 0364 2F020000 		.4byte	0x22f
 1039 0368 02       		.byte	0x2
 1040 0369 23       		.byte	0x23
 1041 036a 10       		.uleb128 0x10
 1042 036b 06       		.uleb128 0x6
 1043 036c 1D020000 		.4byte	.LASF49
 1044 0370 08       		.byte	0x8
 1045 0371 66       		.byte	0x66
 1046 0372 2F020000 		.4byte	0x22f
 1047 0376 02       		.byte	0x2
 1048 0377 23       		.byte	0x23
 1049 0378 14       		.uleb128 0x14
 1050 0379 06       		.uleb128 0x6
 1051 037a AC030000 		.4byte	.LASF50
 1052 037e 08       		.byte	0x8
 1053 037f 6A       		.byte	0x6a
 1054 0380 DD000000 		.4byte	0xdd
 1055 0384 02       		.byte	0x2
 1056 0385 23       		.byte	0x23
 1057 0386 18       		.uleb128 0x18
 1058 0387 06       		.uleb128 0x6
 1059 0388 13020000 		.4byte	.LASF51
 1060 038c 08       		.byte	0x8
 1061 038d 6C       		.byte	0x6c
 1062 038e 2F020000 		.4byte	0x22f
 1063 0392 02       		.byte	0x2
 1064 0393 23       		.byte	0x23
 1065 0394 1C       		.uleb128 0x1c
 1066 0395 00       		.byte	0
 1067 0396 04       		.uleb128 0x4
 1068 0397 5F030000 		.4byte	.LASF52
 1069 039b 08       		.byte	0x8
ARM GAS  /var/folders/dt/0wfd0knj7gs46m8vwfzktm600000gn/T//ccm4MCQp.s 			page 20


 1070 039c 6E       		.byte	0x6e
 1071 039d 2B030000 		.4byte	0x32b
 1072 03a1 05       		.uleb128 0x5
 1073 03a2 C5010000 		.4byte	.LASF53
 1074 03a6 10       		.byte	0x10
 1075 03a7 09       		.byte	0x9
 1076 03a8 2C       		.byte	0x2c
 1077 03a9 D8030000 		.4byte	0x3d8
 1078 03ad 06       		.uleb128 0x6
 1079 03ae C5000000 		.4byte	.LASF54
 1080 03b2 09       		.byte	0x9
 1081 03b3 2D       		.byte	0x2d
 1082 03b4 35020000 		.4byte	0x235
 1083 03b8 02       		.byte	0x2
 1084 03b9 23       		.byte	0x23
 1085 03ba 00       		.uleb128 0
 1086 03bb 06       		.uleb128 0x6
 1087 03bc B6030000 		.4byte	.LASF55
 1088 03c0 09       		.byte	0x9
 1089 03c1 2F       		.byte	0x2f
 1090 03c2 2F020000 		.4byte	0x22f
 1091 03c6 02       		.byte	0x2
 1092 03c7 23       		.byte	0x23
 1093 03c8 08       		.uleb128 0x8
 1094 03c9 06       		.uleb128 0x6
 1095 03ca 0B030000 		.4byte	.LASF56
 1096 03ce 09       		.byte	0x9
 1097 03cf 31       		.byte	0x31
 1098 03d0 D8030000 		.4byte	0x3d8
 1099 03d4 02       		.byte	0x2
 1100 03d5 23       		.byte	0x23
 1101 03d6 0C       		.uleb128 0xc
 1102 03d7 00       		.byte	0
 1103 03d8 09       		.uleb128 0x9
 1104 03d9 04       		.byte	0x4
 1105 03da A1030000 		.4byte	0x3a1
 1106 03de 04       		.uleb128 0x4
 1107 03df C5010000 		.4byte	.LASF53
 1108 03e3 09       		.byte	0x9
 1109 03e4 33       		.byte	0x33
 1110 03e5 A1030000 		.4byte	0x3a1
 1111 03e9 05       		.uleb128 0x5
 1112 03ea CD000000 		.4byte	.LASF57
 1113 03ee 08       		.byte	0x8
 1114 03ef 0A       		.byte	0xa
 1115 03f0 36       		.byte	0x36
 1116 03f1 04040000 		.4byte	0x404
 1117 03f5 06       		.uleb128 0x6
 1118 03f6 B0020000 		.4byte	.LASF58
 1119 03fa 0A       		.byte	0xa
 1120 03fb 37       		.byte	0x37
 1121 03fc 35020000 		.4byte	0x235
 1122 0400 02       		.byte	0x2
 1123 0401 23       		.byte	0x23
 1124 0402 00       		.uleb128 0
 1125 0403 00       		.byte	0
 1126 0404 04       		.uleb128 0x4
ARM GAS  /var/folders/dt/0wfd0knj7gs46m8vwfzktm600000gn/T//ccm4MCQp.s 			page 21


 1127 0405 CD000000 		.4byte	.LASF57
 1128 0409 0A       		.byte	0xa
 1129 040a 38       		.byte	0x38
 1130 040b E9030000 		.4byte	0x3e9
 1131 040f 0E       		.uleb128 0xe
 1132 0410 04       		.byte	0x4
 1133 0411 06       		.byte	0x6
 1134 0412 90       		.byte	0x90
 1135 0413 44040000 		.4byte	0x444
 1136 0417 0F       		.uleb128 0xf
 1137 0418 64000000 		.4byte	.LASF59
 1138 041c 06       		.byte	0x6
 1139 041d 97       		.byte	0x97
 1140 041e BC000000 		.4byte	0xbc
 1141 0422 0F       		.uleb128 0xf
 1142 0423 82000000 		.4byte	.LASF60
 1143 0427 06       		.byte	0x6
 1144 0428 9E       		.byte	0x9e
 1145 0429 BC000000 		.4byte	0xbc
 1146 042d 0F       		.uleb128 0xf
 1147 042e 77030000 		.4byte	.LASF61
 1148 0432 06       		.byte	0x6
 1149 0433 A5       		.byte	0xa5
 1150 0434 6D020000 		.4byte	0x26d
 1151 0438 0F       		.uleb128 0xf
 1152 0439 93020000 		.4byte	.LASF62
 1153 043d 06       		.byte	0x6
 1154 043e AC       		.byte	0xac
 1155 043f C7000000 		.4byte	0xc7
 1156 0443 00       		.byte	0
 1157 0444 09       		.uleb128 0x9
 1158 0445 04       		.byte	0x4
 1159 0446 4A040000 		.4byte	0x44a
 1160 044a 10       		.uleb128 0x10
 1161 044b 4F040000 		.4byte	0x44f
 1162 044f 03       		.uleb128 0x3
 1163 0450 01       		.byte	0x1
 1164 0451 08       		.byte	0x8
 1165 0452 EE020000 		.4byte	.LASF63
 1166 0456 09       		.uleb128 0x9
 1167 0457 04       		.byte	0x4
 1168 0458 DE030000 		.4byte	0x3de
 1169 045c 11       		.uleb128 0x11
 1170 045d F3020000 		.4byte	.LASF81
 1171 0461 02       		.byte	0x2
 1172 0462 3B       		.byte	0x3b
 1173 0463 01       		.byte	0x1
 1174 0464 2F020000 		.4byte	0x22f
 1175 0468 03       		.byte	0x3
 1176 0469 83040000 		.4byte	0x483
 1177 046d 12       		.uleb128 0x12
 1178 046e 74717000 		.ascii	"tqp\000"
 1179 0472 02       		.byte	0x2
 1180 0473 3B       		.byte	0x3b
 1181 0474 83040000 		.4byte	0x483
 1182 0478 13       		.uleb128 0x13
 1183 0479 747000   		.ascii	"tp\000"
ARM GAS  /var/folders/dt/0wfd0knj7gs46m8vwfzktm600000gn/T//ccm4MCQp.s 			page 22


 1184 047c 02       		.byte	0x2
 1185 047d 3C       		.byte	0x3c
 1186 047e 2F020000 		.4byte	0x22f
 1187 0482 00       		.byte	0
 1188 0483 09       		.uleb128 0x9
 1189 0484 04       		.byte	0x4
 1190 0485 35020000 		.4byte	0x235
 1191 0489 14       		.uleb128 0x14
 1192 048a 99010000 		.4byte	.LASF82
 1193 048e 02       		.byte	0x2
 1194 048f 29       		.byte	0x29
 1195 0490 01       		.byte	0x1
 1196 0491 03       		.byte	0x3
 1197 0492 B6040000 		.4byte	0x4b6
 1198 0496 12       		.uleb128 0x12
 1199 0497 747000   		.ascii	"tp\000"
 1200 049a 02       		.byte	0x2
 1201 049b 29       		.byte	0x29
 1202 049c 2F020000 		.4byte	0x22f
 1203 04a0 12       		.uleb128 0x12
 1204 04a1 74717000 		.ascii	"tqp\000"
 1205 04a5 02       		.byte	0x2
 1206 04a6 29       		.byte	0x29
 1207 04a7 83040000 		.4byte	0x483
 1208 04ab 13       		.uleb128 0x13
 1209 04ac 637000   		.ascii	"cp\000"
 1210 04af 02       		.byte	0x2
 1211 04b0 2B       		.byte	0x2b
 1212 04b1 2F020000 		.4byte	0x22f
 1213 04b5 00       		.byte	0
 1214 04b6 15       		.uleb128 0x15
 1215 04b7 01       		.byte	0x1
 1216 04b8 06000000 		.4byte	.LASF64
 1217 04bc 01       		.byte	0x1
 1218 04bd 3B       		.byte	0x3b
 1219 04be 01       		.byte	0x1
 1220 04bf 00000000 		.4byte	.LFB7
 1221 04c3 06000000 		.4byte	.LFE7
 1222 04c7 02       		.byte	0x2
 1223 04c8 7D       		.byte	0x7d
 1224 04c9 00       		.sleb128 0
 1225 04ca 01       		.byte	0x1
 1226 04cb DC040000 		.4byte	0x4dc
 1227 04cf 16       		.uleb128 0x16
 1228 04d0 637000   		.ascii	"cp\000"
 1229 04d3 01       		.byte	0x1
 1230 04d4 3B       		.byte	0x3b
 1231 04d5 DC040000 		.4byte	0x4dc
 1232 04d9 01       		.byte	0x1
 1233 04da 50       		.byte	0x50
 1234 04db 00       		.byte	0
 1235 04dc 09       		.uleb128 0x9
 1236 04dd 04       		.byte	0x4
 1237 04de 04040000 		.4byte	0x404
 1238 04e2 17       		.uleb128 0x17
 1239 04e3 01       		.byte	0x1
 1240 04e4 39010000 		.4byte	.LASF65
ARM GAS  /var/folders/dt/0wfd0knj7gs46m8vwfzktm600000gn/T//ccm4MCQp.s 			page 23


 1241 04e8 01       		.byte	0x1
 1242 04e9 49       		.byte	0x49
 1243 04ea 01       		.byte	0x1
 1244 04eb 00000000 		.4byte	.LFB8
 1245 04ef 24000000 		.4byte	.LFE8
 1246 04f3 00000000 		.4byte	.LLST0
 1247 04f7 01       		.byte	0x1
 1248 04f8 80050000 		.4byte	0x580
 1249 04fc 18       		.uleb128 0x18
 1250 04fd 637000   		.ascii	"cp\000"
 1251 0500 01       		.byte	0x1
 1252 0501 49       		.byte	0x49
 1253 0502 DC040000 		.4byte	0x4dc
 1254 0506 20000000 		.4byte	.LLST1
 1255 050a 19       		.uleb128 0x19
 1256 050b 04000000 		.4byte	.LBB14
 1257 050f 0A000000 		.4byte	.LBE14
 1258 0513 27050000 		.4byte	0x527
 1259 0517 1A       		.uleb128 0x1a
 1260 0518 746D7000 		.ascii	"tmp\000"
 1261 051c 01       		.byte	0x1
 1262 051d 4D       		.byte	0x4d
 1263 051e 70000000 		.4byte	0x70
 1264 0522 4C000000 		.4byte	.LLST2
 1265 0526 00       		.byte	0
 1266 0527 1B       		.uleb128 0x1b
 1267 0528 5C040000 		.4byte	0x45c
 1268 052c 10000000 		.4byte	.LBB15
 1269 0530 00000000 		.4byte	.Ldebug_ranges0+0
 1270 0534 01       		.byte	0x1
 1271 0535 4F       		.byte	0x4f
 1272 0536 53050000 		.4byte	0x553
 1273 053a 1C       		.uleb128 0x1c
 1274 053b 6D040000 		.4byte	0x46d
 1275 053f 6A000000 		.4byte	.LLST3
 1276 0543 1D       		.uleb128 0x1d
 1277 0544 18000000 		.4byte	.Ldebug_ranges0+0x18
 1278 0548 1E       		.uleb128 0x1e
 1279 0549 78040000 		.4byte	0x478
 1280 054d 8B000000 		.4byte	.LLST4
 1281 0551 00       		.byte	0
 1282 0552 00       		.byte	0
 1283 0553 19       		.uleb128 0x19
 1284 0554 1C000000 		.4byte	.LBB19
 1285 0558 24000000 		.4byte	.LBE19
 1286 055c 70050000 		.4byte	0x570
 1287 0560 1A       		.uleb128 0x1a
 1288 0561 746D7000 		.ascii	"tmp\000"
 1289 0565 01       		.byte	0x1
 1290 0566 50       		.byte	0x50
 1291 0567 70000000 		.4byte	0x70
 1292 056b 9E000000 		.4byte	.LLST5
 1293 056f 00       		.byte	0
 1294 0570 1F       		.uleb128 0x1f
 1295 0571 1C000000 		.4byte	.LVL7
 1296 0575 6E090000 		.4byte	0x96e
 1297 0579 20       		.uleb128 0x20
ARM GAS  /var/folders/dt/0wfd0knj7gs46m8vwfzktm600000gn/T//ccm4MCQp.s 			page 24


 1298 057a 01       		.byte	0x1
 1299 057b 51       		.byte	0x51
 1300 057c 01       		.byte	0x1
 1301 057d 30       		.byte	0x30
 1302 057e 00       		.byte	0
 1303 057f 00       		.byte	0
 1304 0580 17       		.uleb128 0x17
 1305 0581 01       		.byte	0x1
 1306 0582 4C020000 		.4byte	.LASF66
 1307 0586 01       		.byte	0x1
 1308 0587 5E       		.byte	0x5e
 1309 0588 01       		.byte	0x1
 1310 0589 00000000 		.4byte	.LFB9
 1311 058d 1A000000 		.4byte	.LFE9
 1312 0591 B1000000 		.4byte	.LLST6
 1313 0595 01       		.byte	0x1
 1314 0596 E2050000 		.4byte	0x5e2
 1315 059a 18       		.uleb128 0x18
 1316 059b 637000   		.ascii	"cp\000"
 1317 059e 01       		.byte	0x1
 1318 059f 5E       		.byte	0x5e
 1319 05a0 DC040000 		.4byte	0x4dc
 1320 05a4 D1000000 		.4byte	.LLST7
 1321 05a8 21       		.uleb128 0x21
 1322 05a9 5C040000 		.4byte	0x45c
 1323 05ad 0A000000 		.4byte	.LBB20
 1324 05b1 10000000 		.4byte	.LBE20
 1325 05b5 01       		.byte	0x1
 1326 05b6 64       		.byte	0x64
 1327 05b7 D8050000 		.4byte	0x5d8
 1328 05bb 1C       		.uleb128 0x1c
 1329 05bc 6D040000 		.4byte	0x46d
 1330 05c0 FD000000 		.4byte	.LLST8
 1331 05c4 22       		.uleb128 0x22
 1332 05c5 0A000000 		.4byte	.LBB21
 1333 05c9 10000000 		.4byte	.LBE21
 1334 05cd 1E       		.uleb128 0x1e
 1335 05ce 78040000 		.4byte	0x478
 1336 05d2 1E010000 		.4byte	.LLST9
 1337 05d6 00       		.byte	0
 1338 05d7 00       		.byte	0
 1339 05d8 23       		.uleb128 0x23
 1340 05d9 14000000 		.4byte	.LVL13
 1341 05dd 87090000 		.4byte	0x987
 1342 05e1 00       		.byte	0
 1343 05e2 17       		.uleb128 0x17
 1344 05e3 01       		.byte	0x1
 1345 05e4 8B000000 		.4byte	.LASF67
 1346 05e8 01       		.byte	0x1
 1347 05e9 81       		.byte	0x81
 1348 05ea 01       		.byte	0x1
 1349 05eb 00000000 		.4byte	.LFB11
 1350 05ef 22000000 		.4byte	.LFE11
 1351 05f3 31010000 		.4byte	.LLST10
 1352 05f7 01       		.byte	0x1
 1353 05f8 44060000 		.4byte	0x644
 1354 05fc 18       		.uleb128 0x18
ARM GAS  /var/folders/dt/0wfd0knj7gs46m8vwfzktm600000gn/T//ccm4MCQp.s 			page 25


 1355 05fd 637000   		.ascii	"cp\000"
 1356 0600 01       		.byte	0x1
 1357 0601 81       		.byte	0x81
 1358 0602 DC040000 		.4byte	0x4dc
 1359 0606 51010000 		.4byte	.LLST11
 1360 060a 21       		.uleb128 0x21
 1361 060b 5C040000 		.4byte	0x45c
 1362 060f 0E000000 		.4byte	.LBB22
 1363 0613 14000000 		.4byte	.LBE22
 1364 0617 01       		.byte	0x1
 1365 0618 8A       		.byte	0x8a
 1366 0619 3A060000 		.4byte	0x63a
 1367 061d 1C       		.uleb128 0x1c
 1368 061e 6D040000 		.4byte	0x46d
 1369 0622 6F010000 		.4byte	.LLST12
 1370 0626 22       		.uleb128 0x22
 1371 0627 0E000000 		.4byte	.LBB23
 1372 062b 14000000 		.4byte	.LBE23
 1373 062f 1E       		.uleb128 0x1e
 1374 0630 78040000 		.4byte	0x478
 1375 0634 82010000 		.4byte	.LLST13
 1376 0638 00       		.byte	0
 1377 0639 00       		.byte	0
 1378 063a 23       		.uleb128 0x23
 1379 063b 18000000 		.4byte	.LVL18
 1380 063f 87090000 		.4byte	0x987
 1381 0643 00       		.byte	0
 1382 0644 17       		.uleb128 0x17
 1383 0645 01       		.byte	0x1
 1384 0646 25020000 		.4byte	.LASF68
 1385 064a 01       		.byte	0x1
 1386 064b 6E       		.byte	0x6e
 1387 064c 01       		.byte	0x1
 1388 064d 00000000 		.4byte	.LFB10
 1389 0651 18000000 		.4byte	.LFE10
 1390 0655 95010000 		.4byte	.LLST14
 1391 0659 01       		.byte	0x1
 1392 065a C5060000 		.4byte	0x6c5
 1393 065e 18       		.uleb128 0x18
 1394 065f 637000   		.ascii	"cp\000"
 1395 0662 01       		.byte	0x1
 1396 0663 6E       		.byte	0x6e
 1397 0664 DC040000 		.4byte	0x4dc
 1398 0668 B5010000 		.4byte	.LLST15
 1399 066c 19       		.uleb128 0x19
 1400 066d 02000000 		.4byte	.LBB24
 1401 0671 08000000 		.4byte	.LBE24
 1402 0675 89060000 		.4byte	0x689
 1403 0679 1A       		.uleb128 0x1a
 1404 067a 746D7000 		.ascii	"tmp\000"
 1405 067e 01       		.byte	0x1
 1406 067f 70       		.byte	0x70
 1407 0680 70000000 		.4byte	0x70
 1408 0684 D6010000 		.4byte	.LLST16
 1409 0688 00       		.byte	0
 1410 0689 19       		.uleb128 0x19
 1411 068a 10000000 		.4byte	.LBB25
ARM GAS  /var/folders/dt/0wfd0knj7gs46m8vwfzktm600000gn/T//ccm4MCQp.s 			page 26


 1412 068e 18000000 		.4byte	.LBE25
 1413 0692 A6060000 		.4byte	0x6a6
 1414 0696 1A       		.uleb128 0x1a
 1415 0697 746D7000 		.ascii	"tmp\000"
 1416 069b 01       		.byte	0x1
 1417 069c 73       		.byte	0x73
 1418 069d 70000000 		.4byte	0x70
 1419 06a1 E9010000 		.4byte	.LLST17
 1420 06a5 00       		.byte	0
 1421 06a6 24       		.uleb128 0x24
 1422 06a7 0C000000 		.4byte	.LVL23
 1423 06ab E2050000 		.4byte	0x5e2
 1424 06af BB060000 		.4byte	0x6bb
 1425 06b3 20       		.uleb128 0x20
 1426 06b4 01       		.byte	0x1
 1427 06b5 50       		.byte	0x50
 1428 06b6 03       		.byte	0x3
 1429 06b7 F3       		.byte	0xf3
 1430 06b8 01       		.uleb128 0x1
 1431 06b9 50       		.byte	0x50
 1432 06ba 00       		.byte	0
 1433 06bb 23       		.uleb128 0x23
 1434 06bc 10000000 		.4byte	.LVL24
 1435 06c0 9F090000 		.4byte	0x99f
 1436 06c4 00       		.byte	0
 1437 06c5 25       		.uleb128 0x25
 1438 06c6 01       		.byte	0x1
 1439 06c7 FF020000 		.4byte	.LASF69
 1440 06cb 01       		.byte	0x1
 1441 06cc B8       		.byte	0xb8
 1442 06cd 01       		.byte	0x1
 1443 06ce BC000000 		.4byte	0xbc
 1444 06d2 00000000 		.4byte	.LFB13
 1445 06d6 48000000 		.4byte	.LFE13
 1446 06da FC010000 		.4byte	.LLST18
 1447 06de 01       		.byte	0x1
 1448 06df 7D070000 		.4byte	0x77d
 1449 06e3 18       		.uleb128 0x18
 1450 06e4 637000   		.ascii	"cp\000"
 1451 06e7 01       		.byte	0x1
 1452 06e8 B8       		.byte	0xb8
 1453 06e9 DC040000 		.4byte	0x4dc
 1454 06ed 1C020000 		.4byte	.LLST19
 1455 06f1 1A       		.uleb128 0x1a
 1456 06f2 63747000 		.ascii	"ctp\000"
 1457 06f6 01       		.byte	0x1
 1458 06f7 B9       		.byte	0xb9
 1459 06f8 2F020000 		.4byte	0x22f
 1460 06fc 3A020000 		.4byte	.LLST20
 1461 0700 1A       		.uleb128 0x1a
 1462 0701 6D7000   		.ascii	"mp\000"
 1463 0704 01       		.byte	0x1
 1464 0705 BA       		.byte	0xba
 1465 0706 56040000 		.4byte	0x456
 1466 070a 58020000 		.4byte	.LLST21
 1467 070e 1A       		.uleb128 0x1a
 1468 070f 6D736700 		.ascii	"msg\000"
ARM GAS  /var/folders/dt/0wfd0knj7gs46m8vwfzktm600000gn/T//ccm4MCQp.s 			page 27


 1469 0713 01       		.byte	0x1
 1470 0714 BB       		.byte	0xbb
 1471 0715 BC000000 		.4byte	0xbc
 1472 0719 81020000 		.4byte	.LLST22
 1473 071d 1B       		.uleb128 0x1b
 1474 071e 89040000 		.4byte	0x489
 1475 0722 16000000 		.4byte	.LBB26
 1476 0726 30000000 		.4byte	.Ldebug_ranges0+0x30
 1477 072a 01       		.byte	0x1
 1478 072b C5       		.byte	0xc5
 1479 072c 50070000 		.4byte	0x750
 1480 0730 26       		.uleb128 0x26
 1481 0731 A0040000 		.4byte	0x4a0
 1482 0735 01       		.byte	0x1
 1483 0736 55       		.byte	0x55
 1484 0737 1C       		.uleb128 0x1c
 1485 0738 96040000 		.4byte	0x496
 1486 073c 94020000 		.4byte	.LLST23
 1487 0740 1D       		.uleb128 0x1d
 1488 0741 48000000 		.4byte	.Ldebug_ranges0+0x48
 1489 0745 1E       		.uleb128 0x1e
 1490 0746 AB040000 		.4byte	0x4ab
 1491 074a B2020000 		.4byte	.LLST24
 1492 074e 00       		.byte	0
 1493 074f 00       		.byte	0
 1494 0750 23       		.uleb128 0x23
 1495 0751 0C000000 		.4byte	.LVL29
 1496 0755 A9090000 		.4byte	0x9a9
 1497 0759 24       		.uleb128 0x24
 1498 075a 34000000 		.4byte	.LVL35
 1499 075e B7090000 		.4byte	0x9b7
 1500 0762 6C070000 		.4byte	0x76c
 1501 0766 20       		.uleb128 0x20
 1502 0767 01       		.byte	0x1
 1503 0768 50       		.byte	0x50
 1504 0769 01       		.byte	0x1
 1505 076a 35       		.byte	0x35
 1506 076b 00       		.byte	0
 1507 076c 1F       		.uleb128 0x1f
 1508 076d 3C000000 		.4byte	.LVL37
 1509 0771 CB090000 		.4byte	0x9cb
 1510 0775 20       		.uleb128 0x20
 1511 0776 01       		.byte	0x1
 1512 0777 50       		.byte	0x50
 1513 0778 02       		.byte	0x2
 1514 0779 77       		.byte	0x77
 1515 077a 00       		.sleb128 0
 1516 077b 00       		.byte	0
 1517 077c 00       		.byte	0
 1518 077d 25       		.uleb128 0x25
 1519 077e 01       		.byte	0x1
 1520 077f 27030000 		.4byte	.LASF70
 1521 0783 01       		.byte	0x1
 1522 0784 9E       		.byte	0x9e
 1523 0785 01       		.byte	0x1
 1524 0786 BC000000 		.4byte	0xbc
 1525 078a 00000000 		.4byte	.LFB12
ARM GAS  /var/folders/dt/0wfd0knj7gs46m8vwfzktm600000gn/T//ccm4MCQp.s 			page 28


 1526 078e 14000000 		.4byte	.LFE12
 1527 0792 DB020000 		.4byte	.LLST25
 1528 0796 01       		.byte	0x1
 1529 0797 02080000 		.4byte	0x802
 1530 079b 18       		.uleb128 0x18
 1531 079c 637000   		.ascii	"cp\000"
 1532 079f 01       		.byte	0x1
 1533 07a0 9E       		.byte	0x9e
 1534 07a1 DC040000 		.4byte	0x4dc
 1535 07a5 FB020000 		.4byte	.LLST26
 1536 07a9 27       		.uleb128 0x27
 1537 07aa 6D736700 		.ascii	"msg\000"
 1538 07ae 01       		.byte	0x1
 1539 07af 9F       		.byte	0x9f
 1540 07b0 BC000000 		.4byte	0xbc
 1541 07b4 01       		.byte	0x1
 1542 07b5 50       		.byte	0x50
 1543 07b6 19       		.uleb128 0x19
 1544 07b7 02000000 		.4byte	.LBB30
 1545 07bb 08000000 		.4byte	.LBE30
 1546 07bf D3070000 		.4byte	0x7d3
 1547 07c3 1A       		.uleb128 0x1a
 1548 07c4 746D7000 		.ascii	"tmp\000"
 1549 07c8 01       		.byte	0x1
 1550 07c9 A1       		.byte	0xa1
 1551 07ca 70000000 		.4byte	0x70
 1552 07ce 1C030000 		.4byte	.LLST27
 1553 07d2 00       		.byte	0
 1554 07d3 19       		.uleb128 0x19
 1555 07d4 0C000000 		.4byte	.LBB31
 1556 07d8 12000000 		.4byte	.LBE31
 1557 07dc F0070000 		.4byte	0x7f0
 1558 07e0 1A       		.uleb128 0x1a
 1559 07e1 746D7000 		.ascii	"tmp\000"
 1560 07e5 01       		.byte	0x1
 1561 07e6 A3       		.byte	0xa3
 1562 07e7 70000000 		.4byte	0x70
 1563 07eb 2F030000 		.4byte	.LLST28
 1564 07ef 00       		.byte	0
 1565 07f0 1F       		.uleb128 0x1f
 1566 07f1 0C000000 		.4byte	.LVL42
 1567 07f5 C5060000 		.4byte	0x6c5
 1568 07f9 20       		.uleb128 0x20
 1569 07fa 01       		.byte	0x1
 1570 07fb 50       		.byte	0x50
 1571 07fc 03       		.byte	0x3
 1572 07fd F3       		.byte	0xf3
 1573 07fe 01       		.uleb128 0x1
 1574 07ff 50       		.byte	0x50
 1575 0800 00       		.byte	0
 1576 0801 00       		.byte	0
 1577 0802 28       		.uleb128 0x28
 1578 0803 01       		.byte	0x1
 1579 0804 D4010000 		.4byte	.LASF71
 1580 0808 01       		.byte	0x1
 1581 0809 0E01     		.2byte	0x10e
 1582 080b 01       		.byte	0x1
ARM GAS  /var/folders/dt/0wfd0knj7gs46m8vwfzktm600000gn/T//ccm4MCQp.s 			page 29


 1583 080c BC000000 		.4byte	0xbc
 1584 0810 00000000 		.4byte	.LFB15
 1585 0814 4C000000 		.4byte	.LFE15
 1586 0818 42030000 		.4byte	.LLST29
 1587 081c 01       		.byte	0x1
 1588 081d C6080000 		.4byte	0x8c6
 1589 0821 29       		.uleb128 0x29
 1590 0822 637000   		.ascii	"cp\000"
 1591 0825 01       		.byte	0x1
 1592 0826 0E01     		.2byte	0x10e
 1593 0828 DC040000 		.4byte	0x4dc
 1594 082c 62030000 		.4byte	.LLST30
 1595 0830 2A       		.uleb128 0x2a
 1596 0831 02020000 		.4byte	.LASF72
 1597 0835 01       		.byte	0x1
 1598 0836 0E01     		.2byte	0x10e
 1599 0838 D2000000 		.4byte	0xd2
 1600 083c 80030000 		.4byte	.LLST31
 1601 0840 2B       		.uleb128 0x2b
 1602 0841 6D7000   		.ascii	"mp\000"
 1603 0844 01       		.byte	0x1
 1604 0845 0F01     		.2byte	0x10f
 1605 0847 56040000 		.4byte	0x456
 1606 084b 9E030000 		.4byte	.LLST32
 1607 084f 2B       		.uleb128 0x2b
 1608 0850 6D736700 		.ascii	"msg\000"
 1609 0854 01       		.byte	0x1
 1610 0855 1001     		.2byte	0x110
 1611 0857 BC000000 		.4byte	0xbc
 1612 085b BC030000 		.4byte	.LLST33
 1613 085f 2C       		.uleb128 0x2c
 1614 0860 89040000 		.4byte	0x489
 1615 0864 16000000 		.4byte	.LBB32
 1616 0868 60000000 		.4byte	.Ldebug_ranges0+0x60
 1617 086c 01       		.byte	0x1
 1618 086d 1A01     		.2byte	0x11a
 1619 086f 93080000 		.4byte	0x893
 1620 0873 26       		.uleb128 0x26
 1621 0874 A0040000 		.4byte	0x4a0
 1622 0878 01       		.byte	0x1
 1623 0879 56       		.byte	0x56
 1624 087a 1C       		.uleb128 0x1c
 1625 087b 96040000 		.4byte	0x496
 1626 087f DA030000 		.4byte	.LLST34
 1627 0883 1D       		.uleb128 0x1d
 1628 0884 80000000 		.4byte	.Ldebug_ranges0+0x80
 1629 0888 1E       		.uleb128 0x1e
 1630 0889 AB040000 		.4byte	0x4ab
 1631 088d ED030000 		.4byte	.LLST35
 1632 0891 00       		.byte	0
 1633 0892 00       		.byte	0
 1634 0893 23       		.uleb128 0x23
 1635 0894 0C000000 		.4byte	.LVL46
 1636 0898 A9090000 		.4byte	0x9a9
 1637 089c 24       		.uleb128 0x24
 1638 089d 36000000 		.4byte	.LVL51
 1639 08a1 DF090000 		.4byte	0x9df
ARM GAS  /var/folders/dt/0wfd0knj7gs46m8vwfzktm600000gn/T//ccm4MCQp.s 			page 30


 1640 08a5 B5080000 		.4byte	0x8b5
 1641 08a9 20       		.uleb128 0x20
 1642 08aa 01       		.byte	0x1
 1643 08ab 51       		.byte	0x51
 1644 08ac 02       		.byte	0x2
 1645 08ad 78       		.byte	0x78
 1646 08ae 00       		.sleb128 0
 1647 08af 20       		.uleb128 0x20
 1648 08b0 01       		.byte	0x1
 1649 08b1 50       		.byte	0x50
 1650 08b2 01       		.byte	0x1
 1651 08b3 35       		.byte	0x35
 1652 08b4 00       		.byte	0
 1653 08b5 1F       		.uleb128 0x1f
 1654 08b6 42000000 		.4byte	.LVL54
 1655 08ba CB090000 		.4byte	0x9cb
 1656 08be 20       		.uleb128 0x20
 1657 08bf 01       		.byte	0x1
 1658 08c0 50       		.byte	0x50
 1659 08c1 02       		.byte	0x2
 1660 08c2 77       		.byte	0x77
 1661 08c3 00       		.sleb128 0
 1662 08c4 00       		.byte	0
 1663 08c5 00       		.byte	0
 1664 08c6 25       		.uleb128 0x25
 1665 08c7 01       		.byte	0x1
 1666 08c8 85030000 		.4byte	.LASF73
 1667 08cc 01       		.byte	0x1
 1668 08cd E9       		.byte	0xe9
 1669 08ce 01       		.byte	0x1
 1670 08cf BC000000 		.4byte	0xbc
 1671 08d3 00000000 		.4byte	.LFB14
 1672 08d7 14000000 		.4byte	.LFE14
 1673 08db 00040000 		.4byte	.LLST36
 1674 08df 01       		.byte	0x1
 1675 08e0 61090000 		.4byte	0x961
 1676 08e4 18       		.uleb128 0x18
 1677 08e5 637000   		.ascii	"cp\000"
 1678 08e8 01       		.byte	0x1
 1679 08e9 E9       		.byte	0xe9
 1680 08ea DC040000 		.4byte	0x4dc
 1681 08ee 20040000 		.4byte	.LLST37
 1682 08f2 2D       		.uleb128 0x2d
 1683 08f3 02020000 		.4byte	.LASF72
 1684 08f7 01       		.byte	0x1
 1685 08f8 E9       		.byte	0xe9
 1686 08f9 D2000000 		.4byte	0xd2
 1687 08fd 41040000 		.4byte	.LLST38
 1688 0901 27       		.uleb128 0x27
 1689 0902 6D736700 		.ascii	"msg\000"
 1690 0906 01       		.byte	0x1
 1691 0907 EA       		.byte	0xea
 1692 0908 BC000000 		.4byte	0xbc
 1693 090c 01       		.byte	0x1
 1694 090d 50       		.byte	0x50
 1695 090e 19       		.uleb128 0x19
 1696 090f 02000000 		.4byte	.LBB38
ARM GAS  /var/folders/dt/0wfd0knj7gs46m8vwfzktm600000gn/T//ccm4MCQp.s 			page 31


 1697 0913 08000000 		.4byte	.LBE38
 1698 0917 2B090000 		.4byte	0x92b
 1699 091b 1A       		.uleb128 0x1a
 1700 091c 746D7000 		.ascii	"tmp\000"
 1701 0920 01       		.byte	0x1
 1702 0921 EC       		.byte	0xec
 1703 0922 70000000 		.4byte	0x70
 1704 0926 62040000 		.4byte	.LLST39
 1705 092a 00       		.byte	0
 1706 092b 19       		.uleb128 0x19
 1707 092c 0C000000 		.4byte	.LBB39
 1708 0930 12000000 		.4byte	.LBE39
 1709 0934 48090000 		.4byte	0x948
 1710 0938 1A       		.uleb128 0x1a
 1711 0939 746D7000 		.ascii	"tmp\000"
 1712 093d 01       		.byte	0x1
 1713 093e EE       		.byte	0xee
 1714 093f 70000000 		.4byte	0x70
 1715 0943 75040000 		.4byte	.LLST40
 1716 0947 00       		.byte	0
 1717 0948 1F       		.uleb128 0x1f
 1718 0949 0C000000 		.4byte	.LVL58
 1719 094d 02080000 		.4byte	0x802
 1720 0951 20       		.uleb128 0x20
 1721 0952 01       		.byte	0x1
 1722 0953 51       		.byte	0x51
 1723 0954 03       		.byte	0x3
 1724 0955 F3       		.byte	0xf3
 1725 0956 01       		.uleb128 0x1
 1726 0957 51       		.byte	0x51
 1727 0958 20       		.uleb128 0x20
 1728 0959 01       		.byte	0x1
 1729 095a 50       		.byte	0x50
 1730 095b 03       		.byte	0x3
 1731 095c F3       		.byte	0xf3
 1732 095d 01       		.uleb128 0x1
 1733 095e 50       		.byte	0x50
 1734 095f 00       		.byte	0
 1735 0960 00       		.byte	0
 1736 0961 2E       		.uleb128 0x2e
 1737 0962 69030000 		.4byte	.LASF83
 1738 0966 08       		.byte	0x8
 1739 0967 72       		.byte	0x72
 1740 0968 96030000 		.4byte	0x396
 1741 096c 01       		.byte	0x1
 1742 096d 01       		.byte	0x1
 1743 096e 2F       		.uleb128 0x2f
 1744 096f 01       		.byte	0x1
 1745 0970 4B030000 		.4byte	.LASF74
 1746 0974 08       		.byte	0x8
 1747 0975 9C       		.byte	0x9c
 1748 0976 01       		.byte	0x1
 1749 0977 01       		.byte	0x1
 1750 0978 87090000 		.4byte	0x987
 1751 097c 30       		.uleb128 0x30
 1752 097d 2F020000 		.4byte	0x22f
 1753 0981 30       		.uleb128 0x30
ARM GAS  /var/folders/dt/0wfd0knj7gs46m8vwfzktm600000gn/T//ccm4MCQp.s 			page 32


 1754 0982 BC000000 		.4byte	0xbc
 1755 0986 00       		.byte	0
 1756 0987 31       		.uleb128 0x31
 1757 0988 01       		.byte	0x1
 1758 0989 E2020000 		.4byte	.LASF84
 1759 098d 08       		.byte	0x8
 1760 098e 93       		.byte	0x93
 1761 098f 01       		.byte	0x1
 1762 0990 2F020000 		.4byte	0x22f
 1763 0994 01       		.byte	0x1
 1764 0995 9F090000 		.4byte	0x99f
 1765 0999 30       		.uleb128 0x30
 1766 099a 2F020000 		.4byte	0x22f
 1767 099e 00       		.byte	0
 1768 099f 32       		.uleb128 0x32
 1769 09a0 01       		.byte	0x1
 1770 09a1 FA000000 		.4byte	.LASF85
 1771 09a5 08       		.byte	0x8
 1772 09a6 9F       		.byte	0x9f
 1773 09a7 01       		.byte	0x1
 1774 09a8 01       		.byte	0x1
 1775 09a9 33       		.uleb128 0x33
 1776 09aa 01       		.byte	0x1
 1777 09ab 4C010000 		.4byte	.LASF86
 1778 09af 09       		.byte	0x9
 1779 09b0 3E       		.byte	0x3e
 1780 09b1 01       		.byte	0x1
 1781 09b2 56040000 		.4byte	0x456
 1782 09b6 01       		.byte	0x1
 1783 09b7 2F       		.uleb128 0x2f
 1784 09b8 01       		.byte	0x1
 1785 09b9 B8020000 		.4byte	.LASF75
 1786 09bd 08       		.byte	0x8
 1787 09be 96       		.byte	0x96
 1788 09bf 01       		.byte	0x1
 1789 09c0 01       		.byte	0x1
 1790 09c1 CB090000 		.4byte	0x9cb
 1791 09c5 30       		.uleb128 0x30
 1792 09c6 9B000000 		.4byte	0x9b
 1793 09ca 00       		.byte	0
 1794 09cb 2F       		.uleb128 0x2f
 1795 09cc 01       		.byte	0x1
 1796 09cd E7000000 		.4byte	.LASF76
 1797 09d1 09       		.byte	0x9
 1798 09d2 3A       		.byte	0x3a
 1799 09d3 01       		.byte	0x1
 1800 09d4 01       		.byte	0x1
 1801 09d5 DF090000 		.4byte	0x9df
 1802 09d9 30       		.uleb128 0x30
 1803 09da 56040000 		.4byte	0x456
 1804 09de 00       		.byte	0
 1805 09df 34       		.uleb128 0x34
 1806 09e0 01       		.byte	0x1
 1807 09e1 97030000 		.4byte	.LASF77
 1808 09e5 08       		.byte	0x8
 1809 09e6 99       		.byte	0x99
 1810 09e7 01       		.byte	0x1
ARM GAS  /var/folders/dt/0wfd0knj7gs46m8vwfzktm600000gn/T//ccm4MCQp.s 			page 33


 1811 09e8 BC000000 		.4byte	0xbc
 1812 09ec 01       		.byte	0x1
 1813 09ed 30       		.uleb128 0x30
 1814 09ee 9B000000 		.4byte	0x9b
 1815 09f2 30       		.uleb128 0x30
 1816 09f3 D2000000 		.4byte	0xd2
 1817 09f7 00       		.byte	0
 1818 09f8 00       		.byte	0
 1819              		.section	.debug_abbrev,"",%progbits
 1820              	.Ldebug_abbrev0:
 1821 0000 01       		.uleb128 0x1
 1822 0001 11       		.uleb128 0x11
 1823 0002 01       		.byte	0x1
 1824 0003 25       		.uleb128 0x25
 1825 0004 0E       		.uleb128 0xe
 1826 0005 13       		.uleb128 0x13
 1827 0006 0B       		.uleb128 0xb
 1828 0007 03       		.uleb128 0x3
 1829 0008 0E       		.uleb128 0xe
 1830 0009 1B       		.uleb128 0x1b
 1831 000a 0E       		.uleb128 0xe
 1832 000b 55       		.uleb128 0x55
 1833 000c 06       		.uleb128 0x6
 1834 000d 11       		.uleb128 0x11
 1835 000e 01       		.uleb128 0x1
 1836 000f 52       		.uleb128 0x52
 1837 0010 01       		.uleb128 0x1
 1838 0011 10       		.uleb128 0x10
 1839 0012 06       		.uleb128 0x6
 1840 0013 00       		.byte	0
 1841 0014 00       		.byte	0
 1842 0015 02       		.uleb128 0x2
 1843 0016 24       		.uleb128 0x24
 1844 0017 00       		.byte	0
 1845 0018 0B       		.uleb128 0xb
 1846 0019 0B       		.uleb128 0xb
 1847 001a 3E       		.uleb128 0x3e
 1848 001b 0B       		.uleb128 0xb
 1849 001c 03       		.uleb128 0x3
 1850 001d 08       		.uleb128 0x8
 1851 001e 00       		.byte	0
 1852 001f 00       		.byte	0
 1853 0020 03       		.uleb128 0x3
 1854 0021 24       		.uleb128 0x24
 1855 0022 00       		.byte	0
 1856 0023 0B       		.uleb128 0xb
 1857 0024 0B       		.uleb128 0xb
 1858 0025 3E       		.uleb128 0x3e
 1859 0026 0B       		.uleb128 0xb
 1860 0027 03       		.uleb128 0x3
 1861 0028 0E       		.uleb128 0xe
 1862 0029 00       		.byte	0
 1863 002a 00       		.byte	0
 1864 002b 04       		.uleb128 0x4
 1865 002c 16       		.uleb128 0x16
 1866 002d 00       		.byte	0
 1867 002e 03       		.uleb128 0x3
ARM GAS  /var/folders/dt/0wfd0knj7gs46m8vwfzktm600000gn/T//ccm4MCQp.s 			page 34


 1868 002f 0E       		.uleb128 0xe
 1869 0030 3A       		.uleb128 0x3a
 1870 0031 0B       		.uleb128 0xb
 1871 0032 3B       		.uleb128 0x3b
 1872 0033 0B       		.uleb128 0xb
 1873 0034 49       		.uleb128 0x49
 1874 0035 13       		.uleb128 0x13
 1875 0036 00       		.byte	0
 1876 0037 00       		.byte	0
 1877 0038 05       		.uleb128 0x5
 1878 0039 13       		.uleb128 0x13
 1879 003a 01       		.byte	0x1
 1880 003b 03       		.uleb128 0x3
 1881 003c 0E       		.uleb128 0xe
 1882 003d 0B       		.uleb128 0xb
 1883 003e 0B       		.uleb128 0xb
 1884 003f 3A       		.uleb128 0x3a
 1885 0040 0B       		.uleb128 0xb
 1886 0041 3B       		.uleb128 0x3b
 1887 0042 0B       		.uleb128 0xb
 1888 0043 01       		.uleb128 0x1
 1889 0044 13       		.uleb128 0x13
 1890 0045 00       		.byte	0
 1891 0046 00       		.byte	0
 1892 0047 06       		.uleb128 0x6
 1893 0048 0D       		.uleb128 0xd
 1894 0049 00       		.byte	0
 1895 004a 03       		.uleb128 0x3
 1896 004b 0E       		.uleb128 0xe
 1897 004c 3A       		.uleb128 0x3a
 1898 004d 0B       		.uleb128 0xb
 1899 004e 3B       		.uleb128 0x3b
 1900 004f 0B       		.uleb128 0xb
 1901 0050 49       		.uleb128 0x49
 1902 0051 13       		.uleb128 0x13
 1903 0052 38       		.uleb128 0x38
 1904 0053 0A       		.uleb128 0xa
 1905 0054 00       		.byte	0
 1906 0055 00       		.byte	0
 1907 0056 07       		.uleb128 0x7
 1908 0057 0D       		.uleb128 0xd
 1909 0058 00       		.byte	0
 1910 0059 03       		.uleb128 0x3
 1911 005a 08       		.uleb128 0x8
 1912 005b 3A       		.uleb128 0x3a
 1913 005c 0B       		.uleb128 0xb
 1914 005d 3B       		.uleb128 0x3b
 1915 005e 0B       		.uleb128 0xb
 1916 005f 49       		.uleb128 0x49
 1917 0060 13       		.uleb128 0x13
 1918 0061 38       		.uleb128 0x38
 1919 0062 0A       		.uleb128 0xa
 1920 0063 00       		.byte	0
 1921 0064 00       		.byte	0
 1922 0065 08       		.uleb128 0x8
 1923 0066 13       		.uleb128 0x13
 1924 0067 01       		.byte	0x1
ARM GAS  /var/folders/dt/0wfd0knj7gs46m8vwfzktm600000gn/T//ccm4MCQp.s 			page 35


 1925 0068 0B       		.uleb128 0xb
 1926 0069 0B       		.uleb128 0xb
 1927 006a 3A       		.uleb128 0x3a
 1928 006b 0B       		.uleb128 0xb
 1929 006c 3B       		.uleb128 0x3b
 1930 006d 0B       		.uleb128 0xb
 1931 006e 01       		.uleb128 0x1
 1932 006f 13       		.uleb128 0x13
 1933 0070 00       		.byte	0
 1934 0071 00       		.byte	0
 1935 0072 09       		.uleb128 0x9
 1936 0073 0F       		.uleb128 0xf
 1937 0074 00       		.byte	0
 1938 0075 0B       		.uleb128 0xb
 1939 0076 0B       		.uleb128 0xb
 1940 0077 49       		.uleb128 0x49
 1941 0078 13       		.uleb128 0x13
 1942 0079 00       		.byte	0
 1943 007a 00       		.byte	0
 1944 007b 0A       		.uleb128 0xa
 1945 007c 0F       		.uleb128 0xf
 1946 007d 00       		.byte	0
 1947 007e 0B       		.uleb128 0xb
 1948 007f 0B       		.uleb128 0xb
 1949 0080 00       		.byte	0
 1950 0081 00       		.byte	0
 1951 0082 0B       		.uleb128 0xb
 1952 0083 0D       		.uleb128 0xd
 1953 0084 00       		.byte	0
 1954 0085 03       		.uleb128 0x3
 1955 0086 08       		.uleb128 0x8
 1956 0087 3A       		.uleb128 0x3a
 1957 0088 0B       		.uleb128 0xb
 1958 0089 3B       		.uleb128 0x3b
 1959 008a 05       		.uleb128 0x5
 1960 008b 49       		.uleb128 0x49
 1961 008c 13       		.uleb128 0x13
 1962 008d 38       		.uleb128 0x38
 1963 008e 0A       		.uleb128 0xa
 1964 008f 00       		.byte	0
 1965 0090 00       		.byte	0
 1966 0091 0C       		.uleb128 0xc
 1967 0092 13       		.uleb128 0x13
 1968 0093 01       		.byte	0x1
 1969 0094 03       		.uleb128 0x3
 1970 0095 0E       		.uleb128 0xe
 1971 0096 0B       		.uleb128 0xb
 1972 0097 0B       		.uleb128 0xb
 1973 0098 3A       		.uleb128 0x3a
 1974 0099 0B       		.uleb128 0xb
 1975 009a 3B       		.uleb128 0x3b
 1976 009b 05       		.uleb128 0x5
 1977 009c 01       		.uleb128 0x1
 1978 009d 13       		.uleb128 0x13
 1979 009e 00       		.byte	0
 1980 009f 00       		.byte	0
 1981 00a0 0D       		.uleb128 0xd
ARM GAS  /var/folders/dt/0wfd0knj7gs46m8vwfzktm600000gn/T//ccm4MCQp.s 			page 36


 1982 00a1 35       		.uleb128 0x35
 1983 00a2 00       		.byte	0
 1984 00a3 49       		.uleb128 0x49
 1985 00a4 13       		.uleb128 0x13
 1986 00a5 00       		.byte	0
 1987 00a6 00       		.byte	0
 1988 00a7 0E       		.uleb128 0xe
 1989 00a8 17       		.uleb128 0x17
 1990 00a9 01       		.byte	0x1
 1991 00aa 0B       		.uleb128 0xb
 1992 00ab 0B       		.uleb128 0xb
 1993 00ac 3A       		.uleb128 0x3a
 1994 00ad 0B       		.uleb128 0xb
 1995 00ae 3B       		.uleb128 0x3b
 1996 00af 0B       		.uleb128 0xb
 1997 00b0 01       		.uleb128 0x1
 1998 00b1 13       		.uleb128 0x13
 1999 00b2 00       		.byte	0
 2000 00b3 00       		.byte	0
 2001 00b4 0F       		.uleb128 0xf
 2002 00b5 0D       		.uleb128 0xd
 2003 00b6 00       		.byte	0
 2004 00b7 03       		.uleb128 0x3
 2005 00b8 0E       		.uleb128 0xe
 2006 00b9 3A       		.uleb128 0x3a
 2007 00ba 0B       		.uleb128 0xb
 2008 00bb 3B       		.uleb128 0x3b
 2009 00bc 0B       		.uleb128 0xb
 2010 00bd 49       		.uleb128 0x49
 2011 00be 13       		.uleb128 0x13
 2012 00bf 00       		.byte	0
 2013 00c0 00       		.byte	0
 2014 00c1 10       		.uleb128 0x10
 2015 00c2 26       		.uleb128 0x26
 2016 00c3 00       		.byte	0
 2017 00c4 49       		.uleb128 0x49
 2018 00c5 13       		.uleb128 0x13
 2019 00c6 00       		.byte	0
 2020 00c7 00       		.byte	0
 2021 00c8 11       		.uleb128 0x11
 2022 00c9 2E       		.uleb128 0x2e
 2023 00ca 01       		.byte	0x1
 2024 00cb 03       		.uleb128 0x3
 2025 00cc 0E       		.uleb128 0xe
 2026 00cd 3A       		.uleb128 0x3a
 2027 00ce 0B       		.uleb128 0xb
 2028 00cf 3B       		.uleb128 0x3b
 2029 00d0 0B       		.uleb128 0xb
 2030 00d1 27       		.uleb128 0x27
 2031 00d2 0C       		.uleb128 0xc
 2032 00d3 49       		.uleb128 0x49
 2033 00d4 13       		.uleb128 0x13
 2034 00d5 20       		.uleb128 0x20
 2035 00d6 0B       		.uleb128 0xb
 2036 00d7 01       		.uleb128 0x1
 2037 00d8 13       		.uleb128 0x13
 2038 00d9 00       		.byte	0
ARM GAS  /var/folders/dt/0wfd0knj7gs46m8vwfzktm600000gn/T//ccm4MCQp.s 			page 37


 2039 00da 00       		.byte	0
 2040 00db 12       		.uleb128 0x12
 2041 00dc 05       		.uleb128 0x5
 2042 00dd 00       		.byte	0
 2043 00de 03       		.uleb128 0x3
 2044 00df 08       		.uleb128 0x8
 2045 00e0 3A       		.uleb128 0x3a
 2046 00e1 0B       		.uleb128 0xb
 2047 00e2 3B       		.uleb128 0x3b
 2048 00e3 0B       		.uleb128 0xb
 2049 00e4 49       		.uleb128 0x49
 2050 00e5 13       		.uleb128 0x13
 2051 00e6 00       		.byte	0
 2052 00e7 00       		.byte	0
 2053 00e8 13       		.uleb128 0x13
 2054 00e9 34       		.uleb128 0x34
 2055 00ea 00       		.byte	0
 2056 00eb 03       		.uleb128 0x3
 2057 00ec 08       		.uleb128 0x8
 2058 00ed 3A       		.uleb128 0x3a
 2059 00ee 0B       		.uleb128 0xb
 2060 00ef 3B       		.uleb128 0x3b
 2061 00f0 0B       		.uleb128 0xb
 2062 00f1 49       		.uleb128 0x49
 2063 00f2 13       		.uleb128 0x13
 2064 00f3 00       		.byte	0
 2065 00f4 00       		.byte	0
 2066 00f5 14       		.uleb128 0x14
 2067 00f6 2E       		.uleb128 0x2e
 2068 00f7 01       		.byte	0x1
 2069 00f8 03       		.uleb128 0x3
 2070 00f9 0E       		.uleb128 0xe
 2071 00fa 3A       		.uleb128 0x3a
 2072 00fb 0B       		.uleb128 0xb
 2073 00fc 3B       		.uleb128 0x3b
 2074 00fd 0B       		.uleb128 0xb
 2075 00fe 27       		.uleb128 0x27
 2076 00ff 0C       		.uleb128 0xc
 2077 0100 20       		.uleb128 0x20
 2078 0101 0B       		.uleb128 0xb
 2079 0102 01       		.uleb128 0x1
 2080 0103 13       		.uleb128 0x13
 2081 0104 00       		.byte	0
 2082 0105 00       		.byte	0
 2083 0106 15       		.uleb128 0x15
 2084 0107 2E       		.uleb128 0x2e
 2085 0108 01       		.byte	0x1
 2086 0109 3F       		.uleb128 0x3f
 2087 010a 0C       		.uleb128 0xc
 2088 010b 03       		.uleb128 0x3
 2089 010c 0E       		.uleb128 0xe
 2090 010d 3A       		.uleb128 0x3a
 2091 010e 0B       		.uleb128 0xb
 2092 010f 3B       		.uleb128 0x3b
 2093 0110 0B       		.uleb128 0xb
 2094 0111 27       		.uleb128 0x27
 2095 0112 0C       		.uleb128 0xc
ARM GAS  /var/folders/dt/0wfd0knj7gs46m8vwfzktm600000gn/T//ccm4MCQp.s 			page 38


 2096 0113 11       		.uleb128 0x11
 2097 0114 01       		.uleb128 0x1
 2098 0115 12       		.uleb128 0x12
 2099 0116 01       		.uleb128 0x1
 2100 0117 40       		.uleb128 0x40
 2101 0118 0A       		.uleb128 0xa
 2102 0119 9742     		.uleb128 0x2117
 2103 011b 0C       		.uleb128 0xc
 2104 011c 01       		.uleb128 0x1
 2105 011d 13       		.uleb128 0x13
 2106 011e 00       		.byte	0
 2107 011f 00       		.byte	0
 2108 0120 16       		.uleb128 0x16
 2109 0121 05       		.uleb128 0x5
 2110 0122 00       		.byte	0
 2111 0123 03       		.uleb128 0x3
 2112 0124 08       		.uleb128 0x8
 2113 0125 3A       		.uleb128 0x3a
 2114 0126 0B       		.uleb128 0xb
 2115 0127 3B       		.uleb128 0x3b
 2116 0128 0B       		.uleb128 0xb
 2117 0129 49       		.uleb128 0x49
 2118 012a 13       		.uleb128 0x13
 2119 012b 02       		.uleb128 0x2
 2120 012c 0A       		.uleb128 0xa
 2121 012d 00       		.byte	0
 2122 012e 00       		.byte	0
 2123 012f 17       		.uleb128 0x17
 2124 0130 2E       		.uleb128 0x2e
 2125 0131 01       		.byte	0x1
 2126 0132 3F       		.uleb128 0x3f
 2127 0133 0C       		.uleb128 0xc
 2128 0134 03       		.uleb128 0x3
 2129 0135 0E       		.uleb128 0xe
 2130 0136 3A       		.uleb128 0x3a
 2131 0137 0B       		.uleb128 0xb
 2132 0138 3B       		.uleb128 0x3b
 2133 0139 0B       		.uleb128 0xb
 2134 013a 27       		.uleb128 0x27
 2135 013b 0C       		.uleb128 0xc
 2136 013c 11       		.uleb128 0x11
 2137 013d 01       		.uleb128 0x1
 2138 013e 12       		.uleb128 0x12
 2139 013f 01       		.uleb128 0x1
 2140 0140 40       		.uleb128 0x40
 2141 0141 06       		.uleb128 0x6
 2142 0142 9742     		.uleb128 0x2117
 2143 0144 0C       		.uleb128 0xc
 2144 0145 01       		.uleb128 0x1
 2145 0146 13       		.uleb128 0x13
 2146 0147 00       		.byte	0
 2147 0148 00       		.byte	0
 2148 0149 18       		.uleb128 0x18
 2149 014a 05       		.uleb128 0x5
 2150 014b 00       		.byte	0
 2151 014c 03       		.uleb128 0x3
 2152 014d 08       		.uleb128 0x8
ARM GAS  /var/folders/dt/0wfd0knj7gs46m8vwfzktm600000gn/T//ccm4MCQp.s 			page 39


 2153 014e 3A       		.uleb128 0x3a
 2154 014f 0B       		.uleb128 0xb
 2155 0150 3B       		.uleb128 0x3b
 2156 0151 0B       		.uleb128 0xb
 2157 0152 49       		.uleb128 0x49
 2158 0153 13       		.uleb128 0x13
 2159 0154 02       		.uleb128 0x2
 2160 0155 06       		.uleb128 0x6
 2161 0156 00       		.byte	0
 2162 0157 00       		.byte	0
 2163 0158 19       		.uleb128 0x19
 2164 0159 0B       		.uleb128 0xb
 2165 015a 01       		.byte	0x1
 2166 015b 11       		.uleb128 0x11
 2167 015c 01       		.uleb128 0x1
 2168 015d 12       		.uleb128 0x12
 2169 015e 01       		.uleb128 0x1
 2170 015f 01       		.uleb128 0x1
 2171 0160 13       		.uleb128 0x13
 2172 0161 00       		.byte	0
 2173 0162 00       		.byte	0
 2174 0163 1A       		.uleb128 0x1a
 2175 0164 34       		.uleb128 0x34
 2176 0165 00       		.byte	0
 2177 0166 03       		.uleb128 0x3
 2178 0167 08       		.uleb128 0x8
 2179 0168 3A       		.uleb128 0x3a
 2180 0169 0B       		.uleb128 0xb
 2181 016a 3B       		.uleb128 0x3b
 2182 016b 0B       		.uleb128 0xb
 2183 016c 49       		.uleb128 0x49
 2184 016d 13       		.uleb128 0x13
 2185 016e 02       		.uleb128 0x2
 2186 016f 06       		.uleb128 0x6
 2187 0170 00       		.byte	0
 2188 0171 00       		.byte	0
 2189 0172 1B       		.uleb128 0x1b
 2190 0173 1D       		.uleb128 0x1d
 2191 0174 01       		.byte	0x1
 2192 0175 31       		.uleb128 0x31
 2193 0176 13       		.uleb128 0x13
 2194 0177 52       		.uleb128 0x52
 2195 0178 01       		.uleb128 0x1
 2196 0179 55       		.uleb128 0x55
 2197 017a 06       		.uleb128 0x6
 2198 017b 58       		.uleb128 0x58
 2199 017c 0B       		.uleb128 0xb
 2200 017d 59       		.uleb128 0x59
 2201 017e 0B       		.uleb128 0xb
 2202 017f 01       		.uleb128 0x1
 2203 0180 13       		.uleb128 0x13
 2204 0181 00       		.byte	0
 2205 0182 00       		.byte	0
 2206 0183 1C       		.uleb128 0x1c
 2207 0184 05       		.uleb128 0x5
 2208 0185 00       		.byte	0
 2209 0186 31       		.uleb128 0x31
ARM GAS  /var/folders/dt/0wfd0knj7gs46m8vwfzktm600000gn/T//ccm4MCQp.s 			page 40


 2210 0187 13       		.uleb128 0x13
 2211 0188 02       		.uleb128 0x2
 2212 0189 06       		.uleb128 0x6
 2213 018a 00       		.byte	0
 2214 018b 00       		.byte	0
 2215 018c 1D       		.uleb128 0x1d
 2216 018d 0B       		.uleb128 0xb
 2217 018e 01       		.byte	0x1
 2218 018f 55       		.uleb128 0x55
 2219 0190 06       		.uleb128 0x6
 2220 0191 00       		.byte	0
 2221 0192 00       		.byte	0
 2222 0193 1E       		.uleb128 0x1e
 2223 0194 34       		.uleb128 0x34
 2224 0195 00       		.byte	0
 2225 0196 31       		.uleb128 0x31
 2226 0197 13       		.uleb128 0x13
 2227 0198 02       		.uleb128 0x2
 2228 0199 06       		.uleb128 0x6
 2229 019a 00       		.byte	0
 2230 019b 00       		.byte	0
 2231 019c 1F       		.uleb128 0x1f
 2232 019d 898201   		.uleb128 0x4109
 2233 01a0 01       		.byte	0x1
 2234 01a1 11       		.uleb128 0x11
 2235 01a2 01       		.uleb128 0x1
 2236 01a3 31       		.uleb128 0x31
 2237 01a4 13       		.uleb128 0x13
 2238 01a5 00       		.byte	0
 2239 01a6 00       		.byte	0
 2240 01a7 20       		.uleb128 0x20
 2241 01a8 8A8201   		.uleb128 0x410a
 2242 01ab 00       		.byte	0
 2243 01ac 02       		.uleb128 0x2
 2244 01ad 0A       		.uleb128 0xa
 2245 01ae 9142     		.uleb128 0x2111
 2246 01b0 0A       		.uleb128 0xa
 2247 01b1 00       		.byte	0
 2248 01b2 00       		.byte	0
 2249 01b3 21       		.uleb128 0x21
 2250 01b4 1D       		.uleb128 0x1d
 2251 01b5 01       		.byte	0x1
 2252 01b6 31       		.uleb128 0x31
 2253 01b7 13       		.uleb128 0x13
 2254 01b8 11       		.uleb128 0x11
 2255 01b9 01       		.uleb128 0x1
 2256 01ba 12       		.uleb128 0x12
 2257 01bb 01       		.uleb128 0x1
 2258 01bc 58       		.uleb128 0x58
 2259 01bd 0B       		.uleb128 0xb
 2260 01be 59       		.uleb128 0x59
 2261 01bf 0B       		.uleb128 0xb
 2262 01c0 01       		.uleb128 0x1
 2263 01c1 13       		.uleb128 0x13
 2264 01c2 00       		.byte	0
 2265 01c3 00       		.byte	0
 2266 01c4 22       		.uleb128 0x22
ARM GAS  /var/folders/dt/0wfd0knj7gs46m8vwfzktm600000gn/T//ccm4MCQp.s 			page 41


 2267 01c5 0B       		.uleb128 0xb
 2268 01c6 01       		.byte	0x1
 2269 01c7 11       		.uleb128 0x11
 2270 01c8 01       		.uleb128 0x1
 2271 01c9 12       		.uleb128 0x12
 2272 01ca 01       		.uleb128 0x1
 2273 01cb 00       		.byte	0
 2274 01cc 00       		.byte	0
 2275 01cd 23       		.uleb128 0x23
 2276 01ce 898201   		.uleb128 0x4109
 2277 01d1 00       		.byte	0
 2278 01d2 11       		.uleb128 0x11
 2279 01d3 01       		.uleb128 0x1
 2280 01d4 31       		.uleb128 0x31
 2281 01d5 13       		.uleb128 0x13
 2282 01d6 00       		.byte	0
 2283 01d7 00       		.byte	0
 2284 01d8 24       		.uleb128 0x24
 2285 01d9 898201   		.uleb128 0x4109
 2286 01dc 01       		.byte	0x1
 2287 01dd 11       		.uleb128 0x11
 2288 01de 01       		.uleb128 0x1
 2289 01df 31       		.uleb128 0x31
 2290 01e0 13       		.uleb128 0x13
 2291 01e1 01       		.uleb128 0x1
 2292 01e2 13       		.uleb128 0x13
 2293 01e3 00       		.byte	0
 2294 01e4 00       		.byte	0
 2295 01e5 25       		.uleb128 0x25
 2296 01e6 2E       		.uleb128 0x2e
 2297 01e7 01       		.byte	0x1
 2298 01e8 3F       		.uleb128 0x3f
 2299 01e9 0C       		.uleb128 0xc
 2300 01ea 03       		.uleb128 0x3
 2301 01eb 0E       		.uleb128 0xe
 2302 01ec 3A       		.uleb128 0x3a
 2303 01ed 0B       		.uleb128 0xb
 2304 01ee 3B       		.uleb128 0x3b
 2305 01ef 0B       		.uleb128 0xb
 2306 01f0 27       		.uleb128 0x27
 2307 01f1 0C       		.uleb128 0xc
 2308 01f2 49       		.uleb128 0x49
 2309 01f3 13       		.uleb128 0x13
 2310 01f4 11       		.uleb128 0x11
 2311 01f5 01       		.uleb128 0x1
 2312 01f6 12       		.uleb128 0x12
 2313 01f7 01       		.uleb128 0x1
 2314 01f8 40       		.uleb128 0x40
 2315 01f9 06       		.uleb128 0x6
 2316 01fa 9742     		.uleb128 0x2117
 2317 01fc 0C       		.uleb128 0xc
 2318 01fd 01       		.uleb128 0x1
 2319 01fe 13       		.uleb128 0x13
 2320 01ff 00       		.byte	0
 2321 0200 00       		.byte	0
 2322 0201 26       		.uleb128 0x26
 2323 0202 05       		.uleb128 0x5
ARM GAS  /var/folders/dt/0wfd0knj7gs46m8vwfzktm600000gn/T//ccm4MCQp.s 			page 42


 2324 0203 00       		.byte	0
 2325 0204 31       		.uleb128 0x31
 2326 0205 13       		.uleb128 0x13
 2327 0206 02       		.uleb128 0x2
 2328 0207 0A       		.uleb128 0xa
 2329 0208 00       		.byte	0
 2330 0209 00       		.byte	0
 2331 020a 27       		.uleb128 0x27
 2332 020b 34       		.uleb128 0x34
 2333 020c 00       		.byte	0
 2334 020d 03       		.uleb128 0x3
 2335 020e 08       		.uleb128 0x8
 2336 020f 3A       		.uleb128 0x3a
 2337 0210 0B       		.uleb128 0xb
 2338 0211 3B       		.uleb128 0x3b
 2339 0212 0B       		.uleb128 0xb
 2340 0213 49       		.uleb128 0x49
 2341 0214 13       		.uleb128 0x13
 2342 0215 02       		.uleb128 0x2
 2343 0216 0A       		.uleb128 0xa
 2344 0217 00       		.byte	0
 2345 0218 00       		.byte	0
 2346 0219 28       		.uleb128 0x28
 2347 021a 2E       		.uleb128 0x2e
 2348 021b 01       		.byte	0x1
 2349 021c 3F       		.uleb128 0x3f
 2350 021d 0C       		.uleb128 0xc
 2351 021e 03       		.uleb128 0x3
 2352 021f 0E       		.uleb128 0xe
 2353 0220 3A       		.uleb128 0x3a
 2354 0221 0B       		.uleb128 0xb
 2355 0222 3B       		.uleb128 0x3b
 2356 0223 05       		.uleb128 0x5
 2357 0224 27       		.uleb128 0x27
 2358 0225 0C       		.uleb128 0xc
 2359 0226 49       		.uleb128 0x49
 2360 0227 13       		.uleb128 0x13
 2361 0228 11       		.uleb128 0x11
 2362 0229 01       		.uleb128 0x1
 2363 022a 12       		.uleb128 0x12
 2364 022b 01       		.uleb128 0x1
 2365 022c 40       		.uleb128 0x40
 2366 022d 06       		.uleb128 0x6
 2367 022e 9742     		.uleb128 0x2117
 2368 0230 0C       		.uleb128 0xc
 2369 0231 01       		.uleb128 0x1
 2370 0232 13       		.uleb128 0x13
 2371 0233 00       		.byte	0
 2372 0234 00       		.byte	0
 2373 0235 29       		.uleb128 0x29
 2374 0236 05       		.uleb128 0x5
 2375 0237 00       		.byte	0
 2376 0238 03       		.uleb128 0x3
 2377 0239 08       		.uleb128 0x8
 2378 023a 3A       		.uleb128 0x3a
 2379 023b 0B       		.uleb128 0xb
 2380 023c 3B       		.uleb128 0x3b
ARM GAS  /var/folders/dt/0wfd0knj7gs46m8vwfzktm600000gn/T//ccm4MCQp.s 			page 43


 2381 023d 05       		.uleb128 0x5
 2382 023e 49       		.uleb128 0x49
 2383 023f 13       		.uleb128 0x13
 2384 0240 02       		.uleb128 0x2
 2385 0241 06       		.uleb128 0x6
 2386 0242 00       		.byte	0
 2387 0243 00       		.byte	0
 2388 0244 2A       		.uleb128 0x2a
 2389 0245 05       		.uleb128 0x5
 2390 0246 00       		.byte	0
 2391 0247 03       		.uleb128 0x3
 2392 0248 0E       		.uleb128 0xe
 2393 0249 3A       		.uleb128 0x3a
 2394 024a 0B       		.uleb128 0xb
 2395 024b 3B       		.uleb128 0x3b
 2396 024c 05       		.uleb128 0x5
 2397 024d 49       		.uleb128 0x49
 2398 024e 13       		.uleb128 0x13
 2399 024f 02       		.uleb128 0x2
 2400 0250 06       		.uleb128 0x6
 2401 0251 00       		.byte	0
 2402 0252 00       		.byte	0
 2403 0253 2B       		.uleb128 0x2b
 2404 0254 34       		.uleb128 0x34
 2405 0255 00       		.byte	0
 2406 0256 03       		.uleb128 0x3
 2407 0257 08       		.uleb128 0x8
 2408 0258 3A       		.uleb128 0x3a
 2409 0259 0B       		.uleb128 0xb
 2410 025a 3B       		.uleb128 0x3b
 2411 025b 05       		.uleb128 0x5
 2412 025c 49       		.uleb128 0x49
 2413 025d 13       		.uleb128 0x13
 2414 025e 02       		.uleb128 0x2
 2415 025f 06       		.uleb128 0x6
 2416 0260 00       		.byte	0
 2417 0261 00       		.byte	0
 2418 0262 2C       		.uleb128 0x2c
 2419 0263 1D       		.uleb128 0x1d
 2420 0264 01       		.byte	0x1
 2421 0265 31       		.uleb128 0x31
 2422 0266 13       		.uleb128 0x13
 2423 0267 52       		.uleb128 0x52
 2424 0268 01       		.uleb128 0x1
 2425 0269 55       		.uleb128 0x55
 2426 026a 06       		.uleb128 0x6
 2427 026b 58       		.uleb128 0x58
 2428 026c 0B       		.uleb128 0xb
 2429 026d 59       		.uleb128 0x59
 2430 026e 05       		.uleb128 0x5
 2431 026f 01       		.uleb128 0x1
 2432 0270 13       		.uleb128 0x13
 2433 0271 00       		.byte	0
 2434 0272 00       		.byte	0
 2435 0273 2D       		.uleb128 0x2d
 2436 0274 05       		.uleb128 0x5
 2437 0275 00       		.byte	0
ARM GAS  /var/folders/dt/0wfd0knj7gs46m8vwfzktm600000gn/T//ccm4MCQp.s 			page 44


 2438 0276 03       		.uleb128 0x3
 2439 0277 0E       		.uleb128 0xe
 2440 0278 3A       		.uleb128 0x3a
 2441 0279 0B       		.uleb128 0xb
 2442 027a 3B       		.uleb128 0x3b
 2443 027b 0B       		.uleb128 0xb
 2444 027c 49       		.uleb128 0x49
 2445 027d 13       		.uleb128 0x13
 2446 027e 02       		.uleb128 0x2
 2447 027f 06       		.uleb128 0x6
 2448 0280 00       		.byte	0
 2449 0281 00       		.byte	0
 2450 0282 2E       		.uleb128 0x2e
 2451 0283 34       		.uleb128 0x34
 2452 0284 00       		.byte	0
 2453 0285 03       		.uleb128 0x3
 2454 0286 0E       		.uleb128 0xe
 2455 0287 3A       		.uleb128 0x3a
 2456 0288 0B       		.uleb128 0xb
 2457 0289 3B       		.uleb128 0x3b
 2458 028a 0B       		.uleb128 0xb
 2459 028b 49       		.uleb128 0x49
 2460 028c 13       		.uleb128 0x13
 2461 028d 3F       		.uleb128 0x3f
 2462 028e 0C       		.uleb128 0xc
 2463 028f 3C       		.uleb128 0x3c
 2464 0290 0C       		.uleb128 0xc
 2465 0291 00       		.byte	0
 2466 0292 00       		.byte	0
 2467 0293 2F       		.uleb128 0x2f
 2468 0294 2E       		.uleb128 0x2e
 2469 0295 01       		.byte	0x1
 2470 0296 3F       		.uleb128 0x3f
 2471 0297 0C       		.uleb128 0xc
 2472 0298 03       		.uleb128 0x3
 2473 0299 0E       		.uleb128 0xe
 2474 029a 3A       		.uleb128 0x3a
 2475 029b 0B       		.uleb128 0xb
 2476 029c 3B       		.uleb128 0x3b
 2477 029d 0B       		.uleb128 0xb
 2478 029e 27       		.uleb128 0x27
 2479 029f 0C       		.uleb128 0xc
 2480 02a0 3C       		.uleb128 0x3c
 2481 02a1 0C       		.uleb128 0xc
 2482 02a2 01       		.uleb128 0x1
 2483 02a3 13       		.uleb128 0x13
 2484 02a4 00       		.byte	0
 2485 02a5 00       		.byte	0
 2486 02a6 30       		.uleb128 0x30
 2487 02a7 05       		.uleb128 0x5
 2488 02a8 00       		.byte	0
 2489 02a9 49       		.uleb128 0x49
 2490 02aa 13       		.uleb128 0x13
 2491 02ab 00       		.byte	0
 2492 02ac 00       		.byte	0
 2493 02ad 31       		.uleb128 0x31
 2494 02ae 2E       		.uleb128 0x2e
ARM GAS  /var/folders/dt/0wfd0knj7gs46m8vwfzktm600000gn/T//ccm4MCQp.s 			page 45


 2495 02af 01       		.byte	0x1
 2496 02b0 3F       		.uleb128 0x3f
 2497 02b1 0C       		.uleb128 0xc
 2498 02b2 03       		.uleb128 0x3
 2499 02b3 0E       		.uleb128 0xe
 2500 02b4 3A       		.uleb128 0x3a
 2501 02b5 0B       		.uleb128 0xb
 2502 02b6 3B       		.uleb128 0x3b
 2503 02b7 0B       		.uleb128 0xb
 2504 02b8 27       		.uleb128 0x27
 2505 02b9 0C       		.uleb128 0xc
 2506 02ba 49       		.uleb128 0x49
 2507 02bb 13       		.uleb128 0x13
 2508 02bc 3C       		.uleb128 0x3c
 2509 02bd 0C       		.uleb128 0xc
 2510 02be 01       		.uleb128 0x1
 2511 02bf 13       		.uleb128 0x13
 2512 02c0 00       		.byte	0
 2513 02c1 00       		.byte	0
 2514 02c2 32       		.uleb128 0x32
 2515 02c3 2E       		.uleb128 0x2e
 2516 02c4 00       		.byte	0
 2517 02c5 3F       		.uleb128 0x3f
 2518 02c6 0C       		.uleb128 0xc
 2519 02c7 03       		.uleb128 0x3
 2520 02c8 0E       		.uleb128 0xe
 2521 02c9 3A       		.uleb128 0x3a
 2522 02ca 0B       		.uleb128 0xb
 2523 02cb 3B       		.uleb128 0x3b
 2524 02cc 0B       		.uleb128 0xb
 2525 02cd 27       		.uleb128 0x27
 2526 02ce 0C       		.uleb128 0xc
 2527 02cf 3C       		.uleb128 0x3c
 2528 02d0 0C       		.uleb128 0xc
 2529 02d1 00       		.byte	0
 2530 02d2 00       		.byte	0
 2531 02d3 33       		.uleb128 0x33
 2532 02d4 2E       		.uleb128 0x2e
 2533 02d5 00       		.byte	0
 2534 02d6 3F       		.uleb128 0x3f
 2535 02d7 0C       		.uleb128 0xc
 2536 02d8 03       		.uleb128 0x3
 2537 02d9 0E       		.uleb128 0xe
 2538 02da 3A       		.uleb128 0x3a
 2539 02db 0B       		.uleb128 0xb
 2540 02dc 3B       		.uleb128 0x3b
 2541 02dd 0B       		.uleb128 0xb
 2542 02de 27       		.uleb128 0x27
 2543 02df 0C       		.uleb128 0xc
 2544 02e0 49       		.uleb128 0x49
 2545 02e1 13       		.uleb128 0x13
 2546 02e2 3C       		.uleb128 0x3c
 2547 02e3 0C       		.uleb128 0xc
 2548 02e4 00       		.byte	0
 2549 02e5 00       		.byte	0
 2550 02e6 34       		.uleb128 0x34
 2551 02e7 2E       		.uleb128 0x2e
ARM GAS  /var/folders/dt/0wfd0knj7gs46m8vwfzktm600000gn/T//ccm4MCQp.s 			page 46


 2552 02e8 01       		.byte	0x1
 2553 02e9 3F       		.uleb128 0x3f
 2554 02ea 0C       		.uleb128 0xc
 2555 02eb 03       		.uleb128 0x3
 2556 02ec 0E       		.uleb128 0xe
 2557 02ed 3A       		.uleb128 0x3a
 2558 02ee 0B       		.uleb128 0xb
 2559 02ef 3B       		.uleb128 0x3b
 2560 02f0 0B       		.uleb128 0xb
 2561 02f1 27       		.uleb128 0x27
 2562 02f2 0C       		.uleb128 0xc
 2563 02f3 49       		.uleb128 0x49
 2564 02f4 13       		.uleb128 0x13
 2565 02f5 3C       		.uleb128 0x3c
 2566 02f6 0C       		.uleb128 0xc
 2567 02f7 00       		.byte	0
 2568 02f8 00       		.byte	0
 2569 02f9 00       		.byte	0
 2570              		.section	.debug_loc,"",%progbits
 2571              	.Ldebug_loc0:
 2572              	.LLST0:
 2573 0000 00000000 		.4byte	.LFB8
 2574 0004 02000000 		.4byte	.LCFI0
 2575 0008 0200     		.2byte	0x2
 2576 000a 7D       		.byte	0x7d
 2577 000b 00       		.sleb128 0
 2578 000c 02000000 		.4byte	.LCFI0
 2579 0010 24000000 		.4byte	.LFE8
 2580 0014 0200     		.2byte	0x2
 2581 0016 7D       		.byte	0x7d
 2582 0017 08       		.sleb128 8
 2583 0018 00000000 		.4byte	0
 2584 001c 00000000 		.4byte	0
 2585              	.LLST1:
 2586 0020 00000000 		.4byte	.LVL1
 2587 0024 0C000000 		.4byte	.LVL4
 2588 0028 0100     		.2byte	0x1
 2589 002a 50       		.byte	0x50
 2590 002b 0C000000 		.4byte	.LVL4
 2591 002f 1B000000 		.4byte	.LVL7-1
 2592 0033 0100     		.2byte	0x1
 2593 0035 52       		.byte	0x52
 2594 0036 1B000000 		.4byte	.LVL7-1
 2595 003a 24000000 		.4byte	.LFE8
 2596 003e 0400     		.2byte	0x4
 2597 0040 F3       		.byte	0xf3
 2598 0041 01       		.uleb128 0x1
 2599 0042 50       		.byte	0x50
 2600 0043 9F       		.byte	0x9f
 2601 0044 00000000 		.4byte	0
 2602 0048 00000000 		.4byte	0
 2603              	.LLST2:
 2604 004c 0A000000 		.4byte	.LVL3
 2605 0050 12000000 		.4byte	.LVL6
 2606 0054 0100     		.2byte	0x1
 2607 0056 53       		.byte	0x53
 2608 0057 1C000000 		.4byte	.LVL7
ARM GAS  /var/folders/dt/0wfd0knj7gs46m8vwfzktm600000gn/T//ccm4MCQp.s 			page 47


 2609 005b 1E000000 		.4byte	.LVL8
 2610 005f 0100     		.2byte	0x1
 2611 0061 53       		.byte	0x53
 2612 0062 00000000 		.4byte	0
 2613 0066 00000000 		.4byte	0
 2614              	.LLST3:
 2615 006a 10000000 		.4byte	.LVL5
 2616 006e 1B000000 		.4byte	.LVL7-1
 2617 0072 0100     		.2byte	0x1
 2618 0074 52       		.byte	0x52
 2619 0075 1B000000 		.4byte	.LVL7-1
 2620 0079 1C000000 		.4byte	.LVL7
 2621 007d 0400     		.2byte	0x4
 2622 007f F3       		.byte	0xf3
 2623 0080 01       		.uleb128 0x1
 2624 0081 50       		.byte	0x50
 2625 0082 9F       		.byte	0x9f
 2626 0083 00000000 		.4byte	0
 2627 0087 00000000 		.4byte	0
 2628              	.LLST4:
 2629 008b 10000000 		.4byte	.LVL5
 2630 008f 1B000000 		.4byte	.LVL7-1
 2631 0093 0100     		.2byte	0x1
 2632 0095 50       		.byte	0x50
 2633 0096 00000000 		.4byte	0
 2634 009a 00000000 		.4byte	0
 2635              	.LLST5:
 2636 009e 22000000 		.4byte	.LVL9
 2637 00a2 24000000 		.4byte	.LFE8
 2638 00a6 0100     		.2byte	0x1
 2639 00a8 53       		.byte	0x53
 2640 00a9 00000000 		.4byte	0
 2641 00ad 00000000 		.4byte	0
 2642              	.LLST6:
 2643 00b1 00000000 		.4byte	.LFB9
 2644 00b5 02000000 		.4byte	.LCFI1
 2645 00b9 0200     		.2byte	0x2
 2646 00bb 7D       		.byte	0x7d
 2647 00bc 00       		.sleb128 0
 2648 00bd 02000000 		.4byte	.LCFI1
 2649 00c1 1A000000 		.4byte	.LFE9
 2650 00c5 0200     		.2byte	0x2
 2651 00c7 7D       		.byte	0x7d
 2652 00c8 08       		.sleb128 8
 2653 00c9 00000000 		.4byte	0
 2654 00cd 00000000 		.4byte	0
 2655              	.LLST7:
 2656 00d1 00000000 		.4byte	.LVL10
 2657 00d5 06000000 		.4byte	.LVL11
 2658 00d9 0100     		.2byte	0x1
 2659 00db 50       		.byte	0x50
 2660 00dc 06000000 		.4byte	.LVL11
 2661 00e0 13000000 		.4byte	.LVL13-1
 2662 00e4 0100     		.2byte	0x1
 2663 00e6 53       		.byte	0x53
 2664 00e7 13000000 		.4byte	.LVL13-1
 2665 00eb 1A000000 		.4byte	.LFE9
ARM GAS  /var/folders/dt/0wfd0knj7gs46m8vwfzktm600000gn/T//ccm4MCQp.s 			page 48


 2666 00ef 0400     		.2byte	0x4
 2667 00f1 F3       		.byte	0xf3
 2668 00f2 01       		.uleb128 0x1
 2669 00f3 50       		.byte	0x50
 2670 00f4 9F       		.byte	0x9f
 2671 00f5 00000000 		.4byte	0
 2672 00f9 00000000 		.4byte	0
 2673              	.LLST8:
 2674 00fd 0A000000 		.4byte	.LVL12
 2675 0101 13000000 		.4byte	.LVL13-1
 2676 0105 0100     		.2byte	0x1
 2677 0107 53       		.byte	0x53
 2678 0108 13000000 		.4byte	.LVL13-1
 2679 010c 18000000 		.4byte	.LVL14
 2680 0110 0400     		.2byte	0x4
 2681 0112 F3       		.byte	0xf3
 2682 0113 01       		.uleb128 0x1
 2683 0114 50       		.byte	0x50
 2684 0115 9F       		.byte	0x9f
 2685 0116 00000000 		.4byte	0
 2686 011a 00000000 		.4byte	0
 2687              	.LLST9:
 2688 011e 0A000000 		.4byte	.LVL12
 2689 0122 13000000 		.4byte	.LVL13-1
 2690 0126 0100     		.2byte	0x1
 2691 0128 50       		.byte	0x50
 2692 0129 00000000 		.4byte	0
 2693 012d 00000000 		.4byte	0
 2694              	.LLST10:
 2695 0131 00000000 		.4byte	.LFB11
 2696 0135 02000000 		.4byte	.LCFI2
 2697 0139 0200     		.2byte	0x2
 2698 013b 7D       		.byte	0x7d
 2699 013c 00       		.sleb128 0
 2700 013d 02000000 		.4byte	.LCFI2
 2701 0141 22000000 		.4byte	.LFE11
 2702 0145 0200     		.2byte	0x2
 2703 0147 7D       		.byte	0x7d
 2704 0148 10       		.sleb128 16
 2705 0149 00000000 		.4byte	0
 2706 014d 00000000 		.4byte	0
 2707              	.LLST11:
 2708 0151 00000000 		.4byte	.LVL15
 2709 0155 06000000 		.4byte	.LVL16
 2710 0159 0100     		.2byte	0x1
 2711 015b 50       		.byte	0x50
 2712 015c 06000000 		.4byte	.LVL16
 2713 0160 22000000 		.4byte	.LFE11
 2714 0164 0100     		.2byte	0x1
 2715 0166 54       		.byte	0x54
 2716 0167 00000000 		.4byte	0
 2717 016b 00000000 		.4byte	0
 2718              	.LLST12:
 2719 016f 0E000000 		.4byte	.LVL17
 2720 0173 20000000 		.4byte	.LVL19
 2721 0177 0100     		.2byte	0x1
 2722 0179 54       		.byte	0x54
ARM GAS  /var/folders/dt/0wfd0knj7gs46m8vwfzktm600000gn/T//ccm4MCQp.s 			page 49


 2723 017a 00000000 		.4byte	0
 2724 017e 00000000 		.4byte	0
 2725              	.LLST13:
 2726 0182 0E000000 		.4byte	.LVL17
 2727 0186 17000000 		.4byte	.LVL18-1
 2728 018a 0100     		.2byte	0x1
 2729 018c 50       		.byte	0x50
 2730 018d 00000000 		.4byte	0
 2731 0191 00000000 		.4byte	0
 2732              	.LLST14:
 2733 0195 00000000 		.4byte	.LFB10
 2734 0199 02000000 		.4byte	.LCFI3
 2735 019d 0200     		.2byte	0x2
 2736 019f 7D       		.byte	0x7d
 2737 01a0 00       		.sleb128 0
 2738 01a1 02000000 		.4byte	.LCFI3
 2739 01a5 18000000 		.4byte	.LFE10
 2740 01a9 0200     		.2byte	0x2
 2741 01ab 7D       		.byte	0x7d
 2742 01ac 08       		.sleb128 8
 2743 01ad 00000000 		.4byte	0
 2744 01b1 00000000 		.4byte	0
 2745              	.LLST15:
 2746 01b5 00000000 		.4byte	.LVL20
 2747 01b9 0B000000 		.4byte	.LVL23-1
 2748 01bd 0100     		.2byte	0x1
 2749 01bf 50       		.byte	0x50
 2750 01c0 0B000000 		.4byte	.LVL23-1
 2751 01c4 18000000 		.4byte	.LFE10
 2752 01c8 0400     		.2byte	0x4
 2753 01ca F3       		.byte	0xf3
 2754 01cb 01       		.uleb128 0x1
 2755 01cc 50       		.byte	0x50
 2756 01cd 9F       		.byte	0x9f
 2757 01ce 00000000 		.4byte	0
 2758 01d2 00000000 		.4byte	0
 2759              	.LLST16:
 2760 01d6 08000000 		.4byte	.LVL22
 2761 01da 0B000000 		.4byte	.LVL23-1
 2762 01de 0100     		.2byte	0x1
 2763 01e0 53       		.byte	0x53
 2764 01e1 00000000 		.4byte	0
 2765 01e5 00000000 		.4byte	0
 2766              	.LLST17:
 2767 01e9 16000000 		.4byte	.LVL26
 2768 01ed 18000000 		.4byte	.LFE10
 2769 01f1 0100     		.2byte	0x1
 2770 01f3 53       		.byte	0x53
 2771 01f4 00000000 		.4byte	0
 2772 01f8 00000000 		.4byte	0
 2773              	.LLST18:
 2774 01fc 00000000 		.4byte	.LFB13
 2775 0200 02000000 		.4byte	.LCFI4
 2776 0204 0200     		.2byte	0x2
 2777 0206 7D       		.byte	0x7d
 2778 0207 00       		.sleb128 0
 2779 0208 02000000 		.4byte	.LCFI4
ARM GAS  /var/folders/dt/0wfd0knj7gs46m8vwfzktm600000gn/T//ccm4MCQp.s 			page 50


 2780 020c 48000000 		.4byte	.LFE13
 2781 0210 0200     		.2byte	0x2
 2782 0212 7D       		.byte	0x7d
 2783 0213 18       		.sleb128 24
 2784 0214 00000000 		.4byte	0
 2785 0218 00000000 		.4byte	0
 2786              	.LLST19:
 2787 021c 00000000 		.4byte	.LVL27
 2788 0220 0B000000 		.4byte	.LVL29-1
 2789 0224 0100     		.2byte	0x1
 2790 0226 50       		.byte	0x50
 2791 0227 0B000000 		.4byte	.LVL29-1
 2792 022b 48000000 		.4byte	.LFE13
 2793 022f 0100     		.2byte	0x1
 2794 0231 55       		.byte	0x55
 2795 0232 00000000 		.4byte	0
 2796 0236 00000000 		.4byte	0
 2797              	.LLST20:
 2798 023a 08000000 		.4byte	.LVL28
 2799 023e 36000000 		.4byte	.LVL36
 2800 0242 0100     		.2byte	0x1
 2801 0244 54       		.byte	0x54
 2802 0245 40000000 		.4byte	.LVL38
 2803 0249 48000000 		.4byte	.LFE13
 2804 024d 0100     		.2byte	0x1
 2805 024f 54       		.byte	0x54
 2806 0250 00000000 		.4byte	0
 2807 0254 00000000 		.4byte	0
 2808              	.LLST21:
 2809 0258 10000000 		.4byte	.LVL30
 2810 025c 30000000 		.4byte	.LVL34
 2811 0260 0100     		.2byte	0x1
 2812 0262 50       		.byte	0x50
 2813 0263 30000000 		.4byte	.LVL34
 2814 0267 40000000 		.4byte	.LVL38
 2815 026b 0100     		.2byte	0x1
 2816 026d 57       		.byte	0x57
 2817 026e 40000000 		.4byte	.LVL38
 2818 0272 48000000 		.4byte	.LFE13
 2819 0276 0100     		.2byte	0x1
 2820 0278 50       		.byte	0x50
 2821 0279 00000000 		.4byte	0
 2822 027d 00000000 		.4byte	0
 2823              	.LLST22:
 2824 0281 36000000 		.4byte	.LVL36
 2825 0285 40000000 		.4byte	.LVL38
 2826 0289 0100     		.2byte	0x1
 2827 028b 54       		.byte	0x54
 2828 028c 00000000 		.4byte	0
 2829 0290 00000000 		.4byte	0
 2830              	.LLST23:
 2831 0294 10000000 		.4byte	.LVL30
 2832 0298 36000000 		.4byte	.LVL36
 2833 029c 0100     		.2byte	0x1
 2834 029e 54       		.byte	0x54
 2835 029f 40000000 		.4byte	.LVL38
 2836 02a3 48000000 		.4byte	.LFE13
ARM GAS  /var/folders/dt/0wfd0knj7gs46m8vwfzktm600000gn/T//ccm4MCQp.s 			page 51


 2837 02a7 0100     		.2byte	0x1
 2838 02a9 54       		.byte	0x54
 2839 02aa 00000000 		.4byte	0
 2840 02ae 00000000 		.4byte	0
 2841              	.LLST24:
 2842 02b2 10000000 		.4byte	.LVL30
 2843 02b6 16000000 		.4byte	.LVL31
 2844 02ba 0100     		.2byte	0x1
 2845 02bc 55       		.byte	0x55
 2846 02bd 16000000 		.4byte	.LVL31
 2847 02c1 26000000 		.4byte	.LVL33
 2848 02c5 0100     		.2byte	0x1
 2849 02c7 53       		.byte	0x53
 2850 02c8 40000000 		.4byte	.LVL38
 2851 02cc 48000000 		.4byte	.LFE13
 2852 02d0 0100     		.2byte	0x1
 2853 02d2 53       		.byte	0x53
 2854 02d3 00000000 		.4byte	0
 2855 02d7 00000000 		.4byte	0
 2856              	.LLST25:
 2857 02db 00000000 		.4byte	.LFB12
 2858 02df 02000000 		.4byte	.LCFI5
 2859 02e3 0200     		.2byte	0x2
 2860 02e5 7D       		.byte	0x7d
 2861 02e6 00       		.sleb128 0
 2862 02e7 02000000 		.4byte	.LCFI5
 2863 02eb 14000000 		.4byte	.LFE12
 2864 02ef 0200     		.2byte	0x2
 2865 02f1 7D       		.byte	0x7d
 2866 02f2 08       		.sleb128 8
 2867 02f3 00000000 		.4byte	0
 2868 02f7 00000000 		.4byte	0
 2869              	.LLST26:
 2870 02fb 00000000 		.4byte	.LVL39
 2871 02ff 0B000000 		.4byte	.LVL42-1
 2872 0303 0100     		.2byte	0x1
 2873 0305 50       		.byte	0x50
 2874 0306 0B000000 		.4byte	.LVL42-1
 2875 030a 14000000 		.4byte	.LFE12
 2876 030e 0400     		.2byte	0x4
 2877 0310 F3       		.byte	0xf3
 2878 0311 01       		.uleb128 0x1
 2879 0312 50       		.byte	0x50
 2880 0313 9F       		.byte	0x9f
 2881 0314 00000000 		.4byte	0
 2882 0318 00000000 		.4byte	0
 2883              	.LLST27:
 2884 031c 08000000 		.4byte	.LVL41
 2885 0320 0B000000 		.4byte	.LVL42-1
 2886 0324 0100     		.2byte	0x1
 2887 0326 53       		.byte	0x53
 2888 0327 00000000 		.4byte	0
 2889 032b 00000000 		.4byte	0
 2890              	.LLST28:
 2891 032f 12000000 		.4byte	.LVL44
 2892 0333 14000000 		.4byte	.LFE12
 2893 0337 0100     		.2byte	0x1
ARM GAS  /var/folders/dt/0wfd0knj7gs46m8vwfzktm600000gn/T//ccm4MCQp.s 			page 52


 2894 0339 53       		.byte	0x53
 2895 033a 00000000 		.4byte	0
 2896 033e 00000000 		.4byte	0
 2897              	.LLST29:
 2898 0342 00000000 		.4byte	.LFB15
 2899 0346 04000000 		.4byte	.LCFI6
 2900 034a 0200     		.2byte	0x2
 2901 034c 7D       		.byte	0x7d
 2902 034d 00       		.sleb128 0
 2903 034e 04000000 		.4byte	.LCFI6
 2904 0352 4C000000 		.4byte	.LFE15
 2905 0356 0200     		.2byte	0x2
 2906 0358 7D       		.byte	0x7d
 2907 0359 18       		.sleb128 24
 2908 035a 00000000 		.4byte	0
 2909 035e 00000000 		.4byte	0
 2910              	.LLST30:
 2911 0362 00000000 		.4byte	.LVL45
 2912 0366 0B000000 		.4byte	.LVL46-1
 2913 036a 0100     		.2byte	0x1
 2914 036c 50       		.byte	0x50
 2915 036d 0B000000 		.4byte	.LVL46-1
 2916 0371 4C000000 		.4byte	.LFE15
 2917 0375 0100     		.2byte	0x1
 2918 0377 56       		.byte	0x56
 2919 0378 00000000 		.4byte	0
 2920 037c 00000000 		.4byte	0
 2921              	.LLST31:
 2922 0380 00000000 		.4byte	.LVL45
 2923 0384 0B000000 		.4byte	.LVL46-1
 2924 0388 0100     		.2byte	0x1
 2925 038a 51       		.byte	0x51
 2926 038b 0B000000 		.4byte	.LVL46-1
 2927 038f 4C000000 		.4byte	.LFE15
 2928 0393 0100     		.2byte	0x1
 2929 0395 58       		.byte	0x58
 2930 0396 00000000 		.4byte	0
 2931 039a 00000000 		.4byte	0
 2932              	.LLST32:
 2933 039e 10000000 		.4byte	.LVL47
 2934 03a2 28000000 		.4byte	.LVL50
 2935 03a6 0100     		.2byte	0x1
 2936 03a8 50       		.byte	0x50
 2937 03a9 28000000 		.4byte	.LVL50
 2938 03ad 4C000000 		.4byte	.LFE15
 2939 03b1 0100     		.2byte	0x1
 2940 03b3 57       		.byte	0x57
 2941 03b4 00000000 		.4byte	0
 2942 03b8 00000000 		.4byte	0
 2943              	.LLST33:
 2944 03bc 3A000000 		.4byte	.LVL52
 2945 03c0 3E000000 		.4byte	.LVL53
 2946 03c4 0100     		.2byte	0x1
 2947 03c6 50       		.byte	0x50
 2948 03c7 3E000000 		.4byte	.LVL53
 2949 03cb 4C000000 		.4byte	.LFE15
 2950 03cf 0100     		.2byte	0x1
ARM GAS  /var/folders/dt/0wfd0knj7gs46m8vwfzktm600000gn/T//ccm4MCQp.s 			page 53


 2951 03d1 54       		.byte	0x54
 2952 03d2 00000000 		.4byte	0
 2953 03d6 00000000 		.4byte	0
 2954              	.LLST34:
 2955 03da 16000000 		.4byte	.LVL48
 2956 03de 35000000 		.4byte	.LVL51-1
 2957 03e2 0100     		.2byte	0x1
 2958 03e4 52       		.byte	0x52
 2959 03e5 00000000 		.4byte	0
 2960 03e9 00000000 		.4byte	0
 2961              	.LLST35:
 2962 03ed 16000000 		.4byte	.LVL48
 2963 03f1 35000000 		.4byte	.LVL51-1
 2964 03f5 0100     		.2byte	0x1
 2965 03f7 53       		.byte	0x53
 2966 03f8 00000000 		.4byte	0
 2967 03fc 00000000 		.4byte	0
 2968              	.LLST36:
 2969 0400 00000000 		.4byte	.LFB14
 2970 0404 02000000 		.4byte	.LCFI7
 2971 0408 0200     		.2byte	0x2
 2972 040a 7D       		.byte	0x7d
 2973 040b 00       		.sleb128 0
 2974 040c 02000000 		.4byte	.LCFI7
 2975 0410 14000000 		.4byte	.LFE14
 2976 0414 0200     		.2byte	0x2
 2977 0416 7D       		.byte	0x7d
 2978 0417 08       		.sleb128 8
 2979 0418 00000000 		.4byte	0
 2980 041c 00000000 		.4byte	0
 2981              	.LLST37:
 2982 0420 00000000 		.4byte	.LVL55
 2983 0424 0B000000 		.4byte	.LVL58-1
 2984 0428 0100     		.2byte	0x1
 2985 042a 50       		.byte	0x50
 2986 042b 0B000000 		.4byte	.LVL58-1
 2987 042f 14000000 		.4byte	.LFE14
 2988 0433 0400     		.2byte	0x4
 2989 0435 F3       		.byte	0xf3
 2990 0436 01       		.uleb128 0x1
 2991 0437 50       		.byte	0x50
 2992 0438 9F       		.byte	0x9f
 2993 0439 00000000 		.4byte	0
 2994 043d 00000000 		.4byte	0
 2995              	.LLST38:
 2996 0441 00000000 		.4byte	.LVL55
 2997 0445 0B000000 		.4byte	.LVL58-1
 2998 0449 0100     		.2byte	0x1
 2999 044b 51       		.byte	0x51
 3000 044c 0B000000 		.4byte	.LVL58-1
 3001 0450 14000000 		.4byte	.LFE14
 3002 0454 0400     		.2byte	0x4
 3003 0456 F3       		.byte	0xf3
 3004 0457 01       		.uleb128 0x1
 3005 0458 51       		.byte	0x51
 3006 0459 9F       		.byte	0x9f
 3007 045a 00000000 		.4byte	0
ARM GAS  /var/folders/dt/0wfd0knj7gs46m8vwfzktm600000gn/T//ccm4MCQp.s 			page 54


 3008 045e 00000000 		.4byte	0
 3009              	.LLST39:
 3010 0462 08000000 		.4byte	.LVL57
 3011 0466 0B000000 		.4byte	.LVL58-1
 3012 046a 0100     		.2byte	0x1
 3013 046c 53       		.byte	0x53
 3014 046d 00000000 		.4byte	0
 3015 0471 00000000 		.4byte	0
 3016              	.LLST40:
 3017 0475 12000000 		.4byte	.LVL60
 3018 0479 14000000 		.4byte	.LFE14
 3019 047d 0100     		.2byte	0x1
 3020 047f 53       		.byte	0x53
 3021 0480 00000000 		.4byte	0
 3022 0484 00000000 		.4byte	0
 3023              		.section	.debug_aranges,"",%progbits
 3024 0000 5C000000 		.4byte	0x5c
 3025 0004 0200     		.2byte	0x2
 3026 0006 00000000 		.4byte	.Ldebug_info0
 3027 000a 04       		.byte	0x4
 3028 000b 00       		.byte	0
 3029 000c 0000     		.2byte	0
 3030 000e 0000     		.2byte	0
 3031 0010 00000000 		.4byte	.LFB7
 3032 0014 06000000 		.4byte	.LFE7-.LFB7
 3033 0018 00000000 		.4byte	.LFB8
 3034 001c 24000000 		.4byte	.LFE8-.LFB8
 3035 0020 00000000 		.4byte	.LFB9
 3036 0024 1A000000 		.4byte	.LFE9-.LFB9
 3037 0028 00000000 		.4byte	.LFB11
 3038 002c 22000000 		.4byte	.LFE11-.LFB11
 3039 0030 00000000 		.4byte	.LFB10
 3040 0034 18000000 		.4byte	.LFE10-.LFB10
 3041 0038 00000000 		.4byte	.LFB13
 3042 003c 48000000 		.4byte	.LFE13-.LFB13
 3043 0040 00000000 		.4byte	.LFB12
 3044 0044 14000000 		.4byte	.LFE12-.LFB12
 3045 0048 00000000 		.4byte	.LFB15
 3046 004c 4C000000 		.4byte	.LFE15-.LFB15
 3047 0050 00000000 		.4byte	.LFB14
 3048 0054 14000000 		.4byte	.LFE14-.LFB14
 3049 0058 00000000 		.4byte	0
 3050 005c 00000000 		.4byte	0
 3051              		.section	.debug_ranges,"",%progbits
 3052              	.Ldebug_ranges0:
 3053 0000 10000000 		.4byte	.LBB15
 3054 0004 12000000 		.4byte	.LBE15
 3055 0008 14000000 		.4byte	.LBB18
 3056 000c 18000000 		.4byte	.LBE18
 3057 0010 00000000 		.4byte	0
 3058 0014 00000000 		.4byte	0
 3059 0018 10000000 		.4byte	.LBB16
 3060 001c 12000000 		.4byte	.LBE16
 3061 0020 14000000 		.4byte	.LBB17
 3062 0024 18000000 		.4byte	.LBE17
 3063 0028 00000000 		.4byte	0
 3064 002c 00000000 		.4byte	0
ARM GAS  /var/folders/dt/0wfd0knj7gs46m8vwfzktm600000gn/T//ccm4MCQp.s 			page 55


 3065 0030 16000000 		.4byte	.LBB26
 3066 0034 2E000000 		.4byte	.LBE26
 3067 0038 40000000 		.4byte	.LBB29
 3068 003c 48000000 		.4byte	.LBE29
 3069 0040 00000000 		.4byte	0
 3070 0044 00000000 		.4byte	0
 3071 0048 16000000 		.4byte	.LBB27
 3072 004c 2E000000 		.4byte	.LBE27
 3073 0050 40000000 		.4byte	.LBB28
 3074 0054 48000000 		.4byte	.LBE28
 3075 0058 00000000 		.4byte	0
 3076 005c 00000000 		.4byte	0
 3077 0060 16000000 		.4byte	.LBB32
 3078 0064 26000000 		.4byte	.LBE32
 3079 0068 28000000 		.4byte	.LBB36
 3080 006c 2C000000 		.4byte	.LBE36
 3081 0070 2E000000 		.4byte	.LBB37
 3082 0074 32000000 		.4byte	.LBE37
 3083 0078 00000000 		.4byte	0
 3084 007c 00000000 		.4byte	0
 3085 0080 16000000 		.4byte	.LBB33
 3086 0084 26000000 		.4byte	.LBE33
 3087 0088 28000000 		.4byte	.LBB34
 3088 008c 2C000000 		.4byte	.LBE34
 3089 0090 2E000000 		.4byte	.LBB35
 3090 0094 32000000 		.4byte	.LBE35
 3091 0098 00000000 		.4byte	0
 3092 009c 00000000 		.4byte	0
 3093 00a0 00000000 		.4byte	.LFB7
 3094 00a4 06000000 		.4byte	.LFE7
 3095 00a8 00000000 		.4byte	.LFB8
 3096 00ac 24000000 		.4byte	.LFE8
 3097 00b0 00000000 		.4byte	.LFB9
 3098 00b4 1A000000 		.4byte	.LFE9
 3099 00b8 00000000 		.4byte	.LFB11
 3100 00bc 22000000 		.4byte	.LFE11
 3101 00c0 00000000 		.4byte	.LFB10
 3102 00c4 18000000 		.4byte	.LFE10
 3103 00c8 00000000 		.4byte	.LFB13
 3104 00cc 48000000 		.4byte	.LFE13
 3105 00d0 00000000 		.4byte	.LFB12
 3106 00d4 14000000 		.4byte	.LFE12
 3107 00d8 00000000 		.4byte	.LFB15
 3108 00dc 4C000000 		.4byte	.LFE15
 3109 00e0 00000000 		.4byte	.LFB14
 3110 00e4 14000000 		.4byte	.LFE14
 3111 00e8 00000000 		.4byte	0
 3112 00ec 00000000 		.4byte	0
 3113              		.section	.debug_line,"",%progbits
 3114              	.Ldebug_line0:
 3115 0000 87020000 		.section	.debug_str,"MS",%progbits,1
 3115      02004E01 
 3115      00000201 
 3115      FB0E0D00 
 3115      01010101 
 3116              	.LASF34:
 3117 0000 705F6D73 		.ascii	"p_msg\000"
ARM GAS  /var/folders/dt/0wfd0knj7gs46m8vwfzktm600000gn/T//ccm4MCQp.s 			page 56


 3117      6700
 3118              	.LASF64:
 3119 0006 6368436F 		.ascii	"chCondInit\000"
 3119      6E64496E 
 3119      697400
 3120              	.LASF80:
 3121 0011 2F557365 		.ascii	"/Users/toxygen/Projects/UAV/Control_sytem/sw/autopi"
 3121      72732F74 
 3121      6F787967 
 3121      656E2F50 
 3121      726F6A65 
 3122 0044 6C6F742F 		.ascii	"lot/2.4.3/demos/STM32F103-sdspi\000"
 3122      322E342E 
 3122      332F6465 
 3122      6D6F732F 
 3122      53544D33 
 3123              	.LASF59:
 3124 0064 7264796D 		.ascii	"rdymsg\000"
 3124      736700
 3125              	.LASF11:
 3126 006b 6C6F6E67 		.ascii	"long long unsigned int\000"
 3126      206C6F6E 
 3126      6720756E 
 3126      7369676E 
 3126      65642069 
 3127              	.LASF60:
 3128 0082 65786974 		.ascii	"exitcode\000"
 3128      636F6465 
 3128      00
 3129              	.LASF67:
 3130 008b 6368436F 		.ascii	"chCondBroadcastI\000"
 3130      6E644272 
 3130      6F616463 
 3130      61737449 
 3130      00
 3131              	.LASF23:
 3132 009c 705F7072 		.ascii	"p_prio\000"
 3132      696F00
 3133              	.LASF10:
 3134 00a3 6C6F6E67 		.ascii	"long long int\000"
 3134      206C6F6E 
 3134      6720696E 
 3134      7400
 3135              	.LASF1:
 3136 00b1 7369676E 		.ascii	"signed char\000"
 3136      65642063 
 3136      68617200 
 3137              	.LASF38:
 3138 00bd 705F6D70 		.ascii	"p_mpool\000"
 3138      6F6F6C00 
 3139              	.LASF54:
 3140 00c5 6D5F7175 		.ascii	"m_queue\000"
 3140      65756500 
 3141              	.LASF57:
 3142 00cd 436F6E64 		.ascii	"CondVar\000"
 3142      56617200 
 3143              	.LASF7:
ARM GAS  /var/folders/dt/0wfd0knj7gs46m8vwfzktm600000gn/T//ccm4MCQp.s 			page 57


 3144 00d5 6C6F6E67 		.ascii	"long int\000"
 3144      20696E74 
 3144      00
 3145              	.LASF13:
 3146 00de 74737461 		.ascii	"tstate_t\000"
 3146      74655F74 
 3146      00
 3147              	.LASF76:
 3148 00e7 63684D74 		.ascii	"chMtxLockS\000"
 3148      784C6F63 
 3148      6B5300
 3149              	.LASF25:
 3150 00f2 705F6E65 		.ascii	"p_newer\000"
 3150      77657200 
 3151              	.LASF85:
 3152 00fa 63685363 		.ascii	"chSchRescheduleS\000"
 3152      68526573 
 3152      63686564 
 3152      756C6553 
 3152      00
 3153              	.LASF48:
 3154 010b 725F6E65 		.ascii	"r_newer\000"
 3154      77657200 
 3155              	.LASF41:
 3156 0113 72656761 		.ascii	"regarm_t\000"
 3156      726D5F74 
 3156      00
 3157              	.LASF79:
 3158 011c 2E2E2F2E 		.ascii	"../../os/kernel/src/chcond.c\000"
 3158      2E2F6F73 
 3158      2F6B6572 
 3158      6E656C2F 
 3158      7372632F 
 3159              	.LASF65:
 3160 0139 6368436F 		.ascii	"chCondSignal\000"
 3160      6E645369 
 3160      676E616C 
 3160      00
 3161              	.LASF19:
 3162 0146 636E745F 		.ascii	"cnt_t\000"
 3162      7400
 3163              	.LASF86:
 3164 014c 63684D74 		.ascii	"chMtxUnlockS\000"
 3164      78556E6C 
 3164      6F636B53 
 3164      00
 3165              	.LASF0:
 3166 0159 756E7369 		.ascii	"unsigned int\000"
 3166      676E6564 
 3166      20696E74 
 3166      00
 3167              	.LASF9:
 3168 0166 6C6F6E67 		.ascii	"long unsigned int\000"
 3168      20756E73 
 3168      69676E65 
 3168      6420696E 
 3168      7400
ARM GAS  /var/folders/dt/0wfd0knj7gs46m8vwfzktm600000gn/T//ccm4MCQp.s 			page 58


 3169              	.LASF43:
 3170 0178 636F6E74 		.ascii	"context\000"
 3170      65787400 
 3171              	.LASF4:
 3172 0180 73686F72 		.ascii	"short unsigned int\000"
 3172      7420756E 
 3172      7369676E 
 3172      65642069 
 3172      6E7400
 3173              	.LASF16:
 3174 0193 6D73675F 		.ascii	"msg_t\000"
 3174      7400
 3175              	.LASF82:
 3176 0199 7072696F 		.ascii	"prio_insert\000"
 3176      5F696E73 
 3176      65727400 
 3177              	.LASF12:
 3178 01a5 746D6F64 		.ascii	"tmode_t\000"
 3178      655F7400 
 3179              	.LASF40:
 3180 01ad 54687265 		.ascii	"ThreadsList\000"
 3180      6164734C 
 3180      69737400 
 3181              	.LASF17:
 3182 01b9 6576656E 		.ascii	"eventmask_t\000"
 3182      746D6173 
 3182      6B5F7400 
 3183              	.LASF53:
 3184 01c5 4D757465 		.ascii	"Mutex\000"
 3184      7800
 3185              	.LASF44:
 3186 01cb 73697A65 		.ascii	"sizetype\000"
 3186      74797065 
 3186      00
 3187              	.LASF71:
 3188 01d4 6368436F 		.ascii	"chCondWaitTimeoutS\000"
 3188      6E645761 
 3188      69745469 
 3188      6D656F75 
 3188      745300
 3189              	.LASF26:
 3190 01e7 705F6F6C 		.ascii	"p_older\000"
 3190      64657200 
 3191              	.LASF47:
 3192 01ef 725F6374 		.ascii	"r_ctx\000"
 3192      7800
 3193              	.LASF39:
 3194 01f5 54687265 		.ascii	"ThreadsQueue\000"
 3194      61647351 
 3194      75657565 
 3194      00
 3195              	.LASF72:
 3196 0202 74696D65 		.ascii	"time\000"
 3196      00
 3197              	.LASF78:
 3198 0207 474E5520 		.ascii	"GNU C 4.7.2\000"
 3198      4320342E 
ARM GAS  /var/folders/dt/0wfd0knj7gs46m8vwfzktm600000gn/T//ccm4MCQp.s 			page 59


 3198      372E3200 
 3199              	.LASF51:
 3200 0213 725F6375 		.ascii	"r_current\000"
 3200      7272656E 
 3200      7400
 3201              	.LASF49:
 3202 021d 725F6F6C 		.ascii	"r_older\000"
 3202      64657200 
 3203              	.LASF68:
 3204 0225 6368436F 		.ascii	"chCondBroadcast\000"
 3204      6E644272 
 3204      6F616463 
 3204      61737400 
 3205              	.LASF14:
 3206 0235 74726566 		.ascii	"trefs_t\000"
 3206      735F7400 
 3207              	.LASF22:
 3208 023d 705F7072 		.ascii	"p_prev\000"
 3208      657600
 3209              	.LASF15:
 3210 0244 74707269 		.ascii	"tprio_t\000"
 3210      6F5F7400 
 3211              	.LASF66:
 3212 024c 6368436F 		.ascii	"chCondSignalI\000"
 3212      6E645369 
 3212      676E616C 
 3212      4900
 3213              	.LASF6:
 3214 025a 696E7433 		.ascii	"int32_t\000"
 3214      325F7400 
 3215              	.LASF2:
 3216 0262 756E7369 		.ascii	"unsigned char\000"
 3216      676E6564 
 3216      20636861 
 3216      7200
 3217              	.LASF36:
 3218 0270 705F6D74 		.ascii	"p_mtxlist\000"
 3218      786C6973 
 3218      7400
 3219              	.LASF3:
 3220 027a 73686F72 		.ascii	"short int\000"
 3220      7420696E 
 3220      7400
 3221              	.LASF28:
 3222 0284 705F7374 		.ascii	"p_state\000"
 3222      61746500 
 3223              	.LASF46:
 3224 028c 725F7072 		.ascii	"r_prio\000"
 3224      696F00
 3225              	.LASF62:
 3226 0293 65776D61 		.ascii	"ewmask\000"
 3226      736B00
 3227              	.LASF21:
 3228 029a 705F6E65 		.ascii	"p_next\000"
 3228      787400
 3229              	.LASF29:
 3230 02a1 705F666C 		.ascii	"p_flags\000"
ARM GAS  /var/folders/dt/0wfd0knj7gs46m8vwfzktm600000gn/T//ccm4MCQp.s 			page 60


 3230      61677300 
 3231              	.LASF20:
 3232 02a9 54687265 		.ascii	"Thread\000"
 3232      616400
 3233              	.LASF58:
 3234 02b0 635F7175 		.ascii	"c_queue\000"
 3234      65756500 
 3235              	.LASF75:
 3236 02b8 63685363 		.ascii	"chSchGoSleepS\000"
 3236      68476F53 
 3236      6C656570 
 3236      5300
 3237              	.LASF35:
 3238 02c6 705F6570 		.ascii	"p_epending\000"
 3238      656E6469 
 3238      6E6700
 3239              	.LASF8:
 3240 02d1 75696E74 		.ascii	"uint32_t\000"
 3240      33325F74 
 3240      00
 3241              	.LASF45:
 3242 02da 725F7175 		.ascii	"r_queue\000"
 3242      65756500 
 3243              	.LASF84:
 3244 02e2 63685363 		.ascii	"chSchReadyI\000"
 3244      68526561 
 3244      64794900 
 3245              	.LASF63:
 3246 02ee 63686172 		.ascii	"char\000"
 3246      00
 3247              	.LASF81:
 3248 02f3 6669666F 		.ascii	"fifo_remove\000"
 3248      5F72656D 
 3248      6F766500 
 3249              	.LASF69:
 3250 02ff 6368436F 		.ascii	"chCondWaitS\000"
 3250      6E645761 
 3250      69745300 
 3251              	.LASF56:
 3252 030b 6D5F6E65 		.ascii	"m_next\000"
 3252      787400
 3253              	.LASF18:
 3254 0312 73797374 		.ascii	"systime_t\000"
 3254      696D655F 
 3254      7400
 3255              	.LASF37:
 3256 031c 705F7265 		.ascii	"p_realprio\000"
 3256      616C7072 
 3256      696F00
 3257              	.LASF70:
 3258 0327 6368436F 		.ascii	"chCondWait\000"
 3258      6E645761 
 3258      697400
 3259              	.LASF31:
 3260 0332 705F7469 		.ascii	"p_time\000"
 3260      6D6500
 3261              	.LASF42:
ARM GAS  /var/folders/dt/0wfd0knj7gs46m8vwfzktm600000gn/T//ccm4MCQp.s 			page 61


 3262 0339 696E7463 		.ascii	"intctx\000"
 3262      747800
 3263              	.LASF33:
 3264 0340 705F6D73 		.ascii	"p_msgqueue\000"
 3264      67717565 
 3264      756500
 3265              	.LASF74:
 3266 034b 63685363 		.ascii	"chSchWakeupS\000"
 3266      6857616B 
 3266      65757053 
 3266      00
 3267              	.LASF30:
 3268 0358 705F7265 		.ascii	"p_refs\000"
 3268      667300
 3269              	.LASF52:
 3270 035f 52656164 		.ascii	"ReadyList\000"
 3270      794C6973 
 3270      7400
 3271              	.LASF83:
 3272 0369 726C6973 		.ascii	"rlist\000"
 3272      7400
 3273              	.LASF5:
 3274 036f 75696E74 		.ascii	"uint8_t\000"
 3274      385F7400 
 3275              	.LASF61:
 3276 0377 77746F62 		.ascii	"wtobjp\000"
 3276      6A7000
 3277              	.LASF27:
 3278 037e 705F6E61 		.ascii	"p_name\000"
 3278      6D6500
 3279              	.LASF73:
 3280 0385 6368436F 		.ascii	"chCondWaitTimeout\000"
 3280      6E645761 
 3280      69745469 
 3280      6D656F75 
 3280      7400
 3281              	.LASF77:
 3282 0397 63685363 		.ascii	"chSchGoSleepTimeoutS\000"
 3282      68476F53 
 3282      6C656570 
 3282      54696D65 
 3282      6F757453 
 3283              	.LASF50:
 3284 03ac 725F7072 		.ascii	"r_preempt\000"
 3284      65656D70 
 3284      7400
 3285              	.LASF55:
 3286 03b6 6D5F6F77 		.ascii	"m_owner\000"
 3286      6E657200 
 3287              	.LASF24:
 3288 03be 705F6374 		.ascii	"p_ctx\000"
 3288      7800
 3289              	.LASF32:
 3290 03c4 705F7761 		.ascii	"p_waiting\000"
 3290      6974696E 
 3290      6700
 3291              		.ident	"GCC: (GNU) 4.7.2"
ARM GAS  /var/folders/dt/0wfd0knj7gs46m8vwfzktm600000gn/T//ccm4MCQp.s 			page 62


ARM GAS  /var/folders/dt/0wfd0knj7gs46m8vwfzktm600000gn/T//ccm4MCQp.s 			page 63


DEFINED SYMBOLS
                            *ABS*:0000000000000000 chcond.c
/var/folders/dt/0wfd0knj7gs46m8vwfzktm600000gn/T//ccm4MCQp.s:19     .text.chCondInit:0000000000000000 $t
/var/folders/dt/0wfd0knj7gs46m8vwfzktm600000gn/T//ccm4MCQp.s:25     .text.chCondInit:0000000000000000 chCondInit
/var/folders/dt/0wfd0knj7gs46m8vwfzktm600000gn/T//ccm4MCQp.s:42     .text.chCondSignal:0000000000000000 $t
/var/folders/dt/0wfd0knj7gs46m8vwfzktm600000gn/T//ccm4MCQp.s:48     .text.chCondSignal:0000000000000000 chCondSignal
/var/folders/dt/0wfd0knj7gs46m8vwfzktm600000gn/T//ccm4MCQp.s:114    .text.chCondSignalI:0000000000000000 $t
/var/folders/dt/0wfd0knj7gs46m8vwfzktm600000gn/T//ccm4MCQp.s:120    .text.chCondSignalI:0000000000000000 chCondSignalI
/var/folders/dt/0wfd0knj7gs46m8vwfzktm600000gn/T//ccm4MCQp.s:160    .text.chCondBroadcastI:0000000000000000 $t
/var/folders/dt/0wfd0knj7gs46m8vwfzktm600000gn/T//ccm4MCQp.s:166    .text.chCondBroadcastI:0000000000000000 chCondBroadcastI
/var/folders/dt/0wfd0knj7gs46m8vwfzktm600000gn/T//ccm4MCQp.s:214    .text.chCondBroadcast:0000000000000000 $t
/var/folders/dt/0wfd0knj7gs46m8vwfzktm600000gn/T//ccm4MCQp.s:220    .text.chCondBroadcast:0000000000000000 chCondBroadcast
/var/folders/dt/0wfd0knj7gs46m8vwfzktm600000gn/T//ccm4MCQp.s:263    .text.chCondWaitS:0000000000000000 $t
/var/folders/dt/0wfd0knj7gs46m8vwfzktm600000gn/T//ccm4MCQp.s:269    .text.chCondWaitS:0000000000000000 chCondWaitS
/var/folders/dt/0wfd0knj7gs46m8vwfzktm600000gn/T//ccm4MCQp.s:359    .text.chCondWaitS:0000000000000044 $d
/var/folders/dt/0wfd0knj7gs46m8vwfzktm600000gn/T//ccm4MCQp.s:366    .text.chCondWait:0000000000000000 $t
/var/folders/dt/0wfd0knj7gs46m8vwfzktm600000gn/T//ccm4MCQp.s:372    .text.chCondWait:0000000000000000 chCondWait
/var/folders/dt/0wfd0knj7gs46m8vwfzktm600000gn/T//ccm4MCQp.s:413    .text.chCondWaitTimeoutS:0000000000000000 $t
/var/folders/dt/0wfd0knj7gs46m8vwfzktm600000gn/T//ccm4MCQp.s:419    .text.chCondWaitTimeoutS:0000000000000000 chCondWaitTimeoutS
/var/folders/dt/0wfd0knj7gs46m8vwfzktm600000gn/T//ccm4MCQp.s:511    .text.chCondWaitTimeoutS:0000000000000048 $d
/var/folders/dt/0wfd0knj7gs46m8vwfzktm600000gn/T//ccm4MCQp.s:516    .text.chCondWaitTimeout:0000000000000000 $t
/var/folders/dt/0wfd0knj7gs46m8vwfzktm600000gn/T//ccm4MCQp.s:522    .text.chCondWaitTimeout:0000000000000000 chCondWaitTimeout
                     .debug_frame:0000000000000010 $d
/var/folders/dt/0wfd0knj7gs46m8vwfzktm600000gn/T//ccm4MCQp.s:365    .text.chCondWaitS:0000000000000048 $t
/var/folders/dt/0wfd0knj7gs46m8vwfzktm600000gn/T//ccm4MCQp.s:515    .text.chCondWaitTimeoutS:000000000000004c $t

UNDEFINED SYMBOLS
chSchWakeupS
chSchReadyI
chSchRescheduleS
chMtxUnlockS
chSchGoSleepS
chMtxLockS
rlist
chSchGoSleepTimeoutS
