ARM GAS  /var/folders/dt/0wfd0knj7gs46m8vwfzktm600000gn/T//ccBRR2YJ.s 			page 1


   1              		.syntax unified
   2              		.cpu cortex-m3
   3              		.fpu softvfp
   4              		.eabi_attribute 20, 1
   5              		.eabi_attribute 21, 1
   6              		.eabi_attribute 23, 3
   7              		.eabi_attribute 24, 1
   8              		.eabi_attribute 25, 1
   9              		.eabi_attribute 26, 1
  10              		.eabi_attribute 30, 2
  11              		.eabi_attribute 34, 1
  12              		.eabi_attribute 18, 4
  13              		.thumb
  14              		.file	"chmboxes.c"
  15              		.text
  16              	.Ltext0:
  17              		.cfi_sections	.debug_frame
  18              		.section	.text.chMBInit,"ax",%progbits
  19              		.align	2
  20              		.p2align 4,,15
  21              		.global	chMBInit
  22              		.thumb
  23              		.thumb_func
  24              		.type	chMBInit, %function
  25              	chMBInit:
  26              	.LFB7:
  27              		.file 1 "../../os/kernel/src/chmboxes.c"
  28              		.loc 1 72 0
  29              		.cfi_startproc
  30              		@ args = 0, pretend = 0, frame = 0
  31              		@ frame_needed = 0, uses_anonymous_args = 0
  32              	.LVL0:
  33 0000 38B5     		push	{r3, r4, r5, lr}
  34              	.LCFI0:
  35              		.cfi_def_cfa_offset 16
  36              		.cfi_offset 3, -16
  37              		.cfi_offset 4, -12
  38              		.cfi_offset 5, -8
  39              		.cfi_offset 14, -4
  40              		.loc 1 72 0
  41 0002 0B46     		mov	r3, r1
  42 0004 0446     		mov	r4, r0
  43              		.loc 1 77 0
  44 0006 01EB8205 		add	r5, r1, r2, lsl #2
  45              		.loc 1 78 0
  46 000a 00F11C00 		add	r0, r0, #28
  47              	.LVL1:
  48 000e 1146     		mov	r1, r2
  49              	.LVL2:
  50              		.loc 1 76 0
  51 0010 E360     		str	r3, [r4, #12]
  52 0012 A360     		str	r3, [r4, #8]
  53              		.loc 1 77 0
  54 0014 84E82800 		stmia	r4, {r3, r5}
  55              		.loc 1 78 0
  56 0018 FFF7FEFF 		bl	chSemInit
  57              	.LVL3:
ARM GAS  /var/folders/dt/0wfd0knj7gs46m8vwfzktm600000gn/T//ccBRR2YJ.s 			page 2


  58              		.loc 1 79 0
  59 001c 04F11000 		add	r0, r4, #16
  60 0020 0021     		movs	r1, #0
  61              		.loc 1 80 0
  62 0022 BDE83840 		pop	{r3, r4, r5, lr}
  63              		.loc 1 79 0
  64 0026 FFF7FEBF 		b	chSemInit
  65              	.LVL4:
  66              		.cfi_endproc
  67              	.LFE7:
  68              		.size	chMBInit, .-chMBInit
  69 002a 00BFAFF3 		.section	.text.chMBReset,"ax",%progbits
  69      0080
  70              		.align	2
  71              		.p2align 4,,15
  72              		.global	chMBReset
  73              		.thumb
  74              		.thumb_func
  75              		.type	chMBReset, %function
  76              	chMBReset:
  77              	.LFB8:
  78              		.loc 1 91 0
  79              		.cfi_startproc
  80              		@ args = 0, pretend = 0, frame = 0
  81              		@ frame_needed = 0, uses_anonymous_args = 0
  82              	.LVL5:
  83 0000 10B5     		push	{r4, lr}
  84              	.LCFI1:
  85              		.cfi_def_cfa_offset 8
  86              		.cfi_offset 4, -8
  87              		.cfi_offset 14, -4
  88              	.LBB2:
  89              		.loc 1 95 0
  90 0002 2023     		movs	r3, #32
  91              	.LVL6:
  92              	.LBE2:
  93              		.loc 1 91 0
  94 0004 0446     		mov	r4, r0
  95              	.LBB3:
  96              		.loc 1 95 0
  97              	@ 95 "../../os/kernel/src/chmboxes.c" 1
  98 0006 83F31188 		msr     BASEPRI, r3
  99              	@ 0 "" 2
 100              	.LVL7:
 101              		.thumb
 102              	.LBE3:
 103              		.loc 1 96 0
 104 000a 0368     		ldr	r3, [r0, #0]
 105              	.LVL8:
 106              		.loc 1 97 0
 107 000c 4168     		ldr	r1, [r0, #4]
 108              		.loc 1 96 0
 109 000e E360     		str	r3, [r4, #12]
 110              		.loc 1 97 0
 111 0010 C91A     		subs	r1, r1, r3
 112              		.loc 1 96 0
 113 0012 A360     		str	r3, [r4, #8]
ARM GAS  /var/folders/dt/0wfd0knj7gs46m8vwfzktm600000gn/T//ccBRR2YJ.s 			page 3


 114              		.loc 1 97 0
 115 0014 8910     		asrs	r1, r1, #2
 116 0016 00F11C00 		add	r0, r0, #28
 117              	.LVL9:
 118 001a FFF7FEFF 		bl	chSemResetI
 119              	.LVL10:
 120              		.loc 1 98 0
 121 001e 04F11000 		add	r0, r4, #16
 122 0022 0021     		movs	r1, #0
 123 0024 FFF7FEFF 		bl	chSemResetI
 124              	.LVL11:
 125              		.loc 1 99 0
 126 0028 FFF7FEFF 		bl	chSchRescheduleS
 127              	.LVL12:
 128              	.LBB4:
 129              		.loc 1 100 0
 130 002c 0023     		movs	r3, #0
 131              	.LVL13:
 132              	@ 100 "../../os/kernel/src/chmboxes.c" 1
 133 002e 83F31188 		msr     BASEPRI, r3
 134              	@ 0 "" 2
 135              	.LVL14:
 136              		.thumb
 137 0032 10BD     		pop	{r4, pc}
 138              	.LBE4:
 139              		.cfi_endproc
 140              	.LFE8:
 141              		.size	chMBReset, .-chMBReset
 142 0034 AFF30080 		.section	.text.chMBPostS,"ax",%progbits
 142      AFF30080 
 142      AFF30080 
 143              		.align	2
 144              		.p2align 4,,15
 145              		.global	chMBPostS
 146              		.thumb
 147              		.thumb_func
 148              		.type	chMBPostS, %function
 149              	chMBPostS:
 150              	.LFB10:
 151              		.loc 1 150 0
 152              		.cfi_startproc
 153              		@ args = 0, pretend = 0, frame = 0
 154              		@ frame_needed = 0, uses_anonymous_args = 0
 155              	.LVL15:
 156 0000 70B5     		push	{r4, r5, r6, lr}
 157              	.LCFI2:
 158              		.cfi_def_cfa_offset 16
 159              		.cfi_offset 4, -16
 160              		.cfi_offset 5, -12
 161              		.cfi_offset 6, -8
 162              		.cfi_offset 14, -4
 163              		.loc 1 150 0
 164 0002 0446     		mov	r4, r0
 165 0004 0E46     		mov	r6, r1
 166              		.loc 1 156 0
 167 0006 00F11C00 		add	r0, r0, #28
 168              	.LVL16:
ARM GAS  /var/folders/dt/0wfd0knj7gs46m8vwfzktm600000gn/T//ccBRR2YJ.s 			page 4


 169 000a 1146     		mov	r1, r2
 170              	.LVL17:
 171 000c FFF7FEFF 		bl	chSemWaitTimeoutS
 172              	.LVL18:
 173              		.loc 1 157 0
 174 0010 0546     		mov	r5, r0
 175 0012 78B9     		cbnz	r0, .L4
 176              		.loc 1 158 0
 177 0014 A368     		ldr	r3, [r4, #8]
 178              		.loc 1 159 0
 179 0016 6268     		ldr	r2, [r4, #4]
 180              		.loc 1 158 0
 181 0018 43F8046B 		str	r6, [r3], #4
 182              		.loc 1 159 0
 183 001c 9342     		cmp	r3, r2
 184              		.loc 1 158 0
 185 001e A360     		str	r3, [r4, #8]
 186              		.loc 1 160 0
 187 0020 28BF     		it	cs
 188 0022 2368     		ldrcs	r3, [r4, #0]
 189              		.loc 1 161 0
 190 0024 04F11000 		add	r0, r4, #16
 191              	.LVL19:
 192              		.loc 1 160 0
 193 0028 28BF     		it	cs
 194 002a A360     		strcs	r3, [r4, #8]
 195              		.loc 1 161 0
 196 002c FFF7FEFF 		bl	chSemSignalI
 197              	.LVL20:
 198              		.loc 1 162 0
 199 0030 FFF7FEFF 		bl	chSchRescheduleS
 200              	.LVL21:
 201              	.L4:
 202              		.loc 1 165 0
 203 0034 2846     		mov	r0, r5
 204 0036 70BD     		pop	{r4, r5, r6, pc}
 205              		.cfi_endproc
 206              	.LFE10:
 207              		.size	chMBPostS, .-chMBPostS
 208 0038 AFF30080 		.section	.text.chMBPost,"ax",%progbits
 208      AFF30080 
 209              		.align	2
 210              		.p2align 4,,15
 211              		.global	chMBPost
 212              		.thumb
 213              		.thumb_func
 214              		.type	chMBPost, %function
 215              	chMBPost:
 216              	.LFB9:
 217              		.loc 1 122 0
 218              		.cfi_startproc
 219              		@ args = 0, pretend = 0, frame = 0
 220              		@ frame_needed = 0, uses_anonymous_args = 0
 221              	.LVL22:
 222 0000 08B5     		push	{r3, lr}
 223              	.LCFI3:
 224              		.cfi_def_cfa_offset 8
ARM GAS  /var/folders/dt/0wfd0knj7gs46m8vwfzktm600000gn/T//ccBRR2YJ.s 			page 5


 225              		.cfi_offset 3, -8
 226              		.cfi_offset 14, -4
 227              	.LBB5:
 228              		.loc 1 125 0
 229 0002 2023     		movs	r3, #32
 230              	.LVL23:
 231              	@ 125 "../../os/kernel/src/chmboxes.c" 1
 232 0004 83F31188 		msr     BASEPRI, r3
 233              	@ 0 "" 2
 234              	.LVL24:
 235              		.thumb
 236              	.LBE5:
 237              		.loc 1 126 0
 238 0008 FFF7FEFF 		bl	chMBPostS
 239              	.LVL25:
 240              	.LBB6:
 241              		.loc 1 127 0
 242 000c 0023     		movs	r3, #0
 243              	.LVL26:
 244              	@ 127 "../../os/kernel/src/chmboxes.c" 1
 245 000e 83F31188 		msr     BASEPRI, r3
 246              	@ 0 "" 2
 247              	.LVL27:
 248              		.thumb
 249              	.LBE6:
 250              		.loc 1 129 0
 251 0012 08BD     		pop	{r3, pc}
 252              		.cfi_endproc
 253              	.LFE9:
 254              		.size	chMBPost, .-chMBPost
 255 0014 AFF30080 		.section	.text.chMBPostI,"ax",%progbits
 255      AFF30080 
 255      AFF30080 
 256              		.align	2
 257              		.p2align 4,,15
 258              		.global	chMBPostI
 259              		.thumb
 260              		.thumb_func
 261              		.type	chMBPostI, %function
 262              	chMBPostI:
 263              	.LFB11:
 264              		.loc 1 181 0
 265              		.cfi_startproc
 266              		@ args = 0, pretend = 0, frame = 0
 267              		@ frame_needed = 0, uses_anonymous_args = 0
 268              	.LVL28:
 269              		.loc 1 186 0
 270 0000 426A     		ldr	r2, [r0, #36]
 271              		.loc 1 181 0
 272 0002 10B5     		push	{r4, lr}
 273              	.LCFI4:
 274              		.cfi_def_cfa_offset 8
 275              		.cfi_offset 4, -8
 276              		.cfi_offset 14, -4
 277              		.loc 1 186 0
 278 0004 002A     		cmp	r2, #0
 279 0006 0FDD     		ble	.L11
ARM GAS  /var/folders/dt/0wfd0knj7gs46m8vwfzktm600000gn/T//ccBRR2YJ.s 			page 6


 280              		.loc 1 189 0
 281 0008 8368     		ldr	r3, [r0, #8]
 282              		.loc 1 190 0
 283 000a 4468     		ldr	r4, [r0, #4]
 284              		.loc 1 188 0
 285 000c 013A     		subs	r2, r2, #1
 286 000e 4262     		str	r2, [r0, #36]
 287              		.loc 1 189 0
 288 0010 43F8041B 		str	r1, [r3], #4
 289              		.loc 1 190 0
 290 0014 A342     		cmp	r3, r4
 291              		.loc 1 189 0
 292 0016 8360     		str	r3, [r0, #8]
 293              		.loc 1 191 0
 294 0018 24BF     		itt	cs
 295 001a 0368     		ldrcs	r3, [r0, #0]
 296 001c 8360     		strcs	r3, [r0, #8]
 297              		.loc 1 192 0
 298 001e 1030     		adds	r0, r0, #16
 299              	.LVL29:
 300 0020 FFF7FEFF 		bl	chSemSignalI
 301              	.LVL30:
 302              		.loc 1 193 0
 303 0024 0020     		movs	r0, #0
 304 0026 10BD     		pop	{r4, pc}
 305              	.LVL31:
 306              	.L11:
 307              		.loc 1 187 0
 308 0028 4FF0FF30 		mov	r0, #-1
 309              	.LVL32:
 310              		.loc 1 194 0
 311 002c 10BD     		pop	{r4, pc}
 312              		.cfi_endproc
 313              	.LFE11:
 314              		.size	chMBPostI, .-chMBPostI
 315 002e 00BF     		.section	.text.chMBPostAheadS,"ax",%progbits
 316              		.align	2
 317              		.p2align 4,,15
 318              		.global	chMBPostAheadS
 319              		.thumb
 320              		.thumb_func
 321              		.type	chMBPostAheadS, %function
 322              	chMBPostAheadS:
 323              	.LFB13:
 324              		.loc 1 243 0
 325              		.cfi_startproc
 326              		@ args = 0, pretend = 0, frame = 0
 327              		@ frame_needed = 0, uses_anonymous_args = 0
 328              	.LVL33:
 329 0000 70B5     		push	{r4, r5, r6, lr}
 330              	.LCFI5:
 331              		.cfi_def_cfa_offset 16
 332              		.cfi_offset 4, -16
 333              		.cfi_offset 5, -12
 334              		.cfi_offset 6, -8
 335              		.cfi_offset 14, -4
 336              		.loc 1 243 0
ARM GAS  /var/folders/dt/0wfd0knj7gs46m8vwfzktm600000gn/T//ccBRR2YJ.s 			page 7


 337 0002 0446     		mov	r4, r0
 338 0004 0E46     		mov	r6, r1
 339              		.loc 1 249 0
 340 0006 00F11C00 		add	r0, r0, #28
 341              	.LVL34:
 342 000a 1146     		mov	r1, r2
 343              	.LVL35:
 344 000c FFF7FEFF 		bl	chSemWaitTimeoutS
 345              	.LVL36:
 346              		.loc 1 250 0
 347 0010 0546     		mov	r5, r0
 348 0012 60B9     		cbnz	r0, .L13
 349              		.loc 1 251 0
 350 0014 E368     		ldr	r3, [r4, #12]
 351 0016 2268     		ldr	r2, [r4, #0]
 352 0018 043B     		subs	r3, r3, #4
 353 001a 9342     		cmp	r3, r2
 354 001c E360     		str	r3, [r4, #12]
 355 001e 08D3     		bcc	.L15
 356              	.L14:
 357              		.loc 1 254 0
 358 0020 04F11000 		add	r0, r4, #16
 359              	.LVL37:
 360              		.loc 1 253 0
 361 0024 1E60     		str	r6, [r3, #0]
 362              		.loc 1 254 0
 363 0026 FFF7FEFF 		bl	chSemSignalI
 364              	.LVL38:
 365              		.loc 1 255 0
 366 002a FFF7FEFF 		bl	chSchRescheduleS
 367              	.LVL39:
 368              	.L13:
 369              		.loc 1 258 0
 370 002e 2846     		mov	r0, r5
 371 0030 70BD     		pop	{r4, r5, r6, pc}
 372              	.LVL40:
 373              	.L15:
 374              		.loc 1 252 0
 375 0032 6368     		ldr	r3, [r4, #4]
 376 0034 043B     		subs	r3, r3, #4
 377 0036 E360     		str	r3, [r4, #12]
 378 0038 F2E7     		b	.L14
 379              		.cfi_endproc
 380              	.LFE13:
 381              		.size	chMBPostAheadS, .-chMBPostAheadS
 382 003a 00BFAFF3 		.section	.text.chMBPostAhead,"ax",%progbits
 382      0080
 383              		.align	2
 384              		.p2align 4,,15
 385              		.global	chMBPostAhead
 386              		.thumb
 387              		.thumb_func
 388              		.type	chMBPostAhead, %function
 389              	chMBPostAhead:
 390              	.LFB12:
 391              		.loc 1 215 0
 392              		.cfi_startproc
ARM GAS  /var/folders/dt/0wfd0knj7gs46m8vwfzktm600000gn/T//ccBRR2YJ.s 			page 8


 393              		@ args = 0, pretend = 0, frame = 0
 394              		@ frame_needed = 0, uses_anonymous_args = 0
 395              	.LVL41:
 396 0000 08B5     		push	{r3, lr}
 397              	.LCFI6:
 398              		.cfi_def_cfa_offset 8
 399              		.cfi_offset 3, -8
 400              		.cfi_offset 14, -4
 401              	.LBB7:
 402              		.loc 1 218 0
 403 0002 2023     		movs	r3, #32
 404              	.LVL42:
 405              	@ 218 "../../os/kernel/src/chmboxes.c" 1
 406 0004 83F31188 		msr     BASEPRI, r3
 407              	@ 0 "" 2
 408              	.LVL43:
 409              		.thumb
 410              	.LBE7:
 411              		.loc 1 219 0
 412 0008 FFF7FEFF 		bl	chMBPostAheadS
 413              	.LVL44:
 414              	.LBB8:
 415              		.loc 1 220 0
 416 000c 0023     		movs	r3, #0
 417              	.LVL45:
 418              	@ 220 "../../os/kernel/src/chmboxes.c" 1
 419 000e 83F31188 		msr     BASEPRI, r3
 420              	@ 0 "" 2
 421              	.LVL46:
 422              		.thumb
 423              	.LBE8:
 424              		.loc 1 222 0
 425 0012 08BD     		pop	{r3, pc}
 426              		.cfi_endproc
 427              	.LFE12:
 428              		.size	chMBPostAhead, .-chMBPostAhead
 429 0014 AFF30080 		.section	.text.chMBPostAheadI,"ax",%progbits
 429      AFF30080 
 429      AFF30080 
 430              		.align	2
 431              		.p2align 4,,15
 432              		.global	chMBPostAheadI
 433              		.thumb
 434              		.thumb_func
 435              		.type	chMBPostAheadI, %function
 436              	chMBPostAheadI:
 437              	.LFB14:
 438              		.loc 1 274 0
 439              		.cfi_startproc
 440              		@ args = 0, pretend = 0, frame = 0
 441              		@ frame_needed = 0, uses_anonymous_args = 0
 442              	.LVL47:
 443              		.loc 1 279 0
 444 0000 426A     		ldr	r2, [r0, #36]
 445              		.loc 1 274 0
 446 0002 10B5     		push	{r4, lr}
 447              	.LCFI7:
ARM GAS  /var/folders/dt/0wfd0knj7gs46m8vwfzktm600000gn/T//ccBRR2YJ.s 			page 9


 448              		.cfi_def_cfa_offset 8
 449              		.cfi_offset 4, -8
 450              		.cfi_offset 14, -4
 451              		.loc 1 279 0
 452 0004 002A     		cmp	r2, #0
 453 0006 10DD     		ble	.L20
 454              		.loc 1 282 0
 455 0008 C368     		ldr	r3, [r0, #12]
 456 000a 0468     		ldr	r4, [r0, #0]
 457 000c 043B     		subs	r3, r3, #4
 458              		.loc 1 281 0
 459 000e 013A     		subs	r2, r2, #1
 460              		.loc 1 282 0
 461 0010 A342     		cmp	r3, r4
 462              		.loc 1 281 0
 463 0012 4262     		str	r2, [r0, #36]
 464              		.loc 1 282 0
 465 0014 C360     		str	r3, [r0, #12]
 466 0016 02D2     		bcs	.L19
 467              		.loc 1 283 0
 468 0018 4368     		ldr	r3, [r0, #4]
 469 001a 043B     		subs	r3, r3, #4
 470 001c C360     		str	r3, [r0, #12]
 471              	.L19:
 472              		.loc 1 285 0
 473 001e 1030     		adds	r0, r0, #16
 474              	.LVL48:
 475              		.loc 1 284 0
 476 0020 1960     		str	r1, [r3, #0]
 477              		.loc 1 285 0
 478 0022 FFF7FEFF 		bl	chSemSignalI
 479              	.LVL49:
 480              		.loc 1 286 0
 481 0026 0020     		movs	r0, #0
 482 0028 10BD     		pop	{r4, pc}
 483              	.LVL50:
 484              	.L20:
 485              		.loc 1 280 0
 486 002a 4FF0FF30 		mov	r0, #-1
 487              	.LVL51:
 488              		.loc 1 287 0
 489 002e 10BD     		pop	{r4, pc}
 490              		.cfi_endproc
 491              	.LFE14:
 492              		.size	chMBPostAheadI, .-chMBPostAheadI
 493              		.section	.text.chMBFetchS,"ax",%progbits
 494              		.align	2
 495              		.p2align 4,,15
 496              		.global	chMBFetchS
 497              		.thumb
 498              		.thumb_func
 499              		.type	chMBFetchS, %function
 500              	chMBFetchS:
 501              	.LFB16:
 502              		.loc 1 336 0
 503              		.cfi_startproc
 504              		@ args = 0, pretend = 0, frame = 0
ARM GAS  /var/folders/dt/0wfd0knj7gs46m8vwfzktm600000gn/T//ccBRR2YJ.s 			page 10


 505              		@ frame_needed = 0, uses_anonymous_args = 0
 506              	.LVL52:
 507 0000 70B5     		push	{r4, r5, r6, lr}
 508              	.LCFI8:
 509              		.cfi_def_cfa_offset 16
 510              		.cfi_offset 4, -16
 511              		.cfi_offset 5, -12
 512              		.cfi_offset 6, -8
 513              		.cfi_offset 14, -4
 514              		.loc 1 336 0
 515 0002 0446     		mov	r4, r0
 516 0004 0E46     		mov	r6, r1
 517              		.loc 1 342 0
 518 0006 00F11000 		add	r0, r0, #16
 519              	.LVL53:
 520 000a 1146     		mov	r1, r2
 521              	.LVL54:
 522 000c FFF7FEFF 		bl	chSemWaitTimeoutS
 523              	.LVL55:
 524              		.loc 1 343 0
 525 0010 0546     		mov	r5, r0
 526 0012 78B9     		cbnz	r0, .L22
 527              		.loc 1 344 0
 528 0014 E368     		ldr	r3, [r4, #12]
 529              		.loc 1 345 0
 530 0016 6268     		ldr	r2, [r4, #4]
 531              		.loc 1 344 0
 532 0018 53F8041B 		ldr	r1, [r3], #4
 533              		.loc 1 347 0
 534 001c 04F11C00 		add	r0, r4, #28
 535              	.LVL56:
 536              		.loc 1 345 0
 537 0020 9342     		cmp	r3, r2
 538              		.loc 1 344 0
 539 0022 3160     		str	r1, [r6, #0]
 540 0024 E360     		str	r3, [r4, #12]
 541              		.loc 1 346 0
 542 0026 24BF     		itt	cs
 543 0028 2368     		ldrcs	r3, [r4, #0]
 544 002a E360     		strcs	r3, [r4, #12]
 545              		.loc 1 347 0
 546 002c FFF7FEFF 		bl	chSemSignalI
 547              	.LVL57:
 548              		.loc 1 348 0
 549 0030 FFF7FEFF 		bl	chSchRescheduleS
 550              	.LVL58:
 551              	.L22:
 552              		.loc 1 351 0
 553 0034 2846     		mov	r0, r5
 554 0036 70BD     		pop	{r4, r5, r6, pc}
 555              		.cfi_endproc
 556              	.LFE16:
 557              		.size	chMBFetchS, .-chMBFetchS
 558 0038 AFF30080 		.section	.text.chMBFetch,"ax",%progbits
 558      AFF30080 
 559              		.align	2
 560              		.p2align 4,,15
ARM GAS  /var/folders/dt/0wfd0knj7gs46m8vwfzktm600000gn/T//ccBRR2YJ.s 			page 11


 561              		.global	chMBFetch
 562              		.thumb
 563              		.thumb_func
 564              		.type	chMBFetch, %function
 565              	chMBFetch:
 566              	.LFB15:
 567              		.loc 1 308 0
 568              		.cfi_startproc
 569              		@ args = 0, pretend = 0, frame = 0
 570              		@ frame_needed = 0, uses_anonymous_args = 0
 571              	.LVL59:
 572 0000 08B5     		push	{r3, lr}
 573              	.LCFI9:
 574              		.cfi_def_cfa_offset 8
 575              		.cfi_offset 3, -8
 576              		.cfi_offset 14, -4
 577              	.LBB9:
 578              		.loc 1 311 0
 579 0002 2023     		movs	r3, #32
 580              	.LVL60:
 581              	@ 311 "../../os/kernel/src/chmboxes.c" 1
 582 0004 83F31188 		msr     BASEPRI, r3
 583              	@ 0 "" 2
 584              	.LVL61:
 585              		.thumb
 586              	.LBE9:
 587              		.loc 1 312 0
 588 0008 FFF7FEFF 		bl	chMBFetchS
 589              	.LVL62:
 590              	.LBB10:
 591              		.loc 1 313 0
 592 000c 0023     		movs	r3, #0
 593              	.LVL63:
 594              	@ 313 "../../os/kernel/src/chmboxes.c" 1
 595 000e 83F31188 		msr     BASEPRI, r3
 596              	@ 0 "" 2
 597              	.LVL64:
 598              		.thumb
 599              	.LBE10:
 600              		.loc 1 315 0
 601 0012 08BD     		pop	{r3, pc}
 602              		.cfi_endproc
 603              	.LFE15:
 604              		.size	chMBFetch, .-chMBFetch
 605 0014 AFF30080 		.section	.text.chMBFetchI,"ax",%progbits
 605      AFF30080 
 605      AFF30080 
 606              		.align	2
 607              		.p2align 4,,15
 608              		.global	chMBFetchI
 609              		.thumb
 610              		.thumb_func
 611              		.type	chMBFetchI, %function
 612              	chMBFetchI:
 613              	.LFB17:
 614              		.loc 1 367 0
 615              		.cfi_startproc
ARM GAS  /var/folders/dt/0wfd0knj7gs46m8vwfzktm600000gn/T//ccBRR2YJ.s 			page 12


 616              		@ args = 0, pretend = 0, frame = 0
 617              		@ frame_needed = 0, uses_anonymous_args = 0
 618              	.LVL65:
 619              		.loc 1 372 0
 620 0000 8269     		ldr	r2, [r0, #24]
 621              		.loc 1 367 0
 622 0002 10B5     		push	{r4, lr}
 623              	.LCFI10:
 624              		.cfi_def_cfa_offset 8
 625              		.cfi_offset 4, -8
 626              		.cfi_offset 14, -4
 627              		.loc 1 372 0
 628 0004 002A     		cmp	r2, #0
 629 0006 10DD     		ble	.L28
 630              		.loc 1 375 0
 631 0008 C368     		ldr	r3, [r0, #12]
 632              		.loc 1 374 0
 633 000a 013A     		subs	r2, r2, #1
 634 000c 8261     		str	r2, [r0, #24]
 635              		.loc 1 375 0
 636 000e 53F8044B 		ldr	r4, [r3], #4
 637              		.loc 1 376 0
 638 0012 4268     		ldr	r2, [r0, #4]
 639              		.loc 1 375 0
 640 0014 0C60     		str	r4, [r1, #0]
 641              		.loc 1 376 0
 642 0016 9342     		cmp	r3, r2
 643              		.loc 1 375 0
 644 0018 C360     		str	r3, [r0, #12]
 645              		.loc 1 377 0
 646 001a 24BF     		itt	cs
 647 001c 0368     		ldrcs	r3, [r0, #0]
 648 001e C360     		strcs	r3, [r0, #12]
 649              		.loc 1 378 0
 650 0020 1C30     		adds	r0, r0, #28
 651              	.LVL66:
 652 0022 FFF7FEFF 		bl	chSemSignalI
 653              	.LVL67:
 654              		.loc 1 379 0
 655 0026 0020     		movs	r0, #0
 656 0028 10BD     		pop	{r4, pc}
 657              	.LVL68:
 658              	.L28:
 659              		.loc 1 373 0
 660 002a 4FF0FF30 		mov	r0, #-1
 661              	.LVL69:
 662              		.loc 1 380 0
 663 002e 10BD     		pop	{r4, pc}
 664              		.cfi_endproc
 665              	.LFE17:
 666              		.size	chMBFetchI, .-chMBFetchI
 667              		.text
 668              	.Letext0:
 669              		.file 2 "/Users/toxygen/Applications/yagarto-4.7.2/bin/../lib/gcc/arm-none-eabi/4.7.2/../../../../
 670              		.file 3 "../../os/ports/GCC/ARMCMx/chtypes.h"
 671              		.file 4 "../../os/kernel/include/chlists.h"
 672              		.file 5 "../../os/kernel/include/chthreads.h"
ARM GAS  /var/folders/dt/0wfd0knj7gs46m8vwfzktm600000gn/T//ccBRR2YJ.s 			page 13


 673              		.file 6 "../../os/ports/GCC/ARMCMx/chcore_v7m.h"
 674              		.file 7 "../../os/kernel/include/chsem.h"
 675              		.file 8 "../../os/kernel/include/chmtx.h"
 676              		.file 9 "../../os/kernel/include/chmboxes.h"
 677              		.file 10 "../../os/kernel/include/chschd.h"