ARM GAS  /var/folders/dt/0wfd0knj7gs46m8vwfzktm600000gn/T//ccBRR2YJ.s 			page 1


   1              		.syntax unified
   2              		.cpu cortex-m3
   3              		.fpu softvfp
   4              		.eabi_attribute 20, 1
   5              		.eabi_attribute 21, 1
   6              		.eabi_attribute 23, 3
   7              		.eabi_attribute 24, 1
   8              		.eabi_attribute 25, 1
   9              		.eabi_attribute 26, 1
  10              		.eabi_attribute 30, 2
  11              		.eabi_attribute 34, 1
  12              		.eabi_attribute 18, 4
  13              		.thumb
  14              		.file	"chmboxes.c"
  15              		.text
  16              	.Ltext0:
  17              		.cfi_sections	.debug_frame
  18              		.section	.text.chMBInit,"ax",%progbits
  19              		.align	2
  20              		.p2align 4,,15
  21              		.global	chMBInit
  22              		.thumb
  23              		.thumb_func
  24              		.type	chMBInit, %function
  25              	chMBInit:
  26              	.LFB7:
  27              		.file 1 "../../os/kernel/src/chmboxes.c"
  28              		.loc 1 72 0
  29              		.cfi_startproc
  30              		@ args = 0, pretend = 0, frame = 0
  31              		@ frame_needed = 0, uses_anonymous_args = 0
  32              	.LVL0:
  33 0000 38B5     		push	{r3, r4, r5, lr}
  34              	.LCFI0:
  35              		.cfi_def_cfa_offset 16
  36              		.cfi_offset 3, -16
  37              		.cfi_offset 4, -12
  38              		.cfi_offset 5, -8
  39              		.cfi_offset 14, -4
  40              		.loc 1 72 0
  41 0002 0B46     		mov	r3, r1
  42 0004 0446     		mov	r4, r0
  43              		.loc 1 77 0
  44 0006 01EB8205 		add	r5, r1, r2, lsl #2
  45              		.loc 1 78 0
  46 000a 00F11C00 		add	r0, r0, #28
  47              	.LVL1:
  48 000e 1146     		mov	r1, r2
  49              	.LVL2:
  50              		.loc 1 76 0
  51 0010 E360     		str	r3, [r4, #12]
  52 0012 A360     		str	r3, [r4, #8]
  53              		.loc 1 77 0
  54 0014 84E82800 		stmia	r4, {r3, r5}
  55              		.loc 1 78 0
  56 0018 FFF7FEFF 		bl	chSemInit
  57              	.LVL3:
ARM GAS  /var/folders/dt/0wfd0knj7gs46m8vwfzktm600000gn/T//ccBRR2YJ.s 			page 2


  58              		.loc 1 79 0
  59 001c 04F11000 		add	r0, r4, #16
  60 0020 0021     		movs	r1, #0
  61              		.loc 1 80 0
  62 0022 BDE83840 		pop	{r3, r4, r5, lr}
  63              		.loc 1 79 0
  64 0026 FFF7FEBF 		b	chSemInit
  65              	.LVL4:
  66              		.cfi_endproc
  67              	.LFE7:
  68              		.size	chMBInit, .-chMBInit
  69 002a 00BFAFF3 		.section	.text.chMBReset,"ax",%progbits
  69      0080
  70              		.align	2
  71              		.p2align 4,,15
  72              		.global	chMBReset
  73              		.thumb
  74              		.thumb_func
  75              		.type	chMBReset, %function
  76              	chMBReset:
  77              	.LFB8:
  78              		.loc 1 91 0
  79              		.cfi_startproc
  80              		@ args = 0, pretend = 0, frame = 0
  81              		@ frame_needed = 0, uses_anonymous_args = 0
  82              	.LVL5:
  83 0000 10B5     		push	{r4, lr}
  84              	.LCFI1:
  85              		.cfi_def_cfa_offset 8
  86              		.cfi_offset 4, -8
  87              		.cfi_offset 14, -4
  88              	.LBB2:
  89              		.loc 1 95 0
  90 0002 2023     		movs	r3, #32
  91              	.LVL6:
  92              	.LBE2:
  93              		.loc 1 91 0
  94 0004 0446     		mov	r4, r0
  95              	.LBB3:
  96              		.loc 1 95 0
  97              	@ 95 "../../os/kernel/src/chmboxes.c" 1
  98 0006 83F31188 		msr     BASEPRI, r3
  99              	@ 0 "" 2
 100              	.LVL7:
 101              		.thumb
 102              	.LBE3:
 103              		.loc 1 96 0
 104 000a 0368     		ldr	r3, [r0, #0]
 105              	.LVL8:
 106              		.loc 1 97 0
 107 000c 4168     		ldr	r1, [r0, #4]
 108              		.loc 1 96 0
 109 000e E360     		str	r3, [r4, #12]
 110              		.loc 1 97 0
 111 0010 C91A     		subs	r1, r1, r3
 112              		.loc 1 96 0
 113 0012 A360     		str	r3, [r4, #8]
ARM GAS  /var/folders/dt/0wfd0knj7gs46m8vwfzktm600000gn/T//ccBRR2YJ.s 			page 3


 114              		.loc 1 97 0
 115 0014 8910     		asrs	r1, r1, #2
 116 0016 00F11C00 		add	r0, r0, #28
 117              	.LVL9:
 118 001a FFF7FEFF 		bl	chSemResetI
 119              	.LVL10:
 120              		.loc 1 98 0
 121 001e 04F11000 		add	r0, r4, #16
 122 0022 0021     		movs	r1, #0
 123 0024 FFF7FEFF 		bl	chSemResetI
 124              	.LVL11:
 125              		.loc 1 99 0
 126 0028 FFF7FEFF 		bl	chSchRescheduleS
 127              	.LVL12:
 128              	.LBB4:
 129              		.loc 1 100 0
 130 002c 0023     		movs	r3, #0
 131              	.LVL13:
 132              	@ 100 "../../os/kernel/src/chmboxes.c" 1
 133 002e 83F31188 		msr     BASEPRI, r3
 134              	@ 0 "" 2
 135              	.LVL14:
 136              		.thumb
 137 0032 10BD     		pop	{r4, pc}
 138              	.LBE4:
 139              		.cfi_endproc
 140              	.LFE8:
 141              		.size	chMBReset, .-chMBReset
 142 0034 AFF30080 		.section	.text.chMBPostS,"ax",%progbits
 142      AFF30080 
 142      AFF30080 
 143              		.align	2
 144              		.p2align 4,,15
 145              		.global	chMBPostS
 146              		.thumb
 147              		.thumb_func
 148              		.type	chMBPostS, %function
 149              	chMBPostS:
 150              	.LFB10:
 151              		.loc 1 150 0
 152              		.cfi_startproc
 153              		@ args = 0, pretend = 0, frame = 0
 154              		@ frame_needed = 0, uses_anonymous_args = 0
 155              	.LVL15:
 156 0000 70B5     		push	{r4, r5, r6, lr}
 157              	.LCFI2:
 158              		.cfi_def_cfa_offset 16
 159              		.cfi_offset 4, -16
 160              		.cfi_offset 5, -12
 161              		.cfi_offset 6, -8
 162              		.cfi_offset 14, -4
 163              		.loc 1 150 0
 164 0002 0446     		mov	r4, r0
 165 0004 0E46     		mov	r6, r1
 166              		.loc 1 156 0
 167 0006 00F11C00 		add	r0, r0, #28
 168              	.LVL16:
ARM GAS  /var/folders/dt/0wfd0knj7gs46m8vwfzktm600000gn/T//ccBRR2YJ.s 			page 4


 169 000a 1146     		mov	r1, r2
 170              	.LVL17:
 171 000c FFF7FEFF 		bl	chSemWaitTimeoutS
 172              	.LVL18:
 173              		.loc 1 157 0
 174 0010 0546     		mov	r5, r0
 175 0012 78B9     		cbnz	r0, .L4
 176              		.loc 1 158 0
 177 0014 A368     		ldr	r3, [r4, #8]
 178              		.loc 1 159 0
 179 0016 6268     		ldr	r2, [r4, #4]
 180              		.loc 1 158 0
 181 0018 43F8046B 		str	r6, [r3], #4
 182              		.loc 1 159 0
 183 001c 9342     		cmp	r3, r2
 184              		.loc 1 158 0
 185 001e A360     		str	r3, [r4, #8]
 186              		.loc 1 160 0
 187 0020 28BF     		it	cs
 188 0022 2368     		ldrcs	r3, [r4, #0]
 189              		.loc 1 161 0
 190 0024 04F11000 		add	r0, r4, #16
 191              	.LVL19:
 192              		.loc 1 160 0
 193 0028 28BF     		it	cs
 194 002a A360     		strcs	r3, [r4, #8]
 195              		.loc 1 161 0
 196 002c FFF7FEFF 		bl	chSemSignalI
 197              	.LVL20:
 198              		.loc 1 162 0
 199 0030 FFF7FEFF 		bl	chSchRescheduleS
 200              	.LVL21:
 201              	.L4:
 202              		.loc 1 165 0
 203 0034 2846     		mov	r0, r5
 204 0036 70BD     		pop	{r4, r5, r6, pc}
 205              		.cfi_endproc
 206              	.LFE10:
 207              		.size	chMBPostS, .-chMBPostS
 208 0038 AFF30080 		.section	.text.chMBPost,"ax",%progbits
 208      AFF30080 
 209              		.align	2
 210              		.p2align 4,,15
 211              		.global	chMBPost
 212              		.thumb
 213              		.thumb_func
 214              		.type	chMBPost, %function
 215              	chMBPost:
 216              	.LFB9:
 217              		.loc 1 122 0
 218              		.cfi_startproc
 219              		@ args = 0, pretend = 0, frame = 0
 220              		@ frame_needed = 0, uses_anonymous_args = 0
 221              	.LVL22:
 222 0000 08B5     		push	{r3, lr}
 223              	.LCFI3:
 224              		.cfi_def_cfa_offset 8
ARM GAS  /var/folders/dt/0wfd0knj7gs46m8vwfzktm600000gn/T//ccBRR2YJ.s 			page 5


 225              		.cfi_offset 3, -8
 226              		.cfi_offset 14, -4
 227              	.LBB5:
 228              		.loc 1 125 0
 229 0002 2023     		movs	r3, #32
 230              	.LVL23:
 231              	@ 125 "../../os/kernel/src/chmboxes.c" 1
 232 0004 83F31188 		msr     BASEPRI, r3
 233              	@ 0 "" 2
 234              	.LVL24:
 235              		.thumb
 236              	.LBE5:
 237              		.loc 1 126 0
 238 0008 FFF7FEFF 		bl	chMBPostS
 239              	.LVL25:
 240              	.LBB6:
 241              		.loc 1 127 0
 242 000c 0023     		movs	r3, #0
 243              	.LVL26:
 244              	@ 127 "../../os/kernel/src/chmboxes.c" 1
 245 000e 83F31188 		msr     BASEPRI, r3
 246              	@ 0 "" 2
 247              	.LVL27:
 248              		.thumb
 249              	.LBE6:
 250              		.loc 1 129 0
 251 0012 08BD     		pop	{r3, pc}
 252              		.cfi_endproc
 253              	.LFE9:
 254              		.size	chMBPost, .-chMBPost
 255 0014 AFF30080 		.section	.text.chMBPostI,"ax",%progbits
 255      AFF30080 
 255      AFF30080 
 256              		.align	2
 257              		.p2align 4,,15
 258              		.global	chMBPostI
 259              		.thumb
 260              		.thumb_func
 261              		.type	chMBPostI, %function
 262              	chMBPostI:
 263              	.LFB11:
 264              		.loc 1 181 0
 265              		.cfi_startproc
 266              		@ args = 0, pretend = 0, frame = 0
 267              		@ frame_needed = 0, uses_anonymous_args = 0
 268              	.LVL28:
 269              		.loc 1 186 0
 270 0000 426A     		ldr	r2, [r0, #36]
 271              		.loc 1 181 0
 272 0002 10B5     		push	{r4, lr}
 273              	.LCFI4:
 274              		.cfi_def_cfa_offset 8
 275              		.cfi_offset 4, -8
 276              		.cfi_offset 14, -4
 277              		.loc 1 186 0
 278 0004 002A     		cmp	r2, #0
 279 0006 0FDD     		ble	.L11
ARM GAS  /var/folders/dt/0wfd0knj7gs46m8vwfzktm600000gn/T//ccBRR2YJ.s 			page 6


 280              		.loc 1 189 0
 281 0008 8368     		ldr	r3, [r0, #8]
 282              		.loc 1 190 0
 283 000a 4468     		ldr	r4, [r0, #4]
 284              		.loc 1 188 0
 285 000c 013A     		subs	r2, r2, #1
 286 000e 4262     		str	r2, [r0, #36]
 287              		.loc 1 189 0
 288 0010 43F8041B 		str	r1, [r3], #4
 289              		.loc 1 190 0
 290 0014 A342     		cmp	r3, r4
 291              		.loc 1 189 0
 292 0016 8360     		str	r3, [r0, #8]
 293              		.loc 1 191 0
 294 0018 24BF     		itt	cs
 295 001a 0368     		ldrcs	r3, [r0, #0]
 296 001c 8360     		strcs	r3, [r0, #8]
 297              		.loc 1 192 0
 298 001e 1030     		adds	r0, r0, #16
 299              	.LVL29:
 300 0020 FFF7FEFF 		bl	chSemSignalI
 301              	.LVL30:
 302              		.loc 1 193 0
 303 0024 0020     		movs	r0, #0
 304 0026 10BD     		pop	{r4, pc}
 305              	.LVL31:
 306              	.L11:
 307              		.loc 1 187 0
 308 0028 4FF0FF30 		mov	r0, #-1
 309              	.LVL32:
 310              		.loc 1 194 0
 311 002c 10BD     		pop	{r4, pc}
 312              		.cfi_endproc
 313              	.LFE11:
 314              		.size	chMBPostI, .-chMBPostI
 315 002e 00BF     		.section	.text.chMBPostAheadS,"ax",%progbits
 316              		.align	2
 317              		.p2align 4,,15
 318              		.global	chMBPostAheadS
 319              		.thumb
 320              		.thumb_func
 321              		.type	chMBPostAheadS, %function
 322              	chMBPostAheadS:
 323              	.LFB13:
 324              		.loc 1 243 0
 325              		.cfi_startproc
 326              		@ args = 0, pretend = 0, frame = 0
 327              		@ frame_needed = 0, uses_anonymous_args = 0
 328              	.LVL33:
 329 0000 70B5     		push	{r4, r5, r6, lr}
 330              	.LCFI5:
 331              		.cfi_def_cfa_offset 16
 332              		.cfi_offset 4, -16
 333              		.cfi_offset 5, -12
 334              		.cfi_offset 6, -8
 335              		.cfi_offset 14, -4
 336              		.loc 1 243 0
ARM GAS  /var/folders/dt/0wfd0knj7gs46m8vwfzktm600000gn/T//ccBRR2YJ.s 			page 7


 337 0002 0446     		mov	r4, r0
 338 0004 0E46     		mov	r6, r1
 339              		.loc 1 249 0
 340 0006 00F11C00 		add	r0, r0, #28
 341              	.LVL34:
 342 000a 1146     		mov	r1, r2
 343              	.LVL35:
 344 000c FFF7FEFF 		bl	chSemWaitTimeoutS
 345              	.LVL36:
 346              		.loc 1 250 0
 347 0010 0546     		mov	r5, r0
 348 0012 60B9     		cbnz	r0, .L13
 349              		.loc 1 251 0
 350 0014 E368     		ldr	r3, [r4, #12]
 351 0016 2268     		ldr	r2, [r4, #0]
 352 0018 043B     		subs	r3, r3, #4
 353 001a 9342     		cmp	r3, r2
 354 001c E360     		str	r3, [r4, #12]
 355 001e 08D3     		bcc	.L15
 356              	.L14:
 357              		.loc 1 254 0
 358 0020 04F11000 		add	r0, r4, #16
 359              	.LVL37:
 360              		.loc 1 253 0
 361 0024 1E60     		str	r6, [r3, #0]
 362              		.loc 1 254 0
 363 0026 FFF7FEFF 		bl	chSemSignalI
 364              	.LVL38:
 365              		.loc 1 255 0
 366 002a FFF7FEFF 		bl	chSchRescheduleS
 367              	.LVL39:
 368              	.L13:
 369              		.loc 1 258 0
 370 002e 2846     		mov	r0, r5
 371 0030 70BD     		pop	{r4, r5, r6, pc}
 372              	.LVL40:
 373              	.L15:
 374              		.loc 1 252 0
 375 0032 6368     		ldr	r3, [r4, #4]
 376 0034 043B     		subs	r3, r3, #4
 377 0036 E360     		str	r3, [r4, #12]
 378 0038 F2E7     		b	.L14
 379              		.cfi_endproc
 380              	.LFE13:
 381              		.size	chMBPostAheadS, .-chMBPostAheadS
 382 003a 00BFAFF3 		.section	.text.chMBPostAhead,"ax",%progbits
 382      0080
 383              		.align	2
 384              		.p2align 4,,15
 385              		.global	chMBPostAhead
 386              		.thumb
 387              		.thumb_func
 388              		.type	chMBPostAhead, %function
 389              	chMBPostAhead:
 390              	.LFB12:
 391              		.loc 1 215 0
 392              		.cfi_startproc
ARM GAS  /var/folders/dt/0wfd0knj7gs46m8vwfzktm600000gn/T//ccBRR2YJ.s 			page 8


 393              		@ args = 0, pretend = 0, frame = 0
 394              		@ frame_needed = 0, uses_anonymous_args = 0
 395              	.LVL41:
 396 0000 08B5     		push	{r3, lr}
 397              	.LCFI6:
 398              		.cfi_def_cfa_offset 8
 399              		.cfi_offset 3, -8
 400              		.cfi_offset 14, -4
 401              	.LBB7:
 402              		.loc 1 218 0
 403 0002 2023     		movs	r3, #32
 404              	.LVL42:
 405              	@ 218 "../../os/kernel/src/chmboxes.c" 1
 406 0004 83F31188 		msr     BASEPRI, r3
 407              	@ 0 "" 2
 408              	.LVL43:
 409              		.thumb
 410              	.LBE7:
 411              		.loc 1 219 0
 412 0008 FFF7FEFF 		bl	chMBPostAheadS
 413              	.LVL44:
 414              	.LBB8:
 415              		.loc 1 220 0
 416 000c 0023     		movs	r3, #0
 417              	.LVL45:
 418              	@ 220 "../../os/kernel/src/chmboxes.c" 1
 419 000e 83F31188 		msr     BASEPRI, r3
 420              	@ 0 "" 2
 421              	.LVL46:
 422              		.thumb
 423              	.LBE8:
 424              		.loc 1 222 0
 425 0012 08BD     		pop	{r3, pc}
 426              		.cfi_endproc
 427              	.LFE12:
 428              		.size	chMBPostAhead, .-chMBPostAhead
 429 0014 AFF30080 		.section	.text.chMBPostAheadI,"ax",%progbits
 429      AFF30080 
 429      AFF30080 
 430              		.align	2
 431              		.p2align 4,,15
 432              		.global	chMBPostAheadI
 433              		.thumb
 434              		.thumb_func
 435              		.type	chMBPostAheadI, %function
 436              	chMBPostAheadI:
 437              	.LFB14:
 438              		.loc 1 274 0
 439              		.cfi_startproc
 440              		@ args = 0, pretend = 0, frame = 0
 441              		@ frame_needed = 0, uses_anonymous_args = 0
 442              	.LVL47:
 443              		.loc 1 279 0
 444 0000 426A     		ldr	r2, [r0, #36]
 445              		.loc 1 274 0
 446 0002 10B5     		push	{r4, lr}
 447              	.LCFI7:
ARM GAS  /var/folders/dt/0wfd0knj7gs46m8vwfzktm600000gn/T//ccBRR2YJ.s 			page 9


 448              		.cfi_def_cfa_offset 8
 449              		.cfi_offset 4, -8
 450              		.cfi_offset 14, -4
 451              		.loc 1 279 0
 452 0004 002A     		cmp	r2, #0
 453 0006 10DD     		ble	.L20
 454              		.loc 1 282 0
 455 0008 C368     		ldr	r3, [r0, #12]
 456 000a 0468     		ldr	r4, [r0, #0]
 457 000c 043B     		subs	r3, r3, #4
 458              		.loc 1 281 0
 459 000e 013A     		subs	r2, r2, #1
 460              		.loc 1 282 0
 461 0010 A342     		cmp	r3, r4
 462              		.loc 1 281 0
 463 0012 4262     		str	r2, [r0, #36]
 464              		.loc 1 282 0
 465 0014 C360     		str	r3, [r0, #12]
 466 0016 02D2     		bcs	.L19
 467              		.loc 1 283 0
 468 0018 4368     		ldr	r3, [r0, #4]
 469 001a 043B     		subs	r3, r3, #4
 470 001c C360     		str	r3, [r0, #12]
 471              	.L19:
 472              		.loc 1 285 0
 473 001e 1030     		adds	r0, r0, #16
 474              	.LVL48:
 475              		.loc 1 284 0
 476 0020 1960     		str	r1, [r3, #0]
 477              		.loc 1 285 0
 478 0022 FFF7FEFF 		bl	chSemSignalI
 479              	.LVL49:
 480              		.loc 1 286 0
 481 0026 0020     		movs	r0, #0
 482 0028 10BD     		pop	{r4, pc}
 483              	.LVL50:
 484              	.L20:
 485              		.loc 1 280 0
 486 002a 4FF0FF30 		mov	r0, #-1
 487              	.LVL51:
 488              		.loc 1 287 0
 489 002e 10BD     		pop	{r4, pc}
 490              		.cfi_endproc
 491              	.LFE14:
 492              		.size	chMBPostAheadI, .-chMBPostAheadI
 493              		.section	.text.chMBFetchS,"ax",%progbits
 494              		.align	2
 495              		.p2align 4,,15
 496              		.global	chMBFetchS
 497              		.thumb
 498              		.thumb_func
 499              		.type	chMBFetchS, %function
 500              	chMBFetchS:
 501              	.LFB16:
 502              		.loc 1 336 0
 503              		.cfi_startproc
 504              		@ args = 0, pretend = 0, frame = 0
ARM GAS  /var/folders/dt/0wfd0knj7gs46m8vwfzktm600000gn/T//ccBRR2YJ.s 			page 10


 505              		@ frame_needed = 0, uses_anonymous_args = 0
 506              	.LVL52:
 507 0000 70B5     		push	{r4, r5, r6, lr}
 508              	.LCFI8:
 509              		.cfi_def_cfa_offset 16
 510              		.cfi_offset 4, -16
 511              		.cfi_offset 5, -12
 512              		.cfi_offset 6, -8
 513              		.cfi_offset 14, -4
 514              		.loc 1 336 0
 515 0002 0446     		mov	r4, r0
 516 0004 0E46     		mov	r6, r1
 517              		.loc 1 342 0
 518 0006 00F11000 		add	r0, r0, #16
 519              	.LVL53:
 520 000a 1146     		mov	r1, r2
 521              	.LVL54:
 522 000c FFF7FEFF 		bl	chSemWaitTimeoutS
 523              	.LVL55:
 524              		.loc 1 343 0
 525 0010 0546     		mov	r5, r0
 526 0012 78B9     		cbnz	r0, .L22
 527              		.loc 1 344 0
 528 0014 E368     		ldr	r3, [r4, #12]
 529              		.loc 1 345 0
 530 0016 6268     		ldr	r2, [r4, #4]
 531              		.loc 1 344 0
 532 0018 53F8041B 		ldr	r1, [r3], #4
 533              		.loc 1 347 0
 534 001c 04F11C00 		add	r0, r4, #28
 535              	.LVL56:
 536              		.loc 1 345 0
 537 0020 9342     		cmp	r3, r2
 538              		.loc 1 344 0
 539 0022 3160     		str	r1, [r6, #0]
 540 0024 E360     		str	r3, [r4, #12]
 541              		.loc 1 346 0
 542 0026 24BF     		itt	cs
 543 0028 2368     		ldrcs	r3, [r4, #0]
 544 002a E360     		strcs	r3, [r4, #12]
 545              		.loc 1 347 0
 546 002c FFF7FEFF 		bl	chSemSignalI
 547              	.LVL57:
 548              		.loc 1 348 0
 549 0030 FFF7FEFF 		bl	chSchRescheduleS
 550              	.LVL58:
 551              	.L22:
 552              		.loc 1 351 0
 553 0034 2846     		mov	r0, r5
 554 0036 70BD     		pop	{r4, r5, r6, pc}
 555              		.cfi_endproc
 556              	.LFE16:
 557              		.size	chMBFetchS, .-chMBFetchS
 558 0038 AFF30080 		.section	.text.chMBFetch,"ax",%progbits
 558      AFF30080 
 559              		.align	2
 560              		.p2align 4,,15
ARM GAS  /var/folders/dt/0wfd0knj7gs46m8vwfzktm600000gn/T//ccBRR2YJ.s 			page 11


 561              		.global	chMBFetch
 562              		.thumb
 563              		.thumb_func
 564              		.type	chMBFetch, %function
 565              	chMBFetch:
 566              	.LFB15:
 567              		.loc 1 308 0
 568              		.cfi_startproc
 569              		@ args = 0, pretend = 0, frame = 0
 570              		@ frame_needed = 0, uses_anonymous_args = 0
 571              	.LVL59:
 572 0000 08B5     		push	{r3, lr}
 573              	.LCFI9:
 574              		.cfi_def_cfa_offset 8
 575              		.cfi_offset 3, -8
 576              		.cfi_offset 14, -4
 577              	.LBB9:
 578              		.loc 1 311 0
 579 0002 2023     		movs	r3, #32
 580              	.LVL60:
 581              	@ 311 "../../os/kernel/src/chmboxes.c" 1
 582 0004 83F31188 		msr     BASEPRI, r3
 583              	@ 0 "" 2
 584              	.LVL61:
 585              		.thumb
 586              	.LBE9:
 587              		.loc 1 312 0
 588 0008 FFF7FEFF 		bl	chMBFetchS
 589              	.LVL62:
 590              	.LBB10:
 591              		.loc 1 313 0
 592 000c 0023     		movs	r3, #0
 593              	.LVL63:
 594              	@ 313 "../../os/kernel/src/chmboxes.c" 1
 595 000e 83F31188 		msr     BASEPRI, r3
 596              	@ 0 "" 2
 597              	.LVL64:
 598              		.thumb
 599              	.LBE10:
 600              		.loc 1 315 0
 601 0012 08BD     		pop	{r3, pc}
 602              		.cfi_endproc
 603              	.LFE15:
 604              		.size	chMBFetch, .-chMBFetch
 605 0014 AFF30080 		.section	.text.chMBFetchI,"ax",%progbits
 605      AFF30080 
 605      AFF30080 
 606              		.align	2
 607              		.p2align 4,,15
 608              		.global	chMBFetchI
 609              		.thumb
 610              		.thumb_func
 611              		.type	chMBFetchI, %function
 612              	chMBFetchI:
 613              	.LFB17:
 614              		.loc 1 367 0
 615              		.cfi_startproc
ARM GAS  /var/folders/dt/0wfd0knj7gs46m8vwfzktm600000gn/T//ccBRR2YJ.s 			page 12


 616              		@ args = 0, pretend = 0, frame = 0
 617              		@ frame_needed = 0, uses_anonymous_args = 0
 618              	.LVL65:
 619              		.loc 1 372 0
 620 0000 8269     		ldr	r2, [r0, #24]
 621              		.loc 1 367 0
 622 0002 10B5     		push	{r4, lr}
 623              	.LCFI10:
 624              		.cfi_def_cfa_offset 8
 625              		.cfi_offset 4, -8
 626              		.cfi_offset 14, -4
 627              		.loc 1 372 0
 628 0004 002A     		cmp	r2, #0
 629 0006 10DD     		ble	.L28
 630              		.loc 1 375 0
 631 0008 C368     		ldr	r3, [r0, #12]
 632              		.loc 1 374 0
 633 000a 013A     		subs	r2, r2, #1
 634 000c 8261     		str	r2, [r0, #24]
 635              		.loc 1 375 0
 636 000e 53F8044B 		ldr	r4, [r3], #4
 637              		.loc 1 376 0
 638 0012 4268     		ldr	r2, [r0, #4]
 639              		.loc 1 375 0
 640 0014 0C60     		str	r4, [r1, #0]
 641              		.loc 1 376 0
 642 0016 9342     		cmp	r3, r2
 643              		.loc 1 375 0
 644 0018 C360     		str	r3, [r0, #12]
 645              		.loc 1 377 0
 646 001a 24BF     		itt	cs
 647 001c 0368     		ldrcs	r3, [r0, #0]
 648 001e C360     		strcs	r3, [r0, #12]
 649              		.loc 1 378 0
 650 0020 1C30     		adds	r0, r0, #28
 651              	.LVL66:
 652 0022 FFF7FEFF 		bl	chSemSignalI
 653              	.LVL67:
 654              		.loc 1 379 0
 655 0026 0020     		movs	r0, #0
 656 0028 10BD     		pop	{r4, pc}
 657              	.LVL68:
 658              	.L28:
 659              		.loc 1 373 0
 660 002a 4FF0FF30 		mov	r0, #-1
 661              	.LVL69:
 662              		.loc 1 380 0
 663 002e 10BD     		pop	{r4, pc}
 664              		.cfi_endproc
 665              	.LFE17:
 666              		.size	chMBFetchI, .-chMBFetchI
 667              		.text
 668              	.Letext0:
 669              		.file 2 "/Users/toxygen/Applications/yagarto-4.7.2/bin/../lib/gcc/arm-none-eabi/4.7.2/../../../../
 670              		.file 3 "../../os/ports/GCC/ARMCMx/chtypes.h"
 671              		.file 4 "../../os/kernel/include/chlists.h"
 672              		.file 5 "../../os/kernel/include/chthreads.h"
ARM GAS  /var/folders/dt/0wfd0knj7gs46m8vwfzktm600000gn/T//ccBRR2YJ.s 			page 13


 673              		.file 6 "../../os/ports/GCC/ARMCMx/chcore_v7m.h"
 674              		.file 7 "../../os/kernel/include/chsem.h"
 675              		.file 8 "../../os/kernel/include/chmtx.h"
 676              		.file 9 "../../os/kernel/include/chmboxes.h"
 677              		.file 10 "../../os/kernel/include/chschd.h"
 678              		.section	.debug_info,"",%progbits
 679              	.Ldebug_info0:
 680 0000 B20A0000 		.4byte	0xab2
 681 0004 0200     		.2byte	0x2
 682 0006 00000000 		.4byte	.Ldebug_abbrev0
 683 000a 04       		.byte	0x4
 684 000b 01       		.uleb128 0x1
 685 000c 3E020000 		.4byte	.LASF79
 686 0010 01       		.byte	0x1
 687 0011 23010000 		.4byte	.LASF80
 688 0015 13000000 		.4byte	.LASF81
 689 0019 18000000 		.4byte	.Ldebug_ranges0+0x18
 690 001d 00000000 		.4byte	0
 691 0021 00000000 		.4byte	0
 692 0025 00000000 		.4byte	.Ldebug_line0
 693 0029 02       		.uleb128 0x2
 694 002a 04       		.byte	0x4
 695 002b 05       		.byte	0x5
 696 002c 696E7400 		.ascii	"int\000"
 697 0030 03       		.uleb128 0x3
 698 0031 04       		.byte	0x4
 699 0032 07       		.byte	0x7
 700 0033 62010000 		.4byte	.LASF0
 701 0037 03       		.uleb128 0x3
 702 0038 01       		.byte	0x1
 703 0039 06       		.byte	0x6
 704 003a E5000000 		.4byte	.LASF1
 705 003e 04       		.uleb128 0x4
 706 003f 60030000 		.4byte	.LASF5
 707 0043 02       		.byte	0x2
 708 0044 2A       		.byte	0x2a
 709 0045 49000000 		.4byte	0x49
 710 0049 03       		.uleb128 0x3
 711 004a 01       		.byte	0x1
 712 004b 08       		.byte	0x8
 713 004c 69020000 		.4byte	.LASF2
 714 0050 03       		.uleb128 0x3
 715 0051 02       		.byte	0x2
 716 0052 05       		.byte	0x5
 717 0053 88020000 		.4byte	.LASF3
 718 0057 03       		.uleb128 0x3
 719 0058 02       		.byte	0x2
 720 0059 07       		.byte	0x7
 721 005a A4010000 		.4byte	.LASF4
 722 005e 04       		.uleb128 0x4
 723 005f 61020000 		.4byte	.LASF6
 724 0063 02       		.byte	0x2
 725 0064 4F       		.byte	0x4f
 726 0065 69000000 		.4byte	0x69
 727 0069 03       		.uleb128 0x3
 728 006a 04       		.byte	0x4
 729 006b 05       		.byte	0x5
ARM GAS  /var/folders/dt/0wfd0knj7gs46m8vwfzktm600000gn/T//ccBRR2YJ.s 			page 14


 730 006c 01010000 		.4byte	.LASF7
 731 0070 04       		.uleb128 0x4
 732 0071 CB020000 		.4byte	.LASF8
 733 0075 02       		.byte	0x2
 734 0076 50       		.byte	0x50
 735 0077 7B000000 		.4byte	0x7b
 736 007b 03       		.uleb128 0x3
 737 007c 04       		.byte	0x4
 738 007d 07       		.byte	0x7
 739 007e 78010000 		.4byte	.LASF9
 740 0082 03       		.uleb128 0x3
 741 0083 08       		.byte	0x8
 742 0084 05       		.byte	0x5
 743 0085 D7000000 		.4byte	.LASF10
 744 0089 03       		.uleb128 0x3
 745 008a 08       		.byte	0x8
 746 008b 07       		.byte	0x7
 747 008c 98000000 		.4byte	.LASF11
 748 0090 04       		.uleb128 0x4
 749 0091 D3010000 		.4byte	.LASF12
 750 0095 03       		.byte	0x3
 751 0096 2F       		.byte	0x2f
 752 0097 3E000000 		.4byte	0x3e
 753 009b 04       		.uleb128 0x4
 754 009c 0A010000 		.4byte	.LASF13
 755 00a0 03       		.byte	0x3
 756 00a1 30       		.byte	0x30
 757 00a2 3E000000 		.4byte	0x3e
 758 00a6 04       		.uleb128 0x4
 759 00a7 4A020000 		.4byte	.LASF14
 760 00ab 03       		.byte	0x3
 761 00ac 31       		.byte	0x31
 762 00ad 3E000000 		.4byte	0x3e
 763 00b1 04       		.uleb128 0x4
 764 00b2 59020000 		.4byte	.LASF15
 765 00b6 03       		.byte	0x3
 766 00b7 32       		.byte	0x32
 767 00b8 70000000 		.4byte	0x70
 768 00bc 04       		.uleb128 0x4
 769 00bd C2010000 		.4byte	.LASF16
 770 00c1 03       		.byte	0x3
 771 00c2 33       		.byte	0x33
 772 00c3 5E000000 		.4byte	0x5e
 773 00c7 04       		.uleb128 0x4
 774 00c8 E7010000 		.4byte	.LASF17
 775 00cc 03       		.byte	0x3
 776 00cd 35       		.byte	0x35
 777 00ce 70000000 		.4byte	0x70
 778 00d2 04       		.uleb128 0x4
 779 00d3 F2020000 		.4byte	.LASF18
 780 00d7 03       		.byte	0x3
 781 00d8 36       		.byte	0x36
 782 00d9 70000000 		.4byte	0x70
 783 00dd 04       		.uleb128 0x4
 784 00de 5C010000 		.4byte	.LASF19
 785 00e2 03       		.byte	0x3
 786 00e3 37       		.byte	0x37
ARM GAS  /var/folders/dt/0wfd0knj7gs46m8vwfzktm600000gn/T//ccBRR2YJ.s 			page 15


 787 00e4 5E000000 		.4byte	0x5e
 788 00e8 04       		.uleb128 0x4
 789 00e9 B9020000 		.4byte	.LASF20
 790 00ed 04       		.byte	0x4
 791 00ee 2A       		.byte	0x2a
 792 00ef F3000000 		.4byte	0xf3
 793 00f3 05       		.uleb128 0x5
 794 00f4 B9020000 		.4byte	.LASF20
 795 00f8 48       		.byte	0x48
 796 00f9 05       		.byte	0x5
 797 00fa 5E       		.byte	0x5e
 798 00fb 0A020000 		.4byte	0x20a
 799 00ff 06       		.uleb128 0x6
 800 0100 A1020000 		.4byte	.LASF21
 801 0104 05       		.byte	0x5
 802 0105 5F       		.byte	0x5f
 803 0106 2F020000 		.4byte	0x22f
 804 010a 02       		.byte	0x2
 805 010b 23       		.byte	0x23
 806 010c 00       		.uleb128 0
 807 010d 06       		.uleb128 0x6
 808 010e 52020000 		.4byte	.LASF22
 809 0112 05       		.byte	0x5
 810 0113 61       		.byte	0x61
 811 0114 2F020000 		.4byte	0x22f
 812 0118 02       		.byte	0x2
 813 0119 23       		.byte	0x23
 814 011a 04       		.uleb128 0x4
 815 011b 06       		.uleb128 0x6
 816 011c D0000000 		.4byte	.LASF23
 817 0120 05       		.byte	0x5
 818 0121 63       		.byte	0x63
 819 0122 B1000000 		.4byte	0xb1
 820 0126 02       		.byte	0x2
 821 0127 23       		.byte	0x23
 822 0128 08       		.uleb128 0x8
 823 0129 06       		.uleb128 0x6
 824 012a 7E030000 		.4byte	.LASF24
 825 012e 05       		.byte	0x5
 826 012f 64       		.byte	0x64
 827 0130 FC020000 		.4byte	0x2fc
 828 0134 02       		.byte	0x2
 829 0135 23       		.byte	0x23
 830 0136 0C       		.uleb128 0xc
 831 0137 06       		.uleb128 0x6
 832 0138 13010000 		.4byte	.LASF25
 833 013c 05       		.byte	0x5
 834 013d 66       		.byte	0x66
 835 013e 2F020000 		.4byte	0x22f
 836 0142 02       		.byte	0x2
 837 0143 23       		.byte	0x23
 838 0144 10       		.uleb128 0x10
 839 0145 06       		.uleb128 0x6
 840 0146 1A020000 		.4byte	.LASF26
 841 014a 05       		.byte	0x5
 842 014b 67       		.byte	0x67
 843 014c 2F020000 		.4byte	0x22f
ARM GAS  /var/folders/dt/0wfd0knj7gs46m8vwfzktm600000gn/T//ccBRR2YJ.s 			page 16


 844 0150 02       		.byte	0x2
 845 0151 23       		.byte	0x23
 846 0152 14       		.uleb128 0x14
 847 0153 06       		.uleb128 0x6
 848 0154 6F030000 		.4byte	.LASF27
 849 0158 05       		.byte	0x5
 850 0159 6E       		.byte	0x6e
 851 015a 4A040000 		.4byte	0x44a
 852 015e 02       		.byte	0x2
 853 015f 23       		.byte	0x23
 854 0160 18       		.uleb128 0x18
 855 0161 06       		.uleb128 0x6
 856 0162 92020000 		.4byte	.LASF28
 857 0166 05       		.byte	0x5
 858 0167 79       		.byte	0x79
 859 0168 9B000000 		.4byte	0x9b
 860 016c 02       		.byte	0x2
 861 016d 23       		.byte	0x23
 862 016e 1C       		.uleb128 0x1c
 863 016f 06       		.uleb128 0x6
 864 0170 A8020000 		.4byte	.LASF29
 865 0174 05       		.byte	0x5
 866 0175 7D       		.byte	0x7d
 867 0176 90000000 		.4byte	0x90
 868 017a 02       		.byte	0x2
 869 017b 23       		.byte	0x23
 870 017c 1D       		.uleb128 0x1d
 871 017d 06       		.uleb128 0x6
 872 017e 4D030000 		.4byte	.LASF30
 873 0182 05       		.byte	0x5
 874 0183 82       		.byte	0x82
 875 0184 A6000000 		.4byte	0xa6
 876 0188 02       		.byte	0x2
 877 0189 23       		.byte	0x23
 878 018a 1E       		.uleb128 0x1e
 879 018b 06       		.uleb128 0x6
 880 018c 07030000 		.4byte	.LASF31
 881 0190 05       		.byte	0x5
 882 0191 89       		.byte	0x89
 883 0192 26030000 		.4byte	0x326
 884 0196 02       		.byte	0x2
 885 0197 23       		.byte	0x23
 886 0198 20       		.uleb128 0x20
 887 0199 07       		.uleb128 0x7
 888 019a 705F7500 		.ascii	"p_u\000"
 889 019e 05       		.byte	0x5
 890 019f AE       		.byte	0xae
 891 01a0 15040000 		.4byte	0x415
 892 01a4 02       		.byte	0x2
 893 01a5 23       		.byte	0x23
 894 01a6 24       		.uleb128 0x24
 895 01a7 06       		.uleb128 0x6
 896 01a8 84030000 		.4byte	.LASF32
 897 01ac 05       		.byte	0x5
 898 01ad B3       		.byte	0xb3
 899 01ae 57020000 		.4byte	0x257
 900 01b2 02       		.byte	0x2
ARM GAS  /var/folders/dt/0wfd0knj7gs46m8vwfzktm600000gn/T//ccBRR2YJ.s 			page 17


 901 01b3 23       		.byte	0x23
 902 01b4 28       		.uleb128 0x28
 903 01b5 06       		.uleb128 0x6
 904 01b6 23030000 		.4byte	.LASF33
 905 01ba 05       		.byte	0x5
 906 01bb B9       		.byte	0xb9
 907 01bc 35020000 		.4byte	0x235
 908 01c0 02       		.byte	0x2
 909 01c1 23       		.byte	0x23
 910 01c2 2C       		.uleb128 0x2c
 911 01c3 06       		.uleb128 0x6
 912 01c4 00000000 		.4byte	.LASF34
 913 01c8 05       		.byte	0x5
 914 01c9 BD       		.byte	0xbd
 915 01ca BC000000 		.4byte	0xbc
 916 01ce 02       		.byte	0x2
 917 01cf 23       		.byte	0x23
 918 01d0 34       		.uleb128 0x34
 919 01d1 06       		.uleb128 0x6
 920 01d2 C0020000 		.4byte	.LASF35
 921 01d6 05       		.byte	0x5
 922 01d7 C3       		.byte	0xc3
 923 01d8 C7000000 		.4byte	0xc7
 924 01dc 02       		.byte	0x2
 925 01dd 23       		.byte	0x23
 926 01de 38       		.uleb128 0x38
 927 01df 06       		.uleb128 0x6
 928 01e0 7E020000 		.4byte	.LASF36
 929 01e4 05       		.byte	0x5
 930 01e5 CA       		.byte	0xca
 931 01e6 5C040000 		.4byte	0x45c
 932 01ea 02       		.byte	0x2
 933 01eb 23       		.byte	0x23
 934 01ec 3C       		.uleb128 0x3c
 935 01ed 06       		.uleb128 0x6
 936 01ee FC020000 		.4byte	.LASF37
 937 01f2 05       		.byte	0x5
 938 01f3 CE       		.byte	0xce
 939 01f4 B1000000 		.4byte	0xb1
 940 01f8 02       		.byte	0x2
 941 01f9 23       		.byte	0x23
 942 01fa 40       		.uleb128 0x40
 943 01fb 06       		.uleb128 0x6
 944 01fc F1000000 		.4byte	.LASF38
 945 0200 05       		.byte	0x5
 946 0201 D4       		.byte	0xd4
 947 0202 6D020000 		.4byte	0x26d
 948 0206 02       		.byte	0x2
 949 0207 23       		.byte	0x23
 950 0208 44       		.uleb128 0x44
 951 0209 00       		.byte	0
 952 020a 08       		.uleb128 0x8
 953 020b 08       		.byte	0x8
 954 020c 04       		.byte	0x4
 955 020d 61       		.byte	0x61
 956 020e 2F020000 		.4byte	0x22f
 957 0212 06       		.uleb128 0x6
ARM GAS  /var/folders/dt/0wfd0knj7gs46m8vwfzktm600000gn/T//ccBRR2YJ.s 			page 18


 958 0213 A1020000 		.4byte	.LASF21
 959 0217 04       		.byte	0x4
 960 0218 62       		.byte	0x62
 961 0219 2F020000 		.4byte	0x22f
 962 021d 02       		.byte	0x2
 963 021e 23       		.byte	0x23
 964 021f 00       		.uleb128 0
 965 0220 06       		.uleb128 0x6
 966 0221 52020000 		.4byte	.LASF22
 967 0225 04       		.byte	0x4
 968 0226 64       		.byte	0x64
 969 0227 2F020000 		.4byte	0x22f
 970 022b 02       		.byte	0x2
 971 022c 23       		.byte	0x23
 972 022d 04       		.uleb128 0x4
 973 022e 00       		.byte	0
 974 022f 09       		.uleb128 0x9
 975 0230 04       		.byte	0x4
 976 0231 E8000000 		.4byte	0xe8
 977 0235 04       		.uleb128 0x4
 978 0236 22020000 		.4byte	.LASF39
 979 023a 04       		.byte	0x4
 980 023b 66       		.byte	0x66
 981 023c 0A020000 		.4byte	0x20a
 982 0240 08       		.uleb128 0x8
 983 0241 04       		.byte	0x4
 984 0242 04       		.byte	0x4
 985 0243 6B       		.byte	0x6b
 986 0244 57020000 		.4byte	0x257
 987 0248 06       		.uleb128 0x6
 988 0249 A1020000 		.4byte	.LASF21
 989 024d 04       		.byte	0x4
 990 024e 6D       		.byte	0x6d
 991 024f 2F020000 		.4byte	0x22f
 992 0253 02       		.byte	0x2
 993 0254 23       		.byte	0x23
 994 0255 00       		.uleb128 0
 995 0256 00       		.byte	0
 996 0257 04       		.uleb128 0x4
 997 0258 DB010000 		.4byte	.LASF40
 998 025c 04       		.byte	0x4
 999 025d 70       		.byte	0x70
 1000 025e 40020000 		.4byte	0x240
 1001 0262 04       		.uleb128 0x4
 1002 0263 53010000 		.4byte	.LASF41
 1003 0267 06       		.byte	0x6
 1004 0268 D7       		.byte	0xd7
 1005 0269 6D020000 		.4byte	0x26d
 1006 026d 0A       		.uleb128 0xa
 1007 026e 04       		.byte	0x4
 1008 026f 05       		.uleb128 0x5
 1009 0270 1C030000 		.4byte	.LASF42
 1010 0274 24       		.byte	0x24
 1011 0275 06       		.byte	0x6
 1012 0276 FE       		.byte	0xfe
 1013 0277 FC020000 		.4byte	0x2fc
 1014 027b 0B       		.uleb128 0xb
ARM GAS  /var/folders/dt/0wfd0knj7gs46m8vwfzktm600000gn/T//ccBRR2YJ.s 			page 19


 1015 027c 723400   		.ascii	"r4\000"
 1016 027f 06       		.byte	0x6
 1017 0280 1101     		.2byte	0x111
 1018 0282 62020000 		.4byte	0x262
 1019 0286 02       		.byte	0x2
 1020 0287 23       		.byte	0x23
 1021 0288 00       		.uleb128 0
 1022 0289 0B       		.uleb128 0xb
 1023 028a 723500   		.ascii	"r5\000"
 1024 028d 06       		.byte	0x6
 1025 028e 1201     		.2byte	0x112
 1026 0290 62020000 		.4byte	0x262
 1027 0294 02       		.byte	0x2
 1028 0295 23       		.byte	0x23
 1029 0296 04       		.uleb128 0x4
 1030 0297 0B       		.uleb128 0xb
 1031 0298 723600   		.ascii	"r6\000"
 1032 029b 06       		.byte	0x6
 1033 029c 1301     		.2byte	0x113
 1034 029e 62020000 		.4byte	0x262
 1035 02a2 02       		.byte	0x2
 1036 02a3 23       		.byte	0x23
 1037 02a4 08       		.uleb128 0x8
 1038 02a5 0B       		.uleb128 0xb
 1039 02a6 723700   		.ascii	"r7\000"
 1040 02a9 06       		.byte	0x6
 1041 02aa 1401     		.2byte	0x114
 1042 02ac 62020000 		.4byte	0x262
 1043 02b0 02       		.byte	0x2
 1044 02b1 23       		.byte	0x23
 1045 02b2 0C       		.uleb128 0xc
 1046 02b3 0B       		.uleb128 0xb
 1047 02b4 723800   		.ascii	"r8\000"
 1048 02b7 06       		.byte	0x6
 1049 02b8 1501     		.2byte	0x115
 1050 02ba 62020000 		.4byte	0x262
 1051 02be 02       		.byte	0x2
 1052 02bf 23       		.byte	0x23
 1053 02c0 10       		.uleb128 0x10
 1054 02c1 0B       		.uleb128 0xb
 1055 02c2 723900   		.ascii	"r9\000"
 1056 02c5 06       		.byte	0x6
 1057 02c6 1601     		.2byte	0x116
 1058 02c8 62020000 		.4byte	0x262
 1059 02cc 02       		.byte	0x2
 1060 02cd 23       		.byte	0x23
 1061 02ce 14       		.uleb128 0x14
 1062 02cf 0B       		.uleb128 0xb
 1063 02d0 72313000 		.ascii	"r10\000"
 1064 02d4 06       		.byte	0x6
 1065 02d5 1701     		.2byte	0x117
 1066 02d7 62020000 		.4byte	0x262
 1067 02db 02       		.byte	0x2
 1068 02dc 23       		.byte	0x23
 1069 02dd 18       		.uleb128 0x18
 1070 02de 0B       		.uleb128 0xb
 1071 02df 72313100 		.ascii	"r11\000"
ARM GAS  /var/folders/dt/0wfd0knj7gs46m8vwfzktm600000gn/T//ccBRR2YJ.s 			page 20


 1072 02e3 06       		.byte	0x6
 1073 02e4 1801     		.2byte	0x118
 1074 02e6 62020000 		.4byte	0x262
 1075 02ea 02       		.byte	0x2
 1076 02eb 23       		.byte	0x23
 1077 02ec 1C       		.uleb128 0x1c
 1078 02ed 0B       		.uleb128 0xb
 1079 02ee 6C7200   		.ascii	"lr\000"
 1080 02f1 06       		.byte	0x6
 1081 02f2 1901     		.2byte	0x119
 1082 02f4 62020000 		.4byte	0x262
 1083 02f8 02       		.byte	0x2
 1084 02f9 23       		.byte	0x23
 1085 02fa 20       		.uleb128 0x20
 1086 02fb 00       		.byte	0
 1087 02fc 0C       		.uleb128 0xc
 1088 02fd 9C010000 		.4byte	.LASF43
 1089 0301 04       		.byte	0x4
 1090 0302 06       		.byte	0x6
 1091 0303 2301     		.2byte	0x123
 1092 0305 19030000 		.4byte	0x319
 1093 0309 0B       		.uleb128 0xb
 1094 030a 72313300 		.ascii	"r13\000"
 1095 030e 06       		.byte	0x6
 1096 030f 2401     		.2byte	0x124
 1097 0311 19030000 		.4byte	0x319
 1098 0315 02       		.byte	0x2
 1099 0316 23       		.byte	0x23
 1100 0317 00       		.uleb128 0
 1101 0318 00       		.byte	0
 1102 0319 09       		.uleb128 0x9
 1103 031a 04       		.byte	0x4
 1104 031b 6F020000 		.4byte	0x26f
 1105 031f 03       		.uleb128 0x3
 1106 0320 04       		.byte	0x4
 1107 0321 07       		.byte	0x7
 1108 0322 FE010000 		.4byte	.LASF44
 1109 0326 0D       		.uleb128 0xd
 1110 0327 D2000000 		.4byte	0xd2
 1111 032b 05       		.uleb128 0x5
 1112 032c 38030000 		.4byte	.LASF45
 1113 0330 0C       		.byte	0xc
 1114 0331 07       		.byte	0x7
 1115 0332 2C       		.byte	0x2c
 1116 0333 54030000 		.4byte	0x354
 1117 0337 06       		.uleb128 0x6
 1118 0338 1B010000 		.4byte	.LASF46
 1119 033c 07       		.byte	0x7
 1120 033d 2D       		.byte	0x2d
 1121 033e 35020000 		.4byte	0x235
 1122 0342 02       		.byte	0x2
 1123 0343 23       		.byte	0x23
 1124 0344 00       		.uleb128 0
 1125 0345 06       		.uleb128 0x6
 1126 0346 96010000 		.4byte	.LASF47
 1127 034a 07       		.byte	0x7
 1128 034b 2F       		.byte	0x2f
ARM GAS  /var/folders/dt/0wfd0knj7gs46m8vwfzktm600000gn/T//ccBRR2YJ.s 			page 21


 1129 034c DD000000 		.4byte	0xdd
 1130 0350 02       		.byte	0x2
 1131 0351 23       		.byte	0x23
 1132 0352 08       		.uleb128 0x8
 1133 0353 00       		.byte	0
 1134 0354 04       		.uleb128 0x4
 1135 0355 38030000 		.4byte	.LASF45
 1136 0359 07       		.byte	0x7
 1137 035a 30       		.byte	0x30
 1138 035b 2B030000 		.4byte	0x32b
 1139 035f 05       		.uleb128 0x5
 1140 0360 F3010000 		.4byte	.LASF48
 1141 0364 10       		.byte	0x10
 1142 0365 08       		.byte	0x8
 1143 0366 2C       		.byte	0x2c
 1144 0367 96030000 		.4byte	0x396
 1145 036b 06       		.uleb128 0x6
 1146 036c F9000000 		.4byte	.LASF49
 1147 0370 08       		.byte	0x8
 1148 0371 2D       		.byte	0x2d
 1149 0372 35020000 		.4byte	0x235
 1150 0376 02       		.byte	0x2
 1151 0377 23       		.byte	0x23
 1152 0378 00       		.uleb128 0
 1153 0379 06       		.uleb128 0x6
 1154 037a 76030000 		.4byte	.LASF50
 1155 037e 08       		.byte	0x8
 1156 037f 2F       		.byte	0x2f
 1157 0380 2F020000 		.4byte	0x22f
 1158 0384 02       		.byte	0x2
 1159 0385 23       		.byte	0x23
 1160 0386 08       		.uleb128 0x8
 1161 0387 06       		.uleb128 0x6
 1162 0388 EB020000 		.4byte	.LASF51
 1163 038c 08       		.byte	0x8
 1164 038d 31       		.byte	0x31
 1165 038e 96030000 		.4byte	0x396
 1166 0392 02       		.byte	0x2
 1167 0393 23       		.byte	0x23
 1168 0394 0C       		.uleb128 0xc
 1169 0395 00       		.byte	0
 1170 0396 09       		.uleb128 0x9
 1171 0397 04       		.byte	0x4
 1172 0398 5F030000 		.4byte	0x35f
 1173 039c 04       		.uleb128 0x4
 1174 039d F3010000 		.4byte	.LASF48
 1175 03a1 08       		.byte	0x8
 1176 03a2 33       		.byte	0x33
 1177 03a3 5F030000 		.4byte	0x35f
 1178 03a7 08       		.uleb128 0x8
 1179 03a8 28       		.byte	0x28
 1180 03a9 09       		.byte	0x9
 1181 03aa 33       		.byte	0x33
 1182 03ab 04040000 		.4byte	0x404
 1183 03af 06       		.uleb128 0x6
 1184 03b0 2F020000 		.4byte	.LASF52
 1185 03b4 09       		.byte	0x9
ARM GAS  /var/folders/dt/0wfd0knj7gs46m8vwfzktm600000gn/T//ccBRR2YJ.s 			page 22


 1186 03b5 34       		.byte	0x34
 1187 03b6 04040000 		.4byte	0x404
 1188 03ba 02       		.byte	0x2
 1189 03bb 23       		.byte	0x23
 1190 03bc 00       		.uleb128 0
 1191 03bd 06       		.uleb128 0x6
 1192 03be 77020000 		.4byte	.LASF53
 1193 03c2 09       		.byte	0x9
 1194 03c3 36       		.byte	0x36
 1195 03c4 04040000 		.4byte	0x404
 1196 03c8 02       		.byte	0x2
 1197 03c9 23       		.byte	0x23
 1198 03ca 04       		.uleb128 0x4
 1199 03cb 06       		.uleb128 0x6
 1200 03cc C7000000 		.4byte	.LASF54
 1201 03d0 09       		.byte	0x9
 1202 03d1 38       		.byte	0x38
 1203 03d2 04040000 		.4byte	0x404
 1204 03d6 02       		.byte	0x2
 1205 03d7 23       		.byte	0x23
 1206 03d8 08       		.uleb128 0x8
 1207 03d9 06       		.uleb128 0x6
 1208 03da 07020000 		.4byte	.LASF55
 1209 03de 09       		.byte	0x9
 1210 03df 39       		.byte	0x39
 1211 03e0 04040000 		.4byte	0x404
 1212 03e4 02       		.byte	0x2
 1213 03e5 23       		.byte	0x23
 1214 03e6 0C       		.uleb128 0xc
 1215 03e7 06       		.uleb128 0x6
 1216 03e8 42030000 		.4byte	.LASF56
 1217 03ec 09       		.byte	0x9
 1218 03ed 3A       		.byte	0x3a
 1219 03ee 54030000 		.4byte	0x354
 1220 03f2 02       		.byte	0x2
 1221 03f3 23       		.byte	0x23
 1222 03f4 10       		.uleb128 0x10
 1223 03f5 06       		.uleb128 0x6
 1224 03f6 8A010000 		.4byte	.LASF57
 1225 03fa 09       		.byte	0x9
 1226 03fb 3C       		.byte	0x3c
 1227 03fc 54030000 		.4byte	0x354
 1228 0400 02       		.byte	0x2
 1229 0401 23       		.byte	0x23
 1230 0402 1C       		.uleb128 0x1c
 1231 0403 00       		.byte	0
 1232 0404 09       		.uleb128 0x9
 1233 0405 04       		.byte	0x4
 1234 0406 BC000000 		.4byte	0xbc
 1235 040a 04       		.uleb128 0x4
 1236 040b 81000000 		.4byte	.LASF58
 1237 040f 09       		.byte	0x9
 1238 0410 3E       		.byte	0x3e
 1239 0411 A7030000 		.4byte	0x3a7
 1240 0415 0E       		.uleb128 0xe
 1241 0416 04       		.byte	0x4
 1242 0417 05       		.byte	0x5
ARM GAS  /var/folders/dt/0wfd0knj7gs46m8vwfzktm600000gn/T//ccBRR2YJ.s 			page 23


 1243 0418 90       		.byte	0x90
 1244 0419 4A040000 		.4byte	0x44a
 1245 041d 0F       		.uleb128 0xf
 1246 041e 66000000 		.4byte	.LASF59
 1247 0422 05       		.byte	0x5
 1248 0423 97       		.byte	0x97
 1249 0424 BC000000 		.4byte	0xbc
 1250 0428 0F       		.uleb128 0xf
 1251 0429 AF000000 		.4byte	.LASF60
 1252 042d 05       		.byte	0x5
 1253 042e 9E       		.byte	0x9e
 1254 042f BC000000 		.4byte	0xbc
 1255 0433 0F       		.uleb128 0xf
 1256 0434 68030000 		.4byte	.LASF61
 1257 0438 05       		.byte	0x5
 1258 0439 A5       		.byte	0xa5
 1259 043a 6D020000 		.4byte	0x26d
 1260 043e 0F       		.uleb128 0xf
 1261 043f 9A020000 		.4byte	.LASF62
 1262 0443 05       		.byte	0x5
 1263 0444 AC       		.byte	0xac
 1264 0445 C7000000 		.4byte	0xc7
 1265 0449 00       		.byte	0
 1266 044a 09       		.uleb128 0x9
 1267 044b 04       		.byte	0x4
 1268 044c 50040000 		.4byte	0x450
 1269 0450 10       		.uleb128 0x10
 1270 0451 55040000 		.4byte	0x455
 1271 0455 03       		.uleb128 0x3
 1272 0456 01       		.byte	0x1
 1273 0457 08       		.byte	0x8
 1274 0458 D4020000 		.4byte	.LASF63
 1275 045c 09       		.uleb128 0x9
 1276 045d 04       		.byte	0x4
 1277 045e 9C030000 		.4byte	0x39c
 1278 0462 11       		.uleb128 0x11
 1279 0463 01       		.byte	0x1
 1280 0464 6F010000 		.4byte	.LASF64
 1281 0468 01       		.byte	0x1
 1282 0469 48       		.byte	0x48
 1283 046a 01       		.byte	0x1
 1284 046b 00000000 		.4byte	.LFB7
 1285 046f 2A000000 		.4byte	.LFE7
 1286 0473 00000000 		.4byte	.LLST0
 1287 0477 01       		.byte	0x1
 1288 0478 D9040000 		.4byte	0x4d9
 1289 047c 12       		.uleb128 0x12
 1290 047d 6D627000 		.ascii	"mbp\000"
 1291 0481 01       		.byte	0x1
 1292 0482 48       		.byte	0x48
 1293 0483 D9040000 		.4byte	0x4d9
 1294 0487 20000000 		.4byte	.LLST1
 1295 048b 12       		.uleb128 0x12
 1296 048c 62756600 		.ascii	"buf\000"
 1297 0490 01       		.byte	0x1
 1298 0491 48       		.byte	0x48
 1299 0492 04040000 		.4byte	0x404
ARM GAS  /var/folders/dt/0wfd0knj7gs46m8vwfzktm600000gn/T//ccBRR2YJ.s 			page 24


 1300 0496 3E000000 		.4byte	.LLST2
 1301 049a 12       		.uleb128 0x12
 1302 049b 6E00     		.ascii	"n\000"
 1303 049d 01       		.byte	0x1
 1304 049e 48       		.byte	0x48
 1305 049f DD000000 		.4byte	0xdd
 1306 04a3 6A000000 		.4byte	.LLST3
 1307 04a7 13       		.uleb128 0x13
 1308 04a8 1C000000 		.4byte	.LVL3
 1309 04ac 460A0000 		.4byte	0xa46
 1310 04b0 C2040000 		.4byte	0x4c2
 1311 04b4 14       		.uleb128 0x14
 1312 04b5 01       		.byte	0x1
 1313 04b6 51       		.byte	0x51
 1314 04b7 03       		.byte	0x3
 1315 04b8 F3       		.byte	0xf3
 1316 04b9 01       		.uleb128 0x1
 1317 04ba 52       		.byte	0x52
 1318 04bb 14       		.uleb128 0x14
 1319 04bc 01       		.byte	0x1
 1320 04bd 50       		.byte	0x50
 1321 04be 02       		.byte	0x2
 1322 04bf 74       		.byte	0x74
 1323 04c0 1C       		.sleb128 28
 1324 04c1 00       		.byte	0
 1325 04c2 15       		.uleb128 0x15
 1326 04c3 2A000000 		.4byte	.LVL4
 1327 04c7 01       		.byte	0x1
 1328 04c8 460A0000 		.4byte	0xa46
 1329 04cc 14       		.uleb128 0x14
 1330 04cd 01       		.byte	0x1
 1331 04ce 51       		.byte	0x51
 1332 04cf 01       		.byte	0x1
 1333 04d0 30       		.byte	0x30
 1334 04d1 14       		.uleb128 0x14
 1335 04d2 01       		.byte	0x1
 1336 04d3 50       		.byte	0x50
 1337 04d4 02       		.byte	0x2
 1338 04d5 74       		.byte	0x74
 1339 04d6 10       		.sleb128 16
 1340 04d7 00       		.byte	0
 1341 04d8 00       		.byte	0
 1342 04d9 09       		.uleb128 0x9
 1343 04da 04       		.byte	0x4
 1344 04db 0A040000 		.4byte	0x40a
 1345 04df 11       		.uleb128 0x11
 1346 04e0 01       		.byte	0x1
 1347 04e1 10020000 		.4byte	.LASF65
 1348 04e5 01       		.byte	0x1
 1349 04e6 5B       		.byte	0x5b
 1350 04e7 01       		.byte	0x1
 1351 04e8 00000000 		.4byte	.LFB8
 1352 04ec 34000000 		.4byte	.LFE8
 1353 04f0 8B000000 		.4byte	.LLST4
 1354 04f4 01       		.byte	0x1
 1355 04f5 75050000 		.4byte	0x575
 1356 04f9 12       		.uleb128 0x12
ARM GAS  /var/folders/dt/0wfd0knj7gs46m8vwfzktm600000gn/T//ccBRR2YJ.s 			page 25


 1357 04fa 6D627000 		.ascii	"mbp\000"
 1358 04fe 01       		.byte	0x1
 1359 04ff 5B       		.byte	0x5b
 1360 0500 D9040000 		.4byte	0x4d9
 1361 0504 AB000000 		.4byte	.LLST5
 1362 0508 16       		.uleb128 0x16
 1363 0509 00000000 		.4byte	.Ldebug_ranges0+0
 1364 050d 21050000 		.4byte	0x521
 1365 0511 17       		.uleb128 0x17
 1366 0512 746D7000 		.ascii	"tmp\000"
 1367 0516 01       		.byte	0x1
 1368 0517 5F       		.byte	0x5f
 1369 0518 70000000 		.4byte	0x70
 1370 051c C9000000 		.4byte	.LLST6
 1371 0520 00       		.byte	0
 1372 0521 18       		.uleb128 0x18
 1373 0522 2C000000 		.4byte	.LBB4
 1374 0526 34000000 		.4byte	.LBE4
 1375 052a 3E050000 		.4byte	0x53e
 1376 052e 17       		.uleb128 0x17
 1377 052f 746D7000 		.ascii	"tmp\000"
 1378 0533 01       		.byte	0x1
 1379 0534 64       		.byte	0x64
 1380 0535 70000000 		.4byte	0x70
 1381 0539 DC000000 		.4byte	.LLST7
 1382 053d 00       		.byte	0
 1383 053e 13       		.uleb128 0x13
 1384 053f 1E000000 		.4byte	.LVL10
 1385 0543 650A0000 		.4byte	0xa65
 1386 0547 52050000 		.4byte	0x552
 1387 054b 14       		.uleb128 0x14
 1388 054c 01       		.byte	0x1
 1389 054d 50       		.byte	0x50
 1390 054e 02       		.byte	0x2
 1391 054f 74       		.byte	0x74
 1392 0550 1C       		.sleb128 28
 1393 0551 00       		.byte	0
 1394 0552 13       		.uleb128 0x13
 1395 0553 28000000 		.4byte	.LVL11
 1396 0557 650A0000 		.4byte	0xa65
 1397 055b 6B050000 		.4byte	0x56b
 1398 055f 14       		.uleb128 0x14
 1399 0560 01       		.byte	0x1
 1400 0561 51       		.byte	0x51
 1401 0562 01       		.byte	0x1
 1402 0563 30       		.byte	0x30
 1403 0564 14       		.uleb128 0x14
 1404 0565 01       		.byte	0x1
 1405 0566 50       		.byte	0x50
 1406 0567 02       		.byte	0x2
 1407 0568 74       		.byte	0x74
 1408 0569 10       		.sleb128 16
 1409 056a 00       		.byte	0
 1410 056b 19       		.uleb128 0x19
 1411 056c 2C000000 		.4byte	.LVL12
 1412 0570 7E0A0000 		.4byte	0xa7e
 1413 0574 00       		.byte	0
ARM GAS  /var/folders/dt/0wfd0knj7gs46m8vwfzktm600000gn/T//ccBRR2YJ.s 			page 26


 1414 0575 1A       		.uleb128 0x1a
 1415 0576 01       		.byte	0x1
 1416 0577 77000000 		.4byte	.LASF67
 1417 057b 01       		.byte	0x1
 1418 057c 96       		.byte	0x96
 1419 057d 01       		.byte	0x1
 1420 057e BC000000 		.4byte	0xbc
 1421 0582 00000000 		.4byte	.LFB10
 1422 0586 38000000 		.4byte	.LFE10
 1423 058a EF000000 		.4byte	.LLST8
 1424 058e 01       		.byte	0x1
 1425 058f 08060000 		.4byte	0x608
 1426 0593 12       		.uleb128 0x12
 1427 0594 6D627000 		.ascii	"mbp\000"
 1428 0598 01       		.byte	0x1
 1429 0599 96       		.byte	0x96
 1430 059a D9040000 		.4byte	0x4d9
 1431 059e 0F010000 		.4byte	.LLST9
 1432 05a2 12       		.uleb128 0x12
 1433 05a3 6D736700 		.ascii	"msg\000"
 1434 05a7 01       		.byte	0x1
 1435 05a8 96       		.byte	0x96
 1436 05a9 BC000000 		.4byte	0xbc
 1437 05ad 2D010000 		.4byte	.LLST10
 1438 05b1 1B       		.uleb128 0x1b
 1439 05b2 39020000 		.4byte	.LASF66
 1440 05b6 01       		.byte	0x1
 1441 05b7 96       		.byte	0x96
 1442 05b8 D2000000 		.4byte	0xd2
 1443 05bc 4B010000 		.4byte	.LLST11
 1444 05c0 1C       		.uleb128 0x1c
 1445 05c1 66000000 		.4byte	.LASF59
 1446 05c5 01       		.byte	0x1
 1447 05c6 97       		.byte	0x97
 1448 05c7 BC000000 		.4byte	0xbc
 1449 05cb 6C010000 		.4byte	.LLST12
 1450 05cf 13       		.uleb128 0x13
 1451 05d0 10000000 		.4byte	.LVL18
 1452 05d4 880A0000 		.4byte	0xa88
 1453 05d8 EA050000 		.4byte	0x5ea
 1454 05dc 14       		.uleb128 0x14
 1455 05dd 01       		.byte	0x1
 1456 05de 51       		.byte	0x51
 1457 05df 03       		.byte	0x3
 1458 05e0 F3       		.byte	0xf3
 1459 05e1 01       		.uleb128 0x1
 1460 05e2 52       		.byte	0x52
 1461 05e3 14       		.uleb128 0x14
 1462 05e4 01       		.byte	0x1
 1463 05e5 50       		.byte	0x50
 1464 05e6 02       		.byte	0x2
 1465 05e7 74       		.byte	0x74
 1466 05e8 1C       		.sleb128 28
 1467 05e9 00       		.byte	0
 1468 05ea 13       		.uleb128 0x13
 1469 05eb 30000000 		.4byte	.LVL20
 1470 05ef A50A0000 		.4byte	0xaa5
ARM GAS  /var/folders/dt/0wfd0knj7gs46m8vwfzktm600000gn/T//ccBRR2YJ.s 			page 27


 1471 05f3 FE050000 		.4byte	0x5fe
 1472 05f7 14       		.uleb128 0x14
 1473 05f8 01       		.byte	0x1
 1474 05f9 50       		.byte	0x50
 1475 05fa 02       		.byte	0x2
 1476 05fb 74       		.byte	0x74
 1477 05fc 10       		.sleb128 16
 1478 05fd 00       		.byte	0
 1479 05fe 19       		.uleb128 0x19
 1480 05ff 34000000 		.4byte	.LVL21
 1481 0603 7E0A0000 		.4byte	0xa7e
 1482 0607 00       		.byte	0
 1483 0608 1A       		.uleb128 0x1a
 1484 0609 01       		.byte	0x1
 1485 060a B0020000 		.4byte	.LASF68
 1486 060e 01       		.byte	0x1
 1487 060f 7A       		.byte	0x7a
 1488 0610 01       		.byte	0x1
 1489 0611 BC000000 		.4byte	0xbc
 1490 0615 00000000 		.4byte	.LFB9
 1491 0619 14000000 		.4byte	.LFE9
 1492 061d 8A010000 		.4byte	.LLST13
 1493 0621 01       		.byte	0x1
 1494 0622 BA060000 		.4byte	0x6ba
 1495 0626 12       		.uleb128 0x12
 1496 0627 6D627000 		.ascii	"mbp\000"
 1497 062b 01       		.byte	0x1
 1498 062c 7A       		.byte	0x7a
 1499 062d D9040000 		.4byte	0x4d9
 1500 0631 AA010000 		.4byte	.LLST14
 1501 0635 12       		.uleb128 0x12
 1502 0636 6D736700 		.ascii	"msg\000"
 1503 063a 01       		.byte	0x1
 1504 063b 7A       		.byte	0x7a
 1505 063c BC000000 		.4byte	0xbc
 1506 0640 CB010000 		.4byte	.LLST15
 1507 0644 1B       		.uleb128 0x1b
 1508 0645 39020000 		.4byte	.LASF66
 1509 0649 01       		.byte	0x1
 1510 064a 7A       		.byte	0x7a
 1511 064b D2000000 		.4byte	0xd2
 1512 064f EC010000 		.4byte	.LLST16
 1513 0653 1D       		.uleb128 0x1d
 1514 0654 66000000 		.4byte	.LASF59
 1515 0658 01       		.byte	0x1
 1516 0659 7B       		.byte	0x7b
 1517 065a BC000000 		.4byte	0xbc
 1518 065e 01       		.byte	0x1
 1519 065f 50       		.byte	0x50
 1520 0660 18       		.uleb128 0x18
 1521 0661 02000000 		.4byte	.LBB5
 1522 0665 08000000 		.4byte	.LBE5
 1523 0669 7D060000 		.4byte	0x67d
 1524 066d 17       		.uleb128 0x17
 1525 066e 746D7000 		.ascii	"tmp\000"
 1526 0672 01       		.byte	0x1
 1527 0673 7D       		.byte	0x7d
ARM GAS  /var/folders/dt/0wfd0knj7gs46m8vwfzktm600000gn/T//ccBRR2YJ.s 			page 28


 1528 0674 70000000 		.4byte	0x70
 1529 0678 0D020000 		.4byte	.LLST17
 1530 067c 00       		.byte	0
 1531 067d 18       		.uleb128 0x18
 1532 067e 0C000000 		.4byte	.LBB6
 1533 0682 12000000 		.4byte	.LBE6
 1534 0686 9A060000 		.4byte	0x69a
 1535 068a 17       		.uleb128 0x17
 1536 068b 746D7000 		.ascii	"tmp\000"
 1537 068f 01       		.byte	0x1
 1538 0690 7F       		.byte	0x7f
 1539 0691 70000000 		.4byte	0x70
 1540 0695 20020000 		.4byte	.LLST18
 1541 0699 00       		.byte	0
 1542 069a 1E       		.uleb128 0x1e
 1543 069b 0C000000 		.4byte	.LVL25
 1544 069f 75050000 		.4byte	0x575
 1545 06a3 14       		.uleb128 0x14
 1546 06a4 01       		.byte	0x1
 1547 06a5 52       		.byte	0x52
 1548 06a6 03       		.byte	0x3
 1549 06a7 F3       		.byte	0xf3
 1550 06a8 01       		.uleb128 0x1
 1551 06a9 52       		.byte	0x52
 1552 06aa 14       		.uleb128 0x14
 1553 06ab 01       		.byte	0x1
 1554 06ac 51       		.byte	0x51
 1555 06ad 03       		.byte	0x3
 1556 06ae F3       		.byte	0xf3
 1557 06af 01       		.uleb128 0x1
 1558 06b0 51       		.byte	0x51
 1559 06b1 14       		.uleb128 0x14
 1560 06b2 01       		.byte	0x1
 1561 06b3 50       		.byte	0x50
 1562 06b4 03       		.byte	0x3
 1563 06b5 F3       		.byte	0xf3
 1564 06b6 01       		.uleb128 0x1
 1565 06b7 50       		.byte	0x50
 1566 06b8 00       		.byte	0
 1567 06b9 00       		.byte	0
 1568 06ba 1A       		.uleb128 0x1a
 1569 06bb 01       		.byte	0x1
 1570 06bc 6D000000 		.4byte	.LASF69
 1571 06c0 01       		.byte	0x1
 1572 06c1 B5       		.byte	0xb5
 1573 06c2 01       		.byte	0x1
 1574 06c3 BC000000 		.4byte	0xbc
 1575 06c7 00000000 		.4byte	.LFB11
 1576 06cb 2E000000 		.4byte	.LFE11
 1577 06cf 33020000 		.4byte	.LLST19
 1578 06d3 01       		.byte	0x1
 1579 06d4 0A070000 		.4byte	0x70a
 1580 06d8 12       		.uleb128 0x12
 1581 06d9 6D627000 		.ascii	"mbp\000"
 1582 06dd 01       		.byte	0x1
 1583 06de B5       		.byte	0xb5
 1584 06df D9040000 		.4byte	0x4d9
ARM GAS  /var/folders/dt/0wfd0knj7gs46m8vwfzktm600000gn/T//ccBRR2YJ.s 			page 29


 1585 06e3 53020000 		.4byte	.LLST20
 1586 06e7 12       		.uleb128 0x12
 1587 06e8 6D736700 		.ascii	"msg\000"
 1588 06ec 01       		.byte	0x1
 1589 06ed B5       		.byte	0xb5
 1590 06ee BC000000 		.4byte	0xbc
 1591 06f2 9A020000 		.4byte	.LLST21
 1592 06f6 1E       		.uleb128 0x1e
 1593 06f7 24000000 		.4byte	.LVL30
 1594 06fb A50A0000 		.4byte	0xaa5
 1595 06ff 14       		.uleb128 0x14
 1596 0700 01       		.byte	0x1
 1597 0701 50       		.byte	0x50
 1598 0702 05       		.byte	0x5
 1599 0703 F3       		.byte	0xf3
 1600 0704 01       		.uleb128 0x1
 1601 0705 50       		.byte	0x50
 1602 0706 23       		.byte	0x23
 1603 0707 10       		.uleb128 0x10
 1604 0708 00       		.byte	0
 1605 0709 00       		.byte	0
 1606 070a 1A       		.uleb128 0x1a
 1607 070b 01       		.byte	0x1
 1608 070c B8000000 		.4byte	.LASF70
 1609 0710 01       		.byte	0x1
 1610 0711 F3       		.byte	0xf3
 1611 0712 01       		.byte	0x1
 1612 0713 BC000000 		.4byte	0xbc
 1613 0717 00000000 		.4byte	.LFB13
 1614 071b 3A000000 		.4byte	.LFE13
 1615 071f C6020000 		.4byte	.LLST22
 1616 0723 01       		.byte	0x1
 1617 0724 9D070000 		.4byte	0x79d
 1618 0728 12       		.uleb128 0x12
 1619 0729 6D627000 		.ascii	"mbp\000"
 1620 072d 01       		.byte	0x1
 1621 072e F3       		.byte	0xf3
 1622 072f D9040000 		.4byte	0x4d9
 1623 0733 E6020000 		.4byte	.LLST23
 1624 0737 12       		.uleb128 0x12
 1625 0738 6D736700 		.ascii	"msg\000"
 1626 073c 01       		.byte	0x1
 1627 073d F3       		.byte	0xf3
 1628 073e BC000000 		.4byte	0xbc
 1629 0742 04030000 		.4byte	.LLST24
 1630 0746 1B       		.uleb128 0x1b
 1631 0747 39020000 		.4byte	.LASF66
 1632 074b 01       		.byte	0x1
 1633 074c F3       		.byte	0xf3
 1634 074d D2000000 		.4byte	0xd2
 1635 0751 22030000 		.4byte	.LLST25
 1636 0755 1C       		.uleb128 0x1c
 1637 0756 66000000 		.4byte	.LASF59
 1638 075a 01       		.byte	0x1
 1639 075b F4       		.byte	0xf4
 1640 075c BC000000 		.4byte	0xbc
 1641 0760 43030000 		.4byte	.LLST26
ARM GAS  /var/folders/dt/0wfd0knj7gs46m8vwfzktm600000gn/T//ccBRR2YJ.s 			page 30


 1642 0764 13       		.uleb128 0x13
 1643 0765 10000000 		.4byte	.LVL36
 1644 0769 880A0000 		.4byte	0xa88
 1645 076d 7F070000 		.4byte	0x77f
 1646 0771 14       		.uleb128 0x14
 1647 0772 01       		.byte	0x1
 1648 0773 51       		.byte	0x51
 1649 0774 03       		.byte	0x3
 1650 0775 F3       		.byte	0xf3
 1651 0776 01       		.uleb128 0x1
 1652 0777 52       		.byte	0x52
 1653 0778 14       		.uleb128 0x14
 1654 0779 01       		.byte	0x1
 1655 077a 50       		.byte	0x50
 1656 077b 02       		.byte	0x2
 1657 077c 74       		.byte	0x74
 1658 077d 1C       		.sleb128 28
 1659 077e 00       		.byte	0
 1660 077f 13       		.uleb128 0x13
 1661 0780 2A000000 		.4byte	.LVL38
 1662 0784 A50A0000 		.4byte	0xaa5
 1663 0788 93070000 		.4byte	0x793
 1664 078c 14       		.uleb128 0x14
 1665 078d 01       		.byte	0x1
 1666 078e 50       		.byte	0x50
 1667 078f 02       		.byte	0x2
 1668 0790 74       		.byte	0x74
 1669 0791 10       		.sleb128 16
 1670 0792 00       		.byte	0
 1671 0793 19       		.uleb128 0x19
 1672 0794 2E000000 		.4byte	.LVL39
 1673 0798 7E0A0000 		.4byte	0xa7e
 1674 079c 00       		.byte	0
 1675 079d 1A       		.uleb128 0x1a
 1676 079e 01       		.byte	0x1
 1677 079f 0E030000 		.4byte	.LASF71
 1678 07a3 01       		.byte	0x1
 1679 07a4 D7       		.byte	0xd7
 1680 07a5 01       		.byte	0x1
 1681 07a6 BC000000 		.4byte	0xbc
 1682 07aa 00000000 		.4byte	.LFB12
 1683 07ae 14000000 		.4byte	.LFE12
 1684 07b2 6C030000 		.4byte	.LLST27
 1685 07b6 01       		.byte	0x1
 1686 07b7 4F080000 		.4byte	0x84f
 1687 07bb 12       		.uleb128 0x12
 1688 07bc 6D627000 		.ascii	"mbp\000"
 1689 07c0 01       		.byte	0x1
 1690 07c1 D7       		.byte	0xd7
 1691 07c2 D9040000 		.4byte	0x4d9
 1692 07c6 8C030000 		.4byte	.LLST28
 1693 07ca 12       		.uleb128 0x12
 1694 07cb 6D736700 		.ascii	"msg\000"
 1695 07cf 01       		.byte	0x1
 1696 07d0 D7       		.byte	0xd7
 1697 07d1 BC000000 		.4byte	0xbc
 1698 07d5 AD030000 		.4byte	.LLST29
ARM GAS  /var/folders/dt/0wfd0knj7gs46m8vwfzktm600000gn/T//ccBRR2YJ.s 			page 31


 1699 07d9 1B       		.uleb128 0x1b
 1700 07da 39020000 		.4byte	.LASF66
 1701 07de 01       		.byte	0x1
 1702 07df D7       		.byte	0xd7
 1703 07e0 D2000000 		.4byte	0xd2
 1704 07e4 CE030000 		.4byte	.LLST30
 1705 07e8 1D       		.uleb128 0x1d
 1706 07e9 66000000 		.4byte	.LASF59
 1707 07ed 01       		.byte	0x1
 1708 07ee D8       		.byte	0xd8
 1709 07ef BC000000 		.4byte	0xbc
 1710 07f3 01       		.byte	0x1
 1711 07f4 50       		.byte	0x50
 1712 07f5 18       		.uleb128 0x18
 1713 07f6 02000000 		.4byte	.LBB7
 1714 07fa 08000000 		.4byte	.LBE7
 1715 07fe 12080000 		.4byte	0x812
 1716 0802 17       		.uleb128 0x17
 1717 0803 746D7000 		.ascii	"tmp\000"
 1718 0807 01       		.byte	0x1
 1719 0808 DA       		.byte	0xda
 1720 0809 70000000 		.4byte	0x70
 1721 080d EF030000 		.4byte	.LLST31
 1722 0811 00       		.byte	0
 1723 0812 18       		.uleb128 0x18
 1724 0813 0C000000 		.4byte	.LBB8
 1725 0817 12000000 		.4byte	.LBE8
 1726 081b 2F080000 		.4byte	0x82f
 1727 081f 17       		.uleb128 0x17
 1728 0820 746D7000 		.ascii	"tmp\000"
 1729 0824 01       		.byte	0x1
 1730 0825 DC       		.byte	0xdc
 1731 0826 70000000 		.4byte	0x70
 1732 082a 02040000 		.4byte	.LLST32
 1733 082e 00       		.byte	0
 1734 082f 1E       		.uleb128 0x1e
 1735 0830 0C000000 		.4byte	.LVL44
 1736 0834 0A070000 		.4byte	0x70a
 1737 0838 14       		.uleb128 0x14
 1738 0839 01       		.byte	0x1
 1739 083a 52       		.byte	0x52
 1740 083b 03       		.byte	0x3
 1741 083c F3       		.byte	0xf3
 1742 083d 01       		.uleb128 0x1
 1743 083e 52       		.byte	0x52
 1744 083f 14       		.uleb128 0x14
 1745 0840 01       		.byte	0x1
 1746 0841 51       		.byte	0x51
 1747 0842 03       		.byte	0x3
 1748 0843 F3       		.byte	0xf3
 1749 0844 01       		.uleb128 0x1
 1750 0845 51       		.byte	0x51
 1751 0846 14       		.uleb128 0x14
 1752 0847 01       		.byte	0x1
 1753 0848 50       		.byte	0x50
 1754 0849 03       		.byte	0x3
 1755 084a F3       		.byte	0xf3
ARM GAS  /var/folders/dt/0wfd0knj7gs46m8vwfzktm600000gn/T//ccBRR2YJ.s 			page 32


 1756 084b 01       		.uleb128 0x1
 1757 084c 50       		.byte	0x50
 1758 084d 00       		.byte	0
 1759 084e 00       		.byte	0
 1760 084f 1F       		.uleb128 0x1f
 1761 0850 01       		.byte	0x1
 1762 0851 89000000 		.4byte	.LASF72
 1763 0855 01       		.byte	0x1
 1764 0856 1201     		.2byte	0x112
 1765 0858 01       		.byte	0x1
 1766 0859 BC000000 		.4byte	0xbc
 1767 085d 00000000 		.4byte	.LFB14
 1768 0861 30000000 		.4byte	.LFE14
 1769 0865 15040000 		.4byte	.LLST33
 1770 0869 01       		.byte	0x1
 1771 086a A2080000 		.4byte	0x8a2
 1772 086e 20       		.uleb128 0x20
 1773 086f 6D627000 		.ascii	"mbp\000"
 1774 0873 01       		.byte	0x1
 1775 0874 1201     		.2byte	0x112
 1776 0876 D9040000 		.4byte	0x4d9
 1777 087a 35040000 		.4byte	.LLST34
 1778 087e 20       		.uleb128 0x20
 1779 087f 6D736700 		.ascii	"msg\000"
 1780 0883 01       		.byte	0x1
 1781 0884 1201     		.2byte	0x112
 1782 0886 BC000000 		.4byte	0xbc
 1783 088a 7C040000 		.4byte	.LLST35
 1784 088e 1E       		.uleb128 0x1e
 1785 088f 26000000 		.4byte	.LVL49
 1786 0893 A50A0000 		.4byte	0xaa5
 1787 0897 14       		.uleb128 0x14
 1788 0898 01       		.byte	0x1
 1789 0899 50       		.byte	0x50
 1790 089a 05       		.byte	0x5
 1791 089b F3       		.byte	0xf3
 1792 089c 01       		.uleb128 0x1
 1793 089d 50       		.byte	0x50
 1794 089e 23       		.byte	0x23
 1795 089f 10       		.uleb128 0x10
 1796 08a0 00       		.byte	0
 1797 08a1 00       		.byte	0
 1798 08a2 1F       		.uleb128 0x1f
 1799 08a3 01       		.byte	0x1
 1800 08a4 C8010000 		.4byte	.LASF73
 1801 08a8 01       		.byte	0x1
 1802 08a9 5001     		.2byte	0x150
 1803 08ab 01       		.byte	0x1
 1804 08ac BC000000 		.4byte	0xbc
 1805 08b0 00000000 		.4byte	.LFB16
 1806 08b4 38000000 		.4byte	.LFE16
 1807 08b8 A8040000 		.4byte	.LLST36
 1808 08bc 01       		.byte	0x1
 1809 08bd 3A090000 		.4byte	0x93a
 1810 08c1 20       		.uleb128 0x20
 1811 08c2 6D627000 		.ascii	"mbp\000"
 1812 08c6 01       		.byte	0x1
ARM GAS  /var/folders/dt/0wfd0knj7gs46m8vwfzktm600000gn/T//ccBRR2YJ.s 			page 33


 1813 08c7 5001     		.2byte	0x150
 1814 08c9 D9040000 		.4byte	0x4d9
 1815 08cd C8040000 		.4byte	.LLST37
 1816 08d1 21       		.uleb128 0x21
 1817 08d2 F9010000 		.4byte	.LASF74
 1818 08d6 01       		.byte	0x1
 1819 08d7 5001     		.2byte	0x150
 1820 08d9 04040000 		.4byte	0x404
 1821 08dd E6040000 		.4byte	.LLST38
 1822 08e1 21       		.uleb128 0x21
 1823 08e2 39020000 		.4byte	.LASF66
 1824 08e6 01       		.byte	0x1
 1825 08e7 5001     		.2byte	0x150
 1826 08e9 D2000000 		.4byte	0xd2
 1827 08ed 04050000 		.4byte	.LLST39
 1828 08f1 22       		.uleb128 0x22
 1829 08f2 66000000 		.4byte	.LASF59
 1830 08f6 01       		.byte	0x1
 1831 08f7 5101     		.2byte	0x151
 1832 08f9 BC000000 		.4byte	0xbc
 1833 08fd 25050000 		.4byte	.LLST40
 1834 0901 13       		.uleb128 0x13
 1835 0902 10000000 		.4byte	.LVL55
 1836 0906 880A0000 		.4byte	0xa88
 1837 090a 1C090000 		.4byte	0x91c
 1838 090e 14       		.uleb128 0x14
 1839 090f 01       		.byte	0x1
 1840 0910 51       		.byte	0x51
 1841 0911 03       		.byte	0x3
 1842 0912 F3       		.byte	0xf3
 1843 0913 01       		.uleb128 0x1
 1844 0914 52       		.byte	0x52
 1845 0915 14       		.uleb128 0x14
 1846 0916 01       		.byte	0x1
 1847 0917 50       		.byte	0x50
 1848 0918 02       		.byte	0x2
 1849 0919 74       		.byte	0x74
 1850 091a 10       		.sleb128 16
 1851 091b 00       		.byte	0
 1852 091c 13       		.uleb128 0x13
 1853 091d 30000000 		.4byte	.LVL57
 1854 0921 A50A0000 		.4byte	0xaa5
 1855 0925 30090000 		.4byte	0x930
 1856 0929 14       		.uleb128 0x14
 1857 092a 01       		.byte	0x1
 1858 092b 50       		.byte	0x50
 1859 092c 02       		.byte	0x2
 1860 092d 74       		.byte	0x74
 1861 092e 1C       		.sleb128 28
 1862 092f 00       		.byte	0
 1863 0930 19       		.uleb128 0x19
 1864 0931 34000000 		.4byte	.LVL58
 1865 0935 7E0A0000 		.4byte	0xa7e
 1866 0939 00       		.byte	0
 1867 093a 1F       		.uleb128 0x1f
 1868 093b 01       		.byte	0x1
 1869 093c 2E030000 		.4byte	.LASF75
ARM GAS  /var/folders/dt/0wfd0knj7gs46m8vwfzktm600000gn/T//ccBRR2YJ.s 			page 34


 1870 0940 01       		.byte	0x1
 1871 0941 3401     		.2byte	0x134
 1872 0943 01       		.byte	0x1
 1873 0944 BC000000 		.4byte	0xbc
 1874 0948 00000000 		.4byte	.LFB15
 1875 094c 14000000 		.4byte	.LFE15
 1876 0950 43050000 		.4byte	.LLST41
 1877 0954 01       		.byte	0x1
 1878 0955 F3090000 		.4byte	0x9f3
 1879 0959 20       		.uleb128 0x20
 1880 095a 6D627000 		.ascii	"mbp\000"
 1881 095e 01       		.byte	0x1
 1882 095f 3401     		.2byte	0x134
 1883 0961 D9040000 		.4byte	0x4d9
 1884 0965 63050000 		.4byte	.LLST42
 1885 0969 21       		.uleb128 0x21
 1886 096a F9010000 		.4byte	.LASF74
 1887 096e 01       		.byte	0x1
 1888 096f 3401     		.2byte	0x134
 1889 0971 04040000 		.4byte	0x404
 1890 0975 84050000 		.4byte	.LLST43
 1891 0979 21       		.uleb128 0x21
 1892 097a 39020000 		.4byte	.LASF66
 1893 097e 01       		.byte	0x1
 1894 097f 3401     		.2byte	0x134
 1895 0981 D2000000 		.4byte	0xd2
 1896 0985 A5050000 		.4byte	.LLST44
 1897 0989 23       		.uleb128 0x23
 1898 098a 66000000 		.4byte	.LASF59
 1899 098e 01       		.byte	0x1
 1900 098f 3501     		.2byte	0x135
 1901 0991 BC000000 		.4byte	0xbc
 1902 0995 01       		.byte	0x1
 1903 0996 50       		.byte	0x50
 1904 0997 18       		.uleb128 0x18
 1905 0998 02000000 		.4byte	.LBB9
 1906 099c 08000000 		.4byte	.LBE9
 1907 09a0 B5090000 		.4byte	0x9b5
 1908 09a4 24       		.uleb128 0x24
 1909 09a5 746D7000 		.ascii	"tmp\000"
 1910 09a9 01       		.byte	0x1
 1911 09aa 3701     		.2byte	0x137
 1912 09ac 70000000 		.4byte	0x70
 1913 09b0 C6050000 		.4byte	.LLST45
 1914 09b4 00       		.byte	0
 1915 09b5 18       		.uleb128 0x18
 1916 09b6 0C000000 		.4byte	.LBB10
 1917 09ba 12000000 		.4byte	.LBE10
 1918 09be D3090000 		.4byte	0x9d3
 1919 09c2 24       		.uleb128 0x24
 1920 09c3 746D7000 		.ascii	"tmp\000"
 1921 09c7 01       		.byte	0x1
 1922 09c8 3901     		.2byte	0x139
 1923 09ca 70000000 		.4byte	0x70
 1924 09ce D9050000 		.4byte	.LLST46
 1925 09d2 00       		.byte	0
 1926 09d3 1E       		.uleb128 0x1e
ARM GAS  /var/folders/dt/0wfd0knj7gs46m8vwfzktm600000gn/T//ccBRR2YJ.s 			page 35


 1927 09d4 0C000000 		.4byte	.LVL62
 1928 09d8 A2080000 		.4byte	0x8a2
 1929 09dc 14       		.uleb128 0x14
 1930 09dd 01       		.byte	0x1
 1931 09de 52       		.byte	0x52
 1932 09df 03       		.byte	0x3
 1933 09e0 F3       		.byte	0xf3
 1934 09e1 01       		.uleb128 0x1
 1935 09e2 52       		.byte	0x52
 1936 09e3 14       		.uleb128 0x14
 1937 09e4 01       		.byte	0x1
 1938 09e5 51       		.byte	0x51
 1939 09e6 03       		.byte	0x3
 1940 09e7 F3       		.byte	0xf3
 1941 09e8 01       		.uleb128 0x1
 1942 09e9 51       		.byte	0x51
 1943 09ea 14       		.uleb128 0x14
 1944 09eb 01       		.byte	0x1
 1945 09ec 50       		.byte	0x50
 1946 09ed 03       		.byte	0x3
 1947 09ee F3       		.byte	0xf3
 1948 09ef 01       		.uleb128 0x1
 1949 09f0 50       		.byte	0x50
 1950 09f1 00       		.byte	0
 1951 09f2 00       		.byte	0
 1952 09f3 1F       		.uleb128 0x1f
 1953 09f4 01       		.byte	0x1
 1954 09f5 B7010000 		.4byte	.LASF76
 1955 09f9 01       		.byte	0x1
 1956 09fa 6F01     		.2byte	0x16f
 1957 09fc 01       		.byte	0x1
 1958 09fd BC000000 		.4byte	0xbc
 1959 0a01 00000000 		.4byte	.LFB17
 1960 0a05 30000000 		.4byte	.LFE17
 1961 0a09 EC050000 		.4byte	.LLST47
 1962 0a0d 01       		.byte	0x1
 1963 0a0e 460A0000 		.4byte	0xa46
 1964 0a12 20       		.uleb128 0x20
 1965 0a13 6D627000 		.ascii	"mbp\000"
 1966 0a17 01       		.byte	0x1
 1967 0a18 6F01     		.2byte	0x16f
 1968 0a1a D9040000 		.4byte	0x4d9
 1969 0a1e 0C060000 		.4byte	.LLST48
 1970 0a22 21       		.uleb128 0x21
 1971 0a23 F9010000 		.4byte	.LASF74
 1972 0a27 01       		.byte	0x1
 1973 0a28 6F01     		.2byte	0x16f
 1974 0a2a 04040000 		.4byte	0x404
 1975 0a2e 53060000 		.4byte	.LLST49
 1976 0a32 1E       		.uleb128 0x1e
 1977 0a33 26000000 		.4byte	.LVL67
 1978 0a37 A50A0000 		.4byte	0xaa5
 1979 0a3b 14       		.uleb128 0x14
 1980 0a3c 01       		.byte	0x1
 1981 0a3d 50       		.byte	0x50
 1982 0a3e 05       		.byte	0x5
 1983 0a3f F3       		.byte	0xf3
ARM GAS  /var/folders/dt/0wfd0knj7gs46m8vwfzktm600000gn/T//ccBRR2YJ.s 			page 36


 1984 0a40 01       		.uleb128 0x1
 1985 0a41 50       		.byte	0x50
 1986 0a42 23       		.byte	0x23
 1987 0a43 1C       		.uleb128 0x1c
 1988 0a44 00       		.byte	0
 1989 0a45 00       		.byte	0
 1990 0a46 25       		.uleb128 0x25
 1991 0a47 01       		.byte	0x1
 1992 0a48 8E030000 		.4byte	.LASF77
 1993 0a4c 07       		.byte	0x7
 1994 0a4d 35       		.byte	0x35
 1995 0a4e 01       		.byte	0x1
 1996 0a4f 01       		.byte	0x1
 1997 0a50 5F0A0000 		.4byte	0xa5f
 1998 0a54 26       		.uleb128 0x26
 1999 0a55 5F0A0000 		.4byte	0xa5f
 2000 0a59 26       		.uleb128 0x26
 2001 0a5a DD000000 		.4byte	0xdd
 2002 0a5e 00       		.byte	0
 2003 0a5f 09       		.uleb128 0x9
 2004 0a60 04       		.byte	0x4
 2005 0a61 54030000 		.4byte	0x354
 2006 0a65 25       		.uleb128 0x25
 2007 0a66 01       		.byte	0x1
 2008 0a67 54030000 		.4byte	.LASF78
 2009 0a6b 07       		.byte	0x7
 2010 0a6c 37       		.byte	0x37
 2011 0a6d 01       		.byte	0x1
 2012 0a6e 01       		.byte	0x1
 2013 0a6f 7E0A0000 		.4byte	0xa7e
 2014 0a73 26       		.uleb128 0x26
 2015 0a74 5F0A0000 		.4byte	0xa5f
 2016 0a78 26       		.uleb128 0x26
 2017 0a79 DD000000 		.4byte	0xdd
 2018 0a7d 00       		.byte	0
 2019 0a7e 27       		.uleb128 0x27
 2020 0a7f 01       		.byte	0x1
 2021 0a80 42010000 		.4byte	.LASF82
 2022 0a84 0A       		.byte	0xa
 2023 0a85 9F       		.byte	0x9f
 2024 0a86 01       		.byte	0x1
 2025 0a87 01       		.byte	0x1
 2026 0a88 28       		.uleb128 0x28
 2027 0a89 01       		.byte	0x1
 2028 0a8a D9020000 		.4byte	.LASF83
 2029 0a8e 07       		.byte	0x7
 2030 0a8f 3B       		.byte	0x3b
 2031 0a90 01       		.byte	0x1
 2032 0a91 BC000000 		.4byte	0xbc
 2033 0a95 01       		.byte	0x1
 2034 0a96 A50A0000 		.4byte	0xaa5
 2035 0a9a 26       		.uleb128 0x26
 2036 0a9b 5F0A0000 		.4byte	0xa5f
 2037 0a9f 26       		.uleb128 0x26
 2038 0aa0 D2000000 		.4byte	0xd2
 2039 0aa4 00       		.byte	0
 2040 0aa5 29       		.uleb128 0x29
ARM GAS  /var/folders/dt/0wfd0knj7gs46m8vwfzktm600000gn/T//ccBRR2YJ.s 			page 37


 2041 0aa6 01       		.byte	0x1
 2042 0aa7 06000000 		.4byte	.LASF84
 2043 0aab 07       		.byte	0x7
 2044 0aac 3D       		.byte	0x3d
 2045 0aad 01       		.byte	0x1
 2046 0aae 01       		.byte	0x1
 2047 0aaf 26       		.uleb128 0x26
 2048 0ab0 5F0A0000 		.4byte	0xa5f
 2049 0ab4 00       		.byte	0
 2050 0ab5 00       		.byte	0
 2051              		.section	.debug_abbrev,"",%progbits
 2052              	.Ldebug_abbrev0:
 2053 0000 01       		.uleb128 0x1
 2054 0001 11       		.uleb128 0x11
 2055 0002 01       		.byte	0x1
 2056 0003 25       		.uleb128 0x25
 2057 0004 0E       		.uleb128 0xe
 2058 0005 13       		.uleb128 0x13
 2059 0006 0B       		.uleb128 0xb
 2060 0007 03       		.uleb128 0x3
 2061 0008 0E       		.uleb128 0xe
 2062 0009 1B       		.uleb128 0x1b
 2063 000a 0E       		.uleb128 0xe
 2064 000b 55       		.uleb128 0x55
 2065 000c 06       		.uleb128 0x6
 2066 000d 11       		.uleb128 0x11
 2067 000e 01       		.uleb128 0x1
 2068 000f 52       		.uleb128 0x52
 2069 0010 01       		.uleb128 0x1
 2070 0011 10       		.uleb128 0x10
 2071 0012 06       		.uleb128 0x6
 2072 0013 00       		.byte	0
 2073 0014 00       		.byte	0
 2074 0015 02       		.uleb128 0x2
 2075 0016 24       		.uleb128 0x24
 2076 0017 00       		.byte	0
 2077 0018 0B       		.uleb128 0xb
 2078 0019 0B       		.uleb128 0xb
 2079 001a 3E       		.uleb128 0x3e
 2080 001b 0B       		.uleb128 0xb
 2081 001c 03       		.uleb128 0x3
 2082 001d 08       		.uleb128 0x8
 2083 001e 00       		.byte	0
 2084 001f 00       		.byte	0
 2085 0020 03       		.uleb128 0x3
 2086 0021 24       		.uleb128 0x24
 2087 0022 00       		.byte	0
 2088 0023 0B       		.uleb128 0xb
 2089 0024 0B       		.uleb128 0xb
 2090 0025 3E       		.uleb128 0x3e
 2091 0026 0B       		.uleb128 0xb
 2092 0027 03       		.uleb128 0x3
 2093 0028 0E       		.uleb128 0xe
 2094 0029 00       		.byte	0
 2095 002a 00       		.byte	0
 2096 002b 04       		.uleb128 0x4
 2097 002c 16       		.uleb128 0x16
ARM GAS  /var/folders/dt/0wfd0knj7gs46m8vwfzktm600000gn/T//ccBRR2YJ.s 			page 38


 2098 002d 00       		.byte	0
 2099 002e 03       		.uleb128 0x3
 2100 002f 0E       		.uleb128 0xe
 2101 0030 3A       		.uleb128 0x3a
 2102 0031 0B       		.uleb128 0xb
 2103 0032 3B       		.uleb128 0x3b
 2104 0033 0B       		.uleb128 0xb
 2105 0034 49       		.uleb128 0x49
 2106 0035 13       		.uleb128 0x13
 2107 0036 00       		.byte	0
 2108 0037 00       		.byte	0
 2109 0038 05       		.uleb128 0x5
 2110 0039 13       		.uleb128 0x13
 2111 003a 01       		.byte	0x1
 2112 003b 03       		.uleb128 0x3
 2113 003c 0E       		.uleb128 0xe
 2114 003d 0B       		.uleb128 0xb
 2115 003e 0B       		.uleb128 0xb
 2116 003f 3A       		.uleb128 0x3a
 2117 0040 0B       		.uleb128 0xb
 2118 0041 3B       		.uleb128 0x3b
 2119 0042 0B       		.uleb128 0xb
 2120 0043 01       		.uleb128 0x1
 2121 0044 13       		.uleb128 0x13
 2122 0045 00       		.byte	0
 2123 0046 00       		.byte	0
 2124 0047 06       		.uleb128 0x6
 2125 0048 0D       		.uleb128 0xd
 2126 0049 00       		.byte	0
 2127 004a 03       		.uleb128 0x3
 2128 004b 0E       		.uleb128 0xe
 2129 004c 3A       		.uleb128 0x3a
 2130 004d 0B       		.uleb128 0xb
 2131 004e 3B       		.uleb128 0x3b
 2132 004f 0B       		.uleb128 0xb
 2133 0050 49       		.uleb128 0x49
 2134 0051 13       		.uleb128 0x13
 2135 0052 38       		.uleb128 0x38
 2136 0053 0A       		.uleb128 0xa
 2137 0054 00       		.byte	0
 2138 0055 00       		.byte	0
 2139 0056 07       		.uleb128 0x7
 2140 0057 0D       		.uleb128 0xd
 2141 0058 00       		.byte	0
 2142 0059 03       		.uleb128 0x3
 2143 005a 08       		.uleb128 0x8
 2144 005b 3A       		.uleb128 0x3a
 2145 005c 0B       		.uleb128 0xb
 2146 005d 3B       		.uleb128 0x3b
 2147 005e 0B       		.uleb128 0xb
 2148 005f 49       		.uleb128 0x49
 2149 0060 13       		.uleb128 0x13
 2150 0061 38       		.uleb128 0x38
 2151 0062 0A       		.uleb128 0xa
 2152 0063 00       		.byte	0
 2153 0064 00       		.byte	0
 2154 0065 08       		.uleb128 0x8
ARM GAS  /var/folders/dt/0wfd0knj7gs46m8vwfzktm600000gn/T//ccBRR2YJ.s 			page 39


 2155 0066 13       		.uleb128 0x13
 2156 0067 01       		.byte	0x1
 2157 0068 0B       		.uleb128 0xb
 2158 0069 0B       		.uleb128 0xb
 2159 006a 3A       		.uleb128 0x3a
 2160 006b 0B       		.uleb128 0xb
 2161 006c 3B       		.uleb128 0x3b
 2162 006d 0B       		.uleb128 0xb
 2163 006e 01       		.uleb128 0x1
 2164 006f 13       		.uleb128 0x13
 2165 0070 00       		.byte	0
 2166 0071 00       		.byte	0
 2167 0072 09       		.uleb128 0x9
 2168 0073 0F       		.uleb128 0xf
 2169 0074 00       		.byte	0
 2170 0075 0B       		.uleb128 0xb
 2171 0076 0B       		.uleb128 0xb
 2172 0077 49       		.uleb128 0x49
 2173 0078 13       		.uleb128 0x13
 2174 0079 00       		.byte	0
 2175 007a 00       		.byte	0
 2176 007b 0A       		.uleb128 0xa
 2177 007c 0F       		.uleb128 0xf
 2178 007d 00       		.byte	0
 2179 007e 0B       		.uleb128 0xb
 2180 007f 0B       		.uleb128 0xb
 2181 0080 00       		.byte	0
 2182 0081 00       		.byte	0
 2183 0082 0B       		.uleb128 0xb
 2184 0083 0D       		.uleb128 0xd
 2185 0084 00       		.byte	0
 2186 0085 03       		.uleb128 0x3
 2187 0086 08       		.uleb128 0x8
 2188 0087 3A       		.uleb128 0x3a
 2189 0088 0B       		.uleb128 0xb
 2190 0089 3B       		.uleb128 0x3b
 2191 008a 05       		.uleb128 0x5
 2192 008b 49       		.uleb128 0x49
 2193 008c 13       		.uleb128 0x13
 2194 008d 38       		.uleb128 0x38
 2195 008e 0A       		.uleb128 0xa
 2196 008f 00       		.byte	0
 2197 0090 00       		.byte	0
 2198 0091 0C       		.uleb128 0xc
 2199 0092 13       		.uleb128 0x13
 2200 0093 01       		.byte	0x1
 2201 0094 03       		.uleb128 0x3
 2202 0095 0E       		.uleb128 0xe
 2203 0096 0B       		.uleb128 0xb
 2204 0097 0B       		.uleb128 0xb
 2205 0098 3A       		.uleb128 0x3a
 2206 0099 0B       		.uleb128 0xb
 2207 009a 3B       		.uleb128 0x3b
 2208 009b 05       		.uleb128 0x5
 2209 009c 01       		.uleb128 0x1
 2210 009d 13       		.uleb128 0x13
 2211 009e 00       		.byte	0
ARM GAS  /var/folders/dt/0wfd0knj7gs46m8vwfzktm600000gn/T//ccBRR2YJ.s 			page 40


 2212 009f 00       		.byte	0
 2213 00a0 0D       		.uleb128 0xd
 2214 00a1 35       		.uleb128 0x35
 2215 00a2 00       		.byte	0
 2216 00a3 49       		.uleb128 0x49
 2217 00a4 13       		.uleb128 0x13
 2218 00a5 00       		.byte	0
 2219 00a6 00       		.byte	0
 2220 00a7 0E       		.uleb128 0xe
 2221 00a8 17       		.uleb128 0x17
 2222 00a9 01       		.byte	0x1
 2223 00aa 0B       		.uleb128 0xb
 2224 00ab 0B       		.uleb128 0xb
 2225 00ac 3A       		.uleb128 0x3a
 2226 00ad 0B       		.uleb128 0xb
 2227 00ae 3B       		.uleb128 0x3b
 2228 00af 0B       		.uleb128 0xb
 2229 00b0 01       		.uleb128 0x1
 2230 00b1 13       		.uleb128 0x13
 2231 00b2 00       		.byte	0
 2232 00b3 00       		.byte	0
 2233 00b4 0F       		.uleb128 0xf
 2234 00b5 0D       		.uleb128 0xd
 2235 00b6 00       		.byte	0
 2236 00b7 03       		.uleb128 0x3
 2237 00b8 0E       		.uleb128 0xe
 2238 00b9 3A       		.uleb128 0x3a
 2239 00ba 0B       		.uleb128 0xb
 2240 00bb 3B       		.uleb128 0x3b
 2241 00bc 0B       		.uleb128 0xb
 2242 00bd 49       		.uleb128 0x49
 2243 00be 13       		.uleb128 0x13
 2244 00bf 00       		.byte	0
 2245 00c0 00       		.byte	0
 2246 00c1 10       		.uleb128 0x10
 2247 00c2 26       		.uleb128 0x26
 2248 00c3 00       		.byte	0
 2249 00c4 49       		.uleb128 0x49
 2250 00c5 13       		.uleb128 0x13
 2251 00c6 00       		.byte	0
 2252 00c7 00       		.byte	0
 2253 00c8 11       		.uleb128 0x11
 2254 00c9 2E       		.uleb128 0x2e
 2255 00ca 01       		.byte	0x1
 2256 00cb 3F       		.uleb128 0x3f
 2257 00cc 0C       		.uleb128 0xc
 2258 00cd 03       		.uleb128 0x3
 2259 00ce 0E       		.uleb128 0xe
 2260 00cf 3A       		.uleb128 0x3a
 2261 00d0 0B       		.uleb128 0xb
 2262 00d1 3B       		.uleb128 0x3b
 2263 00d2 0B       		.uleb128 0xb
 2264 00d3 27       		.uleb128 0x27
 2265 00d4 0C       		.uleb128 0xc
 2266 00d5 11       		.uleb128 0x11
 2267 00d6 01       		.uleb128 0x1
 2268 00d7 12       		.uleb128 0x12
ARM GAS  /var/folders/dt/0wfd0knj7gs46m8vwfzktm600000gn/T//ccBRR2YJ.s 			page 41


 2269 00d8 01       		.uleb128 0x1
 2270 00d9 40       		.uleb128 0x40
 2271 00da 06       		.uleb128 0x6
 2272 00db 9742     		.uleb128 0x2117
 2273 00dd 0C       		.uleb128 0xc
 2274 00de 01       		.uleb128 0x1
 2275 00df 13       		.uleb128 0x13
 2276 00e0 00       		.byte	0
 2277 00e1 00       		.byte	0
 2278 00e2 12       		.uleb128 0x12
 2279 00e3 05       		.uleb128 0x5
 2280 00e4 00       		.byte	0
 2281 00e5 03       		.uleb128 0x3
 2282 00e6 08       		.uleb128 0x8
 2283 00e7 3A       		.uleb128 0x3a
 2284 00e8 0B       		.uleb128 0xb
 2285 00e9 3B       		.uleb128 0x3b
 2286 00ea 0B       		.uleb128 0xb
 2287 00eb 49       		.uleb128 0x49
 2288 00ec 13       		.uleb128 0x13
 2289 00ed 02       		.uleb128 0x2
 2290 00ee 06       		.uleb128 0x6
 2291 00ef 00       		.byte	0
 2292 00f0 00       		.byte	0
 2293 00f1 13       		.uleb128 0x13
 2294 00f2 898201   		.uleb128 0x4109
 2295 00f5 01       		.byte	0x1
 2296 00f6 11       		.uleb128 0x11
 2297 00f7 01       		.uleb128 0x1
 2298 00f8 31       		.uleb128 0x31
 2299 00f9 13       		.uleb128 0x13
 2300 00fa 01       		.uleb128 0x1
 2301 00fb 13       		.uleb128 0x13
 2302 00fc 00       		.byte	0
 2303 00fd 00       		.byte	0
 2304 00fe 14       		.uleb128 0x14
 2305 00ff 8A8201   		.uleb128 0x410a
 2306 0102 00       		.byte	0
 2307 0103 02       		.uleb128 0x2
 2308 0104 0A       		.uleb128 0xa
 2309 0105 9142     		.uleb128 0x2111
 2310 0107 0A       		.uleb128 0xa
 2311 0108 00       		.byte	0
 2312 0109 00       		.byte	0
 2313 010a 15       		.uleb128 0x15
 2314 010b 898201   		.uleb128 0x4109
 2315 010e 01       		.byte	0x1
 2316 010f 11       		.uleb128 0x11
 2317 0110 01       		.uleb128 0x1
 2318 0111 9542     		.uleb128 0x2115
 2319 0113 0C       		.uleb128 0xc
 2320 0114 31       		.uleb128 0x31
 2321 0115 13       		.uleb128 0x13
 2322 0116 00       		.byte	0
 2323 0117 00       		.byte	0
 2324 0118 16       		.uleb128 0x16
 2325 0119 0B       		.uleb128 0xb
ARM GAS  /var/folders/dt/0wfd0knj7gs46m8vwfzktm600000gn/T//ccBRR2YJ.s 			page 42


 2326 011a 01       		.byte	0x1
 2327 011b 55       		.uleb128 0x55
 2328 011c 06       		.uleb128 0x6
 2329 011d 01       		.uleb128 0x1
 2330 011e 13       		.uleb128 0x13
 2331 011f 00       		.byte	0
 2332 0120 00       		.byte	0
 2333 0121 17       		.uleb128 0x17
 2334 0122 34       		.uleb128 0x34
 2335 0123 00       		.byte	0
 2336 0124 03       		.uleb128 0x3
 2337 0125 08       		.uleb128 0x8
 2338 0126 3A       		.uleb128 0x3a
 2339 0127 0B       		.uleb128 0xb
 2340 0128 3B       		.uleb128 0x3b
 2341 0129 0B       		.uleb128 0xb
 2342 012a 49       		.uleb128 0x49
 2343 012b 13       		.uleb128 0x13
 2344 012c 02       		.uleb128 0x2
 2345 012d 06       		.uleb128 0x6
 2346 012e 00       		.byte	0
 2347 012f 00       		.byte	0
 2348 0130 18       		.uleb128 0x18
 2349 0131 0B       		.uleb128 0xb
 2350 0132 01       		.byte	0x1
 2351 0133 11       		.uleb128 0x11
 2352 0134 01       		.uleb128 0x1
 2353 0135 12       		.uleb128 0x12
 2354 0136 01       		.uleb128 0x1
 2355 0137 01       		.uleb128 0x1
 2356 0138 13       		.uleb128 0x13
 2357 0139 00       		.byte	0
 2358 013a 00       		.byte	0
 2359 013b 19       		.uleb128 0x19
 2360 013c 898201   		.uleb128 0x4109
 2361 013f 00       		.byte	0
 2362 0140 11       		.uleb128 0x11
 2363 0141 01       		.uleb128 0x1
 2364 0142 31       		.uleb128 0x31
 2365 0143 13       		.uleb128 0x13
 2366 0144 00       		.byte	0
 2367 0145 00       		.byte	0
 2368 0146 1A       		.uleb128 0x1a
 2369 0147 2E       		.uleb128 0x2e
 2370 0148 01       		.byte	0x1
 2371 0149 3F       		.uleb128 0x3f
 2372 014a 0C       		.uleb128 0xc
 2373 014b 03       		.uleb128 0x3
 2374 014c 0E       		.uleb128 0xe
 2375 014d 3A       		.uleb128 0x3a
 2376 014e 0B       		.uleb128 0xb
 2377 014f 3B       		.uleb128 0x3b
 2378 0150 0B       		.uleb128 0xb
 2379 0151 27       		.uleb128 0x27
 2380 0152 0C       		.uleb128 0xc
 2381 0153 49       		.uleb128 0x49
 2382 0154 13       		.uleb128 0x13
ARM GAS  /var/folders/dt/0wfd0knj7gs46m8vwfzktm600000gn/T//ccBRR2YJ.s 			page 43


 2383 0155 11       		.uleb128 0x11
 2384 0156 01       		.uleb128 0x1
 2385 0157 12       		.uleb128 0x12
 2386 0158 01       		.uleb128 0x1
 2387 0159 40       		.uleb128 0x40
 2388 015a 06       		.uleb128 0x6
 2389 015b 9742     		.uleb128 0x2117
 2390 015d 0C       		.uleb128 0xc
 2391 015e 01       		.uleb128 0x1
 2392 015f 13       		.uleb128 0x13
 2393 0160 00       		.byte	0
 2394 0161 00       		.byte	0
 2395 0162 1B       		.uleb128 0x1b
 2396 0163 05       		.uleb128 0x5
 2397 0164 00       		.byte	0
 2398 0165 03       		.uleb128 0x3
 2399 0166 0E       		.uleb128 0xe
 2400 0167 3A       		.uleb128 0x3a
 2401 0168 0B       		.uleb128 0xb
 2402 0169 3B       		.uleb128 0x3b
 2403 016a 0B       		.uleb128 0xb
 2404 016b 49       		.uleb128 0x49
 2405 016c 13       		.uleb128 0x13
 2406 016d 02       		.uleb128 0x2
 2407 016e 06       		.uleb128 0x6
 2408 016f 00       		.byte	0
 2409 0170 00       		.byte	0
 2410 0171 1C       		.uleb128 0x1c
 2411 0172 34       		.uleb128 0x34
 2412 0173 00       		.byte	0
 2413 0174 03       		.uleb128 0x3
 2414 0175 0E       		.uleb128 0xe
 2415 0176 3A       		.uleb128 0x3a
 2416 0177 0B       		.uleb128 0xb
 2417 0178 3B       		.uleb128 0x3b
 2418 0179 0B       		.uleb128 0xb
 2419 017a 49       		.uleb128 0x49
 2420 017b 13       		.uleb128 0x13
 2421 017c 02       		.uleb128 0x2
 2422 017d 06       		.uleb128 0x6
 2423 017e 00       		.byte	0
 2424 017f 00       		.byte	0
 2425 0180 1D       		.uleb128 0x1d
 2426 0181 34       		.uleb128 0x34
 2427 0182 00       		.byte	0
 2428 0183 03       		.uleb128 0x3
 2429 0184 0E       		.uleb128 0xe
 2430 0185 3A       		.uleb128 0x3a
 2431 0186 0B       		.uleb128 0xb
 2432 0187 3B       		.uleb128 0x3b
 2433 0188 0B       		.uleb128 0xb
 2434 0189 49       		.uleb128 0x49
 2435 018a 13       		.uleb128 0x13
 2436 018b 02       		.uleb128 0x2
 2437 018c 0A       		.uleb128 0xa
 2438 018d 00       		.byte	0
 2439 018e 00       		.byte	0
ARM GAS  /var/folders/dt/0wfd0knj7gs46m8vwfzktm600000gn/T//ccBRR2YJ.s 			page 44


 2440 018f 1E       		.uleb128 0x1e
 2441 0190 898201   		.uleb128 0x4109
 2442 0193 01       		.byte	0x1
 2443 0194 11       		.uleb128 0x11
 2444 0195 01       		.uleb128 0x1
 2445 0196 31       		.uleb128 0x31
 2446 0197 13       		.uleb128 0x13
 2447 0198 00       		.byte	0
 2448 0199 00       		.byte	0
 2449 019a 1F       		.uleb128 0x1f
 2450 019b 2E       		.uleb128 0x2e
 2451 019c 01       		.byte	0x1
 2452 019d 3F       		.uleb128 0x3f
 2453 019e 0C       		.uleb128 0xc
 2454 019f 03       		.uleb128 0x3
 2455 01a0 0E       		.uleb128 0xe
 2456 01a1 3A       		.uleb128 0x3a
 2457 01a2 0B       		.uleb128 0xb
 2458 01a3 3B       		.uleb128 0x3b
 2459 01a4 05       		.uleb128 0x5
 2460 01a5 27       		.uleb128 0x27
 2461 01a6 0C       		.uleb128 0xc
 2462 01a7 49       		.uleb128 0x49
 2463 01a8 13       		.uleb128 0x13
 2464 01a9 11       		.uleb128 0x11
 2465 01aa 01       		.uleb128 0x1
 2466 01ab 12       		.uleb128 0x12
 2467 01ac 01       		.uleb128 0x1
 2468 01ad 40       		.uleb128 0x40
 2469 01ae 06       		.uleb128 0x6
 2470 01af 9742     		.uleb128 0x2117
 2471 01b1 0C       		.uleb128 0xc
 2472 01b2 01       		.uleb128 0x1
 2473 01b3 13       		.uleb128 0x13
 2474 01b4 00       		.byte	0
 2475 01b5 00       		.byte	0
 2476 01b6 20       		.uleb128 0x20
 2477 01b7 05       		.uleb128 0x5
 2478 01b8 00       		.byte	0
 2479 01b9 03       		.uleb128 0x3
 2480 01ba 08       		.uleb128 0x8
 2481 01bb 3A       		.uleb128 0x3a
 2482 01bc 0B       		.uleb128 0xb
 2483 01bd 3B       		.uleb128 0x3b
 2484 01be 05       		.uleb128 0x5
 2485 01bf 49       		.uleb128 0x49
 2486 01c0 13       		.uleb128 0x13
 2487 01c1 02       		.uleb128 0x2
 2488 01c2 06       		.uleb128 0x6
 2489 01c3 00       		.byte	0
 2490 01c4 00       		.byte	0
 2491 01c5 21       		.uleb128 0x21
 2492 01c6 05       		.uleb128 0x5
 2493 01c7 00       		.byte	0
 2494 01c8 03       		.uleb128 0x3
 2495 01c9 0E       		.uleb128 0xe
 2496 01ca 3A       		.uleb128 0x3a
ARM GAS  /var/folders/dt/0wfd0knj7gs46m8vwfzktm600000gn/T//ccBRR2YJ.s 			page 45


 2497 01cb 0B       		.uleb128 0xb
 2498 01cc 3B       		.uleb128 0x3b
 2499 01cd 05       		.uleb128 0x5
 2500 01ce 49       		.uleb128 0x49
 2501 01cf 13       		.uleb128 0x13
 2502 01d0 02       		.uleb128 0x2
 2503 01d1 06       		.uleb128 0x6
 2504 01d2 00       		.byte	0
 2505 01d3 00       		.byte	0
 2506 01d4 22       		.uleb128 0x22
 2507 01d5 34       		.uleb128 0x34
 2508 01d6 00       		.byte	0
 2509 01d7 03       		.uleb128 0x3
 2510 01d8 0E       		.uleb128 0xe
 2511 01d9 3A       		.uleb128 0x3a
 2512 01da 0B       		.uleb128 0xb
 2513 01db 3B       		.uleb128 0x3b
 2514 01dc 05       		.uleb128 0x5
 2515 01dd 49       		.uleb128 0x49
 2516 01de 13       		.uleb128 0x13
 2517 01df 02       		.uleb128 0x2
 2518 01e0 06       		.uleb128 0x6
 2519 01e1 00       		.byte	0
 2520 01e2 00       		.byte	0
 2521 01e3 23       		.uleb128 0x23
 2522 01e4 34       		.uleb128 0x34
 2523 01e5 00       		.byte	0
 2524 01e6 03       		.uleb128 0x3
 2525 01e7 0E       		.uleb128 0xe
 2526 01e8 3A       		.uleb128 0x3a
 2527 01e9 0B       		.uleb128 0xb
 2528 01ea 3B       		.uleb128 0x3b
 2529 01eb 05       		.uleb128 0x5
 2530 01ec 49       		.uleb128 0x49
 2531 01ed 13       		.uleb128 0x13
 2532 01ee 02       		.uleb128 0x2
 2533 01ef 0A       		.uleb128 0xa
 2534 01f0 00       		.byte	0
 2535 01f1 00       		.byte	0
 2536 01f2 24       		.uleb128 0x24
 2537 01f3 34       		.uleb128 0x34
 2538 01f4 00       		.byte	0
 2539 01f5 03       		.uleb128 0x3
 2540 01f6 08       		.uleb128 0x8
 2541 01f7 3A       		.uleb128 0x3a
 2542 01f8 0B       		.uleb128 0xb
 2543 01f9 3B       		.uleb128 0x3b
 2544 01fa 05       		.uleb128 0x5
 2545 01fb 49       		.uleb128 0x49
 2546 01fc 13       		.uleb128 0x13
 2547 01fd 02       		.uleb128 0x2
 2548 01fe 06       		.uleb128 0x6
 2549 01ff 00       		.byte	0
 2550 0200 00       		.byte	0
 2551 0201 25       		.uleb128 0x25
 2552 0202 2E       		.uleb128 0x2e
 2553 0203 01       		.byte	0x1
ARM GAS  /var/folders/dt/0wfd0knj7gs46m8vwfzktm600000gn/T//ccBRR2YJ.s 			page 46


 2554 0204 3F       		.uleb128 0x3f
 2555 0205 0C       		.uleb128 0xc
 2556 0206 03       		.uleb128 0x3
 2557 0207 0E       		.uleb128 0xe
 2558 0208 3A       		.uleb128 0x3a
 2559 0209 0B       		.uleb128 0xb
 2560 020a 3B       		.uleb128 0x3b
 2561 020b 0B       		.uleb128 0xb
 2562 020c 27       		.uleb128 0x27
 2563 020d 0C       		.uleb128 0xc
 2564 020e 3C       		.uleb128 0x3c
 2565 020f 0C       		.uleb128 0xc
 2566 0210 01       		.uleb128 0x1
 2567 0211 13       		.uleb128 0x13
 2568 0212 00       		.byte	0
 2569 0213 00       		.byte	0
 2570 0214 26       		.uleb128 0x26
 2571 0215 05       		.uleb128 0x5
 2572 0216 00       		.byte	0
 2573 0217 49       		.uleb128 0x49
 2574 0218 13       		.uleb128 0x13
 2575 0219 00       		.byte	0
 2576 021a 00       		.byte	0
 2577 021b 27       		.uleb128 0x27
 2578 021c 2E       		.uleb128 0x2e
 2579 021d 00       		.byte	0
 2580 021e 3F       		.uleb128 0x3f
 2581 021f 0C       		.uleb128 0xc
 2582 0220 03       		.uleb128 0x3
 2583 0221 0E       		.uleb128 0xe
 2584 0222 3A       		.uleb128 0x3a
 2585 0223 0B       		.uleb128 0xb
 2586 0224 3B       		.uleb128 0x3b
 2587 0225 0B       		.uleb128 0xb
 2588 0226 27       		.uleb128 0x27
 2589 0227 0C       		.uleb128 0xc
 2590 0228 3C       		.uleb128 0x3c
 2591 0229 0C       		.uleb128 0xc
 2592 022a 00       		.byte	0
 2593 022b 00       		.byte	0
 2594 022c 28       		.uleb128 0x28
 2595 022d 2E       		.uleb128 0x2e
 2596 022e 01       		.byte	0x1
 2597 022f 3F       		.uleb128 0x3f
 2598 0230 0C       		.uleb128 0xc
 2599 0231 03       		.uleb128 0x3
 2600 0232 0E       		.uleb128 0xe
 2601 0233 3A       		.uleb128 0x3a
 2602 0234 0B       		.uleb128 0xb
 2603 0235 3B       		.uleb128 0x3b
 2604 0236 0B       		.uleb128 0xb
 2605 0237 27       		.uleb128 0x27
 2606 0238 0C       		.uleb128 0xc
 2607 0239 49       		.uleb128 0x49
 2608 023a 13       		.uleb128 0x13
 2609 023b 3C       		.uleb128 0x3c
 2610 023c 0C       		.uleb128 0xc
ARM GAS  /var/folders/dt/0wfd0knj7gs46m8vwfzktm600000gn/T//ccBRR2YJ.s 			page 47


 2611 023d 01       		.uleb128 0x1
 2612 023e 13       		.uleb128 0x13
 2613 023f 00       		.byte	0
 2614 0240 00       		.byte	0
 2615 0241 29       		.uleb128 0x29
 2616 0242 2E       		.uleb128 0x2e
 2617 0243 01       		.byte	0x1
 2618 0244 3F       		.uleb128 0x3f
 2619 0245 0C       		.uleb128 0xc
 2620 0246 03       		.uleb128 0x3
 2621 0247 0E       		.uleb128 0xe
 2622 0248 3A       		.uleb128 0x3a
 2623 0249 0B       		.uleb128 0xb
 2624 024a 3B       		.uleb128 0x3b
 2625 024b 0B       		.uleb128 0xb
 2626 024c 27       		.uleb128 0x27
 2627 024d 0C       		.uleb128 0xc
 2628 024e 3C       		.uleb128 0x3c
 2629 024f 0C       		.uleb128 0xc
 2630 0250 00       		.byte	0
 2631 0251 00       		.byte	0
 2632 0252 00       		.byte	0
 2633              		.section	.debug_loc,"",%progbits
 2634              	.Ldebug_loc0:
 2635              	.LLST0:
 2636 0000 00000000 		.4byte	.LFB7
 2637 0004 02000000 		.4byte	.LCFI0
 2638 0008 0200     		.2byte	0x2
 2639 000a 7D       		.byte	0x7d
 2640 000b 00       		.sleb128 0
 2641 000c 02000000 		.4byte	.LCFI0
 2642 0010 2A000000 		.4byte	.LFE7
 2643 0014 0200     		.2byte	0x2
 2644 0016 7D       		.byte	0x7d
 2645 0017 10       		.sleb128 16
 2646 0018 00000000 		.4byte	0
 2647 001c 00000000 		.4byte	0
 2648              	.LLST1:
 2649 0020 00000000 		.4byte	.LVL0
 2650 0024 0E000000 		.4byte	.LVL1
 2651 0028 0100     		.2byte	0x1
 2652 002a 50       		.byte	0x50
 2653 002b 0E000000 		.4byte	.LVL1
 2654 002f 2A000000 		.4byte	.LFE7
 2655 0033 0100     		.2byte	0x1
 2656 0035 54       		.byte	0x54
 2657 0036 00000000 		.4byte	0
 2658 003a 00000000 		.4byte	0
 2659              	.LLST2:
 2660 003e 00000000 		.4byte	.LVL0
 2661 0042 10000000 		.4byte	.LVL2
 2662 0046 0100     		.2byte	0x1
 2663 0048 51       		.byte	0x51
 2664 0049 10000000 		.4byte	.LVL2
 2665 004d 1B000000 		.4byte	.LVL3-1
 2666 0051 0100     		.2byte	0x1
 2667 0053 53       		.byte	0x53
ARM GAS  /var/folders/dt/0wfd0knj7gs46m8vwfzktm600000gn/T//ccBRR2YJ.s 			page 48


 2668 0054 1B000000 		.4byte	.LVL3-1
 2669 0058 2A000000 		.4byte	.LFE7
 2670 005c 0400     		.2byte	0x4
 2671 005e F3       		.byte	0xf3
 2672 005f 01       		.uleb128 0x1
 2673 0060 51       		.byte	0x51
 2674 0061 9F       		.byte	0x9f
 2675 0062 00000000 		.4byte	0
 2676 0066 00000000 		.4byte	0
 2677              	.LLST3:
 2678 006a 00000000 		.4byte	.LVL0
 2679 006e 1B000000 		.4byte	.LVL3-1
 2680 0072 0100     		.2byte	0x1
 2681 0074 52       		.byte	0x52
 2682 0075 1B000000 		.4byte	.LVL3-1
 2683 0079 2A000000 		.4byte	.LFE7
 2684 007d 0400     		.2byte	0x4
 2685 007f F3       		.byte	0xf3
 2686 0080 01       		.uleb128 0x1
 2687 0081 52       		.byte	0x52
 2688 0082 9F       		.byte	0x9f
 2689 0083 00000000 		.4byte	0
 2690 0087 00000000 		.4byte	0
 2691              	.LLST4:
 2692 008b 00000000 		.4byte	.LFB8
 2693 008f 02000000 		.4byte	.LCFI1
 2694 0093 0200     		.2byte	0x2
 2695 0095 7D       		.byte	0x7d
 2696 0096 00       		.sleb128 0
 2697 0097 02000000 		.4byte	.LCFI1
 2698 009b 34000000 		.4byte	.LFE8
 2699 009f 0200     		.2byte	0x2
 2700 00a1 7D       		.byte	0x7d
 2701 00a2 08       		.sleb128 8
 2702 00a3 00000000 		.4byte	0
 2703 00a7 00000000 		.4byte	0
 2704              	.LLST5:
 2705 00ab 00000000 		.4byte	.LVL5
 2706 00af 1A000000 		.4byte	.LVL9
 2707 00b3 0100     		.2byte	0x1
 2708 00b5 50       		.byte	0x50
 2709 00b6 1A000000 		.4byte	.LVL9
 2710 00ba 34000000 		.4byte	.LFE8
 2711 00be 0100     		.2byte	0x1
 2712 00c0 54       		.byte	0x54
 2713 00c1 00000000 		.4byte	0
 2714 00c5 00000000 		.4byte	0
 2715              	.LLST6:
 2716 00c9 0A000000 		.4byte	.LVL7
 2717 00cd 0C000000 		.4byte	.LVL8
 2718 00d1 0100     		.2byte	0x1
 2719 00d3 53       		.byte	0x53
 2720 00d4 00000000 		.4byte	0
 2721 00d8 00000000 		.4byte	0
 2722              	.LLST7:
 2723 00dc 32000000 		.4byte	.LVL14
 2724 00e0 34000000 		.4byte	.LFE8
ARM GAS  /var/folders/dt/0wfd0knj7gs46m8vwfzktm600000gn/T//ccBRR2YJ.s 			page 49


 2725 00e4 0100     		.2byte	0x1
 2726 00e6 53       		.byte	0x53
 2727 00e7 00000000 		.4byte	0
 2728 00eb 00000000 		.4byte	0
 2729              	.LLST8:
 2730 00ef 00000000 		.4byte	.LFB10
 2731 00f3 02000000 		.4byte	.LCFI2
 2732 00f7 0200     		.2byte	0x2
 2733 00f9 7D       		.byte	0x7d
 2734 00fa 00       		.sleb128 0
 2735 00fb 02000000 		.4byte	.LCFI2
 2736 00ff 38000000 		.4byte	.LFE10
 2737 0103 0200     		.2byte	0x2
 2738 0105 7D       		.byte	0x7d
 2739 0106 10       		.sleb128 16
 2740 0107 00000000 		.4byte	0
 2741 010b 00000000 		.4byte	0
 2742              	.LLST9:
 2743 010f 00000000 		.4byte	.LVL15
 2744 0113 0A000000 		.4byte	.LVL16
 2745 0117 0100     		.2byte	0x1
 2746 0119 50       		.byte	0x50
 2747 011a 0A000000 		.4byte	.LVL16
 2748 011e 38000000 		.4byte	.LFE10
 2749 0122 0100     		.2byte	0x1
 2750 0124 54       		.byte	0x54
 2751 0125 00000000 		.4byte	0
 2752 0129 00000000 		.4byte	0
 2753              	.LLST10:
 2754 012d 00000000 		.4byte	.LVL15
 2755 0131 0C000000 		.4byte	.LVL17
 2756 0135 0100     		.2byte	0x1
 2757 0137 51       		.byte	0x51
 2758 0138 0C000000 		.4byte	.LVL17
 2759 013c 38000000 		.4byte	.LFE10
 2760 0140 0100     		.2byte	0x1
 2761 0142 56       		.byte	0x56
 2762 0143 00000000 		.4byte	0
 2763 0147 00000000 		.4byte	0
 2764              	.LLST11:
 2765 014b 00000000 		.4byte	.LVL15
 2766 014f 0F000000 		.4byte	.LVL18-1
 2767 0153 0100     		.2byte	0x1
 2768 0155 52       		.byte	0x52
 2769 0156 0F000000 		.4byte	.LVL18-1
 2770 015a 38000000 		.4byte	.LFE10
 2771 015e 0400     		.2byte	0x4
 2772 0160 F3       		.byte	0xf3
 2773 0161 01       		.uleb128 0x1
 2774 0162 52       		.byte	0x52
 2775 0163 9F       		.byte	0x9f
 2776 0164 00000000 		.4byte	0
 2777 0168 00000000 		.4byte	0
 2778              	.LLST12:
 2779 016c 10000000 		.4byte	.LVL18
 2780 0170 28000000 		.4byte	.LVL19
 2781 0174 0100     		.2byte	0x1
ARM GAS  /var/folders/dt/0wfd0knj7gs46m8vwfzktm600000gn/T//ccBRR2YJ.s 			page 50


 2782 0176 50       		.byte	0x50
 2783 0177 28000000 		.4byte	.LVL19
 2784 017b 38000000 		.4byte	.LFE10
 2785 017f 0100     		.2byte	0x1
 2786 0181 55       		.byte	0x55
 2787 0182 00000000 		.4byte	0
 2788 0186 00000000 		.4byte	0
 2789              	.LLST13:
 2790 018a 00000000 		.4byte	.LFB9
 2791 018e 02000000 		.4byte	.LCFI3
 2792 0192 0200     		.2byte	0x2
 2793 0194 7D       		.byte	0x7d
 2794 0195 00       		.sleb128 0
 2795 0196 02000000 		.4byte	.LCFI3
 2796 019a 14000000 		.4byte	.LFE9
 2797 019e 0200     		.2byte	0x2
 2798 01a0 7D       		.byte	0x7d
 2799 01a1 08       		.sleb128 8
 2800 01a2 00000000 		.4byte	0
 2801 01a6 00000000 		.4byte	0
 2802              	.LLST14:
 2803 01aa 00000000 		.4byte	.LVL22
 2804 01ae 0B000000 		.4byte	.LVL25-1
 2805 01b2 0100     		.2byte	0x1
 2806 01b4 50       		.byte	0x50
 2807 01b5 0B000000 		.4byte	.LVL25-1
 2808 01b9 14000000 		.4byte	.LFE9
 2809 01bd 0400     		.2byte	0x4
 2810 01bf F3       		.byte	0xf3
 2811 01c0 01       		.uleb128 0x1
 2812 01c1 50       		.byte	0x50
 2813 01c2 9F       		.byte	0x9f
 2814 01c3 00000000 		.4byte	0
 2815 01c7 00000000 		.4byte	0
 2816              	.LLST15:
 2817 01cb 00000000 		.4byte	.LVL22
 2818 01cf 0B000000 		.4byte	.LVL25-1
 2819 01d3 0100     		.2byte	0x1
 2820 01d5 51       		.byte	0x51
 2821 01d6 0B000000 		.4byte	.LVL25-1
 2822 01da 14000000 		.4byte	.LFE9
 2823 01de 0400     		.2byte	0x4
 2824 01e0 F3       		.byte	0xf3
 2825 01e1 01       		.uleb128 0x1
 2826 01e2 51       		.byte	0x51
 2827 01e3 9F       		.byte	0x9f
 2828 01e4 00000000 		.4byte	0
 2829 01e8 00000000 		.4byte	0
 2830              	.LLST16:
 2831 01ec 00000000 		.4byte	.LVL22
 2832 01f0 0B000000 		.4byte	.LVL25-1
 2833 01f4 0100     		.2byte	0x1
 2834 01f6 52       		.byte	0x52
 2835 01f7 0B000000 		.4byte	.LVL25-1
 2836 01fb 14000000 		.4byte	.LFE9
 2837 01ff 0400     		.2byte	0x4
 2838 0201 F3       		.byte	0xf3
ARM GAS  /var/folders/dt/0wfd0knj7gs46m8vwfzktm600000gn/T//ccBRR2YJ.s 			page 51


 2839 0202 01       		.uleb128 0x1
 2840 0203 52       		.byte	0x52
 2841 0204 9F       		.byte	0x9f
 2842 0205 00000000 		.4byte	0
 2843 0209 00000000 		.4byte	0
 2844              	.LLST17:
 2845 020d 08000000 		.4byte	.LVL24
 2846 0211 0B000000 		.4byte	.LVL25-1
 2847 0215 0100     		.2byte	0x1
 2848 0217 53       		.byte	0x53
 2849 0218 00000000 		.4byte	0
 2850 021c 00000000 		.4byte	0
 2851              	.LLST18:
 2852 0220 12000000 		.4byte	.LVL27
 2853 0224 14000000 		.4byte	.LFE9
 2854 0228 0100     		.2byte	0x1
 2855 022a 53       		.byte	0x53
 2856 022b 00000000 		.4byte	0
 2857 022f 00000000 		.4byte	0
 2858              	.LLST19:
 2859 0233 00000000 		.4byte	.LFB11
 2860 0237 04000000 		.4byte	.LCFI4
 2861 023b 0200     		.2byte	0x2
 2862 023d 7D       		.byte	0x7d
 2863 023e 00       		.sleb128 0
 2864 023f 04000000 		.4byte	.LCFI4
 2865 0243 2E000000 		.4byte	.LFE11
 2866 0247 0200     		.2byte	0x2
 2867 0249 7D       		.byte	0x7d
 2868 024a 08       		.sleb128 8
 2869 024b 00000000 		.4byte	0
 2870 024f 00000000 		.4byte	0
 2871              	.LLST20:
 2872 0253 00000000 		.4byte	.LVL28
 2873 0257 20000000 		.4byte	.LVL29
 2874 025b 0100     		.2byte	0x1
 2875 025d 50       		.byte	0x50
 2876 025e 20000000 		.4byte	.LVL29
 2877 0262 23000000 		.4byte	.LVL30-1
 2878 0266 0300     		.2byte	0x3
 2879 0268 70       		.byte	0x70
 2880 0269 70       		.sleb128 -16
 2881 026a 9F       		.byte	0x9f
 2882 026b 23000000 		.4byte	.LVL30-1
 2883 026f 28000000 		.4byte	.LVL31
 2884 0273 0400     		.2byte	0x4
 2885 0275 F3       		.byte	0xf3
 2886 0276 01       		.uleb128 0x1
 2887 0277 50       		.byte	0x50
 2888 0278 9F       		.byte	0x9f
 2889 0279 28000000 		.4byte	.LVL31
 2890 027d 2C000000 		.4byte	.LVL32
 2891 0281 0100     		.2byte	0x1
 2892 0283 50       		.byte	0x50
 2893 0284 2C000000 		.4byte	.LVL32
 2894 0288 2E000000 		.4byte	.LFE11
 2895 028c 0400     		.2byte	0x4
ARM GAS  /var/folders/dt/0wfd0knj7gs46m8vwfzktm600000gn/T//ccBRR2YJ.s 			page 52


 2896 028e F3       		.byte	0xf3
 2897 028f 01       		.uleb128 0x1
 2898 0290 50       		.byte	0x50
 2899 0291 9F       		.byte	0x9f
 2900 0292 00000000 		.4byte	0
 2901 0296 00000000 		.4byte	0
 2902              	.LLST21:
 2903 029a 00000000 		.4byte	.LVL28
 2904 029e 23000000 		.4byte	.LVL30-1
 2905 02a2 0100     		.2byte	0x1
 2906 02a4 51       		.byte	0x51
 2907 02a5 23000000 		.4byte	.LVL30-1
 2908 02a9 28000000 		.4byte	.LVL31
 2909 02ad 0400     		.2byte	0x4
 2910 02af F3       		.byte	0xf3
 2911 02b0 01       		.uleb128 0x1
 2912 02b1 51       		.byte	0x51
 2913 02b2 9F       		.byte	0x9f
 2914 02b3 28000000 		.4byte	.LVL31
 2915 02b7 2E000000 		.4byte	.LFE11
 2916 02bb 0100     		.2byte	0x1
 2917 02bd 51       		.byte	0x51
 2918 02be 00000000 		.4byte	0
 2919 02c2 00000000 		.4byte	0
 2920              	.LLST22:
 2921 02c6 00000000 		.4byte	.LFB13
 2922 02ca 02000000 		.4byte	.LCFI5
 2923 02ce 0200     		.2byte	0x2
 2924 02d0 7D       		.byte	0x7d
 2925 02d1 00       		.sleb128 0
 2926 02d2 02000000 		.4byte	.LCFI5
 2927 02d6 3A000000 		.4byte	.LFE13
 2928 02da 0200     		.2byte	0x2
 2929 02dc 7D       		.byte	0x7d
 2930 02dd 10       		.sleb128 16
 2931 02de 00000000 		.4byte	0
 2932 02e2 00000000 		.4byte	0
 2933              	.LLST23:
 2934 02e6 00000000 		.4byte	.LVL33
 2935 02ea 0A000000 		.4byte	.LVL34
 2936 02ee 0100     		.2byte	0x1
 2937 02f0 50       		.byte	0x50
 2938 02f1 0A000000 		.4byte	.LVL34
 2939 02f5 3A000000 		.4byte	.LFE13
 2940 02f9 0100     		.2byte	0x1
 2941 02fb 54       		.byte	0x54
 2942 02fc 00000000 		.4byte	0
 2943 0300 00000000 		.4byte	0
 2944              	.LLST24:
 2945 0304 00000000 		.4byte	.LVL33
 2946 0308 0C000000 		.4byte	.LVL35
 2947 030c 0100     		.2byte	0x1
 2948 030e 51       		.byte	0x51
 2949 030f 0C000000 		.4byte	.LVL35
 2950 0313 3A000000 		.4byte	.LFE13
 2951 0317 0100     		.2byte	0x1
 2952 0319 56       		.byte	0x56
ARM GAS  /var/folders/dt/0wfd0knj7gs46m8vwfzktm600000gn/T//ccBRR2YJ.s 			page 53


 2953 031a 00000000 		.4byte	0
 2954 031e 00000000 		.4byte	0
 2955              	.LLST25:
 2956 0322 00000000 		.4byte	.LVL33
 2957 0326 0F000000 		.4byte	.LVL36-1
 2958 032a 0100     		.2byte	0x1
 2959 032c 52       		.byte	0x52
 2960 032d 0F000000 		.4byte	.LVL36-1
 2961 0331 3A000000 		.4byte	.LFE13
 2962 0335 0400     		.2byte	0x4
 2963 0337 F3       		.byte	0xf3
 2964 0338 01       		.uleb128 0x1
 2965 0339 52       		.byte	0x52
 2966 033a 9F       		.byte	0x9f
 2967 033b 00000000 		.4byte	0
 2968 033f 00000000 		.4byte	0
 2969              	.LLST26:
 2970 0343 10000000 		.4byte	.LVL36
 2971 0347 24000000 		.4byte	.LVL37
 2972 034b 0100     		.2byte	0x1
 2973 034d 50       		.byte	0x50
 2974 034e 24000000 		.4byte	.LVL37
 2975 0352 32000000 		.4byte	.LVL40
 2976 0356 0100     		.2byte	0x1
 2977 0358 55       		.byte	0x55
 2978 0359 32000000 		.4byte	.LVL40
 2979 035d 3A000000 		.4byte	.LFE13
 2980 0361 0100     		.2byte	0x1
 2981 0363 50       		.byte	0x50
 2982 0364 00000000 		.4byte	0
 2983 0368 00000000 		.4byte	0
 2984              	.LLST27:
 2985 036c 00000000 		.4byte	.LFB12
 2986 0370 02000000 		.4byte	.LCFI6
 2987 0374 0200     		.2byte	0x2
 2988 0376 7D       		.byte	0x7d
 2989 0377 00       		.sleb128 0
 2990 0378 02000000 		.4byte	.LCFI6
 2991 037c 14000000 		.4byte	.LFE12
 2992 0380 0200     		.2byte	0x2
 2993 0382 7D       		.byte	0x7d
 2994 0383 08       		.sleb128 8
 2995 0384 00000000 		.4byte	0
 2996 0388 00000000 		.4byte	0
 2997              	.LLST28:
 2998 038c 00000000 		.4byte	.LVL41
 2999 0390 0B000000 		.4byte	.LVL44-1
 3000 0394 0100     		.2byte	0x1
 3001 0396 50       		.byte	0x50
 3002 0397 0B000000 		.4byte	.LVL44-1
 3003 039b 14000000 		.4byte	.LFE12
 3004 039f 0400     		.2byte	0x4
 3005 03a1 F3       		.byte	0xf3
 3006 03a2 01       		.uleb128 0x1
 3007 03a3 50       		.byte	0x50
 3008 03a4 9F       		.byte	0x9f
 3009 03a5 00000000 		.4byte	0
ARM GAS  /var/folders/dt/0wfd0knj7gs46m8vwfzktm600000gn/T//ccBRR2YJ.s 			page 54


 3010 03a9 00000000 		.4byte	0
 3011              	.LLST29:
 3012 03ad 00000000 		.4byte	.LVL41
 3013 03b1 0B000000 		.4byte	.LVL44-1
 3014 03b5 0100     		.2byte	0x1
 3015 03b7 51       		.byte	0x51
 3016 03b8 0B000000 		.4byte	.LVL44-1
 3017 03bc 14000000 		.4byte	.LFE12
 3018 03c0 0400     		.2byte	0x4
 3019 03c2 F3       		.byte	0xf3
 3020 03c3 01       		.uleb128 0x1
 3021 03c4 51       		.byte	0x51
 3022 03c5 9F       		.byte	0x9f
 3023 03c6 00000000 		.4byte	0
 3024 03ca 00000000 		.4byte	0
 3025              	.LLST30:
 3026 03ce 00000000 		.4byte	.LVL41
 3027 03d2 0B000000 		.4byte	.LVL44-1
 3028 03d6 0100     		.2byte	0x1
 3029 03d8 52       		.byte	0x52
 3030 03d9 0B000000 		.4byte	.LVL44-1
 3031 03dd 14000000 		.4byte	.LFE12
 3032 03e1 0400     		.2byte	0x4
 3033 03e3 F3       		.byte	0xf3
 3034 03e4 01       		.uleb128 0x1
 3035 03e5 52       		.byte	0x52
 3036 03e6 9F       		.byte	0x9f
 3037 03e7 00000000 		.4byte	0
 3038 03eb 00000000 		.4byte	0
 3039              	.LLST31:
 3040 03ef 08000000 		.4byte	.LVL43
 3041 03f3 0B000000 		.4byte	.LVL44-1
 3042 03f7 0100     		.2byte	0x1
 3043 03f9 53       		.byte	0x53
 3044 03fa 00000000 		.4byte	0
 3045 03fe 00000000 		.4byte	0
 3046              	.LLST32:
 3047 0402 12000000 		.4byte	.LVL46
 3048 0406 14000000 		.4byte	.LFE12
 3049 040a 0100     		.2byte	0x1
 3050 040c 53       		.byte	0x53
 3051 040d 00000000 		.4byte	0
 3052 0411 00000000 		.4byte	0
 3053              	.LLST33:
 3054 0415 00000000 		.4byte	.LFB14
 3055 0419 04000000 		.4byte	.LCFI7
 3056 041d 0200     		.2byte	0x2
 3057 041f 7D       		.byte	0x7d
 3058 0420 00       		.sleb128 0
 3059 0421 04000000 		.4byte	.LCFI7
 3060 0425 30000000 		.4byte	.LFE14
 3061 0429 0200     		.2byte	0x2
 3062 042b 7D       		.byte	0x7d
 3063 042c 08       		.sleb128 8
 3064 042d 00000000 		.4byte	0
 3065 0431 00000000 		.4byte	0
 3066              	.LLST34:
ARM GAS  /var/folders/dt/0wfd0knj7gs46m8vwfzktm600000gn/T//ccBRR2YJ.s 			page 55


 3067 0435 00000000 		.4byte	.LVL47
 3068 0439 20000000 		.4byte	.LVL48
 3069 043d 0100     		.2byte	0x1
 3070 043f 50       		.byte	0x50
 3071 0440 20000000 		.4byte	.LVL48
 3072 0444 25000000 		.4byte	.LVL49-1
 3073 0448 0300     		.2byte	0x3
 3074 044a 70       		.byte	0x70
 3075 044b 70       		.sleb128 -16
 3076 044c 9F       		.byte	0x9f
 3077 044d 25000000 		.4byte	.LVL49-1
 3078 0451 2A000000 		.4byte	.LVL50
 3079 0455 0400     		.2byte	0x4
 3080 0457 F3       		.byte	0xf3
 3081 0458 01       		.uleb128 0x1
 3082 0459 50       		.byte	0x50
 3083 045a 9F       		.byte	0x9f
 3084 045b 2A000000 		.4byte	.LVL50
 3085 045f 2E000000 		.4byte	.LVL51
 3086 0463 0100     		.2byte	0x1
 3087 0465 50       		.byte	0x50
 3088 0466 2E000000 		.4byte	.LVL51
 3089 046a 30000000 		.4byte	.LFE14
 3090 046e 0400     		.2byte	0x4
 3091 0470 F3       		.byte	0xf3
 3092 0471 01       		.uleb128 0x1
 3093 0472 50       		.byte	0x50
 3094 0473 9F       		.byte	0x9f
 3095 0474 00000000 		.4byte	0
 3096 0478 00000000 		.4byte	0
 3097              	.LLST35:
 3098 047c 00000000 		.4byte	.LVL47
 3099 0480 25000000 		.4byte	.LVL49-1
 3100 0484 0100     		.2byte	0x1
 3101 0486 51       		.byte	0x51
 3102 0487 25000000 		.4byte	.LVL49-1
 3103 048b 2A000000 		.4byte	.LVL50
 3104 048f 0400     		.2byte	0x4
 3105 0491 F3       		.byte	0xf3
 3106 0492 01       		.uleb128 0x1
 3107 0493 51       		.byte	0x51
 3108 0494 9F       		.byte	0x9f
 3109 0495 2A000000 		.4byte	.LVL50
 3110 0499 30000000 		.4byte	.LFE14
 3111 049d 0100     		.2byte	0x1
 3112 049f 51       		.byte	0x51
 3113 04a0 00000000 		.4byte	0
 3114 04a4 00000000 		.4byte	0
 3115              	.LLST36:
 3116 04a8 00000000 		.4byte	.LFB16
 3117 04ac 02000000 		.4byte	.LCFI8
 3118 04b0 0200     		.2byte	0x2
 3119 04b2 7D       		.byte	0x7d
 3120 04b3 00       		.sleb128 0
 3121 04b4 02000000 		.4byte	.LCFI8
 3122 04b8 38000000 		.4byte	.LFE16
 3123 04bc 0200     		.2byte	0x2
ARM GAS  /var/folders/dt/0wfd0knj7gs46m8vwfzktm600000gn/T//ccBRR2YJ.s 			page 56


 3124 04be 7D       		.byte	0x7d
 3125 04bf 10       		.sleb128 16
 3126 04c0 00000000 		.4byte	0
 3127 04c4 00000000 		.4byte	0
 3128              	.LLST37:
 3129 04c8 00000000 		.4byte	.LVL52
 3130 04cc 0A000000 		.4byte	.LVL53
 3131 04d0 0100     		.2byte	0x1
 3132 04d2 50       		.byte	0x50
 3133 04d3 0A000000 		.4byte	.LVL53
 3134 04d7 38000000 		.4byte	.LFE16
 3135 04db 0100     		.2byte	0x1
 3136 04dd 54       		.byte	0x54
 3137 04de 00000000 		.4byte	0
 3138 04e2 00000000 		.4byte	0
 3139              	.LLST38:
 3140 04e6 00000000 		.4byte	.LVL52
 3141 04ea 0C000000 		.4byte	.LVL54
 3142 04ee 0100     		.2byte	0x1
 3143 04f0 51       		.byte	0x51
 3144 04f1 0C000000 		.4byte	.LVL54
 3145 04f5 38000000 		.4byte	.LFE16
 3146 04f9 0100     		.2byte	0x1
 3147 04fb 56       		.byte	0x56
 3148 04fc 00000000 		.4byte	0
 3149 0500 00000000 		.4byte	0
 3150              	.LLST39:
 3151 0504 00000000 		.4byte	.LVL52
 3152 0508 0F000000 		.4byte	.LVL55-1
 3153 050c 0100     		.2byte	0x1
 3154 050e 52       		.byte	0x52
 3155 050f 0F000000 		.4byte	.LVL55-1
 3156 0513 38000000 		.4byte	.LFE16
 3157 0517 0400     		.2byte	0x4
 3158 0519 F3       		.byte	0xf3
 3159 051a 01       		.uleb128 0x1
 3160 051b 52       		.byte	0x52
 3161 051c 9F       		.byte	0x9f
 3162 051d 00000000 		.4byte	0
 3163 0521 00000000 		.4byte	0
 3164              	.LLST40:
 3165 0525 10000000 		.4byte	.LVL55
 3166 0529 20000000 		.4byte	.LVL56
 3167 052d 0100     		.2byte	0x1
 3168 052f 50       		.byte	0x50
 3169 0530 20000000 		.4byte	.LVL56
 3170 0534 38000000 		.4byte	.LFE16
 3171 0538 0100     		.2byte	0x1
 3172 053a 55       		.byte	0x55
 3173 053b 00000000 		.4byte	0
 3174 053f 00000000 		.4byte	0
 3175              	.LLST41:
 3176 0543 00000000 		.4byte	.LFB15
 3177 0547 02000000 		.4byte	.LCFI9
 3178 054b 0200     		.2byte	0x2
 3179 054d 7D       		.byte	0x7d
 3180 054e 00       		.sleb128 0
ARM GAS  /var/folders/dt/0wfd0knj7gs46m8vwfzktm600000gn/T//ccBRR2YJ.s 			page 57


 3181 054f 02000000 		.4byte	.LCFI9
 3182 0553 14000000 		.4byte	.LFE15
 3183 0557 0200     		.2byte	0x2
 3184 0559 7D       		.byte	0x7d
 3185 055a 08       		.sleb128 8
 3186 055b 00000000 		.4byte	0
 3187 055f 00000000 		.4byte	0
 3188              	.LLST42:
 3189 0563 00000000 		.4byte	.LVL59
 3190 0567 0B000000 		.4byte	.LVL62-1
 3191 056b 0100     		.2byte	0x1
 3192 056d 50       		.byte	0x50
 3193 056e 0B000000 		.4byte	.LVL62-1
 3194 0572 14000000 		.4byte	.LFE15
 3195 0576 0400     		.2byte	0x4
 3196 0578 F3       		.byte	0xf3
 3197 0579 01       		.uleb128 0x1
 3198 057a 50       		.byte	0x50
 3199 057b 9F       		.byte	0x9f
 3200 057c 00000000 		.4byte	0
 3201 0580 00000000 		.4byte	0
 3202              	.LLST43:
 3203 0584 00000000 		.4byte	.LVL59
 3204 0588 0B000000 		.4byte	.LVL62-1
 3205 058c 0100     		.2byte	0x1
 3206 058e 51       		.byte	0x51
 3207 058f 0B000000 		.4byte	.LVL62-1
 3208 0593 14000000 		.4byte	.LFE15
 3209 0597 0400     		.2byte	0x4
 3210 0599 F3       		.byte	0xf3
 3211 059a 01       		.uleb128 0x1
 3212 059b 51       		.byte	0x51
 3213 059c 9F       		.byte	0x9f
 3214 059d 00000000 		.4byte	0
 3215 05a1 00000000 		.4byte	0
 3216              	.LLST44:
 3217 05a5 00000000 		.4byte	.LVL59
 3218 05a9 0B000000 		.4byte	.LVL62-1
 3219 05ad 0100     		.2byte	0x1
 3220 05af 52       		.byte	0x52
 3221 05b0 0B000000 		.4byte	.LVL62-1
 3222 05b4 14000000 		.4byte	.LFE15
 3223 05b8 0400     		.2byte	0x4
 3224 05ba F3       		.byte	0xf3
 3225 05bb 01       		.uleb128 0x1
 3226 05bc 52       		.byte	0x52
 3227 05bd 9F       		.byte	0x9f
 3228 05be 00000000 		.4byte	0
 3229 05c2 00000000 		.4byte	0
 3230              	.LLST45:
 3231 05c6 08000000 		.4byte	.LVL61
 3232 05ca 0B000000 		.4byte	.LVL62-1
 3233 05ce 0100     		.2byte	0x1
 3234 05d0 53       		.byte	0x53
 3235 05d1 00000000 		.4byte	0
 3236 05d5 00000000 		.4byte	0
 3237              	.LLST46:
ARM GAS  /var/folders/dt/0wfd0knj7gs46m8vwfzktm600000gn/T//ccBRR2YJ.s 			page 58


 3238 05d9 12000000 		.4byte	.LVL64
 3239 05dd 14000000 		.4byte	.LFE15
 3240 05e1 0100     		.2byte	0x1
 3241 05e3 53       		.byte	0x53
 3242 05e4 00000000 		.4byte	0
 3243 05e8 00000000 		.4byte	0
 3244              	.LLST47:
 3245 05ec 00000000 		.4byte	.LFB17
 3246 05f0 04000000 		.4byte	.LCFI10
 3247 05f4 0200     		.2byte	0x2
 3248 05f6 7D       		.byte	0x7d
 3249 05f7 00       		.sleb128 0
 3250 05f8 04000000 		.4byte	.LCFI10
 3251 05fc 30000000 		.4byte	.LFE17
 3252 0600 0200     		.2byte	0x2
 3253 0602 7D       		.byte	0x7d
 3254 0603 08       		.sleb128 8
 3255 0604 00000000 		.4byte	0
 3256 0608 00000000 		.4byte	0
 3257              	.LLST48:
 3258 060c 00000000 		.4byte	.LVL65
 3259 0610 22000000 		.4byte	.LVL66
 3260 0614 0100     		.2byte	0x1
 3261 0616 50       		.byte	0x50
 3262 0617 22000000 		.4byte	.LVL66
 3263 061b 25000000 		.4byte	.LVL67-1
 3264 061f 0300     		.2byte	0x3
 3265 0621 70       		.byte	0x70
 3266 0622 64       		.sleb128 -28
 3267 0623 9F       		.byte	0x9f
 3268 0624 25000000 		.4byte	.LVL67-1
 3269 0628 2A000000 		.4byte	.LVL68
 3270 062c 0400     		.2byte	0x4
 3271 062e F3       		.byte	0xf3
 3272 062f 01       		.uleb128 0x1
 3273 0630 50       		.byte	0x50
 3274 0631 9F       		.byte	0x9f
 3275 0632 2A000000 		.4byte	.LVL68
 3276 0636 2E000000 		.4byte	.LVL69
 3277 063a 0100     		.2byte	0x1
 3278 063c 50       		.byte	0x50
 3279 063d 2E000000 		.4byte	.LVL69
 3280 0641 30000000 		.4byte	.LFE17
 3281 0645 0400     		.2byte	0x4
 3282 0647 F3       		.byte	0xf3
 3283 0648 01       		.uleb128 0x1
 3284 0649 50       		.byte	0x50
 3285 064a 9F       		.byte	0x9f
 3286 064b 00000000 		.4byte	0
 3287 064f 00000000 		.4byte	0
 3288              	.LLST49:
 3289 0653 00000000 		.4byte	.LVL65
 3290 0657 25000000 		.4byte	.LVL67-1
 3291 065b 0100     		.2byte	0x1
 3292 065d 51       		.byte	0x51
 3293 065e 25000000 		.4byte	.LVL67-1
 3294 0662 2A000000 		.4byte	.LVL68
ARM GAS  /var/folders/dt/0wfd0knj7gs46m8vwfzktm600000gn/T//ccBRR2YJ.s 			page 59


 3295 0666 0400     		.2byte	0x4
 3296 0668 F3       		.byte	0xf3
 3297 0669 01       		.uleb128 0x1
 3298 066a 51       		.byte	0x51
 3299 066b 9F       		.byte	0x9f
 3300 066c 2A000000 		.4byte	.LVL68
 3301 0670 30000000 		.4byte	.LFE17
 3302 0674 0100     		.2byte	0x1
 3303 0676 51       		.byte	0x51
 3304 0677 00000000 		.4byte	0
 3305 067b 00000000 		.4byte	0
 3306              		.section	.debug_aranges,"",%progbits
 3307 0000 6C000000 		.4byte	0x6c
 3308 0004 0200     		.2byte	0x2
 3309 0006 00000000 		.4byte	.Ldebug_info0
 3310 000a 04       		.byte	0x4
 3311 000b 00       		.byte	0
 3312 000c 0000     		.2byte	0
 3313 000e 0000     		.2byte	0
 3314 0010 00000000 		.4byte	.LFB7
 3315 0014 2A000000 		.4byte	.LFE7-.LFB7
 3316 0018 00000000 		.4byte	.LFB8
 3317 001c 34000000 		.4byte	.LFE8-.LFB8
 3318 0020 00000000 		.4byte	.LFB10
 3319 0024 38000000 		.4byte	.LFE10-.LFB10
 3320 0028 00000000 		.4byte	.LFB9
 3321 002c 14000000 		.4byte	.LFE9-.LFB9
 3322 0030 00000000 		.4byte	.LFB11
 3323 0034 2E000000 		.4byte	.LFE11-.LFB11
 3324 0038 00000000 		.4byte	.LFB13
 3325 003c 3A000000 		.4byte	.LFE13-.LFB13
 3326 0040 00000000 		.4byte	.LFB12
 3327 0044 14000000 		.4byte	.LFE12-.LFB12
 3328 0048 00000000 		.4byte	.LFB14
 3329 004c 30000000 		.4byte	.LFE14-.LFB14
 3330 0050 00000000 		.4byte	.LFB16
 3331 0054 38000000 		.4byte	.LFE16-.LFB16
 3332 0058 00000000 		.4byte	.LFB15
 3333 005c 14000000 		.4byte	.LFE15-.LFB15
 3334 0060 00000000 		.4byte	.LFB17
 3335 0064 30000000 		.4byte	.LFE17-.LFB17
 3336 0068 00000000 		.4byte	0
 3337 006c 00000000 		.4byte	0
 3338              		.section	.debug_ranges,"",%progbits
 3339              	.Ldebug_ranges0:
 3340 0000 02000000 		.4byte	.LBB2
 3341 0004 04000000 		.4byte	.LBE2
 3342 0008 06000000 		.4byte	.LBB3
 3343 000c 0A000000 		.4byte	.LBE3
 3344 0010 00000000 		.4byte	0
 3345 0014 00000000 		.4byte	0
 3346 0018 00000000 		.4byte	.LFB7
 3347 001c 2A000000 		.4byte	.LFE7
 3348 0020 00000000 		.4byte	.LFB8
 3349 0024 34000000 		.4byte	.LFE8
 3350 0028 00000000 		.4byte	.LFB10
 3351 002c 38000000 		.4byte	.LFE10
ARM GAS  /var/folders/dt/0wfd0knj7gs46m8vwfzktm600000gn/T//ccBRR2YJ.s 			page 60


 3352 0030 00000000 		.4byte	.LFB9
 3353 0034 14000000 		.4byte	.LFE9
 3354 0038 00000000 		.4byte	.LFB11
 3355 003c 2E000000 		.4byte	.LFE11
 3356 0040 00000000 		.4byte	.LFB13
 3357 0044 3A000000 		.4byte	.LFE13
 3358 0048 00000000 		.4byte	.LFB12
 3359 004c 14000000 		.4byte	.LFE12
 3360 0050 00000000 		.4byte	.LFB14
 3361 0054 30000000 		.4byte	.LFE14
 3362 0058 00000000 		.4byte	.LFB16
 3363 005c 38000000 		.4byte	.LFE16
 3364 0060 00000000 		.4byte	.LFB15
 3365 0064 14000000 		.4byte	.LFE15
 3366 0068 00000000 		.4byte	.LFB17
 3367 006c 30000000 		.4byte	.LFE17
 3368 0070 00000000 		.4byte	0
 3369 0074 00000000 		.4byte	0
 3370              		.section	.debug_line,"",%progbits
 3371              	.Ldebug_line0:
 3372 0000 7F020000 		.section	.debug_str,"MS",%progbits,1
 3372      02004F01 
 3372      00000201 
 3372      FB0E0D00 
 3372      01010101 
 3373              	.LASF34:
 3374 0000 705F6D73 		.ascii	"p_msg\000"
 3374      6700
 3375              	.LASF84:
 3376 0006 63685365 		.ascii	"chSemSignalI\000"
 3376      6D536967 
 3376      6E616C49 
 3376      00
 3377              	.LASF81:
 3378 0013 2F557365 		.ascii	"/Users/toxygen/Projects/UAV/Control_sytem/sw/autopi"
 3378      72732F74 
 3378      6F787967 
 3378      656E2F50 
 3378      726F6A65 
 3379 0046 6C6F742F 		.ascii	"lot/2.4.3/demos/STM32F103-sdspi\000"
 3379      322E342E 
 3379      332F6465 
 3379      6D6F732F 
 3379      53544D33 
 3380              	.LASF59:
 3381 0066 7264796D 		.ascii	"rdymsg\000"
 3381      736700
 3382              	.LASF69:
 3383 006d 63684D42 		.ascii	"chMBPostI\000"
 3383      506F7374 
 3383      4900
 3384              	.LASF67:
 3385 0077 63684D42 		.ascii	"chMBPostS\000"
 3385      506F7374 
 3385      5300
 3386              	.LASF58:
 3387 0081 4D61696C 		.ascii	"Mailbox\000"
ARM GAS  /var/folders/dt/0wfd0knj7gs46m8vwfzktm600000gn/T//ccBRR2YJ.s 			page 61


 3387      626F7800 
 3388              	.LASF72:
 3389 0089 63684D42 		.ascii	"chMBPostAheadI\000"
 3389      506F7374 
 3389      41686561 
 3389      644900
 3390              	.LASF11:
 3391 0098 6C6F6E67 		.ascii	"long long unsigned int\000"
 3391      206C6F6E 
 3391      6720756E 
 3391      7369676E 
 3391      65642069 
 3392              	.LASF60:
 3393 00af 65786974 		.ascii	"exitcode\000"
 3393      636F6465 
 3393      00
 3394              	.LASF70:
 3395 00b8 63684D42 		.ascii	"chMBPostAheadS\000"
 3395      506F7374 
 3395      41686561 
 3395      645300
 3396              	.LASF54:
 3397 00c7 6D625F77 		.ascii	"mb_wrptr\000"
 3397      72707472 
 3397      00
 3398              	.LASF23:
 3399 00d0 705F7072 		.ascii	"p_prio\000"
 3399      696F00
 3400              	.LASF10:
 3401 00d7 6C6F6E67 		.ascii	"long long int\000"
 3401      206C6F6E 
 3401      6720696E 
 3401      7400
 3402              	.LASF1:
 3403 00e5 7369676E 		.ascii	"signed char\000"
 3403      65642063 
 3403      68617200 
 3404              	.LASF38:
 3405 00f1 705F6D70 		.ascii	"p_mpool\000"
 3405      6F6F6C00 
 3406              	.LASF49:
 3407 00f9 6D5F7175 		.ascii	"m_queue\000"
 3407      65756500 
 3408              	.LASF7:
 3409 0101 6C6F6E67 		.ascii	"long int\000"
 3409      20696E74 
 3409      00
 3410              	.LASF13:
 3411 010a 74737461 		.ascii	"tstate_t\000"
 3411      74655F74 
 3411      00
 3412              	.LASF25:
 3413 0113 705F6E65 		.ascii	"p_newer\000"
 3413      77657200 
 3414              	.LASF46:
 3415 011b 735F7175 		.ascii	"s_queue\000"
 3415      65756500 
ARM GAS  /var/folders/dt/0wfd0knj7gs46m8vwfzktm600000gn/T//ccBRR2YJ.s 			page 62


 3416              	.LASF80:
 3417 0123 2E2E2F2E 		.ascii	"../../os/kernel/src/chmboxes.c\000"
 3417      2E2F6F73 
 3417      2F6B6572 
 3417      6E656C2F 
 3417      7372632F 
 3418              	.LASF82:
 3419 0142 63685363 		.ascii	"chSchRescheduleS\000"
 3419      68526573 
 3419      63686564 
 3419      756C6553 
 3419      00
 3420              	.LASF41:
 3421 0153 72656761 		.ascii	"regarm_t\000"
 3421      726D5F74 
 3421      00
 3422              	.LASF19:
 3423 015c 636E745F 		.ascii	"cnt_t\000"
 3423      7400
 3424              	.LASF0:
 3425 0162 756E7369 		.ascii	"unsigned int\000"
 3425      676E6564 
 3425      20696E74 
 3425      00
 3426              	.LASF64:
 3427 016f 63684D42 		.ascii	"chMBInit\000"
 3427      496E6974 
 3427      00
 3428              	.LASF9:
 3429 0178 6C6F6E67 		.ascii	"long unsigned int\000"
 3429      20756E73 
 3429      69676E65 
 3429      6420696E 
 3429      7400
 3430              	.LASF57:
 3431 018a 6D625F65 		.ascii	"mb_emptysem\000"
 3431      6D707479 
 3431      73656D00 
 3432              	.LASF47:
 3433 0196 735F636E 		.ascii	"s_cnt\000"
 3433      7400
 3434              	.LASF43:
 3435 019c 636F6E74 		.ascii	"context\000"
 3435      65787400 
 3436              	.LASF4:
 3437 01a4 73686F72 		.ascii	"short unsigned int\000"
 3437      7420756E 
 3437      7369676E 
 3437      65642069 
 3437      6E7400
 3438              	.LASF76:
 3439 01b7 63684D42 		.ascii	"chMBFetchI\000"
 3439      46657463 
 3439      684900
 3440              	.LASF16:
 3441 01c2 6D73675F 		.ascii	"msg_t\000"
 3441      7400
ARM GAS  /var/folders/dt/0wfd0knj7gs46m8vwfzktm600000gn/T//ccBRR2YJ.s 			page 63


 3442              	.LASF73:
 3443 01c8 63684D42 		.ascii	"chMBFetchS\000"
 3443      46657463 
 3443      685300
 3444              	.LASF12:
 3445 01d3 746D6F64 		.ascii	"tmode_t\000"
 3445      655F7400 
 3446              	.LASF40:
 3447 01db 54687265 		.ascii	"ThreadsList\000"
 3447      6164734C 
 3447      69737400 
 3448              	.LASF17:
 3449 01e7 6576656E 		.ascii	"eventmask_t\000"
 3449      746D6173 
 3449      6B5F7400 
 3450              	.LASF48:
 3451 01f3 4D757465 		.ascii	"Mutex\000"
 3451      7800
 3452              	.LASF74:
 3453 01f9 6D736770 		.ascii	"msgp\000"
 3453      00
 3454              	.LASF44:
 3455 01fe 73697A65 		.ascii	"sizetype\000"
 3455      74797065 
 3455      00
 3456              	.LASF55:
 3457 0207 6D625F72 		.ascii	"mb_rdptr\000"
 3457      64707472 
 3457      00
 3458              	.LASF65:
 3459 0210 63684D42 		.ascii	"chMBReset\000"
 3459      52657365 
 3459      7400
 3460              	.LASF26:
 3461 021a 705F6F6C 		.ascii	"p_older\000"
 3461      64657200 
 3462              	.LASF39:
 3463 0222 54687265 		.ascii	"ThreadsQueue\000"
 3463      61647351 
 3463      75657565 
 3463      00
 3464              	.LASF52:
 3465 022f 6D625F62 		.ascii	"mb_buffer\000"
 3465      75666665 
 3465      7200
 3466              	.LASF66:
 3467 0239 74696D65 		.ascii	"time\000"
 3467      00
 3468              	.LASF79:
 3469 023e 474E5520 		.ascii	"GNU C 4.7.2\000"
 3469      4320342E 
 3469      372E3200 
 3470              	.LASF14:
 3471 024a 74726566 		.ascii	"trefs_t\000"
 3471      735F7400 
 3472              	.LASF22:
 3473 0252 705F7072 		.ascii	"p_prev\000"
ARM GAS  /var/folders/dt/0wfd0knj7gs46m8vwfzktm600000gn/T//ccBRR2YJ.s 			page 64


 3473      657600
 3474              	.LASF15:
 3475 0259 74707269 		.ascii	"tprio_t\000"
 3475      6F5F7400 
 3476              	.LASF6:
 3477 0261 696E7433 		.ascii	"int32_t\000"
 3477      325F7400 
 3478              	.LASF2:
 3479 0269 756E7369 		.ascii	"unsigned char\000"
 3479      676E6564 
 3479      20636861 
 3479      7200
 3480              	.LASF53:
 3481 0277 6D625F74 		.ascii	"mb_top\000"
 3481      6F7000
 3482              	.LASF36:
 3483 027e 705F6D74 		.ascii	"p_mtxlist\000"
 3483      786C6973 
 3483      7400
 3484              	.LASF3:
 3485 0288 73686F72 		.ascii	"short int\000"
 3485      7420696E 
 3485      7400
 3486              	.LASF28:
 3487 0292 705F7374 		.ascii	"p_state\000"
 3487      61746500 
 3488              	.LASF62:
 3489 029a 65776D61 		.ascii	"ewmask\000"
 3489      736B00
 3490              	.LASF21:
 3491 02a1 705F6E65 		.ascii	"p_next\000"
 3491      787400
 3492              	.LASF29:
 3493 02a8 705F666C 		.ascii	"p_flags\000"
 3493      61677300 
 3494              	.LASF68:
 3495 02b0 63684D42 		.ascii	"chMBPost\000"
 3495      506F7374 
 3495      00
 3496              	.LASF20:
 3497 02b9 54687265 		.ascii	"Thread\000"
 3497      616400
 3498              	.LASF35:
 3499 02c0 705F6570 		.ascii	"p_epending\000"
 3499      656E6469 
 3499      6E6700
 3500              	.LASF8:
 3501 02cb 75696E74 		.ascii	"uint32_t\000"
 3501      33325F74 
 3501      00
 3502              	.LASF63:
 3503 02d4 63686172 		.ascii	"char\000"
 3503      00
 3504              	.LASF83:
 3505 02d9 63685365 		.ascii	"chSemWaitTimeoutS\000"
 3505      6D576169 
 3505      7454696D 
ARM GAS  /var/folders/dt/0wfd0knj7gs46m8vwfzktm600000gn/T//ccBRR2YJ.s 			page 65


 3505      656F7574 
 3505      5300
 3506              	.LASF51:
 3507 02eb 6D5F6E65 		.ascii	"m_next\000"
 3507      787400
 3508              	.LASF18:
 3509 02f2 73797374 		.ascii	"systime_t\000"
 3509      696D655F 
 3509      7400
 3510              	.LASF37:
 3511 02fc 705F7265 		.ascii	"p_realprio\000"
 3511      616C7072 
 3511      696F00
 3512              	.LASF31:
 3513 0307 705F7469 		.ascii	"p_time\000"
 3513      6D6500
 3514              	.LASF71:
 3515 030e 63684D42 		.ascii	"chMBPostAhead\000"
 3515      506F7374 
 3515      41686561 
 3515      6400
 3516              	.LASF42:
 3517 031c 696E7463 		.ascii	"intctx\000"
 3517      747800
 3518              	.LASF33:
 3519 0323 705F6D73 		.ascii	"p_msgqueue\000"
 3519      67717565 
 3519      756500
 3520              	.LASF75:
 3521 032e 63684D42 		.ascii	"chMBFetch\000"
 3521      46657463 
 3521      6800
 3522              	.LASF45:
 3523 0338 53656D61 		.ascii	"Semaphore\000"
 3523      70686F72 
 3523      6500
 3524              	.LASF56:
 3525 0342 6D625F66 		.ascii	"mb_fullsem\000"
 3525      756C6C73 
 3525      656D00
 3526              	.LASF30:
 3527 034d 705F7265 		.ascii	"p_refs\000"
 3527      667300
 3528              	.LASF78:
 3529 0354 63685365 		.ascii	"chSemResetI\000"
 3529      6D526573 
 3529      65744900 
 3530              	.LASF5:
 3531 0360 75696E74 		.ascii	"uint8_t\000"
 3531      385F7400 
 3532              	.LASF61:
 3533 0368 77746F62 		.ascii	"wtobjp\000"
 3533      6A7000
 3534              	.LASF27:
 3535 036f 705F6E61 		.ascii	"p_name\000"
 3535      6D6500
 3536              	.LASF50:
ARM GAS  /var/folders/dt/0wfd0knj7gs46m8vwfzktm600000gn/T//ccBRR2YJ.s 			page 66


 3537 0376 6D5F6F77 		.ascii	"m_owner\000"
 3537      6E657200 
 3538              	.LASF24:
 3539 037e 705F6374 		.ascii	"p_ctx\000"
 3539      7800
 3540              	.LASF32:
 3541 0384 705F7761 		.ascii	"p_waiting\000"
 3541      6974696E 
 3541      6700
 3542              	.LASF77:
 3543 038e 63685365 		.ascii	"chSemInit\000"
 3543      6D496E69 
 3543      7400
 3544              		.ident	"GCC: (GNU) 4.7.2"
ARM GAS  /var/folders/dt/0wfd0knj7gs46m8vwfzktm600000gn/T//ccBRR2YJ.s 			page 67


DEFINED SYMBOLS
                            *ABS*:0000000000000000 chmboxes.c
/var/folders/dt/0wfd0knj7gs46m8vwfzktm600000gn/T//ccBRR2YJ.s:19     .text.chMBInit:0000000000000000 $t
/var/folders/dt/0wfd0knj7gs46m8vwfzktm600000gn/T//ccBRR2YJ.s:25     .text.chMBInit:0000000000000000 chMBInit
/var/folders/dt/0wfd0knj7gs46m8vwfzktm600000gn/T//ccBRR2YJ.s:70     .text.chMBReset:0000000000000000 $t
/var/folders/dt/0wfd0knj7gs46m8vwfzktm600000gn/T//ccBRR2YJ.s:76     .text.chMBReset:0000000000000000 chMBReset
/var/folders/dt/0wfd0knj7gs46m8vwfzktm600000gn/T//ccBRR2YJ.s:143    .text.chMBPostS:0000000000000000 $t
/var/folders/dt/0wfd0knj7gs46m8vwfzktm600000gn/T//ccBRR2YJ.s:149    .text.chMBPostS:0000000000000000 chMBPostS
/var/folders/dt/0wfd0knj7gs46m8vwfzktm600000gn/T//ccBRR2YJ.s:209    .text.chMBPost:0000000000000000 $t
/var/folders/dt/0wfd0knj7gs46m8vwfzktm600000gn/T//ccBRR2YJ.s:215    .text.chMBPost:0000000000000000 chMBPost
/var/folders/dt/0wfd0knj7gs46m8vwfzktm600000gn/T//ccBRR2YJ.s:256    .text.chMBPostI:0000000000000000 $t
/var/folders/dt/0wfd0knj7gs46m8vwfzktm600000gn/T//ccBRR2YJ.s:262    .text.chMBPostI:0000000000000000 chMBPostI
/var/folders/dt/0wfd0knj7gs46m8vwfzktm600000gn/T//ccBRR2YJ.s:316    .text.chMBPostAheadS:0000000000000000 $t
/var/folders/dt/0wfd0knj7gs46m8vwfzktm600000gn/T//ccBRR2YJ.s:322    .text.chMBPostAheadS:0000000000000000 chMBPostAheadS
/var/folders/dt/0wfd0knj7gs46m8vwfzktm600000gn/T//ccBRR2YJ.s:383    .text.chMBPostAhead:0000000000000000 $t
/var/folders/dt/0wfd0knj7gs46m8vwfzktm600000gn/T//ccBRR2YJ.s:389    .text.chMBPostAhead:0000000000000000 chMBPostAhead
/var/folders/dt/0wfd0knj7gs46m8vwfzktm600000gn/T//ccBRR2YJ.s:430    .text.chMBPostAheadI:0000000000000000 $t
/var/folders/dt/0wfd0knj7gs46m8vwfzktm600000gn/T//ccBRR2YJ.s:436    .text.chMBPostAheadI:0000000000000000 chMBPostAheadI
/var/folders/dt/0wfd0knj7gs46m8vwfzktm600000gn/T//ccBRR2YJ.s:494    .text.chMBFetchS:0000000000000000 $t
/var/folders/dt/0wfd0knj7gs46m8vwfzktm600000gn/T//ccBRR2YJ.s:500    .text.chMBFetchS:0000000000000000 chMBFetchS
/var/folders/dt/0wfd0knj7gs46m8vwfzktm600000gn/T//ccBRR2YJ.s:559    .text.chMBFetch:0000000000000000 $t
/var/folders/dt/0wfd0knj7gs46m8vwfzktm600000gn/T//ccBRR2YJ.s:565    .text.chMBFetch:0000000000000000 chMBFetch
/var/folders/dt/0wfd0knj7gs46m8vwfzktm600000gn/T//ccBRR2YJ.s:606    .text.chMBFetchI:0000000000000000 $t
/var/folders/dt/0wfd0knj7gs46m8vwfzktm600000gn/T//ccBRR2YJ.s:612    .text.chMBFetchI:0000000000000000 chMBFetchI
                     .debug_frame:0000000000000010 $d

UNDEFINED SYMBOLS
chSemInit
chSemResetI
chSchRescheduleS
chSemWaitTimeoutS
chSemSignalI
