ARM GAS  /var/folders/dt/0wfd0knj7gs46m8vwfzktm600000gn/T//cc4ugqKe.s 			page 1


   1              		.syntax unified
   2              		.cpu cortex-m3
   3              		.fpu softvfp
   4              		.eabi_attribute 20, 1
   5              		.eabi_attribute 21, 1
   6              		.eabi_attribute 23, 3
   7              		.eabi_attribute 24, 1
   8              		.eabi_attribute 25, 1
   9              		.eabi_attribute 26, 1
  10              		.eabi_attribute 30, 2
  11              		.eabi_attribute 34, 1
  12              		.eabi_attribute 18, 4
  13              		.thumb
  14              		.file	"chmsg.c"
  15              		.text
  16              	.Ltext0:
  17              		.cfi_sections	.debug_frame
  18              		.section	.text.chMsgSend,"ax",%progbits
  19              		.align	2
  20              		.p2align 4,,15
  21              		.global	chMsgSend
  22              		.thumb
  23              		.thumb_func
  24              		.type	chMsgSend, %function
  25              	chMsgSend:
  26              	.LFB7:
  27              		.file 1 "../../os/kernel/src/chmsg.c"
  28              		.loc 1 75 0
  29              		.cfi_startproc
  30              		@ args = 0, pretend = 0, frame = 0
  31              		@ frame_needed = 0, uses_anonymous_args = 0
  32              	.LVL0:
  33 0000 70B5     		push	{r4, r5, r6, lr}
  34              	.LCFI0:
  35              		.cfi_def_cfa_offset 16
  36              		.cfi_offset 4, -16
  37              		.cfi_offset 5, -12
  38              		.cfi_offset 6, -8
  39              		.cfi_offset 14, -4
  40              		.loc 1 76 0
  41 0002 0E4B     		ldr	r3, .L5
  42 0004 DC69     		ldr	r4, [r3, #28]
  43              	.LVL1:
  44              	.LBB10:
  45              		.loc 1 80 0
  46 0006 2023     		movs	r3, #32
  47              	.LVL2:
  48              	@ 80 "../../os/kernel/src/chmsg.c" 1
  49 0008 83F31188 		msr     BASEPRI, r3
  50              	@ 0 "" 2
  51              	.LVL3:
  52              		.thumb
  53              	.LBE10:
  54              		.loc 1 82 0
  55 000c 00F12C05 		add	r5, r0, #44
  56 0010 6562     		str	r5, [r4, #36]
  57              	.LVL4:
ARM GAS  /var/folders/dt/0wfd0knj7gs46m8vwfzktm600000gn/T//cc4ugqKe.s 			page 2


  58              		.loc 1 84 0
  59 0012 067F     		ldrb	r6, [r0, #28]	@ zero_extendqisi2
  60              	.LBB11:
  61              	.LBB12:
  62              		.file 2 "../../os/kernel/include/chinline.h"
  63              		.loc 2 55 0
  64 0014 036B     		ldr	r3, [r0, #48]
  65              	.LVL5:
  66              	.LBE12:
  67              	.LBE11:
  68              		.loc 1 84 0
  69 0016 0C2E     		cmp	r6, #12
  70              	.LBB15:
  71              	.LBB13:
  72              		.loc 2 54 0
  73 0018 2560     		str	r5, [r4, #0]
  74              	.LBE13:
  75              	.LBE15:
  76              		.loc 1 81 0
  77 001a 6163     		str	r1, [r4, #52]
  78              	.LBB16:
  79              	.LBB14:
  80              		.loc 2 55 0
  81 001c 6360     		str	r3, [r4, #4]
  82              		.loc 2 56 0
  83 001e 0463     		str	r4, [r0, #48]
  84 0020 1C60     		str	r4, [r3, #0]
  85              	.LBE14:
  86              	.LBE16:
  87              		.loc 1 84 0
  88 0022 07D0     		beq	.L4
  89              	.LVL6:
  90              	.L2:
  91              		.loc 1 86 0
  92 0024 0A20     		movs	r0, #10
  93 0026 FFF7FEFF 		bl	chSchGoSleepS
  94              	.LVL7:
  95              		.loc 1 87 0
  96 002a 606A     		ldr	r0, [r4, #36]
  97              	.LVL8:
  98              	.LBB17:
  99              		.loc 1 88 0
 100 002c 0023     		movs	r3, #0
 101              	.LVL9:
 102              	@ 88 "../../os/kernel/src/chmsg.c" 1
 103 002e 83F31188 		msr     BASEPRI, r3
 104              	@ 0 "" 2
 105              	.LVL10:
 106              		.thumb
 107              	.LBE17:
 108              		.loc 1 90 0
 109 0032 70BD     		pop	{r4, r5, r6, pc}
 110              	.LVL11:
 111              	.L4:
 112              		.loc 1 85 0
 113 0034 FFF7FEFF 		bl	chSchReadyI
 114              	.LVL12:
ARM GAS  /var/folders/dt/0wfd0knj7gs46m8vwfzktm600000gn/T//cc4ugqKe.s 			page 3


 115 0038 F4E7     		b	.L2
 116              	.L6:
 117 003a 00BF     		.align	2
 118              	.L5:
 119 003c 00000000 		.word	rlist
 120              		.cfi_endproc
 121              	.LFE7:
 122              		.size	chMsgSend, .-chMsgSend
 123              		.section	.text.chMsgWait,"ax",%progbits
 124              		.align	2
 125              		.p2align 4,,15
 126              		.global	chMsgWait
 127              		.thumb
 128              		.thumb_func
 129              		.type	chMsgWait, %function
 130              	chMsgWait:
 131              	.LFB8:
 132              		.loc 1 106 0
 133              		.cfi_startproc
 134              		@ args = 0, pretend = 0, frame = 0
 135              		@ frame_needed = 0, uses_anonymous_args = 0
 136 0000 10B5     		push	{r4, lr}
 137              	.LCFI1:
 138              		.cfi_def_cfa_offset 8
 139              		.cfi_offset 4, -8
 140              		.cfi_offset 14, -4
 141              	.LBB18:
 142              		.loc 1 109 0
 143 0002 2023     		movs	r3, #32
 144              	.LVL13:
 145              	@ 109 "../../os/kernel/src/chmsg.c" 1
 146 0004 83F31188 		msr     BASEPRI, r3
 147              	@ 0 "" 2
 148              	.LVL14:
 149              		.thumb
 150              	.LBE18:
 151              		.loc 1 110 0
 152 0008 0B4C     		ldr	r4, .L10
 153 000a E369     		ldr	r3, [r4, #28]
 154              	.LVL15:
 155 000c 1A46     		mov	r2, r3
 156 000e 52F82C0F 		ldr	r0, [r2, #44]!
 157 0012 9042     		cmp	r0, r2
 158 0014 08D0     		beq	.L9
 159              	.L8:
 160              	.LVL16:
 161              	.LBB19:
 162              	.LBB20:
 163              		.loc 2 62 0
 164 0016 0168     		ldr	r1, [r0, #0]
 165 0018 D962     		str	r1, [r3, #44]
 166 001a 4A60     		str	r2, [r1, #4]
 167              	.LBE20:
 168              	.LBE19:
 169              		.loc 1 113 0
 170 001c 0B22     		movs	r2, #11
 171 001e 0277     		strb	r2, [r0, #28]
ARM GAS  /var/folders/dt/0wfd0knj7gs46m8vwfzktm600000gn/T//cc4ugqKe.s 			page 4


 172              	.LBB21:
 173              		.loc 1 114 0
 174 0020 0023     		movs	r3, #0
 175              	.LVL17:
 176              	@ 114 "../../os/kernel/src/chmsg.c" 1
 177 0022 83F31188 		msr     BASEPRI, r3
 178              	@ 0 "" 2
 179              	.LVL18:
 180              		.thumb
 181              	.LBE21:
 182              		.loc 1 116 0
 183 0026 10BD     		pop	{r4, pc}
 184              	.LVL19:
 185              	.L9:
 186              		.loc 1 111 0
 187 0028 0C20     		movs	r0, #12
 188 002a FFF7FEFF 		bl	chSchGoSleepS
 189              	.LVL20:
 190 002e E369     		ldr	r3, [r4, #28]
 191 0030 1A46     		mov	r2, r3
 192 0032 52F82C0F 		ldr	r0, [r2, #44]!
 193 0036 EEE7     		b	.L8
 194              	.L11:
 195              		.align	2
 196              	.L10:
 197 0038 00000000 		.word	rlist
 198              		.cfi_endproc
 199              	.LFE8:
 200              		.size	chMsgWait, .-chMsgWait
 201 003c AFF30080 		.section	.text.chMsgRelease,"ax",%progbits
 202              		.align	2
 203              		.p2align 4,,15
 204              		.global	chMsgRelease
 205              		.thumb
 206              		.thumb_func
 207              		.type	chMsgRelease, %function
 208              	chMsgRelease:
 209              	.LFB9:
 210              		.loc 1 128 0
 211              		.cfi_startproc
 212              		@ args = 0, pretend = 0, frame = 0
 213              		@ frame_needed = 0, uses_anonymous_args = 0
 214              	.LVL21:
 215 0000 08B5     		push	{r3, lr}
 216              	.LCFI2:
 217              		.cfi_def_cfa_offset 8
 218              		.cfi_offset 3, -8
 219              		.cfi_offset 14, -4
 220              	.LBB22:
 221              		.loc 1 130 0
 222 0002 2023     		movs	r3, #32
 223              	.LVL22:
 224              	@ 130 "../../os/kernel/src/chmsg.c" 1
 225 0004 83F31188 		msr     BASEPRI, r3
 226              	@ 0 "" 2
 227              	.LVL23:
 228              		.thumb
ARM GAS  /var/folders/dt/0wfd0knj7gs46m8vwfzktm600000gn/T//cc4ugqKe.s 			page 5


 229              	.LBE22:
 230              		.loc 1 133 0
 231 0008 FFF7FEFF 		bl	chSchWakeupS
 232              	.LVL24:
 233              	.LBB23:
 234              		.loc 1 134 0
 235 000c 0023     		movs	r3, #0
 236              	.LVL25:
 237              	@ 134 "../../os/kernel/src/chmsg.c" 1
 238 000e 83F31188 		msr     BASEPRI, r3
 239              	@ 0 "" 2
 240              	.LVL26:
 241              		.thumb
 242 0012 08BD     		pop	{r3, pc}
 243              	.LBE23:
 244              		.cfi_endproc
 245              	.LFE9:
 246              		.size	chMsgRelease, .-chMsgRelease
 247 0014 AFF30080 		.text
 247      AFF30080 
 247      AFF30080 
 248              	.Letext0:
 249              		.file 3 "/Users/toxygen/Applications/yagarto-4.7.2/bin/../lib/gcc/arm-none-eabi/4.7.2/../../../../
 250              		.file 4 "../../os/ports/GCC/ARMCMx/chtypes.h"
 251              		.file 5 "../../os/kernel/include/chlists.h"
 252              		.file 6 "../../os/kernel/include/chthreads.h"
 253              		.file 7 "../../os/ports/GCC/ARMCMx/chcore_v7m.h"
 254              		.file 8 "../../os/kernel/include/chschd.h"
 255              		.file 9 "../../os/kernel/include/chmtx.h"
 256              		.section	.debug_info,"",%progbits
 257              	.Ldebug_info0:
 258 0000 BE060000 		.4byte	0x6be
 259 0004 0200     		.2byte	0x2
 260 0006 00000000 		.4byte	.Ldebug_abbrev0
 261 000a 04       		.byte	0x4
 262 000b 01       		.uleb128 0x1
 263 000c 83010000 		.4byte	.LASF64
 264 0010 01       		.byte	0x1
 265 0011 DB020000 		.4byte	.LASF65
 266 0015 13000000 		.4byte	.LASF66
 267 0019 20000000 		.4byte	.Ldebug_ranges0+0x20
 268 001d 00000000 		.4byte	0
 269 0021 00000000 		.4byte	0
 270 0025 00000000 		.4byte	.Ldebug_line0
 271 0029 02       		.uleb128 0x2
 272 002a 04       		.byte	0x4
 273 002b 05       		.byte	0x5
 274 002c 696E7400 		.ascii	"int\000"
 275 0030 03       		.uleb128 0x3
 276 0031 04       		.byte	0x4
 277 0032 07       		.byte	0x7
 278 0033 F9000000 		.4byte	.LASF0
 279 0037 03       		.uleb128 0x3
 280 0038 01       		.byte	0x1
 281 0039 06       		.byte	0x6
 282 003a A2000000 		.4byte	.LASF1
 283 003e 04       		.uleb128 0x4
ARM GAS  /var/folders/dt/0wfd0knj7gs46m8vwfzktm600000gn/T//cc4ugqKe.s 			page 6


 284 003f C5020000 		.4byte	.LASF5
 285 0043 03       		.byte	0x3
 286 0044 2A       		.byte	0x2a
 287 0045 49000000 		.4byte	0x49
 288 0049 03       		.uleb128 0x3
 289 004a 01       		.byte	0x1
 290 004b 08       		.byte	0x8
 291 004c C0010000 		.4byte	.LASF2
 292 0050 03       		.uleb128 0x3
 293 0051 02       		.byte	0x2
 294 0052 05       		.byte	0x5
 295 0053 D8010000 		.4byte	.LASF3
 296 0057 03       		.uleb128 0x3
 297 0058 02       		.byte	0x2
 298 0059 07       		.byte	0x7
 299 005a 20010000 		.4byte	.LASF4
 300 005e 04       		.uleb128 0x4
 301 005f B8010000 		.4byte	.LASF6
 302 0063 03       		.byte	0x3
 303 0064 4F       		.byte	0x4f
 304 0065 69000000 		.4byte	0x69
 305 0069 03       		.uleb128 0x3
 306 006a 04       		.byte	0x4
 307 006b 05       		.byte	0x5
 308 006c BE000000 		.4byte	.LASF7
 309 0070 04       		.uleb128 0x4
 310 0071 34020000 		.4byte	.LASF8
 311 0075 03       		.byte	0x3
 312 0076 50       		.byte	0x50
 313 0077 7B000000 		.4byte	0x7b
 314 007b 03       		.uleb128 0x3
 315 007c 04       		.byte	0x4
 316 007d 07       		.byte	0x7
 317 007e 06010000 		.4byte	.LASF9
 318 0082 03       		.uleb128 0x3
 319 0083 08       		.byte	0x8
 320 0084 05       		.byte	0x5
 321 0085 94000000 		.4byte	.LASF10
 322 0089 03       		.uleb128 0x3
 323 008a 08       		.byte	0x8
 324 008b 07       		.byte	0x7
 325 008c 6D000000 		.4byte	.LASF11
 326 0090 04       		.uleb128 0x4
 327 0091 39010000 		.4byte	.LASF12
 328 0095 04       		.byte	0x4
 329 0096 2F       		.byte	0x2f
 330 0097 3E000000 		.4byte	0x3e
 331 009b 04       		.uleb128 0x4
 332 009c D1000000 		.4byte	.LASF13
 333 00a0 04       		.byte	0x4
 334 00a1 30       		.byte	0x30
 335 00a2 3E000000 		.4byte	0x3e
 336 00a6 04       		.uleb128 0x4
 337 00a7 A1010000 		.4byte	.LASF14
 338 00ab 04       		.byte	0x4
 339 00ac 31       		.byte	0x31
 340 00ad 3E000000 		.4byte	0x3e
ARM GAS  /var/folders/dt/0wfd0knj7gs46m8vwfzktm600000gn/T//cc4ugqKe.s 			page 7


 341 00b1 04       		.uleb128 0x4
 342 00b2 B0010000 		.4byte	.LASF15
 343 00b6 04       		.byte	0x4
 344 00b7 32       		.byte	0x32
 345 00b8 70000000 		.4byte	0x70
 346 00bc 04       		.uleb128 0x4
 347 00bd 33010000 		.4byte	.LASF16
 348 00c1 04       		.byte	0x4
 349 00c2 33       		.byte	0x33
 350 00c3 5E000000 		.4byte	0x5e
 351 00c7 04       		.uleb128 0x4
 352 00c8 4D010000 		.4byte	.LASF17
 353 00cc 04       		.byte	0x4
 354 00cd 35       		.byte	0x35
 355 00ce 70000000 		.4byte	0x70
 356 00d2 04       		.uleb128 0x4
 357 00d3 69020000 		.4byte	.LASF18
 358 00d7 04       		.byte	0x4
 359 00d8 36       		.byte	0x36
 360 00d9 70000000 		.4byte	0x70
 361 00dd 04       		.uleb128 0x4
 362 00de F3000000 		.4byte	.LASF19
 363 00e2 04       		.byte	0x4
 364 00e3 37       		.byte	0x37
 365 00e4 5E000000 		.4byte	0x5e
 366 00e8 04       		.uleb128 0x4
 367 00e9 07020000 		.4byte	.LASF20
 368 00ed 05       		.byte	0x5
 369 00ee 2A       		.byte	0x2a
 370 00ef F3000000 		.4byte	0xf3
 371 00f3 05       		.uleb128 0x5
 372 00f4 07020000 		.4byte	.LASF20
 373 00f8 48       		.byte	0x48
 374 00f9 06       		.byte	0x6
 375 00fa 5E       		.byte	0x5e
 376 00fb 0A020000 		.4byte	0x20a
 377 00ff 06       		.uleb128 0x6
 378 0100 F8010000 		.4byte	.LASF21
 379 0104 06       		.byte	0x6
 380 0105 5F       		.byte	0x5f
 381 0106 2F020000 		.4byte	0x22f
 382 010a 02       		.byte	0x2
 383 010b 23       		.byte	0x23
 384 010c 00       		.uleb128 0
 385 010d 06       		.uleb128 0x6
 386 010e A9010000 		.4byte	.LASF22
 387 0112 06       		.byte	0x6
 388 0113 61       		.byte	0x61
 389 0114 2F020000 		.4byte	0x22f
 390 0118 02       		.byte	0x2
 391 0119 23       		.byte	0x23
 392 011a 04       		.uleb128 0x4
 393 011b 06       		.uleb128 0x6
 394 011c 8D000000 		.4byte	.LASF23
 395 0120 06       		.byte	0x6
 396 0121 63       		.byte	0x63
 397 0122 B1000000 		.4byte	0xb1
ARM GAS  /var/folders/dt/0wfd0knj7gs46m8vwfzktm600000gn/T//cc4ugqKe.s 			page 8


 398 0126 02       		.byte	0x2
 399 0127 23       		.byte	0x23
 400 0128 08       		.uleb128 0x8
 401 0129 06       		.uleb128 0x6
 402 012a 09030000 		.4byte	.LASF24
 403 012e 06       		.byte	0x6
 404 012f 64       		.byte	0x64
 405 0130 FC020000 		.4byte	0x2fc
 406 0134 02       		.byte	0x2
 407 0135 23       		.byte	0x23
 408 0136 0C       		.uleb128 0xc
 409 0137 06       		.uleb128 0x6
 410 0138 DA000000 		.4byte	.LASF25
 411 013c 06       		.byte	0x6
 412 013d 66       		.byte	0x66
 413 013e 2F020000 		.4byte	0x22f
 414 0142 02       		.byte	0x2
 415 0143 23       		.byte	0x23
 416 0144 10       		.uleb128 0x10
 417 0145 06       		.uleb128 0x6
 418 0146 68010000 		.4byte	.LASF26
 419 014a 06       		.byte	0x6
 420 014b 67       		.byte	0x67
 421 014c 2F020000 		.4byte	0x22f
 422 0150 02       		.byte	0x2
 423 0151 23       		.byte	0x23
 424 0152 14       		.uleb128 0x14
 425 0153 06       		.uleb128 0x6
 426 0154 D4020000 		.4byte	.LASF27
 427 0158 06       		.byte	0x6
 428 0159 6E       		.byte	0x6e
 429 015a 1E040000 		.4byte	0x41e
 430 015e 02       		.byte	0x2
 431 015f 23       		.byte	0x23
 432 0160 18       		.uleb128 0x18
 433 0161 06       		.uleb128 0x6
 434 0162 E2010000 		.4byte	.LASF28
 435 0166 06       		.byte	0x6
 436 0167 79       		.byte	0x79
 437 0168 9B000000 		.4byte	0x9b
 438 016c 02       		.byte	0x2
 439 016d 23       		.byte	0x23
 440 016e 1C       		.uleb128 0x1c
 441 016f 06       		.uleb128 0x6
 442 0170 FF010000 		.4byte	.LASF29
 443 0174 06       		.byte	0x6
 444 0175 7D       		.byte	0x7d
 445 0176 90000000 		.4byte	0x90
 446 017a 02       		.byte	0x2
 447 017b 23       		.byte	0x23
 448 017c 1D       		.uleb128 0x1d
 449 017d 06       		.uleb128 0x6
 450 017e AE020000 		.4byte	.LASF30
 451 0182 06       		.byte	0x6
 452 0183 82       		.byte	0x82
 453 0184 A6000000 		.4byte	0xa6
 454 0188 02       		.byte	0x2
ARM GAS  /var/folders/dt/0wfd0knj7gs46m8vwfzktm600000gn/T//cc4ugqKe.s 			page 9


 455 0189 23       		.byte	0x23
 456 018a 1E       		.uleb128 0x1e
 457 018b 06       		.uleb128 0x6
 458 018c 7E020000 		.4byte	.LASF31
 459 0190 06       		.byte	0x6
 460 0191 89       		.byte	0x89
 461 0192 26030000 		.4byte	0x326
 462 0196 02       		.byte	0x2
 463 0197 23       		.byte	0x23
 464 0198 20       		.uleb128 0x20
 465 0199 07       		.uleb128 0x7
 466 019a 705F7500 		.ascii	"p_u\000"
 467 019e 06       		.byte	0x6
 468 019f AE       		.byte	0xae
 469 01a0 E9030000 		.4byte	0x3e9
 470 01a4 02       		.byte	0x2
 471 01a5 23       		.byte	0x23
 472 01a6 24       		.uleb128 0x24
 473 01a7 06       		.uleb128 0x6
 474 01a8 0F030000 		.4byte	.LASF32
 475 01ac 06       		.byte	0x6
 476 01ad B3       		.byte	0xb3
 477 01ae 57020000 		.4byte	0x257
 478 01b2 02       		.byte	0x2
 479 01b3 23       		.byte	0x23
 480 01b4 28       		.uleb128 0x28
 481 01b5 06       		.uleb128 0x6
 482 01b6 8C020000 		.4byte	.LASF33
 483 01ba 06       		.byte	0x6
 484 01bb B9       		.byte	0xb9
 485 01bc 35020000 		.4byte	0x235
 486 01c0 02       		.byte	0x2
 487 01c1 23       		.byte	0x23
 488 01c2 2C       		.uleb128 0x2c
 489 01c3 06       		.uleb128 0x6
 490 01c4 00000000 		.4byte	.LASF34
 491 01c8 06       		.byte	0x6
 492 01c9 BD       		.byte	0xbd
 493 01ca BC000000 		.4byte	0xbc
 494 01ce 02       		.byte	0x2
 495 01cf 23       		.byte	0x23
 496 01d0 34       		.uleb128 0x34
 497 01d1 06       		.uleb128 0x6
 498 01d2 29020000 		.4byte	.LASF35
 499 01d6 06       		.byte	0x6
 500 01d7 C3       		.byte	0xc3
 501 01d8 C7000000 		.4byte	0xc7
 502 01dc 02       		.byte	0x2
 503 01dd 23       		.byte	0x23
 504 01de 38       		.uleb128 0x38
 505 01df 06       		.uleb128 0x6
 506 01e0 CE010000 		.4byte	.LASF36
 507 01e4 06       		.byte	0x6
 508 01e5 CA       		.byte	0xca
 509 01e6 30040000 		.4byte	0x430
 510 01ea 02       		.byte	0x2
 511 01eb 23       		.byte	0x23
ARM GAS  /var/folders/dt/0wfd0knj7gs46m8vwfzktm600000gn/T//cc4ugqKe.s 			page 10


 512 01ec 3C       		.uleb128 0x3c
 513 01ed 06       		.uleb128 0x6
 514 01ee 73020000 		.4byte	.LASF37
 515 01f2 06       		.byte	0x6
 516 01f3 CE       		.byte	0xce
 517 01f4 B1000000 		.4byte	0xb1
 518 01f8 02       		.byte	0x2
 519 01f9 23       		.byte	0x23
 520 01fa 40       		.uleb128 0x40
 521 01fb 06       		.uleb128 0x6
 522 01fc AE000000 		.4byte	.LASF38
 523 0200 06       		.byte	0x6
 524 0201 D4       		.byte	0xd4
 525 0202 6D020000 		.4byte	0x26d
 526 0206 02       		.byte	0x2
 527 0207 23       		.byte	0x23
 528 0208 44       		.uleb128 0x44
 529 0209 00       		.byte	0
 530 020a 08       		.uleb128 0x8
 531 020b 08       		.byte	0x8
 532 020c 05       		.byte	0x5
 533 020d 61       		.byte	0x61
 534 020e 2F020000 		.4byte	0x22f
 535 0212 06       		.uleb128 0x6
 536 0213 F8010000 		.4byte	.LASF21
 537 0217 05       		.byte	0x5
 538 0218 62       		.byte	0x62
 539 0219 2F020000 		.4byte	0x22f
 540 021d 02       		.byte	0x2
 541 021e 23       		.byte	0x23
 542 021f 00       		.uleb128 0
 543 0220 06       		.uleb128 0x6
 544 0221 A9010000 		.4byte	.LASF22
 545 0225 05       		.byte	0x5
 546 0226 64       		.byte	0x64
 547 0227 2F020000 		.4byte	0x22f
 548 022b 02       		.byte	0x2
 549 022c 23       		.byte	0x23
 550 022d 04       		.uleb128 0x4
 551 022e 00       		.byte	0
 552 022f 09       		.uleb128 0x9
 553 0230 04       		.byte	0x4
 554 0231 E8000000 		.4byte	0xe8
 555 0235 04       		.uleb128 0x4
 556 0236 76010000 		.4byte	.LASF39
 557 023a 05       		.byte	0x5
 558 023b 66       		.byte	0x66
 559 023c 0A020000 		.4byte	0x20a
 560 0240 08       		.uleb128 0x8
 561 0241 04       		.byte	0x4
 562 0242 05       		.byte	0x5
 563 0243 6B       		.byte	0x6b
 564 0244 57020000 		.4byte	0x257
 565 0248 06       		.uleb128 0x6
 566 0249 F8010000 		.4byte	.LASF21
 567 024d 05       		.byte	0x5
 568 024e 6D       		.byte	0x6d
ARM GAS  /var/folders/dt/0wfd0knj7gs46m8vwfzktm600000gn/T//cc4ugqKe.s 			page 11


 569 024f 2F020000 		.4byte	0x22f
 570 0253 02       		.byte	0x2
 571 0254 23       		.byte	0x23
 572 0255 00       		.uleb128 0
 573 0256 00       		.byte	0
 574 0257 04       		.uleb128 0x4
 575 0258 41010000 		.4byte	.LASF40
 576 025c 05       		.byte	0x5
 577 025d 70       		.byte	0x70
 578 025e 40020000 		.4byte	0x240
 579 0262 04       		.uleb128 0x4
 580 0263 EA000000 		.4byte	.LASF41
 581 0267 07       		.byte	0x7
 582 0268 D7       		.byte	0xd7
 583 0269 6D020000 		.4byte	0x26d
 584 026d 0A       		.uleb128 0xa
 585 026e 04       		.byte	0x4
 586 026f 05       		.uleb128 0x5
 587 0270 85020000 		.4byte	.LASF42
 588 0274 24       		.byte	0x24
 589 0275 07       		.byte	0x7
 590 0276 FE       		.byte	0xfe
 591 0277 FC020000 		.4byte	0x2fc
 592 027b 0B       		.uleb128 0xb
 593 027c 723400   		.ascii	"r4\000"
 594 027f 07       		.byte	0x7
 595 0280 1101     		.2byte	0x111
 596 0282 62020000 		.4byte	0x262
 597 0286 02       		.byte	0x2
 598 0287 23       		.byte	0x23
 599 0288 00       		.uleb128 0
 600 0289 0B       		.uleb128 0xb
 601 028a 723500   		.ascii	"r5\000"
 602 028d 07       		.byte	0x7
 603 028e 1201     		.2byte	0x112
 604 0290 62020000 		.4byte	0x262
 605 0294 02       		.byte	0x2
 606 0295 23       		.byte	0x23
 607 0296 04       		.uleb128 0x4
 608 0297 0B       		.uleb128 0xb
 609 0298 723600   		.ascii	"r6\000"
 610 029b 07       		.byte	0x7
 611 029c 1301     		.2byte	0x113
 612 029e 62020000 		.4byte	0x262
 613 02a2 02       		.byte	0x2
 614 02a3 23       		.byte	0x23
 615 02a4 08       		.uleb128 0x8
 616 02a5 0B       		.uleb128 0xb
 617 02a6 723700   		.ascii	"r7\000"
 618 02a9 07       		.byte	0x7
 619 02aa 1401     		.2byte	0x114
 620 02ac 62020000 		.4byte	0x262
 621 02b0 02       		.byte	0x2
 622 02b1 23       		.byte	0x23
 623 02b2 0C       		.uleb128 0xc
 624 02b3 0B       		.uleb128 0xb
 625 02b4 723800   		.ascii	"r8\000"
ARM GAS  /var/folders/dt/0wfd0knj7gs46m8vwfzktm600000gn/T//cc4ugqKe.s 			page 12


 626 02b7 07       		.byte	0x7
 627 02b8 1501     		.2byte	0x115
 628 02ba 62020000 		.4byte	0x262
 629 02be 02       		.byte	0x2
 630 02bf 23       		.byte	0x23
 631 02c0 10       		.uleb128 0x10
 632 02c1 0B       		.uleb128 0xb
 633 02c2 723900   		.ascii	"r9\000"
 634 02c5 07       		.byte	0x7
 635 02c6 1601     		.2byte	0x116
 636 02c8 62020000 		.4byte	0x262
 637 02cc 02       		.byte	0x2
 638 02cd 23       		.byte	0x23
 639 02ce 14       		.uleb128 0x14
 640 02cf 0B       		.uleb128 0xb
 641 02d0 72313000 		.ascii	"r10\000"
 642 02d4 07       		.byte	0x7
 643 02d5 1701     		.2byte	0x117
 644 02d7 62020000 		.4byte	0x262
 645 02db 02       		.byte	0x2
 646 02dc 23       		.byte	0x23
 647 02dd 18       		.uleb128 0x18
 648 02de 0B       		.uleb128 0xb
 649 02df 72313100 		.ascii	"r11\000"
 650 02e3 07       		.byte	0x7
 651 02e4 1801     		.2byte	0x118
 652 02e6 62020000 		.4byte	0x262
 653 02ea 02       		.byte	0x2
 654 02eb 23       		.byte	0x23
 655 02ec 1C       		.uleb128 0x1c
 656 02ed 0B       		.uleb128 0xb
 657 02ee 6C7200   		.ascii	"lr\000"
 658 02f1 07       		.byte	0x7
 659 02f2 1901     		.2byte	0x119
 660 02f4 62020000 		.4byte	0x262
 661 02f8 02       		.byte	0x2
 662 02f9 23       		.byte	0x23
 663 02fa 20       		.uleb128 0x20
 664 02fb 00       		.byte	0
 665 02fc 0C       		.uleb128 0xc
 666 02fd 18010000 		.4byte	.LASF43
 667 0301 04       		.byte	0x4
 668 0302 07       		.byte	0x7
 669 0303 2301     		.2byte	0x123
 670 0305 19030000 		.4byte	0x319
 671 0309 0B       		.uleb128 0xb
 672 030a 72313300 		.ascii	"r13\000"
 673 030e 07       		.byte	0x7
 674 030f 2401     		.2byte	0x124
 675 0311 19030000 		.4byte	0x319
 676 0315 02       		.byte	0x2
 677 0316 23       		.byte	0x23
 678 0317 00       		.uleb128 0
 679 0318 00       		.byte	0
 680 0319 09       		.uleb128 0x9
 681 031a 04       		.byte	0x4
 682 031b 6F020000 		.4byte	0x26f
ARM GAS  /var/folders/dt/0wfd0knj7gs46m8vwfzktm600000gn/T//cc4ugqKe.s 			page 13


 683 031f 03       		.uleb128 0x3
 684 0320 04       		.byte	0x4
 685 0321 07       		.byte	0x7
 686 0322 5F010000 		.4byte	.LASF44
 687 0326 0D       		.uleb128 0xd
 688 0327 D2000000 		.4byte	0xd2
 689 032b 08       		.uleb128 0x8
 690 032c 20       		.byte	0x20
 691 032d 08       		.byte	0x8
 692 032e 5E       		.byte	0x5e
 693 032f 96030000 		.4byte	0x396
 694 0333 06       		.uleb128 0x6
 695 0334 3D020000 		.4byte	.LASF45
 696 0338 08       		.byte	0x8
 697 0339 5F       		.byte	0x5f
 698 033a 35020000 		.4byte	0x235
 699 033e 02       		.byte	0x2
 700 033f 23       		.byte	0x23
 701 0340 00       		.uleb128 0
 702 0341 06       		.uleb128 0x6
 703 0342 EA010000 		.4byte	.LASF46
 704 0346 08       		.byte	0x8
 705 0347 60       		.byte	0x60
 706 0348 B1000000 		.4byte	0xb1
 707 034c 02       		.byte	0x2
 708 034d 23       		.byte	0x23
 709 034e 08       		.uleb128 0x8
 710 034f 06       		.uleb128 0x6
 711 0350 70010000 		.4byte	.LASF47
 712 0354 08       		.byte	0x8
 713 0355 62       		.byte	0x62
 714 0356 FC020000 		.4byte	0x2fc
 715 035a 02       		.byte	0x2
 716 035b 23       		.byte	0x23
 717 035c 0C       		.uleb128 0xc
 718 035d 06       		.uleb128 0x6
 719 035e E2000000 		.4byte	.LASF48
 720 0362 08       		.byte	0x8
 721 0363 65       		.byte	0x65
 722 0364 2F020000 		.4byte	0x22f
 723 0368 02       		.byte	0x2
 724 0369 23       		.byte	0x23
 725 036a 10       		.uleb128 0x10
 726 036b 06       		.uleb128 0x6
 727 036c 99010000 		.4byte	.LASF49
 728 0370 08       		.byte	0x8
 729 0371 66       		.byte	0x66
 730 0372 2F020000 		.4byte	0x22f
 731 0376 02       		.byte	0x2
 732 0377 23       		.byte	0x23
 733 0378 14       		.uleb128 0x14
 734 0379 06       		.uleb128 0x6
 735 037a F7020000 		.4byte	.LASF50
 736 037e 08       		.byte	0x8
 737 037f 6A       		.byte	0x6a
 738 0380 DD000000 		.4byte	0xdd
 739 0384 02       		.byte	0x2
ARM GAS  /var/folders/dt/0wfd0knj7gs46m8vwfzktm600000gn/T//cc4ugqKe.s 			page 14


 740 0385 23       		.byte	0x23
 741 0386 18       		.uleb128 0x18
 742 0387 06       		.uleb128 0x6
 743 0388 8F010000 		.4byte	.LASF51
 744 038c 08       		.byte	0x8
 745 038d 6C       		.byte	0x6c
 746 038e 2F020000 		.4byte	0x22f
 747 0392 02       		.byte	0x2
 748 0393 23       		.byte	0x23
 749 0394 1C       		.uleb128 0x1c
 750 0395 00       		.byte	0
 751 0396 04       		.uleb128 0x4
 752 0397 B5020000 		.4byte	.LASF52
 753 039b 08       		.byte	0x8
 754 039c 6E       		.byte	0x6e
 755 039d 2B030000 		.4byte	0x32b
 756 03a1 05       		.uleb128 0x5
 757 03a2 59010000 		.4byte	.LASF53
 758 03a6 10       		.byte	0x10
 759 03a7 09       		.byte	0x9
 760 03a8 2C       		.byte	0x2c
 761 03a9 D8030000 		.4byte	0x3d8
 762 03ad 06       		.uleb128 0x6
 763 03ae B6000000 		.4byte	.LASF54
 764 03b2 09       		.byte	0x9
 765 03b3 2D       		.byte	0x2d
 766 03b4 35020000 		.4byte	0x235
 767 03b8 02       		.byte	0x2
 768 03b9 23       		.byte	0x23
 769 03ba 00       		.uleb128 0
 770 03bb 06       		.uleb128 0x6
 771 03bc 01030000 		.4byte	.LASF55
 772 03c0 09       		.byte	0x9
 773 03c1 2F       		.byte	0x2f
 774 03c2 2F020000 		.4byte	0x22f
 775 03c6 02       		.byte	0x2
 776 03c7 23       		.byte	0x23
 777 03c8 08       		.uleb128 0x8
 778 03c9 06       		.uleb128 0x6
 779 03ca 62020000 		.4byte	.LASF56
 780 03ce 09       		.byte	0x9
 781 03cf 31       		.byte	0x31
 782 03d0 D8030000 		.4byte	0x3d8
 783 03d4 02       		.byte	0x2
 784 03d5 23       		.byte	0x23
 785 03d6 0C       		.uleb128 0xc
 786 03d7 00       		.byte	0
 787 03d8 09       		.uleb128 0x9
 788 03d9 04       		.byte	0x4
 789 03da A1030000 		.4byte	0x3a1
 790 03de 04       		.uleb128 0x4
 791 03df 59010000 		.4byte	.LASF53
 792 03e3 09       		.byte	0x9
 793 03e4 33       		.byte	0x33
 794 03e5 A1030000 		.4byte	0x3a1
 795 03e9 0E       		.uleb128 0xe
 796 03ea 04       		.byte	0x4
ARM GAS  /var/folders/dt/0wfd0knj7gs46m8vwfzktm600000gn/T//cc4ugqKe.s 			page 15


 797 03eb 06       		.byte	0x6
 798 03ec 90       		.byte	0x90
 799 03ed 1E040000 		.4byte	0x41e
 800 03f1 0F       		.uleb128 0xf
 801 03f2 66000000 		.4byte	.LASF57
 802 03f6 06       		.byte	0x6
 803 03f7 97       		.byte	0x97
 804 03f8 BC000000 		.4byte	0xbc
 805 03fc 0F       		.uleb128 0xf
 806 03fd 84000000 		.4byte	.LASF58
 807 0401 06       		.byte	0x6
 808 0402 9E       		.byte	0x9e
 809 0403 BC000000 		.4byte	0xbc
 810 0407 0F       		.uleb128 0xf
 811 0408 CD020000 		.4byte	.LASF59
 812 040c 06       		.byte	0x6
 813 040d A5       		.byte	0xa5
 814 040e 6D020000 		.4byte	0x26d
 815 0412 0F       		.uleb128 0xf
 816 0413 F1010000 		.4byte	.LASF60
 817 0417 06       		.byte	0x6
 818 0418 AC       		.byte	0xac
 819 0419 C7000000 		.4byte	0xc7
 820 041d 00       		.byte	0
 821 041e 09       		.uleb128 0x9
 822 041f 04       		.byte	0x4
 823 0420 24040000 		.4byte	0x424
 824 0424 10       		.uleb128 0x10
 825 0425 29040000 		.4byte	0x429
 826 0429 03       		.uleb128 0x3
 827 042a 01       		.byte	0x1
 828 042b 08       		.byte	0x8
 829 042c 51020000 		.4byte	.LASF61
 830 0430 09       		.uleb128 0x9
 831 0431 04       		.byte	0x4
 832 0432 DE030000 		.4byte	0x3de
 833 0436 11       		.uleb128 0x11
 834 0437 06000000 		.4byte	.LASF67
 835 043b 02       		.byte	0x2
 836 043c 34       		.byte	0x34
 837 043d 01       		.byte	0x1
 838 043e 03       		.byte	0x3
 839 043f 59040000 		.4byte	0x459
 840 0443 12       		.uleb128 0x12
 841 0444 747000   		.ascii	"tp\000"
 842 0447 02       		.byte	0x2
 843 0448 34       		.byte	0x34
 844 0449 2F020000 		.4byte	0x22f
 845 044d 12       		.uleb128 0x12
 846 044e 74717000 		.ascii	"tqp\000"
 847 0452 02       		.byte	0x2
 848 0453 34       		.byte	0x34
 849 0454 59040000 		.4byte	0x459
 850 0458 00       		.byte	0
 851 0459 09       		.uleb128 0x9
 852 045a 04       		.byte	0x4
 853 045b 35020000 		.4byte	0x235
ARM GAS  /var/folders/dt/0wfd0knj7gs46m8vwfzktm600000gn/T//cc4ugqKe.s 			page 16


 854 045f 13       		.uleb128 0x13
 855 0460 56020000 		.4byte	.LASF68
 856 0464 02       		.byte	0x2
 857 0465 3B       		.byte	0x3b
 858 0466 01       		.byte	0x1
 859 0467 2F020000 		.4byte	0x22f
 860 046b 03       		.byte	0x3
 861 046c 86040000 		.4byte	0x486
 862 0470 12       		.uleb128 0x12
 863 0471 74717000 		.ascii	"tqp\000"
 864 0475 02       		.byte	0x2
 865 0476 3B       		.byte	0x3b
 866 0477 59040000 		.4byte	0x459
 867 047b 14       		.uleb128 0x14
 868 047c 747000   		.ascii	"tp\000"
 869 047f 02       		.byte	0x2
 870 0480 3C       		.byte	0x3c
 871 0481 2F020000 		.4byte	0x22f
 872 0485 00       		.byte	0
 873 0486 15       		.uleb128 0x15
 874 0487 01       		.byte	0x1
 875 0488 C7000000 		.4byte	.LASF62
 876 048c 01       		.byte	0x1
 877 048d 4B       		.byte	0x4b
 878 048e 01       		.byte	0x1
 879 048f BC000000 		.4byte	0xbc
 880 0493 00000000 		.4byte	.LFB7
 881 0497 40000000 		.4byte	.LFE7
 882 049b 00000000 		.4byte	.LLST0
 883 049f 01       		.byte	0x1
 884 04a0 47050000 		.4byte	0x547
 885 04a4 16       		.uleb128 0x16
 886 04a5 747000   		.ascii	"tp\000"
 887 04a8 01       		.byte	0x1
 888 04a9 4B       		.byte	0x4b
 889 04aa 2F020000 		.4byte	0x22f
 890 04ae 20000000 		.4byte	.LLST1
 891 04b2 16       		.uleb128 0x16
 892 04b3 6D736700 		.ascii	"msg\000"
 893 04b7 01       		.byte	0x1
 894 04b8 4B       		.byte	0x4b
 895 04b9 BC000000 		.4byte	0xbc
 896 04bd 58000000 		.4byte	.LLST2
 897 04c1 17       		.uleb128 0x17
 898 04c2 63747000 		.ascii	"ctp\000"
 899 04c6 01       		.byte	0x1
 900 04c7 4C       		.byte	0x4c
 901 04c8 2F020000 		.4byte	0x22f
 902 04cc 01       		.byte	0x1
 903 04cd 54       		.byte	0x54
 904 04ce 18       		.uleb128 0x18
 905 04cf 06000000 		.4byte	.LBB10
 906 04d3 0C000000 		.4byte	.LBE10
 907 04d7 EB040000 		.4byte	0x4eb
 908 04db 19       		.uleb128 0x19
 909 04dc 746D7000 		.ascii	"tmp\000"
 910 04e0 01       		.byte	0x1
ARM GAS  /var/folders/dt/0wfd0knj7gs46m8vwfzktm600000gn/T//cc4ugqKe.s 			page 17


 911 04e1 50       		.byte	0x50
 912 04e2 70000000 		.4byte	0x70
 913 04e6 9D000000 		.4byte	.LLST3
 914 04ea 00       		.byte	0
 915 04eb 1A       		.uleb128 0x1a
 916 04ec 36040000 		.4byte	0x436
 917 04f0 14000000 		.4byte	.LBB11
 918 04f4 00000000 		.4byte	.Ldebug_ranges0+0
 919 04f8 01       		.byte	0x1
 920 04f9 53       		.byte	0x53
 921 04fa 0D050000 		.4byte	0x50d
 922 04fe 1B       		.uleb128 0x1b
 923 04ff 4D040000 		.4byte	0x44d
 924 0503 01       		.byte	0x1
 925 0504 55       		.byte	0x55
 926 0505 1B       		.uleb128 0x1b
 927 0506 43040000 		.4byte	0x443
 928 050a 01       		.byte	0x1
 929 050b 54       		.byte	0x54
 930 050c 00       		.byte	0
 931 050d 18       		.uleb128 0x18
 932 050e 2C000000 		.4byte	.LBB17
 933 0512 32000000 		.4byte	.LBE17
 934 0516 2A050000 		.4byte	0x52a
 935 051a 19       		.uleb128 0x19
 936 051b 746D7000 		.ascii	"tmp\000"
 937 051f 01       		.byte	0x1
 938 0520 58       		.byte	0x58
 939 0521 70000000 		.4byte	0x70
 940 0525 B0000000 		.4byte	.LLST4
 941 0529 00       		.byte	0
 942 052a 1C       		.uleb128 0x1c
 943 052b 2A000000 		.4byte	.LVL7
 944 052f 80060000 		.4byte	0x680
 945 0533 3D050000 		.4byte	0x53d
 946 0537 1D       		.uleb128 0x1d
 947 0538 01       		.byte	0x1
 948 0539 50       		.byte	0x50
 949 053a 01       		.byte	0x1
 950 053b 3A       		.byte	0x3a
 951 053c 00       		.byte	0
 952 053d 1E       		.uleb128 0x1e
 953 053e 38000000 		.4byte	.LVL12
 954 0542 94060000 		.4byte	0x694
 955 0546 00       		.byte	0
 956 0547 15       		.uleb128 0x15
 957 0548 01       		.byte	0x1
 958 0549 A4020000 		.4byte	.LASF63
 959 054d 01       		.byte	0x1
 960 054e 6A       		.byte	0x6a
 961 054f 01       		.byte	0x1
 962 0550 2F020000 		.4byte	0x22f
 963 0554 00000000 		.4byte	.LFB8
 964 0558 3C000000 		.4byte	.LFE8
 965 055c C3000000 		.4byte	.LLST5
 966 0560 01       		.byte	0x1
 967 0561 E9050000 		.4byte	0x5e9
ARM GAS  /var/folders/dt/0wfd0knj7gs46m8vwfzktm600000gn/T//cc4ugqKe.s 			page 18


 968 0565 14       		.uleb128 0x14
 969 0566 747000   		.ascii	"tp\000"
 970 0569 01       		.byte	0x1
 971 056a 6B       		.byte	0x6b
 972 056b 2F020000 		.4byte	0x22f
 973 056f 18       		.uleb128 0x18
 974 0570 02000000 		.4byte	.LBB18
 975 0574 08000000 		.4byte	.LBE18
 976 0578 8C050000 		.4byte	0x58c
 977 057c 19       		.uleb128 0x19
 978 057d 746D7000 		.ascii	"tmp\000"
 979 0581 01       		.byte	0x1
 980 0582 6D       		.byte	0x6d
 981 0583 70000000 		.4byte	0x70
 982 0587 E3000000 		.4byte	.LLST6
 983 058b 00       		.byte	0
 984 058c 1F       		.uleb128 0x1f
 985 058d 5F040000 		.4byte	0x45f
 986 0591 16000000 		.4byte	.LBB19
 987 0595 1C000000 		.4byte	.LBE19
 988 0599 01       		.byte	0x1
 989 059a 70       		.byte	0x70
 990 059b BC050000 		.4byte	0x5bc
 991 059f 20       		.uleb128 0x20
 992 05a0 70040000 		.4byte	0x470
 993 05a4 F6000000 		.4byte	.LLST7
 994 05a8 21       		.uleb128 0x21
 995 05a9 16000000 		.4byte	.LBB20
 996 05ad 1C000000 		.4byte	.LBE20
 997 05b1 22       		.uleb128 0x22
 998 05b2 7B040000 		.4byte	0x47b
 999 05b6 0B010000 		.4byte	.LLST8
 1000 05ba 00       		.byte	0
 1001 05bb 00       		.byte	0
 1002 05bc 18       		.uleb128 0x18
 1003 05bd 20000000 		.4byte	.LBB21
 1004 05c1 26000000 		.4byte	.LBE21
 1005 05c5 D9050000 		.4byte	0x5d9
 1006 05c9 19       		.uleb128 0x19
 1007 05ca 746D7000 		.ascii	"tmp\000"
 1008 05ce 01       		.byte	0x1
 1009 05cf 72       		.byte	0x72
 1010 05d0 70000000 		.4byte	0x70
 1011 05d4 1E010000 		.4byte	.LLST9
 1012 05d8 00       		.byte	0
 1013 05d9 23       		.uleb128 0x23
 1014 05da 2E000000 		.4byte	.LVL20
 1015 05de 80060000 		.4byte	0x680
 1016 05e2 1D       		.uleb128 0x1d
 1017 05e3 01       		.byte	0x1
 1018 05e4 50       		.byte	0x50
 1019 05e5 01       		.byte	0x1
 1020 05e6 3C       		.byte	0x3c
 1021 05e7 00       		.byte	0
 1022 05e8 00       		.byte	0
 1023 05e9 24       		.uleb128 0x24
 1024 05ea 01       		.byte	0x1
ARM GAS  /var/folders/dt/0wfd0knj7gs46m8vwfzktm600000gn/T//cc4ugqKe.s 			page 19


 1025 05eb 0E020000 		.4byte	.LASF69
 1026 05ef 01       		.byte	0x1
 1027 05f0 80       		.byte	0x80
 1028 05f1 01       		.byte	0x1
 1029 05f2 00000000 		.4byte	.LFB9
 1030 05f6 14000000 		.4byte	.LFE9
 1031 05fa 31010000 		.4byte	.LLST10
 1032 05fe 01       		.byte	0x1
 1033 05ff 73060000 		.4byte	0x673
 1034 0603 16       		.uleb128 0x16
 1035 0604 747000   		.ascii	"tp\000"
 1036 0607 01       		.byte	0x1
 1037 0608 80       		.byte	0x80
 1038 0609 2F020000 		.4byte	0x22f
 1039 060d 51010000 		.4byte	.LLST11
 1040 0611 16       		.uleb128 0x16
 1041 0612 6D736700 		.ascii	"msg\000"
 1042 0616 01       		.byte	0x1
 1043 0617 80       		.byte	0x80
 1044 0618 BC000000 		.4byte	0xbc
 1045 061c 72010000 		.4byte	.LLST12
 1046 0620 18       		.uleb128 0x18
 1047 0621 02000000 		.4byte	.LBB22
 1048 0625 08000000 		.4byte	.LBE22
 1049 0629 3D060000 		.4byte	0x63d
 1050 062d 19       		.uleb128 0x19
 1051 062e 746D7000 		.ascii	"tmp\000"
 1052 0632 01       		.byte	0x1
 1053 0633 82       		.byte	0x82
 1054 0634 70000000 		.4byte	0x70
 1055 0638 93010000 		.4byte	.LLST13
 1056 063c 00       		.byte	0
 1057 063d 18       		.uleb128 0x18
 1058 063e 0C000000 		.4byte	.LBB23
 1059 0642 14000000 		.4byte	.LBE23
 1060 0646 5A060000 		.4byte	0x65a
 1061 064a 19       		.uleb128 0x19
 1062 064b 746D7000 		.ascii	"tmp\000"
 1063 064f 01       		.byte	0x1
 1064 0650 86       		.byte	0x86
 1065 0651 70000000 		.4byte	0x70
 1066 0655 A6010000 		.4byte	.LLST14
 1067 0659 00       		.byte	0
 1068 065a 23       		.uleb128 0x23
 1069 065b 0C000000 		.4byte	.LVL24
 1070 065f AC060000 		.4byte	0x6ac
 1071 0663 1D       		.uleb128 0x1d
 1072 0664 01       		.byte	0x1
 1073 0665 51       		.byte	0x51
 1074 0666 03       		.byte	0x3
 1075 0667 F3       		.byte	0xf3
 1076 0668 01       		.uleb128 0x1
 1077 0669 51       		.byte	0x51
 1078 066a 1D       		.uleb128 0x1d
 1079 066b 01       		.byte	0x1
 1080 066c 50       		.byte	0x50
 1081 066d 03       		.byte	0x3
ARM GAS  /var/folders/dt/0wfd0knj7gs46m8vwfzktm600000gn/T//cc4ugqKe.s 			page 20


 1082 066e F3       		.byte	0xf3
 1083 066f 01       		.uleb128 0x1
 1084 0670 50       		.byte	0x50
 1085 0671 00       		.byte	0
 1086 0672 00       		.byte	0
 1087 0673 25       		.uleb128 0x25
 1088 0674 BF020000 		.4byte	.LASF70
 1089 0678 08       		.byte	0x8
 1090 0679 72       		.byte	0x72
 1091 067a 96030000 		.4byte	0x396
 1092 067e 01       		.byte	0x1
 1093 067f 01       		.byte	0x1
 1094 0680 26       		.uleb128 0x26
 1095 0681 01       		.byte	0x1
 1096 0682 1B020000 		.4byte	.LASF71
 1097 0686 08       		.byte	0x8
 1098 0687 96       		.byte	0x96
 1099 0688 01       		.byte	0x1
 1100 0689 01       		.byte	0x1
 1101 068a 94060000 		.4byte	0x694
 1102 068e 27       		.uleb128 0x27
 1103 068f 9B000000 		.4byte	0x9b
 1104 0693 00       		.byte	0
 1105 0694 28       		.uleb128 0x28
 1106 0695 01       		.byte	0x1
 1107 0696 45020000 		.4byte	.LASF72
 1108 069a 08       		.byte	0x8
 1109 069b 93       		.byte	0x93
 1110 069c 01       		.byte	0x1
 1111 069d 2F020000 		.4byte	0x22f
 1112 06a1 01       		.byte	0x1
 1113 06a2 AC060000 		.4byte	0x6ac
 1114 06a6 27       		.uleb128 0x27
 1115 06a7 2F020000 		.4byte	0x22f
 1116 06ab 00       		.byte	0
 1117 06ac 29       		.uleb128 0x29
 1118 06ad 01       		.byte	0x1
 1119 06ae 97020000 		.4byte	.LASF73
 1120 06b2 08       		.byte	0x8
 1121 06b3 9C       		.byte	0x9c
 1122 06b4 01       		.byte	0x1
 1123 06b5 01       		.byte	0x1
 1124 06b6 27       		.uleb128 0x27
 1125 06b7 2F020000 		.4byte	0x22f
 1126 06bb 27       		.uleb128 0x27
 1127 06bc BC000000 		.4byte	0xbc
 1128 06c0 00       		.byte	0
 1129 06c1 00       		.byte	0
 1130              		.section	.debug_abbrev,"",%progbits
 1131              	.Ldebug_abbrev0:
 1132 0000 01       		.uleb128 0x1
 1133 0001 11       		.uleb128 0x11
 1134 0002 01       		.byte	0x1
 1135 0003 25       		.uleb128 0x25
 1136 0004 0E       		.uleb128 0xe
 1137 0005 13       		.uleb128 0x13
 1138 0006 0B       		.uleb128 0xb
ARM GAS  /var/folders/dt/0wfd0knj7gs46m8vwfzktm600000gn/T//cc4ugqKe.s 			page 21


 1139 0007 03       		.uleb128 0x3
 1140 0008 0E       		.uleb128 0xe
 1141 0009 1B       		.uleb128 0x1b
 1142 000a 0E       		.uleb128 0xe
 1143 000b 55       		.uleb128 0x55
 1144 000c 06       		.uleb128 0x6
 1145 000d 11       		.uleb128 0x11
 1146 000e 01       		.uleb128 0x1
 1147 000f 52       		.uleb128 0x52
 1148 0010 01       		.uleb128 0x1
 1149 0011 10       		.uleb128 0x10
 1150 0012 06       		.uleb128 0x6
 1151 0013 00       		.byte	0
 1152 0014 00       		.byte	0
 1153 0015 02       		.uleb128 0x2
 1154 0016 24       		.uleb128 0x24
 1155 0017 00       		.byte	0
 1156 0018 0B       		.uleb128 0xb
 1157 0019 0B       		.uleb128 0xb
 1158 001a 3E       		.uleb128 0x3e
 1159 001b 0B       		.uleb128 0xb
 1160 001c 03       		.uleb128 0x3
 1161 001d 08       		.uleb128 0x8
 1162 001e 00       		.byte	0
 1163 001f 00       		.byte	0
 1164 0020 03       		.uleb128 0x3
 1165 0021 24       		.uleb128 0x24
 1166 0022 00       		.byte	0
 1167 0023 0B       		.uleb128 0xb
 1168 0024 0B       		.uleb128 0xb
 1169 0025 3E       		.uleb128 0x3e
 1170 0026 0B       		.uleb128 0xb
 1171 0027 03       		.uleb128 0x3
 1172 0028 0E       		.uleb128 0xe
 1173 0029 00       		.byte	0
 1174 002a 00       		.byte	0
 1175 002b 04       		.uleb128 0x4
 1176 002c 16       		.uleb128 0x16
 1177 002d 00       		.byte	0
 1178 002e 03       		.uleb128 0x3
 1179 002f 0E       		.uleb128 0xe
 1180 0030 3A       		.uleb128 0x3a
 1181 0031 0B       		.uleb128 0xb
 1182 0032 3B       		.uleb128 0x3b
 1183 0033 0B       		.uleb128 0xb
 1184 0034 49       		.uleb128 0x49
 1185 0035 13       		.uleb128 0x13
 1186 0036 00       		.byte	0
 1187 0037 00       		.byte	0
 1188 0038 05       		.uleb128 0x5
 1189 0039 13       		.uleb128 0x13
 1190 003a 01       		.byte	0x1
 1191 003b 03       		.uleb128 0x3
 1192 003c 0E       		.uleb128 0xe
 1193 003d 0B       		.uleb128 0xb
 1194 003e 0B       		.uleb128 0xb
 1195 003f 3A       		.uleb128 0x3a
ARM GAS  /var/folders/dt/0wfd0knj7gs46m8vwfzktm600000gn/T//cc4ugqKe.s 			page 22


 1196 0040 0B       		.uleb128 0xb
 1197 0041 3B       		.uleb128 0x3b
 1198 0042 0B       		.uleb128 0xb
 1199 0043 01       		.uleb128 0x1
 1200 0044 13       		.uleb128 0x13
 1201 0045 00       		.byte	0
 1202 0046 00       		.byte	0
 1203 0047 06       		.uleb128 0x6
 1204 0048 0D       		.uleb128 0xd
 1205 0049 00       		.byte	0
 1206 004a 03       		.uleb128 0x3
 1207 004b 0E       		.uleb128 0xe
 1208 004c 3A       		.uleb128 0x3a
 1209 004d 0B       		.uleb128 0xb
 1210 004e 3B       		.uleb128 0x3b
 1211 004f 0B       		.uleb128 0xb
 1212 0050 49       		.uleb128 0x49
 1213 0051 13       		.uleb128 0x13
 1214 0052 38       		.uleb128 0x38
 1215 0053 0A       		.uleb128 0xa
 1216 0054 00       		.byte	0
 1217 0055 00       		.byte	0
 1218 0056 07       		.uleb128 0x7
 1219 0057 0D       		.uleb128 0xd
 1220 0058 00       		.byte	0
 1221 0059 03       		.uleb128 0x3
 1222 005a 08       		.uleb128 0x8
 1223 005b 3A       		.uleb128 0x3a
 1224 005c 0B       		.uleb128 0xb
 1225 005d 3B       		.uleb128 0x3b
 1226 005e 0B       		.uleb128 0xb
 1227 005f 49       		.uleb128 0x49
 1228 0060 13       		.uleb128 0x13
 1229 0061 38       		.uleb128 0x38
 1230 0062 0A       		.uleb128 0xa
 1231 0063 00       		.byte	0
 1232 0064 00       		.byte	0
 1233 0065 08       		.uleb128 0x8
 1234 0066 13       		.uleb128 0x13
 1235 0067 01       		.byte	0x1
 1236 0068 0B       		.uleb128 0xb
 1237 0069 0B       		.uleb128 0xb
 1238 006a 3A       		.uleb128 0x3a
 1239 006b 0B       		.uleb128 0xb
 1240 006c 3B       		.uleb128 0x3b
 1241 006d 0B       		.uleb128 0xb
 1242 006e 01       		.uleb128 0x1
 1243 006f 13       		.uleb128 0x13
 1244 0070 00       		.byte	0
 1245 0071 00       		.byte	0
 1246 0072 09       		.uleb128 0x9
 1247 0073 0F       		.uleb128 0xf
 1248 0074 00       		.byte	0
 1249 0075 0B       		.uleb128 0xb
 1250 0076 0B       		.uleb128 0xb
 1251 0077 49       		.uleb128 0x49
 1252 0078 13       		.uleb128 0x13
ARM GAS  /var/folders/dt/0wfd0knj7gs46m8vwfzktm600000gn/T//cc4ugqKe.s 			page 23


 1253 0079 00       		.byte	0
 1254 007a 00       		.byte	0
 1255 007b 0A       		.uleb128 0xa
 1256 007c 0F       		.uleb128 0xf
 1257 007d 00       		.byte	0
 1258 007e 0B       		.uleb128 0xb
 1259 007f 0B       		.uleb128 0xb
 1260 0080 00       		.byte	0
 1261 0081 00       		.byte	0
 1262 0082 0B       		.uleb128 0xb
 1263 0083 0D       		.uleb128 0xd
 1264 0084 00       		.byte	0
 1265 0085 03       		.uleb128 0x3
 1266 0086 08       		.uleb128 0x8
 1267 0087 3A       		.uleb128 0x3a
 1268 0088 0B       		.uleb128 0xb
 1269 0089 3B       		.uleb128 0x3b
 1270 008a 05       		.uleb128 0x5
 1271 008b 49       		.uleb128 0x49
 1272 008c 13       		.uleb128 0x13
 1273 008d 38       		.uleb128 0x38
 1274 008e 0A       		.uleb128 0xa
 1275 008f 00       		.byte	0
 1276 0090 00       		.byte	0
 1277 0091 0C       		.uleb128 0xc
 1278 0092 13       		.uleb128 0x13
 1279 0093 01       		.byte	0x1
 1280 0094 03       		.uleb128 0x3
 1281 0095 0E       		.uleb128 0xe
 1282 0096 0B       		.uleb128 0xb
 1283 0097 0B       		.uleb128 0xb
 1284 0098 3A       		.uleb128 0x3a
 1285 0099 0B       		.uleb128 0xb
 1286 009a 3B       		.uleb128 0x3b
 1287 009b 05       		.uleb128 0x5
 1288 009c 01       		.uleb128 0x1
 1289 009d 13       		.uleb128 0x13
 1290 009e 00       		.byte	0
 1291 009f 00       		.byte	0
 1292 00a0 0D       		.uleb128 0xd
 1293 00a1 35       		.uleb128 0x35
 1294 00a2 00       		.byte	0
 1295 00a3 49       		.uleb128 0x49
 1296 00a4 13       		.uleb128 0x13
 1297 00a5 00       		.byte	0
 1298 00a6 00       		.byte	0
 1299 00a7 0E       		.uleb128 0xe
 1300 00a8 17       		.uleb128 0x17
 1301 00a9 01       		.byte	0x1
 1302 00aa 0B       		.uleb128 0xb
 1303 00ab 0B       		.uleb128 0xb
 1304 00ac 3A       		.uleb128 0x3a
 1305 00ad 0B       		.uleb128 0xb
 1306 00ae 3B       		.uleb128 0x3b
 1307 00af 0B       		.uleb128 0xb
 1308 00b0 01       		.uleb128 0x1
 1309 00b1 13       		.uleb128 0x13
ARM GAS  /var/folders/dt/0wfd0knj7gs46m8vwfzktm600000gn/T//cc4ugqKe.s 			page 24


 1310 00b2 00       		.byte	0
 1311 00b3 00       		.byte	0
 1312 00b4 0F       		.uleb128 0xf
 1313 00b5 0D       		.uleb128 0xd
 1314 00b6 00       		.byte	0
 1315 00b7 03       		.uleb128 0x3
 1316 00b8 0E       		.uleb128 0xe
 1317 00b9 3A       		.uleb128 0x3a
 1318 00ba 0B       		.uleb128 0xb
 1319 00bb 3B       		.uleb128 0x3b
 1320 00bc 0B       		.uleb128 0xb
 1321 00bd 49       		.uleb128 0x49
 1322 00be 13       		.uleb128 0x13
 1323 00bf 00       		.byte	0
 1324 00c0 00       		.byte	0
 1325 00c1 10       		.uleb128 0x10
 1326 00c2 26       		.uleb128 0x26
 1327 00c3 00       		.byte	0
 1328 00c4 49       		.uleb128 0x49
 1329 00c5 13       		.uleb128 0x13
 1330 00c6 00       		.byte	0
 1331 00c7 00       		.byte	0
 1332 00c8 11       		.uleb128 0x11
 1333 00c9 2E       		.uleb128 0x2e
 1334 00ca 01       		.byte	0x1
 1335 00cb 03       		.uleb128 0x3
 1336 00cc 0E       		.uleb128 0xe
 1337 00cd 3A       		.uleb128 0x3a
 1338 00ce 0B       		.uleb128 0xb
 1339 00cf 3B       		.uleb128 0x3b
 1340 00d0 0B       		.uleb128 0xb
 1341 00d1 27       		.uleb128 0x27
 1342 00d2 0C       		.uleb128 0xc
 1343 00d3 20       		.uleb128 0x20
 1344 00d4 0B       		.uleb128 0xb
 1345 00d5 01       		.uleb128 0x1
 1346 00d6 13       		.uleb128 0x13
 1347 00d7 00       		.byte	0
 1348 00d8 00       		.byte	0
 1349 00d9 12       		.uleb128 0x12
 1350 00da 05       		.uleb128 0x5
 1351 00db 00       		.byte	0
 1352 00dc 03       		.uleb128 0x3
 1353 00dd 08       		.uleb128 0x8
 1354 00de 3A       		.uleb128 0x3a
 1355 00df 0B       		.uleb128 0xb
 1356 00e0 3B       		.uleb128 0x3b
 1357 00e1 0B       		.uleb128 0xb
 1358 00e2 49       		.uleb128 0x49
 1359 00e3 13       		.uleb128 0x13
 1360 00e4 00       		.byte	0
 1361 00e5 00       		.byte	0
 1362 00e6 13       		.uleb128 0x13
 1363 00e7 2E       		.uleb128 0x2e
 1364 00e8 01       		.byte	0x1
 1365 00e9 03       		.uleb128 0x3
 1366 00ea 0E       		.uleb128 0xe
ARM GAS  /var/folders/dt/0wfd0knj7gs46m8vwfzktm600000gn/T//cc4ugqKe.s 			page 25


 1367 00eb 3A       		.uleb128 0x3a
 1368 00ec 0B       		.uleb128 0xb
 1369 00ed 3B       		.uleb128 0x3b
 1370 00ee 0B       		.uleb128 0xb
 1371 00ef 27       		.uleb128 0x27
 1372 00f0 0C       		.uleb128 0xc
 1373 00f1 49       		.uleb128 0x49
 1374 00f2 13       		.uleb128 0x13
 1375 00f3 20       		.uleb128 0x20
 1376 00f4 0B       		.uleb128 0xb
 1377 00f5 01       		.uleb128 0x1
 1378 00f6 13       		.uleb128 0x13
 1379 00f7 00       		.byte	0
 1380 00f8 00       		.byte	0
 1381 00f9 14       		.uleb128 0x14
 1382 00fa 34       		.uleb128 0x34
 1383 00fb 00       		.byte	0
 1384 00fc 03       		.uleb128 0x3
 1385 00fd 08       		.uleb128 0x8
 1386 00fe 3A       		.uleb128 0x3a
 1387 00ff 0B       		.uleb128 0xb
 1388 0100 3B       		.uleb128 0x3b
 1389 0101 0B       		.uleb128 0xb
 1390 0102 49       		.uleb128 0x49
 1391 0103 13       		.uleb128 0x13
 1392 0104 00       		.byte	0
 1393 0105 00       		.byte	0
 1394 0106 15       		.uleb128 0x15
 1395 0107 2E       		.uleb128 0x2e
 1396 0108 01       		.byte	0x1
 1397 0109 3F       		.uleb128 0x3f
 1398 010a 0C       		.uleb128 0xc
 1399 010b 03       		.uleb128 0x3
 1400 010c 0E       		.uleb128 0xe
 1401 010d 3A       		.uleb128 0x3a
 1402 010e 0B       		.uleb128 0xb
 1403 010f 3B       		.uleb128 0x3b
 1404 0110 0B       		.uleb128 0xb
 1405 0111 27       		.uleb128 0x27
 1406 0112 0C       		.uleb128 0xc
 1407 0113 49       		.uleb128 0x49
 1408 0114 13       		.uleb128 0x13
 1409 0115 11       		.uleb128 0x11
 1410 0116 01       		.uleb128 0x1
 1411 0117 12       		.uleb128 0x12
 1412 0118 01       		.uleb128 0x1
 1413 0119 40       		.uleb128 0x40
 1414 011a 06       		.uleb128 0x6
 1415 011b 9742     		.uleb128 0x2117
 1416 011d 0C       		.uleb128 0xc
 1417 011e 01       		.uleb128 0x1
 1418 011f 13       		.uleb128 0x13
 1419 0120 00       		.byte	0
 1420 0121 00       		.byte	0
 1421 0122 16       		.uleb128 0x16
 1422 0123 05       		.uleb128 0x5
 1423 0124 00       		.byte	0
ARM GAS  /var/folders/dt/0wfd0knj7gs46m8vwfzktm600000gn/T//cc4ugqKe.s 			page 26


 1424 0125 03       		.uleb128 0x3
 1425 0126 08       		.uleb128 0x8
 1426 0127 3A       		.uleb128 0x3a
 1427 0128 0B       		.uleb128 0xb
 1428 0129 3B       		.uleb128 0x3b
 1429 012a 0B       		.uleb128 0xb
 1430 012b 49       		.uleb128 0x49
 1431 012c 13       		.uleb128 0x13
 1432 012d 02       		.uleb128 0x2
 1433 012e 06       		.uleb128 0x6
 1434 012f 00       		.byte	0
 1435 0130 00       		.byte	0
 1436 0131 17       		.uleb128 0x17
 1437 0132 34       		.uleb128 0x34
 1438 0133 00       		.byte	0
 1439 0134 03       		.uleb128 0x3
 1440 0135 08       		.uleb128 0x8
 1441 0136 3A       		.uleb128 0x3a
 1442 0137 0B       		.uleb128 0xb
 1443 0138 3B       		.uleb128 0x3b
 1444 0139 0B       		.uleb128 0xb
 1445 013a 49       		.uleb128 0x49
 1446 013b 13       		.uleb128 0x13
 1447 013c 02       		.uleb128 0x2
 1448 013d 0A       		.uleb128 0xa
 1449 013e 00       		.byte	0
 1450 013f 00       		.byte	0
 1451 0140 18       		.uleb128 0x18
 1452 0141 0B       		.uleb128 0xb
 1453 0142 01       		.byte	0x1
 1454 0143 11       		.uleb128 0x11
 1455 0144 01       		.uleb128 0x1
 1456 0145 12       		.uleb128 0x12
 1457 0146 01       		.uleb128 0x1
 1458 0147 01       		.uleb128 0x1
 1459 0148 13       		.uleb128 0x13
 1460 0149 00       		.byte	0
 1461 014a 00       		.byte	0
 1462 014b 19       		.uleb128 0x19
 1463 014c 34       		.uleb128 0x34
 1464 014d 00       		.byte	0
 1465 014e 03       		.uleb128 0x3
 1466 014f 08       		.uleb128 0x8
 1467 0150 3A       		.uleb128 0x3a
 1468 0151 0B       		.uleb128 0xb
 1469 0152 3B       		.uleb128 0x3b
 1470 0153 0B       		.uleb128 0xb
 1471 0154 49       		.uleb128 0x49
 1472 0155 13       		.uleb128 0x13
 1473 0156 02       		.uleb128 0x2
 1474 0157 06       		.uleb128 0x6
 1475 0158 00       		.byte	0
 1476 0159 00       		.byte	0
 1477 015a 1A       		.uleb128 0x1a
 1478 015b 1D       		.uleb128 0x1d
 1479 015c 01       		.byte	0x1
 1480 015d 31       		.uleb128 0x31
ARM GAS  /var/folders/dt/0wfd0knj7gs46m8vwfzktm600000gn/T//cc4ugqKe.s 			page 27


 1481 015e 13       		.uleb128 0x13
 1482 015f 52       		.uleb128 0x52
 1483 0160 01       		.uleb128 0x1
 1484 0161 55       		.uleb128 0x55
 1485 0162 06       		.uleb128 0x6
 1486 0163 58       		.uleb128 0x58
 1487 0164 0B       		.uleb128 0xb
 1488 0165 59       		.uleb128 0x59
 1489 0166 0B       		.uleb128 0xb
 1490 0167 01       		.uleb128 0x1
 1491 0168 13       		.uleb128 0x13
 1492 0169 00       		.byte	0
 1493 016a 00       		.byte	0
 1494 016b 1B       		.uleb128 0x1b
 1495 016c 05       		.uleb128 0x5
 1496 016d 00       		.byte	0
 1497 016e 31       		.uleb128 0x31
 1498 016f 13       		.uleb128 0x13
 1499 0170 02       		.uleb128 0x2
 1500 0171 0A       		.uleb128 0xa
 1501 0172 00       		.byte	0
 1502 0173 00       		.byte	0
 1503 0174 1C       		.uleb128 0x1c
 1504 0175 898201   		.uleb128 0x4109
 1505 0178 01       		.byte	0x1
 1506 0179 11       		.uleb128 0x11
 1507 017a 01       		.uleb128 0x1
 1508 017b 31       		.uleb128 0x31
 1509 017c 13       		.uleb128 0x13
 1510 017d 01       		.uleb128 0x1
 1511 017e 13       		.uleb128 0x13
 1512 017f 00       		.byte	0
 1513 0180 00       		.byte	0
 1514 0181 1D       		.uleb128 0x1d
 1515 0182 8A8201   		.uleb128 0x410a
 1516 0185 00       		.byte	0
 1517 0186 02       		.uleb128 0x2
 1518 0187 0A       		.uleb128 0xa
 1519 0188 9142     		.uleb128 0x2111
 1520 018a 0A       		.uleb128 0xa
 1521 018b 00       		.byte	0
 1522 018c 00       		.byte	0
 1523 018d 1E       		.uleb128 0x1e
 1524 018e 898201   		.uleb128 0x4109
 1525 0191 00       		.byte	0
 1526 0192 11       		.uleb128 0x11
 1527 0193 01       		.uleb128 0x1
 1528 0194 31       		.uleb128 0x31
 1529 0195 13       		.uleb128 0x13
 1530 0196 00       		.byte	0
 1531 0197 00       		.byte	0
 1532 0198 1F       		.uleb128 0x1f
 1533 0199 1D       		.uleb128 0x1d
 1534 019a 01       		.byte	0x1
 1535 019b 31       		.uleb128 0x31
 1536 019c 13       		.uleb128 0x13
 1537 019d 11       		.uleb128 0x11
ARM GAS  /var/folders/dt/0wfd0knj7gs46m8vwfzktm600000gn/T//cc4ugqKe.s 			page 28


 1538 019e 01       		.uleb128 0x1
 1539 019f 12       		.uleb128 0x12
 1540 01a0 01       		.uleb128 0x1
 1541 01a1 58       		.uleb128 0x58
 1542 01a2 0B       		.uleb128 0xb
 1543 01a3 59       		.uleb128 0x59
 1544 01a4 0B       		.uleb128 0xb
 1545 01a5 01       		.uleb128 0x1
 1546 01a6 13       		.uleb128 0x13
 1547 01a7 00       		.byte	0
 1548 01a8 00       		.byte	0
 1549 01a9 20       		.uleb128 0x20
 1550 01aa 05       		.uleb128 0x5
 1551 01ab 00       		.byte	0
 1552 01ac 31       		.uleb128 0x31
 1553 01ad 13       		.uleb128 0x13
 1554 01ae 02       		.uleb128 0x2
 1555 01af 06       		.uleb128 0x6
 1556 01b0 00       		.byte	0
 1557 01b1 00       		.byte	0
 1558 01b2 21       		.uleb128 0x21
 1559 01b3 0B       		.uleb128 0xb
 1560 01b4 01       		.byte	0x1
 1561 01b5 11       		.uleb128 0x11
 1562 01b6 01       		.uleb128 0x1
 1563 01b7 12       		.uleb128 0x12
 1564 01b8 01       		.uleb128 0x1
 1565 01b9 00       		.byte	0
 1566 01ba 00       		.byte	0
 1567 01bb 22       		.uleb128 0x22
 1568 01bc 34       		.uleb128 0x34
 1569 01bd 00       		.byte	0
 1570 01be 31       		.uleb128 0x31
 1571 01bf 13       		.uleb128 0x13
 1572 01c0 02       		.uleb128 0x2
 1573 01c1 06       		.uleb128 0x6
 1574 01c2 00       		.byte	0
 1575 01c3 00       		.byte	0
 1576 01c4 23       		.uleb128 0x23
 1577 01c5 898201   		.uleb128 0x4109
 1578 01c8 01       		.byte	0x1
 1579 01c9 11       		.uleb128 0x11
 1580 01ca 01       		.uleb128 0x1
 1581 01cb 31       		.uleb128 0x31
 1582 01cc 13       		.uleb128 0x13
 1583 01cd 00       		.byte	0
 1584 01ce 00       		.byte	0
 1585 01cf 24       		.uleb128 0x24
 1586 01d0 2E       		.uleb128 0x2e
 1587 01d1 01       		.byte	0x1
 1588 01d2 3F       		.uleb128 0x3f
 1589 01d3 0C       		.uleb128 0xc
 1590 01d4 03       		.uleb128 0x3
 1591 01d5 0E       		.uleb128 0xe
 1592 01d6 3A       		.uleb128 0x3a
 1593 01d7 0B       		.uleb128 0xb
 1594 01d8 3B       		.uleb128 0x3b
ARM GAS  /var/folders/dt/0wfd0knj7gs46m8vwfzktm600000gn/T//cc4ugqKe.s 			page 29


 1595 01d9 0B       		.uleb128 0xb
 1596 01da 27       		.uleb128 0x27
 1597 01db 0C       		.uleb128 0xc
 1598 01dc 11       		.uleb128 0x11
 1599 01dd 01       		.uleb128 0x1
 1600 01de 12       		.uleb128 0x12
 1601 01df 01       		.uleb128 0x1
 1602 01e0 40       		.uleb128 0x40
 1603 01e1 06       		.uleb128 0x6
 1604 01e2 9742     		.uleb128 0x2117
 1605 01e4 0C       		.uleb128 0xc
 1606 01e5 01       		.uleb128 0x1
 1607 01e6 13       		.uleb128 0x13
 1608 01e7 00       		.byte	0
 1609 01e8 00       		.byte	0
 1610 01e9 25       		.uleb128 0x25
 1611 01ea 34       		.uleb128 0x34
 1612 01eb 00       		.byte	0
 1613 01ec 03       		.uleb128 0x3
 1614 01ed 0E       		.uleb128 0xe
 1615 01ee 3A       		.uleb128 0x3a
 1616 01ef 0B       		.uleb128 0xb
 1617 01f0 3B       		.uleb128 0x3b
 1618 01f1 0B       		.uleb128 0xb
 1619 01f2 49       		.uleb128 0x49
 1620 01f3 13       		.uleb128 0x13
 1621 01f4 3F       		.uleb128 0x3f
 1622 01f5 0C       		.uleb128 0xc
 1623 01f6 3C       		.uleb128 0x3c
 1624 01f7 0C       		.uleb128 0xc
 1625 01f8 00       		.byte	0
 1626 01f9 00       		.byte	0
 1627 01fa 26       		.uleb128 0x26
 1628 01fb 2E       		.uleb128 0x2e
 1629 01fc 01       		.byte	0x1
 1630 01fd 3F       		.uleb128 0x3f
 1631 01fe 0C       		.uleb128 0xc
 1632 01ff 03       		.uleb128 0x3
 1633 0200 0E       		.uleb128 0xe
 1634 0201 3A       		.uleb128 0x3a
 1635 0202 0B       		.uleb128 0xb
 1636 0203 3B       		.uleb128 0x3b
 1637 0204 0B       		.uleb128 0xb
 1638 0205 27       		.uleb128 0x27
 1639 0206 0C       		.uleb128 0xc
 1640 0207 3C       		.uleb128 0x3c
 1641 0208 0C       		.uleb128 0xc
 1642 0209 01       		.uleb128 0x1
 1643 020a 13       		.uleb128 0x13
 1644 020b 00       		.byte	0
 1645 020c 00       		.byte	0
 1646 020d 27       		.uleb128 0x27
 1647 020e 05       		.uleb128 0x5
 1648 020f 00       		.byte	0
 1649 0210 49       		.uleb128 0x49
 1650 0211 13       		.uleb128 0x13
 1651 0212 00       		.byte	0
ARM GAS  /var/folders/dt/0wfd0knj7gs46m8vwfzktm600000gn/T//cc4ugqKe.s 			page 30


 1652 0213 00       		.byte	0
 1653 0214 28       		.uleb128 0x28
 1654 0215 2E       		.uleb128 0x2e
 1655 0216 01       		.byte	0x1
 1656 0217 3F       		.uleb128 0x3f
 1657 0218 0C       		.uleb128 0xc
 1658 0219 03       		.uleb128 0x3
 1659 021a 0E       		.uleb128 0xe
 1660 021b 3A       		.uleb128 0x3a
 1661 021c 0B       		.uleb128 0xb
 1662 021d 3B       		.uleb128 0x3b
 1663 021e 0B       		.uleb128 0xb
 1664 021f 27       		.uleb128 0x27
 1665 0220 0C       		.uleb128 0xc
 1666 0221 49       		.uleb128 0x49
 1667 0222 13       		.uleb128 0x13
 1668 0223 3C       		.uleb128 0x3c
 1669 0224 0C       		.uleb128 0xc
 1670 0225 01       		.uleb128 0x1
 1671 0226 13       		.uleb128 0x13
 1672 0227 00       		.byte	0
 1673 0228 00       		.byte	0
 1674 0229 29       		.uleb128 0x29
 1675 022a 2E       		.uleb128 0x2e
 1676 022b 01       		.byte	0x1
 1677 022c 3F       		.uleb128 0x3f
 1678 022d 0C       		.uleb128 0xc
 1679 022e 03       		.uleb128 0x3
 1680 022f 0E       		.uleb128 0xe
 1681 0230 3A       		.uleb128 0x3a
 1682 0231 0B       		.uleb128 0xb
 1683 0232 3B       		.uleb128 0x3b
 1684 0233 0B       		.uleb128 0xb
 1685 0234 27       		.uleb128 0x27
 1686 0235 0C       		.uleb128 0xc
 1687 0236 3C       		.uleb128 0x3c
 1688 0237 0C       		.uleb128 0xc
 1689 0238 00       		.byte	0
 1690 0239 00       		.byte	0
 1691 023a 00       		.byte	0
 1692              		.section	.debug_loc,"",%progbits
 1693              	.Ldebug_loc0:
 1694              	.LLST0:
 1695 0000 00000000 		.4byte	.LFB7
 1696 0004 02000000 		.4byte	.LCFI0
 1697 0008 0200     		.2byte	0x2
 1698 000a 7D       		.byte	0x7d
 1699 000b 00       		.sleb128 0
 1700 000c 02000000 		.4byte	.LCFI0
 1701 0010 40000000 		.4byte	.LFE7
 1702 0014 0200     		.2byte	0x2
 1703 0016 7D       		.byte	0x7d
 1704 0017 10       		.sleb128 16
 1705 0018 00000000 		.4byte	0
 1706 001c 00000000 		.4byte	0
 1707              	.LLST1:
 1708 0020 00000000 		.4byte	.LVL0
ARM GAS  /var/folders/dt/0wfd0knj7gs46m8vwfzktm600000gn/T//cc4ugqKe.s 			page 31


 1709 0024 24000000 		.4byte	.LVL6
 1710 0028 0100     		.2byte	0x1
 1711 002a 50       		.byte	0x50
 1712 002b 24000000 		.4byte	.LVL6
 1713 002f 34000000 		.4byte	.LVL11
 1714 0033 0300     		.2byte	0x3
 1715 0035 75       		.byte	0x75
 1716 0036 54       		.sleb128 -44
 1717 0037 9F       		.byte	0x9f
 1718 0038 34000000 		.4byte	.LVL11
 1719 003c 37000000 		.4byte	.LVL12-1
 1720 0040 0100     		.2byte	0x1
 1721 0042 50       		.byte	0x50
 1722 0043 37000000 		.4byte	.LVL12-1
 1723 0047 40000000 		.4byte	.LFE7
 1724 004b 0300     		.2byte	0x3
 1725 004d 75       		.byte	0x75
 1726 004e 54       		.sleb128 -44
 1727 004f 9F       		.byte	0x9f
 1728 0050 00000000 		.4byte	0
 1729 0054 00000000 		.4byte	0
 1730              	.LLST2:
 1731 0058 00000000 		.4byte	.LVL0
 1732 005c 24000000 		.4byte	.LVL6
 1733 0060 0100     		.2byte	0x1
 1734 0062 51       		.byte	0x51
 1735 0063 24000000 		.4byte	.LVL6
 1736 0067 2C000000 		.4byte	.LVL8
 1737 006b 0400     		.2byte	0x4
 1738 006d F3       		.byte	0xf3
 1739 006e 01       		.uleb128 0x1
 1740 006f 51       		.byte	0x51
 1741 0070 9F       		.byte	0x9f
 1742 0071 2C000000 		.4byte	.LVL8
 1743 0075 34000000 		.4byte	.LVL11
 1744 0079 0100     		.2byte	0x1
 1745 007b 50       		.byte	0x50
 1746 007c 34000000 		.4byte	.LVL11
 1747 0080 37000000 		.4byte	.LVL12-1
 1748 0084 0100     		.2byte	0x1
 1749 0086 51       		.byte	0x51
 1750 0087 37000000 		.4byte	.LVL12-1
 1751 008b 40000000 		.4byte	.LFE7
 1752 008f 0400     		.2byte	0x4
 1753 0091 F3       		.byte	0xf3
 1754 0092 01       		.uleb128 0x1
 1755 0093 51       		.byte	0x51
 1756 0094 9F       		.byte	0x9f
 1757 0095 00000000 		.4byte	0
 1758 0099 00000000 		.4byte	0
 1759              	.LLST3:
 1760 009d 0C000000 		.4byte	.LVL3
 1761 00a1 16000000 		.4byte	.LVL5
 1762 00a5 0100     		.2byte	0x1
 1763 00a7 53       		.byte	0x53
 1764 00a8 00000000 		.4byte	0
 1765 00ac 00000000 		.4byte	0
ARM GAS  /var/folders/dt/0wfd0knj7gs46m8vwfzktm600000gn/T//cc4ugqKe.s 			page 32


 1766              	.LLST4:
 1767 00b0 32000000 		.4byte	.LVL10
 1768 00b4 34000000 		.4byte	.LVL11
 1769 00b8 0100     		.2byte	0x1
 1770 00ba 53       		.byte	0x53
 1771 00bb 00000000 		.4byte	0
 1772 00bf 00000000 		.4byte	0
 1773              	.LLST5:
 1774 00c3 00000000 		.4byte	.LFB8
 1775 00c7 02000000 		.4byte	.LCFI1
 1776 00cb 0200     		.2byte	0x2
 1777 00cd 7D       		.byte	0x7d
 1778 00ce 00       		.sleb128 0
 1779 00cf 02000000 		.4byte	.LCFI1
 1780 00d3 3C000000 		.4byte	.LFE8
 1781 00d7 0200     		.2byte	0x2
 1782 00d9 7D       		.byte	0x7d
 1783 00da 08       		.sleb128 8
 1784 00db 00000000 		.4byte	0
 1785 00df 00000000 		.4byte	0
 1786              	.LLST6:
 1787 00e3 08000000 		.4byte	.LVL14
 1788 00e7 0C000000 		.4byte	.LVL15
 1789 00eb 0100     		.2byte	0x1
 1790 00ed 53       		.byte	0x53
 1791 00ee 00000000 		.4byte	0
 1792 00f2 00000000 		.4byte	0
 1793              	.LLST7:
 1794 00f6 16000000 		.4byte	.LVL16
 1795 00fa 22000000 		.4byte	.LVL17
 1796 00fe 0300     		.2byte	0x3
 1797 0100 73       		.byte	0x73
 1798 0101 2C       		.sleb128 44
 1799 0102 9F       		.byte	0x9f
 1800 0103 00000000 		.4byte	0
 1801 0107 00000000 		.4byte	0
 1802              	.LLST8:
 1803 010b 16000000 		.4byte	.LVL16
 1804 010f 28000000 		.4byte	.LVL19
 1805 0113 0100     		.2byte	0x1
 1806 0115 50       		.byte	0x50
 1807 0116 00000000 		.4byte	0
 1808 011a 00000000 		.4byte	0
 1809              	.LLST9:
 1810 011e 26000000 		.4byte	.LVL18
 1811 0122 28000000 		.4byte	.LVL19
 1812 0126 0100     		.2byte	0x1
 1813 0128 53       		.byte	0x53
 1814 0129 00000000 		.4byte	0
 1815 012d 00000000 		.4byte	0
 1816              	.LLST10:
 1817 0131 00000000 		.4byte	.LFB9
 1818 0135 02000000 		.4byte	.LCFI2
 1819 0139 0200     		.2byte	0x2
 1820 013b 7D       		.byte	0x7d
 1821 013c 00       		.sleb128 0
 1822 013d 02000000 		.4byte	.LCFI2
ARM GAS  /var/folders/dt/0wfd0knj7gs46m8vwfzktm600000gn/T//cc4ugqKe.s 			page 33


 1823 0141 14000000 		.4byte	.LFE9
 1824 0145 0200     		.2byte	0x2
 1825 0147 7D       		.byte	0x7d
 1826 0148 08       		.sleb128 8
 1827 0149 00000000 		.4byte	0
 1828 014d 00000000 		.4byte	0
 1829              	.LLST11:
 1830 0151 00000000 		.4byte	.LVL21
 1831 0155 0B000000 		.4byte	.LVL24-1
 1832 0159 0100     		.2byte	0x1
 1833 015b 50       		.byte	0x50
 1834 015c 0B000000 		.4byte	.LVL24-1
 1835 0160 14000000 		.4byte	.LFE9
 1836 0164 0400     		.2byte	0x4
 1837 0166 F3       		.byte	0xf3
 1838 0167 01       		.uleb128 0x1
 1839 0168 50       		.byte	0x50
 1840 0169 9F       		.byte	0x9f
 1841 016a 00000000 		.4byte	0
 1842 016e 00000000 		.4byte	0
 1843              	.LLST12:
 1844 0172 00000000 		.4byte	.LVL21
 1845 0176 0B000000 		.4byte	.LVL24-1
 1846 017a 0100     		.2byte	0x1
 1847 017c 51       		.byte	0x51
 1848 017d 0B000000 		.4byte	.LVL24-1
 1849 0181 14000000 		.4byte	.LFE9
 1850 0185 0400     		.2byte	0x4
 1851 0187 F3       		.byte	0xf3
 1852 0188 01       		.uleb128 0x1
 1853 0189 51       		.byte	0x51
 1854 018a 9F       		.byte	0x9f
 1855 018b 00000000 		.4byte	0
 1856 018f 00000000 		.4byte	0
 1857              	.LLST13:
 1858 0193 08000000 		.4byte	.LVL23
 1859 0197 0B000000 		.4byte	.LVL24-1
 1860 019b 0100     		.2byte	0x1
 1861 019d 53       		.byte	0x53
 1862 019e 00000000 		.4byte	0
 1863 01a2 00000000 		.4byte	0
 1864              	.LLST14:
 1865 01a6 12000000 		.4byte	.LVL26
 1866 01aa 14000000 		.4byte	.LFE9
 1867 01ae 0100     		.2byte	0x1
 1868 01b0 53       		.byte	0x53
 1869 01b1 00000000 		.4byte	0
 1870 01b5 00000000 		.4byte	0
 1871              		.section	.debug_aranges,"",%progbits
 1872 0000 2C000000 		.4byte	0x2c
 1873 0004 0200     		.2byte	0x2
 1874 0006 00000000 		.4byte	.Ldebug_info0
 1875 000a 04       		.byte	0x4
 1876 000b 00       		.byte	0
 1877 000c 0000     		.2byte	0
 1878 000e 0000     		.2byte	0
 1879 0010 00000000 		.4byte	.LFB7
ARM GAS  /var/folders/dt/0wfd0knj7gs46m8vwfzktm600000gn/T//cc4ugqKe.s 			page 34


 1880 0014 40000000 		.4byte	.LFE7-.LFB7
 1881 0018 00000000 		.4byte	.LFB8
 1882 001c 3C000000 		.4byte	.LFE8-.LFB8
 1883 0020 00000000 		.4byte	.LFB9
 1884 0024 14000000 		.4byte	.LFE9-.LFB9
 1885 0028 00000000 		.4byte	0
 1886 002c 00000000 		.4byte	0
 1887              		.section	.debug_ranges,"",%progbits
 1888              	.Ldebug_ranges0:
 1889 0000 14000000 		.4byte	.LBB11
 1890 0004 16000000 		.4byte	.LBE11
 1891 0008 18000000 		.4byte	.LBB15
 1892 000c 1A000000 		.4byte	.LBE15
 1893 0010 1C000000 		.4byte	.LBB16
 1894 0014 22000000 		.4byte	.LBE16
 1895 0018 00000000 		.4byte	0
 1896 001c 00000000 		.4byte	0
 1897 0020 00000000 		.4byte	.LFB7
 1898 0024 40000000 		.4byte	.LFE7
 1899 0028 00000000 		.4byte	.LFB8
 1900 002c 3C000000 		.4byte	.LFE8
 1901 0030 00000000 		.4byte	.LFB9
 1902 0034 14000000 		.4byte	.LFE9
 1903 0038 00000000 		.4byte	0
 1904 003c 00000000 		.4byte	0
 1905              		.section	.debug_line,"",%progbits
 1906              	.Ldebug_line0:
 1907 0000 B1010000 		.section	.debug_str,"MS",%progbits,1
 1907      02004101 
 1907      00000201 
 1907      FB0E0D00 
 1907      01010101 
 1908              	.LASF34:
 1909 0000 705F6D73 		.ascii	"p_msg\000"
 1909      6700
 1910              	.LASF67:
 1911 0006 71756575 		.ascii	"queue_insert\000"
 1911      655F696E 
 1911      73657274 
 1911      00
 1912              	.LASF66:
 1913 0013 2F557365 		.ascii	"/Users/toxygen/Projects/UAV/Control_sytem/sw/autopi"
 1913      72732F74 
 1913      6F787967 
 1913      656E2F50 
 1913      726F6A65 
 1914 0046 6C6F742F 		.ascii	"lot/2.4.3/demos/STM32F103-sdspi\000"
 1914      322E342E 
 1914      332F6465 
 1914      6D6F732F 
 1914      53544D33 
 1915              	.LASF57:
 1916 0066 7264796D 		.ascii	"rdymsg\000"
 1916      736700
 1917              	.LASF11:
 1918 006d 6C6F6E67 		.ascii	"long long unsigned int\000"
 1918      206C6F6E 
ARM GAS  /var/folders/dt/0wfd0knj7gs46m8vwfzktm600000gn/T//cc4ugqKe.s 			page 35


 1918      6720756E 
 1918      7369676E 
 1918      65642069 
 1919              	.LASF58:
 1920 0084 65786974 		.ascii	"exitcode\000"
 1920      636F6465 
 1920      00
 1921              	.LASF23:
 1922 008d 705F7072 		.ascii	"p_prio\000"
 1922      696F00
 1923              	.LASF10:
 1924 0094 6C6F6E67 		.ascii	"long long int\000"
 1924      206C6F6E 
 1924      6720696E 
 1924      7400
 1925              	.LASF1:
 1926 00a2 7369676E 		.ascii	"signed char\000"
 1926      65642063 
 1926      68617200 
 1927              	.LASF38:
 1928 00ae 705F6D70 		.ascii	"p_mpool\000"
 1928      6F6F6C00 
 1929              	.LASF54:
 1930 00b6 6D5F7175 		.ascii	"m_queue\000"
 1930      65756500 
 1931              	.LASF7:
 1932 00be 6C6F6E67 		.ascii	"long int\000"
 1932      20696E74 
 1932      00
 1933              	.LASF62:
 1934 00c7 63684D73 		.ascii	"chMsgSend\000"
 1934      6753656E 
 1934      6400
 1935              	.LASF13:
 1936 00d1 74737461 		.ascii	"tstate_t\000"
 1936      74655F74 
 1936      00
 1937              	.LASF25:
 1938 00da 705F6E65 		.ascii	"p_newer\000"
 1938      77657200 
 1939              	.LASF48:
 1940 00e2 725F6E65 		.ascii	"r_newer\000"
 1940      77657200 
 1941              	.LASF41:
 1942 00ea 72656761 		.ascii	"regarm_t\000"
 1942      726D5F74 
 1942      00
 1943              	.LASF19:
 1944 00f3 636E745F 		.ascii	"cnt_t\000"
 1944      7400
 1945              	.LASF0:
 1946 00f9 756E7369 		.ascii	"unsigned int\000"
 1946      676E6564 
 1946      20696E74 
 1946      00
 1947              	.LASF9:
 1948 0106 6C6F6E67 		.ascii	"long unsigned int\000"
ARM GAS  /var/folders/dt/0wfd0knj7gs46m8vwfzktm600000gn/T//cc4ugqKe.s 			page 36


 1948      20756E73 
 1948      69676E65 
 1948      6420696E 
 1948      7400
 1949              	.LASF43:
 1950 0118 636F6E74 		.ascii	"context\000"
 1950      65787400 
 1951              	.LASF4:
 1952 0120 73686F72 		.ascii	"short unsigned int\000"
 1952      7420756E 
 1952      7369676E 
 1952      65642069 
 1952      6E7400
 1953              	.LASF16:
 1954 0133 6D73675F 		.ascii	"msg_t\000"
 1954      7400
 1955              	.LASF12:
 1956 0139 746D6F64 		.ascii	"tmode_t\000"
 1956      655F7400 
 1957              	.LASF40:
 1958 0141 54687265 		.ascii	"ThreadsList\000"
 1958      6164734C 
 1958      69737400 
 1959              	.LASF17:
 1960 014d 6576656E 		.ascii	"eventmask_t\000"
 1960      746D6173 
 1960      6B5F7400 
 1961              	.LASF53:
 1962 0159 4D757465 		.ascii	"Mutex\000"
 1962      7800
 1963              	.LASF44:
 1964 015f 73697A65 		.ascii	"sizetype\000"
 1964      74797065 
 1964      00
 1965              	.LASF26:
 1966 0168 705F6F6C 		.ascii	"p_older\000"
 1966      64657200 
 1967              	.LASF47:
 1968 0170 725F6374 		.ascii	"r_ctx\000"
 1968      7800
 1969              	.LASF39:
 1970 0176 54687265 		.ascii	"ThreadsQueue\000"
 1970      61647351 
 1970      75657565 
 1970      00
 1971              	.LASF64:
 1972 0183 474E5520 		.ascii	"GNU C 4.7.2\000"
 1972      4320342E 
 1972      372E3200 
 1973              	.LASF51:
 1974 018f 725F6375 		.ascii	"r_current\000"
 1974      7272656E 
 1974      7400
 1975              	.LASF49:
 1976 0199 725F6F6C 		.ascii	"r_older\000"
 1976      64657200 
 1977              	.LASF14:
ARM GAS  /var/folders/dt/0wfd0knj7gs46m8vwfzktm600000gn/T//cc4ugqKe.s 			page 37


 1978 01a1 74726566 		.ascii	"trefs_t\000"
 1978      735F7400 
 1979              	.LASF22:
 1980 01a9 705F7072 		.ascii	"p_prev\000"
 1980      657600
 1981              	.LASF15:
 1982 01b0 74707269 		.ascii	"tprio_t\000"
 1982      6F5F7400 
 1983              	.LASF6:
 1984 01b8 696E7433 		.ascii	"int32_t\000"
 1984      325F7400 
 1985              	.LASF2:
 1986 01c0 756E7369 		.ascii	"unsigned char\000"
 1986      676E6564 
 1986      20636861 
 1986      7200
 1987              	.LASF36:
 1988 01ce 705F6D74 		.ascii	"p_mtxlist\000"
 1988      786C6973 
 1988      7400
 1989              	.LASF3:
 1990 01d8 73686F72 		.ascii	"short int\000"
 1990      7420696E 
 1990      7400
 1991              	.LASF28:
 1992 01e2 705F7374 		.ascii	"p_state\000"
 1992      61746500 
 1993              	.LASF46:
 1994 01ea 725F7072 		.ascii	"r_prio\000"
 1994      696F00
 1995              	.LASF60:
 1996 01f1 65776D61 		.ascii	"ewmask\000"
 1996      736B00
 1997              	.LASF21:
 1998 01f8 705F6E65 		.ascii	"p_next\000"
 1998      787400
 1999              	.LASF29:
 2000 01ff 705F666C 		.ascii	"p_flags\000"
 2000      61677300 
 2001              	.LASF20:
 2002 0207 54687265 		.ascii	"Thread\000"
 2002      616400
 2003              	.LASF69:
 2004 020e 63684D73 		.ascii	"chMsgRelease\000"
 2004      6752656C 
 2004      65617365 
 2004      00
 2005              	.LASF71:
 2006 021b 63685363 		.ascii	"chSchGoSleepS\000"
 2006      68476F53 
 2006      6C656570 
 2006      5300
 2007              	.LASF35:
 2008 0229 705F6570 		.ascii	"p_epending\000"
 2008      656E6469 
 2008      6E6700
 2009              	.LASF8:
ARM GAS  /var/folders/dt/0wfd0knj7gs46m8vwfzktm600000gn/T//cc4ugqKe.s 			page 38


 2010 0234 75696E74 		.ascii	"uint32_t\000"
 2010      33325F74 
 2010      00
 2011              	.LASF45:
 2012 023d 725F7175 		.ascii	"r_queue\000"
 2012      65756500 
 2013              	.LASF72:
 2014 0245 63685363 		.ascii	"chSchReadyI\000"
 2014      68526561 
 2014      64794900 
 2015              	.LASF61:
 2016 0251 63686172 		.ascii	"char\000"
 2016      00
 2017              	.LASF68:
 2018 0256 6669666F 		.ascii	"fifo_remove\000"
 2018      5F72656D 
 2018      6F766500 
 2019              	.LASF56:
 2020 0262 6D5F6E65 		.ascii	"m_next\000"
 2020      787400
 2021              	.LASF18:
 2022 0269 73797374 		.ascii	"systime_t\000"
 2022      696D655F 
 2022      7400
 2023              	.LASF37:
 2024 0273 705F7265 		.ascii	"p_realprio\000"
 2024      616C7072 
 2024      696F00
 2025              	.LASF31:
 2026 027e 705F7469 		.ascii	"p_time\000"
 2026      6D6500
 2027              	.LASF42:
 2028 0285 696E7463 		.ascii	"intctx\000"
 2028      747800
 2029              	.LASF33:
 2030 028c 705F6D73 		.ascii	"p_msgqueue\000"
 2030      67717565 
 2030      756500
 2031              	.LASF73:
 2032 0297 63685363 		.ascii	"chSchWakeupS\000"
 2032      6857616B 
 2032      65757053 
 2032      00
 2033              	.LASF63:
 2034 02a4 63684D73 		.ascii	"chMsgWait\000"
 2034      67576169 
 2034      7400
 2035              	.LASF30:
 2036 02ae 705F7265 		.ascii	"p_refs\000"
 2036      667300
 2037              	.LASF52:
 2038 02b5 52656164 		.ascii	"ReadyList\000"
 2038      794C6973 
 2038      7400
 2039              	.LASF70:
 2040 02bf 726C6973 		.ascii	"rlist\000"
 2040      7400
ARM GAS  /var/folders/dt/0wfd0knj7gs46m8vwfzktm600000gn/T//cc4ugqKe.s 			page 39


 2041              	.LASF5:
 2042 02c5 75696E74 		.ascii	"uint8_t\000"
 2042      385F7400 
 2043              	.LASF59:
 2044 02cd 77746F62 		.ascii	"wtobjp\000"
 2044      6A7000
 2045              	.LASF27:
 2046 02d4 705F6E61 		.ascii	"p_name\000"
 2046      6D6500
 2047              	.LASF65:
 2048 02db 2E2E2F2E 		.ascii	"../../os/kernel/src/chmsg.c\000"
 2048      2E2F6F73 
 2048      2F6B6572 
 2048      6E656C2F 
 2048      7372632F 
 2049              	.LASF50:
 2050 02f7 725F7072 		.ascii	"r_preempt\000"
 2050      65656D70 
 2050      7400
 2051              	.LASF55:
 2052 0301 6D5F6F77 		.ascii	"m_owner\000"
 2052      6E657200 
 2053              	.LASF24:
 2054 0309 705F6374 		.ascii	"p_ctx\000"
 2054      7800
 2055              	.LASF32:
 2056 030f 705F7761 		.ascii	"p_waiting\000"
 2056      6974696E 
 2056      6700
 2057              		.ident	"GCC: (GNU) 4.7.2"
ARM GAS  /var/folders/dt/0wfd0knj7gs46m8vwfzktm600000gn/T//cc4ugqKe.s 			page 40


DEFINED SYMBOLS
                            *ABS*:0000000000000000 chmsg.c
/var/folders/dt/0wfd0knj7gs46m8vwfzktm600000gn/T//cc4ugqKe.s:19     .text.chMsgSend:0000000000000000 $t
/var/folders/dt/0wfd0knj7gs46m8vwfzktm600000gn/T//cc4ugqKe.s:25     .text.chMsgSend:0000000000000000 chMsgSend
/var/folders/dt/0wfd0knj7gs46m8vwfzktm600000gn/T//cc4ugqKe.s:119    .text.chMsgSend:000000000000003c $d
/var/folders/dt/0wfd0knj7gs46m8vwfzktm600000gn/T//cc4ugqKe.s:124    .text.chMsgWait:0000000000000000 $t
/var/folders/dt/0wfd0knj7gs46m8vwfzktm600000gn/T//cc4ugqKe.s:130    .text.chMsgWait:0000000000000000 chMsgWait
/var/folders/dt/0wfd0knj7gs46m8vwfzktm600000gn/T//cc4ugqKe.s:197    .text.chMsgWait:0000000000000038 $d
/var/folders/dt/0wfd0knj7gs46m8vwfzktm600000gn/T//cc4ugqKe.s:202    .text.chMsgRelease:0000000000000000 $t
/var/folders/dt/0wfd0knj7gs46m8vwfzktm600000gn/T//cc4ugqKe.s:208    .text.chMsgRelease:0000000000000000 chMsgRelease
                     .debug_frame:0000000000000010 $d
/var/folders/dt/0wfd0knj7gs46m8vwfzktm600000gn/T//cc4ugqKe.s:201    .text.chMsgWait:000000000000003c $t

UNDEFINED SYMBOLS
chSchGoSleepS
chSchReadyI
rlist
chSchWakeupS
