ARM GAS  /var/folders/dt/0wfd0knj7gs46m8vwfzktm600000gn/T//cc4ugqKe.s 			page 1


   1              		.syntax unified
   2              		.cpu cortex-m3
   3              		.fpu softvfp
   4              		.eabi_attribute 20, 1
   5              		.eabi_attribute 21, 1
   6              		.eabi_attribute 23, 3
   7              		.eabi_attribute 24, 1
   8              		.eabi_attribute 25, 1
   9              		.eabi_attribute 26, 1
  10              		.eabi_attribute 30, 2
  11              		.eabi_attribute 34, 1
  12              		.eabi_attribute 18, 4
  13              		.thumb
  14              		.file	"chmsg.c"
  15              		.text
  16              	.Ltext0:
  17              		.cfi_sections	.debug_frame
  18              		.section	.text.chMsgSend,"ax",%progbits
  19              		.align	2
  20              		.p2align 4,,15
  21              		.global	chMsgSend
  22              		.thumb
  23              		.thumb_func
  24              		.type	chMsgSend, %function
  25              	chMsgSend:
  26              	.LFB7:
  27              		.file 1 "../../os/kernel/src/chmsg.c"
  28              		.loc 1 75 0
  29              		.cfi_startproc
  30              		@ args = 0, pretend = 0, frame = 0
  31              		@ frame_needed = 0, uses_anonymous_args = 0
  32              	.LVL0:
  33 0000 70B5     		push	{r4, r5, r6, lr}
  34              	.LCFI0:
  35              		.cfi_def_cfa_offset 16
  36              		.cfi_offset 4, -16
  37              		.cfi_offset 5, -12
  38              		.cfi_offset 6, -8
  39              		.cfi_offset 14, -4
  40              		.loc 1 76 0
  41 0002 0E4B     		ldr	r3, .L5
  42 0004 DC69     		ldr	r4, [r3, #28]
  43              	.LVL1:
  44              	.LBB10:
  45              		.loc 1 80 0
  46 0006 2023     		movs	r3, #32
  47              	.LVL2:
  48              	@ 80 "../../os/kernel/src/chmsg.c" 1
  49 0008 83F31188 		msr     BASEPRI, r3
  50              	@ 0 "" 2
  51              	.LVL3:
  52              		.thumb
  53              	.LBE10:
  54              		.loc 1 82 0
  55 000c 00F12C05 		add	r5, r0, #44
  56 0010 6562     		str	r5, [r4, #36]
  57              	.LVL4:
ARM GAS  /var/folders/dt/0wfd0knj7gs46m8vwfzktm600000gn/T//cc4ugqKe.s 			page 2


  58              		.loc 1 84 0
  59 0012 067F     		ldrb	r6, [r0, #28]	@ zero_extendqisi2
  60              	.LBB11:
  61              	.LBB12:
  62              		.file 2 "../../os/kernel/include/chinline.h"
  63              		.loc 2 55 0
  64 0014 036B     		ldr	r3, [r0, #48]
  65              	.LVL5:
  66              	.LBE12:
  67              	.LBE11:
  68              		.loc 1 84 0
  69 0016 0C2E     		cmp	r6, #12
  70              	.LBB15:
  71              	.LBB13:
  72              		.loc 2 54 0
  73 0018 2560     		str	r5, [r4, #0]
  74              	.LBE13:
  75              	.LBE15:
  76              		.loc 1 81 0
  77 001a 6163     		str	r1, [r4, #52]
  78              	.LBB16:
  79              	.LBB14:
  80              		.loc 2 55 0
  81 001c 6360     		str	r3, [r4, #4]
  82              		.loc 2 56 0
  83 001e 0463     		str	r4, [r0, #48]
  84 0020 1C60     		str	r4, [r3, #0]
  85              	.LBE14:
  86              	.LBE16:
  87              		.loc 1 84 0
  88 0022 07D0     		beq	.L4
  89              	.LVL6:
  90              	.L2:
  91              		.loc 1 86 0
  92 0024 0A20     		movs	r0, #10
  93 0026 FFF7FEFF 		bl	chSchGoSleepS
  94              	.LVL7:
  95              		.loc 1 87 0
  96 002a 606A     		ldr	r0, [r4, #36]
  97              	.LVL8:
  98              	.LBB17:
  99              		.loc 1 88 0
 100 002c 0023     		movs	r3, #0
 101              	.LVL9:
 102              	@ 88 "../../os/kernel/src/chmsg.c" 1
 103 002e 83F31188 		msr     BASEPRI, r3
 104              	@ 0 "" 2
 105              	.LVL10:
 106              		.thumb
 107              	.LBE17:
 108              		.loc 1 90 0
 109 0032 70BD     		pop	{r4, r5, r6, pc}
 110              	.LVL11:
 111              	.L4:
 112              		.loc 1 85 0
 113 0034 FFF7FEFF 		bl	chSchReadyI
 114              	.LVL12:
ARM GAS  /var/folders/dt/0wfd0knj7gs46m8vwfzktm600000gn/T//cc4ugqKe.s 			page 3


 115 0038 F4E7     		b	.L2
 116              	.L6:
 117 003a 00BF     		.align	2
 118              	.L5:
 119 003c 00000000 		.word	rlist
 120              		.cfi_endproc
 121              	.LFE7:
 122              		.size	chMsgSend, .-chMsgSend
 123              		.section	.text.chMsgWait,"ax",%progbits
 124              		.align	2
 125              		.p2align 4,,15
 126              		.global	chMsgWait
 127              		.thumb
 128              		.thumb_func
 129              		.type	chMsgWait, %function
 130              	chMsgWait:
 131              	.LFB8:
 132              		.loc 1 106 0
 133              		.cfi_startproc
 134              		@ args = 0, pretend = 0, frame = 0
 135              		@ frame_needed = 0, uses_anonymous_args = 0
 136 0000 10B5     		push	{r4, lr}
 137              	.LCFI1:
 138              		.cfi_def_cfa_offset 8
 139              		.cfi_offset 4, -8
 140              		.cfi_offset 14, -4
 141              	.LBB18:
 142              		.loc 1 109 0
 143 0002 2023     		movs	r3, #32
 144              	.LVL13:
 145              	@ 109 "../../os/kernel/src/chmsg.c" 1
 146 0004 83F31188 		msr     BASEPRI, r3
 147              	@ 0 "" 2
 148              	.LVL14:
 149              		.thumb
 150              	.LBE18:
 151              		.loc 1 110 0
 152 0008 0B4C     		ldr	r4, .L10
 153 000a E369     		ldr	r3, [r4, #28]
 154              	.LVL15:
 155 000c 1A46     		mov	r2, r3
 156 000e 52F82C0F 		ldr	r0, [r2, #44]!
 157 0012 9042     		cmp	r0, r2
 158 0014 08D0     		beq	.L9
 159              	.L8:
 160              	.LVL16:
 161              	.LBB19:
 162              	.LBB20:
 163              		.loc 2 62 0
 164 0016 0168     		ldr	r1, [r0, #0]
 165 0018 D962     		str	r1, [r3, #44]
 166 001a 4A60     		str	r2, [r1, #4]
 167              	.LBE20:
 168              	.LBE19:
 169              		.loc 1 113 0
 170 001c 0B22     		movs	r2, #11
 171 001e 0277     		strb	r2, [r0, #28]
ARM GAS  /var/folders/dt/0wfd0knj7gs46m8vwfzktm600000gn/T//cc4ugqKe.s 			page 4


 172              	.LBB21:
 173              		.loc 1 114 0
 174 0020 0023     		movs	r3, #0
 175              	.LVL17:
 176              	@ 114 "../../os/kernel/src/chmsg.c" 1
 177 0022 83F31188 		msr     BASEPRI, r3
 178              	@ 0 "" 2
 179              	.LVL18:
 180              		.thumb
 181              	.LBE21:
 182              		.loc 1 116 0
 183 0026 10BD     		pop	{r4, pc}
 184              	.LVL19:
 185              	.L9:
 186              		.loc 1 111 0
 187 0028 0C20     		movs	r0, #12
 188 002a FFF7FEFF 		bl	chSchGoSleepS
 189              	.LVL20:
 190 002e E369     		ldr	r3, [r4, #28]
 191 0030 1A46     		mov	r2, r3
 192 0032 52F82C0F 		ldr	r0, [r2, #44]!
 193 0036 EEE7     		b	.L8
 194              	.L11:
 195              		.align	2
 196              	.L10:
 197 0038 00000000 		.word	rlist
 198              		.cfi_endproc
 199              	.LFE8:
 200              		.size	chMsgWait, .-chMsgWait
 201 003c AFF30080 		.section	.text.chMsgRelease,"ax",%progbits
 202              		.align	2
 203              		.p2align 4,,15
 204              		.global	chMsgRelease
 205              		.thumb
 206              		.thumb_func
 207              		.type	chMsgRelease, %function
 208              	chMsgRelease:
 209              	.LFB9:
 210              		.loc 1 128 0
 211              		.cfi_startproc
 212              		@ args = 0, pretend = 0, frame = 0
 213              		@ frame_needed = 0, uses_anonymous_args = 0
 214              	.LVL21:
 215 0000 08B5     		push	{r3, lr}
 216              	.LCFI2:
 217              		.cfi_def_cfa_offset 8
 218              		.cfi_offset 3, -8
 219              		.cfi_offset 14, -4
 220              	.LBB22:
 221              		.loc 1 130 0
 222 0002 2023     		movs	r3, #32
 223              	.LVL22:
 224              	@ 130 "../../os/kernel/src/chmsg.c" 1
 225 0004 83F31188 		msr     BASEPRI, r3
 226              	@ 0 "" 2
 227              	.LVL23:
 228              		.thumb
ARM GAS  /var/folders/dt/0wfd0knj7gs46m8vwfzktm600000gn/T//cc4ugqKe.s 			page 5


 229              	.LBE22:
 230              		.loc 1 133 0
 231 0008 FFF7FEFF 		bl	chSchWakeupS
 232              	.LVL24:
 233              	.LBB23:
 234              		.loc 1 134 0
 235 000c 0023     		movs	r3, #0
 236              	.LVL25:
 237              	@ 134 "../../os/kernel/src/chmsg.c" 1
 238 000e 83F31188 		msr     BASEPRI, r3
 239              	@ 0 "" 2
 240              	.LVL26:
 241              		.thumb
 242 0012 08BD     		pop	{r3, pc}
 243              	.LBE23:
 244              		.cfi_endproc
 245              	.LFE9:
 246              		.size	chMsgRelease, .-chMsgRelease
 247 0014 AFF30080 		.text
 247      AFF30080 
 247      AFF30080 
 248              	.Letext0:
 249              		.file 3 "/Users/toxygen/Applications/yagarto-4.7.2/bin/../lib/gcc/arm-none-eabi/4.7.2/../../../../
 250              		.file 4 "../../os/ports/GCC/ARMCMx/chtypes.h"
 251              		.file 5 "../../os/kernel/include/chlists.h"
 252              		.file 6 "../../os/kernel/include/chthreads.h"
 253              		.file 7 "../../os/ports/GCC/ARMCMx/chcore_v7m.h"
 254              		.file 8 "../../os/kernel/include/chschd.h"
 255              		.file 9 "../../os/kernel/include/chmtx.h"