ARM GAS  /var/folders/dt/0wfd0knj7gs46m8vwfzktm600000gn/T//ccyjEPOf.s 			page 1


   1              		.syntax unified
   2              		.cpu cortex-m3
   3              		.fpu softvfp
   4              		.eabi_attribute 20, 1
   5              		.eabi_attribute 21, 1
   6              		.eabi_attribute 23, 3
   7              		.eabi_attribute 24, 1
   8              		.eabi_attribute 25, 1
   9              		.eabi_attribute 26, 1
  10              		.eabi_attribute 30, 2
  11              		.eabi_attribute 34, 1
  12              		.eabi_attribute 18, 4
  13              		.thumb
  14              		.file	"chmtx.c"
  15              		.text
  16              	.Ltext0:
  17              		.cfi_sections	.debug_frame
  18              		.section	.text.chMtxInit,"ax",%progbits
  19              		.align	2
  20              		.p2align 4,,15
  21              		.global	chMtxInit
  22              		.thumb
  23              		.thumb_func
  24              		.type	chMtxInit, %function
  25              	chMtxInit:
  26              	.LFB7:
  27              		.file 1 "../../os/kernel/src/chmtx.c"
  28              		.loc 1 86 0
  29              		.cfi_startproc
  30              		@ args = 0, pretend = 0, frame = 0
  31              		@ frame_needed = 0, uses_anonymous_args = 0
  32              		@ link register save eliminated.
  33              	.LVL0:
  34              		.loc 1 91 0
  35 0000 0023     		movs	r3, #0
  36              		.loc 1 90 0
  37 0002 4060     		str	r0, [r0, #4]
  38 0004 0060     		str	r0, [r0, #0]
  39              		.loc 1 91 0
  40 0006 8360     		str	r3, [r0, #8]
  41 0008 7047     		bx	lr
  42              		.cfi_endproc
  43              	.LFE7:
  44              		.size	chMtxInit, .-chMtxInit
  45 000a 00BFAFF3 		.section	.text.chMtxLockS,"ax",%progbits
  45      0080
  46              		.align	2
  47              		.p2align 4,,15
  48              		.global	chMtxLockS
  49              		.thumb
  50              		.thumb_func
  51              		.type	chMtxLockS, %function
  52              	chMtxLockS:
  53              	.LFB9:
  54              		.loc 1 121 0
  55              		.cfi_startproc
  56              		@ args = 0, pretend = 0, frame = 0
ARM GAS  /var/folders/dt/0wfd0knj7gs46m8vwfzktm600000gn/T//ccyjEPOf.s 			page 2


  57              		@ frame_needed = 0, uses_anonymous_args = 0
  58              	.LVL1:
  59 0000 F8B5     		push	{r3, r4, r5, r6, r7, lr}
  60              	.LCFI0:
  61              		.cfi_def_cfa_offset 24
  62              		.cfi_offset 3, -24
  63              		.cfi_offset 4, -20
  64              		.cfi_offset 5, -16
  65              		.cfi_offset 6, -12
  66              		.cfi_offset 7, -8
  67              		.cfi_offset 14, -4
  68              		.loc 1 122 0
  69 0002 2F4A     		ldr	r2, .L27
  70              		.loc 1 128 0
  71 0004 8368     		ldr	r3, [r0, #8]
  72              		.loc 1 121 0
  73 0006 0546     		mov	r5, r0
  74              		.loc 1 122 0
  75 0008 D469     		ldr	r4, [r2, #28]
  76              	.LVL2:
  77              		.loc 1 128 0
  78 000a 002B     		cmp	r3, #0
  79 000c 51D0     		beq	.L3
  80              	.LVL3:
  81              	.LBB33:
  82              		.loc 1 135 0 discriminator 1
  83 000e A168     		ldr	r1, [r4, #8]
  84 0010 9A68     		ldr	r2, [r3, #8]
  85 0012 9142     		cmp	r1, r2
  86 0014 06D9     		bls	.L5
  87              	.LVL4:
  88              	.L20:
  89              		.loc 1 139 0
  90 0016 1A7F     		ldrb	r2, [r3, #28]	@ zero_extendqisi2
  91              		.loc 1 137 0
  92 0018 9960     		str	r1, [r3, #8]
  93              		.loc 1 139 0
  94 001a 042A     		cmp	r2, #4
  95 001c 31D0     		beq	.L7
  96 001e 052A     		cmp	r2, #5
  97 0020 1CD0     		beq	.L8
  98 0022 92B1     		cbz	r2, .L6
  99              	.LVL5:
 100              	.L5:
 101              		.file 2 "../../os/kernel/include/chinline.h"
 102              		.loc 2 43 0
 103 0024 2B46     		mov	r3, r5
 104              	.LVL6:
 105              	.L18:
 106              	.LBB34:
 107              	.LBB35:
 108              		.loc 2 45 0
 109 0026 1B68     		ldr	r3, [r3, #0]
 110              	.LVL7:
 111              		.loc 2 46 0
 112 0028 9D42     		cmp	r5, r3
 113 002a 03D0     		beq	.L19
ARM GAS  /var/folders/dt/0wfd0knj7gs46m8vwfzktm600000gn/T//ccyjEPOf.s 			page 3


 114 002c 9968     		ldr	r1, [r3, #8]
 115 002e A268     		ldr	r2, [r4, #8]
 116 0030 9142     		cmp	r1, r2
 117 0032 F8D2     		bcs	.L18
 118              	.L19:
 119              		.loc 2 48 0
 120 0034 5A68     		ldr	r2, [r3, #4]
 121              	.LBE35:
 122              	.LBE34:
 123              		.loc 1 175 0
 124 0036 0420     		movs	r0, #4
 125              	.LBB37:
 126              	.LBB36:
 127              		.loc 2 47 0
 128 0038 2360     		str	r3, [r4, #0]
 129              		.loc 2 48 0
 130 003a 6260     		str	r2, [r4, #4]
 131              		.loc 2 49 0
 132 003c 1460     		str	r4, [r2, #0]
 133 003e 5C60     		str	r4, [r3, #4]
 134              	.LBE36:
 135              	.LBE37:
 136              		.loc 1 174 0
 137 0040 6562     		str	r5, [r4, #36]
 138              	.LBE33:
 139              		.loc 1 187 0
 140 0042 BDE8F840 		pop	{r3, r4, r5, r6, r7, lr}
 141              	.LBB60:
 142              		.loc 1 175 0
 143 0046 FFF7FEBF 		b	chSchGoSleepS
 144              	.LVL8:
 145              	.L6:
 146              	.LBB38:
 147              	.LBB39:
 148              		.loc 2 75 0
 149 004a 93E80600 		ldmia	r3, {r1, r2}
 150 004e 1160     		str	r1, [r2, #0]
 151              	.LBE39:
 152              	.LBE38:
 153              		.loc 1 167 0
 154 0050 1846     		mov	r0, r3
 155              	.LBB41:
 156              	.LBB40:
 157              		.loc 2 76 0
 158 0052 1B68     		ldr	r3, [r3, #0]
 159              	.LVL9:
 160 0054 5A60     		str	r2, [r3, #4]
 161              	.LBE40:
 162              	.LBE41:
 163              		.loc 1 167 0
 164 0056 FFF7FEFF 		bl	chSchReadyI
 165              	.LVL10:
 166              		.loc 1 168 0
 167 005a E3E7     		b	.L5
 168              	.LVL11:
 169              	.L8:
 170              	.LBB42:
ARM GAS  /var/folders/dt/0wfd0knj7gs46m8vwfzktm600000gn/T//ccyjEPOf.s 			page 4


 171              	.LBB43:
 172              		.loc 2 75 0
 173 005c 5868     		ldr	r0, [r3, #4]
 174 005e 1A68     		ldr	r2, [r3, #0]
 175              	.LBE43:
 176              	.LBE42:
 177              		.loc 1 158 0
 178 0060 5E6A     		ldr	r6, [r3, #36]
 179              	.LVL12:
 180              	.LBB46:
 181              	.LBB44:
 182              		.loc 2 75 0
 183 0062 0260     		str	r2, [r0, #0]
 184              		.loc 2 76 0
 185 0064 1F68     		ldr	r7, [r3, #0]
 186              	.LBE44:
 187              	.LBE46:
 188              		.loc 2 43 0
 189 0066 3246     		mov	r2, r6
 190              	.LBB47:
 191              	.LBB45:
 192              		.loc 2 76 0
 193 0068 7860     		str	r0, [r7, #4]
 194              	.LVL13:
 195              	.L15:
 196              	.LBE45:
 197              	.LBE47:
 198              	.LBB48:
 199              	.LBB49:
 200              		.loc 2 45 0
 201 006a 1268     		ldr	r2, [r2, #0]
 202              	.LVL14:
 203              		.loc 2 46 0
 204 006c 9642     		cmp	r6, r2
 205 006e 02D0     		beq	.L16
 206 0070 9068     		ldr	r0, [r2, #8]
 207 0072 8842     		cmp	r0, r1
 208 0074 F9D2     		bcs	.L15
 209              	.L16:
 210              		.loc 2 48 0
 211 0076 5168     		ldr	r1, [r2, #4]
 212              		.loc 2 47 0
 213 0078 1A60     		str	r2, [r3, #0]
 214              		.loc 2 48 0
 215 007a 5960     		str	r1, [r3, #4]
 216              		.loc 2 49 0
 217 007c 0B60     		str	r3, [r1, #0]
 218 007e 5360     		str	r3, [r2, #4]
 219 0080 D0E7     		b	.L5
 220              	.LVL15:
 221              	.L7:
 222              	.LBE49:
 223              	.LBE48:
 224              	.LBB50:
 225              	.LBB51:
 226              		.loc 2 75 0
 227 0082 5868     		ldr	r0, [r3, #4]
ARM GAS  /var/folders/dt/0wfd0knj7gs46m8vwfzktm600000gn/T//ccyjEPOf.s 			page 5


 228 0084 1A68     		ldr	r2, [r3, #0]
 229              	.LBE51:
 230              	.LBE50:
 231              		.loc 1 142 0
 232 0086 5E6A     		ldr	r6, [r3, #36]
 233              	.LVL16:
 234              	.LBB54:
 235              	.LBB52:
 236              		.loc 2 75 0
 237 0088 0260     		str	r2, [r0, #0]
 238              		.loc 2 76 0
 239 008a 1F68     		ldr	r7, [r3, #0]
 240              	.LBE52:
 241              	.LBE54:
 242              		.loc 1 142 0
 243 008c 3246     		mov	r2, r6
 244              	.LBB55:
 245              	.LBB53:
 246              		.loc 2 76 0
 247 008e 7860     		str	r0, [r7, #4]
 248              	.LVL17:
 249              	.L12:
 250              	.LBE53:
 251              	.LBE55:
 252              	.LBB56:
 253              	.LBB57:
 254              		.loc 2 45 0
 255 0090 1268     		ldr	r2, [r2, #0]
 256              	.LVL18:
 257              		.loc 2 46 0
 258 0092 9642     		cmp	r6, r2
 259 0094 12D0     		beq	.L26
 260 0096 9068     		ldr	r0, [r2, #8]
 261 0098 8842     		cmp	r0, r1
 262 009a F9D2     		bcs	.L12
 263              	.LVL19:
 264              	.L13:
 265              		.loc 2 48 0
 266 009c 5168     		ldr	r1, [r2, #4]
 267              		.loc 2 47 0
 268 009e 1A60     		str	r2, [r3, #0]
 269              		.loc 2 48 0
 270 00a0 5960     		str	r1, [r3, #4]
 271              		.loc 2 49 0
 272 00a2 0B60     		str	r3, [r1, #0]
 273 00a4 5360     		str	r3, [r2, #4]
 274              	.LBE57:
 275              	.LBE56:
 276              		.loc 1 143 0
 277 00a6 B368     		ldr	r3, [r6, #8]
 278              	.LVL20:
 279              		.loc 1 135 0
 280 00a8 A168     		ldr	r1, [r4, #8]
 281 00aa 9A68     		ldr	r2, [r3, #8]
 282              	.LVL21:
 283 00ac 8A42     		cmp	r2, r1
 284 00ae B2D3     		bcc	.L20
ARM GAS  /var/folders/dt/0wfd0knj7gs46m8vwfzktm600000gn/T//ccyjEPOf.s 			page 6


 285 00b0 B8E7     		b	.L5
 286              	.LVL22:
 287              	.L3:
 288              	.LBE60:
 289              		.loc 1 184 0
 290 00b2 E36B     		ldr	r3, [r4, #60]
 291              		.loc 1 183 0
 292 00b4 8460     		str	r4, [r0, #8]
 293              		.loc 1 184 0
 294 00b6 C360     		str	r3, [r0, #12]
 295              		.loc 1 185 0
 296 00b8 E063     		str	r0, [r4, #60]
 297 00ba F8BD     		pop	{r3, r4, r5, r6, r7, pc}
 298              	.LVL23:
 299              	.L26:
 300              	.LBB61:
 301              	.LBB59:
 302              	.LBB58:
 303              		.loc 2 46 0
 304 00bc 3246     		mov	r2, r6
 305              	.LVL24:
 306 00be EDE7     		b	.L13
 307              	.L28:
 308              		.align	2
 309              	.L27:
 310 00c0 00000000 		.word	rlist
 311              	.LBE58:
 312              	.LBE59:
 313              	.LBE61:
 314              		.cfi_endproc
 315              	.LFE9:
 316              		.size	chMtxLockS, .-chMtxLockS
 317 00c4 AFF30080 		.section	.text.chMtxLock,"ax",%progbits
 317      AFF30080 
 317      AFF30080 
 318              		.align	2
 319              		.p2align 4,,15
 320              		.global	chMtxLock
 321              		.thumb
 322              		.thumb_func
 323              		.type	chMtxLock, %function
 324              	chMtxLock:
 325              	.LFB8:
 326              		.loc 1 103 0
 327              		.cfi_startproc
 328              		@ args = 0, pretend = 0, frame = 0
 329              		@ frame_needed = 0, uses_anonymous_args = 0
 330              	.LVL25:
 331 0000 08B5     		push	{r3, lr}
 332              	.LCFI1:
 333              		.cfi_def_cfa_offset 8
 334              		.cfi_offset 3, -8
 335              		.cfi_offset 14, -4
 336              	.LBB62:
 337              		.loc 1 105 0
 338 0002 2023     		movs	r3, #32
 339              	.LVL26:
ARM GAS  /var/folders/dt/0wfd0knj7gs46m8vwfzktm600000gn/T//ccyjEPOf.s 			page 7


 340              	@ 105 "../../os/kernel/src/chmtx.c" 1
 341 0004 83F31188 		msr     BASEPRI, r3
 342              	@ 0 "" 2
 343              	.LVL27:
 344              		.thumb
 345              	.LBE62:
 346              		.loc 1 107 0
 347 0008 FFF7FEFF 		bl	chMtxLockS
 348              	.LVL28:
 349              	.LBB63:
 350              		.loc 1 109 0
 351 000c 0023     		movs	r3, #0
 352              	.LVL29:
 353              	@ 109 "../../os/kernel/src/chmtx.c" 1
 354 000e 83F31188 		msr     BASEPRI, r3
 355              	@ 0 "" 2
 356              	.LVL30:
 357              		.thumb
 358 0012 08BD     		pop	{r3, pc}
 359              	.LBE63:
 360              		.cfi_endproc
 361              	.LFE8:
 362              		.size	chMtxLock, .-chMtxLock
 363 0014 AFF30080 		.section	.text.chMtxTryLock,"ax",%progbits
 363      AFF30080 
 363      AFF30080 
 364              		.align	2
 365              		.p2align 4,,15
 366              		.global	chMtxTryLock
 367              		.thumb
 368              		.thumb_func
 369              		.type	chMtxTryLock, %function
 370              	chMtxTryLock:
 371              	.LFB10:
 372              		.loc 1 206 0
 373              		.cfi_startproc
 374              		@ args = 0, pretend = 0, frame = 0
 375              		@ frame_needed = 0, uses_anonymous_args = 0
 376              		@ link register save eliminated.
 377              	.LVL31:
 378              		.loc 1 206 0
 379 0000 0246     		mov	r2, r0
 380              	.LBB64:
 381              		.loc 1 209 0
 382 0002 2023     		movs	r3, #32
 383              	.LVL32:
 384              	@ 209 "../../os/kernel/src/chmtx.c" 1
 385 0004 83F31188 		msr     BASEPRI, r3
 386              	@ 0 "" 2
 387              	.LVL33:
 388              		.thumb
 389              	.LBE64:
 390              	.LBB65:
 391              	.LBB66:
 392              		.loc 1 239 0
 393 0008 8368     		ldr	r3, [r0, #8]
 394              	.LVL34:
ARM GAS  /var/folders/dt/0wfd0knj7gs46m8vwfzktm600000gn/T//ccyjEPOf.s 			page 8


 395              		.loc 1 240 0
 396 000a 0020     		movs	r0, #0
 397              	.LVL35:
 398              		.loc 1 239 0
 399 000c 1BB1     		cbz	r3, .L33
 400              	.L31:
 401              	.LBE66:
 402              	.LBE65:
 403              	.LBB68:
 404              		.loc 1 213 0
 405 000e 0023     		movs	r3, #0
 406              	.LVL36:
 407              	@ 213 "../../os/kernel/src/chmtx.c" 1
 408 0010 83F31188 		msr     BASEPRI, r3
 409              	@ 0 "" 2
 410              	.LVL37:
 411              		.thumb
 412              	.LBE68:
 413              		.loc 1 215 0
 414 0014 7047     		bx	lr
 415              	.LVL38:
 416              	.L33:
 417              	.LBB69:
 418              	.LBB67:
 419              		.loc 1 241 0
 420 0016 044B     		ldr	r3, .L34
 421              		.loc 1 244 0
 422 0018 0120     		movs	r0, #1
 423              		.loc 1 241 0
 424 001a DB69     		ldr	r3, [r3, #28]
 425              		.loc 1 242 0
 426 001c D96B     		ldr	r1, [r3, #60]
 427              		.loc 1 241 0
 428 001e 9360     		str	r3, [r2, #8]
 429              		.loc 1 242 0
 430 0020 D160     		str	r1, [r2, #12]
 431              		.loc 1 243 0
 432 0022 DA63     		str	r2, [r3, #60]
 433 0024 F3E7     		b	.L31
 434              	.L35:
 435 0026 00BF     		.align	2
 436              	.L34:
 437 0028 00000000 		.word	rlist
 438              	.LBE67:
 439              	.LBE69:
 440              		.cfi_endproc
 441              	.LFE10:
 442              		.size	chMtxTryLock, .-chMtxTryLock
 443 002c AFF30080 		.section	.text.chMtxTryLockS,"ax",%progbits
 444              		.align	2
 445              		.p2align 4,,15
 446              		.global	chMtxTryLockS
 447              		.thumb
 448              		.thumb_func
 449              		.type	chMtxTryLockS, %function
 450              	chMtxTryLockS:
 451              	.LFB11:
ARM GAS  /var/folders/dt/0wfd0knj7gs46m8vwfzktm600000gn/T//ccyjEPOf.s 			page 9


 452              		.loc 1 234 0
 453              		.cfi_startproc
 454              		@ args = 0, pretend = 0, frame = 0
 455              		@ frame_needed = 0, uses_anonymous_args = 0
 456              		@ link register save eliminated.
 457              	.LVL39:
 458              		.loc 1 239 0
 459 0000 8268     		ldr	r2, [r0, #8]
 460              		.loc 1 234 0
 461 0002 0346     		mov	r3, r0
 462              		.loc 1 239 0
 463 0004 0AB1     		cbz	r2, .L39
 464              		.loc 1 240 0
 465 0006 0020     		movs	r0, #0
 466              	.LVL40:
 467              		.loc 1 245 0
 468 0008 7047     		bx	lr
 469              	.LVL41:
 470              	.L39:
 471              		.loc 1 241 0
 472 000a 044A     		ldr	r2, .L40
 473              		.loc 1 244 0
 474 000c 0120     		movs	r0, #1
 475              	.LVL42:
 476              		.loc 1 241 0
 477 000e D269     		ldr	r2, [r2, #28]
 478              		.loc 1 242 0
 479 0010 D16B     		ldr	r1, [r2, #60]
 480              		.loc 1 241 0
 481 0012 9A60     		str	r2, [r3, #8]
 482              		.loc 1 242 0
 483 0014 D960     		str	r1, [r3, #12]
 484              		.loc 1 243 0
 485 0016 D363     		str	r3, [r2, #60]
 486              		.loc 1 244 0
 487 0018 7047     		bx	lr
 488              	.L41:
 489 001a 00BF     		.align	2
 490              	.L40:
 491 001c 00000000 		.word	rlist
 492              		.cfi_endproc
 493              	.LFE11:
 494              		.size	chMtxTryLockS, .-chMtxTryLockS
 495              		.section	.text.chMtxUnlock,"ax",%progbits
 496              		.align	2
 497              		.p2align 4,,15
 498              		.global	chMtxUnlock
 499              		.thumb
 500              		.thumb_func
 501              		.type	chMtxUnlock, %function
 502              	chMtxUnlock:
 503              	.LFB12:
 504              		.loc 1 257 0
 505              		.cfi_startproc
 506              		@ args = 0, pretend = 0, frame = 0
 507              		@ frame_needed = 0, uses_anonymous_args = 0
 508              		.loc 1 258 0
ARM GAS  /var/folders/dt/0wfd0knj7gs46m8vwfzktm600000gn/T//ccyjEPOf.s 			page 10


 509 0000 154A     		ldr	r2, .L53
 510              		.loc 1 257 0
 511 0002 38B5     		push	{r3, r4, r5, lr}
 512              	.LCFI2:
 513              		.cfi_def_cfa_offset 16
 514              		.cfi_offset 3, -16
 515              		.cfi_offset 4, -12
 516              		.cfi_offset 5, -8
 517              		.cfi_offset 14, -4
 518              		.loc 1 258 0
 519 0004 D069     		ldr	r0, [r2, #28]
 520              	.LVL43:
 521              	.LBB70:
 522              		.loc 1 261 0
 523 0006 2023     		movs	r3, #32
 524              	.LVL44:
 525              	@ 261 "../../os/kernel/src/chmtx.c" 1
 526 0008 83F31188 		msr     BASEPRI, r3
 527              	@ 0 "" 2
 528              	.LVL45:
 529              		.thumb
 530              	.LBE70:
 531              		.loc 1 270 0
 532 000c C46B     		ldr	r4, [r0, #60]
 533              	.LVL46:
 534              		.loc 1 273 0
 535 000e 2568     		ldr	r5, [r4, #0]
 536              		.loc 1 271 0
 537 0010 E368     		ldr	r3, [r4, #12]
 538              	.LVL47:
 539              		.loc 1 273 0
 540 0012 A542     		cmp	r5, r4
 541              		.loc 1 271 0
 542 0014 C363     		str	r3, [r0, #60]
 543              		.loc 1 273 0
 544 0016 1CD0     		beq	.L43
 545              	.LBB71:
 546              		.loc 1 278 0
 547 0018 016C     		ldr	r1, [r0, #64]
 548              	.LVL48:
 549              		.loc 1 280 0
 550 001a 4BB1     		cbz	r3, .L44
 551              	.L50:
 552              		.loc 1 284 0
 553 001c 1A68     		ldr	r2, [r3, #0]
 554 001e 9A42     		cmp	r2, r3
 555 0020 03D0     		beq	.L45
 556              		.loc 1 284 0 is_stmt 0 discriminator 1
 557 0022 9268     		ldr	r2, [r2, #8]
 558 0024 9142     		cmp	r1, r2
 559 0026 38BF     		it	cc
 560 0028 1146     		movcc	r1, r2
 561              	.LVL49:
 562              	.L45:
 563              		.loc 1 286 0 is_stmt 1
 564 002a DB68     		ldr	r3, [r3, #12]
 565              	.LVL50:
ARM GAS  /var/folders/dt/0wfd0knj7gs46m8vwfzktm600000gn/T//ccyjEPOf.s 			page 11


 566              		.loc 1 280 0
 567 002c 002B     		cmp	r3, #0
 568 002e F5D1     		bne	.L50
 569              	.L44:
 570              	.LBB72:
 571              	.LBB73:
 572              		.loc 2 62 0
 573 0030 2B68     		ldr	r3, [r5, #0]
 574              	.LVL51:
 575              	.LBE73:
 576              	.LBE72:
 577              		.loc 1 295 0
 578 0032 EA6B     		ldr	r2, [r5, #60]
 579              		.loc 1 290 0
 580 0034 8160     		str	r1, [r0, #8]
 581              	.LVL52:
 582              	.LBB76:
 583              	.LBB74:
 584              		.loc 2 62 0
 585 0036 2360     		str	r3, [r4, #0]
 586              	.LBE74:
 587              	.LBE76:
 588              		.loc 1 297 0
 589 0038 2846     		mov	r0, r5
 590              	.LVL53:
 591              	.LBB77:
 592              	.LBB75:
 593              		.loc 2 62 0
 594 003a 5C60     		str	r4, [r3, #4]
 595              	.LBE75:
 596              	.LBE77:
 597              		.loc 1 297 0
 598 003c 0021     		movs	r1, #0
 599              	.LVL54:
 600              		.loc 1 294 0
 601 003e A560     		str	r5, [r4, #8]
 602              		.loc 1 295 0
 603 0040 E260     		str	r2, [r4, #12]
 604              		.loc 1 296 0
 605 0042 EC63     		str	r4, [r5, #60]
 606              		.loc 1 297 0
 607 0044 FFF7FEFF 		bl	chSchWakeupS
 608              	.LVL55:
 609              	.L47:
 610              	.LBE71:
 611              	.LBB78:
 612              		.loc 1 301 0
 613 0048 0023     		movs	r3, #0
 614              	.LVL56:
 615              	@ 301 "../../os/kernel/src/chmtx.c" 1
 616 004a 83F31188 		msr     BASEPRI, r3
 617              	@ 0 "" 2
 618              	.LVL57:
 619              		.thumb
 620              	.LBE78:
 621              		.loc 1 303 0
 622 004e 2046     		mov	r0, r4
ARM GAS  /var/folders/dt/0wfd0knj7gs46m8vwfzktm600000gn/T//ccyjEPOf.s 			page 12


 623 0050 38BD     		pop	{r3, r4, r5, pc}
 624              	.LVL58:
 625              	.L43:
 626              		.loc 1 300 0
 627 0052 0023     		movs	r3, #0
 628 0054 A360     		str	r3, [r4, #8]
 629 0056 F7E7     		b	.L47
 630              	.L54:
 631              		.align	2
 632              	.L53:
 633 0058 00000000 		.word	rlist
 634              		.cfi_endproc
 635              	.LFE12:
 636              		.size	chMtxUnlock, .-chMtxUnlock
 637 005c AFF30080 		.section	.text.chMtxUnlockS,"ax",%progbits
 638              		.align	2
 639              		.p2align 4,,15
 640              		.global	chMtxUnlockS
 641              		.thumb
 642              		.thumb_func
 643              		.type	chMtxUnlockS, %function
 644              	chMtxUnlockS:
 645              	.LFB13:
 646              		.loc 1 317 0
 647              		.cfi_startproc
 648              		@ args = 0, pretend = 0, frame = 0
 649              		@ frame_needed = 0, uses_anonymous_args = 0
 650 0000 38B5     		push	{r3, r4, r5, lr}
 651              	.LCFI3:
 652              		.cfi_def_cfa_offset 16
 653              		.cfi_offset 3, -16
 654              		.cfi_offset 4, -12
 655              		.cfi_offset 5, -8
 656              		.cfi_offset 14, -4
 657              		.loc 1 318 0
 658 0002 124B     		ldr	r3, .L66
 659 0004 D869     		ldr	r0, [r3, #28]
 660              	.LVL59:
 661              		.loc 1 331 0
 662 0006 C46B     		ldr	r4, [r0, #60]
 663              	.LVL60:
 664              		.loc 1 334 0
 665 0008 2568     		ldr	r5, [r4, #0]
 666              		.loc 1 332 0
 667 000a E368     		ldr	r3, [r4, #12]
 668              		.loc 1 334 0
 669 000c A542     		cmp	r5, r4
 670              		.loc 1 332 0
 671 000e C363     		str	r3, [r0, #60]
 672              		.loc 1 334 0
 673 0010 18D0     		beq	.L56
 674              	.LBB79:
 675              		.loc 1 339 0
 676 0012 016C     		ldr	r1, [r0, #64]
 677              	.LVL61:
 678              		.loc 1 341 0
 679 0014 4BB1     		cbz	r3, .L57
ARM GAS  /var/folders/dt/0wfd0knj7gs46m8vwfzktm600000gn/T//ccyjEPOf.s 			page 13


 680              	.L63:
 681              		.loc 1 345 0
 682 0016 1A68     		ldr	r2, [r3, #0]
 683 0018 9A42     		cmp	r2, r3
 684 001a 03D0     		beq	.L58
 685              		.loc 1 345 0 is_stmt 0 discriminator 1
 686 001c 9268     		ldr	r2, [r2, #8]
 687 001e 9142     		cmp	r1, r2
 688 0020 38BF     		it	cc
 689 0022 1146     		movcc	r1, r2
 690              	.LVL62:
 691              	.L58:
 692              		.loc 1 347 0 is_stmt 1
 693 0024 DB68     		ldr	r3, [r3, #12]
 694              	.LVL63:
 695              		.loc 1 341 0
 696 0026 002B     		cmp	r3, #0
 697 0028 F5D1     		bne	.L63
 698              	.L57:
 699              	.LBB80:
 700              	.LBB81:
 701              		.loc 2 62 0
 702 002a 2B68     		ldr	r3, [r5, #0]
 703              	.LVL64:
 704              	.LBE81:
 705              	.LBE80:
 706              		.loc 1 354 0
 707 002c EA6B     		ldr	r2, [r5, #60]
 708              		.loc 1 349 0
 709 002e 8160     		str	r1, [r0, #8]
 710              	.LVL65:
 711              	.LBB84:
 712              	.LBB82:
 713              		.loc 2 62 0
 714 0030 2360     		str	r3, [r4, #0]
 715              	.LBE82:
 716              	.LBE84:
 717              		.loc 1 356 0
 718 0032 2846     		mov	r0, r5
 719              	.LVL66:
 720              	.LBB85:
 721              	.LBB83:
 722              		.loc 2 62 0
 723 0034 5C60     		str	r4, [r3, #4]
 724              	.LBE83:
 725              	.LBE85:
 726              		.loc 1 353 0
 727 0036 A560     		str	r5, [r4, #8]
 728              		.loc 1 354 0
 729 0038 E260     		str	r2, [r4, #12]
 730              		.loc 1 355 0
 731 003a EC63     		str	r4, [r5, #60]
 732              		.loc 1 356 0
 733 003c FFF7FEFF 		bl	chSchReadyI
 734              	.LVL67:
 735              	.LBE79:
 736              		.loc 1 361 0
ARM GAS  /var/folders/dt/0wfd0knj7gs46m8vwfzktm600000gn/T//ccyjEPOf.s 			page 14


 737 0040 2046     		mov	r0, r4
 738 0042 38BD     		pop	{r3, r4, r5, pc}
 739              	.LVL68:
 740              	.L56:
 741              		.loc 1 359 0
 742 0044 0023     		movs	r3, #0
 743 0046 A360     		str	r3, [r4, #8]
 744              		.loc 1 361 0
 745 0048 2046     		mov	r0, r4
 746              	.LVL69:
 747 004a 38BD     		pop	{r3, r4, r5, pc}
 748              	.L67:
 749              		.align	2
 750              	.L66:
 751 004c 00000000 		.word	rlist
 752              		.cfi_endproc
 753              	.LFE13:
 754              		.size	chMtxUnlockS, .-chMtxUnlockS
 755              		.section	.text.chMtxUnlockAll,"ax",%progbits
 756              		.align	2
 757              		.p2align 4,,15
 758              		.global	chMtxUnlockAll
 759              		.thumb
 760              		.thumb_func
 761              		.type	chMtxUnlockAll, %function
 762              	chMtxUnlockAll:
 763              	.LFB14:
 764              		.loc 1 374 0
 765              		.cfi_startproc
 766              		@ args = 0, pretend = 0, frame = 0
 767              		@ frame_needed = 0, uses_anonymous_args = 0
 768              		.loc 1 375 0
 769 0000 124A     		ldr	r2, .L78
 770              		.loc 1 374 0
 771 0002 70B5     		push	{r4, r5, r6, lr}
 772              	.LCFI4:
 773              		.cfi_def_cfa_offset 16
 774              		.cfi_offset 4, -16
 775              		.cfi_offset 5, -12
 776              		.cfi_offset 6, -8
 777              		.cfi_offset 14, -4
 778              	.LBB86:
 779              		.loc 1 377 0
 780 0004 2023     		movs	r3, #32
 781              	.LVL70:
 782              	.LBE86:
 783              		.loc 1 375 0
 784 0006 D469     		ldr	r4, [r2, #28]
 785              	.LVL71:
 786              	.LBB87:
 787              		.loc 1 377 0
 788              	@ 377 "../../os/kernel/src/chmtx.c" 1
 789 0008 83F31188 		msr     BASEPRI, r3
 790              	@ 0 "" 2
 791              	.LVL72:
 792              		.thumb
 793              	.LBE87:
ARM GAS  /var/folders/dt/0wfd0knj7gs46m8vwfzktm600000gn/T//ccyjEPOf.s 			page 15


 794              		.loc 1 378 0
 795 000c E36B     		ldr	r3, [r4, #60]
 796              	.LVL73:
 797 000e C3B1     		cbz	r3, .L69
 798              	.LBB88:
 799              		.loc 1 390 0
 800 0010 0026     		movs	r6, #0
 801              	.L75:
 802              	.LVL74:
 803              		.loc 1 382 0
 804 0012 1A68     		ldr	r2, [r3, #0]
 805              	.LVL75:
 806              		.loc 1 381 0
 807 0014 D968     		ldr	r1, [r3, #12]
 808              		.loc 1 382 0
 809 0016 9A42     		cmp	r2, r3
 810              		.loc 1 381 0
 811 0018 E163     		str	r1, [r4, #60]
 812              	.LBB89:
 813              		.loc 1 387 0
 814 001a 1046     		mov	r0, r2
 815              	.LBE89:
 816              		.loc 1 390 0
 817 001c 08BF     		it	eq
 818 001e 9E60     		streq	r6, [r3, #8]
 819              		.loc 1 382 0
 820 0020 08D0     		beq	.L71
 821              	.LBB94:
 822              	.LBB90:
 823              	.LBB91:
 824              		.loc 2 62 0
 825 0022 1168     		ldr	r1, [r2, #0]
 826              	.LBE91:
 827              	.LBE90:
 828              		.loc 1 385 0
 829 0024 D56B     		ldr	r5, [r2, #60]
 830              	.LBB93:
 831              	.LBB92:
 832              		.loc 2 62 0
 833 0026 1960     		str	r1, [r3, #0]
 834 0028 4B60     		str	r3, [r1, #4]
 835              	.LBE92:
 836              	.LBE93:
 837              		.loc 1 384 0
 838 002a 9A60     		str	r2, [r3, #8]
 839              		.loc 1 385 0
 840 002c DD60     		str	r5, [r3, #12]
 841              		.loc 1 386 0
 842 002e D363     		str	r3, [r2, #60]
 843              		.loc 1 387 0
 844 0030 FFF7FEFF 		bl	chSchReadyI
 845              	.LVL76:
 846              	.L71:
 847              	.LBE94:
 848              	.LBE88:
 849              		.loc 1 391 0
 850 0034 E36B     		ldr	r3, [r4, #60]
ARM GAS  /var/folders/dt/0wfd0knj7gs46m8vwfzktm600000gn/T//ccyjEPOf.s 			page 16


 851 0036 002B     		cmp	r3, #0
 852 0038 EBD1     		bne	.L75
 853              		.loc 1 392 0
 854 003a 236C     		ldr	r3, [r4, #64]
 855 003c A360     		str	r3, [r4, #8]
 856              		.loc 1 393 0
 857 003e FFF7FEFF 		bl	chSchRescheduleS
 858              	.LVL77:
 859              	.L69:
 860              	.LBB95:
 861              		.loc 1 395 0
 862 0042 0023     		movs	r3, #0
 863              	.LVL78:
 864              	@ 395 "../../os/kernel/src/chmtx.c" 1
 865 0044 83F31188 		msr     BASEPRI, r3
 866              	@ 0 "" 2
 867              	.LVL79:
 868              		.thumb
 869 0048 70BD     		pop	{r4, r5, r6, pc}
 870              	.L79:
 871 004a 00BF     		.align	2
 872              	.L78:
 873 004c 00000000 		.word	rlist
 874              	.LBE95:
 875              		.cfi_endproc
 876              	.LFE14:
 877              		.size	chMtxUnlockAll, .-chMtxUnlockAll
 878              		.text
 879              	.Letext0:
 880              		.file 3 "/Users/toxygen/Applications/yagarto-4.7.2/bin/../lib/gcc/arm-none-eabi/4.7.2/../../../../
 881              		.file 4 "../../os/ports/GCC/ARMCMx/chtypes.h"
 882              		.file 5 "../../os/kernel/include/chlists.h"
 883              		.file 6 "../../os/kernel/include/chthreads.h"
 884              		.file 7 "../../os/ports/GCC/ARMCMx/chcore_v7m.h"
 885              		.file 8 "../../os/kernel/include/chschd.h"
 886              		.file 9 "../../os/kernel/include/chmtx.h"