ARM GAS  /var/folders/dt/0wfd0knj7gs46m8vwfzktm600000gn/T//ccFfYcvk.s 			page 1


   1              		.syntax unified
   2              		.cpu cortex-m3
   3              		.fpu softvfp
   4              		.eabi_attribute 20, 1
   5              		.eabi_attribute 21, 1
   6              		.eabi_attribute 23, 3
   7              		.eabi_attribute 24, 1
   8              		.eabi_attribute 25, 1
   9              		.eabi_attribute 26, 1
  10              		.eabi_attribute 30, 2
  11              		.eabi_attribute 34, 1
  12              		.eabi_attribute 18, 4
  13              		.thumb
  14              		.file	"chqueues.c"
  15              		.text
  16              	.Ltext0:
  17              		.cfi_sections	.debug_frame
  18              		.section	.text.qwait,"ax",%progbits
  19              		.align	2
  20              		.p2align 4,,15
  21              		.thumb
  22              		.thumb_func
  23              		.type	qwait, %function
  24              	qwait:
  25              	.LFB7:
  26              		.file 1 "../../os/kernel/src/chqueues.c"
  27              		.loc 1 72 0
  28              		.cfi_startproc
  29              		@ args = 0, pretend = 0, frame = 0
  30              		@ frame_needed = 0, uses_anonymous_args = 0
  31              		@ link register save eliminated.
  32              	.LVL0:
  33 0000 10B4     		push	{r4}
  34              	.LCFI0:
  35              		.cfi_def_cfa_offset 4
  36              		.cfi_offset 4, -4
  37              		.loc 1 72 0
  38 0002 0246     		mov	r2, r0
  39              		.loc 1 74 0
  40 0004 59B1     		cbz	r1, .L2
  41              		.loc 1 76 0
  42 0006 084B     		ldr	r3, .L4
  43              		.loc 1 78 0
  44 0008 0D20     		movs	r0, #13
  45              	.LVL1:
  46              		.loc 1 76 0
  47 000a DB69     		ldr	r3, [r3, #28]
  48 000c 5A62     		str	r2, [r3, #36]
  49              	.LVL2:
  50              	.LBB12:
  51              	.LBB13:
  52              		.file 2 "../../os/kernel/include/chinline.h"
  53              		.loc 2 55 0
  54 000e 5468     		ldr	r4, [r2, #4]
  55 0010 83E81400 		stmia	r3, {r2, r4}
  56              		.loc 2 56 0
  57 0014 5360     		str	r3, [r2, #4]
ARM GAS  /var/folders/dt/0wfd0knj7gs46m8vwfzktm600000gn/T//ccFfYcvk.s 			page 2


  58 0016 2360     		str	r3, [r4, #0]
  59              	.LBE13:
  60              	.LBE12:
  61              		.loc 1 79 0
  62 0018 10BC     		pop	{r4}
  63              		.loc 1 78 0
  64 001a FFF7FEBF 		b	chSchGoSleepTimeoutS
  65              	.LVL3:
  66              	.L2:
  67              		.loc 1 79 0
  68 001e 4FF0FF30 		mov	r0, #-1
  69              	.LVL4:
  70 0022 10BC     		pop	{r4}
  71 0024 7047     		bx	lr
  72              	.L5:
  73 0026 00BF     		.align	2
  74              	.L4:
  75 0028 00000000 		.word	rlist
  76              		.cfi_endproc
  77              	.LFE7:
  78              		.size	qwait, .-qwait
  79 002c AFF30080 		.section	.text.chIQInit,"ax",%progbits
  80              		.align	2
  81              		.p2align 4,,15
  82              		.global	chIQInit
  83              		.thumb
  84              		.thumb_func
  85              		.type	chIQInit, %function
  86              	chIQInit:
  87              	.LFB8:
  88              		.loc 1 96 0
  89              		.cfi_startproc
  90              		@ args = 0, pretend = 0, frame = 0
  91              		@ frame_needed = 0, uses_anonymous_args = 0
  92              		@ link register save eliminated.
  93              	.LVL5:
  94 0000 10B4     		push	{r4}
  95              	.LCFI1:
  96              		.cfi_def_cfa_offset 4
  97              		.cfi_offset 4, -4
  98              		.loc 1 101 0
  99 0002 8A18     		adds	r2, r1, r2
 100              	.LVL6:
 101              		.loc 1 99 0
 102 0004 0024     		movs	r4, #0
 103              		.loc 1 98 0
 104 0006 4060     		str	r0, [r0, #4]
 105 0008 0060     		str	r0, [r0, #0]
 106              		.loc 1 99 0
 107 000a 8460     		str	r4, [r0, #8]
 108              		.loc 1 100 0
 109 000c 4161     		str	r1, [r0, #20]
 110 000e 8161     		str	r1, [r0, #24]
 111 0010 C160     		str	r1, [r0, #12]
 112              		.loc 1 101 0
 113 0012 0261     		str	r2, [r0, #16]
 114              		.loc 1 102 0
ARM GAS  /var/folders/dt/0wfd0knj7gs46m8vwfzktm600000gn/T//ccFfYcvk.s 			page 3


 115 0014 C361     		str	r3, [r0, #28]
 116              		.loc 1 103 0
 117 0016 10BC     		pop	{r4}
 118 0018 7047     		bx	lr
 119              		.cfi_endproc
 120              	.LFE8:
 121              		.size	chIQInit, .-chIQInit
 122 001a 00BFAFF3 		.section	.text.chIQResetI,"ax",%progbits
 122      0080
 123              		.align	2
 124              		.p2align 4,,15
 125              		.global	chIQResetI
 126              		.thumb
 127              		.thumb_func
 128              		.type	chIQResetI, %function
 129              	chIQResetI:
 130              	.LFB9:
 131              		.loc 1 116 0
 132              		.cfi_startproc
 133              		@ args = 0, pretend = 0, frame = 0
 134              		@ frame_needed = 0, uses_anonymous_args = 0
 135              	.LVL7:
 136 0000 38B5     		push	{r3, r4, r5, lr}
 137              	.LCFI2:
 138              		.cfi_def_cfa_offset 16
 139              		.cfi_offset 3, -16
 140              		.cfi_offset 4, -12
 141              		.cfi_offset 5, -8
 142              		.cfi_offset 14, -4
 143              		.loc 1 116 0
 144 0002 0446     		mov	r4, r0
 145              		.loc 1 120 0
 146 0004 C368     		ldr	r3, [r0, #12]
 147              		.loc 1 122 0
 148 0006 0068     		ldr	r0, [r0, #0]
 149              	.LVL8:
 150              		.loc 1 120 0
 151 0008 6361     		str	r3, [r4, #20]
 152 000a A361     		str	r3, [r4, #24]
 153              		.loc 1 121 0
 154 000c 0023     		movs	r3, #0
 155              		.loc 1 122 0
 156 000e A042     		cmp	r0, r4
 157              		.loc 1 121 0
 158 0010 A360     		str	r3, [r4, #8]
 159              		.loc 1 122 0
 160 0012 0AD0     		beq	.L7
 161              		.loc 1 123 0
 162 0014 6FF00105 		mvn	r5, #1
 163              	.L11:
 164              	.LVL9:
 165              	.LBB14:
 166              	.LBB15:
 167              		.loc 2 62 0
 168 0018 0368     		ldr	r3, [r0, #0]
 169 001a 2360     		str	r3, [r4, #0]
 170 001c 5C60     		str	r4, [r3, #4]
ARM GAS  /var/folders/dt/0wfd0knj7gs46m8vwfzktm600000gn/T//ccFfYcvk.s 			page 4


 171              	.LBE15:
 172              	.LBE14:
 173              		.loc 1 123 0
 174 001e FFF7FEFF 		bl	chSchReadyI
 175              	.LVL10:
 176 0022 4562     		str	r5, [r0, #36]
 177              		.loc 1 122 0
 178 0024 2068     		ldr	r0, [r4, #0]
 179 0026 A042     		cmp	r0, r4
 180 0028 F6D1     		bne	.L11
 181              	.LVL11:
 182              	.L7:
 183 002a 38BD     		pop	{r3, r4, r5, pc}
 184              		.cfi_endproc
 185              	.LFE9:
 186              		.size	chIQResetI, .-chIQResetI
 187 002c AFF30080 		.section	.text.chIQPutI,"ax",%progbits
 188              		.align	2
 189              		.p2align 4,,15
 190              		.global	chIQPutI
 191              		.thumb
 192              		.thumb_func
 193              		.type	chIQPutI, %function
 194              	chIQPutI:
 195              	.LFB10:
 196              		.loc 1 139 0
 197              		.cfi_startproc
 198              		@ args = 0, pretend = 0, frame = 0
 199              		@ frame_needed = 0, uses_anonymous_args = 0
 200              	.LVL12:
 201              		.loc 1 143 0
 202 0000 4269     		ldr	r2, [r0, #20]
 203              		.loc 1 139 0
 204 0002 08B5     		push	{r3, lr}
 205              	.LCFI3:
 206              		.cfi_def_cfa_offset 8
 207              		.cfi_offset 3, -8
 208              		.cfi_offset 14, -4
 209              		.loc 1 139 0
 210 0004 0346     		mov	r3, r0
 211              		.loc 1 143 0
 212 0006 8069     		ldr	r0, [r0, #24]
 213              	.LVL13:
 214 0008 8242     		cmp	r2, r0
 215 000a 9868     		ldr	r0, [r3, #8]
 216 000c 18D0     		beq	.L14
 217              	.L15:
 218              		.loc 1 146 0
 219 000e 0130     		adds	r0, r0, #1
 220 0010 9860     		str	r0, [r3, #8]
 221              		.loc 1 147 0
 222 0012 02F8011B 		strb	r1, [r2], #1
 223              		.loc 1 148 0
 224 0016 1969     		ldr	r1, [r3, #16]
 225              	.LVL14:
 226              		.loc 1 147 0
 227 0018 5A61     		str	r2, [r3, #20]
ARM GAS  /var/folders/dt/0wfd0knj7gs46m8vwfzktm600000gn/T//ccFfYcvk.s 			page 5


 228              		.loc 1 148 0
 229 001a 8A42     		cmp	r2, r1
 230              		.loc 1 149 0
 231 001c 28BF     		it	cs
 232 001e DA68     		ldrcs	r2, [r3, #12]
 233              		.loc 1 151 0
 234 0020 1868     		ldr	r0, [r3, #0]
 235              		.loc 1 149 0
 236 0022 28BF     		it	cs
 237 0024 5A61     		strcs	r2, [r3, #20]
 238              		.loc 1 151 0
 239 0026 9842     		cmp	r0, r3
 240 0028 08D0     		beq	.L19
 241              	.LVL15:
 242              	.LBB16:
 243              	.LBB17:
 244              		.loc 2 62 0
 245 002a 0268     		ldr	r2, [r0, #0]
 246 002c 1A60     		str	r2, [r3, #0]
 247 002e 5360     		str	r3, [r2, #4]
 248              	.LBE17:
 249              	.LBE16:
 250              		.loc 1 152 0
 251 0030 FFF7FEFF 		bl	chSchReadyI
 252              	.LVL16:
 253 0034 0023     		movs	r3, #0
 254 0036 4362     		str	r3, [r0, #36]
 255              		.loc 1 154 0
 256 0038 1846     		mov	r0, r3
 257 003a 08BD     		pop	{r3, pc}
 258              	.LVL17:
 259              	.L19:
 260 003c 0020     		movs	r0, #0
 261              		.loc 1 155 0
 262 003e 08BD     		pop	{r3, pc}
 263              	.LVL18:
 264              	.L14:
 265              		.loc 1 143 0 discriminator 1
 266 0040 0028     		cmp	r0, #0
 267 0042 E4D0     		beq	.L15
 268              		.loc 1 144 0
 269 0044 6FF00300 		mvn	r0, #3
 270 0048 08BD     		pop	{r3, pc}
 271              		.cfi_endproc
 272              	.LFE10:
 273              		.size	chIQPutI, .-chIQPutI
 274 004a 00BFAFF3 		.section	.text.chIQGetTimeout,"ax",%progbits
 274      0080
 275              		.align	2
 276              		.p2align 4,,15
 277              		.global	chIQGetTimeout
 278              		.thumb
 279              		.thumb_func
 280              		.type	chIQGetTimeout, %function
 281              	chIQGetTimeout:
 282              	.LFB11:
 283              		.loc 1 177 0
ARM GAS  /var/folders/dt/0wfd0knj7gs46m8vwfzktm600000gn/T//ccFfYcvk.s 			page 6


 284              		.cfi_startproc
 285              		@ args = 0, pretend = 0, frame = 0
 286              		@ frame_needed = 0, uses_anonymous_args = 0
 287              	.LVL19:
 288 0000 70B5     		push	{r4, r5, r6, lr}
 289              	.LCFI4:
 290              		.cfi_def_cfa_offset 16
 291              		.cfi_offset 4, -16
 292              		.cfi_offset 5, -12
 293              		.cfi_offset 6, -8
 294              		.cfi_offset 14, -4
 295              	.LBB18:
 296              		.loc 1 180 0
 297 0002 2023     		movs	r3, #32
 298              	.LVL20:
 299              	.LBE18:
 300              		.loc 1 177 0
 301 0004 0446     		mov	r4, r0
 302 0006 0E46     		mov	r6, r1
 303              	.LBB19:
 304              		.loc 1 180 0
 305              	@ 180 "../../os/kernel/src/chqueues.c" 1
 306 0008 83F31188 		msr     BASEPRI, r3
 307              	@ 0 "" 2
 308              	.LVL21:
 309              		.thumb
 310              	.LBE19:
 311              		.loc 1 181 0
 312 000c C369     		ldr	r3, [r0, #28]
 313              	.LVL22:
 314 000e 03B1     		cbz	r3, .L28
 315              		.loc 1 182 0
 316 0010 9847     		blx	r3
 317              	.LVL23:
 318              	.L28:
 319              		.loc 1 184 0 discriminator 1
 320 0012 A568     		ldr	r5, [r4, #8]
 321              	.LBB20:
 322              		.loc 1 186 0 discriminator 1
 323 0014 2046     		mov	r0, r4
 324 0016 3146     		mov	r1, r6
 325              	.LBE20:
 326              		.loc 1 184 0 discriminator 1
 327 0018 3DB9     		cbnz	r5, .L31
 328              	.LVL24:
 329              	.LBB22:
 330              		.loc 1 186 0
 331 001a FFF7FEFF 		bl	qwait
 332              	.LVL25:
 333 001e 0028     		cmp	r0, #0
 334 0020 F7DA     		bge	.L28
 335              	.LBB21:
 336              		.loc 1 187 0
 337 0022 2B46     		mov	r3, r5
 338              	.LVL26:
 339              	@ 187 "../../os/kernel/src/chqueues.c" 1
 340 0024 83F31188 		msr     BASEPRI, r3
ARM GAS  /var/folders/dt/0wfd0knj7gs46m8vwfzktm600000gn/T//ccFfYcvk.s 			page 7


 341              	@ 0 "" 2
 342              	.LVL27:
 343              		.thumb
 344              	.LBE21:
 345              		.loc 1 188 0
 346 0028 70BD     		pop	{r4, r5, r6, pc}
 347              	.LVL28:
 348              	.L31:
 349              	.LBE22:
 350              		.loc 1 193 0
 351 002a A369     		ldr	r3, [r4, #24]
 352              		.loc 1 192 0
 353 002c 013D     		subs	r5, r5, #1
 354 002e A560     		str	r5, [r4, #8]
 355              		.loc 1 193 0
 356 0030 13F8010B 		ldrb	r0, [r3], #1	@ zero_extendqisi2
 357              	.LVL29:
 358              		.loc 1 194 0
 359 0034 2269     		ldr	r2, [r4, #16]
 360              		.loc 1 193 0
 361 0036 A361     		str	r3, [r4, #24]
 362              		.loc 1 194 0
 363 0038 9342     		cmp	r3, r2
 364              		.loc 1 195 0
 365 003a 24BF     		itt	cs
 366 003c E368     		ldrcs	r3, [r4, #12]
 367 003e A361     		strcs	r3, [r4, #24]
 368              	.LBB23:
 369              		.loc 1 197 0
 370 0040 0023     		movs	r3, #0
 371              	.LVL30:
 372              	@ 197 "../../os/kernel/src/chqueues.c" 1
 373 0042 83F31188 		msr     BASEPRI, r3
 374              	@ 0 "" 2
 375              	.LVL31:
 376              		.thumb
 377              	.LBE23:
 378              		.loc 1 199 0
 379 0046 70BD     		pop	{r4, r5, r6, pc}
 380              		.cfi_endproc
 381              	.LFE11:
 382              		.size	chIQGetTimeout, .-chIQGetTimeout
 383 0048 AFF30080 		.section	.text.chIQReadTimeout,"ax",%progbits
 383      AFF30080 
 384              		.align	2
 385              		.p2align 4,,15
 386              		.global	chIQReadTimeout
 387              		.thumb
 388              		.thumb_func
 389              		.type	chIQReadTimeout, %function
 390              	chIQReadTimeout:
 391              	.LFB12:
 392              		.loc 1 226 0
 393              		.cfi_startproc
 394              		@ args = 0, pretend = 0, frame = 0
 395              		@ frame_needed = 0, uses_anonymous_args = 0
 396              	.LVL32:
ARM GAS  /var/folders/dt/0wfd0knj7gs46m8vwfzktm600000gn/T//ccFfYcvk.s 			page 8


 397 0000 2DE9F047 		push	{r4, r5, r6, r7, r8, r9, sl, lr}
 398              	.LCFI5:
 399              		.cfi_def_cfa_offset 32
 400              		.cfi_offset 4, -32
 401              		.cfi_offset 5, -28
 402              		.cfi_offset 6, -24
 403              		.cfi_offset 7, -20
 404              		.cfi_offset 8, -16
 405              		.cfi_offset 9, -12
 406              		.cfi_offset 10, -8
 407              		.cfi_offset 14, -4
 408              		.loc 1 226 0
 409 0004 1E46     		mov	r6, r3
 410 0006 0446     		mov	r4, r0
 411              		.loc 1 227 0
 412 0008 C769     		ldr	r7, [r0, #28]
 413              	.LVL33:
 414              	.LBB24:
 415              		.loc 1 232 0
 416 000a 2023     		movs	r3, #32
 417              	.LVL34:
 418              	@ 232 "../../os/kernel/src/chqueues.c" 1
 419 000c 83F31188 		msr     BASEPRI, r3
 420              	@ 0 "" 2
 421              	.LVL35:
 422              		.thumb
 423              	.LBE24:
 424              		.loc 1 228 0
 425 0010 4FF00008 		mov	r8, #0
 426              	.LBB25:
 427              		.loc 1 225 0
 428 0014 01F10109 		add	r9, r1, #1
 429 0018 01EB020A 		add	sl, r1, r2
 430              	.LVL36:
 431              	.L38:
 432              	.LBE25:
 433              		.loc 1 234 0
 434 001c 0FB1     		cbz	r7, .L43
 435              		.loc 1 235 0
 436 001e 2046     		mov	r0, r4
 437              	.LVL37:
 438 0020 B847     		blx	r7
 439              	.LVL38:
 440              	.L43:
 441              		.loc 1 237 0 discriminator 1
 442 0022 A568     		ldr	r5, [r4, #8]
 443              		.loc 1 238 0 discriminator 1
 444 0024 2046     		mov	r0, r4
 445 0026 3146     		mov	r1, r6
 446              		.loc 1 237 0 discriminator 1
 447 0028 4DB9     		cbnz	r5, .L47
 448              	.LVL39:
 449              		.loc 1 238 0
 450 002a FFF7FEFF 		bl	qwait
 451              	.LVL40:
 452 002e 0028     		cmp	r0, #0
 453 0030 F7D0     		beq	.L43
ARM GAS  /var/folders/dt/0wfd0knj7gs46m8vwfzktm600000gn/T//ccFfYcvk.s 			page 9


 454              	.LBB26:
 455              		.loc 1 239 0
 456 0032 2B46     		mov	r3, r5
 457              	.LVL41:
 458              	@ 239 "../../os/kernel/src/chqueues.c" 1
 459 0034 83F31188 		msr     BASEPRI, r3
 460              	@ 0 "" 2
 461              	.LVL42:
 462              		.thumb
 463              	.L35:
 464              	.LBE26:
 465              		.loc 1 256 0
 466 0038 4046     		mov	r0, r8
 467 003a BDE8F087 		pop	{r4, r5, r6, r7, r8, r9, sl, pc}
 468              	.LVL43:
 469              	.L47:
 470              		.loc 1 245 0
 471 003e A369     		ldr	r3, [r4, #24]
 472              	.LVL44:
 473              		.loc 1 244 0
 474 0040 013D     		subs	r5, r5, #1
 475 0042 A560     		str	r5, [r4, #8]
 476              		.loc 1 245 0
 477 0044 13F8012B 		ldrb	r2, [r3], #1	@ zero_extendqisi2
 478 0048 09F8012C 		strb	r2, [r9, #-1]
 479              		.loc 1 246 0
 480 004c 2269     		ldr	r2, [r4, #16]
 481              		.loc 1 245 0
 482 004e A361     		str	r3, [r4, #24]
 483              		.loc 1 246 0
 484 0050 9342     		cmp	r3, r2
 485              		.loc 1 247 0
 486 0052 24BF     		itt	cs
 487 0054 E368     		ldrcs	r3, [r4, #12]
 488 0056 A361     		strcs	r3, [r4, #24]
 489              	.LBB27:
 490              		.loc 1 249 0
 491 0058 0023     		movs	r3, #0
 492              	@ 249 "../../os/kernel/src/chqueues.c" 1
 493 005a 83F31188 		msr     BASEPRI, r3
 494              	@ 0 "" 2
 495              	.LVL45:
 496              		.thumb
 497              	.LBE27:
 498              		.loc 1 251 0
 499 005e D145     		cmp	r9, sl
 500              		.loc 1 250 0
 501 0060 08F10108 		add	r8, r8, #1
 502              	.LVL46:
 503              		.loc 1 251 0
 504 0064 E8D0     		beq	.L35
 505              	.LBB28:
 506              		.loc 1 254 0
 507 0066 2023     		movs	r3, #32
 508              	.LVL47:
 509              	@ 254 "../../os/kernel/src/chqueues.c" 1
 510 0068 83F31188 		msr     BASEPRI, r3
ARM GAS  /var/folders/dt/0wfd0knj7gs46m8vwfzktm600000gn/T//ccFfYcvk.s 			page 10


 511              	@ 0 "" 2
 512              	.LVL48:
 513              		.thumb
 514 006c 09F10109 		add	r9, r9, #1
 515              	.LBE28:
 516              		.loc 1 255 0
 517 0070 D4E7     		b	.L38
 518              		.cfi_endproc
 519              	.LFE12:
 520              		.size	chIQReadTimeout, .-chIQReadTimeout
 521 0072 00BFAFF3 		.section	.text.chOQInit,"ax",%progbits
 521      0080AFF3 
 521      0080AFF3 
 521      0080
 522              		.align	2
 523              		.p2align 4,,15
 524              		.global	chOQInit
 525              		.thumb
 526              		.thumb_func
 527              		.type	chOQInit, %function
 528              	chOQInit:
 529              	.LFB13:
 530              		.loc 1 273 0
 531              		.cfi_startproc
 532              		@ args = 0, pretend = 0, frame = 0
 533              		@ frame_needed = 0, uses_anonymous_args = 0
 534              		@ link register save eliminated.
 535              	.LVL49:
 536 0000 10B4     		push	{r4}
 537              	.LCFI6:
 538              		.cfi_def_cfa_offset 4
 539              		.cfi_offset 4, -4
 540              		.loc 1 278 0
 541 0002 8C18     		adds	r4, r1, r2
 542              		.loc 1 275 0
 543 0004 4060     		str	r0, [r0, #4]
 544 0006 0060     		str	r0, [r0, #0]
 545              		.loc 1 276 0
 546 0008 8260     		str	r2, [r0, #8]
 547              		.loc 1 277 0
 548 000a 4161     		str	r1, [r0, #20]
 549 000c 8161     		str	r1, [r0, #24]
 550 000e C160     		str	r1, [r0, #12]
 551              		.loc 1 278 0
 552 0010 0461     		str	r4, [r0, #16]
 553              		.loc 1 279 0
 554 0012 C361     		str	r3, [r0, #28]
 555              		.loc 1 280 0
 556 0014 10BC     		pop	{r4}
 557 0016 7047     		bx	lr
 558              		.cfi_endproc
 559              	.LFE13:
 560              		.size	chOQInit, .-chOQInit
 561 0018 AFF30080 		.section	.text.chOQResetI,"ax",%progbits
 561      AFF30080 
 562              		.align	2
 563              		.p2align 4,,15
ARM GAS  /var/folders/dt/0wfd0knj7gs46m8vwfzktm600000gn/T//ccFfYcvk.s 			page 11


 564              		.global	chOQResetI
 565              		.thumb
 566              		.thumb_func
 567              		.type	chOQResetI, %function
 568              	chOQResetI:
 569              	.LFB14:
 570              		.loc 1 293 0
 571              		.cfi_startproc
 572              		@ args = 0, pretend = 0, frame = 0
 573              		@ frame_needed = 0, uses_anonymous_args = 0
 574              	.LVL50:
 575 0000 38B5     		push	{r3, r4, r5, lr}
 576              	.LCFI7:
 577              		.cfi_def_cfa_offset 16
 578              		.cfi_offset 3, -16
 579              		.cfi_offset 4, -12
 580              		.cfi_offset 5, -8
 581              		.cfi_offset 14, -4
 582              		.loc 1 298 0
 583 0002 0269     		ldr	r2, [r0, #16]
 584              		.loc 1 293 0
 585 0004 0446     		mov	r4, r0
 586              		.loc 1 297 0
 587 0006 C368     		ldr	r3, [r0, #12]
 588              		.loc 1 299 0
 589 0008 0068     		ldr	r0, [r0, #0]
 590              	.LVL51:
 591              		.loc 1 298 0
 592 000a D21A     		subs	r2, r2, r3
 593              		.loc 1 299 0
 594 000c A042     		cmp	r0, r4
 595              		.loc 1 297 0
 596 000e 6361     		str	r3, [r4, #20]
 597 0010 A361     		str	r3, [r4, #24]
 598              		.loc 1 298 0
 599 0012 A260     		str	r2, [r4, #8]
 600              		.loc 1 299 0
 601 0014 0AD0     		beq	.L49
 602              		.loc 1 300 0
 603 0016 6FF00105 		mvn	r5, #1
 604              	.L53:
 605              	.LVL52:
 606              	.LBB29:
 607              	.LBB30:
 608              		.loc 2 62 0
 609 001a 0368     		ldr	r3, [r0, #0]
 610 001c 2360     		str	r3, [r4, #0]
 611 001e 5C60     		str	r4, [r3, #4]
 612              	.LBE30:
 613              	.LBE29:
 614              		.loc 1 300 0
 615 0020 FFF7FEFF 		bl	chSchReadyI
 616              	.LVL53:
 617 0024 4562     		str	r5, [r0, #36]
 618              		.loc 1 299 0
 619 0026 2068     		ldr	r0, [r4, #0]
 620 0028 A042     		cmp	r0, r4
ARM GAS  /var/folders/dt/0wfd0knj7gs46m8vwfzktm600000gn/T//ccFfYcvk.s 			page 12


 621 002a F6D1     		bne	.L53
 622              	.LVL54:
 623              	.L49:
 624 002c 38BD     		pop	{r3, r4, r5, pc}
 625              		.cfi_endproc
 626              	.LFE14:
 627              		.size	chOQResetI, .-chOQResetI
 628 002e 00BF     		.section	.text.chOQPutTimeout,"ax",%progbits
 629              		.align	2
 630              		.p2align 4,,15
 631              		.global	chOQPutTimeout
 632              		.thumb
 633              		.thumb_func
 634              		.type	chOQPutTimeout, %function
 635              	chOQPutTimeout:
 636              	.LFB15:
 637              		.loc 1 325 0
 638              		.cfi_startproc
 639              		@ args = 0, pretend = 0, frame = 0
 640              		@ frame_needed = 0, uses_anonymous_args = 0
 641              	.LVL55:
 642 0000 F8B5     		push	{r3, r4, r5, r6, r7, lr}
 643              	.LCFI8:
 644              		.cfi_def_cfa_offset 24
 645              		.cfi_offset 3, -24
 646              		.cfi_offset 4, -20
 647              		.cfi_offset 5, -16
 648              		.cfi_offset 6, -12
 649              		.cfi_offset 7, -8
 650              		.cfi_offset 14, -4
 651              		.loc 1 325 0
 652 0002 0446     		mov	r4, r0
 653 0004 0F46     		mov	r7, r1
 654 0006 1646     		mov	r6, r2
 655              	.LBB31:
 656              		.loc 1 327 0
 657 0008 2023     		movs	r3, #32
 658              	.LVL56:
 659              	@ 327 "../../os/kernel/src/chqueues.c" 1
 660 000a 83F31188 		msr     BASEPRI, r3
 661              	@ 0 "" 2
 662              	.LVL57:
 663              		.thumb
 664              	.L56:
 665              	.LBE31:
 666              		.loc 1 328 0 discriminator 1
 667 000e A568     		ldr	r5, [r4, #8]
 668              	.LBB32:
 669              		.loc 1 331 0 discriminator 1
 670 0010 2046     		mov	r0, r4
 671 0012 3146     		mov	r1, r6
 672              	.LBE32:
 673              		.loc 1 328 0 discriminator 1
 674 0014 3DB9     		cbnz	r5, .L65
 675              	.LVL58:
 676              	.LBB34:
 677              		.loc 1 331 0
ARM GAS  /var/folders/dt/0wfd0knj7gs46m8vwfzktm600000gn/T//ccFfYcvk.s 			page 13


 678 0016 FFF7FEFF 		bl	qwait
 679              	.LVL59:
 680 001a 0028     		cmp	r0, #0
 681 001c F7DA     		bge	.L56
 682              	.LBB33:
 683              		.loc 1 332 0
 684 001e 2B46     		mov	r3, r5
 685              	.LVL60:
 686              	@ 332 "../../os/kernel/src/chqueues.c" 1
 687 0020 83F31188 		msr     BASEPRI, r3
 688              	@ 0 "" 2
 689              	.LVL61:
 690              		.thumb
 691              	.LBE33:
 692              		.loc 1 333 0
 693 0024 F8BD     		pop	{r3, r4, r5, r6, r7, pc}
 694              	.LVL62:
 695              	.L65:
 696              	.LBE34:
 697              		.loc 1 338 0
 698 0026 6369     		ldr	r3, [r4, #20]
 699              	.LVL63:
 700              		.loc 1 337 0
 701 0028 013D     		subs	r5, r5, #1
 702 002a A560     		str	r5, [r4, #8]
 703              		.loc 1 338 0
 704 002c 03F8017B 		strb	r7, [r3], #1
 705              		.loc 1 339 0
 706 0030 2269     		ldr	r2, [r4, #16]
 707              		.loc 1 338 0
 708 0032 6361     		str	r3, [r4, #20]
 709              		.loc 1 339 0
 710 0034 9342     		cmp	r3, r2
 711              		.loc 1 340 0
 712 0036 24BF     		itt	cs
 713 0038 E368     		ldrcs	r3, [r4, #12]
 714 003a 6361     		strcs	r3, [r4, #20]
 715              		.loc 1 342 0
 716 003c E369     		ldr	r3, [r4, #28]
 717 003e 0BB1     		cbz	r3, .L60
 718              		.loc 1 343 0
 719 0040 2046     		mov	r0, r4
 720              	.LVL64:
 721 0042 9847     		blx	r3
 722              	.LVL65:
 723              	.L60:
 724              	.LBB35:
 725              		.loc 1 345 0
 726 0044 0023     		movs	r3, #0
 727              	.LVL66:
 728              	@ 345 "../../os/kernel/src/chqueues.c" 1
 729 0046 83F31188 		msr     BASEPRI, r3
 730              	@ 0 "" 2
 731              	.LVL67:
 732              		.thumb
 733              	.LBE35:
 734              		.loc 1 346 0
ARM GAS  /var/folders/dt/0wfd0knj7gs46m8vwfzktm600000gn/T//ccFfYcvk.s 			page 14


 735 004a 1846     		mov	r0, r3
 736              		.loc 1 347 0
 737 004c F8BD     		pop	{r3, r4, r5, r6, r7, pc}
 738              		.cfi_endproc
 739              	.LFE15:
 740              		.size	chOQPutTimeout, .-chOQPutTimeout
 741 004e 00BF     		.section	.text.chOQGetI,"ax",%progbits
 742              		.align	2
 743              		.p2align 4,,15
 744              		.global	chOQGetI
 745              		.thumb
 746              		.thumb_func
 747              		.type	chOQGetI, %function
 748              	chOQGetI:
 749              	.LFB16:
 750              		.loc 1 359 0
 751              		.cfi_startproc
 752              		@ args = 0, pretend = 0, frame = 0
 753              		@ frame_needed = 0, uses_anonymous_args = 0
 754              	.LVL68:
 755              		.loc 1 364 0
 756 0000 4169     		ldr	r1, [r0, #20]
 757 0002 8269     		ldr	r2, [r0, #24]
 758              		.loc 1 359 0
 759 0004 10B5     		push	{r4, lr}
 760              	.LCFI9:
 761              		.cfi_def_cfa_offset 8
 762              		.cfi_offset 4, -8
 763              		.cfi_offset 14, -4
 764              		.loc 1 364 0
 765 0006 9142     		cmp	r1, r2
 766              		.loc 1 359 0
 767 0008 0346     		mov	r3, r0
 768              		.loc 1 364 0
 769 000a 8168     		ldr	r1, [r0, #8]
 770 000c 16D0     		beq	.L67
 771              	.L68:
 772              		.loc 1 367 0
 773 000e 0131     		adds	r1, r1, #1
 774 0010 9960     		str	r1, [r3, #8]
 775              		.loc 1 368 0
 776 0012 12F8014B 		ldrb	r4, [r2], #1	@ zero_extendqisi2
 777              	.LVL69:
 778              		.loc 1 369 0
 779 0016 1969     		ldr	r1, [r3, #16]
 780              		.loc 1 368 0
 781 0018 9A61     		str	r2, [r3, #24]
 782              		.loc 1 369 0
 783 001a 8A42     		cmp	r2, r1
 784              		.loc 1 370 0
 785 001c 28BF     		it	cs
 786 001e DA68     		ldrcs	r2, [r3, #12]
 787              		.loc 1 372 0
 788 0020 1868     		ldr	r0, [r3, #0]
 789              	.LVL70:
 790              		.loc 1 370 0
 791 0022 28BF     		it	cs
ARM GAS  /var/folders/dt/0wfd0knj7gs46m8vwfzktm600000gn/T//ccFfYcvk.s 			page 15


 792 0024 9A61     		strcs	r2, [r3, #24]
 793              		.loc 1 372 0
 794 0026 9842     		cmp	r0, r3
 795 0028 06D0     		beq	.L71
 796              	.LVL71:
 797              	.LBB36:
 798              	.LBB37:
 799              		.loc 2 62 0
 800 002a 0268     		ldr	r2, [r0, #0]
 801 002c 1A60     		str	r2, [r3, #0]
 802 002e 5360     		str	r3, [r2, #4]
 803              	.LBE37:
 804              	.LBE36:
 805              		.loc 1 373 0
 806 0030 FFF7FEFF 		bl	chSchReadyI
 807              	.LVL72:
 808 0034 0023     		movs	r3, #0
 809 0036 4362     		str	r3, [r0, #36]
 810              	.LVL73:
 811              	.L71:
 812              		.loc 1 375 0
 813 0038 2046     		mov	r0, r4
 814 003a 10BD     		pop	{r4, pc}
 815              	.LVL74:
 816              	.L67:
 817              		.loc 1 364 0 discriminator 1
 818 003c 0029     		cmp	r1, #0
 819 003e E6D0     		beq	.L68
 820              		.loc 1 365 0
 821 0040 6FF00200 		mvn	r0, #2
 822              	.LVL75:
 823              		.loc 1 376 0
 824 0044 10BD     		pop	{r4, pc}
 825              		.cfi_endproc
 826              	.LFE16:
 827              		.size	chOQGetI, .-chOQGetI
 828 0046 00BFAFF3 		.section	.text.chOQWriteTimeout,"ax",%progbits
 828      0080AFF3 
 828      0080
 829              		.align	2
 830              		.p2align 4,,15
 831              		.global	chOQWriteTimeout
 832              		.thumb
 833              		.thumb_func
 834              		.type	chOQWriteTimeout, %function
 835              	chOQWriteTimeout:
 836              	.LFB17:
 837              		.loc 1 403 0
 838              		.cfi_startproc
 839              		@ args = 0, pretend = 0, frame = 0
 840              		@ frame_needed = 0, uses_anonymous_args = 0
 841              	.LVL76:
 842 0000 2DE9F047 		push	{r4, r5, r6, r7, r8, r9, sl, lr}
 843              	.LCFI10:
 844              		.cfi_def_cfa_offset 32
 845              		.cfi_offset 4, -32
 846              		.cfi_offset 5, -28
ARM GAS  /var/folders/dt/0wfd0knj7gs46m8vwfzktm600000gn/T//ccFfYcvk.s 			page 16


 847              		.cfi_offset 6, -24
 848              		.cfi_offset 7, -20
 849              		.cfi_offset 8, -16
 850              		.cfi_offset 9, -12
 851              		.cfi_offset 10, -8
 852              		.cfi_offset 14, -4
 853              		.loc 1 403 0
 854 0004 9A46     		mov	sl, r3
 855 0006 0446     		mov	r4, r0
 856 0008 8846     		mov	r8, r1
 857 000a 1646     		mov	r6, r2
 858              		.loc 1 404 0
 859 000c D0F81C90 		ldr	r9, [r0, #28]
 860              	.LVL77:
 861              	.LBB38:
 862              		.loc 1 409 0
 863 0010 2023     		movs	r3, #32
 864              	.LVL78:
 865              	@ 409 "../../os/kernel/src/chqueues.c" 1
 866 0012 83F31188 		msr     BASEPRI, r3
 867              	@ 0 "" 2
 868              	.LVL79:
 869              		.loc 1 405 0
 870              		.thumb
 871 0016 0027     		movs	r7, #0
 872              	.LVL80:
 873              	.L91:
 874              	.LBE38:
 875              		.loc 1 411 0 discriminator 1
 876 0018 A568     		ldr	r5, [r4, #8]
 877              		.loc 1 423 0 discriminator 1
 878 001a 2046     		mov	r0, r4
 879              		.loc 1 417 0 discriminator 1
 880 001c 6B1E     		subs	r3, r5, #1
 881              	.LVL81:
 882              		.loc 1 411 0 discriminator 1
 883 001e EDB1     		cbz	r5, .L77
 884              	.LVL82:
 885              	.L92:
 886              		.loc 1 417 0
 887 0020 A360     		str	r3, [r4, #8]
 888              		.loc 1 418 0
 889 0022 18F8013B 		ldrb	r3, [r8], #1	@ zero_extendqisi2
 890              	.LVL83:
 891 0026 6569     		ldr	r5, [r4, #20]
 892 0028 05F8013B 		strb	r3, [r5], #1
 893              		.loc 1 419 0
 894 002c 2369     		ldr	r3, [r4, #16]
 895              		.loc 1 418 0
 896 002e 6561     		str	r5, [r4, #20]
 897              	.LVL84:
 898              		.loc 1 419 0
 899 0030 9D42     		cmp	r5, r3
 900              		.loc 1 420 0
 901 0032 24BF     		itt	cs
 902 0034 E368     		ldrcs	r3, [r4, #12]
 903 0036 6361     		strcs	r3, [r4, #20]
ARM GAS  /var/folders/dt/0wfd0knj7gs46m8vwfzktm600000gn/T//ccFfYcvk.s 			page 17


 904              		.loc 1 422 0
 905 0038 B9F1000F 		cmp	r9, #0
 906 003c 00D0     		beq	.L79
 907              		.loc 1 423 0
 908 003e C847     		blx	r9
 909              	.LVL85:
 910              	.L79:
 911              	.LBB39:
 912              		.loc 1 425 0
 913 0040 0023     		movs	r3, #0
 914              	.LVL86:
 915              	@ 425 "../../os/kernel/src/chqueues.c" 1
 916 0042 83F31188 		msr     BASEPRI, r3
 917              	@ 0 "" 2
 918              	.LVL87:
 919              		.thumb
 920              	.LBE39:
 921              		.loc 1 426 0
 922 0046 0137     		adds	r7, r7, #1
 923              	.LVL88:
 924              		.loc 1 427 0
 925 0048 013E     		subs	r6, r6, #1
 926              	.LVL89:
 927 004a 10D0     		beq	.L76
 928              	.LBB40:
 929              		.loc 1 429 0
 930 004c 2023     		movs	r3, #32
 931              	.LVL90:
 932              	@ 429 "../../os/kernel/src/chqueues.c" 1
 933 004e 83F31188 		msr     BASEPRI, r3
 934              	@ 0 "" 2
 935              	.LVL91:
 936              		.thumb
 937              	.LBE40:
 938              		.loc 1 411 0
 939 0052 A568     		ldr	r5, [r4, #8]
 940              		.loc 1 423 0
 941 0054 2046     		mov	r0, r4
 942              		.loc 1 417 0
 943 0056 6B1E     		subs	r3, r5, #1
 944              	.LVL92:
 945              		.loc 1 411 0
 946 0058 002D     		cmp	r5, #0
 947 005a E1D1     		bne	.L92
 948              	.LVL93:
 949              	.L77:
 950              		.loc 1 412 0
 951 005c 2046     		mov	r0, r4
 952              	.LVL94:
 953 005e 5146     		mov	r1, sl
 954 0060 FFF7FEFF 		bl	qwait
 955              	.LVL95:
 956 0064 0028     		cmp	r0, #0
 957 0066 D7D0     		beq	.L91
 958              	.LBB41:
 959              		.loc 1 413 0
 960 0068 2B46     		mov	r3, r5
ARM GAS  /var/folders/dt/0wfd0knj7gs46m8vwfzktm600000gn/T//ccFfYcvk.s 			page 18


 961              	.LVL96:
 962              	@ 413 "../../os/kernel/src/chqueues.c" 1
 963 006a 83F31188 		msr     BASEPRI, r3
 964              	@ 0 "" 2
 965              	.LVL97:
 966              		.thumb
 967              	.L76:
 968              	.LBE41:
 969              		.loc 1 431 0
 970 006e 3846     		mov	r0, r7
 971 0070 BDE8F087 		pop	{r4, r5, r6, r7, r8, r9, sl, pc}
 972              		.cfi_endproc
 973              	.LFE17:
 974              		.size	chOQWriteTimeout, .-chOQWriteTimeout
 975 0074 AFF30080 		.text
 975      AFF30080 
 975      AFF30080 
 976              	.Letext0:
 977              		.file 3 "/Users/toxygen/Applications/yagarto-4.7.2/bin/../lib/gcc/arm-none-eabi/4.7.2/include/stdd
 978              		.file 4 "/Users/toxygen/Applications/yagarto-4.7.2/bin/../lib/gcc/arm-none-eabi/4.7.2/../../../../
 979              		.file 5 "../../os/ports/GCC/ARMCMx/chtypes.h"
 980              		.file 6 "../../os/kernel/include/chlists.h"
 981              		.file 7 "../../os/kernel/include/chthreads.h"
 982              		.file 8 "../../os/ports/GCC/ARMCMx/chcore_v7m.h"
 983              		.file 9 "../../os/kernel/include/chschd.h"
 984              		.file 10 "../../os/kernel/include/chmtx.h"
 985              		.file 11 "../../os/kernel/include/chqueues.h"