ARM GAS  /var/folders/dt/0wfd0knj7gs46m8vwfzktm600000gn/T//ccFfYcvk.s 			page 1


   1              		.syntax unified
   2              		.cpu cortex-m3
   3              		.fpu softvfp
   4              		.eabi_attribute 20, 1
   5              		.eabi_attribute 21, 1
   6              		.eabi_attribute 23, 3
   7              		.eabi_attribute 24, 1
   8              		.eabi_attribute 25, 1
   9              		.eabi_attribute 26, 1
  10              		.eabi_attribute 30, 2
  11              		.eabi_attribute 34, 1
  12              		.eabi_attribute 18, 4
  13              		.thumb
  14              		.file	"chqueues.c"
  15              		.text
  16              	.Ltext0:
  17              		.cfi_sections	.debug_frame
  18              		.section	.text.qwait,"ax",%progbits
  19              		.align	2
  20              		.p2align 4,,15
  21              		.thumb
  22              		.thumb_func
  23              		.type	qwait, %function
  24              	qwait:
  25              	.LFB7:
  26              		.file 1 "../../os/kernel/src/chqueues.c"
  27              		.loc 1 72 0
  28              		.cfi_startproc
  29              		@ args = 0, pretend = 0, frame = 0
  30              		@ frame_needed = 0, uses_anonymous_args = 0
  31              		@ link register save eliminated.
  32              	.LVL0:
  33 0000 10B4     		push	{r4}
  34              	.LCFI0:
  35              		.cfi_def_cfa_offset 4
  36              		.cfi_offset 4, -4
  37              		.loc 1 72 0
  38 0002 0246     		mov	r2, r0
  39              		.loc 1 74 0
  40 0004 59B1     		cbz	r1, .L2
  41              		.loc 1 76 0
  42 0006 084B     		ldr	r3, .L4
  43              		.loc 1 78 0
  44 0008 0D20     		movs	r0, #13
  45              	.LVL1:
  46              		.loc 1 76 0
  47 000a DB69     		ldr	r3, [r3, #28]
  48 000c 5A62     		str	r2, [r3, #36]
  49              	.LVL2:
  50              	.LBB12:
  51              	.LBB13:
  52              		.file 2 "../../os/kernel/include/chinline.h"
  53              		.loc 2 55 0
  54 000e 5468     		ldr	r4, [r2, #4]
  55 0010 83E81400 		stmia	r3, {r2, r4}
  56              		.loc 2 56 0
  57 0014 5360     		str	r3, [r2, #4]
ARM GAS  /var/folders/dt/0wfd0knj7gs46m8vwfzktm600000gn/T//ccFfYcvk.s 			page 2


  58 0016 2360     		str	r3, [r4, #0]
  59              	.LBE13:
  60              	.LBE12:
  61              		.loc 1 79 0
  62 0018 10BC     		pop	{r4}
  63              		.loc 1 78 0
  64 001a FFF7FEBF 		b	chSchGoSleepTimeoutS
  65              	.LVL3:
  66              	.L2:
  67              		.loc 1 79 0
  68 001e 4FF0FF30 		mov	r0, #-1
  69              	.LVL4:
  70 0022 10BC     		pop	{r4}
  71 0024 7047     		bx	lr
  72              	.L5:
  73 0026 00BF     		.align	2
  74              	.L4:
  75 0028 00000000 		.word	rlist
  76              		.cfi_endproc
  77              	.LFE7:
  78              		.size	qwait, .-qwait
  79 002c AFF30080 		.section	.text.chIQInit,"ax",%progbits
  80              		.align	2
  81              		.p2align 4,,15
  82              		.global	chIQInit
  83              		.thumb
  84              		.thumb_func
  85              		.type	chIQInit, %function
  86              	chIQInit:
  87              	.LFB8:
  88              		.loc 1 96 0
  89              		.cfi_startproc
  90              		@ args = 0, pretend = 0, frame = 0
  91              		@ frame_needed = 0, uses_anonymous_args = 0
  92              		@ link register save eliminated.
  93              	.LVL5:
  94 0000 10B4     		push	{r4}
  95              	.LCFI1:
  96              		.cfi_def_cfa_offset 4
  97              		.cfi_offset 4, -4
  98              		.loc 1 101 0
  99 0002 8A18     		adds	r2, r1, r2
 100              	.LVL6:
 101              		.loc 1 99 0
 102 0004 0024     		movs	r4, #0
 103              		.loc 1 98 0
 104 0006 4060     		str	r0, [r0, #4]
 105 0008 0060     		str	r0, [r0, #0]
 106              		.loc 1 99 0
 107 000a 8460     		str	r4, [r0, #8]
 108              		.loc 1 100 0
 109 000c 4161     		str	r1, [r0, #20]
 110 000e 8161     		str	r1, [r0, #24]
 111 0010 C160     		str	r1, [r0, #12]
 112              		.loc 1 101 0
 113 0012 0261     		str	r2, [r0, #16]
 114              		.loc 1 102 0
ARM GAS  /var/folders/dt/0wfd0knj7gs46m8vwfzktm600000gn/T//ccFfYcvk.s 			page 3


 115 0014 C361     		str	r3, [r0, #28]
 116              		.loc 1 103 0
 117 0016 10BC     		pop	{r4}
 118 0018 7047     		bx	lr
 119              		.cfi_endproc
 120              	.LFE8:
 121              		.size	chIQInit, .-chIQInit
 122 001a 00BFAFF3 		.section	.text.chIQResetI,"ax",%progbits
 122      0080
 123              		.align	2
 124              		.p2align 4,,15
 125              		.global	chIQResetI
 126              		.thumb
 127              		.thumb_func
 128              		.type	chIQResetI, %function
 129              	chIQResetI:
 130              	.LFB9:
 131              		.loc 1 116 0
 132              		.cfi_startproc
 133              		@ args = 0, pretend = 0, frame = 0
 134              		@ frame_needed = 0, uses_anonymous_args = 0
 135              	.LVL7:
 136 0000 38B5     		push	{r3, r4, r5, lr}
 137              	.LCFI2:
 138              		.cfi_def_cfa_offset 16
 139              		.cfi_offset 3, -16
 140              		.cfi_offset 4, -12
 141              		.cfi_offset 5, -8
 142              		.cfi_offset 14, -4
 143              		.loc 1 116 0
 144 0002 0446     		mov	r4, r0
 145              		.loc 1 120 0
 146 0004 C368     		ldr	r3, [r0, #12]
 147              		.loc 1 122 0
 148 0006 0068     		ldr	r0, [r0, #0]
 149              	.LVL8:
 150              		.loc 1 120 0
 151 0008 6361     		str	r3, [r4, #20]
 152 000a A361     		str	r3, [r4, #24]
 153              		.loc 1 121 0
 154 000c 0023     		movs	r3, #0
 155              		.loc 1 122 0
 156 000e A042     		cmp	r0, r4
 157              		.loc 1 121 0
 158 0010 A360     		str	r3, [r4, #8]
 159              		.loc 1 122 0
 160 0012 0AD0     		beq	.L7
 161              		.loc 1 123 0
 162 0014 6FF00105 		mvn	r5, #1
 163              	.L11:
 164              	.LVL9:
 165              	.LBB14:
 166              	.LBB15:
 167              		.loc 2 62 0
 168 0018 0368     		ldr	r3, [r0, #0]
 169 001a 2360     		str	r3, [r4, #0]
 170 001c 5C60     		str	r4, [r3, #4]
ARM GAS  /var/folders/dt/0wfd0knj7gs46m8vwfzktm600000gn/T//ccFfYcvk.s 			page 4


 171              	.LBE15:
 172              	.LBE14:
 173              		.loc 1 123 0
 174 001e FFF7FEFF 		bl	chSchReadyI
 175              	.LVL10:
 176 0022 4562     		str	r5, [r0, #36]
 177              		.loc 1 122 0
 178 0024 2068     		ldr	r0, [r4, #0]
 179 0026 A042     		cmp	r0, r4
 180 0028 F6D1     		bne	.L11
 181              	.LVL11:
 182              	.L7:
 183 002a 38BD     		pop	{r3, r4, r5, pc}
 184              		.cfi_endproc
 185              	.LFE9:
 186              		.size	chIQResetI, .-chIQResetI
 187 002c AFF30080 		.section	.text.chIQPutI,"ax",%progbits
 188              		.align	2
 189              		.p2align 4,,15
 190              		.global	chIQPutI
 191              		.thumb
 192              		.thumb_func
 193              		.type	chIQPutI, %function
 194              	chIQPutI:
 195              	.LFB10:
 196              		.loc 1 139 0
 197              		.cfi_startproc
 198              		@ args = 0, pretend = 0, frame = 0
 199              		@ frame_needed = 0, uses_anonymous_args = 0
 200              	.LVL12:
 201              		.loc 1 143 0
 202 0000 4269     		ldr	r2, [r0, #20]
 203              		.loc 1 139 0
 204 0002 08B5     		push	{r3, lr}
 205              	.LCFI3:
 206              		.cfi_def_cfa_offset 8
 207              		.cfi_offset 3, -8
 208              		.cfi_offset 14, -4
 209              		.loc 1 139 0
 210 0004 0346     		mov	r3, r0
 211              		.loc 1 143 0
 212 0006 8069     		ldr	r0, [r0, #24]
 213              	.LVL13:
 214 0008 8242     		cmp	r2, r0
 215 000a 9868     		ldr	r0, [r3, #8]
 216 000c 18D0     		beq	.L14
 217              	.L15:
 218              		.loc 1 146 0
 219 000e 0130     		adds	r0, r0, #1
 220 0010 9860     		str	r0, [r3, #8]
 221              		.loc 1 147 0
 222 0012 02F8011B 		strb	r1, [r2], #1
 223              		.loc 1 148 0
 224 0016 1969     		ldr	r1, [r3, #16]
 225              	.LVL14:
 226              		.loc 1 147 0
 227 0018 5A61     		str	r2, [r3, #20]
ARM GAS  /var/folders/dt/0wfd0knj7gs46m8vwfzktm600000gn/T//ccFfYcvk.s 			page 5


 228              		.loc 1 148 0
 229 001a 8A42     		cmp	r2, r1
 230              		.loc 1 149 0
 231 001c 28BF     		it	cs
 232 001e DA68     		ldrcs	r2, [r3, #12]
 233              		.loc 1 151 0
 234 0020 1868     		ldr	r0, [r3, #0]
 235              		.loc 1 149 0
 236 0022 28BF     		it	cs
 237 0024 5A61     		strcs	r2, [r3, #20]
 238              		.loc 1 151 0
 239 0026 9842     		cmp	r0, r3
 240 0028 08D0     		beq	.L19
 241              	.LVL15:
 242              	.LBB16:
 243              	.LBB17:
 244              		.loc 2 62 0
 245 002a 0268     		ldr	r2, [r0, #0]
 246 002c 1A60     		str	r2, [r3, #0]
 247 002e 5360     		str	r3, [r2, #4]
 248              	.LBE17:
 249              	.LBE16:
 250              		.loc 1 152 0
 251 0030 FFF7FEFF 		bl	chSchReadyI
 252              	.LVL16:
 253 0034 0023     		movs	r3, #0
 254 0036 4362     		str	r3, [r0, #36]
 255              		.loc 1 154 0
 256 0038 1846     		mov	r0, r3
 257 003a 08BD     		pop	{r3, pc}
 258              	.LVL17:
 259              	.L19:
 260 003c 0020     		movs	r0, #0
 261              		.loc 1 155 0
 262 003e 08BD     		pop	{r3, pc}
 263              	.LVL18:
 264              	.L14:
 265              		.loc 1 143 0 discriminator 1
 266 0040 0028     		cmp	r0, #0
 267 0042 E4D0     		beq	.L15
 268              		.loc 1 144 0
 269 0044 6FF00300 		mvn	r0, #3
 270 0048 08BD     		pop	{r3, pc}
 271              		.cfi_endproc
 272              	.LFE10:
 273              		.size	chIQPutI, .-chIQPutI
 274 004a 00BFAFF3 		.section	.text.chIQGetTimeout,"ax",%progbits
 274      0080
 275              		.align	2
 276              		.p2align 4,,15
 277              		.global	chIQGetTimeout
 278              		.thumb
 279              		.thumb_func
 280              		.type	chIQGetTimeout, %function
 281              	chIQGetTimeout:
 282              	.LFB11:
 283              		.loc 1 177 0
ARM GAS  /var/folders/dt/0wfd0knj7gs46m8vwfzktm600000gn/T//ccFfYcvk.s 			page 6


 284              		.cfi_startproc
 285              		@ args = 0, pretend = 0, frame = 0
 286              		@ frame_needed = 0, uses_anonymous_args = 0
 287              	.LVL19:
 288 0000 70B5     		push	{r4, r5, r6, lr}
 289              	.LCFI4:
 290              		.cfi_def_cfa_offset 16
 291              		.cfi_offset 4, -16
 292              		.cfi_offset 5, -12
 293              		.cfi_offset 6, -8
 294              		.cfi_offset 14, -4
 295              	.LBB18:
 296              		.loc 1 180 0
 297 0002 2023     		movs	r3, #32
 298              	.LVL20:
 299              	.LBE18:
 300              		.loc 1 177 0
 301 0004 0446     		mov	r4, r0
 302 0006 0E46     		mov	r6, r1
 303              	.LBB19:
 304              		.loc 1 180 0
 305              	@ 180 "../../os/kernel/src/chqueues.c" 1
 306 0008 83F31188 		msr     BASEPRI, r3
 307              	@ 0 "" 2
 308              	.LVL21:
 309              		.thumb
 310              	.LBE19:
 311              		.loc 1 181 0
 312 000c C369     		ldr	r3, [r0, #28]
 313              	.LVL22:
 314 000e 03B1     		cbz	r3, .L28
 315              		.loc 1 182 0
 316 0010 9847     		blx	r3
 317              	.LVL23:
 318              	.L28:
 319              		.loc 1 184 0 discriminator 1
 320 0012 A568     		ldr	r5, [r4, #8]
 321              	.LBB20:
 322              		.loc 1 186 0 discriminator 1
 323 0014 2046     		mov	r0, r4
 324 0016 3146     		mov	r1, r6
 325              	.LBE20:
 326              		.loc 1 184 0 discriminator 1
 327 0018 3DB9     		cbnz	r5, .L31
 328              	.LVL24:
 329              	.LBB22:
 330              		.loc 1 186 0
 331 001a FFF7FEFF 		bl	qwait
 332              	.LVL25:
 333 001e 0028     		cmp	r0, #0
 334 0020 F7DA     		bge	.L28
 335              	.LBB21:
 336              		.loc 1 187 0
 337 0022 2B46     		mov	r3, r5
 338              	.LVL26:
 339              	@ 187 "../../os/kernel/src/chqueues.c" 1
 340 0024 83F31188 		msr     BASEPRI, r3
ARM GAS  /var/folders/dt/0wfd0knj7gs46m8vwfzktm600000gn/T//ccFfYcvk.s 			page 7


 341              	@ 0 "" 2
 342              	.LVL27:
 343              		.thumb
 344              	.LBE21:
 345              		.loc 1 188 0
 346 0028 70BD     		pop	{r4, r5, r6, pc}
 347              	.LVL28:
 348              	.L31:
 349              	.LBE22:
 350              		.loc 1 193 0
 351 002a A369     		ldr	r3, [r4, #24]
 352              		.loc 1 192 0
 353 002c 013D     		subs	r5, r5, #1
 354 002e A560     		str	r5, [r4, #8]
 355              		.loc 1 193 0
 356 0030 13F8010B 		ldrb	r0, [r3], #1	@ zero_extendqisi2
 357              	.LVL29:
 358              		.loc 1 194 0
 359 0034 2269     		ldr	r2, [r4, #16]
 360              		.loc 1 193 0
 361 0036 A361     		str	r3, [r4, #24]
 362              		.loc 1 194 0
 363 0038 9342     		cmp	r3, r2
 364              		.loc 1 195 0
 365 003a 24BF     		itt	cs
 366 003c E368     		ldrcs	r3, [r4, #12]
 367 003e A361     		strcs	r3, [r4, #24]
 368              	.LBB23:
 369              		.loc 1 197 0
 370 0040 0023     		movs	r3, #0
 371              	.LVL30:
 372              	@ 197 "../../os/kernel/src/chqueues.c" 1
 373 0042 83F31188 		msr     BASEPRI, r3
 374              	@ 0 "" 2
 375              	.LVL31:
 376              		.thumb
 377              	.LBE23:
 378              		.loc 1 199 0
 379 0046 70BD     		pop	{r4, r5, r6, pc}
 380              		.cfi_endproc
 381              	.LFE11:
 382              		.size	chIQGetTimeout, .-chIQGetTimeout
 383 0048 AFF30080 		.section	.text.chIQReadTimeout,"ax",%progbits
 383      AFF30080 
 384              		.align	2
 385              		.p2align 4,,15
 386              		.global	chIQReadTimeout
 387              		.thumb
 388              		.thumb_func
 389              		.type	chIQReadTimeout, %function
 390              	chIQReadTimeout:
 391              	.LFB12:
 392              		.loc 1 226 0
 393              		.cfi_startproc
 394              		@ args = 0, pretend = 0, frame = 0
 395              		@ frame_needed = 0, uses_anonymous_args = 0
 396              	.LVL32:
ARM GAS  /var/folders/dt/0wfd0knj7gs46m8vwfzktm600000gn/T//ccFfYcvk.s 			page 8


 397 0000 2DE9F047 		push	{r4, r5, r6, r7, r8, r9, sl, lr}
 398              	.LCFI5:
 399              		.cfi_def_cfa_offset 32
 400              		.cfi_offset 4, -32
 401              		.cfi_offset 5, -28
 402              		.cfi_offset 6, -24
 403              		.cfi_offset 7, -20
 404              		.cfi_offset 8, -16
 405              		.cfi_offset 9, -12
 406              		.cfi_offset 10, -8
 407              		.cfi_offset 14, -4
 408              		.loc 1 226 0
 409 0004 1E46     		mov	r6, r3
 410 0006 0446     		mov	r4, r0
 411              		.loc 1 227 0
 412 0008 C769     		ldr	r7, [r0, #28]
 413              	.LVL33:
 414              	.LBB24:
 415              		.loc 1 232 0
 416 000a 2023     		movs	r3, #32
 417              	.LVL34:
 418              	@ 232 "../../os/kernel/src/chqueues.c" 1
 419 000c 83F31188 		msr     BASEPRI, r3
 420              	@ 0 "" 2
 421              	.LVL35:
 422              		.thumb
 423              	.LBE24:
 424              		.loc 1 228 0
 425 0010 4FF00008 		mov	r8, #0
 426              	.LBB25:
 427              		.loc 1 225 0
 428 0014 01F10109 		add	r9, r1, #1
 429 0018 01EB020A 		add	sl, r1, r2
 430              	.LVL36:
 431              	.L38:
 432              	.LBE25:
 433              		.loc 1 234 0
 434 001c 0FB1     		cbz	r7, .L43
 435              		.loc 1 235 0
 436 001e 2046     		mov	r0, r4
 437              	.LVL37:
 438 0020 B847     		blx	r7
 439              	.LVL38:
 440              	.L43:
 441              		.loc 1 237 0 discriminator 1
 442 0022 A568     		ldr	r5, [r4, #8]
 443              		.loc 1 238 0 discriminator 1
 444 0024 2046     		mov	r0, r4
 445 0026 3146     		mov	r1, r6
 446              		.loc 1 237 0 discriminator 1
 447 0028 4DB9     		cbnz	r5, .L47
 448              	.LVL39:
 449              		.loc 1 238 0
 450 002a FFF7FEFF 		bl	qwait
 451              	.LVL40:
 452 002e 0028     		cmp	r0, #0
 453 0030 F7D0     		beq	.L43
ARM GAS  /var/folders/dt/0wfd0knj7gs46m8vwfzktm600000gn/T//ccFfYcvk.s 			page 9


 454              	.LBB26:
 455              		.loc 1 239 0
 456 0032 2B46     		mov	r3, r5
 457              	.LVL41:
 458              	@ 239 "../../os/kernel/src/chqueues.c" 1
 459 0034 83F31188 		msr     BASEPRI, r3
 460              	@ 0 "" 2
 461              	.LVL42:
 462              		.thumb
 463              	.L35:
 464              	.LBE26:
 465              		.loc 1 256 0
 466 0038 4046     		mov	r0, r8
 467 003a BDE8F087 		pop	{r4, r5, r6, r7, r8, r9, sl, pc}
 468              	.LVL43:
 469              	.L47:
 470              		.loc 1 245 0
 471 003e A369     		ldr	r3, [r4, #24]
 472              	.LVL44:
 473              		.loc 1 244 0
 474 0040 013D     		subs	r5, r5, #1
 475 0042 A560     		str	r5, [r4, #8]
 476              		.loc 1 245 0
 477 0044 13F8012B 		ldrb	r2, [r3], #1	@ zero_extendqisi2
 478 0048 09F8012C 		strb	r2, [r9, #-1]
 479              		.loc 1 246 0
 480 004c 2269     		ldr	r2, [r4, #16]
 481              		.loc 1 245 0
 482 004e A361     		str	r3, [r4, #24]
 483              		.loc 1 246 0
 484 0050 9342     		cmp	r3, r2
 485              		.loc 1 247 0
 486 0052 24BF     		itt	cs
 487 0054 E368     		ldrcs	r3, [r4, #12]
 488 0056 A361     		strcs	r3, [r4, #24]
 489              	.LBB27:
 490              		.loc 1 249 0
 491 0058 0023     		movs	r3, #0
 492              	@ 249 "../../os/kernel/src/chqueues.c" 1
 493 005a 83F31188 		msr     BASEPRI, r3
 494              	@ 0 "" 2
 495              	.LVL45:
 496              		.thumb
 497              	.LBE27:
 498              		.loc 1 251 0
 499 005e D145     		cmp	r9, sl
 500              		.loc 1 250 0
 501 0060 08F10108 		add	r8, r8, #1
 502              	.LVL46:
 503              		.loc 1 251 0
 504 0064 E8D0     		beq	.L35
 505              	.LBB28:
 506              		.loc 1 254 0
 507 0066 2023     		movs	r3, #32
 508              	.LVL47:
 509              	@ 254 "../../os/kernel/src/chqueues.c" 1
 510 0068 83F31188 		msr     BASEPRI, r3
ARM GAS  /var/folders/dt/0wfd0knj7gs46m8vwfzktm600000gn/T//ccFfYcvk.s 			page 10


 511              	@ 0 "" 2
 512              	.LVL48:
 513              		.thumb
 514 006c 09F10109 		add	r9, r9, #1
 515              	.LBE28:
 516              		.loc 1 255 0
 517 0070 D4E7     		b	.L38
 518              		.cfi_endproc
 519              	.LFE12:
 520              		.size	chIQReadTimeout, .-chIQReadTimeout
 521 0072 00BFAFF3 		.section	.text.chOQInit,"ax",%progbits
 521      0080AFF3 
 521      0080AFF3 
 521      0080
 522              		.align	2
 523              		.p2align 4,,15
 524              		.global	chOQInit
 525              		.thumb
 526              		.thumb_func
 527              		.type	chOQInit, %function
 528              	chOQInit:
 529              	.LFB13:
 530              		.loc 1 273 0
 531              		.cfi_startproc
 532              		@ args = 0, pretend = 0, frame = 0
 533              		@ frame_needed = 0, uses_anonymous_args = 0
 534              		@ link register save eliminated.
 535              	.LVL49:
 536 0000 10B4     		push	{r4}
 537              	.LCFI6:
 538              		.cfi_def_cfa_offset 4
 539              		.cfi_offset 4, -4
 540              		.loc 1 278 0
 541 0002 8C18     		adds	r4, r1, r2
 542              		.loc 1 275 0
 543 0004 4060     		str	r0, [r0, #4]
 544 0006 0060     		str	r0, [r0, #0]
 545              		.loc 1 276 0
 546 0008 8260     		str	r2, [r0, #8]
 547              		.loc 1 277 0
 548 000a 4161     		str	r1, [r0, #20]
 549 000c 8161     		str	r1, [r0, #24]
 550 000e C160     		str	r1, [r0, #12]
 551              		.loc 1 278 0
 552 0010 0461     		str	r4, [r0, #16]
 553              		.loc 1 279 0
 554 0012 C361     		str	r3, [r0, #28]
 555              		.loc 1 280 0
 556 0014 10BC     		pop	{r4}
 557 0016 7047     		bx	lr
 558              		.cfi_endproc
 559              	.LFE13:
 560              		.size	chOQInit, .-chOQInit
 561 0018 AFF30080 		.section	.text.chOQResetI,"ax",%progbits
 561      AFF30080 
 562              		.align	2
 563              		.p2align 4,,15
ARM GAS  /var/folders/dt/0wfd0knj7gs46m8vwfzktm600000gn/T//ccFfYcvk.s 			page 11


 564              		.global	chOQResetI
 565              		.thumb
 566              		.thumb_func
 567              		.type	chOQResetI, %function
 568              	chOQResetI:
 569              	.LFB14:
 570              		.loc 1 293 0
 571              		.cfi_startproc
 572              		@ args = 0, pretend = 0, frame = 0
 573              		@ frame_needed = 0, uses_anonymous_args = 0
 574              	.LVL50:
 575 0000 38B5     		push	{r3, r4, r5, lr}
 576              	.LCFI7:
 577              		.cfi_def_cfa_offset 16
 578              		.cfi_offset 3, -16
 579              		.cfi_offset 4, -12
 580              		.cfi_offset 5, -8
 581              		.cfi_offset 14, -4
 582              		.loc 1 298 0
 583 0002 0269     		ldr	r2, [r0, #16]
 584              		.loc 1 293 0
 585 0004 0446     		mov	r4, r0
 586              		.loc 1 297 0
 587 0006 C368     		ldr	r3, [r0, #12]
 588              		.loc 1 299 0
 589 0008 0068     		ldr	r0, [r0, #0]
 590              	.LVL51:
 591              		.loc 1 298 0
 592 000a D21A     		subs	r2, r2, r3
 593              		.loc 1 299 0
 594 000c A042     		cmp	r0, r4
 595              		.loc 1 297 0
 596 000e 6361     		str	r3, [r4, #20]
 597 0010 A361     		str	r3, [r4, #24]
 598              		.loc 1 298 0
 599 0012 A260     		str	r2, [r4, #8]
 600              		.loc 1 299 0
 601 0014 0AD0     		beq	.L49
 602              		.loc 1 300 0
 603 0016 6FF00105 		mvn	r5, #1
 604              	.L53:
 605              	.LVL52:
 606              	.LBB29:
 607              	.LBB30:
 608              		.loc 2 62 0
 609 001a 0368     		ldr	r3, [r0, #0]
 610 001c 2360     		str	r3, [r4, #0]
 611 001e 5C60     		str	r4, [r3, #4]
 612              	.LBE30:
 613              	.LBE29:
 614              		.loc 1 300 0
 615 0020 FFF7FEFF 		bl	chSchReadyI
 616              	.LVL53:
 617 0024 4562     		str	r5, [r0, #36]
 618              		.loc 1 299 0
 619 0026 2068     		ldr	r0, [r4, #0]
 620 0028 A042     		cmp	r0, r4
ARM GAS  /var/folders/dt/0wfd0knj7gs46m8vwfzktm600000gn/T//ccFfYcvk.s 			page 12


 621 002a F6D1     		bne	.L53
 622              	.LVL54:
 623              	.L49:
 624 002c 38BD     		pop	{r3, r4, r5, pc}
 625              		.cfi_endproc
 626              	.LFE14:
 627              		.size	chOQResetI, .-chOQResetI
 628 002e 00BF     		.section	.text.chOQPutTimeout,"ax",%progbits
 629              		.align	2
 630              		.p2align 4,,15
 631              		.global	chOQPutTimeout
 632              		.thumb
 633              		.thumb_func
 634              		.type	chOQPutTimeout, %function
 635              	chOQPutTimeout:
 636              	.LFB15:
 637              		.loc 1 325 0
 638              		.cfi_startproc
 639              		@ args = 0, pretend = 0, frame = 0
 640              		@ frame_needed = 0, uses_anonymous_args = 0
 641              	.LVL55:
 642 0000 F8B5     		push	{r3, r4, r5, r6, r7, lr}
 643              	.LCFI8:
 644              		.cfi_def_cfa_offset 24
 645              		.cfi_offset 3, -24
 646              		.cfi_offset 4, -20
 647              		.cfi_offset 5, -16
 648              		.cfi_offset 6, -12
 649              		.cfi_offset 7, -8
 650              		.cfi_offset 14, -4
 651              		.loc 1 325 0
 652 0002 0446     		mov	r4, r0
 653 0004 0F46     		mov	r7, r1
 654 0006 1646     		mov	r6, r2
 655              	.LBB31:
 656              		.loc 1 327 0
 657 0008 2023     		movs	r3, #32
 658              	.LVL56:
 659              	@ 327 "../../os/kernel/src/chqueues.c" 1
 660 000a 83F31188 		msr     BASEPRI, r3
 661              	@ 0 "" 2
 662              	.LVL57:
 663              		.thumb
 664              	.L56:
 665              	.LBE31:
 666              		.loc 1 328 0 discriminator 1
 667 000e A568     		ldr	r5, [r4, #8]
 668              	.LBB32:
 669              		.loc 1 331 0 discriminator 1
 670 0010 2046     		mov	r0, r4
 671 0012 3146     		mov	r1, r6
 672              	.LBE32:
 673              		.loc 1 328 0 discriminator 1
 674 0014 3DB9     		cbnz	r5, .L65
 675              	.LVL58:
 676              	.LBB34:
 677              		.loc 1 331 0
ARM GAS  /var/folders/dt/0wfd0knj7gs46m8vwfzktm600000gn/T//ccFfYcvk.s 			page 13


 678 0016 FFF7FEFF 		bl	qwait
 679              	.LVL59:
 680 001a 0028     		cmp	r0, #0
 681 001c F7DA     		bge	.L56
 682              	.LBB33:
 683              		.loc 1 332 0
 684 001e 2B46     		mov	r3, r5
 685              	.LVL60:
 686              	@ 332 "../../os/kernel/src/chqueues.c" 1
 687 0020 83F31188 		msr     BASEPRI, r3
 688              	@ 0 "" 2
 689              	.LVL61:
 690              		.thumb
 691              	.LBE33:
 692              		.loc 1 333 0
 693 0024 F8BD     		pop	{r3, r4, r5, r6, r7, pc}
 694              	.LVL62:
 695              	.L65:
 696              	.LBE34:
 697              		.loc 1 338 0
 698 0026 6369     		ldr	r3, [r4, #20]
 699              	.LVL63:
 700              		.loc 1 337 0
 701 0028 013D     		subs	r5, r5, #1
 702 002a A560     		str	r5, [r4, #8]
 703              		.loc 1 338 0
 704 002c 03F8017B 		strb	r7, [r3], #1
 705              		.loc 1 339 0
 706 0030 2269     		ldr	r2, [r4, #16]
 707              		.loc 1 338 0
 708 0032 6361     		str	r3, [r4, #20]
 709              		.loc 1 339 0
 710 0034 9342     		cmp	r3, r2
 711              		.loc 1 340 0
 712 0036 24BF     		itt	cs
 713 0038 E368     		ldrcs	r3, [r4, #12]
 714 003a 6361     		strcs	r3, [r4, #20]
 715              		.loc 1 342 0
 716 003c E369     		ldr	r3, [r4, #28]
 717 003e 0BB1     		cbz	r3, .L60
 718              		.loc 1 343 0
 719 0040 2046     		mov	r0, r4
 720              	.LVL64:
 721 0042 9847     		blx	r3
 722              	.LVL65:
 723              	.L60:
 724              	.LBB35:
 725              		.loc 1 345 0
 726 0044 0023     		movs	r3, #0
 727              	.LVL66:
 728              	@ 345 "../../os/kernel/src/chqueues.c" 1
 729 0046 83F31188 		msr     BASEPRI, r3
 730              	@ 0 "" 2
 731              	.LVL67:
 732              		.thumb
 733              	.LBE35:
 734              		.loc 1 346 0
ARM GAS  /var/folders/dt/0wfd0knj7gs46m8vwfzktm600000gn/T//ccFfYcvk.s 			page 14


 735 004a 1846     		mov	r0, r3
 736              		.loc 1 347 0
 737 004c F8BD     		pop	{r3, r4, r5, r6, r7, pc}
 738              		.cfi_endproc
 739              	.LFE15:
 740              		.size	chOQPutTimeout, .-chOQPutTimeout
 741 004e 00BF     		.section	.text.chOQGetI,"ax",%progbits
 742              		.align	2
 743              		.p2align 4,,15
 744              		.global	chOQGetI
 745              		.thumb
 746              		.thumb_func
 747              		.type	chOQGetI, %function
 748              	chOQGetI:
 749              	.LFB16:
 750              		.loc 1 359 0
 751              		.cfi_startproc
 752              		@ args = 0, pretend = 0, frame = 0
 753              		@ frame_needed = 0, uses_anonymous_args = 0
 754              	.LVL68:
 755              		.loc 1 364 0
 756 0000 4169     		ldr	r1, [r0, #20]
 757 0002 8269     		ldr	r2, [r0, #24]
 758              		.loc 1 359 0
 759 0004 10B5     		push	{r4, lr}
 760              	.LCFI9:
 761              		.cfi_def_cfa_offset 8
 762              		.cfi_offset 4, -8
 763              		.cfi_offset 14, -4
 764              		.loc 1 364 0
 765 0006 9142     		cmp	r1, r2
 766              		.loc 1 359 0
 767 0008 0346     		mov	r3, r0
 768              		.loc 1 364 0
 769 000a 8168     		ldr	r1, [r0, #8]
 770 000c 16D0     		beq	.L67
 771              	.L68:
 772              		.loc 1 367 0
 773 000e 0131     		adds	r1, r1, #1
 774 0010 9960     		str	r1, [r3, #8]
 775              		.loc 1 368 0
 776 0012 12F8014B 		ldrb	r4, [r2], #1	@ zero_extendqisi2
 777              	.LVL69:
 778              		.loc 1 369 0
 779 0016 1969     		ldr	r1, [r3, #16]
 780              		.loc 1 368 0
 781 0018 9A61     		str	r2, [r3, #24]
 782              		.loc 1 369 0
 783 001a 8A42     		cmp	r2, r1
 784              		.loc 1 370 0
 785 001c 28BF     		it	cs
 786 001e DA68     		ldrcs	r2, [r3, #12]
 787              		.loc 1 372 0
 788 0020 1868     		ldr	r0, [r3, #0]
 789              	.LVL70:
 790              		.loc 1 370 0
 791 0022 28BF     		it	cs
ARM GAS  /var/folders/dt/0wfd0knj7gs46m8vwfzktm600000gn/T//ccFfYcvk.s 			page 15


 792 0024 9A61     		strcs	r2, [r3, #24]
 793              		.loc 1 372 0
 794 0026 9842     		cmp	r0, r3
 795 0028 06D0     		beq	.L71
 796              	.LVL71:
 797              	.LBB36:
 798              	.LBB37:
 799              		.loc 2 62 0
 800 002a 0268     		ldr	r2, [r0, #0]
 801 002c 1A60     		str	r2, [r3, #0]
 802 002e 5360     		str	r3, [r2, #4]
 803              	.LBE37:
 804              	.LBE36:
 805              		.loc 1 373 0
 806 0030 FFF7FEFF 		bl	chSchReadyI
 807              	.LVL72:
 808 0034 0023     		movs	r3, #0
 809 0036 4362     		str	r3, [r0, #36]
 810              	.LVL73:
 811              	.L71:
 812              		.loc 1 375 0
 813 0038 2046     		mov	r0, r4
 814 003a 10BD     		pop	{r4, pc}
 815              	.LVL74:
 816              	.L67:
 817              		.loc 1 364 0 discriminator 1
 818 003c 0029     		cmp	r1, #0
 819 003e E6D0     		beq	.L68
 820              		.loc 1 365 0
 821 0040 6FF00200 		mvn	r0, #2
 822              	.LVL75:
 823              		.loc 1 376 0
 824 0044 10BD     		pop	{r4, pc}
 825              		.cfi_endproc
 826              	.LFE16:
 827              		.size	chOQGetI, .-chOQGetI
 828 0046 00BFAFF3 		.section	.text.chOQWriteTimeout,"ax",%progbits
 828      0080AFF3 
 828      0080
 829              		.align	2
 830              		.p2align 4,,15
 831              		.global	chOQWriteTimeout
 832              		.thumb
 833              		.thumb_func
 834              		.type	chOQWriteTimeout, %function
 835              	chOQWriteTimeout:
 836              	.LFB17:
 837              		.loc 1 403 0
 838              		.cfi_startproc
 839              		@ args = 0, pretend = 0, frame = 0
 840              		@ frame_needed = 0, uses_anonymous_args = 0
 841              	.LVL76:
 842 0000 2DE9F047 		push	{r4, r5, r6, r7, r8, r9, sl, lr}
 843              	.LCFI10:
 844              		.cfi_def_cfa_offset 32
 845              		.cfi_offset 4, -32
 846              		.cfi_offset 5, -28
ARM GAS  /var/folders/dt/0wfd0knj7gs46m8vwfzktm600000gn/T//ccFfYcvk.s 			page 16


 847              		.cfi_offset 6, -24
 848              		.cfi_offset 7, -20
 849              		.cfi_offset 8, -16
 850              		.cfi_offset 9, -12
 851              		.cfi_offset 10, -8
 852              		.cfi_offset 14, -4
 853              		.loc 1 403 0
 854 0004 9A46     		mov	sl, r3
 855 0006 0446     		mov	r4, r0
 856 0008 8846     		mov	r8, r1
 857 000a 1646     		mov	r6, r2
 858              		.loc 1 404 0
 859 000c D0F81C90 		ldr	r9, [r0, #28]
 860              	.LVL77:
 861              	.LBB38:
 862              		.loc 1 409 0
 863 0010 2023     		movs	r3, #32
 864              	.LVL78:
 865              	@ 409 "../../os/kernel/src/chqueues.c" 1
 866 0012 83F31188 		msr     BASEPRI, r3
 867              	@ 0 "" 2
 868              	.LVL79:
 869              		.loc 1 405 0
 870              		.thumb
 871 0016 0027     		movs	r7, #0
 872              	.LVL80:
 873              	.L91:
 874              	.LBE38:
 875              		.loc 1 411 0 discriminator 1
 876 0018 A568     		ldr	r5, [r4, #8]
 877              		.loc 1 423 0 discriminator 1
 878 001a 2046     		mov	r0, r4
 879              		.loc 1 417 0 discriminator 1
 880 001c 6B1E     		subs	r3, r5, #1
 881              	.LVL81:
 882              		.loc 1 411 0 discriminator 1
 883 001e EDB1     		cbz	r5, .L77
 884              	.LVL82:
 885              	.L92:
 886              		.loc 1 417 0
 887 0020 A360     		str	r3, [r4, #8]
 888              		.loc 1 418 0
 889 0022 18F8013B 		ldrb	r3, [r8], #1	@ zero_extendqisi2
 890              	.LVL83:
 891 0026 6569     		ldr	r5, [r4, #20]
 892 0028 05F8013B 		strb	r3, [r5], #1
 893              		.loc 1 419 0
 894 002c 2369     		ldr	r3, [r4, #16]
 895              		.loc 1 418 0
 896 002e 6561     		str	r5, [r4, #20]
 897              	.LVL84:
 898              		.loc 1 419 0
 899 0030 9D42     		cmp	r5, r3
 900              		.loc 1 420 0
 901 0032 24BF     		itt	cs
 902 0034 E368     		ldrcs	r3, [r4, #12]
 903 0036 6361     		strcs	r3, [r4, #20]
ARM GAS  /var/folders/dt/0wfd0knj7gs46m8vwfzktm600000gn/T//ccFfYcvk.s 			page 17


 904              		.loc 1 422 0
 905 0038 B9F1000F 		cmp	r9, #0
 906 003c 00D0     		beq	.L79
 907              		.loc 1 423 0
 908 003e C847     		blx	r9
 909              	.LVL85:
 910              	.L79:
 911              	.LBB39:
 912              		.loc 1 425 0
 913 0040 0023     		movs	r3, #0
 914              	.LVL86:
 915              	@ 425 "../../os/kernel/src/chqueues.c" 1
 916 0042 83F31188 		msr     BASEPRI, r3
 917              	@ 0 "" 2
 918              	.LVL87:
 919              		.thumb
 920              	.LBE39:
 921              		.loc 1 426 0
 922 0046 0137     		adds	r7, r7, #1
 923              	.LVL88:
 924              		.loc 1 427 0
 925 0048 013E     		subs	r6, r6, #1
 926              	.LVL89:
 927 004a 10D0     		beq	.L76
 928              	.LBB40:
 929              		.loc 1 429 0
 930 004c 2023     		movs	r3, #32
 931              	.LVL90:
 932              	@ 429 "../../os/kernel/src/chqueues.c" 1
 933 004e 83F31188 		msr     BASEPRI, r3
 934              	@ 0 "" 2
 935              	.LVL91:
 936              		.thumb
 937              	.LBE40:
 938              		.loc 1 411 0
 939 0052 A568     		ldr	r5, [r4, #8]
 940              		.loc 1 423 0
 941 0054 2046     		mov	r0, r4
 942              		.loc 1 417 0
 943 0056 6B1E     		subs	r3, r5, #1
 944              	.LVL92:
 945              		.loc 1 411 0
 946 0058 002D     		cmp	r5, #0
 947 005a E1D1     		bne	.L92
 948              	.LVL93:
 949              	.L77:
 950              		.loc 1 412 0
 951 005c 2046     		mov	r0, r4
 952              	.LVL94:
 953 005e 5146     		mov	r1, sl
 954 0060 FFF7FEFF 		bl	qwait
 955              	.LVL95:
 956 0064 0028     		cmp	r0, #0
 957 0066 D7D0     		beq	.L91
 958              	.LBB41:
 959              		.loc 1 413 0
 960 0068 2B46     		mov	r3, r5
ARM GAS  /var/folders/dt/0wfd0knj7gs46m8vwfzktm600000gn/T//ccFfYcvk.s 			page 18


 961              	.LVL96:
 962              	@ 413 "../../os/kernel/src/chqueues.c" 1
 963 006a 83F31188 		msr     BASEPRI, r3
 964              	@ 0 "" 2
 965              	.LVL97:
 966              		.thumb
 967              	.L76:
 968              	.LBE41:
 969              		.loc 1 431 0
 970 006e 3846     		mov	r0, r7
 971 0070 BDE8F087 		pop	{r4, r5, r6, r7, r8, r9, sl, pc}
 972              		.cfi_endproc
 973              	.LFE17:
 974              		.size	chOQWriteTimeout, .-chOQWriteTimeout
 975 0074 AFF30080 		.text
 975      AFF30080 
 975      AFF30080 
 976              	.Letext0:
 977              		.file 3 "/Users/toxygen/Applications/yagarto-4.7.2/bin/../lib/gcc/arm-none-eabi/4.7.2/include/stdd
 978              		.file 4 "/Users/toxygen/Applications/yagarto-4.7.2/bin/../lib/gcc/arm-none-eabi/4.7.2/../../../../
 979              		.file 5 "../../os/ports/GCC/ARMCMx/chtypes.h"
 980              		.file 6 "../../os/kernel/include/chlists.h"
 981              		.file 7 "../../os/kernel/include/chthreads.h"
 982              		.file 8 "../../os/ports/GCC/ARMCMx/chcore_v7m.h"
 983              		.file 9 "../../os/kernel/include/chschd.h"
 984              		.file 10 "../../os/kernel/include/chmtx.h"
 985              		.file 11 "../../os/kernel/include/chqueues.h"
 986              		.section	.debug_info,"",%progbits
 987              	.Ldebug_info0:
 988 0000 420C0000 		.4byte	0xc42
 989 0004 0200     		.2byte	0x2
 990 0006 00000000 		.4byte	.Ldebug_abbrev0
 991 000a 04       		.byte	0x4
 992 000b 01       		.uleb128 0x1
 993 000c 5B020000 		.4byte	.LASF89
 994 0010 01       		.byte	0x1
 995 0011 C2010000 		.4byte	.LASF90
 996 0015 28000000 		.4byte	.LASF91
 997 0019 60000000 		.4byte	.Ldebug_ranges0+0x60
 998 001d 00000000 		.4byte	0
 999 0021 00000000 		.4byte	0
 1000 0025 00000000 		.4byte	.Ldebug_line0
 1001 0029 02       		.uleb128 0x2
 1002 002a 04       		.byte	0x4
 1003 002b 05       		.byte	0x5
 1004 002c 696E7400 		.ascii	"int\000"
 1005 0030 03       		.uleb128 0x3
 1006 0031 21000000 		.4byte	.LASF2
 1007 0035 03       		.byte	0x3
 1008 0036 D5       		.byte	0xd5
 1009 0037 3B000000 		.4byte	0x3b
 1010 003b 04       		.uleb128 0x4
 1011 003c 04       		.byte	0x4
 1012 003d 07       		.byte	0x7
 1013 003e 72010000 		.4byte	.LASF0
 1014 0042 04       		.uleb128 0x4
 1015 0043 01       		.byte	0x1
ARM GAS  /var/folders/dt/0wfd0knj7gs46m8vwfzktm600000gn/T//ccFfYcvk.s 			page 19


 1016 0044 06       		.byte	0x6
 1017 0045 E6000000 		.4byte	.LASF1
 1018 0049 03       		.uleb128 0x3
 1019 004a A4030000 		.4byte	.LASF3
 1020 004e 04       		.byte	0x4
 1021 004f 2A       		.byte	0x2a
 1022 0050 54000000 		.4byte	0x54
 1023 0054 04       		.uleb128 0x4
 1024 0055 01       		.byte	0x1
 1025 0056 08       		.byte	0x8
 1026 0057 AA020000 		.4byte	.LASF4
 1027 005b 04       		.uleb128 0x4
 1028 005c 02       		.byte	0x2
 1029 005d 05       		.byte	0x5
 1030 005e C2020000 		.4byte	.LASF5
 1031 0062 04       		.uleb128 0x4
 1032 0063 02       		.byte	0x2
 1033 0064 07       		.byte	0x7
 1034 0065 A9010000 		.4byte	.LASF6
 1035 0069 03       		.uleb128 0x3
 1036 006a A2020000 		.4byte	.LASF7
 1037 006e 04       		.byte	0x4
 1038 006f 4F       		.byte	0x4f
 1039 0070 74000000 		.4byte	0x74
 1040 0074 04       		.uleb128 0x4
 1041 0075 04       		.byte	0x4
 1042 0076 05       		.byte	0x5
 1043 0077 0F010000 		.4byte	.LASF8
 1044 007b 03       		.uleb128 0x3
 1045 007c 0B030000 		.4byte	.LASF9
 1046 0080 04       		.byte	0x4
 1047 0081 50       		.byte	0x50
 1048 0082 86000000 		.4byte	0x86
 1049 0086 04       		.uleb128 0x4
 1050 0087 04       		.byte	0x4
 1051 0088 07       		.byte	0x7
 1052 0089 8A010000 		.4byte	.LASF10
 1053 008d 04       		.uleb128 0x4
 1054 008e 08       		.byte	0x8
 1055 008f 05       		.byte	0x5
 1056 0090 D8000000 		.4byte	.LASF11
 1057 0094 04       		.uleb128 0x4
 1058 0095 08       		.byte	0x8
 1059 0096 07       		.byte	0x7
 1060 0097 A7000000 		.4byte	.LASF12
 1061 009b 03       		.uleb128 0x3
 1062 009c FA000000 		.4byte	.LASF13
 1063 00a0 05       		.byte	0x5
 1064 00a1 2E       		.byte	0x2e
 1065 00a2 69000000 		.4byte	0x69
 1066 00a6 03       		.uleb128 0x3
 1067 00a7 E9020000 		.4byte	.LASF14
 1068 00ab 05       		.byte	0x5
 1069 00ac 2F       		.byte	0x2f
 1070 00ad 49000000 		.4byte	0x49
 1071 00b1 03       		.uleb128 0x3
 1072 00b2 18010000 		.4byte	.LASF15
ARM GAS  /var/folders/dt/0wfd0knj7gs46m8vwfzktm600000gn/T//ccFfYcvk.s 			page 20


 1073 00b6 05       		.byte	0x5
 1074 00b7 30       		.byte	0x30
 1075 00b8 49000000 		.4byte	0x49
 1076 00bc 03       		.uleb128 0x3
 1077 00bd 79020000 		.4byte	.LASF16
 1078 00c1 05       		.byte	0x5
 1079 00c2 31       		.byte	0x31
 1080 00c3 49000000 		.4byte	0x49
 1081 00c7 03       		.uleb128 0x3
 1082 00c8 92020000 		.4byte	.LASF17
 1083 00cc 05       		.byte	0x5
 1084 00cd 32       		.byte	0x32
 1085 00ce 7B000000 		.4byte	0x7b
 1086 00d2 03       		.uleb128 0x3
 1087 00d3 BC010000 		.4byte	.LASF18
 1088 00d7 05       		.byte	0x5
 1089 00d8 33       		.byte	0x33
 1090 00d9 69000000 		.4byte	0x69
 1091 00dd 03       		.uleb128 0x3
 1092 00de ED010000 		.4byte	.LASF19
 1093 00e2 05       		.byte	0x5
 1094 00e3 35       		.byte	0x35
 1095 00e4 7B000000 		.4byte	0x7b
 1096 00e8 03       		.uleb128 0x3
 1097 00e9 40030000 		.4byte	.LASF20
 1098 00ed 05       		.byte	0x5
 1099 00ee 36       		.byte	0x36
 1100 00ef 7B000000 		.4byte	0x7b
 1101 00f3 03       		.uleb128 0x3
 1102 00f4 6C010000 		.4byte	.LASF21
 1103 00f8 05       		.byte	0x5
 1104 00f9 37       		.byte	0x37
 1105 00fa 69000000 		.4byte	0x69
 1106 00fe 03       		.uleb128 0x3
 1107 00ff F9020000 		.4byte	.LASF22
 1108 0103 06       		.byte	0x6
 1109 0104 2A       		.byte	0x2a
 1110 0105 09010000 		.4byte	0x109
 1111 0109 05       		.uleb128 0x5
 1112 010a F9020000 		.4byte	.LASF22
 1113 010e 48       		.byte	0x48
 1114 010f 07       		.byte	0x7
 1115 0110 5E       		.byte	0x5e
 1116 0111 20020000 		.4byte	0x220
 1117 0115 06       		.uleb128 0x6
 1118 0116 E2020000 		.4byte	.LASF23
 1119 011a 07       		.byte	0x7
 1120 011b 5F       		.byte	0x5f
 1121 011c 45020000 		.4byte	0x245
 1122 0120 02       		.byte	0x2
 1123 0121 23       		.byte	0x23
 1124 0122 00       		.uleb128 0
 1125 0123 06       		.uleb128 0x6
 1126 0124 8B020000 		.4byte	.LASF24
 1127 0128 07       		.byte	0x7
 1128 0129 61       		.byte	0x61
 1129 012a 45020000 		.4byte	0x245
ARM GAS  /var/folders/dt/0wfd0knj7gs46m8vwfzktm600000gn/T//ccFfYcvk.s 			page 21


 1130 012e 02       		.byte	0x2
 1131 012f 23       		.byte	0x23
 1132 0130 04       		.uleb128 0x4
 1133 0131 06       		.uleb128 0x6
 1134 0132 C7000000 		.4byte	.LASF25
 1135 0136 07       		.byte	0x7
 1136 0137 63       		.byte	0x63
 1137 0138 C7000000 		.4byte	0xc7
 1138 013c 02       		.byte	0x2
 1139 013d 23       		.byte	0x23
 1140 013e 08       		.uleb128 0x8
 1141 013f 06       		.uleb128 0x6
 1142 0140 E1030000 		.4byte	.LASF26
 1143 0144 07       		.byte	0x7
 1144 0145 64       		.byte	0x64
 1145 0146 12030000 		.4byte	0x312
 1146 014a 02       		.byte	0x2
 1147 014b 23       		.byte	0x23
 1148 014c 0C       		.uleb128 0xc
 1149 014d 06       		.uleb128 0x6
 1150 014e 3B010000 		.4byte	.LASF27
 1151 0152 07       		.byte	0x7
 1152 0153 66       		.byte	0x66
 1153 0154 45020000 		.4byte	0x245
 1154 0158 02       		.byte	0x2
 1155 0159 23       		.byte	0x23
 1156 015a 10       		.uleb128 0x10
 1157 015b 06       		.uleb128 0x6
 1158 015c 3B020000 		.4byte	.LASF28
 1159 0160 07       		.byte	0x7
 1160 0161 67       		.byte	0x67
 1161 0162 45020000 		.4byte	0x245
 1162 0166 02       		.byte	0x2
 1163 0167 23       		.byte	0x23
 1164 0168 14       		.uleb128 0x14
 1165 0169 06       		.uleb128 0x6
 1166 016a B3030000 		.4byte	.LASF29
 1167 016e 07       		.byte	0x7
 1168 016f 6E       		.byte	0x6e
 1169 0170 34040000 		.4byte	0x434
 1170 0174 02       		.byte	0x2
 1171 0175 23       		.byte	0x23
 1172 0176 18       		.uleb128 0x18
 1173 0177 06       		.uleb128 0x6
 1174 0178 CC020000 		.4byte	.LASF30
 1175 017c 07       		.byte	0x7
 1176 017d 79       		.byte	0x79
 1177 017e B1000000 		.4byte	0xb1
 1178 0182 02       		.byte	0x2
 1179 0183 23       		.byte	0x23
 1180 0184 1C       		.uleb128 0x1c
 1181 0185 06       		.uleb128 0x6
 1182 0186 F1020000 		.4byte	.LASF31
 1183 018a 07       		.byte	0x7
 1184 018b 7D       		.byte	0x7d
 1185 018c A6000000 		.4byte	0xa6
 1186 0190 02       		.byte	0x2
ARM GAS  /var/folders/dt/0wfd0knj7gs46m8vwfzktm600000gn/T//ccFfYcvk.s 			page 22


 1187 0191 23       		.byte	0x23
 1188 0192 1D       		.uleb128 0x1d
 1189 0193 06       		.uleb128 0x6
 1190 0194 84030000 		.4byte	.LASF32
 1191 0198 07       		.byte	0x7
 1192 0199 82       		.byte	0x82
 1193 019a BC000000 		.4byte	0xbc
 1194 019e 02       		.byte	0x2
 1195 019f 23       		.byte	0x23
 1196 01a0 1E       		.uleb128 0x1e
 1197 01a1 06       		.uleb128 0x6
 1198 01a2 65030000 		.4byte	.LASF33
 1199 01a6 07       		.byte	0x7
 1200 01a7 89       		.byte	0x89
 1201 01a8 3C030000 		.4byte	0x33c
 1202 01ac 02       		.byte	0x2
 1203 01ad 23       		.byte	0x23
 1204 01ae 20       		.uleb128 0x20
 1205 01af 07       		.uleb128 0x7
 1206 01b0 705F7500 		.ascii	"p_u\000"
 1207 01b4 07       		.byte	0x7
 1208 01b5 AE       		.byte	0xae
 1209 01b6 FF030000 		.4byte	0x3ff
 1210 01ba 02       		.byte	0x2
 1211 01bb 23       		.byte	0x23
 1212 01bc 24       		.uleb128 0x24
 1213 01bd 06       		.uleb128 0x6
 1214 01be E7030000 		.4byte	.LASF34
 1215 01c2 07       		.byte	0x7
 1216 01c3 B3       		.byte	0xb3
 1217 01c4 6D020000 		.4byte	0x26d
 1218 01c8 02       		.byte	0x2
 1219 01c9 23       		.byte	0x23
 1220 01ca 28       		.uleb128 0x28
 1221 01cb 06       		.uleb128 0x6
 1222 01cc 73030000 		.4byte	.LASF35
 1223 01d0 07       		.byte	0x7
 1224 01d1 B9       		.byte	0xb9
 1225 01d2 4B020000 		.4byte	0x24b
 1226 01d6 02       		.byte	0x2
 1227 01d7 23       		.byte	0x23
 1228 01d8 2C       		.uleb128 0x2c
 1229 01d9 06       		.uleb128 0x6
 1230 01da 09000000 		.4byte	.LASF36
 1231 01de 07       		.byte	0x7
 1232 01df BD       		.byte	0xbd
 1233 01e0 D2000000 		.4byte	0xd2
 1234 01e4 02       		.byte	0x2
 1235 01e5 23       		.byte	0x23
 1236 01e6 34       		.uleb128 0x34
 1237 01e7 06       		.uleb128 0x6
 1238 01e8 00030000 		.4byte	.LASF37
 1239 01ec 07       		.byte	0x7
 1240 01ed C3       		.byte	0xc3
 1241 01ee DD000000 		.4byte	0xdd
 1242 01f2 02       		.byte	0x2
 1243 01f3 23       		.byte	0x23
ARM GAS  /var/folders/dt/0wfd0knj7gs46m8vwfzktm600000gn/T//ccFfYcvk.s 			page 23


 1244 01f4 38       		.uleb128 0x38
 1245 01f5 06       		.uleb128 0x6
 1246 01f6 B8020000 		.4byte	.LASF38
 1247 01fa 07       		.byte	0x7
 1248 01fb CA       		.byte	0xca
 1249 01fc 46040000 		.4byte	0x446
 1250 0200 02       		.byte	0x2
 1251 0201 23       		.byte	0x23
 1252 0202 3C       		.uleb128 0x3c
 1253 0203 06       		.uleb128 0x6
 1254 0204 4A030000 		.4byte	.LASF39
 1255 0208 07       		.byte	0x7
 1256 0209 CE       		.byte	0xce
 1257 020a C7000000 		.4byte	0xc7
 1258 020e 02       		.byte	0x2
 1259 020f 23       		.byte	0x23
 1260 0210 40       		.uleb128 0x40
 1261 0211 06       		.uleb128 0x6
 1262 0212 F2000000 		.4byte	.LASF40
 1263 0216 07       		.byte	0x7
 1264 0217 D4       		.byte	0xd4
 1265 0218 83020000 		.4byte	0x283
 1266 021c 02       		.byte	0x2
 1267 021d 23       		.byte	0x23
 1268 021e 44       		.uleb128 0x44
 1269 021f 00       		.byte	0
 1270 0220 08       		.uleb128 0x8
 1271 0221 08       		.byte	0x8
 1272 0222 06       		.byte	0x6
 1273 0223 61       		.byte	0x61
 1274 0224 45020000 		.4byte	0x245
 1275 0228 06       		.uleb128 0x6
 1276 0229 E2020000 		.4byte	.LASF23
 1277 022d 06       		.byte	0x6
 1278 022e 62       		.byte	0x62
 1279 022f 45020000 		.4byte	0x245
 1280 0233 02       		.byte	0x2
 1281 0234 23       		.byte	0x23
 1282 0235 00       		.uleb128 0
 1283 0236 06       		.uleb128 0x6
 1284 0237 8B020000 		.4byte	.LASF24
 1285 023b 06       		.byte	0x6
 1286 023c 64       		.byte	0x64
 1287 023d 45020000 		.4byte	0x245
 1288 0241 02       		.byte	0x2
 1289 0242 23       		.byte	0x23
 1290 0243 04       		.uleb128 0x4
 1291 0244 00       		.byte	0
 1292 0245 09       		.uleb128 0x9
 1293 0246 04       		.byte	0x4
 1294 0247 FE000000 		.4byte	0xfe
 1295 024b 03       		.uleb128 0x3
 1296 024c 49020000 		.4byte	.LASF41
 1297 0250 06       		.byte	0x6
 1298 0251 66       		.byte	0x66
 1299 0252 20020000 		.4byte	0x220
 1300 0256 08       		.uleb128 0x8
ARM GAS  /var/folders/dt/0wfd0knj7gs46m8vwfzktm600000gn/T//ccFfYcvk.s 			page 24


 1301 0257 04       		.byte	0x4
 1302 0258 06       		.byte	0x6
 1303 0259 6B       		.byte	0x6b
 1304 025a 6D020000 		.4byte	0x26d
 1305 025e 06       		.uleb128 0x6
 1306 025f E2020000 		.4byte	.LASF23
 1307 0263 06       		.byte	0x6
 1308 0264 6D       		.byte	0x6d
 1309 0265 45020000 		.4byte	0x245
 1310 0269 02       		.byte	0x2
 1311 026a 23       		.byte	0x23
 1312 026b 00       		.uleb128 0
 1313 026c 00       		.byte	0
 1314 026d 03       		.uleb128 0x3
 1315 026e E1010000 		.4byte	.LASF42
 1316 0272 06       		.byte	0x6
 1317 0273 70       		.byte	0x70
 1318 0274 56020000 		.4byte	0x256
 1319 0278 03       		.uleb128 0x3
 1320 0279 4B010000 		.4byte	.LASF43
 1321 027d 08       		.byte	0x8
 1322 027e D7       		.byte	0xd7
 1323 027f 83020000 		.4byte	0x283
 1324 0283 0A       		.uleb128 0xa
 1325 0284 04       		.byte	0x4
 1326 0285 05       		.uleb128 0x5
 1327 0286 6C030000 		.4byte	.LASF44
 1328 028a 24       		.byte	0x24
 1329 028b 08       		.byte	0x8
 1330 028c FE       		.byte	0xfe
 1331 028d 12030000 		.4byte	0x312
 1332 0291 0B       		.uleb128 0xb
 1333 0292 723400   		.ascii	"r4\000"
 1334 0295 08       		.byte	0x8
 1335 0296 1101     		.2byte	0x111
 1336 0298 78020000 		.4byte	0x278
 1337 029c 02       		.byte	0x2
 1338 029d 23       		.byte	0x23
 1339 029e 00       		.uleb128 0
 1340 029f 0B       		.uleb128 0xb
 1341 02a0 723500   		.ascii	"r5\000"
 1342 02a3 08       		.byte	0x8
 1343 02a4 1201     		.2byte	0x112
 1344 02a6 78020000 		.4byte	0x278
 1345 02aa 02       		.byte	0x2
 1346 02ab 23       		.byte	0x23
 1347 02ac 04       		.uleb128 0x4
 1348 02ad 0B       		.uleb128 0xb
 1349 02ae 723600   		.ascii	"r6\000"
 1350 02b1 08       		.byte	0x8
 1351 02b2 1301     		.2byte	0x113
 1352 02b4 78020000 		.4byte	0x278
 1353 02b8 02       		.byte	0x2
 1354 02b9 23       		.byte	0x23
 1355 02ba 08       		.uleb128 0x8
 1356 02bb 0B       		.uleb128 0xb
 1357 02bc 723700   		.ascii	"r7\000"
ARM GAS  /var/folders/dt/0wfd0knj7gs46m8vwfzktm600000gn/T//ccFfYcvk.s 			page 25


 1358 02bf 08       		.byte	0x8
 1359 02c0 1401     		.2byte	0x114
 1360 02c2 78020000 		.4byte	0x278
 1361 02c6 02       		.byte	0x2
 1362 02c7 23       		.byte	0x23
 1363 02c8 0C       		.uleb128 0xc
 1364 02c9 0B       		.uleb128 0xb
 1365 02ca 723800   		.ascii	"r8\000"
 1366 02cd 08       		.byte	0x8
 1367 02ce 1501     		.2byte	0x115
 1368 02d0 78020000 		.4byte	0x278
 1369 02d4 02       		.byte	0x2
 1370 02d5 23       		.byte	0x23
 1371 02d6 10       		.uleb128 0x10
 1372 02d7 0B       		.uleb128 0xb
 1373 02d8 723900   		.ascii	"r9\000"
 1374 02db 08       		.byte	0x8
 1375 02dc 1601     		.2byte	0x116
 1376 02de 78020000 		.4byte	0x278
 1377 02e2 02       		.byte	0x2
 1378 02e3 23       		.byte	0x23
 1379 02e4 14       		.uleb128 0x14
 1380 02e5 0B       		.uleb128 0xb
 1381 02e6 72313000 		.ascii	"r10\000"
 1382 02ea 08       		.byte	0x8
 1383 02eb 1701     		.2byte	0x117
 1384 02ed 78020000 		.4byte	0x278
 1385 02f1 02       		.byte	0x2
 1386 02f2 23       		.byte	0x23
 1387 02f3 18       		.uleb128 0x18
 1388 02f4 0B       		.uleb128 0xb
 1389 02f5 72313100 		.ascii	"r11\000"
 1390 02f9 08       		.byte	0x8
 1391 02fa 1801     		.2byte	0x118
 1392 02fc 78020000 		.4byte	0x278
 1393 0300 02       		.byte	0x2
 1394 0301 23       		.byte	0x23
 1395 0302 1C       		.uleb128 0x1c
 1396 0303 0B       		.uleb128 0xb
 1397 0304 6C7200   		.ascii	"lr\000"
 1398 0307 08       		.byte	0x8
 1399 0308 1901     		.2byte	0x119
 1400 030a 78020000 		.4byte	0x278
 1401 030e 02       		.byte	0x2
 1402 030f 23       		.byte	0x23
 1403 0310 20       		.uleb128 0x20
 1404 0311 00       		.byte	0
 1405 0312 0C       		.uleb128 0xc
 1406 0313 9C010000 		.4byte	.LASF45
 1407 0317 04       		.byte	0x4
 1408 0318 08       		.byte	0x8
 1409 0319 2301     		.2byte	0x123
 1410 031b 2F030000 		.4byte	0x32f
 1411 031f 0B       		.uleb128 0xb
 1412 0320 72313300 		.ascii	"r13\000"
 1413 0324 08       		.byte	0x8
 1414 0325 2401     		.2byte	0x124
ARM GAS  /var/folders/dt/0wfd0knj7gs46m8vwfzktm600000gn/T//ccFfYcvk.s 			page 26


 1415 0327 2F030000 		.4byte	0x32f
 1416 032b 02       		.byte	0x2
 1417 032c 23       		.byte	0x23
 1418 032d 00       		.uleb128 0
 1419 032e 00       		.byte	0
 1420 032f 09       		.uleb128 0x9
 1421 0330 04       		.byte	0x4
 1422 0331 85020000 		.4byte	0x285
 1423 0335 04       		.uleb128 0x4
 1424 0336 04       		.byte	0x4
 1425 0337 07       		.byte	0x7
 1426 0338 28020000 		.4byte	.LASF46
 1427 033c 0D       		.uleb128 0xd
 1428 033d E8000000 		.4byte	0xe8
 1429 0341 08       		.uleb128 0x8
 1430 0342 20       		.byte	0x20
 1431 0343 09       		.byte	0x9
 1432 0344 5E       		.byte	0x5e
 1433 0345 AC030000 		.4byte	0x3ac
 1434 0349 06       		.uleb128 0x6
 1435 034a 14030000 		.4byte	.LASF47
 1436 034e 09       		.byte	0x9
 1437 034f 5F       		.byte	0x5f
 1438 0350 4B020000 		.4byte	0x24b
 1439 0354 02       		.byte	0x2
 1440 0355 23       		.byte	0x23
 1441 0356 00       		.uleb128 0
 1442 0357 06       		.uleb128 0x6
 1443 0358 D4020000 		.4byte	.LASF48
 1444 035c 09       		.byte	0x9
 1445 035d 60       		.byte	0x60
 1446 035e C7000000 		.4byte	0xc7
 1447 0362 02       		.byte	0x2
 1448 0363 23       		.byte	0x23
 1449 0364 08       		.uleb128 0x8
 1450 0365 06       		.uleb128 0x6
 1451 0366 43020000 		.4byte	.LASF49
 1452 036a 09       		.byte	0x9
 1453 036b 62       		.byte	0x62
 1454 036c 12030000 		.4byte	0x312
 1455 0370 02       		.byte	0x2
 1456 0371 23       		.byte	0x23
 1457 0372 0C       		.uleb128 0xc
 1458 0373 06       		.uleb128 0x6
 1459 0374 43010000 		.4byte	.LASF50
 1460 0378 09       		.byte	0x9
 1461 0379 65       		.byte	0x65
 1462 037a 45020000 		.4byte	0x245
 1463 037e 02       		.byte	0x2
 1464 037f 23       		.byte	0x23
 1465 0380 10       		.uleb128 0x10
 1466 0381 06       		.uleb128 0x6
 1467 0382 71020000 		.4byte	.LASF51
 1468 0386 09       		.byte	0x9
 1469 0387 66       		.byte	0x66
 1470 0388 45020000 		.4byte	0x245
 1471 038c 02       		.byte	0x2
ARM GAS  /var/folders/dt/0wfd0knj7gs46m8vwfzktm600000gn/T//ccFfYcvk.s 			page 27


 1472 038d 23       		.byte	0x23
 1473 038e 14       		.uleb128 0x14
 1474 038f 06       		.uleb128 0x6
 1475 0390 CF030000 		.4byte	.LASF52
 1476 0394 09       		.byte	0x9
 1477 0395 6A       		.byte	0x6a
 1478 0396 F3000000 		.4byte	0xf3
 1479 039a 02       		.byte	0x2
 1480 039b 23       		.byte	0x23
 1481 039c 18       		.uleb128 0x18
 1482 039d 06       		.uleb128 0x6
 1483 039e 67020000 		.4byte	.LASF53
 1484 03a2 09       		.byte	0x9
 1485 03a3 6C       		.byte	0x6c
 1486 03a4 45020000 		.4byte	0x245
 1487 03a8 02       		.byte	0x2
 1488 03a9 23       		.byte	0x23
 1489 03aa 1C       		.uleb128 0x1c
 1490 03ab 00       		.byte	0
 1491 03ac 03       		.uleb128 0x3
 1492 03ad 8B030000 		.4byte	.LASF54
 1493 03b1 09       		.byte	0x9
 1494 03b2 6E       		.byte	0x6e
 1495 03b3 41030000 		.4byte	0x341
 1496 03b7 05       		.uleb128 0x5
 1497 03b8 04020000 		.4byte	.LASF55
 1498 03bc 10       		.byte	0x10
 1499 03bd 0A       		.byte	0xa
 1500 03be 2C       		.byte	0x2c
 1501 03bf EE030000 		.4byte	0x3ee
 1502 03c3 06       		.uleb128 0x6
 1503 03c4 01010000 		.4byte	.LASF56
 1504 03c8 0A       		.byte	0xa
 1505 03c9 2D       		.byte	0x2d
 1506 03ca 4B020000 		.4byte	0x24b
 1507 03ce 02       		.byte	0x2
 1508 03cf 23       		.byte	0x23
 1509 03d0 00       		.uleb128 0
 1510 03d1 06       		.uleb128 0x6
 1511 03d2 D9030000 		.4byte	.LASF57
 1512 03d6 0A       		.byte	0xa
 1513 03d7 2F       		.byte	0x2f
 1514 03d8 45020000 		.4byte	0x245
 1515 03dc 02       		.byte	0x2
 1516 03dd 23       		.byte	0x23
 1517 03de 08       		.uleb128 0x8
 1518 03df 06       		.uleb128 0x6
 1519 03e0 39030000 		.4byte	.LASF58
 1520 03e4 0A       		.byte	0xa
 1521 03e5 31       		.byte	0x31
 1522 03e6 EE030000 		.4byte	0x3ee
 1523 03ea 02       		.byte	0x2
 1524 03eb 23       		.byte	0x23
 1525 03ec 0C       		.uleb128 0xc
 1526 03ed 00       		.byte	0
 1527 03ee 09       		.uleb128 0x9
 1528 03ef 04       		.byte	0x4
ARM GAS  /var/folders/dt/0wfd0knj7gs46m8vwfzktm600000gn/T//ccFfYcvk.s 			page 28


 1529 03f0 B7030000 		.4byte	0x3b7
 1530 03f4 03       		.uleb128 0x3
 1531 03f5 04020000 		.4byte	.LASF55
 1532 03f9 0A       		.byte	0xa
 1533 03fa 33       		.byte	0x33
 1534 03fb B7030000 		.4byte	0x3b7
 1535 03ff 0E       		.uleb128 0xe
 1536 0400 04       		.byte	0x4
 1537 0401 07       		.byte	0x7
 1538 0402 90       		.byte	0x90
 1539 0403 34040000 		.4byte	0x434
 1540 0407 0F       		.uleb128 0xf
 1541 0408 7B000000 		.4byte	.LASF59
 1542 040c 07       		.byte	0x7
 1543 040d 97       		.byte	0x97
 1544 040e D2000000 		.4byte	0xd2
 1545 0412 0F       		.uleb128 0xf
 1546 0413 BE000000 		.4byte	.LASF60
 1547 0417 07       		.byte	0x7
 1548 0418 9E       		.byte	0x9e
 1549 0419 D2000000 		.4byte	0xd2
 1550 041d 0F       		.uleb128 0xf
 1551 041e AC030000 		.4byte	.LASF61
 1552 0422 07       		.byte	0x7
 1553 0423 A5       		.byte	0xa5
 1554 0424 83020000 		.4byte	0x283
 1555 0428 0F       		.uleb128 0xf
 1556 0429 DB020000 		.4byte	.LASF62
 1557 042d 07       		.byte	0x7
 1558 042e AC       		.byte	0xac
 1559 042f DD000000 		.4byte	0xdd
 1560 0433 00       		.byte	0
 1561 0434 09       		.uleb128 0x9
 1562 0435 04       		.byte	0x4
 1563 0436 3A040000 		.4byte	0x43a
 1564 043a 10       		.uleb128 0x10
 1565 043b 3F040000 		.4byte	0x43f
 1566 043f 04       		.uleb128 0x4
 1567 0440 01       		.byte	0x1
 1568 0441 08       		.byte	0x8
 1569 0442 28030000 		.4byte	.LASF63
 1570 0446 09       		.uleb128 0x9
 1571 0447 04       		.byte	0x4
 1572 0448 F4030000 		.4byte	0x3f4
 1573 044c 03       		.uleb128 0x3
 1574 044d 0A020000 		.4byte	.LASF64
 1575 0451 0B       		.byte	0xb
 1576 0452 37       		.byte	0x37
 1577 0453 57040000 		.4byte	0x457
 1578 0457 05       		.uleb128 0x5
 1579 0458 0A020000 		.4byte	.LASF64
 1580 045c 20       		.byte	0x20
 1581 045d 0B       		.byte	0xb
 1582 045e 45       		.byte	0x45
 1583 045f C6040000 		.4byte	0x4c6
 1584 0463 06       		.uleb128 0x6
 1585 0464 CE000000 		.4byte	.LASF65
ARM GAS  /var/folders/dt/0wfd0knj7gs46m8vwfzktm600000gn/T//ccFfYcvk.s 			page 29


 1586 0468 0B       		.byte	0xb
 1587 0469 46       		.byte	0x46
 1588 046a 4B020000 		.4byte	0x24b
 1589 046e 02       		.byte	0x2
 1590 046f 23       		.byte	0x23
 1591 0470 00       		.uleb128 0
 1592 0471 06       		.uleb128 0x6
 1593 0472 31020000 		.4byte	.LASF66
 1594 0476 0B       		.byte	0xb
 1595 0477 47       		.byte	0x47
 1596 0478 30000000 		.4byte	0x30
 1597 047c 02       		.byte	0x2
 1598 047d 23       		.byte	0x23
 1599 047e 08       		.uleb128 0x8
 1600 047f 06       		.uleb128 0x6
 1601 0480 2A010000 		.4byte	.LASF67
 1602 0484 0B       		.byte	0xb
 1603 0485 48       		.byte	0x48
 1604 0486 E9040000 		.4byte	0x4e9
 1605 048a 02       		.byte	0x2
 1606 048b 23       		.byte	0x23
 1607 048c 0C       		.uleb128 0xc
 1608 048d 06       		.uleb128 0x6
 1609 048e 7E030000 		.4byte	.LASF68
 1610 0492 0B       		.byte	0xb
 1611 0493 49       		.byte	0x49
 1612 0494 E9040000 		.4byte	0x4e9
 1613 0498 02       		.byte	0x2
 1614 0499 23       		.byte	0x23
 1615 049a 10       		.uleb128 0x10
 1616 049b 06       		.uleb128 0x6
 1617 049c 33010000 		.4byte	.LASF69
 1618 04a0 0B       		.byte	0xb
 1619 04a1 4B       		.byte	0x4b
 1620 04a2 E9040000 		.4byte	0x4e9
 1621 04a6 02       		.byte	0x2
 1622 04a7 23       		.byte	0x23
 1623 04a8 14       		.uleb128 0x14
 1624 04a9 06       		.uleb128 0x6
 1625 04aa 9A020000 		.4byte	.LASF70
 1626 04ae 0B       		.byte	0xb
 1627 04af 4C       		.byte	0x4c
 1628 04b0 E9040000 		.4byte	0x4e9
 1629 04b4 02       		.byte	0x2
 1630 04b5 23       		.byte	0x23
 1631 04b6 18       		.uleb128 0x18
 1632 04b7 06       		.uleb128 0x6
 1633 04b8 95030000 		.4byte	.LASF71
 1634 04bc 0B       		.byte	0xb
 1635 04bd 4D       		.byte	0x4d
 1636 04be C6040000 		.4byte	0x4c6
 1637 04c2 02       		.byte	0x2
 1638 04c3 23       		.byte	0x23
 1639 04c4 1C       		.uleb128 0x1c
 1640 04c5 00       		.byte	0
 1641 04c6 03       		.uleb128 0x3
 1642 04c7 81020000 		.4byte	.LASF72
ARM GAS  /var/folders/dt/0wfd0knj7gs46m8vwfzktm600000gn/T//ccFfYcvk.s 			page 30


 1643 04cb 0B       		.byte	0xb
 1644 04cc 3A       		.byte	0x3a
 1645 04cd D1040000 		.4byte	0x4d1
 1646 04d1 09       		.uleb128 0x9
 1647 04d2 04       		.byte	0x4
 1648 04d3 D7040000 		.4byte	0x4d7
 1649 04d7 11       		.uleb128 0x11
 1650 04d8 01       		.byte	0x1
 1651 04d9 E3040000 		.4byte	0x4e3
 1652 04dd 12       		.uleb128 0x12
 1653 04de E3040000 		.4byte	0x4e3
 1654 04e2 00       		.byte	0
 1655 04e3 09       		.uleb128 0x9
 1656 04e4 04       		.byte	0x4
 1657 04e5 4C040000 		.4byte	0x44c
 1658 04e9 09       		.uleb128 0x9
 1659 04ea 04       		.byte	0x4
 1660 04eb 49000000 		.4byte	0x49
 1661 04ef 03       		.uleb128 0x3
 1662 04f0 F9010000 		.4byte	.LASF73
 1663 04f4 0B       		.byte	0xb
 1664 04f5 76       		.byte	0x76
 1665 04f6 4C040000 		.4byte	0x44c
 1666 04fa 03       		.uleb128 0x3
 1667 04fb 8B000000 		.4byte	.LASF74
 1668 04ff 0B       		.byte	0xb
 1669 0500 E6       		.byte	0xe6
 1670 0501 4C040000 		.4byte	0x44c
 1671 0505 09       		.uleb128 0x9
 1672 0506 04       		.byte	0x4
 1673 0507 0B050000 		.4byte	0x50b
 1674 050b 10       		.uleb128 0x10
 1675 050c 49000000 		.4byte	0x49
 1676 0510 13       		.uleb128 0x13
 1677 0511 0F000000 		.4byte	.LASF92
 1678 0515 02       		.byte	0x2
 1679 0516 34       		.byte	0x34
 1680 0517 01       		.byte	0x1
 1681 0518 03       		.byte	0x3
 1682 0519 33050000 		.4byte	0x533
 1683 051d 14       		.uleb128 0x14
 1684 051e 747000   		.ascii	"tp\000"
 1685 0521 02       		.byte	0x2
 1686 0522 34       		.byte	0x34
 1687 0523 45020000 		.4byte	0x245
 1688 0527 14       		.uleb128 0x14
 1689 0528 74717000 		.ascii	"tqp\000"
 1690 052c 02       		.byte	0x2
 1691 052d 34       		.byte	0x34
 1692 052e 33050000 		.4byte	0x533
 1693 0532 00       		.byte	0
 1694 0533 09       		.uleb128 0x9
 1695 0534 04       		.byte	0x4
 1696 0535 4B020000 		.4byte	0x24b
 1697 0539 15       		.uleb128 0x15
 1698 053a 2D030000 		.4byte	.LASF93
 1699 053e 02       		.byte	0x2
ARM GAS  /var/folders/dt/0wfd0knj7gs46m8vwfzktm600000gn/T//ccFfYcvk.s 			page 31


 1700 053f 3B       		.byte	0x3b
 1701 0540 01       		.byte	0x1
 1702 0541 45020000 		.4byte	0x245
 1703 0545 03       		.byte	0x3
 1704 0546 60050000 		.4byte	0x560
 1705 054a 14       		.uleb128 0x14
 1706 054b 74717000 		.ascii	"tqp\000"
 1707 054f 02       		.byte	0x2
 1708 0550 3B       		.byte	0x3b
 1709 0551 33050000 		.4byte	0x533
 1710 0555 16       		.uleb128 0x16
 1711 0556 747000   		.ascii	"tp\000"
 1712 0559 02       		.byte	0x2
 1713 055a 3C       		.byte	0x3c
 1714 055b 45020000 		.4byte	0x245
 1715 055f 00       		.byte	0
 1716 0560 17       		.uleb128 0x17
 1717 0561 09010000 		.4byte	.LASF94
 1718 0565 01       		.byte	0x1
 1719 0566 48       		.byte	0x48
 1720 0567 01       		.byte	0x1
 1721 0568 D2000000 		.4byte	0xd2
 1722 056c 00000000 		.4byte	.LFB7
 1723 0570 2C000000 		.4byte	.LFE7
 1724 0574 00000000 		.4byte	.LLST0
 1725 0578 01       		.byte	0x1
 1726 0579 D8050000 		.4byte	0x5d8
 1727 057d 18       		.uleb128 0x18
 1728 057e 717000   		.ascii	"qp\000"
 1729 0581 01       		.byte	0x1
 1730 0582 48       		.byte	0x48
 1731 0583 E3040000 		.4byte	0x4e3
 1732 0587 20000000 		.4byte	.LLST1
 1733 058b 19       		.uleb128 0x19
 1734 058c 56020000 		.4byte	.LASF75
 1735 0590 01       		.byte	0x1
 1736 0591 48       		.byte	0x48
 1737 0592 E8000000 		.4byte	0xe8
 1738 0596 62000000 		.4byte	.LLST2
 1739 059a 1A       		.uleb128 0x1a
 1740 059b 10050000 		.4byte	0x510
 1741 059f 0E000000 		.4byte	.LBB12
 1742 05a3 18000000 		.4byte	.LBE12
 1743 05a7 01       		.byte	0x1
 1744 05a8 4D       		.byte	0x4d
 1745 05a9 C0050000 		.4byte	0x5c0
 1746 05ad 1B       		.uleb128 0x1b
 1747 05ae 27050000 		.4byte	0x527
 1748 05b2 8E000000 		.4byte	.LLST3
 1749 05b6 1B       		.uleb128 0x1b
 1750 05b7 1D050000 		.4byte	0x51d
 1751 05bb AF000000 		.4byte	.LLST4
 1752 05bf 00       		.byte	0
 1753 05c0 1C       		.uleb128 0x1c
 1754 05c1 1E000000 		.4byte	.LVL3
 1755 05c5 01       		.byte	0x1
 1756 05c6 140C0000 		.4byte	0xc14
ARM GAS  /var/folders/dt/0wfd0knj7gs46m8vwfzktm600000gn/T//ccFfYcvk.s 			page 32


 1757 05ca 1D       		.uleb128 0x1d
 1758 05cb 01       		.byte	0x1
 1759 05cc 51       		.byte	0x51
 1760 05cd 03       		.byte	0x3
 1761 05ce F3       		.byte	0xf3
 1762 05cf 01       		.uleb128 0x1
 1763 05d0 51       		.byte	0x51
 1764 05d1 1D       		.uleb128 0x1d
 1765 05d2 01       		.byte	0x1
 1766 05d3 50       		.byte	0x50
 1767 05d4 01       		.byte	0x1
 1768 05d5 3D       		.byte	0x3d
 1769 05d6 00       		.byte	0
 1770 05d7 00       		.byte	0
 1771 05d8 1E       		.uleb128 0x1e
 1772 05d9 01       		.byte	0x1
 1773 05da 82000000 		.4byte	.LASF78
 1774 05de 01       		.byte	0x1
 1775 05df 60       		.byte	0x60
 1776 05e0 01       		.byte	0x1
 1777 05e1 00000000 		.4byte	.LFB8
 1778 05e5 1A000000 		.4byte	.LFE8
 1779 05e9 C2000000 		.4byte	.LLST5
 1780 05ed 01       		.byte	0x1
 1781 05ee 28060000 		.4byte	0x628
 1782 05f2 1F       		.uleb128 0x1f
 1783 05f3 69717000 		.ascii	"iqp\000"
 1784 05f7 01       		.byte	0x1
 1785 05f8 60       		.byte	0x60
 1786 05f9 28060000 		.4byte	0x628
 1787 05fd 01       		.byte	0x1
 1788 05fe 50       		.byte	0x50
 1789 05ff 1F       		.uleb128 0x1f
 1790 0600 627000   		.ascii	"bp\000"
 1791 0603 01       		.byte	0x1
 1792 0604 60       		.byte	0x60
 1793 0605 E9040000 		.4byte	0x4e9
 1794 0609 01       		.byte	0x1
 1795 060a 51       		.byte	0x51
 1796 060b 19       		.uleb128 0x19
 1797 060c A4010000 		.4byte	.LASF76
 1798 0610 01       		.byte	0x1
 1799 0611 60       		.byte	0x60
 1800 0612 30000000 		.4byte	0x30
 1801 0616 E2000000 		.4byte	.LLST6
 1802 061a 20       		.uleb128 0x20
 1803 061b 55030000 		.4byte	.LASF77
 1804 061f 01       		.byte	0x1
 1805 0620 60       		.byte	0x60
 1806 0621 C6040000 		.4byte	0x4c6
 1807 0625 01       		.byte	0x1
 1808 0626 53       		.byte	0x53
 1809 0627 00       		.byte	0
 1810 0628 09       		.uleb128 0x9
 1811 0629 04       		.byte	0x4
 1812 062a EF040000 		.4byte	0x4ef
 1813 062e 1E       		.uleb128 0x1e
ARM GAS  /var/folders/dt/0wfd0knj7gs46m8vwfzktm600000gn/T//ccFfYcvk.s 			page 33


 1814 062f 01       		.byte	0x1
 1815 0630 7F010000 		.4byte	.LASF79
 1816 0634 01       		.byte	0x1
 1817 0635 74       		.byte	0x74
 1818 0636 01       		.byte	0x1
 1819 0637 00000000 		.4byte	.LFB9
 1820 063b 2C000000 		.4byte	.LFE9
 1821 063f 03010000 		.4byte	.LLST7
 1822 0643 01       		.byte	0x1
 1823 0644 91060000 		.4byte	0x691
 1824 0648 18       		.uleb128 0x18
 1825 0649 69717000 		.ascii	"iqp\000"
 1826 064d 01       		.byte	0x1
 1827 064e 74       		.byte	0x74
 1828 064f 28060000 		.4byte	0x628
 1829 0653 23010000 		.4byte	.LLST8
 1830 0657 1A       		.uleb128 0x1a
 1831 0658 39050000 		.4byte	0x539
 1832 065c 18000000 		.4byte	.LBB14
 1833 0660 1E000000 		.4byte	.LBE14
 1834 0664 01       		.byte	0x1
 1835 0665 7B       		.byte	0x7b
 1836 0666 87060000 		.4byte	0x687
 1837 066a 1B       		.uleb128 0x1b
 1838 066b 4A050000 		.4byte	0x54a
 1839 066f 41010000 		.4byte	.LLST9
 1840 0673 21       		.uleb128 0x21
 1841 0674 18000000 		.4byte	.LBB15
 1842 0678 1E000000 		.4byte	.LBE15
 1843 067c 22       		.uleb128 0x22
 1844 067d 55050000 		.4byte	0x555
 1845 0681 54010000 		.4byte	.LLST10
 1846 0685 00       		.byte	0
 1847 0686 00       		.byte	0
 1848 0687 23       		.uleb128 0x23
 1849 0688 22000000 		.4byte	.LVL10
 1850 068c 310C0000 		.4byte	0xc31
 1851 0690 00       		.byte	0
 1852 0691 24       		.uleb128 0x24
 1853 0692 01       		.byte	0x1
 1854 0693 63010000 		.4byte	.LASF80
 1855 0697 01       		.byte	0x1
 1856 0698 8B       		.byte	0x8b
 1857 0699 01       		.byte	0x1
 1858 069a D2000000 		.4byte	0xd2
 1859 069e 00000000 		.4byte	.LFB10
 1860 06a2 4A000000 		.4byte	.LFE10
 1861 06a6 67010000 		.4byte	.LLST11
 1862 06aa 01       		.byte	0x1
 1863 06ab 05070000 		.4byte	0x705
 1864 06af 18       		.uleb128 0x18
 1865 06b0 69717000 		.ascii	"iqp\000"
 1866 06b4 01       		.byte	0x1
 1867 06b5 8B       		.byte	0x8b
 1868 06b6 28060000 		.4byte	0x628
 1869 06ba 87010000 		.4byte	.LLST12
 1870 06be 18       		.uleb128 0x18
ARM GAS  /var/folders/dt/0wfd0knj7gs46m8vwfzktm600000gn/T//ccFfYcvk.s 			page 34


 1871 06bf 6200     		.ascii	"b\000"
 1872 06c1 01       		.byte	0x1
 1873 06c2 8B       		.byte	0x8b
 1874 06c3 49000000 		.4byte	0x49
 1875 06c7 BE010000 		.4byte	.LLST13
 1876 06cb 1A       		.uleb128 0x1a
 1877 06cc 39050000 		.4byte	0x539
 1878 06d0 2A000000 		.4byte	.LBB16
 1879 06d4 30000000 		.4byte	.LBE16
 1880 06d8 01       		.byte	0x1
 1881 06d9 98       		.byte	0x98
 1882 06da FB060000 		.4byte	0x6fb
 1883 06de 1B       		.uleb128 0x1b
 1884 06df 4A050000 		.4byte	0x54a
 1885 06e3 04020000 		.4byte	.LLST14
 1886 06e7 21       		.uleb128 0x21
 1887 06e8 2A000000 		.4byte	.LBB17
 1888 06ec 30000000 		.4byte	.LBE17
 1889 06f0 22       		.uleb128 0x22
 1890 06f1 55050000 		.4byte	0x555
 1891 06f5 25020000 		.4byte	.LLST15
 1892 06f9 00       		.byte	0
 1893 06fa 00       		.byte	0
 1894 06fb 23       		.uleb128 0x23
 1895 06fc 34000000 		.4byte	.LVL16
 1896 0700 310C0000 		.4byte	0xc31
 1897 0704 00       		.byte	0
 1898 0705 24       		.uleb128 0x24
 1899 0706 01       		.byte	0x1
 1900 0707 F1030000 		.4byte	.LASF81
 1901 070b 01       		.byte	0x1
 1902 070c B1       		.byte	0xb1
 1903 070d 01       		.byte	0x1
 1904 070e D2000000 		.4byte	0xd2
 1905 0712 00000000 		.4byte	.LFB11
 1906 0716 48000000 		.4byte	.LFE11
 1907 071a 38020000 		.4byte	.LLST16
 1908 071e 01       		.byte	0x1
 1909 071f DD070000 		.4byte	0x7dd
 1910 0723 18       		.uleb128 0x18
 1911 0724 69717000 		.ascii	"iqp\000"
 1912 0728 01       		.byte	0x1
 1913 0729 B1       		.byte	0xb1
 1914 072a 28060000 		.4byte	0x628
 1915 072e 58020000 		.4byte	.LLST17
 1916 0732 19       		.uleb128 0x19
 1917 0733 56020000 		.4byte	.LASF75
 1918 0737 01       		.byte	0x1
 1919 0738 B1       		.byte	0xb1
 1920 0739 E8000000 		.4byte	0xe8
 1921 073d A2020000 		.4byte	.LLST18
 1922 0741 25       		.uleb128 0x25
 1923 0742 6200     		.ascii	"b\000"
 1924 0744 01       		.byte	0x1
 1925 0745 B2       		.byte	0xb2
 1926 0746 49000000 		.4byte	0x49
 1927 074a 03       		.byte	0x3
ARM GAS  /var/folders/dt/0wfd0knj7gs46m8vwfzktm600000gn/T//ccFfYcvk.s 			page 35


 1928 074b 74       		.byte	0x74
 1929 074c 18       		.sleb128 24
 1930 074d 06       		.byte	0x6
 1931 074e 26       		.uleb128 0x26
 1932 074f 00000000 		.4byte	.Ldebug_ranges0+0
 1933 0753 67070000 		.4byte	0x767
 1934 0757 27       		.uleb128 0x27
 1935 0758 746D7000 		.ascii	"tmp\000"
 1936 075c 01       		.byte	0x1
 1937 075d B4       		.byte	0xb4
 1938 075e 7B000000 		.4byte	0x7b
 1939 0762 E1020000 		.4byte	.LLST19
 1940 0766 00       		.byte	0
 1941 0767 26       		.uleb128 0x26
 1942 0768 18000000 		.4byte	.Ldebug_ranges0+0x18
 1943 076c B3070000 		.4byte	0x7b3
 1944 0770 27       		.uleb128 0x27
 1945 0771 6D736700 		.ascii	"msg\000"
 1946 0775 01       		.byte	0x1
 1947 0776 B9       		.byte	0xb9
 1948 0777 D2000000 		.4byte	0xd2
 1949 077b F4020000 		.4byte	.LLST20
 1950 077f 28       		.uleb128 0x28
 1951 0780 22000000 		.4byte	.LBB21
 1952 0784 28000000 		.4byte	.LBE21
 1953 0788 9C070000 		.4byte	0x79c
 1954 078c 27       		.uleb128 0x27
 1955 078d 746D7000 		.ascii	"tmp\000"
 1956 0791 01       		.byte	0x1
 1957 0792 BB       		.byte	0xbb
 1958 0793 7B000000 		.4byte	0x7b
 1959 0797 07030000 		.4byte	.LLST21
 1960 079b 00       		.byte	0
 1961 079c 29       		.uleb128 0x29
 1962 079d 1E000000 		.4byte	.LVL25
 1963 07a1 60050000 		.4byte	0x560
 1964 07a5 1D       		.uleb128 0x1d
 1965 07a6 01       		.byte	0x1
 1966 07a7 51       		.byte	0x51
 1967 07a8 02       		.byte	0x2
 1968 07a9 76       		.byte	0x76
 1969 07aa 00       		.sleb128 0
 1970 07ab 1D       		.uleb128 0x1d
 1971 07ac 01       		.byte	0x1
 1972 07ad 50       		.byte	0x50
 1973 07ae 02       		.byte	0x2
 1974 07af 74       		.byte	0x74
 1975 07b0 00       		.sleb128 0
 1976 07b1 00       		.byte	0
 1977 07b2 00       		.byte	0
 1978 07b3 28       		.uleb128 0x28
 1979 07b4 40000000 		.4byte	.LBB23
 1980 07b8 46000000 		.4byte	.LBE23
 1981 07bc D0070000 		.4byte	0x7d0
 1982 07c0 27       		.uleb128 0x27
 1983 07c1 746D7000 		.ascii	"tmp\000"
 1984 07c5 01       		.byte	0x1
ARM GAS  /var/folders/dt/0wfd0knj7gs46m8vwfzktm600000gn/T//ccFfYcvk.s 			page 36


 1985 07c6 C5       		.byte	0xc5
 1986 07c7 7B000000 		.4byte	0x7b
 1987 07cb 1A030000 		.4byte	.LLST22
 1988 07cf 00       		.byte	0
 1989 07d0 2A       		.uleb128 0x2a
 1990 07d1 12000000 		.4byte	.LVL23
 1991 07d5 1D       		.uleb128 0x1d
 1992 07d6 01       		.byte	0x1
 1993 07d7 50       		.byte	0x50
 1994 07d8 02       		.byte	0x2
 1995 07d9 74       		.byte	0x74
 1996 07da 00       		.sleb128 0
 1997 07db 00       		.byte	0
 1998 07dc 00       		.byte	0
 1999 07dd 24       		.uleb128 0x24
 2000 07de 01       		.byte	0x1
 2001 07df 97000000 		.4byte	.LASF82
 2002 07e3 01       		.byte	0x1
 2003 07e4 E1       		.byte	0xe1
 2004 07e5 01       		.byte	0x1
 2005 07e6 30000000 		.4byte	0x30
 2006 07ea 00000000 		.4byte	.LFB12
 2007 07ee 72000000 		.4byte	.LFE12
 2008 07f2 2D030000 		.4byte	.LLST23
 2009 07f6 01       		.byte	0x1
 2010 07f7 E5080000 		.4byte	0x8e5
 2011 07fb 18       		.uleb128 0x18
 2012 07fc 69717000 		.ascii	"iqp\000"
 2013 0800 01       		.byte	0x1
 2014 0801 E1       		.byte	0xe1
 2015 0802 28060000 		.4byte	0x628
 2016 0806 4D030000 		.4byte	.LLST24
 2017 080a 18       		.uleb128 0x18
 2018 080b 627000   		.ascii	"bp\000"
 2019 080e 01       		.byte	0x1
 2020 080f E1       		.byte	0xe1
 2021 0810 E9040000 		.4byte	0x4e9
 2022 0814 8C030000 		.4byte	.LLST25
 2023 0818 18       		.uleb128 0x18
 2024 0819 6E00     		.ascii	"n\000"
 2025 081b 01       		.byte	0x1
 2026 081c E2       		.byte	0xe2
 2027 081d 30000000 		.4byte	0x30
 2028 0821 9F030000 		.4byte	.LLST26
 2029 0825 19       		.uleb128 0x19
 2030 0826 56020000 		.4byte	.LASF75
 2031 082a 01       		.byte	0x1
 2032 082b E2       		.byte	0xe2
 2033 082c E8000000 		.4byte	0xe8
 2034 0830 B2030000 		.4byte	.LLST27
 2035 0834 25       		.uleb128 0x25
 2036 0835 6E667900 		.ascii	"nfy\000"
 2037 0839 01       		.byte	0x1
 2038 083a E3       		.byte	0xe3
 2039 083b C6040000 		.4byte	0x4c6
 2040 083f 01       		.byte	0x1
 2041 0840 57       		.byte	0x57
ARM GAS  /var/folders/dt/0wfd0knj7gs46m8vwfzktm600000gn/T//ccFfYcvk.s 			page 37


 2042 0841 27       		.uleb128 0x27
 2043 0842 7200     		.ascii	"r\000"
 2044 0844 01       		.byte	0x1
 2045 0845 E4       		.byte	0xe4
 2046 0846 30000000 		.4byte	0x30
 2047 084a F1030000 		.4byte	.LLST28
 2048 084e 26       		.uleb128 0x26
 2049 084f 30000000 		.4byte	.Ldebug_ranges0+0x30
 2050 0853 67080000 		.4byte	0x867
 2051 0857 27       		.uleb128 0x27
 2052 0858 746D7000 		.ascii	"tmp\000"
 2053 085c 01       		.byte	0x1
 2054 085d E8       		.byte	0xe8
 2055 085e 7B000000 		.4byte	0x7b
 2056 0862 10040000 		.4byte	.LLST29
 2057 0866 00       		.byte	0
 2058 0867 28       		.uleb128 0x28
 2059 0868 32000000 		.4byte	.LBB26
 2060 086c 38000000 		.4byte	.LBE26
 2061 0870 84080000 		.4byte	0x884
 2062 0874 27       		.uleb128 0x27
 2063 0875 746D7000 		.ascii	"tmp\000"
 2064 0879 01       		.byte	0x1
 2065 087a EF       		.byte	0xef
 2066 087b 7B000000 		.4byte	0x7b
 2067 087f 39040000 		.4byte	.LLST30
 2068 0883 00       		.byte	0
 2069 0884 28       		.uleb128 0x28
 2070 0885 58000000 		.4byte	.LBB27
 2071 0889 5E000000 		.4byte	.LBE27
 2072 088d A1080000 		.4byte	0x8a1
 2073 0891 27       		.uleb128 0x27
 2074 0892 746D7000 		.ascii	"tmp\000"
 2075 0896 01       		.byte	0x1
 2076 0897 F9       		.byte	0xf9
 2077 0898 7B000000 		.4byte	0x7b
 2078 089c 4C040000 		.4byte	.LLST31
 2079 08a0 00       		.byte	0
 2080 08a1 28       		.uleb128 0x28
 2081 08a2 66000000 		.4byte	.LBB28
 2082 08a6 70000000 		.4byte	.LBE28
 2083 08aa BE080000 		.4byte	0x8be
 2084 08ae 27       		.uleb128 0x27
 2085 08af 746D7000 		.ascii	"tmp\000"
 2086 08b3 01       		.byte	0x1
 2087 08b4 FE       		.byte	0xfe
 2088 08b5 7B000000 		.4byte	0x7b
 2089 08b9 6A040000 		.4byte	.LLST32
 2090 08bd 00       		.byte	0
 2091 08be 2B       		.uleb128 0x2b
 2092 08bf 22000000 		.4byte	.LVL38
 2093 08c3 CE080000 		.4byte	0x8ce
 2094 08c7 1D       		.uleb128 0x1d
 2095 08c8 01       		.byte	0x1
 2096 08c9 50       		.byte	0x50
 2097 08ca 02       		.byte	0x2
 2098 08cb 74       		.byte	0x74
ARM GAS  /var/folders/dt/0wfd0knj7gs46m8vwfzktm600000gn/T//ccFfYcvk.s 			page 38


 2099 08cc 00       		.sleb128 0
 2100 08cd 00       		.byte	0
 2101 08ce 29       		.uleb128 0x29
 2102 08cf 2E000000 		.4byte	.LVL40
 2103 08d3 60050000 		.4byte	0x560
 2104 08d7 1D       		.uleb128 0x1d
 2105 08d8 01       		.byte	0x1
 2106 08d9 51       		.byte	0x51
 2107 08da 02       		.byte	0x2
 2108 08db 76       		.byte	0x76
 2109 08dc 00       		.sleb128 0
 2110 08dd 1D       		.uleb128 0x1d
 2111 08de 01       		.byte	0x1
 2112 08df 50       		.byte	0x50
 2113 08e0 02       		.byte	0x2
 2114 08e1 74       		.byte	0x74
 2115 08e2 00       		.sleb128 0
 2116 08e3 00       		.byte	0
 2117 08e4 00       		.byte	0
 2118 08e5 2C       		.uleb128 0x2c
 2119 08e6 01       		.byte	0x1
 2120 08e7 00000000 		.4byte	.LASF83
 2121 08eb 01       		.byte	0x1
 2122 08ec 1101     		.2byte	0x111
 2123 08ee 01       		.byte	0x1
 2124 08ef 00000000 		.4byte	.LFB13
 2125 08f3 18000000 		.4byte	.LFE13
 2126 08f7 9E040000 		.4byte	.LLST33
 2127 08fb 01       		.byte	0x1
 2128 08fc 38090000 		.4byte	0x938
 2129 0900 2D       		.uleb128 0x2d
 2130 0901 6F717000 		.ascii	"oqp\000"
 2131 0905 01       		.byte	0x1
 2132 0906 1101     		.2byte	0x111
 2133 0908 38090000 		.4byte	0x938
 2134 090c 01       		.byte	0x1
 2135 090d 50       		.byte	0x50
 2136 090e 2D       		.uleb128 0x2d
 2137 090f 627000   		.ascii	"bp\000"
 2138 0912 01       		.byte	0x1
 2139 0913 1101     		.2byte	0x111
 2140 0915 E9040000 		.4byte	0x4e9
 2141 0919 01       		.byte	0x1
 2142 091a 51       		.byte	0x51
 2143 091b 2E       		.uleb128 0x2e
 2144 091c A4010000 		.4byte	.LASF76
 2145 0920 01       		.byte	0x1
 2146 0921 1101     		.2byte	0x111
 2147 0923 30000000 		.4byte	0x30
 2148 0927 01       		.byte	0x1
 2149 0928 52       		.byte	0x52
 2150 0929 2E       		.uleb128 0x2e
 2151 092a 1C000000 		.4byte	.LASF84
 2152 092e 01       		.byte	0x1
 2153 092f 1101     		.2byte	0x111
 2154 0931 C6040000 		.4byte	0x4c6
 2155 0935 01       		.byte	0x1
ARM GAS  /var/folders/dt/0wfd0knj7gs46m8vwfzktm600000gn/T//ccFfYcvk.s 			page 39


 2156 0936 53       		.byte	0x53
 2157 0937 00       		.byte	0
 2158 0938 09       		.uleb128 0x9
 2159 0939 04       		.byte	0x4
 2160 093a FA040000 		.4byte	0x4fa
 2161 093e 2C       		.uleb128 0x2c
 2162 093f 01       		.byte	0x1
 2163 0940 5A030000 		.4byte	.LASF85
 2164 0944 01       		.byte	0x1
 2165 0945 2501     		.2byte	0x125
 2166 0947 01       		.byte	0x1
 2167 0948 00000000 		.4byte	.LFB14
 2168 094c 2E000000 		.4byte	.LFE14
 2169 0950 BE040000 		.4byte	.LLST34
 2170 0954 01       		.byte	0x1
 2171 0955 A4090000 		.4byte	0x9a4
 2172 0959 2F       		.uleb128 0x2f
 2173 095a 6F717000 		.ascii	"oqp\000"
 2174 095e 01       		.byte	0x1
 2175 095f 2501     		.2byte	0x125
 2176 0961 38090000 		.4byte	0x938
 2177 0965 DE040000 		.4byte	.LLST35
 2178 0969 30       		.uleb128 0x30
 2179 096a 39050000 		.4byte	0x539
 2180 096e 1A000000 		.4byte	.LBB29
 2181 0972 20000000 		.4byte	.LBE29
 2182 0976 01       		.byte	0x1
 2183 0977 2C01     		.2byte	0x12c
 2184 0979 9A090000 		.4byte	0x99a
 2185 097d 1B       		.uleb128 0x1b
 2186 097e 4A050000 		.4byte	0x54a
 2187 0982 FC040000 		.4byte	.LLST36
 2188 0986 21       		.uleb128 0x21
 2189 0987 1A000000 		.4byte	.LBB30
 2190 098b 20000000 		.4byte	.LBE30
 2191 098f 22       		.uleb128 0x22
 2192 0990 55050000 		.4byte	0x555
 2193 0994 0F050000 		.4byte	.LLST37
 2194 0998 00       		.byte	0
 2195 0999 00       		.byte	0
 2196 099a 23       		.uleb128 0x23
 2197 099b 24000000 		.4byte	.LVL53
 2198 099f 310C0000 		.4byte	0xc31
 2199 09a3 00       		.byte	0
 2200 09a4 31       		.uleb128 0x31
 2201 09a5 01       		.byte	0x1
 2202 09a6 54010000 		.4byte	.LASF86
 2203 09aa 01       		.byte	0x1
 2204 09ab 4501     		.2byte	0x145
 2205 09ad 01       		.byte	0x1
 2206 09ae D2000000 		.4byte	0xd2
 2207 09b2 00000000 		.4byte	.LFB15
 2208 09b6 4E000000 		.4byte	.LFE15
 2209 09ba 22050000 		.4byte	.LLST38
 2210 09be 01       		.byte	0x1
 2211 09bf 880A0000 		.4byte	0xa88
 2212 09c3 2F       		.uleb128 0x2f
ARM GAS  /var/folders/dt/0wfd0knj7gs46m8vwfzktm600000gn/T//ccFfYcvk.s 			page 40


 2213 09c4 6F717000 		.ascii	"oqp\000"
 2214 09c8 01       		.byte	0x1
 2215 09c9 4501     		.2byte	0x145
 2216 09cb 38090000 		.4byte	0x938
 2217 09cf 42050000 		.4byte	.LLST39
 2218 09d3 2F       		.uleb128 0x2f
 2219 09d4 6200     		.ascii	"b\000"
 2220 09d6 01       		.byte	0x1
 2221 09d7 4501     		.2byte	0x145
 2222 09d9 49000000 		.4byte	0x49
 2223 09dd 8C050000 		.4byte	.LLST40
 2224 09e1 32       		.uleb128 0x32
 2225 09e2 56020000 		.4byte	.LASF75
 2226 09e6 01       		.byte	0x1
 2227 09e7 4501     		.2byte	0x145
 2228 09e9 E8000000 		.4byte	0xe8
 2229 09ed AD050000 		.4byte	.LLST41
 2230 09f1 28       		.uleb128 0x28
 2231 09f2 08000000 		.4byte	.LBB31
 2232 09f6 0E000000 		.4byte	.LBE31
 2233 09fa 0F0A0000 		.4byte	0xa0f
 2234 09fe 33       		.uleb128 0x33
 2235 09ff 746D7000 		.ascii	"tmp\000"
 2236 0a03 01       		.byte	0x1
 2237 0a04 4701     		.2byte	0x147
 2238 0a06 7B000000 		.4byte	0x7b
 2239 0a0a F7050000 		.4byte	.LLST42
 2240 0a0e 00       		.byte	0
 2241 0a0f 26       		.uleb128 0x26
 2242 0a10 48000000 		.4byte	.Ldebug_ranges0+0x48
 2243 0a14 5D0A0000 		.4byte	0xa5d
 2244 0a18 33       		.uleb128 0x33
 2245 0a19 6D736700 		.ascii	"msg\000"
 2246 0a1d 01       		.byte	0x1
 2247 0a1e 4901     		.2byte	0x149
 2248 0a20 D2000000 		.4byte	0xd2
 2249 0a24 15060000 		.4byte	.LLST43
 2250 0a28 28       		.uleb128 0x28
 2251 0a29 1E000000 		.4byte	.LBB33
 2252 0a2d 24000000 		.4byte	.LBE33
 2253 0a31 460A0000 		.4byte	0xa46
 2254 0a35 33       		.uleb128 0x33
 2255 0a36 746D7000 		.ascii	"tmp\000"
 2256 0a3a 01       		.byte	0x1
 2257 0a3b 4C01     		.2byte	0x14c
 2258 0a3d 7B000000 		.4byte	0x7b
 2259 0a41 28060000 		.4byte	.LLST44
 2260 0a45 00       		.byte	0
 2261 0a46 29       		.uleb128 0x29
 2262 0a47 1A000000 		.4byte	.LVL59
 2263 0a4b 60050000 		.4byte	0x560
 2264 0a4f 1D       		.uleb128 0x1d
 2265 0a50 01       		.byte	0x1
 2266 0a51 51       		.byte	0x51
 2267 0a52 02       		.byte	0x2
 2268 0a53 76       		.byte	0x76
 2269 0a54 00       		.sleb128 0
ARM GAS  /var/folders/dt/0wfd0knj7gs46m8vwfzktm600000gn/T//ccFfYcvk.s 			page 41


 2270 0a55 1D       		.uleb128 0x1d
 2271 0a56 01       		.byte	0x1
 2272 0a57 50       		.byte	0x50
 2273 0a58 02       		.byte	0x2
 2274 0a59 74       		.byte	0x74
 2275 0a5a 00       		.sleb128 0
 2276 0a5b 00       		.byte	0
 2277 0a5c 00       		.byte	0
 2278 0a5d 28       		.uleb128 0x28
 2279 0a5e 44000000 		.4byte	.LBB35
 2280 0a62 4A000000 		.4byte	.LBE35
 2281 0a66 7B0A0000 		.4byte	0xa7b
 2282 0a6a 33       		.uleb128 0x33
 2283 0a6b 746D7000 		.ascii	"tmp\000"
 2284 0a6f 01       		.byte	0x1
 2285 0a70 5901     		.2byte	0x159
 2286 0a72 7B000000 		.4byte	0x7b
 2287 0a76 3B060000 		.4byte	.LLST45
 2288 0a7a 00       		.byte	0
 2289 0a7b 2A       		.uleb128 0x2a
 2290 0a7c 44000000 		.4byte	.LVL65
 2291 0a80 1D       		.uleb128 0x1d
 2292 0a81 01       		.byte	0x1
 2293 0a82 50       		.byte	0x50
 2294 0a83 02       		.byte	0x2
 2295 0a84 74       		.byte	0x74
 2296 0a85 00       		.sleb128 0
 2297 0a86 00       		.byte	0
 2298 0a87 00       		.byte	0
 2299 0a88 31       		.uleb128 0x31
 2300 0a89 01       		.byte	0x1
 2301 0a8a 21010000 		.4byte	.LASF87
 2302 0a8e 01       		.byte	0x1
 2303 0a8f 6701     		.2byte	0x167
 2304 0a91 01       		.byte	0x1
 2305 0a92 D2000000 		.4byte	0xd2
 2306 0a96 00000000 		.4byte	.LFB16
 2307 0a9a 46000000 		.4byte	.LFE16
 2308 0a9e 4E060000 		.4byte	.LLST46
 2309 0aa2 01       		.byte	0x1
 2310 0aa3 000B0000 		.4byte	0xb00
 2311 0aa7 2F       		.uleb128 0x2f
 2312 0aa8 6F717000 		.ascii	"oqp\000"
 2313 0aac 01       		.byte	0x1
 2314 0aad 6701     		.2byte	0x167
 2315 0aaf 38090000 		.4byte	0x938
 2316 0ab3 6E060000 		.4byte	.LLST47
 2317 0ab7 33       		.uleb128 0x33
 2318 0ab8 6200     		.ascii	"b\000"
 2319 0aba 01       		.byte	0x1
 2320 0abb 6801     		.2byte	0x168
 2321 0abd 49000000 		.4byte	0x49
 2322 0ac1 B0060000 		.4byte	.LLST48
 2323 0ac5 30       		.uleb128 0x30
 2324 0ac6 39050000 		.4byte	0x539
 2325 0aca 2A000000 		.4byte	.LBB36
 2326 0ace 30000000 		.4byte	.LBE36
ARM GAS  /var/folders/dt/0wfd0knj7gs46m8vwfzktm600000gn/T//ccFfYcvk.s 			page 42


 2327 0ad2 01       		.byte	0x1
 2328 0ad3 7501     		.2byte	0x175
 2329 0ad5 F60A0000 		.4byte	0xaf6
 2330 0ad9 1B       		.uleb128 0x1b
 2331 0ada 4A050000 		.4byte	0x54a
 2332 0ade DD060000 		.4byte	.LLST49
 2333 0ae2 21       		.uleb128 0x21
 2334 0ae3 2A000000 		.4byte	.LBB37
 2335 0ae7 30000000 		.4byte	.LBE37
 2336 0aeb 22       		.uleb128 0x22
 2337 0aec 55050000 		.4byte	0x555
 2338 0af0 FE060000 		.4byte	.LLST50
 2339 0af4 00       		.byte	0
 2340 0af5 00       		.byte	0
 2341 0af6 23       		.uleb128 0x23
 2342 0af7 34000000 		.4byte	.LVL72
 2343 0afb 310C0000 		.4byte	0xc31
 2344 0aff 00       		.byte	0
 2345 0b00 34       		.uleb128 0x34
 2346 0b01 01       		.byte	0x1
 2347 0b02 17020000 		.4byte	.LASF88
 2348 0b06 01       		.byte	0x1
 2349 0b07 9201     		.2byte	0x192
 2350 0b09 01       		.byte	0x1
 2351 0b0a 30000000 		.4byte	0x30
 2352 0b0e 00000000 		.4byte	.LFB17
 2353 0b12 74000000 		.4byte	.LFE17
 2354 0b16 11070000 		.4byte	.LLST51
 2355 0b1a 01       		.byte	0x1
 2356 0b1b 070C0000 		.4byte	0xc07
 2357 0b1f 2F       		.uleb128 0x2f
 2358 0b20 6F717000 		.ascii	"oqp\000"
 2359 0b24 01       		.byte	0x1
 2360 0b25 9201     		.2byte	0x192
 2361 0b27 38090000 		.4byte	0x938
 2362 0b2b 31070000 		.4byte	.LLST52
 2363 0b2f 2F       		.uleb128 0x2f
 2364 0b30 627000   		.ascii	"bp\000"
 2365 0b33 01       		.byte	0x1
 2366 0b34 9201     		.2byte	0x192
 2367 0b36 05050000 		.4byte	0x505
 2368 0b3a 7B070000 		.4byte	.LLST53
 2369 0b3e 2F       		.uleb128 0x2f
 2370 0b3f 6E00     		.ascii	"n\000"
 2371 0b41 01       		.byte	0x1
 2372 0b42 9301     		.2byte	0x193
 2373 0b44 30000000 		.4byte	0x30
 2374 0b48 B1070000 		.4byte	.LLST54
 2375 0b4c 32       		.uleb128 0x32
 2376 0b4d 56020000 		.4byte	.LASF75
 2377 0b51 01       		.byte	0x1
 2378 0b52 9301     		.2byte	0x193
 2379 0b54 E8000000 		.4byte	0xe8
 2380 0b58 E7070000 		.4byte	.LLST55
 2381 0b5c 35       		.uleb128 0x35
 2382 0b5d 6E667900 		.ascii	"nfy\000"
 2383 0b61 01       		.byte	0x1
ARM GAS  /var/folders/dt/0wfd0knj7gs46m8vwfzktm600000gn/T//ccFfYcvk.s 			page 43


 2384 0b62 9401     		.2byte	0x194
 2385 0b64 C6040000 		.4byte	0x4c6
 2386 0b68 01       		.byte	0x1
 2387 0b69 59       		.byte	0x59
 2388 0b6a 33       		.uleb128 0x33
 2389 0b6b 7700     		.ascii	"w\000"
 2390 0b6d 01       		.byte	0x1
 2391 0b6e 9501     		.2byte	0x195
 2392 0b70 30000000 		.4byte	0x30
 2393 0b74 05080000 		.4byte	.LLST56
 2394 0b78 28       		.uleb128 0x28
 2395 0b79 10000000 		.4byte	.LBB38
 2396 0b7d 18000000 		.4byte	.LBE38
 2397 0b81 960B0000 		.4byte	0xb96
 2398 0b85 33       		.uleb128 0x33
 2399 0b86 746D7000 		.ascii	"tmp\000"
 2400 0b8a 01       		.byte	0x1
 2401 0b8b 9901     		.2byte	0x199
 2402 0b8d 7B000000 		.4byte	0x7b
 2403 0b91 24080000 		.4byte	.LLST57
 2404 0b95 00       		.byte	0
 2405 0b96 28       		.uleb128 0x28
 2406 0b97 40000000 		.4byte	.LBB39
 2407 0b9b 46000000 		.4byte	.LBE39
 2408 0b9f B40B0000 		.4byte	0xbb4
 2409 0ba3 33       		.uleb128 0x33
 2410 0ba4 746D7000 		.ascii	"tmp\000"
 2411 0ba8 01       		.byte	0x1
 2412 0ba9 A901     		.2byte	0x1a9
 2413 0bab 7B000000 		.4byte	0x7b
 2414 0baf 37080000 		.4byte	.LLST58
 2415 0bb3 00       		.byte	0
 2416 0bb4 28       		.uleb128 0x28
 2417 0bb5 4C000000 		.4byte	.LBB40
 2418 0bb9 52000000 		.4byte	.LBE40
 2419 0bbd D20B0000 		.4byte	0xbd2
 2420 0bc1 33       		.uleb128 0x33
 2421 0bc2 746D7000 		.ascii	"tmp\000"
 2422 0bc6 01       		.byte	0x1
 2423 0bc7 AD01     		.2byte	0x1ad
 2424 0bc9 7B000000 		.4byte	0x7b
 2425 0bcd 55080000 		.4byte	.LLST59
 2426 0bd1 00       		.byte	0
 2427 0bd2 28       		.uleb128 0x28
 2428 0bd3 68000000 		.4byte	.LBB41
 2429 0bd7 6E000000 		.4byte	.LBE41
 2430 0bdb F00B0000 		.4byte	0xbf0
 2431 0bdf 33       		.uleb128 0x33
 2432 0be0 746D7000 		.ascii	"tmp\000"
 2433 0be4 01       		.byte	0x1
 2434 0be5 9D01     		.2byte	0x19d
 2435 0be7 7B000000 		.4byte	0x7b
 2436 0beb 68080000 		.4byte	.LLST60
 2437 0bef 00       		.byte	0
 2438 0bf0 29       		.uleb128 0x29
 2439 0bf1 64000000 		.4byte	.LVL95
 2440 0bf5 60050000 		.4byte	0x560
ARM GAS  /var/folders/dt/0wfd0knj7gs46m8vwfzktm600000gn/T//ccFfYcvk.s 			page 44


 2441 0bf9 1D       		.uleb128 0x1d
 2442 0bfa 01       		.byte	0x1
 2443 0bfb 51       		.byte	0x51
 2444 0bfc 02       		.byte	0x2
 2445 0bfd 7A       		.byte	0x7a
 2446 0bfe 00       		.sleb128 0
 2447 0bff 1D       		.uleb128 0x1d
 2448 0c00 01       		.byte	0x1
 2449 0c01 50       		.byte	0x50
 2450 0c02 02       		.byte	0x2
 2451 0c03 74       		.byte	0x74
 2452 0c04 00       		.sleb128 0
 2453 0c05 00       		.byte	0
 2454 0c06 00       		.byte	0
 2455 0c07 36       		.uleb128 0x36
 2456 0c08 9E030000 		.4byte	.LASF95
 2457 0c0c 09       		.byte	0x9
 2458 0c0d 72       		.byte	0x72
 2459 0c0e AC030000 		.4byte	0x3ac
 2460 0c12 01       		.byte	0x1
 2461 0c13 01       		.byte	0x1
 2462 0c14 37       		.uleb128 0x37
 2463 0c15 01       		.byte	0x1
 2464 0c16 BA030000 		.4byte	.LASF96
 2465 0c1a 09       		.byte	0x9
 2466 0c1b 99       		.byte	0x99
 2467 0c1c 01       		.byte	0x1
 2468 0c1d D2000000 		.4byte	0xd2
 2469 0c21 01       		.byte	0x1
 2470 0c22 310C0000 		.4byte	0xc31
 2471 0c26 12       		.uleb128 0x12
 2472 0c27 B1000000 		.4byte	0xb1
 2473 0c2b 12       		.uleb128 0x12
 2474 0c2c E8000000 		.4byte	0xe8
 2475 0c30 00       		.byte	0
 2476 0c31 38       		.uleb128 0x38
 2477 0c32 01       		.byte	0x1
 2478 0c33 1C030000 		.4byte	.LASF97
 2479 0c37 09       		.byte	0x9
 2480 0c38 93       		.byte	0x93
 2481 0c39 01       		.byte	0x1
 2482 0c3a 45020000 		.4byte	0x245
 2483 0c3e 01       		.byte	0x1
 2484 0c3f 12       		.uleb128 0x12
 2485 0c40 45020000 		.4byte	0x245
 2486 0c44 00       		.byte	0
 2487 0c45 00       		.byte	0
 2488              		.section	.debug_abbrev,"",%progbits
 2489              	.Ldebug_abbrev0:
 2490 0000 01       		.uleb128 0x1
 2491 0001 11       		.uleb128 0x11
 2492 0002 01       		.byte	0x1
 2493 0003 25       		.uleb128 0x25
 2494 0004 0E       		.uleb128 0xe
 2495 0005 13       		.uleb128 0x13
 2496 0006 0B       		.uleb128 0xb
 2497 0007 03       		.uleb128 0x3
ARM GAS  /var/folders/dt/0wfd0knj7gs46m8vwfzktm600000gn/T//ccFfYcvk.s 			page 45


 2498 0008 0E       		.uleb128 0xe
 2499 0009 1B       		.uleb128 0x1b
 2500 000a 0E       		.uleb128 0xe
 2501 000b 55       		.uleb128 0x55
 2502 000c 06       		.uleb128 0x6
 2503 000d 11       		.uleb128 0x11
 2504 000e 01       		.uleb128 0x1
 2505 000f 52       		.uleb128 0x52
 2506 0010 01       		.uleb128 0x1
 2507 0011 10       		.uleb128 0x10
 2508 0012 06       		.uleb128 0x6
 2509 0013 00       		.byte	0
 2510 0014 00       		.byte	0
 2511 0015 02       		.uleb128 0x2
 2512 0016 24       		.uleb128 0x24
 2513 0017 00       		.byte	0
 2514 0018 0B       		.uleb128 0xb
 2515 0019 0B       		.uleb128 0xb
 2516 001a 3E       		.uleb128 0x3e
 2517 001b 0B       		.uleb128 0xb
 2518 001c 03       		.uleb128 0x3
 2519 001d 08       		.uleb128 0x8
 2520 001e 00       		.byte	0
 2521 001f 00       		.byte	0
 2522 0020 03       		.uleb128 0x3
 2523 0021 16       		.uleb128 0x16
 2524 0022 00       		.byte	0
 2525 0023 03       		.uleb128 0x3
 2526 0024 0E       		.uleb128 0xe
 2527 0025 3A       		.uleb128 0x3a
 2528 0026 0B       		.uleb128 0xb
 2529 0027 3B       		.uleb128 0x3b
 2530 0028 0B       		.uleb128 0xb
 2531 0029 49       		.uleb128 0x49
 2532 002a 13       		.uleb128 0x13
 2533 002b 00       		.byte	0
 2534 002c 00       		.byte	0
 2535 002d 04       		.uleb128 0x4
 2536 002e 24       		.uleb128 0x24
 2537 002f 00       		.byte	0
 2538 0030 0B       		.uleb128 0xb
 2539 0031 0B       		.uleb128 0xb
 2540 0032 3E       		.uleb128 0x3e
 2541 0033 0B       		.uleb128 0xb
 2542 0034 03       		.uleb128 0x3
 2543 0035 0E       		.uleb128 0xe
 2544 0036 00       		.byte	0
 2545 0037 00       		.byte	0
 2546 0038 05       		.uleb128 0x5
 2547 0039 13       		.uleb128 0x13
 2548 003a 01       		.byte	0x1
 2549 003b 03       		.uleb128 0x3
 2550 003c 0E       		.uleb128 0xe
 2551 003d 0B       		.uleb128 0xb
 2552 003e 0B       		.uleb128 0xb
 2553 003f 3A       		.uleb128 0x3a
 2554 0040 0B       		.uleb128 0xb
ARM GAS  /var/folders/dt/0wfd0knj7gs46m8vwfzktm600000gn/T//ccFfYcvk.s 			page 46


 2555 0041 3B       		.uleb128 0x3b
 2556 0042 0B       		.uleb128 0xb
 2557 0043 01       		.uleb128 0x1
 2558 0044 13       		.uleb128 0x13
 2559 0045 00       		.byte	0
 2560 0046 00       		.byte	0
 2561 0047 06       		.uleb128 0x6
 2562 0048 0D       		.uleb128 0xd
 2563 0049 00       		.byte	0
 2564 004a 03       		.uleb128 0x3
 2565 004b 0E       		.uleb128 0xe
 2566 004c 3A       		.uleb128 0x3a
 2567 004d 0B       		.uleb128 0xb
 2568 004e 3B       		.uleb128 0x3b
 2569 004f 0B       		.uleb128 0xb
 2570 0050 49       		.uleb128 0x49
 2571 0051 13       		.uleb128 0x13
 2572 0052 38       		.uleb128 0x38
 2573 0053 0A       		.uleb128 0xa
 2574 0054 00       		.byte	0
 2575 0055 00       		.byte	0
 2576 0056 07       		.uleb128 0x7
 2577 0057 0D       		.uleb128 0xd
 2578 0058 00       		.byte	0
 2579 0059 03       		.uleb128 0x3
 2580 005a 08       		.uleb128 0x8
 2581 005b 3A       		.uleb128 0x3a
 2582 005c 0B       		.uleb128 0xb
 2583 005d 3B       		.uleb128 0x3b
 2584 005e 0B       		.uleb128 0xb
 2585 005f 49       		.uleb128 0x49
 2586 0060 13       		.uleb128 0x13
 2587 0061 38       		.uleb128 0x38
 2588 0062 0A       		.uleb128 0xa
 2589 0063 00       		.byte	0
 2590 0064 00       		.byte	0
 2591 0065 08       		.uleb128 0x8
 2592 0066 13       		.uleb128 0x13
 2593 0067 01       		.byte	0x1
 2594 0068 0B       		.uleb128 0xb
 2595 0069 0B       		.uleb128 0xb
 2596 006a 3A       		.uleb128 0x3a
 2597 006b 0B       		.uleb128 0xb
 2598 006c 3B       		.uleb128 0x3b
 2599 006d 0B       		.uleb128 0xb
 2600 006e 01       		.uleb128 0x1
 2601 006f 13       		.uleb128 0x13
 2602 0070 00       		.byte	0
 2603 0071 00       		.byte	0
 2604 0072 09       		.uleb128 0x9
 2605 0073 0F       		.uleb128 0xf
 2606 0074 00       		.byte	0
 2607 0075 0B       		.uleb128 0xb
 2608 0076 0B       		.uleb128 0xb
 2609 0077 49       		.uleb128 0x49
 2610 0078 13       		.uleb128 0x13
 2611 0079 00       		.byte	0
ARM GAS  /var/folders/dt/0wfd0knj7gs46m8vwfzktm600000gn/T//ccFfYcvk.s 			page 47


 2612 007a 00       		.byte	0
 2613 007b 0A       		.uleb128 0xa
 2614 007c 0F       		.uleb128 0xf
 2615 007d 00       		.byte	0
 2616 007e 0B       		.uleb128 0xb
 2617 007f 0B       		.uleb128 0xb
 2618 0080 00       		.byte	0
 2619 0081 00       		.byte	0
 2620 0082 0B       		.uleb128 0xb
 2621 0083 0D       		.uleb128 0xd
 2622 0084 00       		.byte	0
 2623 0085 03       		.uleb128 0x3
 2624 0086 08       		.uleb128 0x8
 2625 0087 3A       		.uleb128 0x3a
 2626 0088 0B       		.uleb128 0xb
 2627 0089 3B       		.uleb128 0x3b
 2628 008a 05       		.uleb128 0x5
 2629 008b 49       		.uleb128 0x49
 2630 008c 13       		.uleb128 0x13
 2631 008d 38       		.uleb128 0x38
 2632 008e 0A       		.uleb128 0xa
 2633 008f 00       		.byte	0
 2634 0090 00       		.byte	0
 2635 0091 0C       		.uleb128 0xc
 2636 0092 13       		.uleb128 0x13
 2637 0093 01       		.byte	0x1
 2638 0094 03       		.uleb128 0x3
 2639 0095 0E       		.uleb128 0xe
 2640 0096 0B       		.uleb128 0xb
 2641 0097 0B       		.uleb128 0xb
 2642 0098 3A       		.uleb128 0x3a
 2643 0099 0B       		.uleb128 0xb
 2644 009a 3B       		.uleb128 0x3b
 2645 009b 05       		.uleb128 0x5
 2646 009c 01       		.uleb128 0x1
 2647 009d 13       		.uleb128 0x13
 2648 009e 00       		.byte	0
 2649 009f 00       		.byte	0
 2650 00a0 0D       		.uleb128 0xd
 2651 00a1 35       		.uleb128 0x35
 2652 00a2 00       		.byte	0
 2653 00a3 49       		.uleb128 0x49
 2654 00a4 13       		.uleb128 0x13
 2655 00a5 00       		.byte	0
 2656 00a6 00       		.byte	0
 2657 00a7 0E       		.uleb128 0xe
 2658 00a8 17       		.uleb128 0x17
 2659 00a9 01       		.byte	0x1
 2660 00aa 0B       		.uleb128 0xb
 2661 00ab 0B       		.uleb128 0xb
 2662 00ac 3A       		.uleb128 0x3a
 2663 00ad 0B       		.uleb128 0xb
 2664 00ae 3B       		.uleb128 0x3b
 2665 00af 0B       		.uleb128 0xb
 2666 00b0 01       		.uleb128 0x1
 2667 00b1 13       		.uleb128 0x13
 2668 00b2 00       		.byte	0
ARM GAS  /var/folders/dt/0wfd0knj7gs46m8vwfzktm600000gn/T//ccFfYcvk.s 			page 48


 2669 00b3 00       		.byte	0
 2670 00b4 0F       		.uleb128 0xf
 2671 00b5 0D       		.uleb128 0xd
 2672 00b6 00       		.byte	0
 2673 00b7 03       		.uleb128 0x3
 2674 00b8 0E       		.uleb128 0xe
 2675 00b9 3A       		.uleb128 0x3a
 2676 00ba 0B       		.uleb128 0xb
 2677 00bb 3B       		.uleb128 0x3b
 2678 00bc 0B       		.uleb128 0xb
 2679 00bd 49       		.uleb128 0x49
 2680 00be 13       		.uleb128 0x13
 2681 00bf 00       		.byte	0
 2682 00c0 00       		.byte	0
 2683 00c1 10       		.uleb128 0x10
 2684 00c2 26       		.uleb128 0x26
 2685 00c3 00       		.byte	0
 2686 00c4 49       		.uleb128 0x49
 2687 00c5 13       		.uleb128 0x13
 2688 00c6 00       		.byte	0
 2689 00c7 00       		.byte	0
 2690 00c8 11       		.uleb128 0x11
 2691 00c9 15       		.uleb128 0x15
 2692 00ca 01       		.byte	0x1
 2693 00cb 27       		.uleb128 0x27
 2694 00cc 0C       		.uleb128 0xc
 2695 00cd 01       		.uleb128 0x1
 2696 00ce 13       		.uleb128 0x13
 2697 00cf 00       		.byte	0
 2698 00d0 00       		.byte	0
 2699 00d1 12       		.uleb128 0x12
 2700 00d2 05       		.uleb128 0x5
 2701 00d3 00       		.byte	0
 2702 00d4 49       		.uleb128 0x49
 2703 00d5 13       		.uleb128 0x13
 2704 00d6 00       		.byte	0
 2705 00d7 00       		.byte	0
 2706 00d8 13       		.uleb128 0x13
 2707 00d9 2E       		.uleb128 0x2e
 2708 00da 01       		.byte	0x1
 2709 00db 03       		.uleb128 0x3
 2710 00dc 0E       		.uleb128 0xe
 2711 00dd 3A       		.uleb128 0x3a
 2712 00de 0B       		.uleb128 0xb
 2713 00df 3B       		.uleb128 0x3b
 2714 00e0 0B       		.uleb128 0xb
 2715 00e1 27       		.uleb128 0x27
 2716 00e2 0C       		.uleb128 0xc
 2717 00e3 20       		.uleb128 0x20
 2718 00e4 0B       		.uleb128 0xb
 2719 00e5 01       		.uleb128 0x1
 2720 00e6 13       		.uleb128 0x13
 2721 00e7 00       		.byte	0
 2722 00e8 00       		.byte	0
 2723 00e9 14       		.uleb128 0x14
 2724 00ea 05       		.uleb128 0x5
 2725 00eb 00       		.byte	0
ARM GAS  /var/folders/dt/0wfd0knj7gs46m8vwfzktm600000gn/T//ccFfYcvk.s 			page 49


 2726 00ec 03       		.uleb128 0x3
 2727 00ed 08       		.uleb128 0x8
 2728 00ee 3A       		.uleb128 0x3a
 2729 00ef 0B       		.uleb128 0xb
 2730 00f0 3B       		.uleb128 0x3b
 2731 00f1 0B       		.uleb128 0xb
 2732 00f2 49       		.uleb128 0x49
 2733 00f3 13       		.uleb128 0x13
 2734 00f4 00       		.byte	0
 2735 00f5 00       		.byte	0
 2736 00f6 15       		.uleb128 0x15
 2737 00f7 2E       		.uleb128 0x2e
 2738 00f8 01       		.byte	0x1
 2739 00f9 03       		.uleb128 0x3
 2740 00fa 0E       		.uleb128 0xe
 2741 00fb 3A       		.uleb128 0x3a
 2742 00fc 0B       		.uleb128 0xb
 2743 00fd 3B       		.uleb128 0x3b
 2744 00fe 0B       		.uleb128 0xb
 2745 00ff 27       		.uleb128 0x27
 2746 0100 0C       		.uleb128 0xc
 2747 0101 49       		.uleb128 0x49
 2748 0102 13       		.uleb128 0x13
 2749 0103 20       		.uleb128 0x20
 2750 0104 0B       		.uleb128 0xb
 2751 0105 01       		.uleb128 0x1
 2752 0106 13       		.uleb128 0x13
 2753 0107 00       		.byte	0
 2754 0108 00       		.byte	0
 2755 0109 16       		.uleb128 0x16
 2756 010a 34       		.uleb128 0x34
 2757 010b 00       		.byte	0
 2758 010c 03       		.uleb128 0x3
 2759 010d 08       		.uleb128 0x8
 2760 010e 3A       		.uleb128 0x3a
 2761 010f 0B       		.uleb128 0xb
 2762 0110 3B       		.uleb128 0x3b
 2763 0111 0B       		.uleb128 0xb
 2764 0112 49       		.uleb128 0x49
 2765 0113 13       		.uleb128 0x13
 2766 0114 00       		.byte	0
 2767 0115 00       		.byte	0
 2768 0116 17       		.uleb128 0x17
 2769 0117 2E       		.uleb128 0x2e
 2770 0118 01       		.byte	0x1
 2771 0119 03       		.uleb128 0x3
 2772 011a 0E       		.uleb128 0xe
 2773 011b 3A       		.uleb128 0x3a
 2774 011c 0B       		.uleb128 0xb
 2775 011d 3B       		.uleb128 0x3b
 2776 011e 0B       		.uleb128 0xb
 2777 011f 27       		.uleb128 0x27
 2778 0120 0C       		.uleb128 0xc
 2779 0121 49       		.uleb128 0x49
 2780 0122 13       		.uleb128 0x13
 2781 0123 11       		.uleb128 0x11
 2782 0124 01       		.uleb128 0x1
ARM GAS  /var/folders/dt/0wfd0knj7gs46m8vwfzktm600000gn/T//ccFfYcvk.s 			page 50


 2783 0125 12       		.uleb128 0x12
 2784 0126 01       		.uleb128 0x1
 2785 0127 40       		.uleb128 0x40
 2786 0128 06       		.uleb128 0x6
 2787 0129 9742     		.uleb128 0x2117
 2788 012b 0C       		.uleb128 0xc
 2789 012c 01       		.uleb128 0x1
 2790 012d 13       		.uleb128 0x13
 2791 012e 00       		.byte	0
 2792 012f 00       		.byte	0
 2793 0130 18       		.uleb128 0x18
 2794 0131 05       		.uleb128 0x5
 2795 0132 00       		.byte	0
 2796 0133 03       		.uleb128 0x3
 2797 0134 08       		.uleb128 0x8
 2798 0135 3A       		.uleb128 0x3a
 2799 0136 0B       		.uleb128 0xb
 2800 0137 3B       		.uleb128 0x3b
 2801 0138 0B       		.uleb128 0xb
 2802 0139 49       		.uleb128 0x49
 2803 013a 13       		.uleb128 0x13
 2804 013b 02       		.uleb128 0x2
 2805 013c 06       		.uleb128 0x6
 2806 013d 00       		.byte	0
 2807 013e 00       		.byte	0
 2808 013f 19       		.uleb128 0x19
 2809 0140 05       		.uleb128 0x5
 2810 0141 00       		.byte	0
 2811 0142 03       		.uleb128 0x3
 2812 0143 0E       		.uleb128 0xe
 2813 0144 3A       		.uleb128 0x3a
 2814 0145 0B       		.uleb128 0xb
 2815 0146 3B       		.uleb128 0x3b
 2816 0147 0B       		.uleb128 0xb
 2817 0148 49       		.uleb128 0x49
 2818 0149 13       		.uleb128 0x13
 2819 014a 02       		.uleb128 0x2
 2820 014b 06       		.uleb128 0x6
 2821 014c 00       		.byte	0
 2822 014d 00       		.byte	0
 2823 014e 1A       		.uleb128 0x1a
 2824 014f 1D       		.uleb128 0x1d
 2825 0150 01       		.byte	0x1
 2826 0151 31       		.uleb128 0x31
 2827 0152 13       		.uleb128 0x13
 2828 0153 11       		.uleb128 0x11
 2829 0154 01       		.uleb128 0x1
 2830 0155 12       		.uleb128 0x12
 2831 0156 01       		.uleb128 0x1
 2832 0157 58       		.uleb128 0x58
 2833 0158 0B       		.uleb128 0xb
 2834 0159 59       		.uleb128 0x59
 2835 015a 0B       		.uleb128 0xb
 2836 015b 01       		.uleb128 0x1
 2837 015c 13       		.uleb128 0x13
 2838 015d 00       		.byte	0
 2839 015e 00       		.byte	0
ARM GAS  /var/folders/dt/0wfd0knj7gs46m8vwfzktm600000gn/T//ccFfYcvk.s 			page 51


 2840 015f 1B       		.uleb128 0x1b
 2841 0160 05       		.uleb128 0x5
 2842 0161 00       		.byte	0
 2843 0162 31       		.uleb128 0x31
 2844 0163 13       		.uleb128 0x13
 2845 0164 02       		.uleb128 0x2
 2846 0165 06       		.uleb128 0x6
 2847 0166 00       		.byte	0
 2848 0167 00       		.byte	0
 2849 0168 1C       		.uleb128 0x1c
 2850 0169 898201   		.uleb128 0x4109
 2851 016c 01       		.byte	0x1
 2852 016d 11       		.uleb128 0x11
 2853 016e 01       		.uleb128 0x1
 2854 016f 9542     		.uleb128 0x2115
 2855 0171 0C       		.uleb128 0xc
 2856 0172 31       		.uleb128 0x31
 2857 0173 13       		.uleb128 0x13
 2858 0174 00       		.byte	0
 2859 0175 00       		.byte	0
 2860 0176 1D       		.uleb128 0x1d
 2861 0177 8A8201   		.uleb128 0x410a
 2862 017a 00       		.byte	0
 2863 017b 02       		.uleb128 0x2
 2864 017c 0A       		.uleb128 0xa
 2865 017d 9142     		.uleb128 0x2111
 2866 017f 0A       		.uleb128 0xa
 2867 0180 00       		.byte	0
 2868 0181 00       		.byte	0
 2869 0182 1E       		.uleb128 0x1e
 2870 0183 2E       		.uleb128 0x2e
 2871 0184 01       		.byte	0x1
 2872 0185 3F       		.uleb128 0x3f
 2873 0186 0C       		.uleb128 0xc
 2874 0187 03       		.uleb128 0x3
 2875 0188 0E       		.uleb128 0xe
 2876 0189 3A       		.uleb128 0x3a
 2877 018a 0B       		.uleb128 0xb
 2878 018b 3B       		.uleb128 0x3b
 2879 018c 0B       		.uleb128 0xb
 2880 018d 27       		.uleb128 0x27
 2881 018e 0C       		.uleb128 0xc
 2882 018f 11       		.uleb128 0x11
 2883 0190 01       		.uleb128 0x1
 2884 0191 12       		.uleb128 0x12
 2885 0192 01       		.uleb128 0x1
 2886 0193 40       		.uleb128 0x40
 2887 0194 06       		.uleb128 0x6
 2888 0195 9742     		.uleb128 0x2117
 2889 0197 0C       		.uleb128 0xc
 2890 0198 01       		.uleb128 0x1
 2891 0199 13       		.uleb128 0x13
 2892 019a 00       		.byte	0
 2893 019b 00       		.byte	0
 2894 019c 1F       		.uleb128 0x1f
 2895 019d 05       		.uleb128 0x5
 2896 019e 00       		.byte	0
ARM GAS  /var/folders/dt/0wfd0knj7gs46m8vwfzktm600000gn/T//ccFfYcvk.s 			page 52


 2897 019f 03       		.uleb128 0x3
 2898 01a0 08       		.uleb128 0x8
 2899 01a1 3A       		.uleb128 0x3a
 2900 01a2 0B       		.uleb128 0xb
 2901 01a3 3B       		.uleb128 0x3b
 2902 01a4 0B       		.uleb128 0xb
 2903 01a5 49       		.uleb128 0x49
 2904 01a6 13       		.uleb128 0x13
 2905 01a7 02       		.uleb128 0x2
 2906 01a8 0A       		.uleb128 0xa
 2907 01a9 00       		.byte	0
 2908 01aa 00       		.byte	0
 2909 01ab 20       		.uleb128 0x20
 2910 01ac 05       		.uleb128 0x5
 2911 01ad 00       		.byte	0
 2912 01ae 03       		.uleb128 0x3
 2913 01af 0E       		.uleb128 0xe
 2914 01b0 3A       		.uleb128 0x3a
 2915 01b1 0B       		.uleb128 0xb
 2916 01b2 3B       		.uleb128 0x3b
 2917 01b3 0B       		.uleb128 0xb
 2918 01b4 49       		.uleb128 0x49
 2919 01b5 13       		.uleb128 0x13
 2920 01b6 02       		.uleb128 0x2
 2921 01b7 0A       		.uleb128 0xa
 2922 01b8 00       		.byte	0
 2923 01b9 00       		.byte	0
 2924 01ba 21       		.uleb128 0x21
 2925 01bb 0B       		.uleb128 0xb
 2926 01bc 01       		.byte	0x1
 2927 01bd 11       		.uleb128 0x11
 2928 01be 01       		.uleb128 0x1
 2929 01bf 12       		.uleb128 0x12
 2930 01c0 01       		.uleb128 0x1
 2931 01c1 00       		.byte	0
 2932 01c2 00       		.byte	0
 2933 01c3 22       		.uleb128 0x22
 2934 01c4 34       		.uleb128 0x34
 2935 01c5 00       		.byte	0
 2936 01c6 31       		.uleb128 0x31
 2937 01c7 13       		.uleb128 0x13
 2938 01c8 02       		.uleb128 0x2
 2939 01c9 06       		.uleb128 0x6
 2940 01ca 00       		.byte	0
 2941 01cb 00       		.byte	0
 2942 01cc 23       		.uleb128 0x23
 2943 01cd 898201   		.uleb128 0x4109
 2944 01d0 00       		.byte	0
 2945 01d1 11       		.uleb128 0x11
 2946 01d2 01       		.uleb128 0x1
 2947 01d3 31       		.uleb128 0x31
 2948 01d4 13       		.uleb128 0x13
 2949 01d5 00       		.byte	0
 2950 01d6 00       		.byte	0
 2951 01d7 24       		.uleb128 0x24
 2952 01d8 2E       		.uleb128 0x2e
 2953 01d9 01       		.byte	0x1
ARM GAS  /var/folders/dt/0wfd0knj7gs46m8vwfzktm600000gn/T//ccFfYcvk.s 			page 53


 2954 01da 3F       		.uleb128 0x3f
 2955 01db 0C       		.uleb128 0xc
 2956 01dc 03       		.uleb128 0x3
 2957 01dd 0E       		.uleb128 0xe
 2958 01de 3A       		.uleb128 0x3a
 2959 01df 0B       		.uleb128 0xb
 2960 01e0 3B       		.uleb128 0x3b
 2961 01e1 0B       		.uleb128 0xb
 2962 01e2 27       		.uleb128 0x27
 2963 01e3 0C       		.uleb128 0xc
 2964 01e4 49       		.uleb128 0x49
 2965 01e5 13       		.uleb128 0x13
 2966 01e6 11       		.uleb128 0x11
 2967 01e7 01       		.uleb128 0x1
 2968 01e8 12       		.uleb128 0x12
 2969 01e9 01       		.uleb128 0x1
 2970 01ea 40       		.uleb128 0x40
 2971 01eb 06       		.uleb128 0x6
 2972 01ec 9742     		.uleb128 0x2117
 2973 01ee 0C       		.uleb128 0xc
 2974 01ef 01       		.uleb128 0x1
 2975 01f0 13       		.uleb128 0x13
 2976 01f1 00       		.byte	0
 2977 01f2 00       		.byte	0
 2978 01f3 25       		.uleb128 0x25
 2979 01f4 34       		.uleb128 0x34
 2980 01f5 00       		.byte	0
 2981 01f6 03       		.uleb128 0x3
 2982 01f7 08       		.uleb128 0x8
 2983 01f8 3A       		.uleb128 0x3a
 2984 01f9 0B       		.uleb128 0xb
 2985 01fa 3B       		.uleb128 0x3b
 2986 01fb 0B       		.uleb128 0xb
 2987 01fc 49       		.uleb128 0x49
 2988 01fd 13       		.uleb128 0x13
 2989 01fe 02       		.uleb128 0x2
 2990 01ff 0A       		.uleb128 0xa
 2991 0200 00       		.byte	0
 2992 0201 00       		.byte	0
 2993 0202 26       		.uleb128 0x26
 2994 0203 0B       		.uleb128 0xb
 2995 0204 01       		.byte	0x1
 2996 0205 55       		.uleb128 0x55
 2997 0206 06       		.uleb128 0x6
 2998 0207 01       		.uleb128 0x1
 2999 0208 13       		.uleb128 0x13
 3000 0209 00       		.byte	0
 3001 020a 00       		.byte	0
 3002 020b 27       		.uleb128 0x27
 3003 020c 34       		.uleb128 0x34
 3004 020d 00       		.byte	0
 3005 020e 03       		.uleb128 0x3
 3006 020f 08       		.uleb128 0x8
 3007 0210 3A       		.uleb128 0x3a
 3008 0211 0B       		.uleb128 0xb
 3009 0212 3B       		.uleb128 0x3b
 3010 0213 0B       		.uleb128 0xb
ARM GAS  /var/folders/dt/0wfd0knj7gs46m8vwfzktm600000gn/T//ccFfYcvk.s 			page 54


 3011 0214 49       		.uleb128 0x49
 3012 0215 13       		.uleb128 0x13
 3013 0216 02       		.uleb128 0x2
 3014 0217 06       		.uleb128 0x6
 3015 0218 00       		.byte	0
 3016 0219 00       		.byte	0
 3017 021a 28       		.uleb128 0x28
 3018 021b 0B       		.uleb128 0xb
 3019 021c 01       		.byte	0x1
 3020 021d 11       		.uleb128 0x11
 3021 021e 01       		.uleb128 0x1
 3022 021f 12       		.uleb128 0x12
 3023 0220 01       		.uleb128 0x1
 3024 0221 01       		.uleb128 0x1
 3025 0222 13       		.uleb128 0x13
 3026 0223 00       		.byte	0
 3027 0224 00       		.byte	0
 3028 0225 29       		.uleb128 0x29
 3029 0226 898201   		.uleb128 0x4109
 3030 0229 01       		.byte	0x1
 3031 022a 11       		.uleb128 0x11
 3032 022b 01       		.uleb128 0x1
 3033 022c 31       		.uleb128 0x31
 3034 022d 13       		.uleb128 0x13
 3035 022e 00       		.byte	0
 3036 022f 00       		.byte	0
 3037 0230 2A       		.uleb128 0x2a
 3038 0231 898201   		.uleb128 0x4109
 3039 0234 01       		.byte	0x1
 3040 0235 11       		.uleb128 0x11
 3041 0236 01       		.uleb128 0x1
 3042 0237 00       		.byte	0
 3043 0238 00       		.byte	0
 3044 0239 2B       		.uleb128 0x2b
 3045 023a 898201   		.uleb128 0x4109
 3046 023d 01       		.byte	0x1
 3047 023e 11       		.uleb128 0x11
 3048 023f 01       		.uleb128 0x1
 3049 0240 01       		.uleb128 0x1
 3050 0241 13       		.uleb128 0x13
 3051 0242 00       		.byte	0
 3052 0243 00       		.byte	0
 3053 0244 2C       		.uleb128 0x2c
 3054 0245 2E       		.uleb128 0x2e
 3055 0246 01       		.byte	0x1
 3056 0247 3F       		.uleb128 0x3f
 3057 0248 0C       		.uleb128 0xc
 3058 0249 03       		.uleb128 0x3
 3059 024a 0E       		.uleb128 0xe
 3060 024b 3A       		.uleb128 0x3a
 3061 024c 0B       		.uleb128 0xb
 3062 024d 3B       		.uleb128 0x3b
 3063 024e 05       		.uleb128 0x5
 3064 024f 27       		.uleb128 0x27
 3065 0250 0C       		.uleb128 0xc
 3066 0251 11       		.uleb128 0x11
 3067 0252 01       		.uleb128 0x1
ARM GAS  /var/folders/dt/0wfd0knj7gs46m8vwfzktm600000gn/T//ccFfYcvk.s 			page 55


 3068 0253 12       		.uleb128 0x12
 3069 0254 01       		.uleb128 0x1
 3070 0255 40       		.uleb128 0x40
 3071 0256 06       		.uleb128 0x6
 3072 0257 9742     		.uleb128 0x2117
 3073 0259 0C       		.uleb128 0xc
 3074 025a 01       		.uleb128 0x1
 3075 025b 13       		.uleb128 0x13
 3076 025c 00       		.byte	0
 3077 025d 00       		.byte	0
 3078 025e 2D       		.uleb128 0x2d
 3079 025f 05       		.uleb128 0x5
 3080 0260 00       		.byte	0
 3081 0261 03       		.uleb128 0x3
 3082 0262 08       		.uleb128 0x8
 3083 0263 3A       		.uleb128 0x3a
 3084 0264 0B       		.uleb128 0xb
 3085 0265 3B       		.uleb128 0x3b
 3086 0266 05       		.uleb128 0x5
 3087 0267 49       		.uleb128 0x49
 3088 0268 13       		.uleb128 0x13
 3089 0269 02       		.uleb128 0x2
 3090 026a 0A       		.uleb128 0xa
 3091 026b 00       		.byte	0
 3092 026c 00       		.byte	0
 3093 026d 2E       		.uleb128 0x2e
 3094 026e 05       		.uleb128 0x5
 3095 026f 00       		.byte	0
 3096 0270 03       		.uleb128 0x3
 3097 0271 0E       		.uleb128 0xe
 3098 0272 3A       		.uleb128 0x3a
 3099 0273 0B       		.uleb128 0xb
 3100 0274 3B       		.uleb128 0x3b
 3101 0275 05       		.uleb128 0x5
 3102 0276 49       		.uleb128 0x49
 3103 0277 13       		.uleb128 0x13
 3104 0278 02       		.uleb128 0x2
 3105 0279 0A       		.uleb128 0xa
 3106 027a 00       		.byte	0
 3107 027b 00       		.byte	0
 3108 027c 2F       		.uleb128 0x2f
 3109 027d 05       		.uleb128 0x5
 3110 027e 00       		.byte	0
 3111 027f 03       		.uleb128 0x3
 3112 0280 08       		.uleb128 0x8
 3113 0281 3A       		.uleb128 0x3a
 3114 0282 0B       		.uleb128 0xb
 3115 0283 3B       		.uleb128 0x3b
 3116 0284 05       		.uleb128 0x5
 3117 0285 49       		.uleb128 0x49
 3118 0286 13       		.uleb128 0x13
 3119 0287 02       		.uleb128 0x2
 3120 0288 06       		.uleb128 0x6
 3121 0289 00       		.byte	0
 3122 028a 00       		.byte	0
 3123 028b 30       		.uleb128 0x30
 3124 028c 1D       		.uleb128 0x1d
ARM GAS  /var/folders/dt/0wfd0knj7gs46m8vwfzktm600000gn/T//ccFfYcvk.s 			page 56


 3125 028d 01       		.byte	0x1
 3126 028e 31       		.uleb128 0x31
 3127 028f 13       		.uleb128 0x13
 3128 0290 11       		.uleb128 0x11
 3129 0291 01       		.uleb128 0x1
 3130 0292 12       		.uleb128 0x12
 3131 0293 01       		.uleb128 0x1
 3132 0294 58       		.uleb128 0x58
 3133 0295 0B       		.uleb128 0xb
 3134 0296 59       		.uleb128 0x59
 3135 0297 05       		.uleb128 0x5
 3136 0298 01       		.uleb128 0x1
 3137 0299 13       		.uleb128 0x13
 3138 029a 00       		.byte	0
 3139 029b 00       		.byte	0
 3140 029c 31       		.uleb128 0x31
 3141 029d 2E       		.uleb128 0x2e
 3142 029e 01       		.byte	0x1
 3143 029f 3F       		.uleb128 0x3f
 3144 02a0 0C       		.uleb128 0xc
 3145 02a1 03       		.uleb128 0x3
 3146 02a2 0E       		.uleb128 0xe
 3147 02a3 3A       		.uleb128 0x3a
 3148 02a4 0B       		.uleb128 0xb
 3149 02a5 3B       		.uleb128 0x3b
 3150 02a6 05       		.uleb128 0x5
 3151 02a7 27       		.uleb128 0x27
 3152 02a8 0C       		.uleb128 0xc
 3153 02a9 49       		.uleb128 0x49
 3154 02aa 13       		.uleb128 0x13
 3155 02ab 11       		.uleb128 0x11
 3156 02ac 01       		.uleb128 0x1
 3157 02ad 12       		.uleb128 0x12
 3158 02ae 01       		.uleb128 0x1
 3159 02af 40       		.uleb128 0x40
 3160 02b0 06       		.uleb128 0x6
 3161 02b1 9742     		.uleb128 0x2117
 3162 02b3 0C       		.uleb128 0xc
 3163 02b4 01       		.uleb128 0x1
 3164 02b5 13       		.uleb128 0x13
 3165 02b6 00       		.byte	0
 3166 02b7 00       		.byte	0
 3167 02b8 32       		.uleb128 0x32
 3168 02b9 05       		.uleb128 0x5
 3169 02ba 00       		.byte	0
 3170 02bb 03       		.uleb128 0x3
 3171 02bc 0E       		.uleb128 0xe
 3172 02bd 3A       		.uleb128 0x3a
 3173 02be 0B       		.uleb128 0xb
 3174 02bf 3B       		.uleb128 0x3b
 3175 02c0 05       		.uleb128 0x5
 3176 02c1 49       		.uleb128 0x49
 3177 02c2 13       		.uleb128 0x13
 3178 02c3 02       		.uleb128 0x2
 3179 02c4 06       		.uleb128 0x6
 3180 02c5 00       		.byte	0
 3181 02c6 00       		.byte	0
ARM GAS  /var/folders/dt/0wfd0knj7gs46m8vwfzktm600000gn/T//ccFfYcvk.s 			page 57


 3182 02c7 33       		.uleb128 0x33
 3183 02c8 34       		.uleb128 0x34
 3184 02c9 00       		.byte	0
 3185 02ca 03       		.uleb128 0x3
 3186 02cb 08       		.uleb128 0x8
 3187 02cc 3A       		.uleb128 0x3a
 3188 02cd 0B       		.uleb128 0xb
 3189 02ce 3B       		.uleb128 0x3b
 3190 02cf 05       		.uleb128 0x5
 3191 02d0 49       		.uleb128 0x49
 3192 02d1 13       		.uleb128 0x13
 3193 02d2 02       		.uleb128 0x2
 3194 02d3 06       		.uleb128 0x6
 3195 02d4 00       		.byte	0
 3196 02d5 00       		.byte	0
 3197 02d6 34       		.uleb128 0x34
 3198 02d7 2E       		.uleb128 0x2e
 3199 02d8 01       		.byte	0x1
 3200 02d9 3F       		.uleb128 0x3f
 3201 02da 0C       		.uleb128 0xc
 3202 02db 03       		.uleb128 0x3
 3203 02dc 0E       		.uleb128 0xe
 3204 02dd 3A       		.uleb128 0x3a
 3205 02de 0B       		.uleb128 0xb
 3206 02df 3B       		.uleb128 0x3b
 3207 02e0 05       		.uleb128 0x5
 3208 02e1 27       		.uleb128 0x27
 3209 02e2 0C       		.uleb128 0xc
 3210 02e3 49       		.uleb128 0x49
 3211 02e4 13       		.uleb128 0x13
 3212 02e5 11       		.uleb128 0x11
 3213 02e6 01       		.uleb128 0x1
 3214 02e7 12       		.uleb128 0x12
 3215 02e8 01       		.uleb128 0x1
 3216 02e9 40       		.uleb128 0x40
 3217 02ea 06       		.uleb128 0x6
 3218 02eb 9642     		.uleb128 0x2116
 3219 02ed 0C       		.uleb128 0xc
 3220 02ee 01       		.uleb128 0x1
 3221 02ef 13       		.uleb128 0x13
 3222 02f0 00       		.byte	0
 3223 02f1 00       		.byte	0
 3224 02f2 35       		.uleb128 0x35
 3225 02f3 34       		.uleb128 0x34
 3226 02f4 00       		.byte	0
 3227 02f5 03       		.uleb128 0x3
 3228 02f6 08       		.uleb128 0x8
 3229 02f7 3A       		.uleb128 0x3a
 3230 02f8 0B       		.uleb128 0xb
 3231 02f9 3B       		.uleb128 0x3b
 3232 02fa 05       		.uleb128 0x5
 3233 02fb 49       		.uleb128 0x49
 3234 02fc 13       		.uleb128 0x13
 3235 02fd 02       		.uleb128 0x2
 3236 02fe 0A       		.uleb128 0xa
 3237 02ff 00       		.byte	0
 3238 0300 00       		.byte	0
ARM GAS  /var/folders/dt/0wfd0knj7gs46m8vwfzktm600000gn/T//ccFfYcvk.s 			page 58


 3239 0301 36       		.uleb128 0x36
 3240 0302 34       		.uleb128 0x34
 3241 0303 00       		.byte	0
 3242 0304 03       		.uleb128 0x3
 3243 0305 0E       		.uleb128 0xe
 3244 0306 3A       		.uleb128 0x3a
 3245 0307 0B       		.uleb128 0xb
 3246 0308 3B       		.uleb128 0x3b
 3247 0309 0B       		.uleb128 0xb
 3248 030a 49       		.uleb128 0x49
 3249 030b 13       		.uleb128 0x13
 3250 030c 3F       		.uleb128 0x3f
 3251 030d 0C       		.uleb128 0xc
 3252 030e 3C       		.uleb128 0x3c
 3253 030f 0C       		.uleb128 0xc
 3254 0310 00       		.byte	0
 3255 0311 00       		.byte	0
 3256 0312 37       		.uleb128 0x37
 3257 0313 2E       		.uleb128 0x2e
 3258 0314 01       		.byte	0x1
 3259 0315 3F       		.uleb128 0x3f
 3260 0316 0C       		.uleb128 0xc
 3261 0317 03       		.uleb128 0x3
 3262 0318 0E       		.uleb128 0xe
 3263 0319 3A       		.uleb128 0x3a
 3264 031a 0B       		.uleb128 0xb
 3265 031b 3B       		.uleb128 0x3b
 3266 031c 0B       		.uleb128 0xb
 3267 031d 27       		.uleb128 0x27
 3268 031e 0C       		.uleb128 0xc
 3269 031f 49       		.uleb128 0x49
 3270 0320 13       		.uleb128 0x13
 3271 0321 3C       		.uleb128 0x3c
 3272 0322 0C       		.uleb128 0xc
 3273 0323 01       		.uleb128 0x1
 3274 0324 13       		.uleb128 0x13
 3275 0325 00       		.byte	0
 3276 0326 00       		.byte	0
 3277 0327 38       		.uleb128 0x38
 3278 0328 2E       		.uleb128 0x2e
 3279 0329 01       		.byte	0x1
 3280 032a 3F       		.uleb128 0x3f
 3281 032b 0C       		.uleb128 0xc
 3282 032c 03       		.uleb128 0x3
 3283 032d 0E       		.uleb128 0xe
 3284 032e 3A       		.uleb128 0x3a
 3285 032f 0B       		.uleb128 0xb
 3286 0330 3B       		.uleb128 0x3b
 3287 0331 0B       		.uleb128 0xb
 3288 0332 27       		.uleb128 0x27
 3289 0333 0C       		.uleb128 0xc
 3290 0334 49       		.uleb128 0x49
 3291 0335 13       		.uleb128 0x13
 3292 0336 3C       		.uleb128 0x3c
 3293 0337 0C       		.uleb128 0xc
 3294 0338 00       		.byte	0
 3295 0339 00       		.byte	0
ARM GAS  /var/folders/dt/0wfd0knj7gs46m8vwfzktm600000gn/T//ccFfYcvk.s 			page 59


 3296 033a 00       		.byte	0
 3297              		.section	.debug_loc,"",%progbits
 3298              	.Ldebug_loc0:
 3299              	.LLST0:
 3300 0000 00000000 		.4byte	.LFB7
 3301 0004 02000000 		.4byte	.LCFI0
 3302 0008 0200     		.2byte	0x2
 3303 000a 7D       		.byte	0x7d
 3304 000b 00       		.sleb128 0
 3305 000c 02000000 		.4byte	.LCFI0
 3306 0010 2C000000 		.4byte	.LFE7
 3307 0014 0200     		.2byte	0x2
 3308 0016 7D       		.byte	0x7d
 3309 0017 04       		.sleb128 4
 3310 0018 00000000 		.4byte	0
 3311 001c 00000000 		.4byte	0
 3312              	.LLST1:
 3313 0020 00000000 		.4byte	.LVL0
 3314 0024 0A000000 		.4byte	.LVL1
 3315 0028 0100     		.2byte	0x1
 3316 002a 50       		.byte	0x50
 3317 002b 0A000000 		.4byte	.LVL1
 3318 002f 1D000000 		.4byte	.LVL3-1
 3319 0033 0100     		.2byte	0x1
 3320 0035 52       		.byte	0x52
 3321 0036 1D000000 		.4byte	.LVL3-1
 3322 003a 1E000000 		.4byte	.LVL3
 3323 003e 0400     		.2byte	0x4
 3324 0040 F3       		.byte	0xf3
 3325 0041 01       		.uleb128 0x1
 3326 0042 50       		.byte	0x50
 3327 0043 9F       		.byte	0x9f
 3328 0044 1E000000 		.4byte	.LVL3
 3329 0048 22000000 		.4byte	.LVL4
 3330 004c 0100     		.2byte	0x1
 3331 004e 50       		.byte	0x50
 3332 004f 22000000 		.4byte	.LVL4
 3333 0053 2C000000 		.4byte	.LFE7
 3334 0057 0100     		.2byte	0x1
 3335 0059 52       		.byte	0x52
 3336 005a 00000000 		.4byte	0
 3337 005e 00000000 		.4byte	0
 3338              	.LLST2:
 3339 0062 00000000 		.4byte	.LVL0
 3340 0066 1D000000 		.4byte	.LVL3-1
 3341 006a 0100     		.2byte	0x1
 3342 006c 51       		.byte	0x51
 3343 006d 1D000000 		.4byte	.LVL3-1
 3344 0071 1E000000 		.4byte	.LVL3
 3345 0075 0400     		.2byte	0x4
 3346 0077 F3       		.byte	0xf3
 3347 0078 01       		.uleb128 0x1
 3348 0079 51       		.byte	0x51
 3349 007a 9F       		.byte	0x9f
 3350 007b 1E000000 		.4byte	.LVL3
 3351 007f 2C000000 		.4byte	.LFE7
 3352 0083 0100     		.2byte	0x1
ARM GAS  /var/folders/dt/0wfd0knj7gs46m8vwfzktm600000gn/T//ccFfYcvk.s 			page 60


 3353 0085 51       		.byte	0x51
 3354 0086 00000000 		.4byte	0
 3355 008a 00000000 		.4byte	0
 3356              	.LLST3:
 3357 008e 0E000000 		.4byte	.LVL2
 3358 0092 1D000000 		.4byte	.LVL3-1
 3359 0096 0100     		.2byte	0x1
 3360 0098 52       		.byte	0x52
 3361 0099 1D000000 		.4byte	.LVL3-1
 3362 009d 1E000000 		.4byte	.LVL3
 3363 00a1 0400     		.2byte	0x4
 3364 00a3 F3       		.byte	0xf3
 3365 00a4 01       		.uleb128 0x1
 3366 00a5 50       		.byte	0x50
 3367 00a6 9F       		.byte	0x9f
 3368 00a7 00000000 		.4byte	0
 3369 00ab 00000000 		.4byte	0
 3370              	.LLST4:
 3371 00af 0E000000 		.4byte	.LVL2
 3372 00b3 1D000000 		.4byte	.LVL3-1
 3373 00b7 0100     		.2byte	0x1
 3374 00b9 53       		.byte	0x53
 3375 00ba 00000000 		.4byte	0
 3376 00be 00000000 		.4byte	0
 3377              	.LLST5:
 3378 00c2 00000000 		.4byte	.LFB8
 3379 00c6 02000000 		.4byte	.LCFI1
 3380 00ca 0200     		.2byte	0x2
 3381 00cc 7D       		.byte	0x7d
 3382 00cd 00       		.sleb128 0
 3383 00ce 02000000 		.4byte	.LCFI1
 3384 00d2 1A000000 		.4byte	.LFE8
 3385 00d6 0200     		.2byte	0x2
 3386 00d8 7D       		.byte	0x7d
 3387 00d9 04       		.sleb128 4
 3388 00da 00000000 		.4byte	0
 3389 00de 00000000 		.4byte	0
 3390              	.LLST6:
 3391 00e2 00000000 		.4byte	.LVL5
 3392 00e6 04000000 		.4byte	.LVL6
 3393 00ea 0100     		.2byte	0x1
 3394 00ec 52       		.byte	0x52
 3395 00ed 04000000 		.4byte	.LVL6
 3396 00f1 1A000000 		.4byte	.LFE8
 3397 00f5 0400     		.2byte	0x4
 3398 00f7 F3       		.byte	0xf3
 3399 00f8 01       		.uleb128 0x1
 3400 00f9 52       		.byte	0x52
 3401 00fa 9F       		.byte	0x9f
 3402 00fb 00000000 		.4byte	0
 3403 00ff 00000000 		.4byte	0
 3404              	.LLST7:
 3405 0103 00000000 		.4byte	.LFB9
 3406 0107 02000000 		.4byte	.LCFI2
 3407 010b 0200     		.2byte	0x2
 3408 010d 7D       		.byte	0x7d
 3409 010e 00       		.sleb128 0
ARM GAS  /var/folders/dt/0wfd0knj7gs46m8vwfzktm600000gn/T//ccFfYcvk.s 			page 61


 3410 010f 02000000 		.4byte	.LCFI2
 3411 0113 2C000000 		.4byte	.LFE9
 3412 0117 0200     		.2byte	0x2
 3413 0119 7D       		.byte	0x7d
 3414 011a 10       		.sleb128 16
 3415 011b 00000000 		.4byte	0
 3416 011f 00000000 		.4byte	0
 3417              	.LLST8:
 3418 0123 00000000 		.4byte	.LVL7
 3419 0127 08000000 		.4byte	.LVL8
 3420 012b 0100     		.2byte	0x1
 3421 012d 50       		.byte	0x50
 3422 012e 08000000 		.4byte	.LVL8
 3423 0132 2C000000 		.4byte	.LFE9
 3424 0136 0100     		.2byte	0x1
 3425 0138 54       		.byte	0x54
 3426 0139 00000000 		.4byte	0
 3427 013d 00000000 		.4byte	0
 3428              	.LLST9:
 3429 0141 18000000 		.4byte	.LVL9
 3430 0145 2A000000 		.4byte	.LVL11
 3431 0149 0100     		.2byte	0x1
 3432 014b 54       		.byte	0x54
 3433 014c 00000000 		.4byte	0
 3434 0150 00000000 		.4byte	0
 3435              	.LLST10:
 3436 0154 18000000 		.4byte	.LVL9
 3437 0158 21000000 		.4byte	.LVL10-1
 3438 015c 0100     		.2byte	0x1
 3439 015e 50       		.byte	0x50
 3440 015f 00000000 		.4byte	0
 3441 0163 00000000 		.4byte	0
 3442              	.LLST11:
 3443 0167 00000000 		.4byte	.LFB10
 3444 016b 04000000 		.4byte	.LCFI3
 3445 016f 0200     		.2byte	0x2
 3446 0171 7D       		.byte	0x7d
 3447 0172 00       		.sleb128 0
 3448 0173 04000000 		.4byte	.LCFI3
 3449 0177 4A000000 		.4byte	.LFE10
 3450 017b 0200     		.2byte	0x2
 3451 017d 7D       		.byte	0x7d
 3452 017e 08       		.sleb128 8
 3453 017f 00000000 		.4byte	0
 3454 0183 00000000 		.4byte	0
 3455              	.LLST12:
 3456 0187 00000000 		.4byte	.LVL12
 3457 018b 08000000 		.4byte	.LVL13
 3458 018f 0100     		.2byte	0x1
 3459 0191 50       		.byte	0x50
 3460 0192 08000000 		.4byte	.LVL13
 3461 0196 33000000 		.4byte	.LVL16-1
 3462 019a 0100     		.2byte	0x1
 3463 019c 53       		.byte	0x53
 3464 019d 33000000 		.4byte	.LVL16-1
 3465 01a1 3C000000 		.4byte	.LVL17
 3466 01a5 0400     		.2byte	0x4
ARM GAS  /var/folders/dt/0wfd0knj7gs46m8vwfzktm600000gn/T//ccFfYcvk.s 			page 62


 3467 01a7 F3       		.byte	0xf3
 3468 01a8 01       		.uleb128 0x1
 3469 01a9 50       		.byte	0x50
 3470 01aa 9F       		.byte	0x9f
 3471 01ab 3C000000 		.4byte	.LVL17
 3472 01af 4A000000 		.4byte	.LFE10
 3473 01b3 0100     		.2byte	0x1
 3474 01b5 53       		.byte	0x53
 3475 01b6 00000000 		.4byte	0
 3476 01ba 00000000 		.4byte	0
 3477              	.LLST13:
 3478 01be 00000000 		.4byte	.LVL12
 3479 01c2 18000000 		.4byte	.LVL14
 3480 01c6 0100     		.2byte	0x1
 3481 01c8 51       		.byte	0x51
 3482 01c9 18000000 		.4byte	.LVL14
 3483 01cd 33000000 		.4byte	.LVL16-1
 3484 01d1 0300     		.2byte	0x3
 3485 01d3 73       		.byte	0x73
 3486 01d4 14       		.sleb128 20
 3487 01d5 06       		.byte	0x6
 3488 01d6 33000000 		.4byte	.LVL16-1
 3489 01da 3C000000 		.4byte	.LVL17
 3490 01de 0400     		.2byte	0x4
 3491 01e0 F3       		.byte	0xf3
 3492 01e1 01       		.uleb128 0x1
 3493 01e2 51       		.byte	0x51
 3494 01e3 9F       		.byte	0x9f
 3495 01e4 3C000000 		.4byte	.LVL17
 3496 01e8 40000000 		.4byte	.LVL18
 3497 01ec 0300     		.2byte	0x3
 3498 01ee 73       		.byte	0x73
 3499 01ef 14       		.sleb128 20
 3500 01f0 06       		.byte	0x6
 3501 01f1 40000000 		.4byte	.LVL18
 3502 01f5 4A000000 		.4byte	.LFE10
 3503 01f9 0100     		.2byte	0x1
 3504 01fb 51       		.byte	0x51
 3505 01fc 00000000 		.4byte	0
 3506 0200 00000000 		.4byte	0
 3507              	.LLST14:
 3508 0204 2A000000 		.4byte	.LVL15
 3509 0208 33000000 		.4byte	.LVL16-1
 3510 020c 0100     		.2byte	0x1
 3511 020e 53       		.byte	0x53
 3512 020f 33000000 		.4byte	.LVL16-1
 3513 0213 3C000000 		.4byte	.LVL17
 3514 0217 0400     		.2byte	0x4
 3515 0219 F3       		.byte	0xf3
 3516 021a 01       		.uleb128 0x1
 3517 021b 50       		.byte	0x50
 3518 021c 9F       		.byte	0x9f
 3519 021d 00000000 		.4byte	0
 3520 0221 00000000 		.4byte	0
 3521              	.LLST15:
 3522 0225 2A000000 		.4byte	.LVL15
 3523 0229 33000000 		.4byte	.LVL16-1
ARM GAS  /var/folders/dt/0wfd0knj7gs46m8vwfzktm600000gn/T//ccFfYcvk.s 			page 63


 3524 022d 0100     		.2byte	0x1
 3525 022f 50       		.byte	0x50
 3526 0230 00000000 		.4byte	0
 3527 0234 00000000 		.4byte	0
 3528              	.LLST16:
 3529 0238 00000000 		.4byte	.LFB11
 3530 023c 02000000 		.4byte	.LCFI4
 3531 0240 0200     		.2byte	0x2
 3532 0242 7D       		.byte	0x7d
 3533 0243 00       		.sleb128 0
 3534 0244 02000000 		.4byte	.LCFI4
 3535 0248 48000000 		.4byte	.LFE11
 3536 024c 0200     		.2byte	0x2
 3537 024e 7D       		.byte	0x7d
 3538 024f 10       		.sleb128 16
 3539 0250 00000000 		.4byte	0
 3540 0254 00000000 		.4byte	0
 3541              	.LLST17:
 3542 0258 00000000 		.4byte	.LVL19
 3543 025c 11000000 		.4byte	.LVL23-1
 3544 0260 0100     		.2byte	0x1
 3545 0262 50       		.byte	0x50
 3546 0263 11000000 		.4byte	.LVL23-1
 3547 0267 1A000000 		.4byte	.LVL24
 3548 026b 0100     		.2byte	0x1
 3549 026d 54       		.byte	0x54
 3550 026e 1A000000 		.4byte	.LVL24
 3551 0272 1D000000 		.4byte	.LVL25-1
 3552 0276 0100     		.2byte	0x1
 3553 0278 50       		.byte	0x50
 3554 0279 1D000000 		.4byte	.LVL25-1
 3555 027d 2A000000 		.4byte	.LVL28
 3556 0281 0100     		.2byte	0x1
 3557 0283 54       		.byte	0x54
 3558 0284 2A000000 		.4byte	.LVL28
 3559 0288 34000000 		.4byte	.LVL29
 3560 028c 0100     		.2byte	0x1
 3561 028e 50       		.byte	0x50
 3562 028f 34000000 		.4byte	.LVL29
 3563 0293 48000000 		.4byte	.LFE11
 3564 0297 0100     		.2byte	0x1
 3565 0299 54       		.byte	0x54
 3566 029a 00000000 		.4byte	0
 3567 029e 00000000 		.4byte	0
 3568              	.LLST18:
 3569 02a2 00000000 		.4byte	.LVL19
 3570 02a6 11000000 		.4byte	.LVL23-1
 3571 02aa 0100     		.2byte	0x1
 3572 02ac 51       		.byte	0x51
 3573 02ad 11000000 		.4byte	.LVL23-1
 3574 02b1 1A000000 		.4byte	.LVL24
 3575 02b5 0100     		.2byte	0x1
 3576 02b7 56       		.byte	0x56
 3577 02b8 1A000000 		.4byte	.LVL24
 3578 02bc 1D000000 		.4byte	.LVL25-1
 3579 02c0 0100     		.2byte	0x1
 3580 02c2 51       		.byte	0x51
ARM GAS  /var/folders/dt/0wfd0knj7gs46m8vwfzktm600000gn/T//ccFfYcvk.s 			page 64


 3581 02c3 1D000000 		.4byte	.LVL25-1
 3582 02c7 2A000000 		.4byte	.LVL28
 3583 02cb 0100     		.2byte	0x1
 3584 02cd 56       		.byte	0x56
 3585 02ce 2A000000 		.4byte	.LVL28
 3586 02d2 48000000 		.4byte	.LFE11
 3587 02d6 0100     		.2byte	0x1
 3588 02d8 51       		.byte	0x51
 3589 02d9 00000000 		.4byte	0
 3590 02dd 00000000 		.4byte	0
 3591              	.LLST19:
 3592 02e1 0C000000 		.4byte	.LVL21
 3593 02e5 0E000000 		.4byte	.LVL22
 3594 02e9 0100     		.2byte	0x1
 3595 02eb 53       		.byte	0x53
 3596 02ec 00000000 		.4byte	0
 3597 02f0 00000000 		.4byte	0
 3598              	.LLST20:
 3599 02f4 1E000000 		.4byte	.LVL25
 3600 02f8 2A000000 		.4byte	.LVL28
 3601 02fc 0100     		.2byte	0x1
 3602 02fe 50       		.byte	0x50
 3603 02ff 00000000 		.4byte	0
 3604 0303 00000000 		.4byte	0
 3605              	.LLST21:
 3606 0307 28000000 		.4byte	.LVL27
 3607 030b 2A000000 		.4byte	.LVL28
 3608 030f 0100     		.2byte	0x1
 3609 0311 53       		.byte	0x53
 3610 0312 00000000 		.4byte	0
 3611 0316 00000000 		.4byte	0
 3612              	.LLST22:
 3613 031a 46000000 		.4byte	.LVL31
 3614 031e 48000000 		.4byte	.LFE11
 3615 0322 0100     		.2byte	0x1
 3616 0324 53       		.byte	0x53
 3617 0325 00000000 		.4byte	0
 3618 0329 00000000 		.4byte	0
 3619              	.LLST23:
 3620 032d 00000000 		.4byte	.LFB12
 3621 0331 04000000 		.4byte	.LCFI5
 3622 0335 0200     		.2byte	0x2
 3623 0337 7D       		.byte	0x7d
 3624 0338 00       		.sleb128 0
 3625 0339 04000000 		.4byte	.LCFI5
 3626 033d 72000000 		.4byte	.LFE12
 3627 0341 0200     		.2byte	0x2
 3628 0343 7D       		.byte	0x7d
 3629 0344 20       		.sleb128 32
 3630 0345 00000000 		.4byte	0
 3631 0349 00000000 		.4byte	0
 3632              	.LLST24:
 3633 034d 00000000 		.4byte	.LVL32
 3634 0351 20000000 		.4byte	.LVL37
 3635 0355 0100     		.2byte	0x1
 3636 0357 50       		.byte	0x50
 3637 0358 20000000 		.4byte	.LVL37
ARM GAS  /var/folders/dt/0wfd0knj7gs46m8vwfzktm600000gn/T//ccFfYcvk.s 			page 65


 3638 035c 2A000000 		.4byte	.LVL39
 3639 0360 0100     		.2byte	0x1
 3640 0362 54       		.byte	0x54
 3641 0363 2A000000 		.4byte	.LVL39
 3642 0367 2D000000 		.4byte	.LVL40-1
 3643 036b 0100     		.2byte	0x1
 3644 036d 50       		.byte	0x50
 3645 036e 2D000000 		.4byte	.LVL40-1
 3646 0372 3E000000 		.4byte	.LVL43
 3647 0376 0100     		.2byte	0x1
 3648 0378 54       		.byte	0x54
 3649 0379 3E000000 		.4byte	.LVL43
 3650 037d 72000000 		.4byte	.LFE12
 3651 0381 0100     		.2byte	0x1
 3652 0383 50       		.byte	0x50
 3653 0384 00000000 		.4byte	0
 3654 0388 00000000 		.4byte	0
 3655              	.LLST25:
 3656 038c 00000000 		.4byte	.LVL32
 3657 0390 1C000000 		.4byte	.LVL36
 3658 0394 0100     		.2byte	0x1
 3659 0396 51       		.byte	0x51
 3660 0397 00000000 		.4byte	0
 3661 039b 00000000 		.4byte	0
 3662              	.LLST26:
 3663 039f 00000000 		.4byte	.LVL32
 3664 03a3 1C000000 		.4byte	.LVL36
 3665 03a7 0100     		.2byte	0x1
 3666 03a9 52       		.byte	0x52
 3667 03aa 00000000 		.4byte	0
 3668 03ae 00000000 		.4byte	0
 3669              	.LLST27:
 3670 03b2 00000000 		.4byte	.LVL32
 3671 03b6 0C000000 		.4byte	.LVL34
 3672 03ba 0100     		.2byte	0x1
 3673 03bc 53       		.byte	0x53
 3674 03bd 0C000000 		.4byte	.LVL34
 3675 03c1 2A000000 		.4byte	.LVL39
 3676 03c5 0100     		.2byte	0x1
 3677 03c7 56       		.byte	0x56
 3678 03c8 2A000000 		.4byte	.LVL39
 3679 03cc 2D000000 		.4byte	.LVL40-1
 3680 03d0 0100     		.2byte	0x1
 3681 03d2 51       		.byte	0x51
 3682 03d3 2D000000 		.4byte	.LVL40-1
 3683 03d7 3E000000 		.4byte	.LVL43
 3684 03db 0100     		.2byte	0x1
 3685 03dd 56       		.byte	0x56
 3686 03de 3E000000 		.4byte	.LVL43
 3687 03e2 72000000 		.4byte	.LFE12
 3688 03e6 0100     		.2byte	0x1
 3689 03e8 51       		.byte	0x51
 3690 03e9 00000000 		.4byte	0
 3691 03ed 00000000 		.4byte	0
 3692              	.LLST28:
 3693 03f1 0A000000 		.4byte	.LVL33
 3694 03f5 1C000000 		.4byte	.LVL36
ARM GAS  /var/folders/dt/0wfd0knj7gs46m8vwfzktm600000gn/T//ccFfYcvk.s 			page 66


 3695 03f9 0200     		.2byte	0x2
 3696 03fb 30       		.byte	0x30
 3697 03fc 9F       		.byte	0x9f
 3698 03fd 1C000000 		.4byte	.LVL36
 3699 0401 72000000 		.4byte	.LFE12
 3700 0405 0100     		.2byte	0x1
 3701 0407 58       		.byte	0x58
 3702 0408 00000000 		.4byte	0
 3703 040c 00000000 		.4byte	0
 3704              	.LLST29:
 3705 0410 10000000 		.4byte	.LVL35
 3706 0414 21000000 		.4byte	.LVL38-1
 3707 0418 0100     		.2byte	0x1
 3708 041a 53       		.byte	0x53
 3709 041b 22000000 		.4byte	.LVL38
 3710 041f 2D000000 		.4byte	.LVL40-1
 3711 0423 0100     		.2byte	0x1
 3712 0425 53       		.byte	0x53
 3713 0426 3E000000 		.4byte	.LVL43
 3714 042a 40000000 		.4byte	.LVL44
 3715 042e 0100     		.2byte	0x1
 3716 0430 53       		.byte	0x53
 3717 0431 00000000 		.4byte	0
 3718 0435 00000000 		.4byte	0
 3719              	.LLST30:
 3720 0439 38000000 		.4byte	.LVL42
 3721 043d 3E000000 		.4byte	.LVL43
 3722 0441 0100     		.2byte	0x1
 3723 0443 53       		.byte	0x53
 3724 0444 00000000 		.4byte	0
 3725 0448 00000000 		.4byte	0
 3726              	.LLST31:
 3727 044c 38000000 		.4byte	.LVL42
 3728 0450 3E000000 		.4byte	.LVL43
 3729 0454 0100     		.2byte	0x1
 3730 0456 53       		.byte	0x53
 3731 0457 5E000000 		.4byte	.LVL45
 3732 045b 68000000 		.4byte	.LVL47
 3733 045f 0100     		.2byte	0x1
 3734 0461 53       		.byte	0x53
 3735 0462 00000000 		.4byte	0
 3736 0466 00000000 		.4byte	0
 3737              	.LLST32:
 3738 046a 1C000000 		.4byte	.LVL36
 3739 046e 21000000 		.4byte	.LVL38-1
 3740 0472 0100     		.2byte	0x1
 3741 0474 53       		.byte	0x53
 3742 0475 22000000 		.4byte	.LVL38
 3743 0479 2D000000 		.4byte	.LVL40-1
 3744 047d 0100     		.2byte	0x1
 3745 047f 53       		.byte	0x53
 3746 0480 3E000000 		.4byte	.LVL43
 3747 0484 40000000 		.4byte	.LVL44
 3748 0488 0100     		.2byte	0x1
 3749 048a 53       		.byte	0x53
 3750 048b 6C000000 		.4byte	.LVL48
 3751 048f 72000000 		.4byte	.LFE12
ARM GAS  /var/folders/dt/0wfd0knj7gs46m8vwfzktm600000gn/T//ccFfYcvk.s 			page 67


 3752 0493 0100     		.2byte	0x1
 3753 0495 53       		.byte	0x53
 3754 0496 00000000 		.4byte	0
 3755 049a 00000000 		.4byte	0
 3756              	.LLST33:
 3757 049e 00000000 		.4byte	.LFB13
 3758 04a2 02000000 		.4byte	.LCFI6
 3759 04a6 0200     		.2byte	0x2
 3760 04a8 7D       		.byte	0x7d
 3761 04a9 00       		.sleb128 0
 3762 04aa 02000000 		.4byte	.LCFI6
 3763 04ae 18000000 		.4byte	.LFE13
 3764 04b2 0200     		.2byte	0x2
 3765 04b4 7D       		.byte	0x7d
 3766 04b5 04       		.sleb128 4
 3767 04b6 00000000 		.4byte	0
 3768 04ba 00000000 		.4byte	0
 3769              	.LLST34:
 3770 04be 00000000 		.4byte	.LFB14
 3771 04c2 02000000 		.4byte	.LCFI7
 3772 04c6 0200     		.2byte	0x2
 3773 04c8 7D       		.byte	0x7d
 3774 04c9 00       		.sleb128 0
 3775 04ca 02000000 		.4byte	.LCFI7
 3776 04ce 2E000000 		.4byte	.LFE14
 3777 04d2 0200     		.2byte	0x2
 3778 04d4 7D       		.byte	0x7d
 3779 04d5 10       		.sleb128 16
 3780 04d6 00000000 		.4byte	0
 3781 04da 00000000 		.4byte	0
 3782              	.LLST35:
 3783 04de 00000000 		.4byte	.LVL50
 3784 04e2 0A000000 		.4byte	.LVL51
 3785 04e6 0100     		.2byte	0x1
 3786 04e8 50       		.byte	0x50
 3787 04e9 0A000000 		.4byte	.LVL51
 3788 04ed 2E000000 		.4byte	.LFE14
 3789 04f1 0100     		.2byte	0x1
 3790 04f3 54       		.byte	0x54
 3791 04f4 00000000 		.4byte	0
 3792 04f8 00000000 		.4byte	0
 3793              	.LLST36:
 3794 04fc 1A000000 		.4byte	.LVL52
 3795 0500 2C000000 		.4byte	.LVL54
 3796 0504 0100     		.2byte	0x1
 3797 0506 54       		.byte	0x54
 3798 0507 00000000 		.4byte	0
 3799 050b 00000000 		.4byte	0
 3800              	.LLST37:
 3801 050f 1A000000 		.4byte	.LVL52
 3802 0513 23000000 		.4byte	.LVL53-1
 3803 0517 0100     		.2byte	0x1
 3804 0519 50       		.byte	0x50
 3805 051a 00000000 		.4byte	0
 3806 051e 00000000 		.4byte	0
 3807              	.LLST38:
 3808 0522 00000000 		.4byte	.LFB15
ARM GAS  /var/folders/dt/0wfd0knj7gs46m8vwfzktm600000gn/T//ccFfYcvk.s 			page 68


 3809 0526 02000000 		.4byte	.LCFI8
 3810 052a 0200     		.2byte	0x2
 3811 052c 7D       		.byte	0x7d
 3812 052d 00       		.sleb128 0
 3813 052e 02000000 		.4byte	.LCFI8
 3814 0532 4E000000 		.4byte	.LFE15
 3815 0536 0200     		.2byte	0x2
 3816 0538 7D       		.byte	0x7d
 3817 0539 18       		.sleb128 24
 3818 053a 00000000 		.4byte	0
 3819 053e 00000000 		.4byte	0
 3820              	.LLST39:
 3821 0542 00000000 		.4byte	.LVL55
 3822 0546 0E000000 		.4byte	.LVL57
 3823 054a 0100     		.2byte	0x1
 3824 054c 50       		.byte	0x50
 3825 054d 0E000000 		.4byte	.LVL57
 3826 0551 16000000 		.4byte	.LVL58
 3827 0555 0100     		.2byte	0x1
 3828 0557 54       		.byte	0x54
 3829 0558 16000000 		.4byte	.LVL58
 3830 055c 19000000 		.4byte	.LVL59-1
 3831 0560 0100     		.2byte	0x1
 3832 0562 50       		.byte	0x50
 3833 0563 19000000 		.4byte	.LVL59-1
 3834 0567 26000000 		.4byte	.LVL62
 3835 056b 0100     		.2byte	0x1
 3836 056d 54       		.byte	0x54
 3837 056e 26000000 		.4byte	.LVL62
 3838 0572 42000000 		.4byte	.LVL64
 3839 0576 0100     		.2byte	0x1
 3840 0578 50       		.byte	0x50
 3841 0579 42000000 		.4byte	.LVL64
 3842 057d 4E000000 		.4byte	.LFE15
 3843 0581 0100     		.2byte	0x1
 3844 0583 54       		.byte	0x54
 3845 0584 00000000 		.4byte	0
 3846 0588 00000000 		.4byte	0
 3847              	.LLST40:
 3848 058c 00000000 		.4byte	.LVL55
 3849 0590 0E000000 		.4byte	.LVL57
 3850 0594 0100     		.2byte	0x1
 3851 0596 51       		.byte	0x51
 3852 0597 0E000000 		.4byte	.LVL57
 3853 059b 4E000000 		.4byte	.LFE15
 3854 059f 0400     		.2byte	0x4
 3855 05a1 F3       		.byte	0xf3
 3856 05a2 01       		.uleb128 0x1
 3857 05a3 51       		.byte	0x51
 3858 05a4 9F       		.byte	0x9f
 3859 05a5 00000000 		.4byte	0
 3860 05a9 00000000 		.4byte	0
 3861              	.LLST41:
 3862 05ad 00000000 		.4byte	.LVL55
 3863 05b1 0E000000 		.4byte	.LVL57
 3864 05b5 0100     		.2byte	0x1
 3865 05b7 52       		.byte	0x52
ARM GAS  /var/folders/dt/0wfd0knj7gs46m8vwfzktm600000gn/T//ccFfYcvk.s 			page 69


 3866 05b8 0E000000 		.4byte	.LVL57
 3867 05bc 16000000 		.4byte	.LVL58
 3868 05c0 0100     		.2byte	0x1
 3869 05c2 56       		.byte	0x56
 3870 05c3 16000000 		.4byte	.LVL58
 3871 05c7 19000000 		.4byte	.LVL59-1
 3872 05cb 0100     		.2byte	0x1
 3873 05cd 51       		.byte	0x51
 3874 05ce 19000000 		.4byte	.LVL59-1
 3875 05d2 26000000 		.4byte	.LVL62
 3876 05d6 0100     		.2byte	0x1
 3877 05d8 56       		.byte	0x56
 3878 05d9 26000000 		.4byte	.LVL62
 3879 05dd 43000000 		.4byte	.LVL65-1
 3880 05e1 0100     		.2byte	0x1
 3881 05e3 51       		.byte	0x51
 3882 05e4 43000000 		.4byte	.LVL65-1
 3883 05e8 4E000000 		.4byte	.LFE15
 3884 05ec 0100     		.2byte	0x1
 3885 05ee 56       		.byte	0x56
 3886 05ef 00000000 		.4byte	0
 3887 05f3 00000000 		.4byte	0
 3888              	.LLST42:
 3889 05f7 0E000000 		.4byte	.LVL57
 3890 05fb 19000000 		.4byte	.LVL59-1
 3891 05ff 0100     		.2byte	0x1
 3892 0601 53       		.byte	0x53
 3893 0602 26000000 		.4byte	.LVL62
 3894 0606 28000000 		.4byte	.LVL63
 3895 060a 0100     		.2byte	0x1
 3896 060c 53       		.byte	0x53
 3897 060d 00000000 		.4byte	0
 3898 0611 00000000 		.4byte	0
 3899              	.LLST43:
 3900 0615 1A000000 		.4byte	.LVL59
 3901 0619 26000000 		.4byte	.LVL62
 3902 061d 0100     		.2byte	0x1
 3903 061f 50       		.byte	0x50
 3904 0620 00000000 		.4byte	0
 3905 0624 00000000 		.4byte	0
 3906              	.LLST44:
 3907 0628 24000000 		.4byte	.LVL61
 3908 062c 26000000 		.4byte	.LVL62
 3909 0630 0100     		.2byte	0x1
 3910 0632 53       		.byte	0x53
 3911 0633 00000000 		.4byte	0
 3912 0637 00000000 		.4byte	0
 3913              	.LLST45:
 3914 063b 4A000000 		.4byte	.LVL67
 3915 063f 4E000000 		.4byte	.LFE15
 3916 0643 0100     		.2byte	0x1
 3917 0645 53       		.byte	0x53
 3918 0646 00000000 		.4byte	0
 3919 064a 00000000 		.4byte	0
 3920              	.LLST46:
 3921 064e 00000000 		.4byte	.LFB16
 3922 0652 06000000 		.4byte	.LCFI9
ARM GAS  /var/folders/dt/0wfd0knj7gs46m8vwfzktm600000gn/T//ccFfYcvk.s 			page 70


 3923 0656 0200     		.2byte	0x2
 3924 0658 7D       		.byte	0x7d
 3925 0659 00       		.sleb128 0
 3926 065a 06000000 		.4byte	.LCFI9
 3927 065e 46000000 		.4byte	.LFE16
 3928 0662 0200     		.2byte	0x2
 3929 0664 7D       		.byte	0x7d
 3930 0665 08       		.sleb128 8
 3931 0666 00000000 		.4byte	0
 3932 066a 00000000 		.4byte	0
 3933              	.LLST47:
 3934 066e 00000000 		.4byte	.LVL68
 3935 0672 22000000 		.4byte	.LVL70
 3936 0676 0100     		.2byte	0x1
 3937 0678 50       		.byte	0x50
 3938 0679 22000000 		.4byte	.LVL70
 3939 067d 33000000 		.4byte	.LVL72-1
 3940 0681 0100     		.2byte	0x1
 3941 0683 53       		.byte	0x53
 3942 0684 33000000 		.4byte	.LVL72-1
 3943 0688 3C000000 		.4byte	.LVL74
 3944 068c 0400     		.2byte	0x4
 3945 068e F3       		.byte	0xf3
 3946 068f 01       		.uleb128 0x1
 3947 0690 50       		.byte	0x50
 3948 0691 9F       		.byte	0x9f
 3949 0692 3C000000 		.4byte	.LVL74
 3950 0696 44000000 		.4byte	.LVL75
 3951 069a 0100     		.2byte	0x1
 3952 069c 50       		.byte	0x50
 3953 069d 44000000 		.4byte	.LVL75
 3954 06a1 46000000 		.4byte	.LFE16
 3955 06a5 0100     		.2byte	0x1
 3956 06a7 53       		.byte	0x53
 3957 06a8 00000000 		.4byte	0
 3958 06ac 00000000 		.4byte	0
 3959              	.LLST48:
 3960 06b0 16000000 		.4byte	.LVL69
 3961 06b4 22000000 		.4byte	.LVL70
 3962 06b8 0300     		.2byte	0x3
 3963 06ba 70       		.byte	0x70
 3964 06bb 18       		.sleb128 24
 3965 06bc 06       		.byte	0x6
 3966 06bd 22000000 		.4byte	.LVL70
 3967 06c1 33000000 		.4byte	.LVL72-1
 3968 06c5 0300     		.2byte	0x3
 3969 06c7 73       		.byte	0x73
 3970 06c8 18       		.sleb128 24
 3971 06c9 06       		.byte	0x6
 3972 06ca 33000000 		.4byte	.LVL72-1
 3973 06ce 3C000000 		.4byte	.LVL74
 3974 06d2 0100     		.2byte	0x1
 3975 06d4 54       		.byte	0x54
 3976 06d5 00000000 		.4byte	0
 3977 06d9 00000000 		.4byte	0
 3978              	.LLST49:
 3979 06dd 2A000000 		.4byte	.LVL71
ARM GAS  /var/folders/dt/0wfd0knj7gs46m8vwfzktm600000gn/T//ccFfYcvk.s 			page 71


 3980 06e1 33000000 		.4byte	.LVL72-1
 3981 06e5 0100     		.2byte	0x1
 3982 06e7 53       		.byte	0x53
 3983 06e8 33000000 		.4byte	.LVL72-1
 3984 06ec 38000000 		.4byte	.LVL73
 3985 06f0 0400     		.2byte	0x4
 3986 06f2 F3       		.byte	0xf3
 3987 06f3 01       		.uleb128 0x1
 3988 06f4 50       		.byte	0x50
 3989 06f5 9F       		.byte	0x9f
 3990 06f6 00000000 		.4byte	0
 3991 06fa 00000000 		.4byte	0
 3992              	.LLST50:
 3993 06fe 2A000000 		.4byte	.LVL71
 3994 0702 33000000 		.4byte	.LVL72-1
 3995 0706 0100     		.2byte	0x1
 3996 0708 50       		.byte	0x50
 3997 0709 00000000 		.4byte	0
 3998 070d 00000000 		.4byte	0
 3999              	.LLST51:
 4000 0711 00000000 		.4byte	.LFB17
 4001 0715 04000000 		.4byte	.LCFI10
 4002 0719 0200     		.2byte	0x2
 4003 071b 7D       		.byte	0x7d
 4004 071c 00       		.sleb128 0
 4005 071d 04000000 		.4byte	.LCFI10
 4006 0721 74000000 		.4byte	.LFE17
 4007 0725 0200     		.2byte	0x2
 4008 0727 7D       		.byte	0x7d
 4009 0728 20       		.sleb128 32
 4010 0729 00000000 		.4byte	0
 4011 072d 00000000 		.4byte	0
 4012              	.LLST52:
 4013 0731 00000000 		.4byte	.LVL76
 4014 0735 18000000 		.4byte	.LVL80
 4015 0739 0100     		.2byte	0x1
 4016 073b 50       		.byte	0x50
 4017 073c 18000000 		.4byte	.LVL80
 4018 0740 20000000 		.4byte	.LVL82
 4019 0744 0100     		.2byte	0x1
 4020 0746 54       		.byte	0x54
 4021 0747 20000000 		.4byte	.LVL82
 4022 074b 3F000000 		.4byte	.LVL85-1
 4023 074f 0100     		.2byte	0x1
 4024 0751 50       		.byte	0x50
 4025 0752 3F000000 		.4byte	.LVL85-1
 4026 0756 5C000000 		.4byte	.LVL93
 4027 075a 0100     		.2byte	0x1
 4028 075c 54       		.byte	0x54
 4029 075d 5C000000 		.4byte	.LVL93
 4030 0761 5E000000 		.4byte	.LVL94
 4031 0765 0100     		.2byte	0x1
 4032 0767 50       		.byte	0x50
 4033 0768 5E000000 		.4byte	.LVL94
 4034 076c 74000000 		.4byte	.LFE17
 4035 0770 0100     		.2byte	0x1
 4036 0772 54       		.byte	0x54
ARM GAS  /var/folders/dt/0wfd0knj7gs46m8vwfzktm600000gn/T//ccFfYcvk.s 			page 72


 4037 0773 00000000 		.4byte	0
 4038 0777 00000000 		.4byte	0
 4039              	.LLST53:
 4040 077b 00000000 		.4byte	.LVL76
 4041 077f 18000000 		.4byte	.LVL80
 4042 0783 0100     		.2byte	0x1
 4043 0785 51       		.byte	0x51
 4044 0786 18000000 		.4byte	.LVL80
 4045 078a 26000000 		.4byte	.LVL83
 4046 078e 0100     		.2byte	0x1
 4047 0790 58       		.byte	0x58
 4048 0791 26000000 		.4byte	.LVL83
 4049 0795 30000000 		.4byte	.LVL84
 4050 0799 0300     		.2byte	0x3
 4051 079b 78       		.byte	0x78
 4052 079c 7F       		.sleb128 -1
 4053 079d 9F       		.byte	0x9f
 4054 079e 30000000 		.4byte	.LVL84
 4055 07a2 74000000 		.4byte	.LFE17
 4056 07a6 0100     		.2byte	0x1
 4057 07a8 58       		.byte	0x58
 4058 07a9 00000000 		.4byte	0
 4059 07ad 00000000 		.4byte	0
 4060              	.LLST54:
 4061 07b1 00000000 		.4byte	.LVL76
 4062 07b5 18000000 		.4byte	.LVL80
 4063 07b9 0100     		.2byte	0x1
 4064 07bb 52       		.byte	0x52
 4065 07bc 18000000 		.4byte	.LVL80
 4066 07c0 48000000 		.4byte	.LVL88
 4067 07c4 0100     		.2byte	0x1
 4068 07c6 56       		.byte	0x56
 4069 07c7 48000000 		.4byte	.LVL88
 4070 07cb 4A000000 		.4byte	.LVL89
 4071 07cf 0300     		.2byte	0x3
 4072 07d1 76       		.byte	0x76
 4073 07d2 7F       		.sleb128 -1
 4074 07d3 9F       		.byte	0x9f
 4075 07d4 4A000000 		.4byte	.LVL89
 4076 07d8 74000000 		.4byte	.LFE17
 4077 07dc 0100     		.2byte	0x1
 4078 07de 56       		.byte	0x56
 4079 07df 00000000 		.4byte	0
 4080 07e3 00000000 		.4byte	0
 4081              	.LLST55:
 4082 07e7 00000000 		.4byte	.LVL76
 4083 07eb 12000000 		.4byte	.LVL78
 4084 07ef 0100     		.2byte	0x1
 4085 07f1 53       		.byte	0x53
 4086 07f2 12000000 		.4byte	.LVL78
 4087 07f6 74000000 		.4byte	.LFE17
 4088 07fa 0100     		.2byte	0x1
 4089 07fc 5A       		.byte	0x5a
 4090 07fd 00000000 		.4byte	0
 4091 0801 00000000 		.4byte	0
 4092              	.LLST56:
 4093 0805 10000000 		.4byte	.LVL77
ARM GAS  /var/folders/dt/0wfd0knj7gs46m8vwfzktm600000gn/T//ccFfYcvk.s 			page 73


 4094 0809 18000000 		.4byte	.LVL80
 4095 080d 0200     		.2byte	0x2
 4096 080f 30       		.byte	0x30
 4097 0810 9F       		.byte	0x9f
 4098 0811 18000000 		.4byte	.LVL80
 4099 0815 74000000 		.4byte	.LFE17
 4100 0819 0100     		.2byte	0x1
 4101 081b 57       		.byte	0x57
 4102 081c 00000000 		.4byte	0
 4103 0820 00000000 		.4byte	0
 4104              	.LLST57:
 4105 0824 16000000 		.4byte	.LVL79
 4106 0828 1E000000 		.4byte	.LVL81
 4107 082c 0100     		.2byte	0x1
 4108 082e 53       		.byte	0x53
 4109 082f 00000000 		.4byte	0
 4110 0833 00000000 		.4byte	0
 4111              	.LLST58:
 4112 0837 46000000 		.4byte	.LVL87
 4113 083b 4E000000 		.4byte	.LVL90
 4114 083f 0100     		.2byte	0x1
 4115 0841 53       		.byte	0x53
 4116 0842 6E000000 		.4byte	.LVL97
 4117 0846 74000000 		.4byte	.LFE17
 4118 084a 0100     		.2byte	0x1
 4119 084c 53       		.byte	0x53
 4120 084d 00000000 		.4byte	0
 4121 0851 00000000 		.4byte	0
 4122              	.LLST59:
 4123 0855 52000000 		.4byte	.LVL91
 4124 0859 58000000 		.4byte	.LVL92
 4125 085d 0100     		.2byte	0x1
 4126 085f 53       		.byte	0x53
 4127 0860 00000000 		.4byte	0
 4128 0864 00000000 		.4byte	0
 4129              	.LLST60:
 4130 0868 6E000000 		.4byte	.LVL97
 4131 086c 74000000 		.4byte	.LFE17
 4132 0870 0100     		.2byte	0x1
 4133 0872 53       		.byte	0x53
 4134 0873 00000000 		.4byte	0
 4135 0877 00000000 		.4byte	0
 4136              		.section	.debug_aranges,"",%progbits
 4137 0000 6C000000 		.4byte	0x6c
 4138 0004 0200     		.2byte	0x2
 4139 0006 00000000 		.4byte	.Ldebug_info0
 4140 000a 04       		.byte	0x4
 4141 000b 00       		.byte	0
 4142 000c 0000     		.2byte	0
 4143 000e 0000     		.2byte	0
 4144 0010 00000000 		.4byte	.LFB7
 4145 0014 2C000000 		.4byte	.LFE7-.LFB7
 4146 0018 00000000 		.4byte	.LFB8
 4147 001c 1A000000 		.4byte	.LFE8-.LFB8
 4148 0020 00000000 		.4byte	.LFB9
 4149 0024 2C000000 		.4byte	.LFE9-.LFB9
 4150 0028 00000000 		.4byte	.LFB10
ARM GAS  /var/folders/dt/0wfd0knj7gs46m8vwfzktm600000gn/T//ccFfYcvk.s 			page 74


 4151 002c 4A000000 		.4byte	.LFE10-.LFB10
 4152 0030 00000000 		.4byte	.LFB11
 4153 0034 48000000 		.4byte	.LFE11-.LFB11
 4154 0038 00000000 		.4byte	.LFB12
 4155 003c 72000000 		.4byte	.LFE12-.LFB12
 4156 0040 00000000 		.4byte	.LFB13
 4157 0044 18000000 		.4byte	.LFE13-.LFB13
 4158 0048 00000000 		.4byte	.LFB14
 4159 004c 2E000000 		.4byte	.LFE14-.LFB14
 4160 0050 00000000 		.4byte	.LFB15
 4161 0054 4E000000 		.4byte	.LFE15-.LFB15
 4162 0058 00000000 		.4byte	.LFB16
 4163 005c 46000000 		.4byte	.LFE16-.LFB16
 4164 0060 00000000 		.4byte	.LFB17
 4165 0064 74000000 		.4byte	.LFE17-.LFB17
 4166 0068 00000000 		.4byte	0
 4167 006c 00000000 		.4byte	0
 4168              		.section	.debug_ranges,"",%progbits
 4169              	.Ldebug_ranges0:
 4170 0000 02000000 		.4byte	.LBB18
 4171 0004 04000000 		.4byte	.LBE18
 4172 0008 08000000 		.4byte	.LBB19
 4173 000c 0C000000 		.4byte	.LBE19
 4174 0010 00000000 		.4byte	0
 4175 0014 00000000 		.4byte	0
 4176 0018 14000000 		.4byte	.LBB20
 4177 001c 18000000 		.4byte	.LBE20
 4178 0020 1A000000 		.4byte	.LBB22
 4179 0024 2A000000 		.4byte	.LBE22
 4180 0028 00000000 		.4byte	0
 4181 002c 00000000 		.4byte	0
 4182 0030 0A000000 		.4byte	.LBB24
 4183 0034 10000000 		.4byte	.LBE24
 4184 0038 14000000 		.4byte	.LBB25
 4185 003c 1C000000 		.4byte	.LBE25
 4186 0040 00000000 		.4byte	0
 4187 0044 00000000 		.4byte	0
 4188 0048 10000000 		.4byte	.LBB32
 4189 004c 14000000 		.4byte	.LBE32
 4190 0050 16000000 		.4byte	.LBB34
 4191 0054 26000000 		.4byte	.LBE34
 4192 0058 00000000 		.4byte	0
 4193 005c 00000000 		.4byte	0
 4194 0060 00000000 		.4byte	.LFB7
 4195 0064 2C000000 		.4byte	.LFE7
 4196 0068 00000000 		.4byte	.LFB8
 4197 006c 1A000000 		.4byte	.LFE8
 4198 0070 00000000 		.4byte	.LFB9
 4199 0074 2C000000 		.4byte	.LFE9
 4200 0078 00000000 		.4byte	.LFB10
 4201 007c 4A000000 		.4byte	.LFE10
 4202 0080 00000000 		.4byte	.LFB11
 4203 0084 48000000 		.4byte	.LFE11
 4204 0088 00000000 		.4byte	.LFB12
 4205 008c 72000000 		.4byte	.LFE12
 4206 0090 00000000 		.4byte	.LFB13
 4207 0094 18000000 		.4byte	.LFE13
ARM GAS  /var/folders/dt/0wfd0knj7gs46m8vwfzktm600000gn/T//ccFfYcvk.s 			page 75


 4208 0098 00000000 		.4byte	.LFB14
 4209 009c 2E000000 		.4byte	.LFE14
 4210 00a0 00000000 		.4byte	.LFB15
 4211 00a4 4E000000 		.4byte	.LFE15
 4212 00a8 00000000 		.4byte	.LFB16
 4213 00ac 46000000 		.4byte	.LFE16
 4214 00b0 00000000 		.4byte	.LFB17
 4215 00b4 74000000 		.4byte	.LFE17
 4216 00b8 00000000 		.4byte	0
 4217 00bc 00000000 		.4byte	0
 4218              		.section	.debug_line,"",%progbits
 4219              	.Ldebug_line0:
 4220 0000 A5030000 		.section	.debug_str,"MS",%progbits,1
 4220      0200B301 
 4220      00000201 
 4220      FB0E0D00 
 4220      01010101 
 4221              	.LASF83:
 4222 0000 63684F51 		.ascii	"chOQInit\000"
 4222      496E6974 
 4222      00
 4223              	.LASF36:
 4224 0009 705F6D73 		.ascii	"p_msg\000"
 4224      6700
 4225              	.LASF92:
 4226 000f 71756575 		.ascii	"queue_insert\000"
 4226      655F696E 
 4226      73657274 
 4226      00
 4227              	.LASF84:
 4228 001c 6F6E6679 		.ascii	"onfy\000"
 4228      00
 4229              	.LASF2:
 4230 0021 73697A65 		.ascii	"size_t\000"
 4230      5F7400
 4231              	.LASF91:
 4232 0028 2F557365 		.ascii	"/Users/toxygen/Projects/UAV/Control_sytem/sw/autopi"
 4232      72732F74 
 4232      6F787967 
 4232      656E2F50 
 4232      726F6A65 
 4233 005b 6C6F742F 		.ascii	"lot/2.4.3/demos/STM32F103-sdspi\000"
 4233      322E342E 
 4233      332F6465 
 4233      6D6F732F 
 4233      53544D33 
 4234              	.LASF59:
 4235 007b 7264796D 		.ascii	"rdymsg\000"
 4235      736700
 4236              	.LASF78:
 4237 0082 63684951 		.ascii	"chIQInit\000"
 4237      496E6974 
 4237      00
 4238              	.LASF74:
 4239 008b 4F757470 		.ascii	"OutputQueue\000"
 4239      75745175 
 4239      65756500 
ARM GAS  /var/folders/dt/0wfd0knj7gs46m8vwfzktm600000gn/T//ccFfYcvk.s 			page 76


 4240              	.LASF82:
 4241 0097 63684951 		.ascii	"chIQReadTimeout\000"
 4241      52656164 
 4241      54696D65 
 4241      6F757400 
 4242              	.LASF12:
 4243 00a7 6C6F6E67 		.ascii	"long long unsigned int\000"
 4243      206C6F6E 
 4243      6720756E 
 4243      7369676E 
 4243      65642069 
 4244              	.LASF60:
 4245 00be 65786974 		.ascii	"exitcode\000"
 4245      636F6465 
 4245      00
 4246              	.LASF25:
 4247 00c7 705F7072 		.ascii	"p_prio\000"
 4247      696F00
 4248              	.LASF65:
 4249 00ce 715F7761 		.ascii	"q_waiting\000"
 4249      6974696E 
 4249      6700
 4250              	.LASF11:
 4251 00d8 6C6F6E67 		.ascii	"long long int\000"
 4251      206C6F6E 
 4251      6720696E 
 4251      7400
 4252              	.LASF1:
 4253 00e6 7369676E 		.ascii	"signed char\000"
 4253      65642063 
 4253      68617200 
 4254              	.LASF40:
 4255 00f2 705F6D70 		.ascii	"p_mpool\000"
 4255      6F6F6C00 
 4256              	.LASF13:
 4257 00fa 626F6F6C 		.ascii	"bool_t\000"
 4257      5F7400
 4258              	.LASF56:
 4259 0101 6D5F7175 		.ascii	"m_queue\000"
 4259      65756500 
 4260              	.LASF94:
 4261 0109 71776169 		.ascii	"qwait\000"
 4261      7400
 4262              	.LASF8:
 4263 010f 6C6F6E67 		.ascii	"long int\000"
 4263      20696E74 
 4263      00
 4264              	.LASF15:
 4265 0118 74737461 		.ascii	"tstate_t\000"
 4265      74655F74 
 4265      00
 4266              	.LASF87:
 4267 0121 63684F51 		.ascii	"chOQGetI\000"
 4267      47657449 
 4267      00
 4268              	.LASF67:
 4269 012a 715F6275 		.ascii	"q_buffer\000"
ARM GAS  /var/folders/dt/0wfd0knj7gs46m8vwfzktm600000gn/T//ccFfYcvk.s 			page 77


 4269      66666572 
 4269      00
 4270              	.LASF69:
 4271 0133 715F7772 		.ascii	"q_wrptr\000"
 4271      70747200 
 4272              	.LASF27:
 4273 013b 705F6E65 		.ascii	"p_newer\000"
 4273      77657200 
 4274              	.LASF50:
 4275 0143 725F6E65 		.ascii	"r_newer\000"
 4275      77657200 
 4276              	.LASF43:
 4277 014b 72656761 		.ascii	"regarm_t\000"
 4277      726D5F74 
 4277      00
 4278              	.LASF86:
 4279 0154 63684F51 		.ascii	"chOQPutTimeout\000"
 4279      50757454 
 4279      696D656F 
 4279      757400
 4280              	.LASF80:
 4281 0163 63684951 		.ascii	"chIQPutI\000"
 4281      50757449 
 4281      00
 4282              	.LASF21:
 4283 016c 636E745F 		.ascii	"cnt_t\000"
 4283      7400
 4284              	.LASF0:
 4285 0172 756E7369 		.ascii	"unsigned int\000"
 4285      676E6564 
 4285      20696E74 
 4285      00
 4286              	.LASF79:
 4287 017f 63684951 		.ascii	"chIQResetI\000"
 4287      52657365 
 4287      744900
 4288              	.LASF10:
 4289 018a 6C6F6E67 		.ascii	"long unsigned int\000"
 4289      20756E73 
 4289      69676E65 
 4289      6420696E 
 4289      7400
 4290              	.LASF45:
 4291 019c 636F6E74 		.ascii	"context\000"
 4291      65787400 
 4292              	.LASF76:
 4293 01a4 73697A65 		.ascii	"size\000"
 4293      00
 4294              	.LASF6:
 4295 01a9 73686F72 		.ascii	"short unsigned int\000"
 4295      7420756E 
 4295      7369676E 
 4295      65642069 
 4295      6E7400
 4296              	.LASF18:
 4297 01bc 6D73675F 		.ascii	"msg_t\000"
 4297      7400
ARM GAS  /var/folders/dt/0wfd0knj7gs46m8vwfzktm600000gn/T//ccFfYcvk.s 			page 78


 4298              	.LASF90:
 4299 01c2 2E2E2F2E 		.ascii	"../../os/kernel/src/chqueues.c\000"
 4299      2E2F6F73 
 4299      2F6B6572 
 4299      6E656C2F 
 4299      7372632F 
 4300              	.LASF42:
 4301 01e1 54687265 		.ascii	"ThreadsList\000"
 4301      6164734C 
 4301      69737400 
 4302              	.LASF19:
 4303 01ed 6576656E 		.ascii	"eventmask_t\000"
 4303      746D6173 
 4303      6B5F7400 
 4304              	.LASF73:
 4305 01f9 496E7075 		.ascii	"InputQueue\000"
 4305      74517565 
 4305      756500
 4306              	.LASF55:
 4307 0204 4D757465 		.ascii	"Mutex\000"
 4307      7800
 4308              	.LASF64:
 4309 020a 47656E65 		.ascii	"GenericQueue\000"
 4309      72696351 
 4309      75657565 
 4309      00
 4310              	.LASF88:
 4311 0217 63684F51 		.ascii	"chOQWriteTimeout\000"
 4311      57726974 
 4311      6554696D 
 4311      656F7574 
 4311      00
 4312              	.LASF46:
 4313 0228 73697A65 		.ascii	"sizetype\000"
 4313      74797065 
 4313      00
 4314              	.LASF66:
 4315 0231 715F636F 		.ascii	"q_counter\000"
 4315      756E7465 
 4315      7200
 4316              	.LASF28:
 4317 023b 705F6F6C 		.ascii	"p_older\000"
 4317      64657200 
 4318              	.LASF49:
 4319 0243 725F6374 		.ascii	"r_ctx\000"
 4319      7800
 4320              	.LASF41:
 4321 0249 54687265 		.ascii	"ThreadsQueue\000"
 4321      61647351 
 4321      75657565 
 4321      00
 4322              	.LASF75:
 4323 0256 74696D65 		.ascii	"time\000"
 4323      00
 4324              	.LASF89:
 4325 025b 474E5520 		.ascii	"GNU C 4.7.2\000"
 4325      4320342E 
ARM GAS  /var/folders/dt/0wfd0knj7gs46m8vwfzktm600000gn/T//ccFfYcvk.s 			page 79


 4325      372E3200 
 4326              	.LASF53:
 4327 0267 725F6375 		.ascii	"r_current\000"
 4327      7272656E 
 4327      7400
 4328              	.LASF51:
 4329 0271 725F6F6C 		.ascii	"r_older\000"
 4329      64657200 
 4330              	.LASF16:
 4331 0279 74726566 		.ascii	"trefs_t\000"
 4331      735F7400 
 4332              	.LASF72:
 4333 0281 716E6F74 		.ascii	"qnotify_t\000"
 4333      6966795F 
 4333      7400
 4334              	.LASF24:
 4335 028b 705F7072 		.ascii	"p_prev\000"
 4335      657600
 4336              	.LASF17:
 4337 0292 74707269 		.ascii	"tprio_t\000"
 4337      6F5F7400 
 4338              	.LASF70:
 4339 029a 715F7264 		.ascii	"q_rdptr\000"
 4339      70747200 
 4340              	.LASF7:
 4341 02a2 696E7433 		.ascii	"int32_t\000"
 4341      325F7400 
 4342              	.LASF4:
 4343 02aa 756E7369 		.ascii	"unsigned char\000"
 4343      676E6564 
 4343      20636861 
 4343      7200
 4344              	.LASF38:
 4345 02b8 705F6D74 		.ascii	"p_mtxlist\000"
 4345      786C6973 
 4345      7400
 4346              	.LASF5:
 4347 02c2 73686F72 		.ascii	"short int\000"
 4347      7420696E 
 4347      7400
 4348              	.LASF30:
 4349 02cc 705F7374 		.ascii	"p_state\000"
 4349      61746500 
 4350              	.LASF48:
 4351 02d4 725F7072 		.ascii	"r_prio\000"
 4351      696F00
 4352              	.LASF62:
 4353 02db 65776D61 		.ascii	"ewmask\000"
 4353      736B00
 4354              	.LASF23:
 4355 02e2 705F6E65 		.ascii	"p_next\000"
 4355      787400
 4356              	.LASF14:
 4357 02e9 746D6F64 		.ascii	"tmode_t\000"
 4357      655F7400 
 4358              	.LASF31:
 4359 02f1 705F666C 		.ascii	"p_flags\000"
ARM GAS  /var/folders/dt/0wfd0knj7gs46m8vwfzktm600000gn/T//ccFfYcvk.s 			page 80


 4359      61677300 
 4360              	.LASF22:
 4361 02f9 54687265 		.ascii	"Thread\000"
 4361      616400
 4362              	.LASF37:
 4363 0300 705F6570 		.ascii	"p_epending\000"
 4363      656E6469 
 4363      6E6700
 4364              	.LASF9:
 4365 030b 75696E74 		.ascii	"uint32_t\000"
 4365      33325F74 
 4365      00
 4366              	.LASF47:
 4367 0314 725F7175 		.ascii	"r_queue\000"
 4367      65756500 
 4368              	.LASF97:
 4369 031c 63685363 		.ascii	"chSchReadyI\000"
 4369      68526561 
 4369      64794900 
 4370              	.LASF63:
 4371 0328 63686172 		.ascii	"char\000"
 4371      00
 4372              	.LASF93:
 4373 032d 6669666F 		.ascii	"fifo_remove\000"
 4373      5F72656D 
 4373      6F766500 
 4374              	.LASF58:
 4375 0339 6D5F6E65 		.ascii	"m_next\000"
 4375      787400
 4376              	.LASF20:
 4377 0340 73797374 		.ascii	"systime_t\000"
 4377      696D655F 
 4377      7400
 4378              	.LASF39:
 4379 034a 705F7265 		.ascii	"p_realprio\000"
 4379      616C7072 
 4379      696F00
 4380              	.LASF77:
 4381 0355 696E6679 		.ascii	"infy\000"
 4381      00
 4382              	.LASF85:
 4383 035a 63684F51 		.ascii	"chOQResetI\000"
 4383      52657365 
 4383      744900
 4384              	.LASF33:
 4385 0365 705F7469 		.ascii	"p_time\000"
 4385      6D6500
 4386              	.LASF44:
 4387 036c 696E7463 		.ascii	"intctx\000"
 4387      747800
 4388              	.LASF35:
 4389 0373 705F6D73 		.ascii	"p_msgqueue\000"
 4389      67717565 
 4389      756500
 4390              	.LASF68:
 4391 037e 715F746F 		.ascii	"q_top\000"
 4391      7000
ARM GAS  /var/folders/dt/0wfd0knj7gs46m8vwfzktm600000gn/T//ccFfYcvk.s 			page 81


 4392              	.LASF32:
 4393 0384 705F7265 		.ascii	"p_refs\000"
 4393      667300
 4394              	.LASF54:
 4395 038b 52656164 		.ascii	"ReadyList\000"
 4395      794C6973 
 4395      7400
 4396              	.LASF71:
 4397 0395 715F6E6F 		.ascii	"q_notify\000"
 4397      74696679 
 4397      00
 4398              	.LASF95:
 4399 039e 726C6973 		.ascii	"rlist\000"
 4399      7400
 4400              	.LASF3:
 4401 03a4 75696E74 		.ascii	"uint8_t\000"
 4401      385F7400 
 4402              	.LASF61:
 4403 03ac 77746F62 		.ascii	"wtobjp\000"
 4403      6A7000
 4404              	.LASF29:
 4405 03b3 705F6E61 		.ascii	"p_name\000"
 4405      6D6500
 4406              	.LASF96:
 4407 03ba 63685363 		.ascii	"chSchGoSleepTimeoutS\000"
 4407      68476F53 
 4407      6C656570 
 4407      54696D65 
 4407      6F757453 
 4408              	.LASF52:
 4409 03cf 725F7072 		.ascii	"r_preempt\000"
 4409      65656D70 
 4409      7400
 4410              	.LASF57:
 4411 03d9 6D5F6F77 		.ascii	"m_owner\000"
 4411      6E657200 
 4412              	.LASF26:
 4413 03e1 705F6374 		.ascii	"p_ctx\000"
 4413      7800
 4414              	.LASF34:
 4415 03e7 705F7761 		.ascii	"p_waiting\000"
 4415      6974696E 
 4415      6700
 4416              	.LASF81:
 4417 03f1 63684951 		.ascii	"chIQGetTimeout\000"
 4417      47657454 
 4417      696D656F 
 4417      757400
 4418              		.ident	"GCC: (GNU) 4.7.2"
ARM GAS  /var/folders/dt/0wfd0knj7gs46m8vwfzktm600000gn/T//ccFfYcvk.s 			page 82


DEFINED SYMBOLS
                            *ABS*:0000000000000000 chqueues.c
/var/folders/dt/0wfd0knj7gs46m8vwfzktm600000gn/T//ccFfYcvk.s:19     .text.qwait:0000000000000000 $t
/var/folders/dt/0wfd0knj7gs46m8vwfzktm600000gn/T//ccFfYcvk.s:24     .text.qwait:0000000000000000 qwait
/var/folders/dt/0wfd0knj7gs46m8vwfzktm600000gn/T//ccFfYcvk.s:75     .text.qwait:0000000000000028 $d
/var/folders/dt/0wfd0knj7gs46m8vwfzktm600000gn/T//ccFfYcvk.s:80     .text.chIQInit:0000000000000000 $t
/var/folders/dt/0wfd0knj7gs46m8vwfzktm600000gn/T//ccFfYcvk.s:86     .text.chIQInit:0000000000000000 chIQInit
/var/folders/dt/0wfd0knj7gs46m8vwfzktm600000gn/T//ccFfYcvk.s:123    .text.chIQResetI:0000000000000000 $t
/var/folders/dt/0wfd0knj7gs46m8vwfzktm600000gn/T//ccFfYcvk.s:129    .text.chIQResetI:0000000000000000 chIQResetI
/var/folders/dt/0wfd0knj7gs46m8vwfzktm600000gn/T//ccFfYcvk.s:188    .text.chIQPutI:0000000000000000 $t
/var/folders/dt/0wfd0knj7gs46m8vwfzktm600000gn/T//ccFfYcvk.s:194    .text.chIQPutI:0000000000000000 chIQPutI
/var/folders/dt/0wfd0knj7gs46m8vwfzktm600000gn/T//ccFfYcvk.s:275    .text.chIQGetTimeout:0000000000000000 $t
/var/folders/dt/0wfd0knj7gs46m8vwfzktm600000gn/T//ccFfYcvk.s:281    .text.chIQGetTimeout:0000000000000000 chIQGetTimeout
/var/folders/dt/0wfd0knj7gs46m8vwfzktm600000gn/T//ccFfYcvk.s:384    .text.chIQReadTimeout:0000000000000000 $t
/var/folders/dt/0wfd0knj7gs46m8vwfzktm600000gn/T//ccFfYcvk.s:390    .text.chIQReadTimeout:0000000000000000 chIQReadTimeout
/var/folders/dt/0wfd0knj7gs46m8vwfzktm600000gn/T//ccFfYcvk.s:522    .text.chOQInit:0000000000000000 $t
/var/folders/dt/0wfd0knj7gs46m8vwfzktm600000gn/T//ccFfYcvk.s:528    .text.chOQInit:0000000000000000 chOQInit
/var/folders/dt/0wfd0knj7gs46m8vwfzktm600000gn/T//ccFfYcvk.s:562    .text.chOQResetI:0000000000000000 $t
/var/folders/dt/0wfd0knj7gs46m8vwfzktm600000gn/T//ccFfYcvk.s:568    .text.chOQResetI:0000000000000000 chOQResetI
/var/folders/dt/0wfd0knj7gs46m8vwfzktm600000gn/T//ccFfYcvk.s:629    .text.chOQPutTimeout:0000000000000000 $t
/var/folders/dt/0wfd0knj7gs46m8vwfzktm600000gn/T//ccFfYcvk.s:635    .text.chOQPutTimeout:0000000000000000 chOQPutTimeout
/var/folders/dt/0wfd0knj7gs46m8vwfzktm600000gn/T//ccFfYcvk.s:742    .text.chOQGetI:0000000000000000 $t
/var/folders/dt/0wfd0knj7gs46m8vwfzktm600000gn/T//ccFfYcvk.s:748    .text.chOQGetI:0000000000000000 chOQGetI
/var/folders/dt/0wfd0knj7gs46m8vwfzktm600000gn/T//ccFfYcvk.s:829    .text.chOQWriteTimeout:0000000000000000 $t
/var/folders/dt/0wfd0knj7gs46m8vwfzktm600000gn/T//ccFfYcvk.s:835    .text.chOQWriteTimeout:0000000000000000 chOQWriteTimeout
                     .debug_frame:0000000000000010 $d
/var/folders/dt/0wfd0knj7gs46m8vwfzktm600000gn/T//ccFfYcvk.s:79     .text.qwait:000000000000002c $t

UNDEFINED SYMBOLS
chSchGoSleepTimeoutS
rlist
chSchReadyI
