ARM GAS  /var/folders/dt/0wfd0knj7gs46m8vwfzktm600000gn/T//ccoubv62.s 			page 1


   1              		.syntax unified
   2              		.cpu cortex-m3
   3              		.fpu softvfp
   4              		.eabi_attribute 20, 1
   5              		.eabi_attribute 21, 1
   6              		.eabi_attribute 23, 3
   7              		.eabi_attribute 24, 1
   8              		.eabi_attribute 25, 1
   9              		.eabi_attribute 26, 1
  10              		.eabi_attribute 30, 2
  11              		.eabi_attribute 34, 1
  12              		.eabi_attribute 18, 4
  13              		.thumb
  14              		.file	"diskio.c"
  15              		.text
  16              	.Ltext0:
  17              		.cfi_sections	.debug_frame
  18              		.section	.text.disk_initialize,"ax",%progbits
  19              		.align	2
  20              		.p2align 4,,15
  21              		.global	disk_initialize
  22              		.thumb
  23              		.thumb_func
  24              		.type	disk_initialize, %function
  25              	disk_initialize:
  26              	.LFB62:
  27              		.file 1 "../../ext/fatfs/src/diskio.c"
  28              		.loc 1 39 0
  29              		.cfi_startproc
  30              		@ args = 0, pretend = 0, frame = 0
  31              		@ frame_needed = 0, uses_anonymous_args = 0
  32              	.LVL0:
  33 0000 10B5     		push	{r4, lr}
  34              	.LCFI0:
  35              		.cfi_def_cfa_offset 8
  36              		.cfi_offset 4, -8
  37              		.cfi_offset 14, -4
  38              		.loc 1 63 0
  39 0002 0224     		movs	r4, #2
  40              		.loc 1 42 0
  41 0004 50B9     		cbnz	r0, .L2
  42              	.LVL1:
  43              		.loc 1 47 0
  44 0006 064B     		ldr	r3, .L10
  45 0008 1C78     		ldrb	r4, [r3, #0]	@ zero_extendqisi2
  46              		.loc 1 49 0
  47 000a 5B69     		ldr	r3, [r3, #20]
  48              		.loc 1 45 0
  49 000c 043C     		subs	r4, r4, #4
  50 000e 18BF     		it	ne
  51 0010 0124     		movne	r4, #1
  52              	.LVL2:
  53              		.loc 1 49 0
  54 0012 9847     		blx	r3
  55              	.LVL3:
  56 0014 10B1     		cbz	r0, .L2
  57              		.loc 1 50 0
ARM GAS  /var/folders/dt/0wfd0knj7gs46m8vwfzktm600000gn/T//ccoubv62.s 			page 2


  58 0016 44F00404 		orr	r4, r4, #4
  59 001a E4B2     		uxtb	r4, r4
  60              	.LVL4:
  61              	.L2:
  62              		.loc 1 64 0
  63 001c 2046     		mov	r0, r4
  64 001e 10BD     		pop	{r4, pc}
  65              	.L11:
  66              		.align	2
  67              	.L10:
  68 0020 00000000 		.word	MMCD1
  69              		.cfi_endproc
  70              	.LFE62:
  71              		.size	disk_initialize, .-disk_initialize
  72 0024 AFF30080 		.section	.text.disk_status,"ax",%progbits
  72      AFF30080 
  72      AFF30080 
  73              		.align	2
  74              		.p2align 4,,15
  75              		.global	disk_status
  76              		.thumb
  77              		.thumb_func
  78              		.type	disk_status, %function
  79              	disk_status:
  80              	.LFB63:
  81              		.loc 1 74 0
  82              		.cfi_startproc
  83              		@ args = 0, pretend = 0, frame = 0
  84              		@ frame_needed = 0, uses_anonymous_args = 0
  85              	.LVL5:
  86 0000 10B5     		push	{r4, lr}
  87              	.LCFI1:
  88              		.cfi_def_cfa_offset 8
  89              		.cfi_offset 4, -8
  90              		.cfi_offset 14, -4
  91              		.loc 1 98 0
  92 0002 0224     		movs	r4, #2
  93              		.loc 1 77 0
  94 0004 50B9     		cbnz	r0, .L13
  95              	.LVL6:
  96              		.loc 1 82 0
  97 0006 064B     		ldr	r3, .L20
  98 0008 1C78     		ldrb	r4, [r3, #0]	@ zero_extendqisi2
  99              		.loc 1 84 0
 100 000a 5B69     		ldr	r3, [r3, #20]
 101              		.loc 1 80 0
 102 000c 043C     		subs	r4, r4, #4
 103 000e 18BF     		it	ne
 104 0010 0124     		movne	r4, #1
 105              	.LVL7:
 106              		.loc 1 84 0
 107 0012 9847     		blx	r3
 108              	.LVL8:
 109 0014 10B1     		cbz	r0, .L13
 110              		.loc 1 85 0
 111 0016 44F00404 		orr	r4, r4, #4
 112 001a E4B2     		uxtb	r4, r4
ARM GAS  /var/folders/dt/0wfd0knj7gs46m8vwfzktm600000gn/T//ccoubv62.s 			page 3


 113              	.LVL9:
 114              	.L13:
 115              		.loc 1 99 0
 116 001c 2046     		mov	r0, r4
 117 001e 10BD     		pop	{r4, pc}
 118              	.L21:
 119              		.align	2
 120              	.L20:
 121 0020 00000000 		.word	MMCD1
 122              		.cfi_endproc
 123              	.LFE63:
 124              		.size	disk_status, .-disk_status
 125 0024 AFF30080 		.section	.text.disk_read,"ax",%progbits
 125      AFF30080 
 125      AFF30080 
 126              		.align	2
 127              		.p2align 4,,15
 128              		.global	disk_read
 129              		.thumb
 130              		.thumb_func
 131              		.type	disk_read, %function
 132              	disk_read:
 133              	.LFB64:
 134              		.loc 1 112 0
 135              		.cfi_startproc
 136              		@ args = 0, pretend = 0, frame = 8
 137              		@ frame_needed = 0, uses_anonymous_args = 0
 138              	.LVL10:
 139 0000 10B5     		push	{r4, lr}
 140              	.LCFI2:
 141              		.cfi_def_cfa_offset 8
 142              		.cfi_offset 4, -8
 143              		.cfi_offset 14, -4
 144 0002 0C46     		mov	r4, r1
 145 0004 82B0     		sub	sp, sp, #8
 146              	.LCFI3:
 147              		.cfi_def_cfa_offset 16
 148              		.loc 1 113 0
 149 0006 28B9     		cbnz	r0, .L34
 150              		.loc 1 116 0
 151 0008 1348     		ldr	r0, .L37
 152              	.LVL11:
 153 000a 0178     		ldrb	r1, [r0, #0]	@ zero_extendqisi2
 154              	.LVL12:
 155 000c 0429     		cmp	r1, #4
 156 000e 04D0     		beq	.L35
 157              		.loc 1 117 0
 158 0010 0320     		movs	r0, #3
 159 0012 00E0     		b	.L23
 160              	.LVL13:
 161              	.L34:
 162              		.loc 1 138 0
 163 0014 0420     		movs	r0, #4
 164              	.LVL14:
 165              	.L23:
 166              		.loc 1 139 0
 167 0016 02B0     		add	sp, sp, #8
ARM GAS  /var/folders/dt/0wfd0knj7gs46m8vwfzktm600000gn/T//ccoubv62.s 			page 4


 168 0018 10BD     		pop	{r4, pc}
 169              	.LVL15:
 170              	.L35:
 171              		.loc 1 118 0
 172 001a 1146     		mov	r1, r2
 173 001c 0193     		str	r3, [sp, #4]
 174 001e FFF7FEFF 		bl	mmcStartSequentialRead
 175              	.LVL16:
 176 0022 019B     		ldr	r3, [sp, #4]
 177 0024 78B9     		cbnz	r0, .L27
 178              	.LVL17:
 179              		.loc 1 120 0 discriminator 1
 180 0026 1BB9     		cbnz	r3, .L32
 181 0028 0FE0     		b	.L29
 182              	.L36:
 183              		.loc 1 120 0 is_stmt 0
 184 002a 13F0FF03 		ands	r3, r3, #255
 185              	.LVL18:
 186 002e 0CD0     		beq	.L29
 187              	.LVL19:
 188              	.L32:
 189              		.loc 1 121 0 is_stmt 1
 190 0030 2146     		mov	r1, r4
 191 0032 0948     		ldr	r0, .L37
 192 0034 0193     		str	r3, [sp, #4]
 193 0036 FFF7FEFF 		bl	mmcSequentialRead
 194              	.LVL20:
 195              		.loc 1 124 0
 196 003a 019B     		ldr	r3, [sp, #4]
 197              		.loc 1 123 0
 198 003c 04F50074 		add	r4, r4, #512
 199              	.LVL21:
 200              		.loc 1 124 0
 201 0040 013B     		subs	r3, r3, #1
 202              	.LVL22:
 203              		.loc 1 121 0
 204 0042 0028     		cmp	r0, #0
 205 0044 F1D0     		beq	.L36
 206              	.LVL23:
 207              	.L27:
 208              		.loc 1 119 0
 209 0046 0120     		movs	r0, #1
 210 0048 E5E7     		b	.L23
 211              	.L29:
 212              		.loc 1 126 0
 213 004a 0348     		ldr	r0, .L37
 214 004c FFF7FEFF 		bl	mmcStopSequentialRead
 215              	.LVL24:
 216              		.loc 1 117 0
 217 0050 0030     		adds	r0, r0, #0
 218 0052 18BF     		it	ne
 219 0054 0120     		movne	r0, #1
 220 0056 DEE7     		b	.L23
 221              	.L38:
 222              		.align	2
 223              	.L37:
 224 0058 00000000 		.word	MMCD1
ARM GAS  /var/folders/dt/0wfd0knj7gs46m8vwfzktm600000gn/T//ccoubv62.s 			page 5


 225              		.cfi_endproc
 226              	.LFE64:
 227              		.size	disk_read, .-disk_read
 228 005c AFF30080 		.section	.text.disk_write,"ax",%progbits
 229              		.align	2
 230              		.p2align 4,,15
 231              		.global	disk_write
 232              		.thumb
 233              		.thumb_func
 234              		.type	disk_write, %function
 235              	disk_write:
 236              	.LFB65:
 237              		.loc 1 153 0
 238              		.cfi_startproc
 239              		@ args = 0, pretend = 0, frame = 8
 240              		@ frame_needed = 0, uses_anonymous_args = 0
 241              	.LVL25:
 242 0000 30B5     		push	{r4, r5, lr}
 243              	.LCFI4:
 244              		.cfi_def_cfa_offset 12
 245              		.cfi_offset 4, -12
 246              		.cfi_offset 5, -8
 247              		.cfi_offset 14, -4
 248 0002 0C46     		mov	r4, r1
 249 0004 83B0     		sub	sp, sp, #12
 250              	.LCFI5:
 251              		.cfi_def_cfa_offset 24
 252              		.loc 1 154 0
 253 0006 30B9     		cbnz	r0, .L52
 254              		.loc 1 157 0
 255 0008 174D     		ldr	r5, .L56
 256              		.loc 1 158 0
 257 000a 0320     		movs	r0, #3
 258              	.LVL26:
 259              		.loc 1 157 0
 260 000c 2978     		ldrb	r1, [r5, #0]	@ zero_extendqisi2
 261              	.LVL27:
 262 000e 0429     		cmp	r1, #4
 263 0010 03D0     		beq	.L53
 264              	.LVL28:
 265              	.L40:
 266              		.loc 1 182 0
 267 0012 03B0     		add	sp, sp, #12
 268 0014 30BD     		pop	{r4, r5, pc}
 269              	.LVL29:
 270              	.L52:
 271              		.loc 1 181 0
 272 0016 0420     		movs	r0, #4
 273              	.LVL30:
 274 0018 FBE7     		b	.L40
 275              	.LVL31:
 276              	.L53:
 277              		.loc 1 159 0
 278 001a 0192     		str	r2, [sp, #4]
 279 001c 6969     		ldr	r1, [r5, #20]
 280 001e 0093     		str	r3, [sp, #0]
 281 0020 8847     		blx	r1
ARM GAS  /var/folders/dt/0wfd0knj7gs46m8vwfzktm600000gn/T//ccoubv62.s 			page 6


 282              	.LVL32:
 283 0022 019A     		ldr	r2, [sp, #4]
 284 0024 08B1     		cbz	r0, .L54
 285              		.loc 1 160 0
 286 0026 0220     		movs	r0, #2
 287 0028 F3E7     		b	.L40
 288              	.L54:
 289              		.loc 1 161 0
 290 002a 2846     		mov	r0, r5
 291 002c 1146     		mov	r1, r2
 292 002e FFF7FEFF 		bl	mmcStartSequentialWrite
 293              	.LVL33:
 294 0032 009B     		ldr	r3, [sp, #0]
 295 0034 78B9     		cbnz	r0, .L44
 296              	.LVL34:
 297              		.loc 1 163 0 discriminator 1
 298 0036 1BB9     		cbnz	r3, .L50
 299 0038 0FE0     		b	.L46
 300              	.L55:
 301              		.loc 1 163 0 is_stmt 0
 302 003a 13F0FF03 		ands	r3, r3, #255
 303              	.LVL35:
 304 003e 0CD0     		beq	.L46
 305              	.LVL36:
 306              	.L50:
 307              		.loc 1 164 0 is_stmt 1
 308 0040 2146     		mov	r1, r4
 309 0042 0948     		ldr	r0, .L56
 310 0044 0093     		str	r3, [sp, #0]
 311 0046 FFF7FEFF 		bl	mmcSequentialWrite
 312              	.LVL37:
 313              		.loc 1 167 0
 314 004a 009B     		ldr	r3, [sp, #0]
 315              		.loc 1 166 0
 316 004c 04F50074 		add	r4, r4, #512
 317              	.LVL38:
 318              		.loc 1 167 0
 319 0050 013B     		subs	r3, r3, #1
 320              	.LVL39:
 321              		.loc 1 164 0
 322 0052 0028     		cmp	r0, #0
 323 0054 F1D0     		beq	.L55
 324              	.LVL40:
 325              	.L44:
 326              		.loc 1 162 0
 327 0056 0120     		movs	r0, #1
 328 0058 DBE7     		b	.L40
 329              	.L46:
 330              		.loc 1 169 0
 331 005a 0348     		ldr	r0, .L56
 332 005c FFF7FEFF 		bl	mmcStopSequentialWrite
 333              	.LVL41:
 334              		.loc 1 158 0
 335 0060 0030     		adds	r0, r0, #0
 336 0062 18BF     		it	ne
 337 0064 0120     		movne	r0, #1
 338 0066 D4E7     		b	.L40
ARM GAS  /var/folders/dt/0wfd0knj7gs46m8vwfzktm600000gn/T//ccoubv62.s 			page 7


 339              	.L57:
 340              		.align	2
 341              	.L56:
 342 0068 00000000 		.word	MMCD1
 343              		.cfi_endproc
 344              	.LFE65:
 345              		.size	disk_write, .-disk_write
 346 006c AFF30080 		.section	.text.disk_ioctl,"ax",%progbits
 347              		.align	2
 348              		.p2align 4,,15
 349              		.global	disk_ioctl
 350              		.thumb
 351              		.thumb_func
 352              		.type	disk_ioctl, %function
 353              	disk_ioctl:
 354              	.LFB66:
 355              		.loc 1 195 0
 356              		.cfi_startproc
 357              		@ args = 0, pretend = 0, frame = 0
 358              		@ frame_needed = 0, uses_anonymous_args = 0
 359              		@ link register save eliminated.
 360              	.LVL42:
 361              		.loc 1 196 0
 362 0000 20B9     		cbnz	r0, .L66
 363              		.loc 1 199 0
 364 0002 09B9     		cbnz	r1, .L67
 365              		.loc 1 201 0
 366 0004 0846     		mov	r0, r1
 367              	.LVL43:
 368 0006 7047     		bx	lr
 369              	.LVL44:
 370              	.L67:
 371              		.loc 1 199 0
 372 0008 0229     		cmp	r1, #2
 373 000a 01D0     		beq	.L68
 374              	.L66:
 375              		.loc 1 206 0
 376 000c 0420     		movs	r0, #4
 377              	.LVL45:
 378              		.loc 1 222 0
 379 000e 7047     		bx	lr
 380              	.LVL46:
 381              	.L68:
 382              		.loc 1 203 0
 383 0010 4FF40073 		mov	r3, #512
 384 0014 1380     		strh	r3, [r2, #0]	@ movhi
 385              		.loc 1 204 0
 386 0016 7047     		bx	lr
 387              		.cfi_endproc
 388              	.LFE66:
 389              		.size	disk_ioctl, .-disk_ioctl
 390 0018 AFF30080 		.section	.text.get_fattime,"ax",%progbits
 390      AFF30080 
 391              		.align	2
 392              		.p2align 4,,15
 393              		.global	get_fattime
 394              		.thumb
ARM GAS  /var/folders/dt/0wfd0knj7gs46m8vwfzktm600000gn/T//ccoubv62.s 			page 8


 395              		.thumb_func
 396              		.type	get_fattime, %function
 397              	get_fattime:
 398              	.LFB67:
 399              		.loc 1 224 0
 400              		.cfi_startproc
 401              		@ args = 0, pretend = 0, frame = 0
 402              		@ frame_needed = 0, uses_anonymous_args = 0
 403              		@ link register save eliminated.
 404              		.loc 1 227 0
 405 0000 0020     		movs	r0, #0
 406 0002 7047     		bx	lr
 407              		.cfi_endproc
 408              	.LFE67:
 409              		.size	get_fattime, .-get_fattime
 410 0004 AFF30080 		.text
 410      AFF30080 
 410      AFF30080 
 411              	.Letext0:
 412              		.file 2 "/Users/toxygen/Applications/yagarto-4.7.2/bin/../lib/gcc/arm-none-eabi/4.7.2/../../../../
 413              		.file 3 "../../os/ports/GCC/ARMCMx/chtypes.h"
 414              		.file 4 "../../os/kernel/include/chlists.h"
 415              		.file 5 "../../os/kernel/include/chthreads.h"
 416              		.file 6 "../../os/ports/GCC/ARMCMx/chcore_v7m.h"
 417              		.file 7 "../../os/kernel/include/chvt.h"
 418              		.file 8 "../../os/kernel/include/chmtx.h"
 419              		.file 9 "../../os/kernel/include/chevents.h"
 420              		.file 10 "../../os/hal/platforms/STM32F1xx/stm32f10x.h"
 421              		.file 11 "../../os/hal/platforms/STM32F1xx/stm32_dma.h"
 422              		.file 12 "../../os/hal/platforms/STM32/GPIOv1/pal_lld.h"
 423              		.file 13 "../../os/hal/include/spi.h"
 424              		.file 14 "../../os/hal/platforms/STM32/spi_lld.h"
 425              		.file 15 "../../os/hal/include/mmc_spi.h"
 426              		.file 16 "../../ext/fatfs/src/integer.h"
 427              		.file 17 "../../ext/fatfs/src/diskio.h"
 428              		.file 18 "../../os/ports/common/ARMCMx/CMSIS/include/core_cm3.h"