ARM GAS  /var/folders/dt/0wfd0knj7gs46m8vwfzktm600000gn/T//ccoubv62.s 			page 1


   1              		.syntax unified
   2              		.cpu cortex-m3
   3              		.fpu softvfp
   4              		.eabi_attribute 20, 1
   5              		.eabi_attribute 21, 1
   6              		.eabi_attribute 23, 3
   7              		.eabi_attribute 24, 1
   8              		.eabi_attribute 25, 1
   9              		.eabi_attribute 26, 1
  10              		.eabi_attribute 30, 2
  11              		.eabi_attribute 34, 1
  12              		.eabi_attribute 18, 4
  13              		.thumb
  14              		.file	"diskio.c"
  15              		.text
  16              	.Ltext0:
  17              		.cfi_sections	.debug_frame
  18              		.section	.text.disk_initialize,"ax",%progbits
  19              		.align	2
  20              		.p2align 4,,15
  21              		.global	disk_initialize
  22              		.thumb
  23              		.thumb_func
  24              		.type	disk_initialize, %function
  25              	disk_initialize:
  26              	.LFB62:
  27              		.file 1 "../../ext/fatfs/src/diskio.c"
  28              		.loc 1 39 0
  29              		.cfi_startproc
  30              		@ args = 0, pretend = 0, frame = 0
  31              		@ frame_needed = 0, uses_anonymous_args = 0
  32              	.LVL0:
  33 0000 10B5     		push	{r4, lr}
  34              	.LCFI0:
  35              		.cfi_def_cfa_offset 8
  36              		.cfi_offset 4, -8
  37              		.cfi_offset 14, -4
  38              		.loc 1 63 0
  39 0002 0224     		movs	r4, #2
  40              		.loc 1 42 0
  41 0004 50B9     		cbnz	r0, .L2
  42              	.LVL1:
  43              		.loc 1 47 0
  44 0006 064B     		ldr	r3, .L10
  45 0008 1C78     		ldrb	r4, [r3, #0]	@ zero_extendqisi2
  46              		.loc 1 49 0
  47 000a 5B69     		ldr	r3, [r3, #20]
  48              		.loc 1 45 0
  49 000c 043C     		subs	r4, r4, #4
  50 000e 18BF     		it	ne
  51 0010 0124     		movne	r4, #1
  52              	.LVL2:
  53              		.loc 1 49 0
  54 0012 9847     		blx	r3
  55              	.LVL3:
  56 0014 10B1     		cbz	r0, .L2
  57              		.loc 1 50 0
ARM GAS  /var/folders/dt/0wfd0knj7gs46m8vwfzktm600000gn/T//ccoubv62.s 			page 2


  58 0016 44F00404 		orr	r4, r4, #4
  59 001a E4B2     		uxtb	r4, r4
  60              	.LVL4:
  61              	.L2:
  62              		.loc 1 64 0
  63 001c 2046     		mov	r0, r4
  64 001e 10BD     		pop	{r4, pc}
  65              	.L11:
  66              		.align	2
  67              	.L10:
  68 0020 00000000 		.word	MMCD1
  69              		.cfi_endproc
  70              	.LFE62:
  71              		.size	disk_initialize, .-disk_initialize
  72 0024 AFF30080 		.section	.text.disk_status,"ax",%progbits
  72      AFF30080 
  72      AFF30080 
  73              		.align	2
  74              		.p2align 4,,15
  75              		.global	disk_status
  76              		.thumb
  77              		.thumb_func
  78              		.type	disk_status, %function
  79              	disk_status:
  80              	.LFB63:
  81              		.loc 1 74 0
  82              		.cfi_startproc
  83              		@ args = 0, pretend = 0, frame = 0
  84              		@ frame_needed = 0, uses_anonymous_args = 0
  85              	.LVL5:
  86 0000 10B5     		push	{r4, lr}
  87              	.LCFI1:
  88              		.cfi_def_cfa_offset 8
  89              		.cfi_offset 4, -8
  90              		.cfi_offset 14, -4
  91              		.loc 1 98 0
  92 0002 0224     		movs	r4, #2
  93              		.loc 1 77 0
  94 0004 50B9     		cbnz	r0, .L13
  95              	.LVL6:
  96              		.loc 1 82 0
  97 0006 064B     		ldr	r3, .L20
  98 0008 1C78     		ldrb	r4, [r3, #0]	@ zero_extendqisi2
  99              		.loc 1 84 0
 100 000a 5B69     		ldr	r3, [r3, #20]
 101              		.loc 1 80 0
 102 000c 043C     		subs	r4, r4, #4
 103 000e 18BF     		it	ne
 104 0010 0124     		movne	r4, #1
 105              	.LVL7:
 106              		.loc 1 84 0
 107 0012 9847     		blx	r3
 108              	.LVL8:
 109 0014 10B1     		cbz	r0, .L13
 110              		.loc 1 85 0
 111 0016 44F00404 		orr	r4, r4, #4
 112 001a E4B2     		uxtb	r4, r4
ARM GAS  /var/folders/dt/0wfd0knj7gs46m8vwfzktm600000gn/T//ccoubv62.s 			page 3


 113              	.LVL9:
 114              	.L13:
 115              		.loc 1 99 0
 116 001c 2046     		mov	r0, r4
 117 001e 10BD     		pop	{r4, pc}
 118              	.L21:
 119              		.align	2
 120              	.L20:
 121 0020 00000000 		.word	MMCD1
 122              		.cfi_endproc
 123              	.LFE63:
 124              		.size	disk_status, .-disk_status
 125 0024 AFF30080 		.section	.text.disk_read,"ax",%progbits
 125      AFF30080 
 125      AFF30080 
 126              		.align	2
 127              		.p2align 4,,15
 128              		.global	disk_read
 129              		.thumb
 130              		.thumb_func
 131              		.type	disk_read, %function
 132              	disk_read:
 133              	.LFB64:
 134              		.loc 1 112 0
 135              		.cfi_startproc
 136              		@ args = 0, pretend = 0, frame = 8
 137              		@ frame_needed = 0, uses_anonymous_args = 0
 138              	.LVL10:
 139 0000 10B5     		push	{r4, lr}
 140              	.LCFI2:
 141              		.cfi_def_cfa_offset 8
 142              		.cfi_offset 4, -8
 143              		.cfi_offset 14, -4
 144 0002 0C46     		mov	r4, r1
 145 0004 82B0     		sub	sp, sp, #8
 146              	.LCFI3:
 147              		.cfi_def_cfa_offset 16
 148              		.loc 1 113 0
 149 0006 28B9     		cbnz	r0, .L34
 150              		.loc 1 116 0
 151 0008 1348     		ldr	r0, .L37
 152              	.LVL11:
 153 000a 0178     		ldrb	r1, [r0, #0]	@ zero_extendqisi2
 154              	.LVL12:
 155 000c 0429     		cmp	r1, #4
 156 000e 04D0     		beq	.L35
 157              		.loc 1 117 0
 158 0010 0320     		movs	r0, #3
 159 0012 00E0     		b	.L23
 160              	.LVL13:
 161              	.L34:
 162              		.loc 1 138 0
 163 0014 0420     		movs	r0, #4
 164              	.LVL14:
 165              	.L23:
 166              		.loc 1 139 0
 167 0016 02B0     		add	sp, sp, #8
ARM GAS  /var/folders/dt/0wfd0knj7gs46m8vwfzktm600000gn/T//ccoubv62.s 			page 4


 168 0018 10BD     		pop	{r4, pc}
 169              	.LVL15:
 170              	.L35:
 171              		.loc 1 118 0
 172 001a 1146     		mov	r1, r2
 173 001c 0193     		str	r3, [sp, #4]
 174 001e FFF7FEFF 		bl	mmcStartSequentialRead
 175              	.LVL16:
 176 0022 019B     		ldr	r3, [sp, #4]
 177 0024 78B9     		cbnz	r0, .L27
 178              	.LVL17:
 179              		.loc 1 120 0 discriminator 1
 180 0026 1BB9     		cbnz	r3, .L32
 181 0028 0FE0     		b	.L29
 182              	.L36:
 183              		.loc 1 120 0 is_stmt 0
 184 002a 13F0FF03 		ands	r3, r3, #255
 185              	.LVL18:
 186 002e 0CD0     		beq	.L29
 187              	.LVL19:
 188              	.L32:
 189              		.loc 1 121 0 is_stmt 1
 190 0030 2146     		mov	r1, r4
 191 0032 0948     		ldr	r0, .L37
 192 0034 0193     		str	r3, [sp, #4]
 193 0036 FFF7FEFF 		bl	mmcSequentialRead
 194              	.LVL20:
 195              		.loc 1 124 0
 196 003a 019B     		ldr	r3, [sp, #4]
 197              		.loc 1 123 0
 198 003c 04F50074 		add	r4, r4, #512
 199              	.LVL21:
 200              		.loc 1 124 0
 201 0040 013B     		subs	r3, r3, #1
 202              	.LVL22:
 203              		.loc 1 121 0
 204 0042 0028     		cmp	r0, #0
 205 0044 F1D0     		beq	.L36
 206              	.LVL23:
 207              	.L27:
 208              		.loc 1 119 0
 209 0046 0120     		movs	r0, #1
 210 0048 E5E7     		b	.L23
 211              	.L29:
 212              		.loc 1 126 0
 213 004a 0348     		ldr	r0, .L37
 214 004c FFF7FEFF 		bl	mmcStopSequentialRead
 215              	.LVL24:
 216              		.loc 1 117 0
 217 0050 0030     		adds	r0, r0, #0
 218 0052 18BF     		it	ne
 219 0054 0120     		movne	r0, #1
 220 0056 DEE7     		b	.L23
 221              	.L38:
 222              		.align	2
 223              	.L37:
 224 0058 00000000 		.word	MMCD1
ARM GAS  /var/folders/dt/0wfd0knj7gs46m8vwfzktm600000gn/T//ccoubv62.s 			page 5


 225              		.cfi_endproc
 226              	.LFE64:
 227              		.size	disk_read, .-disk_read
 228 005c AFF30080 		.section	.text.disk_write,"ax",%progbits
 229              		.align	2
 230              		.p2align 4,,15
 231              		.global	disk_write
 232              		.thumb
 233              		.thumb_func
 234              		.type	disk_write, %function
 235              	disk_write:
 236              	.LFB65:
 237              		.loc 1 153 0
 238              		.cfi_startproc
 239              		@ args = 0, pretend = 0, frame = 8
 240              		@ frame_needed = 0, uses_anonymous_args = 0
 241              	.LVL25:
 242 0000 30B5     		push	{r4, r5, lr}
 243              	.LCFI4:
 244              		.cfi_def_cfa_offset 12
 245              		.cfi_offset 4, -12
 246              		.cfi_offset 5, -8
 247              		.cfi_offset 14, -4
 248 0002 0C46     		mov	r4, r1
 249 0004 83B0     		sub	sp, sp, #12
 250              	.LCFI5:
 251              		.cfi_def_cfa_offset 24
 252              		.loc 1 154 0
 253 0006 30B9     		cbnz	r0, .L52
 254              		.loc 1 157 0
 255 0008 174D     		ldr	r5, .L56
 256              		.loc 1 158 0
 257 000a 0320     		movs	r0, #3
 258              	.LVL26:
 259              		.loc 1 157 0
 260 000c 2978     		ldrb	r1, [r5, #0]	@ zero_extendqisi2
 261              	.LVL27:
 262 000e 0429     		cmp	r1, #4
 263 0010 03D0     		beq	.L53
 264              	.LVL28:
 265              	.L40:
 266              		.loc 1 182 0
 267 0012 03B0     		add	sp, sp, #12
 268 0014 30BD     		pop	{r4, r5, pc}
 269              	.LVL29:
 270              	.L52:
 271              		.loc 1 181 0
 272 0016 0420     		movs	r0, #4
 273              	.LVL30:
 274 0018 FBE7     		b	.L40
 275              	.LVL31:
 276              	.L53:
 277              		.loc 1 159 0
 278 001a 0192     		str	r2, [sp, #4]
 279 001c 6969     		ldr	r1, [r5, #20]
 280 001e 0093     		str	r3, [sp, #0]
 281 0020 8847     		blx	r1
ARM GAS  /var/folders/dt/0wfd0knj7gs46m8vwfzktm600000gn/T//ccoubv62.s 			page 6


 282              	.LVL32:
 283 0022 019A     		ldr	r2, [sp, #4]
 284 0024 08B1     		cbz	r0, .L54
 285              		.loc 1 160 0
 286 0026 0220     		movs	r0, #2
 287 0028 F3E7     		b	.L40
 288              	.L54:
 289              		.loc 1 161 0
 290 002a 2846     		mov	r0, r5
 291 002c 1146     		mov	r1, r2
 292 002e FFF7FEFF 		bl	mmcStartSequentialWrite
 293              	.LVL33:
 294 0032 009B     		ldr	r3, [sp, #0]
 295 0034 78B9     		cbnz	r0, .L44
 296              	.LVL34:
 297              		.loc 1 163 0 discriminator 1
 298 0036 1BB9     		cbnz	r3, .L50
 299 0038 0FE0     		b	.L46
 300              	.L55:
 301              		.loc 1 163 0 is_stmt 0
 302 003a 13F0FF03 		ands	r3, r3, #255
 303              	.LVL35:
 304 003e 0CD0     		beq	.L46
 305              	.LVL36:
 306              	.L50:
 307              		.loc 1 164 0 is_stmt 1
 308 0040 2146     		mov	r1, r4
 309 0042 0948     		ldr	r0, .L56
 310 0044 0093     		str	r3, [sp, #0]
 311 0046 FFF7FEFF 		bl	mmcSequentialWrite
 312              	.LVL37:
 313              		.loc 1 167 0
 314 004a 009B     		ldr	r3, [sp, #0]
 315              		.loc 1 166 0
 316 004c 04F50074 		add	r4, r4, #512
 317              	.LVL38:
 318              		.loc 1 167 0
 319 0050 013B     		subs	r3, r3, #1
 320              	.LVL39:
 321              		.loc 1 164 0
 322 0052 0028     		cmp	r0, #0
 323 0054 F1D0     		beq	.L55
 324              	.LVL40:
 325              	.L44:
 326              		.loc 1 162 0
 327 0056 0120     		movs	r0, #1
 328 0058 DBE7     		b	.L40
 329              	.L46:
 330              		.loc 1 169 0
 331 005a 0348     		ldr	r0, .L56
 332 005c FFF7FEFF 		bl	mmcStopSequentialWrite
 333              	.LVL41:
 334              		.loc 1 158 0
 335 0060 0030     		adds	r0, r0, #0
 336 0062 18BF     		it	ne
 337 0064 0120     		movne	r0, #1
 338 0066 D4E7     		b	.L40
ARM GAS  /var/folders/dt/0wfd0knj7gs46m8vwfzktm600000gn/T//ccoubv62.s 			page 7


 339              	.L57:
 340              		.align	2
 341              	.L56:
 342 0068 00000000 		.word	MMCD1
 343              		.cfi_endproc
 344              	.LFE65:
 345              		.size	disk_write, .-disk_write
 346 006c AFF30080 		.section	.text.disk_ioctl,"ax",%progbits
 347              		.align	2
 348              		.p2align 4,,15
 349              		.global	disk_ioctl
 350              		.thumb
 351              		.thumb_func
 352              		.type	disk_ioctl, %function
 353              	disk_ioctl:
 354              	.LFB66:
 355              		.loc 1 195 0
 356              		.cfi_startproc
 357              		@ args = 0, pretend = 0, frame = 0
 358              		@ frame_needed = 0, uses_anonymous_args = 0
 359              		@ link register save eliminated.
 360              	.LVL42:
 361              		.loc 1 196 0
 362 0000 20B9     		cbnz	r0, .L66
 363              		.loc 1 199 0
 364 0002 09B9     		cbnz	r1, .L67
 365              		.loc 1 201 0
 366 0004 0846     		mov	r0, r1
 367              	.LVL43:
 368 0006 7047     		bx	lr
 369              	.LVL44:
 370              	.L67:
 371              		.loc 1 199 0
 372 0008 0229     		cmp	r1, #2
 373 000a 01D0     		beq	.L68
 374              	.L66:
 375              		.loc 1 206 0
 376 000c 0420     		movs	r0, #4
 377              	.LVL45:
 378              		.loc 1 222 0
 379 000e 7047     		bx	lr
 380              	.LVL46:
 381              	.L68:
 382              		.loc 1 203 0
 383 0010 4FF40073 		mov	r3, #512
 384 0014 1380     		strh	r3, [r2, #0]	@ movhi
 385              		.loc 1 204 0
 386 0016 7047     		bx	lr
 387              		.cfi_endproc
 388              	.LFE66:
 389              		.size	disk_ioctl, .-disk_ioctl
 390 0018 AFF30080 		.section	.text.get_fattime,"ax",%progbits
 390      AFF30080 
 391              		.align	2
 392              		.p2align 4,,15
 393              		.global	get_fattime
 394              		.thumb
ARM GAS  /var/folders/dt/0wfd0knj7gs46m8vwfzktm600000gn/T//ccoubv62.s 			page 8


 395              		.thumb_func
 396              		.type	get_fattime, %function
 397              	get_fattime:
 398              	.LFB67:
 399              		.loc 1 224 0
 400              		.cfi_startproc
 401              		@ args = 0, pretend = 0, frame = 0
 402              		@ frame_needed = 0, uses_anonymous_args = 0
 403              		@ link register save eliminated.
 404              		.loc 1 227 0
 405 0000 0020     		movs	r0, #0
 406 0002 7047     		bx	lr
 407              		.cfi_endproc
 408              	.LFE67:
 409              		.size	get_fattime, .-get_fattime
 410 0004 AFF30080 		.text
 410      AFF30080 
 410      AFF30080 
 411              	.Letext0:
 412              		.file 2 "/Users/toxygen/Applications/yagarto-4.7.2/bin/../lib/gcc/arm-none-eabi/4.7.2/../../../../
 413              		.file 3 "../../os/ports/GCC/ARMCMx/chtypes.h"
 414              		.file 4 "../../os/kernel/include/chlists.h"
 415              		.file 5 "../../os/kernel/include/chthreads.h"
 416              		.file 6 "../../os/ports/GCC/ARMCMx/chcore_v7m.h"
 417              		.file 7 "../../os/kernel/include/chvt.h"
 418              		.file 8 "../../os/kernel/include/chmtx.h"
 419              		.file 9 "../../os/kernel/include/chevents.h"
 420              		.file 10 "../../os/hal/platforms/STM32F1xx/stm32f10x.h"
 421              		.file 11 "../../os/hal/platforms/STM32F1xx/stm32_dma.h"
 422              		.file 12 "../../os/hal/platforms/STM32/GPIOv1/pal_lld.h"
 423              		.file 13 "../../os/hal/include/spi.h"
 424              		.file 14 "../../os/hal/platforms/STM32/spi_lld.h"
 425              		.file 15 "../../os/hal/include/mmc_spi.h"
 426              		.file 16 "../../ext/fatfs/src/integer.h"
 427              		.file 17 "../../ext/fatfs/src/diskio.h"
 428              		.file 18 "../../os/ports/common/ARMCMx/CMSIS/include/core_cm3.h"
 429              		.section	.debug_info,"",%progbits
 430              	.Ldebug_info0:
 431 0000 1E0D0000 		.4byte	0xd1e
 432 0004 0200     		.2byte	0x2
 433 0006 00000000 		.4byte	.Ldebug_abbrev0
 434 000a 04       		.byte	0x4
 435 000b 01       		.uleb128 0x1
 436 000c C6030000 		.4byte	.LASF165
 437 0010 01       		.byte	0x1
 438 0011 DD020000 		.4byte	.LASF166
 439 0015 26000000 		.4byte	.LASF167
 440 0019 00000000 		.4byte	.Ldebug_ranges0+0
 441 001d 00000000 		.4byte	0
 442 0021 00000000 		.4byte	0
 443 0025 00000000 		.4byte	.Ldebug_line0
 444 0029 02       		.uleb128 0x2
 445 002a 04       		.byte	0x4
 446 002b 05       		.byte	0x5
 447 002c 696E7400 		.ascii	"int\000"
 448 0030 03       		.uleb128 0x3
 449 0031 04       		.byte	0x4
ARM GAS  /var/folders/dt/0wfd0knj7gs46m8vwfzktm600000gn/T//ccoubv62.s 			page 9


 450 0032 07       		.byte	0x7
 451 0033 35020000 		.4byte	.LASF0
 452 0037 03       		.uleb128 0x3
 453 0038 01       		.byte	0x1
 454 0039 06       		.byte	0x6
 455 003a 48010000 		.4byte	.LASF1
 456 003e 04       		.uleb128 0x4
 457 003f 35060000 		.4byte	.LASF4
 458 0043 02       		.byte	0x2
 459 0044 2A       		.byte	0x2a
 460 0045 49000000 		.4byte	0x49
 461 0049 03       		.uleb128 0x3
 462 004a 01       		.byte	0x1
 463 004b 08       		.byte	0x8
 464 004c 83040000 		.4byte	.LASF2
 465 0050 03       		.uleb128 0x3
 466 0051 02       		.byte	0x2
 467 0052 05       		.byte	0x5
 468 0053 B8040000 		.4byte	.LASF3
 469 0057 04       		.uleb128 0x4
 470 0058 CD010000 		.4byte	.LASF5
 471 005c 02       		.byte	0x2
 472 005d 36       		.byte	0x36
 473 005e 62000000 		.4byte	0x62
 474 0062 03       		.uleb128 0x3
 475 0063 02       		.byte	0x2
 476 0064 07       		.byte	0x7
 477 0065 93020000 		.4byte	.LASF6
 478 0069 04       		.uleb128 0x4
 479 006a 7B040000 		.4byte	.LASF7
 480 006e 02       		.byte	0x2
 481 006f 4F       		.byte	0x4f
 482 0070 74000000 		.4byte	0x74
 483 0074 03       		.uleb128 0x3
 484 0075 04       		.byte	0x4
 485 0076 05       		.byte	0x5
 486 0077 A2010000 		.4byte	.LASF8
 487 007b 04       		.uleb128 0x4
 488 007c 2A050000 		.4byte	.LASF9
 489 0080 02       		.byte	0x2
 490 0081 50       		.byte	0x50
 491 0082 86000000 		.4byte	0x86
 492 0086 03       		.uleb128 0x3
 493 0087 04       		.byte	0x4
 494 0088 07       		.byte	0x7
 495 0089 43050000 		.4byte	.LASF10
 496 008d 03       		.uleb128 0x3
 497 008e 08       		.byte	0x8
 498 008f 05       		.byte	0x5
 499 0090 3A010000 		.4byte	.LASF11
 500 0094 03       		.uleb128 0x3
 501 0095 08       		.byte	0x8
 502 0096 07       		.byte	0x7
 503 0097 A8000000 		.4byte	.LASF12
 504 009b 04       		.uleb128 0x4
 505 009c B9030000 		.4byte	.LASF13
 506 00a0 02       		.byte	0x2
ARM GAS  /var/folders/dt/0wfd0knj7gs46m8vwfzktm600000gn/T//ccoubv62.s 			page 10


 507 00a1 A0       		.byte	0xa0
 508 00a2 30000000 		.4byte	0x30
 509 00a6 04       		.uleb128 0x4
 510 00a7 76010000 		.4byte	.LASF14
 511 00ab 03       		.byte	0x3
 512 00ac 2E       		.byte	0x2e
 513 00ad 69000000 		.4byte	0x69
 514 00b1 04       		.uleb128 0x4
 515 00b2 CA020000 		.4byte	.LASF15
 516 00b6 03       		.byte	0x3
 517 00b7 2F       		.byte	0x2f
 518 00b8 3E000000 		.4byte	0x3e
 519 00bc 04       		.uleb128 0x4
 520 00bd AB010000 		.4byte	.LASF16
 521 00c1 03       		.byte	0x3
 522 00c2 30       		.byte	0x30
 523 00c3 3E000000 		.4byte	0x3e
 524 00c7 04       		.uleb128 0x4
 525 00c8 33050000 		.4byte	.LASF17
 526 00cc 03       		.byte	0x3
 527 00cd 31       		.byte	0x31
 528 00ce 3E000000 		.4byte	0x3e
 529 00d2 04       		.uleb128 0x4
 530 00d3 6D040000 		.4byte	.LASF18
 531 00d7 03       		.byte	0x3
 532 00d8 32       		.byte	0x32
 533 00d9 7B000000 		.4byte	0x7b
 534 00dd 04       		.uleb128 0x4
 535 00de BC020000 		.4byte	.LASF19
 536 00e2 03       		.byte	0x3
 537 00e3 33       		.byte	0x33
 538 00e4 69000000 		.4byte	0x69
 539 00e8 04       		.uleb128 0x4
 540 00e9 10030000 		.4byte	.LASF20
 541 00ed 03       		.byte	0x3
 542 00ee 35       		.byte	0x35
 543 00ef 7B000000 		.4byte	0x7b
 544 00f3 04       		.uleb128 0x4
 545 00f4 94050000 		.4byte	.LASF21
 546 00f8 03       		.byte	0x3
 547 00f9 36       		.byte	0x36
 548 00fa 7B000000 		.4byte	0x7b
 549 00fe 04       		.uleb128 0x4
 550 00ff 34030000 		.4byte	.LASF22
 551 0103 04       		.byte	0x4
 552 0104 2A       		.byte	0x2a
 553 0105 09010000 		.4byte	0x109
 554 0109 05       		.uleb128 0x5
 555 010a 34030000 		.4byte	.LASF22
 556 010e 48       		.byte	0x48
 557 010f 05       		.byte	0x5
 558 0110 5E       		.byte	0x5e
 559 0111 20020000 		.4byte	0x220
 560 0115 06       		.uleb128 0x6
 561 0116 D6040000 		.4byte	.LASF23
 562 011a 05       		.byte	0x5
 563 011b 5F       		.byte	0x5f
ARM GAS  /var/folders/dt/0wfd0knj7gs46m8vwfzktm600000gn/T//ccoubv62.s 			page 11


 564 011c 45020000 		.4byte	0x245
 565 0120 02       		.byte	0x2
 566 0121 23       		.byte	0x23
 567 0122 00       		.uleb128 0
 568 0123 06       		.uleb128 0x6
 569 0124 48040000 		.4byte	.LASF24
 570 0128 05       		.byte	0x5
 571 0129 61       		.byte	0x61
 572 012a 45020000 		.4byte	0x245
 573 012e 02       		.byte	0x2
 574 012f 23       		.byte	0x23
 575 0130 04       		.uleb128 0x4
 576 0131 06       		.uleb128 0x6
 577 0132 22010000 		.4byte	.LASF25
 578 0136 05       		.byte	0x5
 579 0137 63       		.byte	0x63
 580 0138 D2000000 		.4byte	0xd2
 581 013c 02       		.byte	0x2
 582 013d 23       		.byte	0x23
 583 013e 08       		.uleb128 0x8
 584 013f 06       		.uleb128 0x6
 585 0140 C7060000 		.4byte	.LASF26
 586 0144 05       		.byte	0x5
 587 0145 64       		.byte	0x64
 588 0146 12030000 		.4byte	0x312
 589 014a 02       		.byte	0x2
 590 014b 23       		.byte	0x23
 591 014c 0C       		.uleb128 0xc
 592 014d 06       		.uleb128 0x6
 593 014e E3010000 		.4byte	.LASF27
 594 0152 05       		.byte	0x5
 595 0153 66       		.byte	0x66
 596 0154 45020000 		.4byte	0x245
 597 0158 02       		.byte	0x2
 598 0159 23       		.byte	0x23
 599 015a 10       		.uleb128 0x10
 600 015b 06       		.uleb128 0x6
 601 015c 83030000 		.4byte	.LASF28
 602 0160 05       		.byte	0x5
 603 0161 67       		.byte	0x67
 604 0162 45020000 		.4byte	0x245
 605 0166 02       		.byte	0x2
 606 0167 23       		.byte	0x23
 607 0168 14       		.uleb128 0x14
 608 0169 06       		.uleb128 0x6
 609 016a 15060000 		.4byte	.LASF29
 610 016e 05       		.byte	0x5
 611 016f 6E       		.byte	0x6e
 612 0170 B2040000 		.4byte	0x4b2
 613 0174 02       		.byte	0x2
 614 0175 23       		.byte	0x23
 615 0176 18       		.uleb128 0x18
 616 0177 06       		.uleb128 0x6
 617 0178 B0040000 		.4byte	.LASF30
 618 017c 05       		.byte	0x5
 619 017d 79       		.byte	0x79
 620 017e BC000000 		.4byte	0xbc
ARM GAS  /var/folders/dt/0wfd0knj7gs46m8vwfzktm600000gn/T//ccoubv62.s 			page 12


 621 0182 02       		.byte	0x2
 622 0183 23       		.byte	0x23
 623 0184 1C       		.uleb128 0x1c
 624 0185 06       		.uleb128 0x6
 625 0186 DD040000 		.4byte	.LASF31
 626 018a 05       		.byte	0x5
 627 018b 7D       		.byte	0x7d
 628 018c B1000000 		.4byte	0xb1
 629 0190 02       		.byte	0x2
 630 0191 23       		.byte	0x23
 631 0192 1D       		.uleb128 0x1d
 632 0193 06       		.uleb128 0x6
 633 0194 C6010000 		.4byte	.LASF32
 634 0198 05       		.byte	0x5
 635 0199 82       		.byte	0x82
 636 019a C7000000 		.4byte	0xc7
 637 019e 02       		.byte	0x2
 638 019f 23       		.byte	0x23
 639 01a0 1E       		.uleb128 0x1e
 640 01a1 06       		.uleb128 0x6
 641 01a2 D6010000 		.4byte	.LASF33
 642 01a6 05       		.byte	0x5
 643 01a7 89       		.byte	0x89
 644 01a8 C2030000 		.4byte	0x3c2
 645 01ac 02       		.byte	0x2
 646 01ad 23       		.byte	0x23
 647 01ae 20       		.uleb128 0x20
 648 01af 07       		.uleb128 0x7
 649 01b0 705F7500 		.ascii	"p_u\000"
 650 01b4 05       		.byte	0x5
 651 01b5 AE       		.byte	0xae
 652 01b6 7D040000 		.4byte	0x47d
 653 01ba 02       		.byte	0x2
 654 01bb 23       		.byte	0x23
 655 01bc 24       		.uleb128 0x24
 656 01bd 06       		.uleb128 0x6
 657 01be 45030000 		.4byte	.LASF34
 658 01c2 05       		.byte	0x5
 659 01c3 B3       		.byte	0xb3
 660 01c4 6D020000 		.4byte	0x26d
 661 01c8 02       		.byte	0x2
 662 01c9 23       		.byte	0x23
 663 01ca 28       		.uleb128 0x28
 664 01cb 06       		.uleb128 0x6
 665 01cc 56020000 		.4byte	.LASF35
 666 01d0 05       		.byte	0x5
 667 01d1 B9       		.byte	0xb9
 668 01d2 4B020000 		.4byte	0x24b
 669 01d6 02       		.byte	0x2
 670 01d7 23       		.byte	0x23
 671 01d8 2C       		.uleb128 0x2c
 672 01d9 06       		.uleb128 0x6
 673 01da 83060000 		.4byte	.LASF36
 674 01de 05       		.byte	0x5
 675 01df BD       		.byte	0xbd
 676 01e0 DD000000 		.4byte	0xdd
 677 01e4 02       		.byte	0x2
ARM GAS  /var/folders/dt/0wfd0knj7gs46m8vwfzktm600000gn/T//ccoubv62.s 			page 13


 678 01e5 23       		.byte	0x23
 679 01e6 34       		.uleb128 0x34
 680 01e7 06       		.uleb128 0x6
 681 01e8 00050000 		.4byte	.LASF37
 682 01ec 05       		.byte	0x5
 683 01ed C3       		.byte	0xc3
 684 01ee E8000000 		.4byte	0xe8
 685 01f2 02       		.byte	0x2
 686 01f3 23       		.byte	0x23
 687 01f4 38       		.uleb128 0x38
 688 01f5 06       		.uleb128 0x6
 689 01f6 06030000 		.4byte	.LASF38
 690 01fa 05       		.byte	0x5
 691 01fb CA       		.byte	0xca
 692 01fc C4040000 		.4byte	0x4c4
 693 0200 02       		.byte	0x2
 694 0201 23       		.byte	0x23
 695 0202 3C       		.uleb128 0x3c
 696 0203 06       		.uleb128 0x6
 697 0204 9E050000 		.4byte	.LASF39
 698 0208 05       		.byte	0x5
 699 0209 CE       		.byte	0xce
 700 020a D2000000 		.4byte	0xd2
 701 020e 02       		.byte	0x2
 702 020f 23       		.byte	0x23
 703 0210 40       		.uleb128 0x40
 704 0211 06       		.uleb128 0x6
 705 0212 6E010000 		.4byte	.LASF40
 706 0216 05       		.byte	0x5
 707 0217 D4       		.byte	0xd4
 708 0218 83020000 		.4byte	0x283
 709 021c 02       		.byte	0x2
 710 021d 23       		.byte	0x23
 711 021e 44       		.uleb128 0x44
 712 021f 00       		.byte	0
 713 0220 08       		.uleb128 0x8
 714 0221 08       		.byte	0x8
 715 0222 04       		.byte	0x4
 716 0223 61       		.byte	0x61
 717 0224 45020000 		.4byte	0x245
 718 0228 06       		.uleb128 0x6
 719 0229 D6040000 		.4byte	.LASF23
 720 022d 04       		.byte	0x4
 721 022e 62       		.byte	0x62
 722 022f 45020000 		.4byte	0x245
 723 0233 02       		.byte	0x2
 724 0234 23       		.byte	0x23
 725 0235 00       		.uleb128 0
 726 0236 06       		.uleb128 0x6
 727 0237 48040000 		.4byte	.LASF24
 728 023b 04       		.byte	0x4
 729 023c 64       		.byte	0x64
 730 023d 45020000 		.4byte	0x245
 731 0241 02       		.byte	0x2
 732 0242 23       		.byte	0x23
 733 0243 04       		.uleb128 0x4
 734 0244 00       		.byte	0
ARM GAS  /var/folders/dt/0wfd0knj7gs46m8vwfzktm600000gn/T//ccoubv62.s 			page 14


 735 0245 09       		.uleb128 0x9
 736 0246 04       		.byte	0x4
 737 0247 FE000000 		.4byte	0xfe
 738 024b 04       		.uleb128 0x4
 739 024c A2030000 		.4byte	.LASF41
 740 0250 04       		.byte	0x4
 741 0251 66       		.byte	0x66
 742 0252 20020000 		.4byte	0x220
 743 0256 08       		.uleb128 0x8
 744 0257 04       		.byte	0x4
 745 0258 04       		.byte	0x4
 746 0259 6B       		.byte	0x6b
 747 025a 6D020000 		.4byte	0x26d
 748 025e 06       		.uleb128 0x6
 749 025f D6040000 		.4byte	.LASF23
 750 0263 04       		.byte	0x4
 751 0264 6D       		.byte	0x6d
 752 0265 45020000 		.4byte	0x245
 753 0269 02       		.byte	0x2
 754 026a 23       		.byte	0x23
 755 026b 00       		.uleb128 0
 756 026c 00       		.byte	0
 757 026d 04       		.uleb128 0x4
 758 026e FA020000 		.4byte	.LASF42
 759 0272 04       		.byte	0x4
 760 0273 70       		.byte	0x70
 761 0274 56020000 		.4byte	0x256
 762 0278 04       		.uleb128 0x4
 763 0279 02020000 		.4byte	.LASF43
 764 027d 06       		.byte	0x6
 765 027e D7       		.byte	0xd7
 766 027f 83020000 		.4byte	0x283
 767 0283 0A       		.uleb128 0xa
 768 0284 04       		.byte	0x4
 769 0285 05       		.uleb128 0x5
 770 0286 D0050000 		.4byte	.LASF44
 771 028a 24       		.byte	0x24
 772 028b 06       		.byte	0x6
 773 028c FE       		.byte	0xfe
 774 028d 12030000 		.4byte	0x312
 775 0291 0B       		.uleb128 0xb
 776 0292 723400   		.ascii	"r4\000"
 777 0295 06       		.byte	0x6
 778 0296 1101     		.2byte	0x111
 779 0298 78020000 		.4byte	0x278
 780 029c 02       		.byte	0x2
 781 029d 23       		.byte	0x23
 782 029e 00       		.uleb128 0
 783 029f 0B       		.uleb128 0xb
 784 02a0 723500   		.ascii	"r5\000"
 785 02a3 06       		.byte	0x6
 786 02a4 1201     		.2byte	0x112
 787 02a6 78020000 		.4byte	0x278
 788 02aa 02       		.byte	0x2
 789 02ab 23       		.byte	0x23
 790 02ac 04       		.uleb128 0x4
 791 02ad 0B       		.uleb128 0xb
ARM GAS  /var/folders/dt/0wfd0knj7gs46m8vwfzktm600000gn/T//ccoubv62.s 			page 15


 792 02ae 723600   		.ascii	"r6\000"
 793 02b1 06       		.byte	0x6
 794 02b2 1301     		.2byte	0x113
 795 02b4 78020000 		.4byte	0x278
 796 02b8 02       		.byte	0x2
 797 02b9 23       		.byte	0x23
 798 02ba 08       		.uleb128 0x8
 799 02bb 0B       		.uleb128 0xb
 800 02bc 723700   		.ascii	"r7\000"
 801 02bf 06       		.byte	0x6
 802 02c0 1401     		.2byte	0x114
 803 02c2 78020000 		.4byte	0x278
 804 02c6 02       		.byte	0x2
 805 02c7 23       		.byte	0x23
 806 02c8 0C       		.uleb128 0xc
 807 02c9 0B       		.uleb128 0xb
 808 02ca 723800   		.ascii	"r8\000"
 809 02cd 06       		.byte	0x6
 810 02ce 1501     		.2byte	0x115
 811 02d0 78020000 		.4byte	0x278
 812 02d4 02       		.byte	0x2
 813 02d5 23       		.byte	0x23
 814 02d6 10       		.uleb128 0x10
 815 02d7 0B       		.uleb128 0xb
 816 02d8 723900   		.ascii	"r9\000"
 817 02db 06       		.byte	0x6
 818 02dc 1601     		.2byte	0x116
 819 02de 78020000 		.4byte	0x278
 820 02e2 02       		.byte	0x2
 821 02e3 23       		.byte	0x23
 822 02e4 14       		.uleb128 0x14
 823 02e5 0B       		.uleb128 0xb
 824 02e6 72313000 		.ascii	"r10\000"
 825 02ea 06       		.byte	0x6
 826 02eb 1701     		.2byte	0x117
 827 02ed 78020000 		.4byte	0x278
 828 02f1 02       		.byte	0x2
 829 02f2 23       		.byte	0x23
 830 02f3 18       		.uleb128 0x18
 831 02f4 0B       		.uleb128 0xb
 832 02f5 72313100 		.ascii	"r11\000"
 833 02f9 06       		.byte	0x6
 834 02fa 1801     		.2byte	0x118
 835 02fc 78020000 		.4byte	0x278
 836 0300 02       		.byte	0x2
 837 0301 23       		.byte	0x23
 838 0302 1C       		.uleb128 0x1c
 839 0303 0B       		.uleb128 0xb
 840 0304 6C7200   		.ascii	"lr\000"
 841 0307 06       		.byte	0x6
 842 0308 1901     		.2byte	0x119
 843 030a 78020000 		.4byte	0x278
 844 030e 02       		.byte	0x2
 845 030f 23       		.byte	0x23
 846 0310 20       		.uleb128 0x20
 847 0311 00       		.byte	0
 848 0312 0C       		.uleb128 0xc
ARM GAS  /var/folders/dt/0wfd0knj7gs46m8vwfzktm600000gn/T//ccoubv62.s 			page 16


 849 0313 BD050000 		.4byte	.LASF45
 850 0317 04       		.byte	0x4
 851 0318 06       		.byte	0x6
 852 0319 2301     		.2byte	0x123
 853 031b 2F030000 		.4byte	0x32f
 854 031f 0B       		.uleb128 0xb
 855 0320 72313300 		.ascii	"r13\000"
 856 0324 06       		.byte	0x6
 857 0325 2401     		.2byte	0x124
 858 0327 2F030000 		.4byte	0x32f
 859 032b 02       		.byte	0x2
 860 032c 23       		.byte	0x23
 861 032d 00       		.uleb128 0
 862 032e 00       		.byte	0
 863 032f 09       		.uleb128 0x9
 864 0330 04       		.byte	0x4
 865 0331 85020000 		.4byte	0x285
 866 0335 0D       		.uleb128 0xd
 867 0336 7B000000 		.4byte	0x7b
 868 033a 03       		.uleb128 0x3
 869 033b 04       		.byte	0x4
 870 033c 07       		.byte	0x7
 871 033d 55030000 		.4byte	.LASF46
 872 0341 04       		.uleb128 0x4
 873 0342 A9050000 		.4byte	.LASF47
 874 0346 07       		.byte	0x7
 875 0347 53       		.byte	0x53
 876 0348 4C030000 		.4byte	0x34c
 877 034c 09       		.uleb128 0x9
 878 034d 04       		.byte	0x4
 879 034e 52030000 		.4byte	0x352
 880 0352 0E       		.uleb128 0xe
 881 0353 01       		.byte	0x1
 882 0354 5E030000 		.4byte	0x35e
 883 0358 0F       		.uleb128 0xf
 884 0359 83020000 		.4byte	0x283
 885 035d 00       		.byte	0
 886 035e 04       		.uleb128 0x4
 887 035f 86020000 		.4byte	.LASF48
 888 0363 07       		.byte	0x7
 889 0364 58       		.byte	0x58
 890 0365 69030000 		.4byte	0x369
 891 0369 05       		.uleb128 0x5
 892 036a 86020000 		.4byte	.LASF48
 893 036e 14       		.byte	0x14
 894 036f 07       		.byte	0x7
 895 0370 5F       		.byte	0x5f
 896 0371 BC030000 		.4byte	0x3bc
 897 0375 06       		.uleb128 0x6
 898 0376 42020000 		.4byte	.LASF49
 899 037a 07       		.byte	0x7
 900 037b 60       		.byte	0x60
 901 037c BC030000 		.4byte	0x3bc
 902 0380 02       		.byte	0x2
 903 0381 23       		.byte	0x23
 904 0382 00       		.uleb128 0
 905 0383 06       		.uleb128 0x6
ARM GAS  /var/folders/dt/0wfd0knj7gs46m8vwfzktm600000gn/T//ccoubv62.s 			page 17


 906 0384 0B020000 		.4byte	.LASF50
 907 0388 07       		.byte	0x7
 908 0389 62       		.byte	0x62
 909 038a BC030000 		.4byte	0x3bc
 910 038e 02       		.byte	0x2
 911 038f 23       		.byte	0x23
 912 0390 04       		.uleb128 0x4
 913 0391 06       		.uleb128 0x6
 914 0392 97060000 		.4byte	.LASF51
 915 0396 07       		.byte	0x7
 916 0397 64       		.byte	0x64
 917 0398 F3000000 		.4byte	0xf3
 918 039c 02       		.byte	0x2
 919 039d 23       		.byte	0x23
 920 039e 08       		.uleb128 0x8
 921 039f 06       		.uleb128 0x6
 922 03a0 CD060000 		.4byte	.LASF52
 923 03a4 07       		.byte	0x7
 924 03a5 65       		.byte	0x65
 925 03a6 41030000 		.4byte	0x341
 926 03aa 02       		.byte	0x2
 927 03ab 23       		.byte	0x23
 928 03ac 0C       		.uleb128 0xc
 929 03ad 06       		.uleb128 0x6
 930 03ae F9050000 		.4byte	.LASF53
 931 03b2 07       		.byte	0x7
 932 03b3 67       		.byte	0x67
 933 03b4 83020000 		.4byte	0x283
 934 03b8 02       		.byte	0x2
 935 03b9 23       		.byte	0x23
 936 03ba 10       		.uleb128 0x10
 937 03bb 00       		.byte	0
 938 03bc 09       		.uleb128 0x9
 939 03bd 04       		.byte	0x4
 940 03be 5E030000 		.4byte	0x35e
 941 03c2 0D       		.uleb128 0xd
 942 03c3 F3000000 		.4byte	0xf3
 943 03c7 05       		.uleb128 0x5
 944 03c8 5E030000 		.4byte	.LASF54
 945 03cc 10       		.byte	0x10
 946 03cd 08       		.byte	0x8
 947 03ce 2C       		.byte	0x2c
 948 03cf FE030000 		.4byte	0x3fe
 949 03d3 06       		.uleb128 0x6
 950 03d4 7D010000 		.4byte	.LASF55
 951 03d8 08       		.byte	0x8
 952 03d9 2D       		.byte	0x2d
 953 03da 4B020000 		.4byte	0x24b
 954 03de 02       		.byte	0x2
 955 03df 23       		.byte	0x23
 956 03e0 00       		.uleb128 0
 957 03e1 06       		.uleb128 0x6
 958 03e2 B5060000 		.4byte	.LASF56
 959 03e6 08       		.byte	0x8
 960 03e7 2F       		.byte	0x2f
 961 03e8 45020000 		.4byte	0x245
 962 03ec 02       		.byte	0x2
ARM GAS  /var/folders/dt/0wfd0knj7gs46m8vwfzktm600000gn/T//ccoubv62.s 			page 18


 963 03ed 23       		.byte	0x23
 964 03ee 08       		.uleb128 0x8
 965 03ef 06       		.uleb128 0x6
 966 03f0 8D050000 		.4byte	.LASF57
 967 03f4 08       		.byte	0x8
 968 03f5 31       		.byte	0x31
 969 03f6 FE030000 		.4byte	0x3fe
 970 03fa 02       		.byte	0x2
 971 03fb 23       		.byte	0x23
 972 03fc 0C       		.uleb128 0xc
 973 03fd 00       		.byte	0
 974 03fe 09       		.uleb128 0x9
 975 03ff 04       		.byte	0x4
 976 0400 C7030000 		.4byte	0x3c7
 977 0404 04       		.uleb128 0x4
 978 0405 5E030000 		.4byte	.LASF54
 979 0409 08       		.byte	0x8
 980 040a 33       		.byte	0x33
 981 040b C7030000 		.4byte	0x3c7
 982 040f 04       		.uleb128 0x4
 983 0410 5A060000 		.4byte	.LASF58
 984 0414 09       		.byte	0x9
 985 0415 29       		.byte	0x29
 986 0416 1A040000 		.4byte	0x41a
 987 041a 05       		.uleb128 0x5
 988 041b 5A060000 		.4byte	.LASF58
 989 041f 0C       		.byte	0xc
 990 0420 09       		.byte	0x9
 991 0421 2E       		.byte	0x2e
 992 0422 51040000 		.4byte	0x451
 993 0426 06       		.uleb128 0x6
 994 0427 C2020000 		.4byte	.LASF59
 995 042b 09       		.byte	0x9
 996 042c 2F       		.byte	0x2f
 997 042d 51040000 		.4byte	0x451
 998 0431 02       		.byte	0x2
 999 0432 23       		.byte	0x23
 1000 0433 00       		.uleb128 0
 1001 0434 06       		.uleb128 0x6
 1002 0435 A4040000 		.4byte	.LASF60
 1003 0439 09       		.byte	0x9
 1004 043a 32       		.byte	0x32
 1005 043b 45020000 		.4byte	0x245
 1006 043f 02       		.byte	0x2
 1007 0440 23       		.byte	0x23
 1008 0441 04       		.uleb128 0x4
 1009 0442 06       		.uleb128 0x6
 1010 0443 E9030000 		.4byte	.LASF61
 1011 0447 09       		.byte	0x9
 1012 0448 34       		.byte	0x34
 1013 0449 E8000000 		.4byte	0xe8
 1014 044d 02       		.byte	0x2
 1015 044e 23       		.byte	0x23
 1016 044f 08       		.uleb128 0x8
 1017 0450 00       		.byte	0
 1018 0451 09       		.uleb128 0x9
 1019 0452 04       		.byte	0x4
ARM GAS  /var/folders/dt/0wfd0knj7gs46m8vwfzktm600000gn/T//ccoubv62.s 			page 19


 1020 0453 0F040000 		.4byte	0x40f
 1021 0457 05       		.uleb128 0x5
 1022 0458 29020000 		.4byte	.LASF62
 1023 045c 04       		.byte	0x4
 1024 045d 09       		.byte	0x9
 1025 045e 3C       		.byte	0x3c
 1026 045f 72040000 		.4byte	0x472
 1027 0463 06       		.uleb128 0x6
 1028 0464 1C060000 		.4byte	.LASF63
 1029 0468 09       		.byte	0x9
 1030 0469 3D       		.byte	0x3d
 1031 046a 51040000 		.4byte	0x451
 1032 046e 02       		.byte	0x2
 1033 046f 23       		.byte	0x23
 1034 0470 00       		.uleb128 0
 1035 0471 00       		.byte	0
 1036 0472 04       		.uleb128 0x4
 1037 0473 29020000 		.4byte	.LASF62
 1038 0477 09       		.byte	0x9
 1039 0478 40       		.byte	0x40
 1040 0479 57040000 		.4byte	0x457
 1041 047d 10       		.uleb128 0x10
 1042 047e 04       		.byte	0x4
 1043 047f 05       		.byte	0x5
 1044 0480 90       		.byte	0x90
 1045 0481 B2040000 		.4byte	0x4b2
 1046 0485 11       		.uleb128 0x11
 1047 0486 79000000 		.4byte	.LASF64
 1048 048a 05       		.byte	0x5
 1049 048b 97       		.byte	0x97
 1050 048c DD000000 		.4byte	0xdd
 1051 0490 11       		.uleb128 0x11
 1052 0491 D4000000 		.4byte	.LASF65
 1053 0495 05       		.byte	0x5
 1054 0496 9E       		.byte	0x9e
 1055 0497 DD000000 		.4byte	0xdd
 1056 049b 11       		.uleb128 0x11
 1057 049c 68060000 		.4byte	.LASF66
 1058 04a0 05       		.byte	0x5
 1059 04a1 A5       		.byte	0xa5
 1060 04a2 83020000 		.4byte	0x283
 1061 04a6 11       		.uleb128 0x11
 1062 04a7 CF040000 		.4byte	.LASF67
 1063 04ab 05       		.byte	0x5
 1064 04ac AC       		.byte	0xac
 1065 04ad E8000000 		.4byte	0xe8
 1066 04b1 00       		.byte	0
 1067 04b2 09       		.uleb128 0x9
 1068 04b3 04       		.byte	0x4
 1069 04b4 B8040000 		.4byte	0x4b8
 1070 04b8 12       		.uleb128 0x12
 1071 04b9 BD040000 		.4byte	0x4bd
 1072 04bd 03       		.uleb128 0x3
 1073 04be 01       		.byte	0x1
 1074 04bf 08       		.byte	0x8
 1075 04c0 61050000 		.4byte	.LASF68
 1076 04c4 09       		.uleb128 0x9
ARM GAS  /var/folders/dt/0wfd0knj7gs46m8vwfzktm600000gn/T//ccoubv62.s 			page 20


 1077 04c5 04       		.byte	0x4
 1078 04c6 04040000 		.4byte	0x404
 1079 04ca 09       		.uleb128 0x9
 1080 04cb 04       		.byte	0x4
 1081 04cc 3E000000 		.4byte	0x3e
 1082 04d0 09       		.uleb128 0x9
 1083 04d1 04       		.byte	0x4
 1084 04d2 D6040000 		.4byte	0x4d6
 1085 04d6 12       		.uleb128 0x12
 1086 04d7 3E000000 		.4byte	0x3e
 1087 04db 0D       		.uleb128 0xd
 1088 04dc 57000000 		.4byte	0x57
 1089 04e0 0D       		.uleb128 0xd
 1090 04e1 69000000 		.4byte	0x69
 1091 04e5 13       		.uleb128 0x13
 1092 04e6 10       		.byte	0x10
 1093 04e7 0A       		.byte	0xa
 1094 04e8 2D03     		.2byte	0x32d
 1095 04ea 2B050000 		.4byte	0x52b
 1096 04ee 0B       		.uleb128 0xb
 1097 04ef 43435200 		.ascii	"CCR\000"
 1098 04f3 0A       		.byte	0xa
 1099 04f4 2F03     		.2byte	0x32f
 1100 04f6 35030000 		.4byte	0x335
 1101 04fa 02       		.byte	0x2
 1102 04fb 23       		.byte	0x23
 1103 04fc 00       		.uleb128 0
 1104 04fd 14       		.uleb128 0x14
 1105 04fe 2A060000 		.4byte	.LASF69
 1106 0502 0A       		.byte	0xa
 1107 0503 3003     		.2byte	0x330
 1108 0505 35030000 		.4byte	0x335
 1109 0509 02       		.byte	0x2
 1110 050a 23       		.byte	0x23
 1111 050b 04       		.uleb128 0x4
 1112 050c 14       		.uleb128 0x14
 1113 050d 51020000 		.4byte	.LASF70
 1114 0511 0A       		.byte	0xa
 1115 0512 3103     		.2byte	0x331
 1116 0514 35030000 		.4byte	0x335
 1117 0518 02       		.byte	0x2
 1118 0519 23       		.byte	0x23
 1119 051a 08       		.uleb128 0x8
 1120 051b 14       		.uleb128 0x14
 1121 051c 30060000 		.4byte	.LASF71
 1122 0520 0A       		.byte	0xa
 1123 0521 3203     		.2byte	0x332
 1124 0523 35030000 		.4byte	0x335
 1125 0527 02       		.byte	0x2
 1126 0528 23       		.byte	0x23
 1127 0529 0C       		.uleb128 0xc
 1128 052a 00       		.byte	0
 1129 052b 15       		.uleb128 0x15
 1130 052c F1030000 		.4byte	.LASF72
 1131 0530 0A       		.byte	0xa
 1132 0531 3303     		.2byte	0x333
 1133 0533 E5040000 		.4byte	0x4e5
ARM GAS  /var/folders/dt/0wfd0knj7gs46m8vwfzktm600000gn/T//ccoubv62.s 			page 21


 1134 0537 13       		.uleb128 0x13
 1135 0538 1C       		.byte	0x1c
 1136 0539 0A       		.byte	0xa
 1137 053a F803     		.2byte	0x3f8
 1138 053c AA050000 		.4byte	0x5aa
 1139 0540 0B       		.uleb128 0xb
 1140 0541 43524C00 		.ascii	"CRL\000"
 1141 0545 0A       		.byte	0xa
 1142 0546 FA03     		.2byte	0x3fa
 1143 0548 35030000 		.4byte	0x335
 1144 054c 02       		.byte	0x2
 1145 054d 23       		.byte	0x23
 1146 054e 00       		.uleb128 0
 1147 054f 0B       		.uleb128 0xb
 1148 0550 43524800 		.ascii	"CRH\000"
 1149 0554 0A       		.byte	0xa
 1150 0555 FB03     		.2byte	0x3fb
 1151 0557 35030000 		.4byte	0x335
 1152 055b 02       		.byte	0x2
 1153 055c 23       		.byte	0x23
 1154 055d 04       		.uleb128 0x4
 1155 055e 0B       		.uleb128 0xb
 1156 055f 49445200 		.ascii	"IDR\000"
 1157 0563 0A       		.byte	0xa
 1158 0564 FC03     		.2byte	0x3fc
 1159 0566 35030000 		.4byte	0x335
 1160 056a 02       		.byte	0x2
 1161 056b 23       		.byte	0x23
 1162 056c 08       		.uleb128 0x8
 1163 056d 0B       		.uleb128 0xb
 1164 056e 4F445200 		.ascii	"ODR\000"
 1165 0572 0A       		.byte	0xa
 1166 0573 FD03     		.2byte	0x3fd
 1167 0575 35030000 		.4byte	0x335
 1168 0579 02       		.byte	0x2
 1169 057a 23       		.byte	0x23
 1170 057b 0C       		.uleb128 0xc
 1171 057c 14       		.uleb128 0x14
 1172 057d 54010000 		.4byte	.LASF73
 1173 0581 0A       		.byte	0xa
 1174 0582 FE03     		.2byte	0x3fe
 1175 0584 35030000 		.4byte	0x335
 1176 0588 02       		.byte	0x2
 1177 0589 23       		.byte	0x23
 1178 058a 10       		.uleb128 0x10
 1179 058b 0B       		.uleb128 0xb
 1180 058c 42525200 		.ascii	"BRR\000"
 1181 0590 0A       		.byte	0xa
 1182 0591 FF03     		.2byte	0x3ff
 1183 0593 35030000 		.4byte	0x335
 1184 0597 02       		.byte	0x2
 1185 0598 23       		.byte	0x23
 1186 0599 14       		.uleb128 0x14
 1187 059a 14       		.uleb128 0x14
 1188 059b 7A020000 		.4byte	.LASF74
 1189 059f 0A       		.byte	0xa
 1190 05a0 0004     		.2byte	0x400
ARM GAS  /var/folders/dt/0wfd0knj7gs46m8vwfzktm600000gn/T//ccoubv62.s 			page 22


 1191 05a2 35030000 		.4byte	0x335
 1192 05a6 02       		.byte	0x2
 1193 05a7 23       		.byte	0x23
 1194 05a8 18       		.uleb128 0x18
 1195 05a9 00       		.byte	0
 1196 05aa 15       		.uleb128 0x15
 1197 05ab 61020000 		.4byte	.LASF75
 1198 05af 0A       		.byte	0xa
 1199 05b0 0104     		.2byte	0x401
 1200 05b2 37050000 		.4byte	0x537
 1201 05b6 13       		.uleb128 0x13
 1202 05b7 24       		.byte	0x24
 1203 05b8 0A       		.byte	0xa
 1204 05b9 9704     		.2byte	0x497
 1205 05bb CC060000 		.4byte	0x6cc
 1206 05bf 0B       		.uleb128 0xb
 1207 05c0 43523100 		.ascii	"CR1\000"
 1208 05c4 0A       		.byte	0xa
 1209 05c5 9904     		.2byte	0x499
 1210 05c7 DB040000 		.4byte	0x4db
 1211 05cb 02       		.byte	0x2
 1212 05cc 23       		.byte	0x23
 1213 05cd 00       		.uleb128 0
 1214 05ce 14       		.uleb128 0x14
 1215 05cf 16040000 		.4byte	.LASF76
 1216 05d3 0A       		.byte	0xa
 1217 05d4 9A04     		.2byte	0x49a
 1218 05d6 57000000 		.4byte	0x57
 1219 05da 02       		.byte	0x2
 1220 05db 23       		.byte	0x23
 1221 05dc 02       		.uleb128 0x2
 1222 05dd 0B       		.uleb128 0xb
 1223 05de 43523200 		.ascii	"CR2\000"
 1224 05e2 0A       		.byte	0xa
 1225 05e3 9B04     		.2byte	0x49b
 1226 05e5 DB040000 		.4byte	0x4db
 1227 05e9 02       		.byte	0x2
 1228 05ea 23       		.byte	0x23
 1229 05eb 04       		.uleb128 0x4
 1230 05ec 14       		.uleb128 0x14
 1231 05ed 20040000 		.4byte	.LASF77
 1232 05f1 0A       		.byte	0xa
 1233 05f2 9C04     		.2byte	0x49c
 1234 05f4 57000000 		.4byte	0x57
 1235 05f8 02       		.byte	0x2
 1236 05f9 23       		.byte	0x23
 1237 05fa 06       		.uleb128 0x6
 1238 05fb 0B       		.uleb128 0xb
 1239 05fc 535200   		.ascii	"SR\000"
 1240 05ff 0A       		.byte	0xa
 1241 0600 9D04     		.2byte	0x49d
 1242 0602 DB040000 		.4byte	0x4db
 1243 0606 02       		.byte	0x2
 1244 0607 23       		.byte	0x23
 1245 0608 08       		.uleb128 0x8
 1246 0609 14       		.uleb128 0x14
 1247 060a 2A040000 		.4byte	.LASF78
ARM GAS  /var/folders/dt/0wfd0knj7gs46m8vwfzktm600000gn/T//ccoubv62.s 			page 23


 1248 060e 0A       		.byte	0xa
 1249 060f 9E04     		.2byte	0x49e
 1250 0611 57000000 		.4byte	0x57
 1251 0615 02       		.byte	0x2
 1252 0616 23       		.byte	0x23
 1253 0617 0A       		.uleb128 0xa
 1254 0618 0B       		.uleb128 0xb
 1255 0619 445200   		.ascii	"DR\000"
 1256 061c 0A       		.byte	0xa
 1257 061d 9F04     		.2byte	0x49f
 1258 061f DB040000 		.4byte	0x4db
 1259 0623 02       		.byte	0x2
 1260 0624 23       		.byte	0x23
 1261 0625 0C       		.uleb128 0xc
 1262 0626 14       		.uleb128 0x14
 1263 0627 34040000 		.4byte	.LASF79
 1264 062b 0A       		.byte	0xa
 1265 062c A004     		.2byte	0x4a0
 1266 062e 57000000 		.4byte	0x57
 1267 0632 02       		.byte	0x2
 1268 0633 23       		.byte	0x23
 1269 0634 0E       		.uleb128 0xe
 1270 0635 14       		.uleb128 0x14
 1271 0636 CE000000 		.4byte	.LASF80
 1272 063a 0A       		.byte	0xa
 1273 063b A104     		.2byte	0x4a1
 1274 063d DB040000 		.4byte	0x4db
 1275 0641 02       		.byte	0x2
 1276 0642 23       		.byte	0x23
 1277 0643 10       		.uleb128 0x10
 1278 0644 14       		.uleb128 0x14
 1279 0645 3E040000 		.4byte	.LASF81
 1280 0649 0A       		.byte	0xa
 1281 064a A204     		.2byte	0x4a2
 1282 064c 57000000 		.4byte	0x57
 1283 0650 02       		.byte	0x2
 1284 0651 23       		.byte	0x23
 1285 0652 12       		.uleb128 0x12
 1286 0653 14       		.uleb128 0x14
 1287 0654 1F000000 		.4byte	.LASF82
 1288 0658 0A       		.byte	0xa
 1289 0659 A304     		.2byte	0x4a3
 1290 065b DB040000 		.4byte	0x4db
 1291 065f 02       		.byte	0x2
 1292 0660 23       		.byte	0x23
 1293 0661 14       		.uleb128 0x14
 1294 0662 14       		.uleb128 0x14
 1295 0663 10050000 		.4byte	.LASF83
 1296 0667 0A       		.byte	0xa
 1297 0668 A404     		.2byte	0x4a4
 1298 066a 57000000 		.4byte	0x57
 1299 066e 02       		.byte	0x2
 1300 066f 23       		.byte	0x23
 1301 0670 16       		.uleb128 0x16
 1302 0671 14       		.uleb128 0x14
 1303 0672 0F040000 		.4byte	.LASF84
 1304 0676 0A       		.byte	0xa
ARM GAS  /var/folders/dt/0wfd0knj7gs46m8vwfzktm600000gn/T//ccoubv62.s 			page 24


 1305 0677 A504     		.2byte	0x4a5
 1306 0679 DB040000 		.4byte	0x4db
 1307 067d 02       		.byte	0x2
 1308 067e 23       		.byte	0x23
 1309 067f 18       		.uleb128 0x18
 1310 0680 14       		.uleb128 0x14
 1311 0681 4F040000 		.4byte	.LASF85
 1312 0685 0A       		.byte	0xa
 1313 0686 A604     		.2byte	0x4a6
 1314 0688 57000000 		.4byte	0x57
 1315 068c 02       		.byte	0x2
 1316 068d 23       		.byte	0x23
 1317 068e 1A       		.uleb128 0x1a
 1318 068f 14       		.uleb128 0x14
 1319 0690 6F030000 		.4byte	.LASF86
 1320 0694 0A       		.byte	0xa
 1321 0695 A704     		.2byte	0x4a7
 1322 0697 DB040000 		.4byte	0x4db
 1323 069b 02       		.byte	0x2
 1324 069c 23       		.byte	0x23
 1325 069d 1C       		.uleb128 0x1c
 1326 069e 14       		.uleb128 0x14
 1327 069f 59040000 		.4byte	.LASF87
 1328 06a3 0A       		.byte	0xa
 1329 06a4 A804     		.2byte	0x4a8
 1330 06a6 57000000 		.4byte	0x57
 1331 06aa 02       		.byte	0x2
 1332 06ab 23       		.byte	0x23
 1333 06ac 1E       		.uleb128 0x1e
 1334 06ad 14       		.uleb128 0x14
 1335 06ae 4F030000 		.4byte	.LASF88
 1336 06b2 0A       		.byte	0xa
 1337 06b3 A904     		.2byte	0x4a9
 1338 06b5 DB040000 		.4byte	0x4db
 1339 06b9 02       		.byte	0x2
 1340 06ba 23       		.byte	0x23
 1341 06bb 20       		.uleb128 0x20
 1342 06bc 14       		.uleb128 0x14
 1343 06bd 63040000 		.4byte	.LASF89
 1344 06c1 0A       		.byte	0xa
 1345 06c2 AA04     		.2byte	0x4aa
 1346 06c4 57000000 		.4byte	0x57
 1347 06c8 02       		.byte	0x2
 1348 06c9 23       		.byte	0x23
 1349 06ca 22       		.uleb128 0x22
 1350 06cb 00       		.byte	0
 1351 06cc 15       		.uleb128 0x15
 1352 06cd 55050000 		.4byte	.LASF90
 1353 06d1 0A       		.byte	0xa
 1354 06d2 AB04     		.2byte	0x4ab
 1355 06d4 B6050000 		.4byte	0x5b6
 1356 06d8 08       		.uleb128 0x8
 1357 06d9 0C       		.byte	0xc
 1358 06da 0B       		.byte	0xb
 1359 06db C2       		.byte	0xc2
 1360 06dc 27070000 		.4byte	0x727
 1361 06e0 06       		.uleb128 0x6
ARM GAS  /var/folders/dt/0wfd0knj7gs46m8vwfzktm600000gn/T//ccoubv62.s 			page 25


 1362 06e1 F8040000 		.4byte	.LASF91
 1363 06e5 0B       		.byte	0xb
 1364 06e6 C3       		.byte	0xc3
 1365 06e7 27070000 		.4byte	0x727
 1366 06eb 02       		.byte	0x2
 1367 06ec 23       		.byte	0x23
 1368 06ed 00       		.uleb128 0
 1369 06ee 06       		.uleb128 0x6
 1370 06ef 0B050000 		.4byte	.LASF92
 1371 06f3 0B       		.byte	0xb
 1372 06f4 C4       		.byte	0xc4
 1373 06f5 2D070000 		.4byte	0x72d
 1374 06f9 02       		.byte	0x2
 1375 06fa 23       		.byte	0x23
 1376 06fb 04       		.uleb128 0x4
 1377 06fc 06       		.uleb128 0x6
 1378 06fd 7F020000 		.4byte	.LASF93
 1379 0701 0B       		.byte	0xb
 1380 0702 C5       		.byte	0xc5
 1381 0703 3E000000 		.4byte	0x3e
 1382 0707 02       		.byte	0x2
 1383 0708 23       		.byte	0x23
 1384 0709 08       		.uleb128 0x8
 1385 070a 06       		.uleb128 0x6
 1386 070b BD060000 		.4byte	.LASF94
 1387 070f 0B       		.byte	0xb
 1388 0710 C7       		.byte	0xc7
 1389 0711 3E000000 		.4byte	0x3e
 1390 0715 02       		.byte	0x2
 1391 0716 23       		.byte	0x23
 1392 0717 09       		.uleb128 0x9
 1393 0718 06       		.uleb128 0x6
 1394 0719 DD000000 		.4byte	.LASF95
 1395 071d 0B       		.byte	0xb
 1396 071e C8       		.byte	0xc8
 1397 071f 3E000000 		.4byte	0x3e
 1398 0723 02       		.byte	0x2
 1399 0724 23       		.byte	0x23
 1400 0725 0A       		.uleb128 0xa
 1401 0726 00       		.byte	0
 1402 0727 09       		.uleb128 0x9
 1403 0728 04       		.byte	0x4
 1404 0729 2B050000 		.4byte	0x52b
 1405 072d 09       		.uleb128 0x9
 1406 072e 04       		.byte	0x4
 1407 072f 35030000 		.4byte	0x335
 1408 0733 04       		.uleb128 0x4
 1409 0734 91040000 		.4byte	.LASF96
 1410 0738 0B       		.byte	0xb
 1411 0739 C9       		.byte	0xc9
 1412 073a D8060000 		.4byte	0x6d8
 1413 073e 04       		.uleb128 0x4
 1414 073f B2050000 		.4byte	.LASF97
 1415 0743 0C       		.byte	0xc
 1416 0744 85       		.byte	0x85
 1417 0745 49070000 		.4byte	0x749
 1418 0749 09       		.uleb128 0x9
ARM GAS  /var/folders/dt/0wfd0knj7gs46m8vwfzktm600000gn/T//ccoubv62.s 			page 26


 1419 074a 04       		.byte	0x4
 1420 074b AA050000 		.4byte	0x5aa
 1421 074f 16       		.uleb128 0x16
 1422 0750 01       		.byte	0x1
 1423 0751 0D       		.byte	0xd
 1424 0752 55       		.byte	0x55
 1425 0753 76070000 		.4byte	0x776
 1426 0757 17       		.uleb128 0x17
 1427 0758 EE050000 		.4byte	.LASF98
 1428 075c 00       		.sleb128 0
 1429 075d 17       		.uleb128 0x17
 1430 075e 65010000 		.4byte	.LASF99
 1431 0762 01       		.sleb128 1
 1432 0763 17       		.uleb128 0x17
 1433 0764 E4050000 		.4byte	.LASF100
 1434 0768 02       		.sleb128 2
 1435 0769 17       		.uleb128 0x17
 1436 076a 80000000 		.4byte	.LASF101
 1437 076e 03       		.sleb128 3
 1438 076f 17       		.uleb128 0x17
 1439 0770 66050000 		.4byte	.LASF102
 1440 0774 04       		.sleb128 4
 1441 0775 00       		.byte	0
 1442 0776 04       		.uleb128 0x4
 1443 0777 D2020000 		.4byte	.LASF103
 1444 077b 0D       		.byte	0xd
 1445 077c 5B       		.byte	0x5b
 1446 077d 4F070000 		.4byte	0x74f
 1447 0781 15       		.uleb128 0x15
 1448 0782 F6000000 		.4byte	.LASF104
 1449 0786 0E       		.byte	0xe
 1450 0787 0701     		.2byte	0x107
 1451 0789 8D070000 		.4byte	0x78d
 1452 078d 0C       		.uleb128 0xc
 1453 078e F6000000 		.4byte	.LASF104
 1454 0792 30       		.byte	0x30
 1455 0793 0E       		.byte	0xe
 1456 0794 2B01     		.2byte	0x12b
 1457 0796 22080000 		.4byte	0x822
 1458 079a 14       		.uleb128 0x14
 1459 079b 91010000 		.4byte	.LASF105
 1460 079f 0E       		.byte	0xe
 1461 07a0 2F01     		.2byte	0x12f
 1462 07a2 76070000 		.4byte	0x776
 1463 07a6 02       		.byte	0x2
 1464 07a7 23       		.byte	0x23
 1465 07a8 00       		.uleb128 0
 1466 07a9 14       		.uleb128 0x14
 1467 07aa 73050000 		.4byte	.LASF106
 1468 07ae 0E       		.byte	0xe
 1469 07af 3301     		.2byte	0x133
 1470 07b1 98080000 		.4byte	0x898
 1471 07b5 02       		.byte	0x2
 1472 07b6 23       		.byte	0x23
 1473 07b7 04       		.uleb128 0x4
 1474 07b8 14       		.uleb128 0x14
 1475 07b9 BF010000 		.4byte	.LASF107
ARM GAS  /var/folders/dt/0wfd0knj7gs46m8vwfzktm600000gn/T//ccoubv62.s 			page 27


 1476 07bd 0E       		.byte	0xe
 1477 07be 3801     		.2byte	0x138
 1478 07c0 45020000 		.4byte	0x245
 1479 07c4 02       		.byte	0x2
 1480 07c5 23       		.byte	0x23
 1481 07c6 08       		.uleb128 0x8
 1482 07c7 14       		.uleb128 0x14
 1483 07c8 75040000 		.4byte	.LASF108
 1484 07cc 0E       		.byte	0xe
 1485 07cd 3F01     		.2byte	0x13f
 1486 07cf 04040000 		.4byte	0x404
 1487 07d3 02       		.byte	0x2
 1488 07d4 23       		.byte	0x23
 1489 07d5 0C       		.uleb128 0xc
 1490 07d6 0B       		.uleb128 0xb
 1491 07d7 73706900 		.ascii	"spi\000"
 1492 07db 0E       		.byte	0xe
 1493 07dc 4B01     		.2byte	0x14b
 1494 07de A3080000 		.4byte	0x8a3
 1495 07e2 02       		.byte	0x2
 1496 07e3 23       		.byte	0x23
 1497 07e4 1C       		.uleb128 0x1c
 1498 07e5 14       		.uleb128 0x14
 1499 07e6 09000000 		.4byte	.LASF109
 1500 07ea 0E       		.byte	0xe
 1501 07eb 4F01     		.2byte	0x14f
 1502 07ed A9080000 		.4byte	0x8a9
 1503 07f1 02       		.byte	0x2
 1504 07f2 23       		.byte	0x23
 1505 07f3 20       		.uleb128 0x20
 1506 07f4 14       		.uleb128 0x14
 1507 07f5 FC010000 		.4byte	.LASF110
 1508 07f9 0E       		.byte	0xe
 1509 07fa 5301     		.2byte	0x153
 1510 07fc A9080000 		.4byte	0x8a9
 1511 0800 02       		.byte	0x2
 1512 0801 23       		.byte	0x23
 1513 0802 24       		.uleb128 0x24
 1514 0803 14       		.uleb128 0x14
 1515 0804 F2010000 		.4byte	.LASF111
 1516 0808 0E       		.byte	0xe
 1517 0809 5701     		.2byte	0x157
 1518 080b 7B000000 		.4byte	0x7b
 1519 080f 02       		.byte	0x2
 1520 0810 23       		.byte	0x23
 1521 0811 28       		.uleb128 0x28
 1522 0812 14       		.uleb128 0x14
 1523 0813 AF030000 		.4byte	.LASF112
 1524 0817 0E       		.byte	0xe
 1525 0818 5B01     		.2byte	0x15b
 1526 081a 7B000000 		.4byte	0x7b
 1527 081e 02       		.byte	0x2
 1528 081f 23       		.byte	0x23
 1529 0820 2C       		.uleb128 0x2c
 1530 0821 00       		.byte	0
 1531 0822 15       		.uleb128 0x15
 1532 0823 89060000 		.4byte	.LASF113
ARM GAS  /var/folders/dt/0wfd0knj7gs46m8vwfzktm600000gn/T//ccoubv62.s 			page 28


 1533 0827 0E       		.byte	0xe
 1534 0828 0F01     		.2byte	0x10f
 1535 082a 2E080000 		.4byte	0x82e
 1536 082e 09       		.uleb128 0x9
 1537 082f 04       		.byte	0x4
 1538 0830 34080000 		.4byte	0x834
 1539 0834 0E       		.uleb128 0xe
 1540 0835 01       		.byte	0x1
 1541 0836 40080000 		.4byte	0x840
 1542 083a 0F       		.uleb128 0xf
 1543 083b 40080000 		.4byte	0x840
 1544 083f 00       		.byte	0
 1545 0840 09       		.uleb128 0x9
 1546 0841 04       		.byte	0x4
 1547 0842 81070000 		.4byte	0x781
 1548 0846 13       		.uleb128 0x13
 1549 0847 0C       		.byte	0xc
 1550 0848 0E       		.byte	0xe
 1551 0849 1401     		.2byte	0x114
 1552 084b 8C080000 		.4byte	0x88c
 1553 084f 14       		.uleb128 0x14
 1554 0850 EB010000 		.4byte	.LASF114
 1555 0854 0E       		.byte	0xe
 1556 0855 1801     		.2byte	0x118
 1557 0857 22080000 		.4byte	0x822
 1558 085b 02       		.byte	0x2
 1559 085c 23       		.byte	0x23
 1560 085d 00       		.uleb128 0
 1561 085e 14       		.uleb128 0x14
 1562 085f 00010000 		.4byte	.LASF115
 1563 0863 0E       		.byte	0xe
 1564 0864 1D01     		.2byte	0x11d
 1565 0866 3E070000 		.4byte	0x73e
 1566 086a 02       		.byte	0x2
 1567 086b 23       		.byte	0x23
 1568 086c 04       		.uleb128 0x4
 1569 086d 14       		.uleb128 0x14
 1570 086e A2000000 		.4byte	.LASF116
 1571 0872 0E       		.byte	0xe
 1572 0873 2101     		.2byte	0x121
 1573 0875 57000000 		.4byte	0x57
 1574 0879 02       		.byte	0x2
 1575 087a 23       		.byte	0x23
 1576 087b 08       		.uleb128 0x8
 1577 087c 0B       		.uleb128 0xb
 1578 087d 63723100 		.ascii	"cr1\000"
 1579 0881 0E       		.byte	0xe
 1580 0882 2501     		.2byte	0x125
 1581 0884 57000000 		.4byte	0x57
 1582 0888 02       		.byte	0x2
 1583 0889 23       		.byte	0x23
 1584 088a 0A       		.uleb128 0xa
 1585 088b 00       		.byte	0
 1586 088c 15       		.uleb128 0x15
 1587 088d 79060000 		.4byte	.LASF117
 1588 0891 0E       		.byte	0xe
 1589 0892 2601     		.2byte	0x126
ARM GAS  /var/folders/dt/0wfd0knj7gs46m8vwfzktm600000gn/T//ccoubv62.s 			page 29


 1590 0894 46080000 		.4byte	0x846
 1591 0898 09       		.uleb128 0x9
 1592 0899 04       		.byte	0x4
 1593 089a 9E080000 		.4byte	0x89e
 1594 089e 12       		.uleb128 0x12
 1595 089f 8C080000 		.4byte	0x88c
 1596 08a3 09       		.uleb128 0x9
 1597 08a4 04       		.byte	0x4
 1598 08a5 CC060000 		.4byte	0x6cc
 1599 08a9 09       		.uleb128 0x9
 1600 08aa 04       		.byte	0x4
 1601 08ab AF080000 		.4byte	0x8af
 1602 08af 12       		.uleb128 0x12
 1603 08b0 33070000 		.4byte	0x733
 1604 08b4 16       		.uleb128 0x16
 1605 08b5 01       		.byte	0x1
 1606 08b6 0F       		.byte	0xf
 1607 08b7 7A       		.byte	0x7a
 1608 08b8 E7080000 		.4byte	0x8e7
 1609 08bc 17       		.uleb128 0x17
 1610 08bd 97010000 		.4byte	.LASF118
 1611 08c1 00       		.sleb128 0
 1612 08c2 17       		.uleb128 0x17
 1613 08c3 84050000 		.4byte	.LASF119
 1614 08c7 01       		.sleb128 1
 1615 08c8 17       		.uleb128 0x17
 1616 08c9 00000000 		.4byte	.LASF120
 1617 08cd 02       		.sleb128 2
 1618 08ce 17       		.uleb128 0x17
 1619 08cf 1C030000 		.4byte	.LASF121
 1620 08d3 03       		.sleb128 3
 1621 08d4 17       		.uleb128 0x17
 1622 08d5 7A050000 		.4byte	.LASF122
 1623 08d9 04       		.sleb128 4
 1624 08da 17       		.uleb128 0x17
 1625 08db 2E010000 		.4byte	.LASF123
 1626 08df 05       		.sleb128 5
 1627 08e0 17       		.uleb128 0x17
 1628 08e1 96000000 		.4byte	.LASF124
 1629 08e5 06       		.sleb128 6
 1630 08e6 00       		.byte	0
 1631 08e7 04       		.uleb128 0x4
 1632 08e8 64030000 		.4byte	.LASF125
 1633 08ec 0F       		.byte	0xf
 1634 08ed 82       		.byte	0x82
 1635 08ee B4080000 		.4byte	0x8b4
 1636 08f2 04       		.uleb128 0x4
 1637 08f3 0A060000 		.4byte	.LASF126
 1638 08f7 0F       		.byte	0xf
 1639 08f8 89       		.byte	0x89
 1640 08f9 FD080000 		.4byte	0x8fd
 1641 08fd 09       		.uleb128 0x9
 1642 08fe 04       		.byte	0x4
 1643 08ff 03090000 		.4byte	0x903
 1644 0903 18       		.uleb128 0x18
 1645 0904 01       		.byte	0x1
 1646 0905 A6000000 		.4byte	0xa6
ARM GAS  /var/folders/dt/0wfd0knj7gs46m8vwfzktm600000gn/T//ccoubv62.s 			page 30


 1647 0909 08       		.uleb128 0x8
 1648 090a 01       		.byte	0x1
 1649 090b 0F       		.byte	0xf
 1650 090c 8F       		.byte	0x8f
 1651 090d 20090000 		.4byte	0x920
 1652 0911 06       		.uleb128 0x6
 1653 0912 19020000 		.4byte	.LASF127
 1654 0916 0F       		.byte	0xf
 1655 0917 90       		.byte	0x90
 1656 0918 3E000000 		.4byte	0x3e
 1657 091c 02       		.byte	0x2
 1658 091d 23       		.byte	0x23
 1659 091e 00       		.uleb128 0
 1660 091f 00       		.byte	0
 1661 0920 04       		.uleb128 0x4
 1662 0921 05040000 		.4byte	.LASF128
 1663 0925 0F       		.byte	0xf
 1664 0926 91       		.byte	0x91
 1665 0927 09090000 		.4byte	0x909
 1666 092b 08       		.uleb128 0x8
 1667 092c 40       		.byte	0x40
 1668 092d 0F       		.byte	0xf
 1669 092e 96       		.byte	0x96
 1670 092f DB090000 		.4byte	0x9db
 1671 0933 06       		.uleb128 0x6
 1672 0934 91010000 		.4byte	.LASF105
 1673 0938 0F       		.byte	0xf
 1674 0939 9A       		.byte	0x9a
 1675 093a E7080000 		.4byte	0x8e7
 1676 093e 02       		.byte	0x2
 1677 093f 23       		.byte	0x23
 1678 0940 00       		.uleb128 0
 1679 0941 06       		.uleb128 0x6
 1680 0942 73050000 		.4byte	.LASF106
 1681 0946 0F       		.byte	0xf
 1682 0947 9E       		.byte	0x9e
 1683 0948 DB090000 		.4byte	0x9db
 1684 094c 02       		.byte	0x2
 1685 094d 23       		.byte	0x23
 1686 094e 04       		.uleb128 0x4
 1687 094f 06       		.uleb128 0x6
 1688 0950 3D060000 		.4byte	.LASF129
 1689 0954 0F       		.byte	0xf
 1690 0955 A2       		.byte	0xa2
 1691 0956 40080000 		.4byte	0x840
 1692 095a 02       		.byte	0x2
 1693 095b 23       		.byte	0x23
 1694 095c 08       		.uleb128 0x8
 1695 095d 06       		.uleb128 0x6
 1696 095e A6020000 		.4byte	.LASF130
 1697 0962 0F       		.byte	0xf
 1698 0963 A6       		.byte	0xa6
 1699 0964 98080000 		.4byte	0x898
 1700 0968 02       		.byte	0x2
 1701 0969 23       		.byte	0x23
 1702 096a 0C       		.uleb128 0xc
 1703 096b 06       		.uleb128 0x6
ARM GAS  /var/folders/dt/0wfd0knj7gs46m8vwfzktm600000gn/T//ccoubv62.s 			page 31


 1704 096c 24060000 		.4byte	.LASF131
 1705 0970 0F       		.byte	0xf
 1706 0971 AA       		.byte	0xaa
 1707 0972 98080000 		.4byte	0x898
 1708 0976 02       		.byte	0x2
 1709 0977 23       		.byte	0x23
 1710 0978 10       		.uleb128 0x10
 1711 0979 06       		.uleb128 0x6
 1712 097a D7050000 		.4byte	.LASF132
 1713 097e 0F       		.byte	0xf
 1714 097f AE       		.byte	0xae
 1715 0980 F2080000 		.4byte	0x8f2
 1716 0984 02       		.byte	0x2
 1717 0985 23       		.byte	0x23
 1718 0986 14       		.uleb128 0x14
 1719 0987 06       		.uleb128 0x6
 1720 0988 59010000 		.4byte	.LASF133
 1721 098c 0F       		.byte	0xf
 1722 098d B2       		.byte	0xb2
 1723 098e F2080000 		.4byte	0x8f2
 1724 0992 02       		.byte	0x2
 1725 0993 23       		.byte	0x23
 1726 0994 18       		.uleb128 0x18
 1727 0995 06       		.uleb128 0x6
 1728 0996 BF000000 		.4byte	.LASF134
 1729 099a 0F       		.byte	0xf
 1730 099b B6       		.byte	0xb6
 1731 099c 72040000 		.4byte	0x472
 1732 09a0 02       		.byte	0x2
 1733 09a1 23       		.byte	0x23
 1734 09a2 1C       		.uleb128 0x1c
 1735 09a3 06       		.uleb128 0x6
 1736 09a4 14010000 		.4byte	.LASF135
 1737 09a8 0F       		.byte	0xf
 1738 09a9 BA       		.byte	0xba
 1739 09aa 72040000 		.4byte	0x472
 1740 09ae 02       		.byte	0x2
 1741 09af 23       		.byte	0x23
 1742 09b0 20       		.uleb128 0x20
 1743 09b1 07       		.uleb128 0x7
 1744 09b2 767400   		.ascii	"vt\000"
 1745 09b5 0F       		.byte	0xf
 1746 09b6 BE       		.byte	0xbe
 1747 09b7 5E030000 		.4byte	0x35e
 1748 09bb 02       		.byte	0x2
 1749 09bc 23       		.byte	0x23
 1750 09bd 24       		.uleb128 0x24
 1751 09be 07       		.uleb128 0x7
 1752 09bf 636E7400 		.ascii	"cnt\000"
 1753 09c3 0F       		.byte	0xf
 1754 09c4 C2       		.byte	0xc2
 1755 09c5 9B000000 		.4byte	0x9b
 1756 09c9 02       		.byte	0x2
 1757 09ca 23       		.byte	0x23
 1758 09cb 38       		.uleb128 0x38
 1759 09cc 06       		.uleb128 0x6
 1760 09cd AC020000 		.4byte	.LASF136
ARM GAS  /var/folders/dt/0wfd0knj7gs46m8vwfzktm600000gn/T//ccoubv62.s 			page 32


 1761 09d1 0F       		.byte	0xf
 1762 09d2 C6       		.byte	0xc6
 1763 09d3 A6000000 		.4byte	0xa6
 1764 09d7 02       		.byte	0x2
 1765 09d8 23       		.byte	0x23
 1766 09d9 3C       		.uleb128 0x3c
 1767 09da 00       		.byte	0
 1768 09db 09       		.uleb128 0x9
 1769 09dc 04       		.byte	0x4
 1770 09dd E1090000 		.4byte	0x9e1
 1771 09e1 12       		.uleb128 0x12
 1772 09e2 20090000 		.4byte	0x920
 1773 09e6 04       		.uleb128 0x4
 1774 09e7 00060000 		.4byte	.LASF137
 1775 09eb 0F       		.byte	0xf
 1776 09ec C7       		.byte	0xc7
 1777 09ed 2B090000 		.4byte	0x92b
 1778 09f1 04       		.uleb128 0x4
 1779 09f2 24020000 		.4byte	.LASF138
 1780 09f6 10       		.byte	0x10
 1781 09f7 16       		.byte	0x16
 1782 09f8 49000000 		.4byte	0x49
 1783 09fc 04       		.uleb128 0x4
 1784 09fd 77030000 		.4byte	.LASF139
 1785 0a01 10       		.byte	0x10
 1786 0a02 1B       		.byte	0x1b
 1787 0a03 62000000 		.4byte	0x62
 1788 0a07 04       		.uleb128 0x4
 1789 0a08 DD010000 		.4byte	.LASF140
 1790 0a0c 10       		.byte	0x10
 1791 0a0d 21       		.byte	0x21
 1792 0a0e 86000000 		.4byte	0x86
 1793 0a12 04       		.uleb128 0x4
 1794 0a13 C2040000 		.4byte	.LASF141
 1795 0a17 11       		.byte	0x11
 1796 0a18 0E       		.byte	0xe
 1797 0a19 F1090000 		.4byte	0x9f1
 1798 0a1d 16       		.uleb128 0x16
 1799 0a1e 01       		.byte	0x1
 1800 0a1f 11       		.byte	0x11
 1801 0a20 11       		.byte	0x11
 1802 0a21 440A0000 		.4byte	0xa44
 1803 0a25 17       		.uleb128 0x17
 1804 0a26 7C030000 		.4byte	.LASF142
 1805 0a2a 00       		.sleb128 0
 1806 0a2b 17       		.uleb128 0x17
 1807 0a2c 6F060000 		.4byte	.LASF143
 1808 0a30 01       		.sleb128 1
 1809 0a31 17       		.uleb128 0x17
 1810 0a32 15000000 		.4byte	.LASF144
 1811 0a36 02       		.sleb128 2
 1812 0a37 17       		.uleb128 0x17
 1813 0a38 8B000000 		.4byte	.LASF145
 1814 0a3c 03       		.sleb128 3
 1815 0a3d 17       		.uleb128 0x17
 1816 0a3e B4010000 		.4byte	.LASF146
 1817 0a42 04       		.sleb128 4
ARM GAS  /var/folders/dt/0wfd0knj7gs46m8vwfzktm600000gn/T//ccoubv62.s 			page 33


 1818 0a43 00       		.byte	0
 1819 0a44 04       		.uleb128 0x4
 1820 0a45 3B050000 		.4byte	.LASF147
 1821 0a49 11       		.byte	0x11
 1822 0a4a 17       		.byte	0x17
 1823 0a4b 1D0A0000 		.4byte	0xa1d
 1824 0a4f 19       		.uleb128 0x19
 1825 0a50 01       		.byte	0x1
 1826 0a51 1A050000 		.4byte	.LASF148
 1827 0a55 01       		.byte	0x1
 1828 0a56 24       		.byte	0x24
 1829 0a57 01       		.byte	0x1
 1830 0a58 120A0000 		.4byte	0xa12
 1831 0a5c 00000000 		.4byte	.LFB62
 1832 0a60 24000000 		.4byte	.LFE62
 1833 0a64 00000000 		.4byte	.LLST0
 1834 0a68 01       		.byte	0x1
 1835 0a69 8C0A0000 		.4byte	0xa8c
 1836 0a6d 1A       		.uleb128 0x1a
 1837 0a6e 64727600 		.ascii	"drv\000"
 1838 0a72 01       		.byte	0x1
 1839 0a73 25       		.byte	0x25
 1840 0a74 F1090000 		.4byte	0x9f1
 1841 0a78 20000000 		.4byte	.LLST1
 1842 0a7c 1B       		.uleb128 0x1b
 1843 0a7d 29010000 		.4byte	.LASF150
 1844 0a81 01       		.byte	0x1
 1845 0a82 28       		.byte	0x28
 1846 0a83 120A0000 		.4byte	0xa12
 1847 0a87 41000000 		.4byte	.LLST2
 1848 0a8b 00       		.byte	0
 1849 0a8c 19       		.uleb128 0x19
 1850 0a8d 01       		.byte	0x1
 1851 0a8e 6E020000 		.4byte	.LASF149
 1852 0a92 01       		.byte	0x1
 1853 0a93 47       		.byte	0x47
 1854 0a94 01       		.byte	0x1
 1855 0a95 120A0000 		.4byte	0xa12
 1856 0a99 00000000 		.4byte	.LFB63
 1857 0a9d 24000000 		.4byte	.LFE63
 1858 0aa1 55000000 		.4byte	.LLST3
 1859 0aa5 01       		.byte	0x1
 1860 0aa6 C90A0000 		.4byte	0xac9
 1861 0aaa 1A       		.uleb128 0x1a
 1862 0aab 64727600 		.ascii	"drv\000"
 1863 0aaf 01       		.byte	0x1
 1864 0ab0 48       		.byte	0x48
 1865 0ab1 F1090000 		.4byte	0x9f1
 1866 0ab5 75000000 		.4byte	.LLST4
 1867 0ab9 1B       		.uleb128 0x1b
 1868 0aba 29010000 		.4byte	.LASF150
 1869 0abe 01       		.byte	0x1
 1870 0abf 4B       		.byte	0x4b
 1871 0ac0 120A0000 		.4byte	0xa12
 1872 0ac4 96000000 		.4byte	.LLST5
 1873 0ac8 00       		.byte	0
 1874 0ac9 1C       		.uleb128 0x1c
ARM GAS  /var/folders/dt/0wfd0knj7gs46m8vwfzktm600000gn/T//ccoubv62.s 			page 34


 1875 0aca 01       		.byte	0x1
 1876 0acb 3B030000 		.4byte	.LASF151
 1877 0acf 01       		.byte	0x1
 1878 0ad0 6A       		.byte	0x6a
 1879 0ad1 01       		.byte	0x1
 1880 0ad2 440A0000 		.4byte	0xa44
 1881 0ad6 00000000 		.4byte	.LFB64
 1882 0ada 5C000000 		.4byte	.LFE64
 1883 0ade AA000000 		.4byte	.LLST6
 1884 0ae2 01       		.byte	0x1
 1885 0ae3 560B0000 		.4byte	0xb56
 1886 0ae7 1A       		.uleb128 0x1a
 1887 0ae8 64727600 		.ascii	"drv\000"
 1888 0aec 01       		.byte	0x1
 1889 0aed 6B       		.byte	0x6b
 1890 0aee F1090000 		.4byte	0x9f1
 1891 0af2 D6000000 		.4byte	.LLST7
 1892 0af6 1D       		.uleb128 0x1d
 1893 0af7 CA040000 		.4byte	.LASF152
 1894 0afb 01       		.byte	0x1
 1895 0afc 6C       		.byte	0x6c
 1896 0afd 560B0000 		.4byte	0xb56
 1897 0b01 10010000 		.4byte	.LLST8
 1898 0b05 1D       		.uleb128 0x1d
 1899 0b06 4A020000 		.4byte	.LASF153
 1900 0b0a 01       		.byte	0x1
 1901 0b0b 6D       		.byte	0x6d
 1902 0b0c 070A0000 		.4byte	0xa07
 1903 0b10 5D010000 		.4byte	.LLST9
 1904 0b14 1D       		.uleb128 0x1d
 1905 0b15 0F000000 		.4byte	.LASF154
 1906 0b19 01       		.byte	0x1
 1907 0b1a 6E       		.byte	0x6e
 1908 0b1b F1090000 		.4byte	0x9f1
 1909 0b1f 97010000 		.4byte	.LLST10
 1910 0b23 1E       		.uleb128 0x1e
 1911 0b24 22000000 		.4byte	.LVL16
 1912 0b28 7B0C0000 		.4byte	0xc7b
 1913 0b2c 380B0000 		.4byte	0xb38
 1914 0b30 1F       		.uleb128 0x1f
 1915 0b31 01       		.byte	0x1
 1916 0b32 51       		.byte	0x51
 1917 0b33 03       		.byte	0x3
 1918 0b34 F3       		.byte	0xf3
 1919 0b35 01       		.uleb128 0x1
 1920 0b36 52       		.byte	0x52
 1921 0b37 00       		.byte	0
 1922 0b38 1E       		.uleb128 0x1e
 1923 0b39 3A000000 		.4byte	.LVL20
 1924 0b3d 9E0C0000 		.4byte	0xc9e
 1925 0b41 4C0B0000 		.4byte	0xb4c
 1926 0b45 1F       		.uleb128 0x1f
 1927 0b46 01       		.byte	0x1
 1928 0b47 51       		.byte	0x51
 1929 0b48 02       		.byte	0x2
 1930 0b49 74       		.byte	0x74
 1931 0b4a 00       		.sleb128 0
ARM GAS  /var/folders/dt/0wfd0knj7gs46m8vwfzktm600000gn/T//ccoubv62.s 			page 35


 1932 0b4b 00       		.byte	0
 1933 0b4c 20       		.uleb128 0x20
 1934 0b4d 50000000 		.4byte	.LVL24
 1935 0b51 BB0C0000 		.4byte	0xcbb
 1936 0b55 00       		.byte	0
 1937 0b56 09       		.uleb128 0x9
 1938 0b57 04       		.byte	0x4
 1939 0b58 F1090000 		.4byte	0x9f1
 1940 0b5c 19       		.uleb128 0x19
 1941 0b5d 01       		.byte	0x1
 1942 0b5e C5050000 		.4byte	.LASF155
 1943 0b62 01       		.byte	0x1
 1944 0b63 93       		.byte	0x93
 1945 0b64 01       		.byte	0x1
 1946 0b65 440A0000 		.4byte	0xa44
 1947 0b69 00000000 		.4byte	.LFB65
 1948 0b6d 6C000000 		.4byte	.LFE65
 1949 0b71 E9010000 		.4byte	.LLST11
 1950 0b75 01       		.byte	0x1
 1951 0b76 F50B0000 		.4byte	0xbf5
 1952 0b7a 1A       		.uleb128 0x1a
 1953 0b7b 64727600 		.ascii	"drv\000"
 1954 0b7f 01       		.byte	0x1
 1955 0b80 94       		.byte	0x94
 1956 0b81 F1090000 		.4byte	0x9f1
 1957 0b85 15020000 		.4byte	.LLST12
 1958 0b89 1D       		.uleb128 0x1d
 1959 0b8a CA040000 		.4byte	.LASF152
 1960 0b8e 01       		.byte	0x1
 1961 0b8f 95       		.byte	0x95
 1962 0b90 F50B0000 		.4byte	0xbf5
 1963 0b94 4F020000 		.4byte	.LLST13
 1964 0b98 1D       		.uleb128 0x1d
 1965 0b99 4A020000 		.4byte	.LASF153
 1966 0b9d 01       		.byte	0x1
 1967 0b9e 96       		.byte	0x96
 1968 0b9f 070A0000 		.4byte	0xa07
 1969 0ba3 9C020000 		.4byte	.LLST14
 1970 0ba7 1D       		.uleb128 0x1d
 1971 0ba8 0F000000 		.4byte	.LASF154
 1972 0bac 01       		.byte	0x1
 1973 0bad 97       		.byte	0x97
 1974 0bae F1090000 		.4byte	0x9f1
 1975 0bb2 D6020000 		.4byte	.LLST15
 1976 0bb6 1E       		.uleb128 0x1e
 1977 0bb7 32000000 		.4byte	.LVL33
 1978 0bbb D30C0000 		.4byte	0xcd3
 1979 0bbf CA0B0000 		.4byte	0xbca
 1980 0bc3 1F       		.uleb128 0x1f
 1981 0bc4 01       		.byte	0x1
 1982 0bc5 50       		.byte	0x50
 1983 0bc6 02       		.byte	0x2
 1984 0bc7 75       		.byte	0x75
 1985 0bc8 00       		.sleb128 0
 1986 0bc9 00       		.byte	0
 1987 0bca 1E       		.uleb128 0x1e
 1988 0bcb 4A000000 		.4byte	.LVL37
ARM GAS  /var/folders/dt/0wfd0knj7gs46m8vwfzktm600000gn/T//ccoubv62.s 			page 36


 1989 0bcf F00C0000 		.4byte	0xcf0
 1990 0bd3 E40B0000 		.4byte	0xbe4
 1991 0bd7 1F       		.uleb128 0x1f
 1992 0bd8 01       		.byte	0x1
 1993 0bd9 51       		.byte	0x51
 1994 0bda 02       		.byte	0x2
 1995 0bdb 74       		.byte	0x74
 1996 0bdc 00       		.sleb128 0
 1997 0bdd 1F       		.uleb128 0x1f
 1998 0bde 01       		.byte	0x1
 1999 0bdf 50       		.byte	0x50
 2000 0be0 02       		.byte	0x2
 2001 0be1 75       		.byte	0x75
 2002 0be2 00       		.sleb128 0
 2003 0be3 00       		.byte	0
 2004 0be4 21       		.uleb128 0x21
 2005 0be5 60000000 		.4byte	.LVL41
 2006 0be9 0D0D0000 		.4byte	0xd0d
 2007 0bed 1F       		.uleb128 0x1f
 2008 0bee 01       		.byte	0x1
 2009 0bef 50       		.byte	0x50
 2010 0bf0 02       		.byte	0x2
 2011 0bf1 75       		.byte	0x75
 2012 0bf2 00       		.sleb128 0
 2013 0bf3 00       		.byte	0
 2014 0bf4 00       		.byte	0
 2015 0bf5 09       		.uleb128 0x9
 2016 0bf6 04       		.byte	0x4
 2017 0bf7 FB0B0000 		.4byte	0xbfb
 2018 0bfb 12       		.uleb128 0x12
 2019 0bfc F1090000 		.4byte	0x9f1
 2020 0c00 22       		.uleb128 0x22
 2021 0c01 01       		.byte	0x1
 2022 0c02 29030000 		.4byte	.LASF156
 2023 0c06 01       		.byte	0x1
 2024 0c07 BE       		.byte	0xbe
 2025 0c08 01       		.byte	0x1
 2026 0c09 440A0000 		.4byte	0xa44
 2027 0c0d 00000000 		.4byte	.LFB66
 2028 0c11 18000000 		.4byte	.LFE66
 2029 0c15 02       		.byte	0x2
 2030 0c16 7D       		.byte	0x7d
 2031 0c17 00       		.sleb128 0
 2032 0c18 01       		.byte	0x1
 2033 0c19 470C0000 		.4byte	0xc47
 2034 0c1d 1A       		.uleb128 0x1a
 2035 0c1e 64727600 		.ascii	"drv\000"
 2036 0c22 01       		.byte	0x1
 2037 0c23 BF       		.byte	0xbf
 2038 0c24 F1090000 		.4byte	0x9f1
 2039 0c28 28030000 		.4byte	.LLST16
 2040 0c2c 23       		.uleb128 0x23
 2041 0c2d 1F020000 		.4byte	.LASF157
 2042 0c31 01       		.byte	0x1
 2043 0c32 C0       		.byte	0xc0
 2044 0c33 F1090000 		.4byte	0x9f1
 2045 0c37 01       		.byte	0x1
ARM GAS  /var/folders/dt/0wfd0knj7gs46m8vwfzktm600000gn/T//ccoubv62.s 			page 37


 2046 0c38 51       		.byte	0x51
 2047 0c39 23       		.uleb128 0x23
 2048 0c3a CA040000 		.4byte	.LASF152
 2049 0c3e 01       		.byte	0x1
 2050 0c3f C1       		.byte	0xc1
 2051 0c40 83020000 		.4byte	0x283
 2052 0c44 01       		.byte	0x1
 2053 0c45 52       		.byte	0x52
 2054 0c46 00       		.byte	0
 2055 0c47 24       		.uleb128 0x24
 2056 0c48 01       		.byte	0x1
 2057 0c49 85010000 		.4byte	.LASF168
 2058 0c4d 01       		.byte	0x1
 2059 0c4e E0       		.byte	0xe0
 2060 0c4f 01       		.byte	0x1
 2061 0c50 070A0000 		.4byte	0xa07
 2062 0c54 00000000 		.4byte	.LFB67
 2063 0c58 04000000 		.4byte	.LFE67
 2064 0c5c 02       		.byte	0x2
 2065 0c5d 7D       		.byte	0x7d
 2066 0c5e 00       		.sleb128 0
 2067 0c5f 01       		.byte	0x1
 2068 0c60 25       		.uleb128 0x25
 2069 0c61 07010000 		.4byte	.LASF158
 2070 0c65 12       		.byte	0x12
 2071 0c66 9404     		.2byte	0x494
 2072 0c68 E0040000 		.4byte	0x4e0
 2073 0c6c 01       		.byte	0x1
 2074 0c6d 01       		.byte	0x1
 2075 0c6e 26       		.uleb128 0x26
 2076 0c6f 13020000 		.4byte	.LASF159
 2077 0c73 01       		.byte	0x1
 2078 0c74 12       		.byte	0x12
 2079 0c75 E6090000 		.4byte	0x9e6
 2080 0c79 01       		.byte	0x1
 2081 0c7a 01       		.byte	0x1
 2082 0c7b 27       		.uleb128 0x27
 2083 0c7c 01       		.byte	0x1
 2084 0c7d 8B030000 		.4byte	.LASF160
 2085 0c81 0F       		.byte	0xf
 2086 0c82 F7       		.byte	0xf7
 2087 0c83 01       		.byte	0x1
 2088 0c84 A6000000 		.4byte	0xa6
 2089 0c88 01       		.byte	0x1
 2090 0c89 980C0000 		.4byte	0xc98
 2091 0c8d 0F       		.uleb128 0xf
 2092 0c8e 980C0000 		.4byte	0xc98
 2093 0c92 0F       		.uleb128 0xf
 2094 0c93 7B000000 		.4byte	0x7b
 2095 0c97 00       		.byte	0
 2096 0c98 09       		.uleb128 0x9
 2097 0c99 04       		.byte	0x4
 2098 0c9a E6090000 		.4byte	0x9e6
 2099 0c9e 27       		.uleb128 0x27
 2100 0c9f 01       		.byte	0x1
 2101 0ca0 E4000000 		.4byte	.LASF161
 2102 0ca4 0F       		.byte	0xf
ARM GAS  /var/folders/dt/0wfd0knj7gs46m8vwfzktm600000gn/T//ccoubv62.s 			page 38


 2103 0ca5 F8       		.byte	0xf8
 2104 0ca6 01       		.byte	0x1
 2105 0ca7 A6000000 		.4byte	0xa6
 2106 0cab 01       		.byte	0x1
 2107 0cac BB0C0000 		.4byte	0xcbb
 2108 0cb0 0F       		.uleb128 0xf
 2109 0cb1 980C0000 		.4byte	0xc98
 2110 0cb5 0F       		.uleb128 0xf
 2111 0cb6 CA040000 		.4byte	0x4ca
 2112 0cba 00       		.byte	0
 2113 0cbb 27       		.uleb128 0x27
 2114 0cbc 01       		.byte	0x1
 2115 0cbd 9F060000 		.4byte	.LASF162
 2116 0cc1 0F       		.byte	0xf
 2117 0cc2 F9       		.byte	0xf9
 2118 0cc3 01       		.byte	0x1
 2119 0cc4 A6000000 		.4byte	0xa6
 2120 0cc8 01       		.byte	0x1
 2121 0cc9 D30C0000 		.4byte	0xcd3
 2122 0ccd 0F       		.uleb128 0xf
 2123 0cce 980C0000 		.4byte	0xc98
 2124 0cd2 00       		.byte	0
 2125 0cd3 27       		.uleb128 0x27
 2126 0cd4 01       		.byte	0x1
 2127 0cd5 42060000 		.4byte	.LASF163
 2128 0cd9 0F       		.byte	0xf
 2129 0cda FA       		.byte	0xfa
 2130 0cdb 01       		.byte	0x1
 2131 0cdc A6000000 		.4byte	0xa6
 2132 0ce0 01       		.byte	0x1
 2133 0ce1 F00C0000 		.4byte	0xcf0
 2134 0ce5 0F       		.uleb128 0xf
 2135 0ce6 980C0000 		.4byte	0xc98
 2136 0cea 0F       		.uleb128 0xf
 2137 0ceb 7B000000 		.4byte	0x7b
 2138 0cef 00       		.byte	0
 2139 0cf0 27       		.uleb128 0x27
 2140 0cf1 01       		.byte	0x1
 2141 0cf2 E5040000 		.4byte	.LASF164
 2142 0cf6 0F       		.byte	0xf
 2143 0cf7 FB       		.byte	0xfb
 2144 0cf8 01       		.byte	0x1
 2145 0cf9 A6000000 		.4byte	0xa6
 2146 0cfd 01       		.byte	0x1
 2147 0cfe 0D0D0000 		.4byte	0xd0d
 2148 0d02 0F       		.uleb128 0xf
 2149 0d03 980C0000 		.4byte	0xc98
 2150 0d07 0F       		.uleb128 0xf
 2151 0d08 D0040000 		.4byte	0x4d0
 2152 0d0c 00       		.byte	0
 2153 0d0d 28       		.uleb128 0x28
 2154 0d0e 01       		.byte	0x1
 2155 0d0f D2030000 		.4byte	.LASF169
 2156 0d13 0F       		.byte	0xf
 2157 0d14 FC       		.byte	0xfc
 2158 0d15 01       		.byte	0x1
 2159 0d16 A6000000 		.4byte	0xa6
ARM GAS  /var/folders/dt/0wfd0knj7gs46m8vwfzktm600000gn/T//ccoubv62.s 			page 39


 2160 0d1a 01       		.byte	0x1
 2161 0d1b 0F       		.uleb128 0xf
 2162 0d1c 980C0000 		.4byte	0xc98
 2163 0d20 00       		.byte	0
 2164 0d21 00       		.byte	0
 2165              		.section	.debug_abbrev,"",%progbits
 2166              	.Ldebug_abbrev0:
 2167 0000 01       		.uleb128 0x1
 2168 0001 11       		.uleb128 0x11
 2169 0002 01       		.byte	0x1
 2170 0003 25       		.uleb128 0x25
 2171 0004 0E       		.uleb128 0xe
 2172 0005 13       		.uleb128 0x13
 2173 0006 0B       		.uleb128 0xb
 2174 0007 03       		.uleb128 0x3
 2175 0008 0E       		.uleb128 0xe
 2176 0009 1B       		.uleb128 0x1b
 2177 000a 0E       		.uleb128 0xe
 2178 000b 55       		.uleb128 0x55
 2179 000c 06       		.uleb128 0x6
 2180 000d 11       		.uleb128 0x11
 2181 000e 01       		.uleb128 0x1
 2182 000f 52       		.uleb128 0x52
 2183 0010 01       		.uleb128 0x1
 2184 0011 10       		.uleb128 0x10
 2185 0012 06       		.uleb128 0x6
 2186 0013 00       		.byte	0
 2187 0014 00       		.byte	0
 2188 0015 02       		.uleb128 0x2
 2189 0016 24       		.uleb128 0x24
 2190 0017 00       		.byte	0
 2191 0018 0B       		.uleb128 0xb
 2192 0019 0B       		.uleb128 0xb
 2193 001a 3E       		.uleb128 0x3e
 2194 001b 0B       		.uleb128 0xb
 2195 001c 03       		.uleb128 0x3
 2196 001d 08       		.uleb128 0x8
 2197 001e 00       		.byte	0
 2198 001f 00       		.byte	0
 2199 0020 03       		.uleb128 0x3
 2200 0021 24       		.uleb128 0x24
 2201 0022 00       		.byte	0
 2202 0023 0B       		.uleb128 0xb
 2203 0024 0B       		.uleb128 0xb
 2204 0025 3E       		.uleb128 0x3e
 2205 0026 0B       		.uleb128 0xb
 2206 0027 03       		.uleb128 0x3
 2207 0028 0E       		.uleb128 0xe
 2208 0029 00       		.byte	0
 2209 002a 00       		.byte	0
 2210 002b 04       		.uleb128 0x4
 2211 002c 16       		.uleb128 0x16
 2212 002d 00       		.byte	0
 2213 002e 03       		.uleb128 0x3
 2214 002f 0E       		.uleb128 0xe
 2215 0030 3A       		.uleb128 0x3a
 2216 0031 0B       		.uleb128 0xb
ARM GAS  /var/folders/dt/0wfd0knj7gs46m8vwfzktm600000gn/T//ccoubv62.s 			page 40


 2217 0032 3B       		.uleb128 0x3b
 2218 0033 0B       		.uleb128 0xb
 2219 0034 49       		.uleb128 0x49
 2220 0035 13       		.uleb128 0x13
 2221 0036 00       		.byte	0
 2222 0037 00       		.byte	0
 2223 0038 05       		.uleb128 0x5
 2224 0039 13       		.uleb128 0x13
 2225 003a 01       		.byte	0x1
 2226 003b 03       		.uleb128 0x3
 2227 003c 0E       		.uleb128 0xe
 2228 003d 0B       		.uleb128 0xb
 2229 003e 0B       		.uleb128 0xb
 2230 003f 3A       		.uleb128 0x3a
 2231 0040 0B       		.uleb128 0xb
 2232 0041 3B       		.uleb128 0x3b
 2233 0042 0B       		.uleb128 0xb
 2234 0043 01       		.uleb128 0x1
 2235 0044 13       		.uleb128 0x13
 2236 0045 00       		.byte	0
 2237 0046 00       		.byte	0
 2238 0047 06       		.uleb128 0x6
 2239 0048 0D       		.uleb128 0xd
 2240 0049 00       		.byte	0
 2241 004a 03       		.uleb128 0x3
 2242 004b 0E       		.uleb128 0xe
 2243 004c 3A       		.uleb128 0x3a
 2244 004d 0B       		.uleb128 0xb
 2245 004e 3B       		.uleb128 0x3b
 2246 004f 0B       		.uleb128 0xb
 2247 0050 49       		.uleb128 0x49
 2248 0051 13       		.uleb128 0x13
 2249 0052 38       		.uleb128 0x38
 2250 0053 0A       		.uleb128 0xa
 2251 0054 00       		.byte	0
 2252 0055 00       		.byte	0
 2253 0056 07       		.uleb128 0x7
 2254 0057 0D       		.uleb128 0xd
 2255 0058 00       		.byte	0
 2256 0059 03       		.uleb128 0x3
 2257 005a 08       		.uleb128 0x8
 2258 005b 3A       		.uleb128 0x3a
 2259 005c 0B       		.uleb128 0xb
 2260 005d 3B       		.uleb128 0x3b
 2261 005e 0B       		.uleb128 0xb
 2262 005f 49       		.uleb128 0x49
 2263 0060 13       		.uleb128 0x13
 2264 0061 38       		.uleb128 0x38
 2265 0062 0A       		.uleb128 0xa
 2266 0063 00       		.byte	0
 2267 0064 00       		.byte	0
 2268 0065 08       		.uleb128 0x8
 2269 0066 13       		.uleb128 0x13
 2270 0067 01       		.byte	0x1
 2271 0068 0B       		.uleb128 0xb
 2272 0069 0B       		.uleb128 0xb
 2273 006a 3A       		.uleb128 0x3a
ARM GAS  /var/folders/dt/0wfd0knj7gs46m8vwfzktm600000gn/T//ccoubv62.s 			page 41


 2274 006b 0B       		.uleb128 0xb
 2275 006c 3B       		.uleb128 0x3b
 2276 006d 0B       		.uleb128 0xb
 2277 006e 01       		.uleb128 0x1
 2278 006f 13       		.uleb128 0x13
 2279 0070 00       		.byte	0
 2280 0071 00       		.byte	0
 2281 0072 09       		.uleb128 0x9
 2282 0073 0F       		.uleb128 0xf
 2283 0074 00       		.byte	0
 2284 0075 0B       		.uleb128 0xb
 2285 0076 0B       		.uleb128 0xb
 2286 0077 49       		.uleb128 0x49
 2287 0078 13       		.uleb128 0x13
 2288 0079 00       		.byte	0
 2289 007a 00       		.byte	0
 2290 007b 0A       		.uleb128 0xa
 2291 007c 0F       		.uleb128 0xf
 2292 007d 00       		.byte	0
 2293 007e 0B       		.uleb128 0xb
 2294 007f 0B       		.uleb128 0xb
 2295 0080 00       		.byte	0
 2296 0081 00       		.byte	0
 2297 0082 0B       		.uleb128 0xb
 2298 0083 0D       		.uleb128 0xd
 2299 0084 00       		.byte	0
 2300 0085 03       		.uleb128 0x3
 2301 0086 08       		.uleb128 0x8
 2302 0087 3A       		.uleb128 0x3a
 2303 0088 0B       		.uleb128 0xb
 2304 0089 3B       		.uleb128 0x3b
 2305 008a 05       		.uleb128 0x5
 2306 008b 49       		.uleb128 0x49
 2307 008c 13       		.uleb128 0x13
 2308 008d 38       		.uleb128 0x38
 2309 008e 0A       		.uleb128 0xa
 2310 008f 00       		.byte	0
 2311 0090 00       		.byte	0
 2312 0091 0C       		.uleb128 0xc
 2313 0092 13       		.uleb128 0x13
 2314 0093 01       		.byte	0x1
 2315 0094 03       		.uleb128 0x3
 2316 0095 0E       		.uleb128 0xe
 2317 0096 0B       		.uleb128 0xb
 2318 0097 0B       		.uleb128 0xb
 2319 0098 3A       		.uleb128 0x3a
 2320 0099 0B       		.uleb128 0xb
 2321 009a 3B       		.uleb128 0x3b
 2322 009b 05       		.uleb128 0x5
 2323 009c 01       		.uleb128 0x1
 2324 009d 13       		.uleb128 0x13
 2325 009e 00       		.byte	0
 2326 009f 00       		.byte	0
 2327 00a0 0D       		.uleb128 0xd
 2328 00a1 35       		.uleb128 0x35
 2329 00a2 00       		.byte	0
 2330 00a3 49       		.uleb128 0x49
ARM GAS  /var/folders/dt/0wfd0knj7gs46m8vwfzktm600000gn/T//ccoubv62.s 			page 42


 2331 00a4 13       		.uleb128 0x13
 2332 00a5 00       		.byte	0
 2333 00a6 00       		.byte	0
 2334 00a7 0E       		.uleb128 0xe
 2335 00a8 15       		.uleb128 0x15
 2336 00a9 01       		.byte	0x1
 2337 00aa 27       		.uleb128 0x27
 2338 00ab 0C       		.uleb128 0xc
 2339 00ac 01       		.uleb128 0x1
 2340 00ad 13       		.uleb128 0x13
 2341 00ae 00       		.byte	0
 2342 00af 00       		.byte	0
 2343 00b0 0F       		.uleb128 0xf
 2344 00b1 05       		.uleb128 0x5
 2345 00b2 00       		.byte	0
 2346 00b3 49       		.uleb128 0x49
 2347 00b4 13       		.uleb128 0x13
 2348 00b5 00       		.byte	0
 2349 00b6 00       		.byte	0
 2350 00b7 10       		.uleb128 0x10
 2351 00b8 17       		.uleb128 0x17
 2352 00b9 01       		.byte	0x1
 2353 00ba 0B       		.uleb128 0xb
 2354 00bb 0B       		.uleb128 0xb
 2355 00bc 3A       		.uleb128 0x3a
 2356 00bd 0B       		.uleb128 0xb
 2357 00be 3B       		.uleb128 0x3b
 2358 00bf 0B       		.uleb128 0xb
 2359 00c0 01       		.uleb128 0x1
 2360 00c1 13       		.uleb128 0x13
 2361 00c2 00       		.byte	0
 2362 00c3 00       		.byte	0
 2363 00c4 11       		.uleb128 0x11
 2364 00c5 0D       		.uleb128 0xd
 2365 00c6 00       		.byte	0
 2366 00c7 03       		.uleb128 0x3
 2367 00c8 0E       		.uleb128 0xe
 2368 00c9 3A       		.uleb128 0x3a
 2369 00ca 0B       		.uleb128 0xb
 2370 00cb 3B       		.uleb128 0x3b
 2371 00cc 0B       		.uleb128 0xb
 2372 00cd 49       		.uleb128 0x49
 2373 00ce 13       		.uleb128 0x13
 2374 00cf 00       		.byte	0
 2375 00d0 00       		.byte	0
 2376 00d1 12       		.uleb128 0x12
 2377 00d2 26       		.uleb128 0x26
 2378 00d3 00       		.byte	0
 2379 00d4 49       		.uleb128 0x49
 2380 00d5 13       		.uleb128 0x13
 2381 00d6 00       		.byte	0
 2382 00d7 00       		.byte	0
 2383 00d8 13       		.uleb128 0x13
 2384 00d9 13       		.uleb128 0x13
 2385 00da 01       		.byte	0x1
 2386 00db 0B       		.uleb128 0xb
 2387 00dc 0B       		.uleb128 0xb
ARM GAS  /var/folders/dt/0wfd0knj7gs46m8vwfzktm600000gn/T//ccoubv62.s 			page 43


 2388 00dd 3A       		.uleb128 0x3a
 2389 00de 0B       		.uleb128 0xb
 2390 00df 3B       		.uleb128 0x3b
 2391 00e0 05       		.uleb128 0x5
 2392 00e1 01       		.uleb128 0x1
 2393 00e2 13       		.uleb128 0x13
 2394 00e3 00       		.byte	0
 2395 00e4 00       		.byte	0
 2396 00e5 14       		.uleb128 0x14
 2397 00e6 0D       		.uleb128 0xd
 2398 00e7 00       		.byte	0
 2399 00e8 03       		.uleb128 0x3
 2400 00e9 0E       		.uleb128 0xe
 2401 00ea 3A       		.uleb128 0x3a
 2402 00eb 0B       		.uleb128 0xb
 2403 00ec 3B       		.uleb128 0x3b
 2404 00ed 05       		.uleb128 0x5
 2405 00ee 49       		.uleb128 0x49
 2406 00ef 13       		.uleb128 0x13
 2407 00f0 38       		.uleb128 0x38
 2408 00f1 0A       		.uleb128 0xa
 2409 00f2 00       		.byte	0
 2410 00f3 00       		.byte	0
 2411 00f4 15       		.uleb128 0x15
 2412 00f5 16       		.uleb128 0x16
 2413 00f6 00       		.byte	0
 2414 00f7 03       		.uleb128 0x3
 2415 00f8 0E       		.uleb128 0xe
 2416 00f9 3A       		.uleb128 0x3a
 2417 00fa 0B       		.uleb128 0xb
 2418 00fb 3B       		.uleb128 0x3b
 2419 00fc 05       		.uleb128 0x5
 2420 00fd 49       		.uleb128 0x49
 2421 00fe 13       		.uleb128 0x13
 2422 00ff 00       		.byte	0
 2423 0100 00       		.byte	0
 2424 0101 16       		.uleb128 0x16
 2425 0102 04       		.uleb128 0x4
 2426 0103 01       		.byte	0x1
 2427 0104 0B       		.uleb128 0xb
 2428 0105 0B       		.uleb128 0xb
 2429 0106 3A       		.uleb128 0x3a
 2430 0107 0B       		.uleb128 0xb
 2431 0108 3B       		.uleb128 0x3b
 2432 0109 0B       		.uleb128 0xb
 2433 010a 01       		.uleb128 0x1
 2434 010b 13       		.uleb128 0x13
 2435 010c 00       		.byte	0
 2436 010d 00       		.byte	0
 2437 010e 17       		.uleb128 0x17
 2438 010f 28       		.uleb128 0x28
 2439 0110 00       		.byte	0
 2440 0111 03       		.uleb128 0x3
 2441 0112 0E       		.uleb128 0xe
 2442 0113 1C       		.uleb128 0x1c
 2443 0114 0D       		.uleb128 0xd
 2444 0115 00       		.byte	0
ARM GAS  /var/folders/dt/0wfd0knj7gs46m8vwfzktm600000gn/T//ccoubv62.s 			page 44


 2445 0116 00       		.byte	0
 2446 0117 18       		.uleb128 0x18
 2447 0118 15       		.uleb128 0x15
 2448 0119 00       		.byte	0
 2449 011a 27       		.uleb128 0x27
 2450 011b 0C       		.uleb128 0xc
 2451 011c 49       		.uleb128 0x49
 2452 011d 13       		.uleb128 0x13
 2453 011e 00       		.byte	0
 2454 011f 00       		.byte	0
 2455 0120 19       		.uleb128 0x19
 2456 0121 2E       		.uleb128 0x2e
 2457 0122 01       		.byte	0x1
 2458 0123 3F       		.uleb128 0x3f
 2459 0124 0C       		.uleb128 0xc
 2460 0125 03       		.uleb128 0x3
 2461 0126 0E       		.uleb128 0xe
 2462 0127 3A       		.uleb128 0x3a
 2463 0128 0B       		.uleb128 0xb
 2464 0129 3B       		.uleb128 0x3b
 2465 012a 0B       		.uleb128 0xb
 2466 012b 27       		.uleb128 0x27
 2467 012c 0C       		.uleb128 0xc
 2468 012d 49       		.uleb128 0x49
 2469 012e 13       		.uleb128 0x13
 2470 012f 11       		.uleb128 0x11
 2471 0130 01       		.uleb128 0x1
 2472 0131 12       		.uleb128 0x12
 2473 0132 01       		.uleb128 0x1
 2474 0133 40       		.uleb128 0x40
 2475 0134 06       		.uleb128 0x6
 2476 0135 9642     		.uleb128 0x2116
 2477 0137 0C       		.uleb128 0xc
 2478 0138 01       		.uleb128 0x1
 2479 0139 13       		.uleb128 0x13
 2480 013a 00       		.byte	0
 2481 013b 00       		.byte	0
 2482 013c 1A       		.uleb128 0x1a
 2483 013d 05       		.uleb128 0x5
 2484 013e 00       		.byte	0
 2485 013f 03       		.uleb128 0x3
 2486 0140 08       		.uleb128 0x8
 2487 0141 3A       		.uleb128 0x3a
 2488 0142 0B       		.uleb128 0xb
 2489 0143 3B       		.uleb128 0x3b
 2490 0144 0B       		.uleb128 0xb
 2491 0145 49       		.uleb128 0x49
 2492 0146 13       		.uleb128 0x13
 2493 0147 02       		.uleb128 0x2
 2494 0148 06       		.uleb128 0x6
 2495 0149 00       		.byte	0
 2496 014a 00       		.byte	0
 2497 014b 1B       		.uleb128 0x1b
 2498 014c 34       		.uleb128 0x34
 2499 014d 00       		.byte	0
 2500 014e 03       		.uleb128 0x3
 2501 014f 0E       		.uleb128 0xe
ARM GAS  /var/folders/dt/0wfd0knj7gs46m8vwfzktm600000gn/T//ccoubv62.s 			page 45


 2502 0150 3A       		.uleb128 0x3a
 2503 0151 0B       		.uleb128 0xb
 2504 0152 3B       		.uleb128 0x3b
 2505 0153 0B       		.uleb128 0xb
 2506 0154 49       		.uleb128 0x49
 2507 0155 13       		.uleb128 0x13
 2508 0156 02       		.uleb128 0x2
 2509 0157 06       		.uleb128 0x6
 2510 0158 00       		.byte	0
 2511 0159 00       		.byte	0
 2512 015a 1C       		.uleb128 0x1c
 2513 015b 2E       		.uleb128 0x2e
 2514 015c 01       		.byte	0x1
 2515 015d 3F       		.uleb128 0x3f
 2516 015e 0C       		.uleb128 0xc
 2517 015f 03       		.uleb128 0x3
 2518 0160 0E       		.uleb128 0xe
 2519 0161 3A       		.uleb128 0x3a
 2520 0162 0B       		.uleb128 0xb
 2521 0163 3B       		.uleb128 0x3b
 2522 0164 0B       		.uleb128 0xb
 2523 0165 27       		.uleb128 0x27
 2524 0166 0C       		.uleb128 0xc
 2525 0167 49       		.uleb128 0x49
 2526 0168 13       		.uleb128 0x13
 2527 0169 11       		.uleb128 0x11
 2528 016a 01       		.uleb128 0x1
 2529 016b 12       		.uleb128 0x12
 2530 016c 01       		.uleb128 0x1
 2531 016d 40       		.uleb128 0x40
 2532 016e 06       		.uleb128 0x6
 2533 016f 9742     		.uleb128 0x2117
 2534 0171 0C       		.uleb128 0xc
 2535 0172 01       		.uleb128 0x1
 2536 0173 13       		.uleb128 0x13
 2537 0174 00       		.byte	0
 2538 0175 00       		.byte	0
 2539 0176 1D       		.uleb128 0x1d
 2540 0177 05       		.uleb128 0x5
 2541 0178 00       		.byte	0
 2542 0179 03       		.uleb128 0x3
 2543 017a 0E       		.uleb128 0xe
 2544 017b 3A       		.uleb128 0x3a
 2545 017c 0B       		.uleb128 0xb
 2546 017d 3B       		.uleb128 0x3b
 2547 017e 0B       		.uleb128 0xb
 2548 017f 49       		.uleb128 0x49
 2549 0180 13       		.uleb128 0x13
 2550 0181 02       		.uleb128 0x2
 2551 0182 06       		.uleb128 0x6
 2552 0183 00       		.byte	0
 2553 0184 00       		.byte	0
 2554 0185 1E       		.uleb128 0x1e
 2555 0186 898201   		.uleb128 0x4109
 2556 0189 01       		.byte	0x1
 2557 018a 11       		.uleb128 0x11
 2558 018b 01       		.uleb128 0x1
ARM GAS  /var/folders/dt/0wfd0knj7gs46m8vwfzktm600000gn/T//ccoubv62.s 			page 46


 2559 018c 31       		.uleb128 0x31
 2560 018d 13       		.uleb128 0x13
 2561 018e 01       		.uleb128 0x1
 2562 018f 13       		.uleb128 0x13
 2563 0190 00       		.byte	0
 2564 0191 00       		.byte	0
 2565 0192 1F       		.uleb128 0x1f
 2566 0193 8A8201   		.uleb128 0x410a
 2567 0196 00       		.byte	0
 2568 0197 02       		.uleb128 0x2
 2569 0198 0A       		.uleb128 0xa
 2570 0199 9142     		.uleb128 0x2111
 2571 019b 0A       		.uleb128 0xa
 2572 019c 00       		.byte	0
 2573 019d 00       		.byte	0
 2574 019e 20       		.uleb128 0x20
 2575 019f 898201   		.uleb128 0x4109
 2576 01a2 00       		.byte	0
 2577 01a3 11       		.uleb128 0x11
 2578 01a4 01       		.uleb128 0x1
 2579 01a5 31       		.uleb128 0x31
 2580 01a6 13       		.uleb128 0x13
 2581 01a7 00       		.byte	0
 2582 01a8 00       		.byte	0
 2583 01a9 21       		.uleb128 0x21
 2584 01aa 898201   		.uleb128 0x4109
 2585 01ad 01       		.byte	0x1
 2586 01ae 11       		.uleb128 0x11
 2587 01af 01       		.uleb128 0x1
 2588 01b0 31       		.uleb128 0x31
 2589 01b1 13       		.uleb128 0x13
 2590 01b2 00       		.byte	0
 2591 01b3 00       		.byte	0
 2592 01b4 22       		.uleb128 0x22
 2593 01b5 2E       		.uleb128 0x2e
 2594 01b6 01       		.byte	0x1
 2595 01b7 3F       		.uleb128 0x3f
 2596 01b8 0C       		.uleb128 0xc
 2597 01b9 03       		.uleb128 0x3
 2598 01ba 0E       		.uleb128 0xe
 2599 01bb 3A       		.uleb128 0x3a
 2600 01bc 0B       		.uleb128 0xb
 2601 01bd 3B       		.uleb128 0x3b
 2602 01be 0B       		.uleb128 0xb
 2603 01bf 27       		.uleb128 0x27
 2604 01c0 0C       		.uleb128 0xc
 2605 01c1 49       		.uleb128 0x49
 2606 01c2 13       		.uleb128 0x13
 2607 01c3 11       		.uleb128 0x11
 2608 01c4 01       		.uleb128 0x1
 2609 01c5 12       		.uleb128 0x12
 2610 01c6 01       		.uleb128 0x1
 2611 01c7 40       		.uleb128 0x40
 2612 01c8 0A       		.uleb128 0xa
 2613 01c9 9742     		.uleb128 0x2117
 2614 01cb 0C       		.uleb128 0xc
 2615 01cc 01       		.uleb128 0x1
ARM GAS  /var/folders/dt/0wfd0knj7gs46m8vwfzktm600000gn/T//ccoubv62.s 			page 47


 2616 01cd 13       		.uleb128 0x13
 2617 01ce 00       		.byte	0
 2618 01cf 00       		.byte	0
 2619 01d0 23       		.uleb128 0x23
 2620 01d1 05       		.uleb128 0x5
 2621 01d2 00       		.byte	0
 2622 01d3 03       		.uleb128 0x3
 2623 01d4 0E       		.uleb128 0xe
 2624 01d5 3A       		.uleb128 0x3a
 2625 01d6 0B       		.uleb128 0xb
 2626 01d7 3B       		.uleb128 0x3b
 2627 01d8 0B       		.uleb128 0xb
 2628 01d9 49       		.uleb128 0x49
 2629 01da 13       		.uleb128 0x13
 2630 01db 02       		.uleb128 0x2
 2631 01dc 0A       		.uleb128 0xa
 2632 01dd 00       		.byte	0
 2633 01de 00       		.byte	0
 2634 01df 24       		.uleb128 0x24
 2635 01e0 2E       		.uleb128 0x2e
 2636 01e1 00       		.byte	0
 2637 01e2 3F       		.uleb128 0x3f
 2638 01e3 0C       		.uleb128 0xc
 2639 01e4 03       		.uleb128 0x3
 2640 01e5 0E       		.uleb128 0xe
 2641 01e6 3A       		.uleb128 0x3a
 2642 01e7 0B       		.uleb128 0xb
 2643 01e8 3B       		.uleb128 0x3b
 2644 01e9 0B       		.uleb128 0xb
 2645 01ea 27       		.uleb128 0x27
 2646 01eb 0C       		.uleb128 0xc
 2647 01ec 49       		.uleb128 0x49
 2648 01ed 13       		.uleb128 0x13
 2649 01ee 11       		.uleb128 0x11
 2650 01ef 01       		.uleb128 0x1
 2651 01f0 12       		.uleb128 0x12
 2652 01f1 01       		.uleb128 0x1
 2653 01f2 40       		.uleb128 0x40
 2654 01f3 0A       		.uleb128 0xa
 2655 01f4 9742     		.uleb128 0x2117
 2656 01f6 0C       		.uleb128 0xc
 2657 01f7 00       		.byte	0
 2658 01f8 00       		.byte	0
 2659 01f9 25       		.uleb128 0x25
 2660 01fa 34       		.uleb128 0x34
 2661 01fb 00       		.byte	0
 2662 01fc 03       		.uleb128 0x3
 2663 01fd 0E       		.uleb128 0xe
 2664 01fe 3A       		.uleb128 0x3a
 2665 01ff 0B       		.uleb128 0xb
 2666 0200 3B       		.uleb128 0x3b
 2667 0201 05       		.uleb128 0x5
 2668 0202 49       		.uleb128 0x49
 2669 0203 13       		.uleb128 0x13
 2670 0204 3F       		.uleb128 0x3f
 2671 0205 0C       		.uleb128 0xc
 2672 0206 3C       		.uleb128 0x3c
ARM GAS  /var/folders/dt/0wfd0knj7gs46m8vwfzktm600000gn/T//ccoubv62.s 			page 48


 2673 0207 0C       		.uleb128 0xc
 2674 0208 00       		.byte	0
 2675 0209 00       		.byte	0
 2676 020a 26       		.uleb128 0x26
 2677 020b 34       		.uleb128 0x34
 2678 020c 00       		.byte	0
 2679 020d 03       		.uleb128 0x3
 2680 020e 0E       		.uleb128 0xe
 2681 020f 3A       		.uleb128 0x3a
 2682 0210 0B       		.uleb128 0xb
 2683 0211 3B       		.uleb128 0x3b
 2684 0212 0B       		.uleb128 0xb
 2685 0213 49       		.uleb128 0x49
 2686 0214 13       		.uleb128 0x13
 2687 0215 3F       		.uleb128 0x3f
 2688 0216 0C       		.uleb128 0xc
 2689 0217 3C       		.uleb128 0x3c
 2690 0218 0C       		.uleb128 0xc
 2691 0219 00       		.byte	0
 2692 021a 00       		.byte	0
 2693 021b 27       		.uleb128 0x27
 2694 021c 2E       		.uleb128 0x2e
 2695 021d 01       		.byte	0x1
 2696 021e 3F       		.uleb128 0x3f
 2697 021f 0C       		.uleb128 0xc
 2698 0220 03       		.uleb128 0x3
 2699 0221 0E       		.uleb128 0xe
 2700 0222 3A       		.uleb128 0x3a
 2701 0223 0B       		.uleb128 0xb
 2702 0224 3B       		.uleb128 0x3b
 2703 0225 0B       		.uleb128 0xb
 2704 0226 27       		.uleb128 0x27
 2705 0227 0C       		.uleb128 0xc
 2706 0228 49       		.uleb128 0x49
 2707 0229 13       		.uleb128 0x13
 2708 022a 3C       		.uleb128 0x3c
 2709 022b 0C       		.uleb128 0xc
 2710 022c 01       		.uleb128 0x1
 2711 022d 13       		.uleb128 0x13
 2712 022e 00       		.byte	0
 2713 022f 00       		.byte	0
 2714 0230 28       		.uleb128 0x28
 2715 0231 2E       		.uleb128 0x2e
 2716 0232 01       		.byte	0x1
 2717 0233 3F       		.uleb128 0x3f
 2718 0234 0C       		.uleb128 0xc
 2719 0235 03       		.uleb128 0x3
 2720 0236 0E       		.uleb128 0xe
 2721 0237 3A       		.uleb128 0x3a
 2722 0238 0B       		.uleb128 0xb
 2723 0239 3B       		.uleb128 0x3b
 2724 023a 0B       		.uleb128 0xb
 2725 023b 27       		.uleb128 0x27
 2726 023c 0C       		.uleb128 0xc
 2727 023d 49       		.uleb128 0x49
 2728 023e 13       		.uleb128 0x13
 2729 023f 3C       		.uleb128 0x3c
ARM GAS  /var/folders/dt/0wfd0knj7gs46m8vwfzktm600000gn/T//ccoubv62.s 			page 49


 2730 0240 0C       		.uleb128 0xc
 2731 0241 00       		.byte	0
 2732 0242 00       		.byte	0
 2733 0243 00       		.byte	0
 2734              		.section	.debug_loc,"",%progbits
 2735              	.Ldebug_loc0:
 2736              	.LLST0:
 2737 0000 00000000 		.4byte	.LFB62
 2738 0004 02000000 		.4byte	.LCFI0
 2739 0008 0200     		.2byte	0x2
 2740 000a 7D       		.byte	0x7d
 2741 000b 00       		.sleb128 0
 2742 000c 02000000 		.4byte	.LCFI0
 2743 0010 24000000 		.4byte	.LFE62
 2744 0014 0200     		.2byte	0x2
 2745 0016 7D       		.byte	0x7d
 2746 0017 08       		.sleb128 8
 2747 0018 00000000 		.4byte	0
 2748 001c 00000000 		.4byte	0
 2749              	.LLST1:
 2750 0020 00000000 		.4byte	.LVL0
 2751 0024 13000000 		.4byte	.LVL3-1
 2752 0028 0100     		.2byte	0x1
 2753 002a 50       		.byte	0x50
 2754 002b 13000000 		.4byte	.LVL3-1
 2755 002f 24000000 		.4byte	.LFE62
 2756 0033 0400     		.2byte	0x4
 2757 0035 F3       		.byte	0xf3
 2758 0036 01       		.uleb128 0x1
 2759 0037 50       		.byte	0x50
 2760 0038 9F       		.byte	0x9f
 2761 0039 00000000 		.4byte	0
 2762 003d 00000000 		.4byte	0
 2763              	.LLST2:
 2764 0041 06000000 		.4byte	.LVL1
 2765 0045 12000000 		.4byte	.LVL2
 2766 0049 0200     		.2byte	0x2
 2767 004b 30       		.byte	0x30
 2768 004c 9F       		.byte	0x9f
 2769 004d 00000000 		.4byte	0
 2770 0051 00000000 		.4byte	0
 2771              	.LLST3:
 2772 0055 00000000 		.4byte	.LFB63
 2773 0059 02000000 		.4byte	.LCFI1
 2774 005d 0200     		.2byte	0x2
 2775 005f 7D       		.byte	0x7d
 2776 0060 00       		.sleb128 0
 2777 0061 02000000 		.4byte	.LCFI1
 2778 0065 24000000 		.4byte	.LFE63
 2779 0069 0200     		.2byte	0x2
 2780 006b 7D       		.byte	0x7d
 2781 006c 08       		.sleb128 8
 2782 006d 00000000 		.4byte	0
 2783 0071 00000000 		.4byte	0
 2784              	.LLST4:
 2785 0075 00000000 		.4byte	.LVL5
 2786 0079 13000000 		.4byte	.LVL8-1
ARM GAS  /var/folders/dt/0wfd0knj7gs46m8vwfzktm600000gn/T//ccoubv62.s 			page 50


 2787 007d 0100     		.2byte	0x1
 2788 007f 50       		.byte	0x50
 2789 0080 13000000 		.4byte	.LVL8-1
 2790 0084 24000000 		.4byte	.LFE63
 2791 0088 0400     		.2byte	0x4
 2792 008a F3       		.byte	0xf3
 2793 008b 01       		.uleb128 0x1
 2794 008c 50       		.byte	0x50
 2795 008d 9F       		.byte	0x9f
 2796 008e 00000000 		.4byte	0
 2797 0092 00000000 		.4byte	0
 2798              	.LLST5:
 2799 0096 06000000 		.4byte	.LVL6
 2800 009a 12000000 		.4byte	.LVL7
 2801 009e 0200     		.2byte	0x2
 2802 00a0 30       		.byte	0x30
 2803 00a1 9F       		.byte	0x9f
 2804 00a2 00000000 		.4byte	0
 2805 00a6 00000000 		.4byte	0
 2806              	.LLST6:
 2807 00aa 00000000 		.4byte	.LFB64
 2808 00ae 02000000 		.4byte	.LCFI2
 2809 00b2 0200     		.2byte	0x2
 2810 00b4 7D       		.byte	0x7d
 2811 00b5 00       		.sleb128 0
 2812 00b6 02000000 		.4byte	.LCFI2
 2813 00ba 06000000 		.4byte	.LCFI3
 2814 00be 0200     		.2byte	0x2
 2815 00c0 7D       		.byte	0x7d
 2816 00c1 08       		.sleb128 8
 2817 00c2 06000000 		.4byte	.LCFI3
 2818 00c6 5C000000 		.4byte	.LFE64
 2819 00ca 0200     		.2byte	0x2
 2820 00cc 7D       		.byte	0x7d
 2821 00cd 10       		.sleb128 16
 2822 00ce 00000000 		.4byte	0
 2823 00d2 00000000 		.4byte	0
 2824              	.LLST7:
 2825 00d6 00000000 		.4byte	.LVL10
 2826 00da 0A000000 		.4byte	.LVL11
 2827 00de 0100     		.2byte	0x1
 2828 00e0 50       		.byte	0x50
 2829 00e1 0A000000 		.4byte	.LVL11
 2830 00e5 14000000 		.4byte	.LVL13
 2831 00e9 0400     		.2byte	0x4
 2832 00eb F3       		.byte	0xf3
 2833 00ec 01       		.uleb128 0x1
 2834 00ed 50       		.byte	0x50
 2835 00ee 9F       		.byte	0x9f
 2836 00ef 14000000 		.4byte	.LVL13
 2837 00f3 16000000 		.4byte	.LVL14
 2838 00f7 0100     		.2byte	0x1
 2839 00f9 50       		.byte	0x50
 2840 00fa 16000000 		.4byte	.LVL14
 2841 00fe 5C000000 		.4byte	.LFE64
 2842 0102 0400     		.2byte	0x4
 2843 0104 F3       		.byte	0xf3
ARM GAS  /var/folders/dt/0wfd0knj7gs46m8vwfzktm600000gn/T//ccoubv62.s 			page 51


 2844 0105 01       		.uleb128 0x1
 2845 0106 50       		.byte	0x50
 2846 0107 9F       		.byte	0x9f
 2847 0108 00000000 		.4byte	0
 2848 010c 00000000 		.4byte	0
 2849              	.LLST8:
 2850 0110 00000000 		.4byte	.LVL10
 2851 0114 0C000000 		.4byte	.LVL12
 2852 0118 0100     		.2byte	0x1
 2853 011a 51       		.byte	0x51
 2854 011b 0C000000 		.4byte	.LVL12
 2855 011f 14000000 		.4byte	.LVL13
 2856 0123 0100     		.2byte	0x1
 2857 0125 54       		.byte	0x54
 2858 0126 14000000 		.4byte	.LVL13
 2859 012a 16000000 		.4byte	.LVL14
 2860 012e 0100     		.2byte	0x1
 2861 0130 51       		.byte	0x51
 2862 0131 16000000 		.4byte	.LVL14
 2863 0135 40000000 		.4byte	.LVL21
 2864 0139 0100     		.2byte	0x1
 2865 013b 54       		.byte	0x54
 2866 013c 40000000 		.4byte	.LVL21
 2867 0140 42000000 		.4byte	.LVL22
 2868 0144 0400     		.2byte	0x4
 2869 0146 74       		.byte	0x74
 2870 0147 807C     		.sleb128 -512
 2871 0149 9F       		.byte	0x9f
 2872 014a 42000000 		.4byte	.LVL22
 2873 014e 5C000000 		.4byte	.LFE64
 2874 0152 0100     		.2byte	0x1
 2875 0154 54       		.byte	0x54
 2876 0155 00000000 		.4byte	0
 2877 0159 00000000 		.4byte	0
 2878              	.LLST9:
 2879 015d 00000000 		.4byte	.LVL10
 2880 0161 16000000 		.4byte	.LVL14
 2881 0165 0100     		.2byte	0x1
 2882 0167 52       		.byte	0x52
 2883 0168 16000000 		.4byte	.LVL14
 2884 016c 1A000000 		.4byte	.LVL15
 2885 0170 0400     		.2byte	0x4
 2886 0172 F3       		.byte	0xf3
 2887 0173 01       		.uleb128 0x1
 2888 0174 52       		.byte	0x52
 2889 0175 9F       		.byte	0x9f
 2890 0176 1A000000 		.4byte	.LVL15
 2891 017a 21000000 		.4byte	.LVL16-1
 2892 017e 0100     		.2byte	0x1
 2893 0180 52       		.byte	0x52
 2894 0181 21000000 		.4byte	.LVL16-1
 2895 0185 5C000000 		.4byte	.LFE64
 2896 0189 0400     		.2byte	0x4
 2897 018b F3       		.byte	0xf3
 2898 018c 01       		.uleb128 0x1
 2899 018d 52       		.byte	0x52
 2900 018e 9F       		.byte	0x9f
ARM GAS  /var/folders/dt/0wfd0knj7gs46m8vwfzktm600000gn/T//ccoubv62.s 			page 52


 2901 018f 00000000 		.4byte	0
 2902 0193 00000000 		.4byte	0
 2903              	.LLST10:
 2904 0197 00000000 		.4byte	.LVL10
 2905 019b 16000000 		.4byte	.LVL14
 2906 019f 0100     		.2byte	0x1
 2907 01a1 53       		.byte	0x53
 2908 01a2 1A000000 		.4byte	.LVL15
 2909 01a6 21000000 		.4byte	.LVL16-1
 2910 01aa 0100     		.2byte	0x1
 2911 01ac 53       		.byte	0x53
 2912 01ad 21000000 		.4byte	.LVL16-1
 2913 01b1 26000000 		.4byte	.LVL17
 2914 01b5 0400     		.2byte	0x4
 2915 01b7 F3       		.byte	0xf3
 2916 01b8 01       		.uleb128 0x1
 2917 01b9 53       		.byte	0x53
 2918 01ba 9F       		.byte	0x9f
 2919 01bb 26000000 		.4byte	.LVL17
 2920 01bf 2E000000 		.4byte	.LVL18
 2921 01c3 0100     		.2byte	0x1
 2922 01c5 53       		.byte	0x53
 2923 01c6 2E000000 		.4byte	.LVL18
 2924 01ca 30000000 		.4byte	.LVL19
 2925 01ce 0600     		.2byte	0x6
 2926 01d0 91       		.byte	0x91
 2927 01d1 74       		.sleb128 -12
 2928 01d2 06       		.byte	0x6
 2929 01d3 31       		.byte	0x31
 2930 01d4 1C       		.byte	0x1c
 2931 01d5 9F       		.byte	0x9f
 2932 01d6 42000000 		.4byte	.LVL22
 2933 01da 46000000 		.4byte	.LVL23
 2934 01de 0100     		.2byte	0x1
 2935 01e0 53       		.byte	0x53
 2936 01e1 00000000 		.4byte	0
 2937 01e5 00000000 		.4byte	0
 2938              	.LLST11:
 2939 01e9 00000000 		.4byte	.LFB65
 2940 01ed 02000000 		.4byte	.LCFI4
 2941 01f1 0200     		.2byte	0x2
 2942 01f3 7D       		.byte	0x7d
 2943 01f4 00       		.sleb128 0
 2944 01f5 02000000 		.4byte	.LCFI4
 2945 01f9 06000000 		.4byte	.LCFI5
 2946 01fd 0200     		.2byte	0x2
 2947 01ff 7D       		.byte	0x7d
 2948 0200 0C       		.sleb128 12
 2949 0201 06000000 		.4byte	.LCFI5
 2950 0205 6C000000 		.4byte	.LFE65
 2951 0209 0200     		.2byte	0x2
 2952 020b 7D       		.byte	0x7d
 2953 020c 18       		.sleb128 24
 2954 020d 00000000 		.4byte	0
 2955 0211 00000000 		.4byte	0
 2956              	.LLST12:
 2957 0215 00000000 		.4byte	.LVL25
ARM GAS  /var/folders/dt/0wfd0knj7gs46m8vwfzktm600000gn/T//ccoubv62.s 			page 53


 2958 0219 0C000000 		.4byte	.LVL26
 2959 021d 0100     		.2byte	0x1
 2960 021f 50       		.byte	0x50
 2961 0220 0C000000 		.4byte	.LVL26
 2962 0224 16000000 		.4byte	.LVL29
 2963 0228 0400     		.2byte	0x4
 2964 022a F3       		.byte	0xf3
 2965 022b 01       		.uleb128 0x1
 2966 022c 50       		.byte	0x50
 2967 022d 9F       		.byte	0x9f
 2968 022e 16000000 		.4byte	.LVL29
 2969 0232 18000000 		.4byte	.LVL30
 2970 0236 0100     		.2byte	0x1
 2971 0238 50       		.byte	0x50
 2972 0239 18000000 		.4byte	.LVL30
 2973 023d 6C000000 		.4byte	.LFE65
 2974 0241 0400     		.2byte	0x4
 2975 0243 F3       		.byte	0xf3
 2976 0244 01       		.uleb128 0x1
 2977 0245 50       		.byte	0x50
 2978 0246 9F       		.byte	0x9f
 2979 0247 00000000 		.4byte	0
 2980 024b 00000000 		.4byte	0
 2981              	.LLST13:
 2982 024f 00000000 		.4byte	.LVL25
 2983 0253 0E000000 		.4byte	.LVL27
 2984 0257 0100     		.2byte	0x1
 2985 0259 51       		.byte	0x51
 2986 025a 0E000000 		.4byte	.LVL27
 2987 025e 16000000 		.4byte	.LVL29
 2988 0262 0100     		.2byte	0x1
 2989 0264 54       		.byte	0x54
 2990 0265 16000000 		.4byte	.LVL29
 2991 0269 1A000000 		.4byte	.LVL31
 2992 026d 0100     		.2byte	0x1
 2993 026f 51       		.byte	0x51
 2994 0270 1A000000 		.4byte	.LVL31
 2995 0274 50000000 		.4byte	.LVL38
 2996 0278 0100     		.2byte	0x1
 2997 027a 54       		.byte	0x54
 2998 027b 50000000 		.4byte	.LVL38
 2999 027f 52000000 		.4byte	.LVL39
 3000 0283 0400     		.2byte	0x4
 3001 0285 74       		.byte	0x74
 3002 0286 807C     		.sleb128 -512
 3003 0288 9F       		.byte	0x9f
 3004 0289 52000000 		.4byte	.LVL39
 3005 028d 6C000000 		.4byte	.LFE65
 3006 0291 0100     		.2byte	0x1
 3007 0293 54       		.byte	0x54
 3008 0294 00000000 		.4byte	0
 3009 0298 00000000 		.4byte	0
 3010              	.LLST14:
 3011 029c 00000000 		.4byte	.LVL25
 3012 02a0 12000000 		.4byte	.LVL28
 3013 02a4 0100     		.2byte	0x1
 3014 02a6 52       		.byte	0x52
ARM GAS  /var/folders/dt/0wfd0knj7gs46m8vwfzktm600000gn/T//ccoubv62.s 			page 54


 3015 02a7 12000000 		.4byte	.LVL28
 3016 02ab 16000000 		.4byte	.LVL29
 3017 02af 0400     		.2byte	0x4
 3018 02b1 F3       		.byte	0xf3
 3019 02b2 01       		.uleb128 0x1
 3020 02b3 52       		.byte	0x52
 3021 02b4 9F       		.byte	0x9f
 3022 02b5 16000000 		.4byte	.LVL29
 3023 02b9 21000000 		.4byte	.LVL32-1
 3024 02bd 0100     		.2byte	0x1
 3025 02bf 52       		.byte	0x52
 3026 02c0 21000000 		.4byte	.LVL32-1
 3027 02c4 6C000000 		.4byte	.LFE65
 3028 02c8 0400     		.2byte	0x4
 3029 02ca F3       		.byte	0xf3
 3030 02cb 01       		.uleb128 0x1
 3031 02cc 52       		.byte	0x52
 3032 02cd 9F       		.byte	0x9f
 3033 02ce 00000000 		.4byte	0
 3034 02d2 00000000 		.4byte	0
 3035              	.LLST15:
 3036 02d6 00000000 		.4byte	.LVL25
 3037 02da 12000000 		.4byte	.LVL28
 3038 02de 0100     		.2byte	0x1
 3039 02e0 53       		.byte	0x53
 3040 02e1 16000000 		.4byte	.LVL29
 3041 02e5 21000000 		.4byte	.LVL32-1
 3042 02e9 0100     		.2byte	0x1
 3043 02eb 53       		.byte	0x53
 3044 02ec 21000000 		.4byte	.LVL32-1
 3045 02f0 36000000 		.4byte	.LVL34
 3046 02f4 0400     		.2byte	0x4
 3047 02f6 F3       		.byte	0xf3
 3048 02f7 01       		.uleb128 0x1
 3049 02f8 53       		.byte	0x53
 3050 02f9 9F       		.byte	0x9f
 3051 02fa 36000000 		.4byte	.LVL34
 3052 02fe 3E000000 		.4byte	.LVL35
 3053 0302 0100     		.2byte	0x1
 3054 0304 53       		.byte	0x53
 3055 0305 3E000000 		.4byte	.LVL35
 3056 0309 40000000 		.4byte	.LVL36
 3057 030d 0600     		.2byte	0x6
 3058 030f 7D       		.byte	0x7d
 3059 0310 00       		.sleb128 0
 3060 0311 06       		.byte	0x6
 3061 0312 31       		.byte	0x31
 3062 0313 1C       		.byte	0x1c
 3063 0314 9F       		.byte	0x9f
 3064 0315 52000000 		.4byte	.LVL39
 3065 0319 56000000 		.4byte	.LVL40
 3066 031d 0100     		.2byte	0x1
 3067 031f 53       		.byte	0x53
 3068 0320 00000000 		.4byte	0
 3069 0324 00000000 		.4byte	0
 3070              	.LLST16:
 3071 0328 00000000 		.4byte	.LVL42
ARM GAS  /var/folders/dt/0wfd0knj7gs46m8vwfzktm600000gn/T//ccoubv62.s 			page 55


 3072 032c 06000000 		.4byte	.LVL43
 3073 0330 0100     		.2byte	0x1
 3074 0332 50       		.byte	0x50
 3075 0333 06000000 		.4byte	.LVL43
 3076 0337 08000000 		.4byte	.LVL44
 3077 033b 0400     		.2byte	0x4
 3078 033d F3       		.byte	0xf3
 3079 033e 01       		.uleb128 0x1
 3080 033f 50       		.byte	0x50
 3081 0340 9F       		.byte	0x9f
 3082 0341 08000000 		.4byte	.LVL44
 3083 0345 0E000000 		.4byte	.LVL45
 3084 0349 0100     		.2byte	0x1
 3085 034b 50       		.byte	0x50
 3086 034c 0E000000 		.4byte	.LVL45
 3087 0350 10000000 		.4byte	.LVL46
 3088 0354 0400     		.2byte	0x4
 3089 0356 F3       		.byte	0xf3
 3090 0357 01       		.uleb128 0x1
 3091 0358 50       		.byte	0x50
 3092 0359 9F       		.byte	0x9f
 3093 035a 10000000 		.4byte	.LVL46
 3094 035e 18000000 		.4byte	.LFE66
 3095 0362 0100     		.2byte	0x1
 3096 0364 50       		.byte	0x50
 3097 0365 00000000 		.4byte	0
 3098 0369 00000000 		.4byte	0
 3099              		.section	.debug_aranges,"",%progbits
 3100 0000 44000000 		.4byte	0x44
 3101 0004 0200     		.2byte	0x2
 3102 0006 00000000 		.4byte	.Ldebug_info0
 3103 000a 04       		.byte	0x4
 3104 000b 00       		.byte	0
 3105 000c 0000     		.2byte	0
 3106 000e 0000     		.2byte	0
 3107 0010 00000000 		.4byte	.LFB62
 3108 0014 24000000 		.4byte	.LFE62-.LFB62
 3109 0018 00000000 		.4byte	.LFB63
 3110 001c 24000000 		.4byte	.LFE63-.LFB63
 3111 0020 00000000 		.4byte	.LFB64
 3112 0024 5C000000 		.4byte	.LFE64-.LFB64
 3113 0028 00000000 		.4byte	.LFB65
 3114 002c 6C000000 		.4byte	.LFE65-.LFB65
 3115 0030 00000000 		.4byte	.LFB66
 3116 0034 18000000 		.4byte	.LFE66-.LFB66
 3117 0038 00000000 		.4byte	.LFB67
 3118 003c 04000000 		.4byte	.LFE67-.LFB67
 3119 0040 00000000 		.4byte	0
 3120 0044 00000000 		.4byte	0
 3121              		.section	.debug_ranges,"",%progbits
 3122              	.Ldebug_ranges0:
 3123 0000 00000000 		.4byte	.LFB62
 3124 0004 24000000 		.4byte	.LFE62
 3125 0008 00000000 		.4byte	.LFB63
 3126 000c 24000000 		.4byte	.LFE63
 3127 0010 00000000 		.4byte	.LFB64
 3128 0014 5C000000 		.4byte	.LFE64
ARM GAS  /var/folders/dt/0wfd0knj7gs46m8vwfzktm600000gn/T//ccoubv62.s 			page 56


 3129 0018 00000000 		.4byte	.LFB65
 3130 001c 6C000000 		.4byte	.LFE65
 3131 0020 00000000 		.4byte	.LFB66
 3132 0024 18000000 		.4byte	.LFE66
 3133 0028 00000000 		.4byte	.LFB67
 3134 002c 04000000 		.4byte	.LFE67
 3135 0030 00000000 		.4byte	0
 3136 0034 00000000 		.4byte	0
 3137              		.section	.debug_line,"",%progbits
 3138              	.Ldebug_line0:
 3139 0000 20030000 		.section	.debug_str,"MS",%progbits,1
 3139      02005702 
 3139      00000201 
 3139      FB0E0D00 
 3139      01010101 
 3140              	.LASF120:
 3141 0000 4D4D435F 		.ascii	"MMC_WAIT\000"
 3141      57414954 
 3141      00
 3142              	.LASF109:
 3143 0009 646D6172 		.ascii	"dmarx\000"
 3143      7800
 3144              	.LASF154:
 3145 000f 636F756E 		.ascii	"count\000"
 3145      7400
 3146              	.LASF144:
 3147 0015 5245535F 		.ascii	"RES_WRPRT\000"
 3147      57525052 
 3147      5400
 3148              	.LASF82:
 3149 001f 52584352 		.ascii	"RXCRCR\000"
 3149      435200
 3150              	.LASF167:
 3151 0026 2F557365 		.ascii	"/Users/toxygen/Projects/UAV/Control_sytem/sw/autopi"
 3151      72732F74 
 3151      6F787967 
 3151      656E2F50 
 3151      726F6A65 
 3152 0059 6C6F742F 		.ascii	"lot/2.4.3/demos/STM32F103-sdspi\000"
 3152      322E342E 
 3152      332F6465 
 3152      6D6F732F 
 3152      53544D33 
 3153              	.LASF64:
 3154 0079 7264796D 		.ascii	"rdymsg\000"
 3154      736700
 3155              	.LASF101:
 3156 0080 5350495F 		.ascii	"SPI_ACTIVE\000"
 3156      41435449 
 3156      564500
 3157              	.LASF145:
 3158 008b 5245535F 		.ascii	"RES_NOTRDY\000"
 3158      4E4F5452 
 3158      445900
 3159              	.LASF124:
 3160 0096 4D4D435F 		.ascii	"MMC_WRITING\000"
 3160      57524954 
ARM GAS  /var/folders/dt/0wfd0knj7gs46m8vwfzktm600000gn/T//ccoubv62.s 			page 57


 3160      494E4700 
 3161              	.LASF116:
 3162 00a2 73737061 		.ascii	"sspad\000"
 3162      6400
 3163              	.LASF12:
 3164 00a8 6C6F6E67 		.ascii	"long long unsigned int\000"
 3164      206C6F6E 
 3164      6720756E 
 3164      7369676E 
 3164      65642069 
 3165              	.LASF134:
 3166 00bf 696E7365 		.ascii	"inserted_event\000"
 3166      72746564 
 3166      5F657665 
 3166      6E7400
 3167              	.LASF80:
 3168 00ce 43524350 		.ascii	"CRCPR\000"
 3168      5200
 3169              	.LASF65:
 3170 00d4 65786974 		.ascii	"exitcode\000"
 3170      636F6465 
 3170      00
 3171              	.LASF95:
 3172 00dd 76656374 		.ascii	"vector\000"
 3172      6F7200
 3173              	.LASF161:
 3174 00e4 6D6D6353 		.ascii	"mmcSequentialRead\000"
 3174      65717565 
 3174      6E746961 
 3174      6C526561 
 3174      6400
 3175              	.LASF104:
 3176 00f6 53504944 		.ascii	"SPIDriver\000"
 3176      72697665 
 3176      7200
 3177              	.LASF115:
 3178 0100 7373706F 		.ascii	"ssport\000"
 3178      727400
 3179              	.LASF158:
 3180 0107 49544D5F 		.ascii	"ITM_RxBuffer\000"
 3180      52784275 
 3180      66666572 
 3180      00
 3181              	.LASF135:
 3182 0114 72656D6F 		.ascii	"removed_event\000"
 3182      7665645F 
 3182      6576656E 
 3182      7400
 3183              	.LASF25:
 3184 0122 705F7072 		.ascii	"p_prio\000"
 3184      696F00
 3185              	.LASF150:
 3186 0129 73746174 		.ascii	"stat\000"
 3186      00
 3187              	.LASF123:
 3188 012e 4D4D435F 		.ascii	"MMC_READING\000"
 3188      52454144 
ARM GAS  /var/folders/dt/0wfd0knj7gs46m8vwfzktm600000gn/T//ccoubv62.s 			page 58


 3188      494E4700 
 3189              	.LASF11:
 3190 013a 6C6F6E67 		.ascii	"long long int\000"
 3190      206C6F6E 
 3190      6720696E 
 3190      7400
 3191              	.LASF1:
 3192 0148 7369676E 		.ascii	"signed char\000"
 3192      65642063 
 3192      68617200 
 3193              	.LASF73:
 3194 0154 42535252 		.ascii	"BSRR\000"
 3194      00
 3195              	.LASF133:
 3196 0159 69735F69 		.ascii	"is_inserted\000"
 3196      6E736572 
 3196      74656400 
 3197              	.LASF99:
 3198 0165 5350495F 		.ascii	"SPI_STOP\000"
 3198      53544F50 
 3198      00
 3199              	.LASF40:
 3200 016e 705F6D70 		.ascii	"p_mpool\000"
 3200      6F6F6C00 
 3201              	.LASF14:
 3202 0176 626F6F6C 		.ascii	"bool_t\000"
 3202      5F7400
 3203              	.LASF55:
 3204 017d 6D5F7175 		.ascii	"m_queue\000"
 3204      65756500 
 3205              	.LASF168:
 3206 0185 6765745F 		.ascii	"get_fattime\000"
 3206      66617474 
 3206      696D6500 
 3207              	.LASF105:
 3208 0191 73746174 		.ascii	"state\000"
 3208      6500
 3209              	.LASF118:
 3210 0197 4D4D435F 		.ascii	"MMC_UNINIT\000"
 3210      554E494E 
 3210      495400
 3211              	.LASF8:
 3212 01a2 6C6F6E67 		.ascii	"long int\000"
 3212      20696E74 
 3212      00
 3213              	.LASF16:
 3214 01ab 74737461 		.ascii	"tstate_t\000"
 3214      74655F74 
 3214      00
 3215              	.LASF146:
 3216 01b4 5245535F 		.ascii	"RES_PARERR\000"
 3216      50415245 
 3216      525200
 3217              	.LASF107:
 3218 01bf 74687265 		.ascii	"thread\000"
 3218      616400
 3219              	.LASF32:
ARM GAS  /var/folders/dt/0wfd0knj7gs46m8vwfzktm600000gn/T//ccoubv62.s 			page 59


 3220 01c6 705F7265 		.ascii	"p_refs\000"
 3220      667300
 3221              	.LASF5:
 3222 01cd 75696E74 		.ascii	"uint16_t\000"
 3222      31365F74 
 3222      00
 3223              	.LASF33:
 3224 01d6 705F7469 		.ascii	"p_time\000"
 3224      6D6500
 3225              	.LASF140:
 3226 01dd 44574F52 		.ascii	"DWORD\000"
 3226      4400
 3227              	.LASF27:
 3228 01e3 705F6E65 		.ascii	"p_newer\000"
 3228      77657200 
 3229              	.LASF114:
 3230 01eb 656E645F 		.ascii	"end_cb\000"
 3230      636200
 3231              	.LASF111:
 3232 01f2 7278646D 		.ascii	"rxdmamode\000"
 3232      616D6F64 
 3232      6500
 3233              	.LASF110:
 3234 01fc 646D6174 		.ascii	"dmatx\000"
 3234      7800
 3235              	.LASF43:
 3236 0202 72656761 		.ascii	"regarm_t\000"
 3236      726D5F74 
 3236      00
 3237              	.LASF50:
 3238 020b 76745F70 		.ascii	"vt_prev\000"
 3238      72657600 
 3239              	.LASF159:
 3240 0213 4D4D4344 		.ascii	"MMCD1\000"
 3240      3100
 3241              	.LASF127:
 3242 0219 64756D6D 		.ascii	"dummy\000"
 3242      7900
 3243              	.LASF157:
 3244 021f 6374726C 		.ascii	"ctrl\000"
 3244      00
 3245              	.LASF138:
 3246 0224 42595445 		.ascii	"BYTE\000"
 3246      00
 3247              	.LASF62:
 3248 0229 4576656E 		.ascii	"EventSource\000"
 3248      74536F75 
 3248      72636500 
 3249              	.LASF0:
 3250 0235 756E7369 		.ascii	"unsigned int\000"
 3250      676E6564 
 3250      20696E74 
 3250      00
 3251              	.LASF49:
 3252 0242 76745F6E 		.ascii	"vt_next\000"
 3252      65787400 
 3253              	.LASF153:
ARM GAS  /var/folders/dt/0wfd0knj7gs46m8vwfzktm600000gn/T//ccoubv62.s 			page 60


 3254 024a 73656374 		.ascii	"sector\000"
 3254      6F7200
 3255              	.LASF70:
 3256 0251 43504152 		.ascii	"CPAR\000"
 3256      00
 3257              	.LASF35:
 3258 0256 705F6D73 		.ascii	"p_msgqueue\000"
 3258      67717565 
 3258      756500
 3259              	.LASF75:
 3260 0261 4750494F 		.ascii	"GPIO_TypeDef\000"
 3260      5F547970 
 3260      65446566 
 3260      00
 3261              	.LASF149:
 3262 026e 6469736B 		.ascii	"disk_status\000"
 3262      5F737461 
 3262      74757300 
 3263              	.LASF74:
 3264 027a 4C434B52 		.ascii	"LCKR\000"
 3264      00
 3265              	.LASF93:
 3266 027f 69736869 		.ascii	"ishift\000"
 3266      667400
 3267              	.LASF48:
 3268 0286 56697274 		.ascii	"VirtualTimer\000"
 3268      75616C54 
 3268      696D6572 
 3268      00
 3269              	.LASF6:
 3270 0293 73686F72 		.ascii	"short unsigned int\000"
 3270      7420756E 
 3270      7369676E 
 3270      65642069 
 3270      6E7400
 3271              	.LASF130:
 3272 02a6 6C736366 		.ascii	"lscfg\000"
 3272      6700
 3273              	.LASF136:
 3274 02ac 626C6F63 		.ascii	"block_addresses\000"
 3274      6B5F6164 
 3274      64726573 
 3274      73657300 
 3275              	.LASF19:
 3276 02bc 6D73675F 		.ascii	"msg_t\000"
 3276      7400
 3277              	.LASF59:
 3278 02c2 656C5F6E 		.ascii	"el_next\000"
 3278      65787400 
 3279              	.LASF15:
 3280 02ca 746D6F64 		.ascii	"tmode_t\000"
 3280      655F7400 
 3281              	.LASF103:
 3282 02d2 73706973 		.ascii	"spistate_t\000"
 3282      74617465 
 3282      5F7400
 3283              	.LASF166:
ARM GAS  /var/folders/dt/0wfd0knj7gs46m8vwfzktm600000gn/T//ccoubv62.s 			page 61


 3284 02dd 2E2E2F2E 		.ascii	"../../ext/fatfs/src/diskio.c\000"
 3284      2E2F6578 
 3284      742F6661 
 3284      7466732F 
 3284      7372632F 
 3285              	.LASF42:
 3286 02fa 54687265 		.ascii	"ThreadsList\000"
 3286      6164734C 
 3286      69737400 
 3287              	.LASF38:
 3288 0306 705F6D74 		.ascii	"p_mtxlist\000"
 3288      786C6973 
 3288      7400
 3289              	.LASF20:
 3290 0310 6576656E 		.ascii	"eventmask_t\000"
 3290      746D6173 
 3290      6B5F7400 
 3291              	.LASF121:
 3292 031c 4D4D435F 		.ascii	"MMC_INSERTED\000"
 3292      494E5345 
 3292      52544544 
 3292      00
 3293              	.LASF156:
 3294 0329 6469736B 		.ascii	"disk_ioctl\000"
 3294      5F696F63 
 3294      746C00
 3295              	.LASF22:
 3296 0334 54687265 		.ascii	"Thread\000"
 3296      616400
 3297              	.LASF151:
 3298 033b 6469736B 		.ascii	"disk_read\000"
 3298      5F726561 
 3298      6400
 3299              	.LASF34:
 3300 0345 705F7761 		.ascii	"p_waiting\000"
 3300      6974696E 
 3300      6700
 3301              	.LASF88:
 3302 034f 49325350 		.ascii	"I2SPR\000"
 3302      5200
 3303              	.LASF46:
 3304 0355 73697A65 		.ascii	"sizetype\000"
 3304      74797065 
 3304      00
 3305              	.LASF54:
 3306 035e 4D757465 		.ascii	"Mutex\000"
 3306      7800
 3307              	.LASF125:
 3308 0364 6D6D6373 		.ascii	"mmcstate_t\000"
 3308      74617465 
 3308      5F7400
 3309              	.LASF86:
 3310 036f 49325343 		.ascii	"I2SCFGR\000"
 3310      46475200 
 3311              	.LASF139:
 3312 0377 574F5244 		.ascii	"WORD\000"
 3312      00
ARM GAS  /var/folders/dt/0wfd0knj7gs46m8vwfzktm600000gn/T//ccoubv62.s 			page 62


 3313              	.LASF142:
 3314 037c 5245535F 		.ascii	"RES_OK\000"
 3314      4F4B00
 3315              	.LASF28:
 3316 0383 705F6F6C 		.ascii	"p_older\000"
 3316      64657200 
 3317              	.LASF160:
 3318 038b 6D6D6353 		.ascii	"mmcStartSequentialRead\000"
 3318      74617274 
 3318      53657175 
 3318      656E7469 
 3318      616C5265 
 3319              	.LASF41:
 3320 03a2 54687265 		.ascii	"ThreadsQueue\000"
 3320      61647351 
 3320      75657565 
 3320      00
 3321              	.LASF112:
 3322 03af 7478646D 		.ascii	"txdmamode\000"
 3322      616D6F64 
 3322      6500
 3323              	.LASF13:
 3324 03b9 75696E74 		.ascii	"uint_fast8_t\000"
 3324      5F666173 
 3324      74385F74 
 3324      00
 3325              	.LASF165:
 3326 03c6 474E5520 		.ascii	"GNU C 4.7.2\000"
 3326      4320342E 
 3326      372E3200 
 3327              	.LASF169:
 3328 03d2 6D6D6353 		.ascii	"mmcStopSequentialWrite\000"
 3328      746F7053 
 3328      65717565 
 3328      6E746961 
 3328      6C577269 
 3329              	.LASF61:
 3330 03e9 656C5F6D 		.ascii	"el_mask\000"
 3330      61736B00 
 3331              	.LASF72:
 3332 03f1 444D415F 		.ascii	"DMA_Channel_TypeDef\000"
 3332      4368616E 
 3332      6E656C5F 
 3332      54797065 
 3332      44656600 
 3333              	.LASF128:
 3334 0405 4D4D4343 		.ascii	"MMCConfig\000"
 3334      6F6E6669 
 3334      6700
 3335              	.LASF84:
 3336 040f 54584352 		.ascii	"TXCRCR\000"
 3336      435200
 3337              	.LASF76:
 3338 0416 52455345 		.ascii	"RESERVED0\000"
 3338      52564544 
 3338      3000
 3339              	.LASF77:
ARM GAS  /var/folders/dt/0wfd0knj7gs46m8vwfzktm600000gn/T//ccoubv62.s 			page 63


 3340 0420 52455345 		.ascii	"RESERVED1\000"
 3340      52564544 
 3340      3100
 3341              	.LASF78:
 3342 042a 52455345 		.ascii	"RESERVED2\000"
 3342      52564544 
 3342      3200
 3343              	.LASF79:
 3344 0434 52455345 		.ascii	"RESERVED3\000"
 3344      52564544 
 3344      3300
 3345              	.LASF81:
 3346 043e 52455345 		.ascii	"RESERVED4\000"
 3346      52564544 
 3346      3400
 3347              	.LASF24:
 3348 0448 705F7072 		.ascii	"p_prev\000"
 3348      657600
 3349              	.LASF85:
 3350 044f 52455345 		.ascii	"RESERVED6\000"
 3350      52564544 
 3350      3600
 3351              	.LASF87:
 3352 0459 52455345 		.ascii	"RESERVED7\000"
 3352      52564544 
 3352      3700
 3353              	.LASF89:
 3354 0463 52455345 		.ascii	"RESERVED8\000"
 3354      52564544 
 3354      3800
 3355              	.LASF18:
 3356 046d 74707269 		.ascii	"tprio_t\000"
 3356      6F5F7400 
 3357              	.LASF108:
 3358 0475 6D757465 		.ascii	"mutex\000"
 3358      7800
 3359              	.LASF7:
 3360 047b 696E7433 		.ascii	"int32_t\000"
 3360      325F7400 
 3361              	.LASF2:
 3362 0483 756E7369 		.ascii	"unsigned char\000"
 3362      676E6564 
 3362      20636861 
 3362      7200
 3363              	.LASF96:
 3364 0491 73746D33 		.ascii	"stm32_dma_stream_t\000"
 3364      325F646D 
 3364      615F7374 
 3364      7265616D 
 3364      5F7400
 3365              	.LASF60:
 3366 04a4 656C5F6C 		.ascii	"el_listener\000"
 3366      69737465 
 3366      6E657200 
 3367              	.LASF30:
 3368 04b0 705F7374 		.ascii	"p_state\000"
 3368      61746500 
ARM GAS  /var/folders/dt/0wfd0knj7gs46m8vwfzktm600000gn/T//ccoubv62.s 			page 64


 3369              	.LASF3:
 3370 04b8 73686F72 		.ascii	"short int\000"
 3370      7420696E 
 3370      7400
 3371              	.LASF141:
 3372 04c2 44535441 		.ascii	"DSTATUS\000"
 3372      54555300 
 3373              	.LASF152:
 3374 04ca 62756666 		.ascii	"buff\000"
 3374      00
 3375              	.LASF67:
 3376 04cf 65776D61 		.ascii	"ewmask\000"
 3376      736B00
 3377              	.LASF23:
 3378 04d6 705F6E65 		.ascii	"p_next\000"
 3378      787400
 3379              	.LASF31:
 3380 04dd 705F666C 		.ascii	"p_flags\000"
 3380      61677300 
 3381              	.LASF164:
 3382 04e5 6D6D6353 		.ascii	"mmcSequentialWrite\000"
 3382      65717565 
 3382      6E746961 
 3382      6C577269 
 3382      746500
 3383              	.LASF91:
 3384 04f8 6368616E 		.ascii	"channel\000"
 3384      6E656C00 
 3385              	.LASF37:
 3386 0500 705F6570 		.ascii	"p_epending\000"
 3386      656E6469 
 3386      6E6700
 3387              	.LASF92:
 3388 050b 69666372 		.ascii	"ifcr\000"
 3388      00
 3389              	.LASF83:
 3390 0510 52455345 		.ascii	"RESERVED5\000"
 3390      52564544 
 3390      3500
 3391              	.LASF148:
 3392 051a 6469736B 		.ascii	"disk_initialize\000"
 3392      5F696E69 
 3392      7469616C 
 3392      697A6500 
 3393              	.LASF9:
 3394 052a 75696E74 		.ascii	"uint32_t\000"
 3394      33325F74 
 3394      00
 3395              	.LASF17:
 3396 0533 74726566 		.ascii	"trefs_t\000"
 3396      735F7400 
 3397              	.LASF147:
 3398 053b 44524553 		.ascii	"DRESULT\000"
 3398      554C5400 
 3399              	.LASF10:
 3400 0543 6C6F6E67 		.ascii	"long unsigned int\000"
 3400      20756E73 
ARM GAS  /var/folders/dt/0wfd0knj7gs46m8vwfzktm600000gn/T//ccoubv62.s 			page 65


 3400      69676E65 
 3400      6420696E 
 3400      7400
 3401              	.LASF90:
 3402 0555 5350495F 		.ascii	"SPI_TypeDef\000"
 3402      54797065 
 3402      44656600 
 3403              	.LASF68:
 3404 0561 63686172 		.ascii	"char\000"
 3404      00
 3405              	.LASF102:
 3406 0566 5350495F 		.ascii	"SPI_COMPLETE\000"
 3406      434F4D50 
 3406      4C455445 
 3406      00
 3407              	.LASF106:
 3408 0573 636F6E66 		.ascii	"config\000"
 3408      696700
 3409              	.LASF122:
 3410 057a 4D4D435F 		.ascii	"MMC_READY\000"
 3410      52454144 
 3410      5900
 3411              	.LASF119:
 3412 0584 4D4D435F 		.ascii	"MMC_STOP\000"
 3412      53544F50 
 3412      00
 3413              	.LASF57:
 3414 058d 6D5F6E65 		.ascii	"m_next\000"
 3414      787400
 3415              	.LASF21:
 3416 0594 73797374 		.ascii	"systime_t\000"
 3416      696D655F 
 3416      7400
 3417              	.LASF39:
 3418 059e 705F7265 		.ascii	"p_realprio\000"
 3418      616C7072 
 3418      696F00
 3419              	.LASF47:
 3420 05a9 76746675 		.ascii	"vtfunc_t\000"
 3420      6E635F74 
 3420      00
 3421              	.LASF97:
 3422 05b2 696F706F 		.ascii	"ioportid_t\000"
 3422      72746964 
 3422      5F7400
 3423              	.LASF45:
 3424 05bd 636F6E74 		.ascii	"context\000"
 3424      65787400 
 3425              	.LASF155:
 3426 05c5 6469736B 		.ascii	"disk_write\000"
 3426      5F777269 
 3426      746500
 3427              	.LASF44:
 3428 05d0 696E7463 		.ascii	"intctx\000"
 3428      747800
 3429              	.LASF132:
 3430 05d7 69735F70 		.ascii	"is_protected\000"
ARM GAS  /var/folders/dt/0wfd0knj7gs46m8vwfzktm600000gn/T//ccoubv62.s 			page 66


 3430      726F7465 
 3430      63746564 
 3430      00
 3431              	.LASF100:
 3432 05e4 5350495F 		.ascii	"SPI_READY\000"
 3432      52454144 
 3432      5900
 3433              	.LASF98:
 3434 05ee 5350495F 		.ascii	"SPI_UNINIT\000"
 3434      554E494E 
 3434      495400
 3435              	.LASF53:
 3436 05f9 76745F70 		.ascii	"vt_par\000"
 3436      617200
 3437              	.LASF137:
 3438 0600 4D4D4344 		.ascii	"MMCDriver\000"
 3438      72697665 
 3438      7200
 3439              	.LASF126:
 3440 060a 6D6D6371 		.ascii	"mmcquery_t\000"
 3440      75657279 
 3440      5F7400
 3441              	.LASF29:
 3442 0615 705F6E61 		.ascii	"p_name\000"
 3442      6D6500
 3443              	.LASF63:
 3444 061c 65735F6E 		.ascii	"es_next\000"
 3444      65787400 
 3445              	.LASF131:
 3446 0624 68736366 		.ascii	"hscfg\000"
 3446      6700
 3447              	.LASF69:
 3448 062a 434E4454 		.ascii	"CNDTR\000"
 3448      5200
 3449              	.LASF71:
 3450 0630 434D4152 		.ascii	"CMAR\000"
 3450      00
 3451              	.LASF4:
 3452 0635 75696E74 		.ascii	"uint8_t\000"
 3452      385F7400 
 3453              	.LASF129:
 3454 063d 73706970 		.ascii	"spip\000"
 3454      00
 3455              	.LASF163:
 3456 0642 6D6D6353 		.ascii	"mmcStartSequentialWrite\000"
 3456      74617274 
 3456      53657175 
 3456      656E7469 
 3456      616C5772 
 3457              	.LASF58:
 3458 065a 4576656E 		.ascii	"EventListener\000"
 3458      744C6973 
 3458      74656E65 
 3458      7200
 3459              	.LASF66:
 3460 0668 77746F62 		.ascii	"wtobjp\000"
 3460      6A7000
ARM GAS  /var/folders/dt/0wfd0knj7gs46m8vwfzktm600000gn/T//ccoubv62.s 			page 67


 3461              	.LASF143:
 3462 066f 5245535F 		.ascii	"RES_ERROR\000"
 3462      4552524F 
 3462      5200
 3463              	.LASF117:
 3464 0679 53504943 		.ascii	"SPIConfig\000"
 3464      6F6E6669 
 3464      6700
 3465              	.LASF36:
 3466 0683 705F6D73 		.ascii	"p_msg\000"
 3466      6700
 3467              	.LASF113:
 3468 0689 73706963 		.ascii	"spicallback_t\000"
 3468      616C6C62 
 3468      61636B5F 
 3468      7400
 3469              	.LASF51:
 3470 0697 76745F74 		.ascii	"vt_time\000"
 3470      696D6500 
 3471              	.LASF162:
 3472 069f 6D6D6353 		.ascii	"mmcStopSequentialRead\000"
 3472      746F7053 
 3472      65717565 
 3472      6E746961 
 3472      6C526561 
 3473              	.LASF56:
 3474 06b5 6D5F6F77 		.ascii	"m_owner\000"
 3474      6E657200 
 3475              	.LASF94:
 3476 06bd 73656C66 		.ascii	"selfindex\000"
 3476      696E6465 
 3476      7800
 3477              	.LASF26:
 3478 06c7 705F6374 		.ascii	"p_ctx\000"
 3478      7800
 3479              	.LASF52:
 3480 06cd 76745F66 		.ascii	"vt_func\000"
 3480      756E6300 
 3481              		.ident	"GCC: (GNU) 4.7.2"
ARM GAS  /var/folders/dt/0wfd0knj7gs46m8vwfzktm600000gn/T//ccoubv62.s 			page 68


DEFINED SYMBOLS
                            *ABS*:0000000000000000 diskio.c
/var/folders/dt/0wfd0knj7gs46m8vwfzktm600000gn/T//ccoubv62.s:19     .text.disk_initialize:0000000000000000 $t
/var/folders/dt/0wfd0knj7gs46m8vwfzktm600000gn/T//ccoubv62.s:25     .text.disk_initialize:0000000000000000 disk_initialize
/var/folders/dt/0wfd0knj7gs46m8vwfzktm600000gn/T//ccoubv62.s:68     .text.disk_initialize:0000000000000020 $d
/var/folders/dt/0wfd0knj7gs46m8vwfzktm600000gn/T//ccoubv62.s:73     .text.disk_status:0000000000000000 $t
/var/folders/dt/0wfd0knj7gs46m8vwfzktm600000gn/T//ccoubv62.s:79     .text.disk_status:0000000000000000 disk_status
/var/folders/dt/0wfd0knj7gs46m8vwfzktm600000gn/T//ccoubv62.s:121    .text.disk_status:0000000000000020 $d
/var/folders/dt/0wfd0knj7gs46m8vwfzktm600000gn/T//ccoubv62.s:126    .text.disk_read:0000000000000000 $t
/var/folders/dt/0wfd0knj7gs46m8vwfzktm600000gn/T//ccoubv62.s:132    .text.disk_read:0000000000000000 disk_read
/var/folders/dt/0wfd0knj7gs46m8vwfzktm600000gn/T//ccoubv62.s:224    .text.disk_read:0000000000000058 $d
/var/folders/dt/0wfd0knj7gs46m8vwfzktm600000gn/T//ccoubv62.s:229    .text.disk_write:0000000000000000 $t
/var/folders/dt/0wfd0knj7gs46m8vwfzktm600000gn/T//ccoubv62.s:235    .text.disk_write:0000000000000000 disk_write
/var/folders/dt/0wfd0knj7gs46m8vwfzktm600000gn/T//ccoubv62.s:342    .text.disk_write:0000000000000068 $d
/var/folders/dt/0wfd0knj7gs46m8vwfzktm600000gn/T//ccoubv62.s:347    .text.disk_ioctl:0000000000000000 $t
/var/folders/dt/0wfd0knj7gs46m8vwfzktm600000gn/T//ccoubv62.s:353    .text.disk_ioctl:0000000000000000 disk_ioctl
/var/folders/dt/0wfd0knj7gs46m8vwfzktm600000gn/T//ccoubv62.s:391    .text.get_fattime:0000000000000000 $t
/var/folders/dt/0wfd0knj7gs46m8vwfzktm600000gn/T//ccoubv62.s:397    .text.get_fattime:0000000000000000 get_fattime
                     .debug_frame:0000000000000010 $d
/var/folders/dt/0wfd0knj7gs46m8vwfzktm600000gn/T//ccoubv62.s:72     .text.disk_initialize:0000000000000024 $t
/var/folders/dt/0wfd0knj7gs46m8vwfzktm600000gn/T//ccoubv62.s:125    .text.disk_status:0000000000000024 $t
/var/folders/dt/0wfd0knj7gs46m8vwfzktm600000gn/T//ccoubv62.s:228    .text.disk_read:000000000000005c $t
/var/folders/dt/0wfd0knj7gs46m8vwfzktm600000gn/T//ccoubv62.s:346    .text.disk_write:000000000000006c $t

UNDEFINED SYMBOLS
MMCD1
mmcStartSequentialRead
mmcSequentialRead
mmcStopSequentialRead
mmcStartSequentialWrite
mmcSequentialWrite
mmcStopSequentialWrite
