ARM GAS  /var/folders/dt/0wfd0knj7gs46m8vwfzktm600000gn/T//cccOqqBr.s 			page 1


   1              		.syntax unified
   2              		.cpu cortex-m3
   3              		.fpu softvfp
   4              		.eabi_attribute 20, 1
   5              		.eabi_attribute 21, 1
   6              		.eabi_attribute 23, 3
   7              		.eabi_attribute 24, 1
   8              		.eabi_attribute 25, 1
   9              		.eabi_attribute 26, 1
  10              		.eabi_attribute 30, 2
  11              		.eabi_attribute 34, 1
  12              		.eabi_attribute 18, 4
  13              		.thumb
  14              		.file	"hal.c"
  15              		.text
  16              	.Ltext0:
  17              		.cfi_sections	.debug_frame
  18              		.section	.text.halInit,"ax",%progbits
  19              		.align	2
  20              		.p2align 4,,15
  21              		.global	halInit
  22              		.thumb
  23              		.thumb_func
  24              		.type	halInit, %function
  25              	halInit:
  26              	.LFB62:
  27              		.file 1 "../../os/hal/src/hal.c"
  28              		.loc 1 68 0
  29              		.cfi_startproc
  30              		@ args = 0, pretend = 0, frame = 0
  31              		@ frame_needed = 0, uses_anonymous_args = 0
  32 0000 08B5     		push	{r3, lr}
  33              	.LCFI0:
  34              		.cfi_def_cfa_offset 8
  35              		.cfi_offset 3, -8
  36              		.cfi_offset 14, -4
  37              		.loc 1 70 0
  38 0002 FFF7FEFF 		bl	hal_lld_init
  39              	.LVL0:
  40              		.loc 1 73 0
  41 0006 FFF7FEFF 		bl	tmInit
  42              	.LVL1:
  43              		.loc 1 76 0
  44 000a 40F20000 		movw	r0, #:lower16:pal_default_config
  45 000e C0F20000 		movt	r0, #:upper16:pal_default_config
  46 0012 FFF7FEFF 		bl	_pal_lld_init
  47              	.LVL2:
  48              		.loc 1 103 0
  49 0016 FFF7FEFF 		bl	sdInit
  50              	.LVL3:
  51              		.loc 1 109 0
  52 001a FFF7FEFF 		bl	spiInit
  53              	.LVL4:
  54              		.loc 1 118 0
  55 001e FFF7FEFF 		bl	mmcInit
  56              	.LVL5:
  57              		.loc 1 128 0
ARM GAS  /var/folders/dt/0wfd0knj7gs46m8vwfzktm600000gn/T//cccOqqBr.s 			page 2


  58 0022 BDE80840 		pop	{r3, lr}
  59              		.loc 1 127 0
  60 0026 FFF7FEBF 		b	boardInit
  61              	.LVL6:
  62              		.cfi_endproc
  63              	.LFE62:
  64              		.size	halInit, .-halInit
  65 002a 00BFAFF3 		.section	.text.halIsCounterWithin,"ax",%progbits
  65      0080
  66              		.align	2
  67              		.p2align 4,,15
  68              		.global	halIsCounterWithin
  69              		.thumb
  70              		.thumb_func
  71              		.type	halIsCounterWithin, %function
  72              	halIsCounterWithin:
  73              	.LFB63:
  74              		.loc 1 174 0
  75              		.cfi_startproc
  76              		@ args = 0, pretend = 0, frame = 0
  77              		@ frame_needed = 0, uses_anonymous_args = 0
  78              		@ link register save eliminated.
  79              	.LVL7:
  80              		.loc 1 175 0
  81 0000 4FF48053 		mov	r3, #4096
  82 0004 CEF20003 		movt	r3, 57344
  83              		.loc 1 177 0
  84 0008 8142     		cmp	r1, r0
  85              		.loc 1 174 0
  86 000a 0246     		mov	r2, r0
  87              		.loc 1 175 0
  88 000c 5B68     		ldr	r3, [r3, #4]
  89              	.LVL8:
  90              		.loc 1 177 0
  91 000e 09D8     		bhi	.L6
  92              		.loc 1 178 0 discriminator 2
  93 0010 8342     		cmp	r3, r0
  94 0012 34BF     		ite	cc
  95 0014 0022     		movcc	r2, #0
  96 0016 0122     		movcs	r2, #1
  97              		.loc 1 177 0 discriminator 2
  98 0018 8B42     		cmp	r3, r1
  99 001a 2CBF     		ite	cs
 100 001c 1046     		movcs	r0, r2
 101 001e 42F00100 		orrcc	r0, r2, #1
 102              	.LVL9:
 103              		.loc 1 179 0 discriminator 2
 104 0022 7047     		bx	lr
 105              	.LVL10:
 106              	.L6:
 107              		.loc 1 177 0 discriminator 1
 108 0024 8B42     		cmp	r3, r1
 109 0026 2CBF     		ite	cs
 110 0028 0020     		movcs	r0, #0
 111              	.LVL11:
 112 002a 0120     		movcc	r0, #1
 113 002c 9342     		cmp	r3, r2
ARM GAS  /var/folders/dt/0wfd0knj7gs46m8vwfzktm600000gn/T//cccOqqBr.s 			page 3


 114 002e 38BF     		it	cc
 115 0030 0020     		movcc	r0, #0
 116 0032 7047     		bx	lr
 117              		.cfi_endproc
 118              	.LFE63:
 119              		.size	halIsCounterWithin, .-halIsCounterWithin
 120 0034 AFF30080 		.section	.text.halPolledDelay,"ax",%progbits
 120      AFF30080 
 120      AFF30080 
 121              		.align	2
 122              		.p2align 4,,15
 123              		.global	halPolledDelay
 124              		.thumb
 125              		.thumb_func
 126              		.type	halPolledDelay, %function
 127              	halPolledDelay:
 128              	.LFB64:
 129              		.loc 1 193 0
 130              		.cfi_startproc
 131              		@ args = 0, pretend = 0, frame = 0
 132              		@ frame_needed = 0, uses_anonymous_args = 0
 133              		@ link register save eliminated.
 134              	.LVL12:
 135 0000 10B4     		push	{r4}
 136              	.LCFI1:
 137              		.cfi_def_cfa_offset 4
 138              		.cfi_offset 4, -4
 139              		.loc 1 194 0
 140 0002 4FF48054 		mov	r4, #4096
 141 0006 CEF20004 		movt	r4, 57344
 142 000a 6268     		ldr	r2, [r4, #4]
 143              	.LVL13:
 144              		.loc 1 195 0
 145 000c 8018     		adds	r0, r0, r2
 146              	.LVL14:
 147              	.L10:
 148              	.LBB4:
 149              	.LBB5:
 150              		.loc 1 177 0 discriminator 1
 151 000e 8242     		cmp	r2, r0
 152              		.loc 1 175 0 discriminator 1
 153 0010 6368     		ldr	r3, [r4, #4]
 154              	.LVL15:
 155              		.loc 1 177 0 discriminator 1
 156 0012 0AD2     		bcs	.L8
 157              		.loc 1 177 0 is_stmt 0
 158 0014 9842     		cmp	r0, r3
 159 0016 94BF     		ite	ls
 160 0018 0021     		movls	r1, #0
 161 001a 0121     		movhi	r1, #1
 162 001c 9A42     		cmp	r2, r3
 163 001e 88BF     		it	hi
 164 0020 0021     		movhi	r1, #0
 165              	.LBE5:
 166              	.LBE4:
 167              		.loc 1 196 0 is_stmt 1
 168 0022 0029     		cmp	r1, #0
ARM GAS  /var/folders/dt/0wfd0knj7gs46m8vwfzktm600000gn/T//cccOqqBr.s 			page 4


 169 0024 F3D1     		bne	.L10
 170              	.L12:
 171              		.loc 1 198 0
 172 0026 10BC     		pop	{r4}
 173 0028 7047     		bx	lr
 174              	.L8:
 175              	.LBB7:
 176              	.LBB6:
 177              		.loc 1 178 0
 178 002a 9A42     		cmp	r2, r3
 179 002c 8CBF     		ite	hi
 180 002e 0021     		movhi	r1, #0
 181 0030 0121     		movls	r1, #1
 182              		.loc 1 177 0
 183 0032 9842     		cmp	r0, r3
 184 0034 88BF     		it	hi
 185 0036 41F00101 		orrhi	r1, r1, #1
 186              	.LBE6:
 187              	.LBE7:
 188              		.loc 1 196 0
 189 003a 0029     		cmp	r1, #0
 190 003c E7D1     		bne	.L10
 191 003e F2E7     		b	.L12
 192              		.cfi_endproc
 193              	.LFE64:
 194              		.size	halPolledDelay, .-halPolledDelay
 195              		.text
 196              	.Letext0:
 197              		.file 2 "/Users/toxygen/Applications/yagarto-4.7.2/bin/../lib/gcc/arm-none-eabi/4.7.2/../../../../
 198              		.file 3 "../../os/ports/GCC/ARMCMx/chtypes.h"
 199              		.file 4 "../../os/ports/common/ARMCMx/nvic.h"
 200              		.file 5 "../../os/hal/platforms/STM32F1xx/hal_lld.h"
 201              		.file 6 "../../os/hal/platforms/STM32/GPIOv1/pal_lld.h"
 202              		.file 7 "../../os/ports/common/ARMCMx/CMSIS/include/core_cm3.h"
 203              		.file 8 "../../os/hal/include/tm.h"
 204              		.file 9 "../../os/hal/include/serial.h"
 205              		.file 10 "../../os/hal/include/spi.h"
 206              		.file 11 "../../os/hal/include/mmc_spi.h"
 207              		.file 12 "../../boards/MLAB_STM32F10xRxT01A_SPI/board.h"