ARM GAS  /var/folders/dt/0wfd0knj7gs46m8vwfzktm600000gn/T//cchDiTuj.s 			page 1


   1              		.syntax unified
   2              		.cpu cortex-m3
   3              		.fpu softvfp
   4              		.eabi_attribute 20, 1
   5              		.eabi_attribute 21, 1
   6              		.eabi_attribute 23, 3
   7              		.eabi_attribute 24, 1
   8              		.eabi_attribute 25, 1
   9              		.eabi_attribute 26, 1
  10              		.eabi_attribute 30, 2
  11              		.eabi_attribute 34, 1
  12              		.eabi_attribute 18, 4
  13              		.thumb
  14              		.file	"main.c"
  15              		.text
  16              	.Ltext0:
  17              		.cfi_sections	.debug_frame
  18              		.section	.text.mmc_is_inserted,"ax",%progbits
  19              		.align	2
  20              		.p2align 4,,15
  21              		.thumb
  22              		.thumb_func
  23              		.type	mmc_is_inserted, %function
  24              	mmc_is_inserted:
  25              	.LFB62:
  26              		.file 1 "main.c"
  27              		.loc 1 40 0
  28              		.cfi_startproc
  29              		@ args = 0, pretend = 0, frame = 0
  30              		@ frame_needed = 0, uses_anonymous_args = 0
  31              		@ link register save eliminated.
  32              		.loc 1 40 0
  33 0000 4FF48053 		mov	r3, #4096
  34 0004 C4F20103 		movt	r3, 16385
  35 0008 9868     		ldr	r0, [r3, #8]
  36 000a C0F3C010 		ubfx	r0, r0, #7, #1
  37 000e 80F00100 		eor	r0, r0, #1
  38 0012 7047     		bx	lr
  39              		.cfi_endproc
  40              	.LFE62:
  41              		.size	mmc_is_inserted, .-mmc_is_inserted
  42 0014 AFF30080 		.section	.text.mmc_is_protected,"ax",%progbits
  42      AFF30080 
  42      AFF30080 
  43              		.align	2
  44              		.p2align 4,,15
  45              		.thumb
  46              		.thumb_func
  47              		.type	mmc_is_protected, %function
  48              	mmc_is_protected:
  49              	.LFB63:
  50              		.loc 1 43 0
  51              		.cfi_startproc
  52              		@ args = 0, pretend = 0, frame = 0
  53              		@ frame_needed = 0, uses_anonymous_args = 0
  54              		@ link register save eliminated.
  55              		.loc 1 43 0
ARM GAS  /var/folders/dt/0wfd0knj7gs46m8vwfzktm600000gn/T//cchDiTuj.s 			page 2


  56 0000 4FF48053 		mov	r3, #4096
  57 0004 C4F20103 		movt	r3, 16385
  58 0008 9868     		ldr	r0, [r3, #8]
  59 000a C0F38010 		ubfx	r0, r0, #6, #1
  60 000e 7047     		bx	lr
  61              		.cfi_endproc
  62              	.LFE63:
  63              		.size	mmc_is_protected, .-mmc_is_protected
  64              		.section	.text.RemoveHandler,"ax",%progbits
  65              		.align	2
  66              		.p2align 4,,15
  67              		.thumb
  68              		.thumb_func
  69              		.type	RemoveHandler, %function
  70              	RemoveHandler:
  71              	.LFB71:
  72              		.loc 1 227 0
  73              		.cfi_startproc
  74              		@ args = 0, pretend = 0, frame = 0
  75              		@ frame_needed = 0, uses_anonymous_args = 0
  76              		@ link register save eliminated.
  77              	.LVL0:
  78              		.loc 1 230 0
  79 0000 40F20003 		movw	r3, #:lower16:.LANCHOR0
  80 0004 C0F20003 		movt	r3, #:upper16:.LANCHOR0
  81 0008 0022     		movs	r2, #0
  82 000a 1A60     		str	r2, [r3, #0]
  83 000c 7047     		bx	lr
  84              		.cfi_endproc
  85              	.LFE71:
  86              		.size	RemoveHandler, .-RemoveHandler
  87 000e 00BF     		.section	.text.cmd_card,"ax",%progbits
  88              		.align	2
  89              		.p2align 4,,15
  90              		.thumb
  91              		.thumb_func
  92              		.type	cmd_card, %function
  93              	cmd_card:
  94              	.LFB68:
  95              		.loc 1 154 0
  96              		.cfi_startproc
  97              		@ args = 0, pretend = 0, frame = 0
  98              		@ frame_needed = 0, uses_anonymous_args = 0
  99              	.LVL1:
 100 0000 38B5     		push	{r3, r4, r5, lr}
 101              	.LCFI0:
 102              		.cfi_def_cfa_offset 16
 103              		.cfi_offset 3, -16
 104              		.cfi_offset 4, -12
 105              		.cfi_offset 5, -8
 106              		.cfi_offset 14, -4
 107              		.loc 1 156 0
 108 0002 4FF48054 		mov	r4, #4096
 109 0006 C4F20104 		movt	r4, 16385
 110 000a A268     		ldr	r2, [r4, #8]
 111              	.LVL2:
 112              		.loc 1 157 0
ARM GAS  /var/folders/dt/0wfd0knj7gs46m8vwfzktm600000gn/T//cchDiTuj.s 			page 3


 113 000c A368     		ldr	r3, [r4, #8]
 114              		.loc 1 155 0
 115 000e 40F20001 		movw	r1, #:lower16:.LC0
 116              	.LVL3:
 117 0012 C0F20001 		movt	r1, #:upper16:.LC0
 118 0016 C2F3C012 		ubfx	r2, r2, #7, #1
 119 001a C3F38013 		ubfx	r3, r3, #6, #1
 120              		.loc 1 154 0
 121 001e 0546     		mov	r5, r0
 122              		.loc 1 155 0
 123 0020 FFF7FEFF 		bl	chprintf
 124              	.LVL4:
 125              		.loc 1 159 0
 126 0024 40F20002 		movw	r2, #:lower16:.LANCHOR1
 127 0028 40F20003 		movw	r3, #:lower16:.LANCHOR2
 128 002c C0F20002 		movt	r2, #:upper16:.LANCHOR1
 129 0030 C0F20003 		movt	r3, #:upper16:.LANCHOR2
 130 0034 40F20001 		movw	r1, #:lower16:.LC1
 131 0038 2846     		mov	r0, r5
 132 003a C0F20001 		movt	r1, #:upper16:.LC1
 133 003e 1268     		ldr	r2, [r2, #0]
 134 0040 1B68     		ldr	r3, [r3, #0]
 135 0042 FFF7FEFF 		bl	chprintf
 136              	.LVL5:
 137              	.LBB6:
 138              	.LBB7:
 139              		.loc 1 40 0
 140 0046 A268     		ldr	r2, [r4, #8]
 141              	.LBE7:
 142              	.LBE6:
 143              	.LBB9:
 144              	.LBB10:
 145              		.loc 1 43 0
 146 0048 A368     		ldr	r3, [r4, #8]
 147              	.LBE10:
 148              	.LBE9:
 149              	.LBB11:
 150              	.LBB8:
 151              		.loc 1 40 0
 152 004a C2F3C012 		ubfx	r2, r2, #7, #1
 153              	.LBE8:
 154              	.LBE11:
 155              		.loc 1 160 0
 156 004e 40F20001 		movw	r1, #:lower16:.LC2
 157 0052 2846     		mov	r0, r5
 158 0054 C0F20001 		movt	r1, #:upper16:.LC2
 159 0058 82F00102 		eor	r2, r2, #1
 160 005c C3F38013 		ubfx	r3, r3, #6, #1
 161 0060 FFF7FEFF 		bl	chprintf
 162              	.LVL6:
 163              		.loc 1 162 0
 164 0064 40F20003 		movw	r3, #:lower16:.LANCHOR3
 165 0068 C0F20003 		movt	r3, #:upper16:.LANCHOR3
 166 006c 40F20001 		movw	r1, #:lower16:.LC3
 167 0070 1A78     		ldrb	r2, [r3, #0]	@ zero_extendqisi2
 168 0072 2846     		mov	r0, r5
 169 0074 C0F20001 		movt	r1, #:upper16:.LC3
ARM GAS  /var/folders/dt/0wfd0knj7gs46m8vwfzktm600000gn/T//cchDiTuj.s 			page 4


 170              		.loc 1 163 0
 171 0078 BDE83840 		pop	{r3, r4, r5, lr}
 172              		.loc 1 162 0
 173 007c FFF7FEBF 		b	chprintf
 174              	.LVL7:
 175              		.cfi_endproc
 176              	.LFE68:
 177              		.size	cmd_card, .-cmd_card
 178              		.section	.text.Thread1,"ax",%progbits
 179              		.align	2
 180              		.p2align 4,,15
 181              		.thumb
 182              		.thumb_func
 183              		.type	Thread1, %function
 184              	Thread1:
 185              	.LFB69:
 186              		.loc 1 182 0
 187              		.cfi_startproc
 188              		@ args = 0, pretend = 0, frame = 0
 189              		@ frame_needed = 0, uses_anonymous_args = 0
 190              	.LVL8:
 191 0000 38B5     		push	{r3, r4, r5, lr}
 192              	.LCFI1:
 193              		.cfi_def_cfa_offset 16
 194              		.cfi_offset 3, -16
 195              		.cfi_offset 4, -12
 196              		.cfi_offset 5, -8
 197              		.cfi_offset 14, -4
 198              		.loc 1 185 0
 199 0002 0C4B     		ldr	r3, .L12
 200 0004 0C4A     		ldr	r2, .L12+4
 201 0006 DB69     		ldr	r3, [r3, #28]
 202              		.loc 1 187 0
 203 0008 4FF44064 		mov	r4, #3072
 204 000c 0B4D     		ldr	r5, .L12+8
 205              		.loc 1 185 0
 206 000e 9A61     		str	r2, [r3, #24]
 207              		.loc 1 187 0
 208 0010 C4F20104 		movt	r4, 16385
 209              	.LVL9:
 210              	.L9:
 211 0014 E368     		ldr	r3, [r4, #12]
 212              		.loc 1 191 0
 213 0016 4FF4FA70 		mov	r0, #500
 214              		.loc 1 187 0
 215 001a 83F08003 		eor	r3, r3, #128
 216 001e E360     		str	r3, [r4, #12]
 217              		.loc 1 188 0
 218 0020 2B68     		ldr	r3, [r5, #0]
 219 0022 13B9     		cbnz	r3, .L11
 220              		.loc 1 191 0
 221 0024 FFF7FEFF 		bl	chThdSleep
 222              	.LVL10:
 223 0028 F4E7     		b	.L9
 224              	.L11:
 225              		.loc 1 189 0
 226 002a C820     		movs	r0, #200
ARM GAS  /var/folders/dt/0wfd0knj7gs46m8vwfzktm600000gn/T//cchDiTuj.s 			page 5


 227 002c FFF7FEFF 		bl	chThdSleep
 228              	.LVL11:
 229 0030 F0E7     		b	.L9
 230              	.L13:
 231 0032 00BF     		.align	2
 232              	.L12:
 233 0034 00000000 		.word	rlist
 234 0038 60000000 		.word	.LC4
 235 003c 00000000 		.word	.LANCHOR0
 236              		.cfi_endproc
 237              	.LFE69:
 238              		.size	Thread1, .-Thread1
 239              		.section	.text.cmd_threads,"ax",%progbits
 240              		.align	2
 241              		.p2align 4,,15
 242              		.thumb
 243              		.thumb_func
 244              		.type	cmd_threads, %function
 245              	cmd_threads:
 246              	.LFB66:
 247              		.loc 1 106 0
 248              		.cfi_startproc
 249              		@ args = 0, pretend = 0, frame = 0
 250              		@ frame_needed = 0, uses_anonymous_args = 0
 251              	.LVL12:
 252 0000 2DE9F041 		push	{r4, r5, r6, r7, r8, lr}
 253              	.LCFI2:
 254              		.cfi_def_cfa_offset 24
 255              		.cfi_offset 4, -24
 256              		.cfi_offset 5, -20
 257              		.cfi_offset 6, -16
 258              		.cfi_offset 7, -12
 259              		.cfi_offset 8, -8
 260              		.cfi_offset 14, -4
 261              		.loc 1 111 0
 262 0004 0029     		cmp	r1, #0
 263              		.loc 1 106 0
 264 0006 84B0     		sub	sp, sp, #16
 265              	.LCFI3:
 266              		.cfi_def_cfa_offset 40
 267              		.loc 1 106 0
 268 0008 0746     		mov	r7, r0
 269              		.loc 1 111 0
 270 000a 05DD     		ble	.L15
 271              		.loc 1 112 0
 272 000c 1349     		ldr	r1, .L18
 273              	.LVL13:
 274              		.loc 1 124 0
 275 000e 04B0     		add	sp, sp, #16
 276 0010 BDE8F041 		pop	{r4, r5, r6, r7, r8, lr}
 277              		.loc 1 112 0
 278 0014 FFF7FEBF 		b	chprintf
 279              	.LVL14:
 280              	.L15:
 281              	.LBB14:
 282              	.LBB15:
 283              		.loc 1 115 0
ARM GAS  /var/folders/dt/0wfd0knj7gs46m8vwfzktm600000gn/T//cchDiTuj.s 			page 6


 284 0018 1149     		ldr	r1, .L18+4
 285              	.LVL15:
 286 001a FFF7FEFF 		bl	chprintf
 287              	.LVL16:
 288              		.loc 1 116 0
 289 001e FFF7FEFF 		bl	chRegFirstThread
 290              	.LVL17:
 291 0022 DFF84480 		ldr	r8, .L18+12
 292 0026 0446     		mov	r4, r0
 293              	.LVL18:
 294              	.L16:
 295              		.loc 1 118 0
 296 0028 A268     		ldr	r2, [r4, #8]
 297 002a E368     		ldr	r3, [r4, #12]
 298 002c 266A     		ldr	r6, [r4, #32]
 299 002e 0092     		str	r2, [sp, #0]
 300              		.loc 1 120 0
 301 0030 A27F     		ldrb	r2, [r4, #30]	@ zero_extendqisi2
 302              		.loc 1 118 0
 303 0032 0C49     		ldr	r1, .L18+8
 304              		.loc 1 120 0
 305 0034 013A     		subs	r2, r2, #1
 306              		.loc 1 118 0
 307 0036 0192     		str	r2, [sp, #4]
 308 0038 257F     		ldrb	r5, [r4, #28]	@ zero_extendqisi2
 309 003a 2246     		mov	r2, r4
 310 003c 58F82550 		ldr	r5, [r8, r5, lsl #2]
 311 0040 3846     		mov	r0, r7
 312              	.LVL19:
 313 0042 0295     		str	r5, [sp, #8]
 314 0044 0396     		str	r6, [sp, #12]
 315 0046 FFF7FEFF 		bl	chprintf
 316              	.LVL20:
 317              		.loc 1 122 0
 318 004a 2046     		mov	r0, r4
 319 004c FFF7FEFF 		bl	chRegNextThread
 320              	.LVL21:
 321              		.loc 1 123 0
 322 0050 0446     		mov	r4, r0
 323 0052 0028     		cmp	r0, #0
 324 0054 E8D1     		bne	.L16
 325              	.LBE15:
 326              	.LBE14:
 327              		.loc 1 124 0
 328 0056 04B0     		add	sp, sp, #16
 329 0058 BDE8F081 		pop	{r4, r5, r6, r7, r8, pc}
 330              	.L19:
 331              		.align	2
 332              	.L18:
 333 005c 68000000 		.word	.LC5
 334 0060 7C000000 		.word	.LC6
 335 0064 AC000000 		.word	.LC7
 336 0068 00000000 		.word	.LANCHOR4
 337              		.cfi_endproc
 338              	.LFE66:
 339              		.size	cmd_threads, .-cmd_threads
 340 006c AFF30080 		.section	.text.cmd_mem,"ax",%progbits
ARM GAS  /var/folders/dt/0wfd0knj7gs46m8vwfzktm600000gn/T//cchDiTuj.s 			page 7


 341              		.align	2
 342              		.p2align 4,,15
 343              		.thumb
 344              		.thumb_func
 345              		.type	cmd_mem, %function
 346              	cmd_mem:
 347              	.LFB65:
 348              		.loc 1 92 0
 349              		.cfi_startproc
 350              		@ args = 0, pretend = 0, frame = 8
 351              		@ frame_needed = 0, uses_anonymous_args = 0
 352              	.LVL22:
 353 0000 30B5     		push	{r4, r5, lr}
 354              	.LCFI4:
 355              		.cfi_def_cfa_offset 12
 356              		.cfi_offset 4, -12
 357              		.cfi_offset 5, -8
 358              		.cfi_offset 14, -4
 359              		.loc 1 96 0
 360 0002 0029     		cmp	r1, #0
 361              		.loc 1 92 0
 362 0004 83B0     		sub	sp, sp, #12
 363              	.LCFI5:
 364              		.cfi_def_cfa_offset 24
 365              		.loc 1 92 0
 366 0006 0446     		mov	r4, r0
 367              		.loc 1 96 0
 368 0008 04DD     		ble	.L21
 369              		.loc 1 97 0
 370 000a 0E49     		ldr	r1, .L23
 371              	.LVL23:
 372 000c FFF7FEFF 		bl	chprintf
 373              	.LVL24:
 374              	.L20:
 375              		.loc 1 104 0
 376 0010 03B0     		add	sp, sp, #12
 377 0012 30BD     		pop	{r4, r5, pc}
 378              	.LVL25:
 379              	.L21:
 380              	.LBB18:
 381              	.LBB19:
 382              		.loc 1 100 0
 383 0014 01A9     		add	r1, sp, #4
 384              	.LVL26:
 385 0016 0020     		movs	r0, #0
 386              	.LVL27:
 387 0018 FFF7FEFF 		bl	chHeapStatus
 388              	.LVL28:
 389 001c 0546     		mov	r5, r0
 390              	.LVL29:
 391              		.loc 1 101 0
 392 001e FFF7FEFF 		bl	chCoreStatus
 393              	.LVL30:
 394 0022 0949     		ldr	r1, .L23+4
 395 0024 0246     		mov	r2, r0
 396 0026 2046     		mov	r0, r4
 397 0028 FFF7FEFF 		bl	chprintf
ARM GAS  /var/folders/dt/0wfd0knj7gs46m8vwfzktm600000gn/T//cchDiTuj.s 			page 8


 398              	.LVL31:
 399              		.loc 1 102 0
 400 002c 2046     		mov	r0, r4
 401 002e 2A46     		mov	r2, r5
 402 0030 0649     		ldr	r1, .L23+8
 403 0032 FFF7FEFF 		bl	chprintf
 404              	.LVL32:
 405              		.loc 1 103 0
 406 0036 2046     		mov	r0, r4
 407 0038 0549     		ldr	r1, .L23+12
 408              	.LVL33:
 409 003a 019A     		ldr	r2, [sp, #4]
 410 003c FFF7FEFF 		bl	chprintf
 411              	.LVL34:
 412 0040 E6E7     		b	.L20
 413              	.L24:
 414 0042 00BF     		.align	2
 415              	.L23:
 416 0044 CC000000 		.word	.LC8
 417 0048 DC000000 		.word	.LC9
 418 004c FC000000 		.word	.LC10
 419 0050 14010000 		.word	.LC11
 420              	.LBE19:
 421              	.LBE18:
 422              		.cfi_endproc
 423              	.LFE65:
 424              		.size	cmd_mem, .-cmd_mem
 425 0054 AFF30080 		.section	.text.InsertHandler,"ax",%progbits
 425      AFF30080 
 425      AFF30080 
 426              		.align	2
 427              		.p2align 4,,15
 428              		.thumb
 429              		.thumb_func
 430              		.type	InsertHandler, %function
 431              	InsertHandler:
 432              	.LFB70:
 433              		.loc 1 199 0
 434              		.cfi_startproc
 435              		@ args = 0, pretend = 0, frame = 0
 436              		@ frame_needed = 0, uses_anonymous_args = 0
 437              	.LVL35:
 438 0000 38B5     		push	{r3, r4, r5, lr}
 439              	.LCFI6:
 440              		.cfi_def_cfa_offset 16
 441              		.cfi_offset 3, -16
 442              		.cfi_offset 4, -12
 443              		.cfi_offset 5, -8
 444              		.cfi_offset 14, -4
 445              		.loc 1 206 0
 446 0002 104B     		ldr	r3, .L30
 447              		.loc 1 207 0
 448 0004 104C     		ldr	r4, .L30+4
 449              		.loc 1 206 0
 450 0006 0125     		movs	r5, #1
 451 0008 1D60     		str	r5, [r3, #0]
 452              		.loc 1 208 0
ARM GAS  /var/folders/dt/0wfd0knj7gs46m8vwfzktm600000gn/T//cchDiTuj.s 			page 9


 453 000a 1048     		ldr	r0, .L30+8
 454              	.LVL36:
 455              		.loc 1 207 0
 456 000c 0523     		movs	r3, #5
 457 000e 2360     		str	r3, [r4, #0]
 458              		.loc 1 208 0
 459 0010 FFF7FEFF 		bl	mmcConnect
 460              	.LVL37:
 461 0014 10B1     		cbz	r0, .L26
 462              		.loc 1 209 0
 463 0016 0223     		movs	r3, #2
 464 0018 2360     		str	r3, [r4, #0]
 465              		.loc 1 210 0
 466 001a 38BD     		pop	{r3, r4, r5, pc}
 467              	.L26:
 468              		.loc 1 212 0
 469 001c 0623     		movs	r3, #6
 470              		.loc 1 213 0
 471 001e 0C49     		ldr	r1, .L30+12
 472              		.loc 1 212 0
 473 0020 2360     		str	r3, [r4, #0]
 474              		.loc 1 213 0
 475 0022 FFF7FEFF 		bl	f_mount
 476              	.LVL38:
 477 0026 0B4B     		ldr	r3, .L30+16
 478 0028 1870     		strb	r0, [r3, #0]
 479              		.loc 1 215 0
 480 002a 18B9     		cbnz	r0, .L29
 481              		.loc 1 221 0
 482 002c 0A4B     		ldr	r3, .L30+20
 483              		.loc 1 220 0
 484 002e 2560     		str	r5, [r4, #0]
 485              		.loc 1 221 0
 486 0030 1D60     		str	r5, [r3, #0]
 487 0032 38BD     		pop	{r3, r4, r5, pc}
 488              	.L29:
 489              	.LBB22:
 490              	.LBB23:
 491              		.loc 1 217 0
 492 0034 0548     		ldr	r0, .L30+8
 493              		.loc 1 216 0
 494 0036 0323     		movs	r3, #3
 495 0038 2360     		str	r3, [r4, #0]
 496              	.LBE23:
 497              	.LBE22:
 498              		.loc 1 222 0
 499 003a BDE83840 		pop	{r3, r4, r5, lr}
 500              	.LBB25:
 501              	.LBB24:
 502              		.loc 1 217 0
 503 003e FFF7FEBF 		b	mmcDisconnect
 504              	.LVL39:
 505              	.L31:
 506 0042 00BF     		.align	2
 507              	.L30:
 508 0044 00000000 		.word	.LANCHOR1
 509 0048 00000000 		.word	.LANCHOR2
ARM GAS  /var/folders/dt/0wfd0knj7gs46m8vwfzktm600000gn/T//cchDiTuj.s 			page 10


 510 004c 00000000 		.word	.LANCHOR5
 511 0050 00000000 		.word	.LANCHOR6
 512 0054 00000000 		.word	.LANCHOR3
 513 0058 00000000 		.word	.LANCHOR0
 514              	.LBE24:
 515              	.LBE25:
 516              		.cfi_endproc
 517              	.LFE70:
 518              		.size	InsertHandler, .-InsertHandler
 519 005c AFF30080 		.section	.text.scan_files.constprop.3,"ax",%progbits
 520              		.align	2
 521              		.p2align 4,,15
 522              		.thumb
 523              		.thumb_func
 524              		.type	scan_files.constprop.3, %function
 525              	scan_files.constprop.3:
 526              	.LFB76:
 527              		.loc 1 48 0
 528              		.cfi_startproc
 529              		@ args = 0, pretend = 0, frame = 56
 530              		@ frame_needed = 0, uses_anonymous_args = 0
 531              	.LVL40:
 532 0000 F0B5     		push	{r4, r5, r6, r7, lr}
 533              	.LCFI7:
 534              		.cfi_def_cfa_offset 20
 535              		.cfi_offset 4, -20
 536              		.cfi_offset 5, -16
 537              		.cfi_offset 6, -12
 538              		.cfi_offset 7, -8
 539              		.cfi_offset 14, -4
 540              		.loc 1 150 0
 541 0002 1D4C     		ldr	r4, .L48
 542              		.loc 1 48 0
 543 0004 8FB0     		sub	sp, sp, #60
 544              	.LCFI8:
 545              		.cfi_def_cfa_offset 80
 546              		.loc 1 48 0
 547 0006 0546     		mov	r5, r0
 548              		.loc 1 59 0
 549 0008 2146     		mov	r1, r4
 550 000a 07A8     		add	r0, sp, #28
 551              	.LVL41:
 552 000c FFF7FEFF 		bl	f_opendir
 553              	.LVL42:
 554              		.loc 1 60 0
 555 0010 50BB     		cbnz	r0, .L33
 556              		.loc 1 61 0
 557 0012 2046     		mov	r0, r4
 558              	.LVL43:
 559 0014 FFF7FEFF 		bl	strlen
 560              	.LVL44:
 561              		.loc 1 70 0
 562 0018 461C     		adds	r6, r0, #1
 563 001a 2718     		adds	r7, r4, r0
 564              		.loc 1 71 0
 565 001c A619     		adds	r6, r4, r6
 566              	.LVL45:
ARM GAS  /var/folders/dt/0wfd0knj7gs46m8vwfzktm600000gn/T//cchDiTuj.s 			page 11


 567              	.L46:
 568              		.loc 1 63 0
 569 001e 01A9     		add	r1, sp, #4
 570 0020 07A8     		add	r0, sp, #28
 571 0022 FFF7FEFF 		bl	f_readdir
 572              	.LVL46:
 573              		.loc 1 64 0
 574 0026 F8B9     		cbnz	r0, .L33
 575              	.L47:
 576 0028 9DF80D30 		ldrb	r3, [sp, #13]	@ zero_extendqisi2
 577 002c E3B1     		cbz	r3, .L33
 578              		.loc 1 66 0
 579 002e 2E2B     		cmp	r3, #46
 580 0030 F5D0     		beq	.L46
 581              		.loc 1 69 0
 582 0032 9DF80C40 		ldrb	r4, [sp, #12]	@ zero_extendqisi2
 583              		.loc 1 71 0
 584 0036 0DF10D01 		add	r1, sp, #13
 585              	.LVL47:
 586              		.loc 1 69 0
 587 003a 04F01004 		and	r4, r4, #16
 588 003e E4B2     		uxtb	r4, r4
 589              		.loc 1 71 0
 590 0040 3046     		mov	r0, r6
 591              	.LVL48:
 592              		.loc 1 78 0
 593 0042 0D4A     		ldr	r2, .L48
 594 0044 0B46     		mov	r3, r1
 595              		.loc 1 69 0
 596 0046 8CB1     		cbz	r4, .L36
 597              		.loc 1 70 0
 598 0048 2F23     		movs	r3, #47
 599 004a 3B70     		strb	r3, [r7, #0]
 600              		.loc 1 71 0
 601 004c FFF7FEFF 		bl	strcpy
 602              	.LVL49:
 603              		.loc 1 72 0
 604 0050 2846     		mov	r0, r5
 605 0052 FFF7D5FF 		bl	scan_files.constprop.3
 606              	.LVL50:
 607 0056 0346     		mov	r3, r0
 608              	.LVL51:
 609              		.loc 1 73 0
 610 0058 33B9     		cbnz	r3, .L33
 611              		.loc 1 75 0
 612 005a 3B70     		strb	r3, [r7, #0]
 613              		.loc 1 63 0
 614 005c 01A9     		add	r1, sp, #4
 615 005e 07A8     		add	r0, sp, #28
 616              	.LVL52:
 617 0060 FFF7FEFF 		bl	f_readdir
 618              	.LVL53:
 619              		.loc 1 64 0
 620 0064 0028     		cmp	r0, #0
 621 0066 DFD0     		beq	.L47
 622              	.LVL54:
 623              	.L33:
ARM GAS  /var/folders/dt/0wfd0knj7gs46m8vwfzktm600000gn/T//cchDiTuj.s 			page 12


 624              		.loc 1 83 0
 625 0068 0FB0     		add	sp, sp, #60
 626 006a F0BD     		pop	{r4, r5, r6, r7, pc}
 627              	.LVL55:
 628              	.L36:
 629              		.loc 1 78 0
 630 006c 2846     		mov	r0, r5
 631 006e 0349     		ldr	r1, .L48+4
 632              	.LVL56:
 633 0070 FFF7FEFF 		bl	chprintf
 634              	.LVL57:
 635 0074 D3E7     		b	.L46
 636              	.L49:
 637 0076 00BF     		.align	2
 638              	.L48:
 639 0078 00000000 		.word	.LANCHOR7
 640 007c 34010000 		.word	.LC12
 641              		.cfi_endproc
 642              	.LFE76:
 643              		.size	scan_files.constprop.3, .-scan_files.constprop.3
 644              		.section	.text.cmd_tree,"ax",%progbits
 645              		.align	2
 646              		.p2align 4,,15
 647              		.thumb
 648              		.thumb_func
 649              		.type	cmd_tree, %function
 650              	cmd_tree:
 651              	.LFB67:
 652              		.loc 1 126 0
 653              		.cfi_startproc
 654              		@ args = 0, pretend = 0, frame = 8
 655              		@ frame_needed = 0, uses_anonymous_args = 0
 656              	.LVL58:
 657 0000 30B5     		push	{r4, r5, lr}
 658              	.LCFI9:
 659              		.cfi_def_cfa_offset 12
 660              		.cfi_offset 4, -12
 661              		.cfi_offset 5, -8
 662              		.cfi_offset 14, -4
 663              		.loc 1 132 0
 664 0002 0029     		cmp	r1, #0
 665              		.loc 1 126 0
 666 0004 85B0     		sub	sp, sp, #20
 667              	.LCFI10:
 668              		.cfi_def_cfa_offset 32
 669              		.loc 1 126 0
 670 0006 0446     		mov	r4, r0
 671              		.loc 1 132 0
 672 0008 04DD     		ble	.L51
 673              		.loc 1 133 0
 674 000a 1449     		ldr	r1, .L56
 675              	.LVL59:
 676 000c FFF7FEFF 		bl	chprintf
 677              	.LVL60:
 678              	.L50:
 679              		.loc 1 151 0
 680 0010 05B0     		add	sp, sp, #20
ARM GAS  /var/folders/dt/0wfd0knj7gs46m8vwfzktm600000gn/T//cchDiTuj.s 			page 13


 681 0012 30BD     		pop	{r4, r5, pc}
 682              	.LVL61:
 683              	.L51:
 684              		.loc 1 136 0
 685 0014 124B     		ldr	r3, .L56+4
 686 0016 1B68     		ldr	r3, [r3, #0]
 687 0018 1BB9     		cbnz	r3, .L53
 688              		.loc 1 137 0
 689 001a 1249     		ldr	r1, .L56+8
 690              	.LVL62:
 691 001c FFF7FEFF 		bl	chprintf
 692              	.LVL63:
 693 0020 F6E7     		b	.L50
 694              	.LVL64:
 695              	.L53:
 696              		.loc 1 140 0
 697 0022 1148     		ldr	r0, .L56+12
 698              	.LVL65:
 699 0024 02A9     		add	r1, sp, #8
 700              	.LVL66:
 701 0026 03AA     		add	r2, sp, #12
 702              	.LVL67:
 703 0028 FFF7FEFF 		bl	f_getfree
 704              	.LVL68:
 705              		.loc 1 141 0
 706 002c 0546     		mov	r5, r0
 707 002e 20B1     		cbz	r0, .L54
 708              		.loc 1 142 0
 709 0030 2046     		mov	r0, r4
 710              	.LVL69:
 711 0032 0E49     		ldr	r1, .L56+16
 712 0034 FFF7FEFF 		bl	chprintf
 713              	.LVL70:
 714 0038 EAE7     		b	.L50
 715              	.LVL71:
 716              	.L54:
 717              		.loc 1 148 0
 718 003a 0D4B     		ldr	r3, .L56+20
 719              	.LVL72:
 720 003c 029A     		ldr	r2, [sp, #8]
 721 003e 9B78     		ldrb	r3, [r3, #2]	@ zero_extendqisi2
 722 0040 5102     		lsls	r1, r2, #9
 723              		.loc 1 145 0
 724 0042 03FB01F1 		mul	r1, r3, r1
 725 0046 2046     		mov	r0, r4
 726              	.LVL73:
 727 0048 0091     		str	r1, [sp, #0]
 728 004a 0A49     		ldr	r1, .L56+24
 729 004c FFF7FEFF 		bl	chprintf
 730              	.LVL74:
 731              		.loc 1 149 0
 732 0050 094B     		ldr	r3, .L56+28
 733              		.loc 1 150 0
 734 0052 2046     		mov	r0, r4
 735              		.loc 1 149 0
 736 0054 1D70     		strb	r5, [r3, #0]
 737              		.loc 1 150 0
ARM GAS  /var/folders/dt/0wfd0knj7gs46m8vwfzktm600000gn/T//cchDiTuj.s 			page 14


 738 0056 FFF7FEFF 		bl	scan_files.constprop.3
 739              	.LVL75:
 740 005a D9E7     		b	.L50
 741              	.L57:
 742              		.align	2
 743              	.L56:
 744 005c 3C010000 		.word	.LC13
 745 0060 00000000 		.word	.LANCHOR0
 746 0064 4C010000 		.word	.LC14
 747 0068 68010000 		.word	.LC15
 748 006c 6C010000 		.word	.LC16
 749 0070 00000000 		.word	.LANCHOR6
 750 0074 88010000 		.word	.LC17
 751 0078 00000000 		.word	.LANCHOR7
 752              		.cfi_endproc
 753              	.LFE67:
 754              		.size	cmd_tree, .-cmd_tree
 755 007c AFF30080 		.section	.text.startup.main,"ax",%progbits
 756              		.align	2
 757              		.p2align 4,,15
 758              		.global	main
 759              		.thumb
 760              		.thumb_func
 761              		.type	main, %function
 762              	main:
 763              	.LFB72:
 764              		.loc 1 236 0
 765              		.cfi_startproc
 766              		@ args = 0, pretend = 0, frame = 24
 767              		@ frame_needed = 0, uses_anonymous_args = 0
 768              	.LVL76:
 769 0000 10B5     		push	{r4, lr}
 770              	.LCFI11:
 771              		.cfi_def_cfa_offset 8
 772              		.cfi_offset 4, -8
 773              		.cfi_offset 14, -4
 774              		.loc 1 267 0
 775 0002 4FF44064 		mov	r4, #3072
 776              		.loc 1 236 0
 777 0006 88B0     		sub	sp, sp, #32
 778              	.LCFI12:
 779              		.cfi_def_cfa_offset 40
 780              		.loc 1 251 0
 781 0008 FFF7FEFF 		bl	halInit
 782              	.LVL77:
 783              		.loc 1 267 0
 784 000c C4F20104 		movt	r4, 16385
 785              		.loc 1 252 0
 786 0010 FFF7FEFF 		bl	chSysInit
 787              	.LVL78:
 788              		.loc 1 257 0
 789 0014 2548     		ldr	r0, .L64
 790 0016 0021     		movs	r1, #0
 791 0018 FFF7FEFF 		bl	sdStart
 792              	.LVL79:
 793              		.loc 1 262 0
 794 001c FFF7FEFF 		bl	shellInit
ARM GAS  /var/folders/dt/0wfd0knj7gs46m8vwfzktm600000gn/T//cchDiTuj.s 			page 15


 795              	.LVL80:
 796              		.loc 1 267 0
 797 0020 2046     		mov	r0, r4
 798 0022 4FF48051 		mov	r1, #4096
 799 0026 0622     		movs	r2, #6
 800 0028 FFF7FEFF 		bl	_pal_lld_setgroupmode
 801              	.LVL81:
 802              		.loc 1 268 0
 803 002c 4FF48053 		mov	r3, #4096
 804 0030 2361     		str	r3, [r4, #16]
 805              		.loc 1 269 0
 806 0032 1F4C     		ldr	r4, .L64+4
 807 0034 1F4A     		ldr	r2, .L64+8
 808 0036 0094     		str	r4, [sp, #0]
 809 0038 1F4C     		ldr	r4, .L64+12
 810 003a 204B     		ldr	r3, .L64+16
 811 003c 2048     		ldr	r0, .L64+20
 812 003e 2149     		ldr	r1, .L64+24
 813 0040 0194     		str	r4, [sp, #4]
 814              		.loc 1 277 0
 815 0042 0024     		movs	r4, #0
 816              		.loc 1 269 0
 817 0044 FFF7FEFF 		bl	mmcObjectInit
 818              	.LVL82:
 819              		.loc 1 272 0
 820 0048 1D48     		ldr	r0, .L64+20
 821 004a 2146     		mov	r1, r4
 822 004c FFF7FEFF 		bl	mmcStart
 823              	.LVL83:
 824              		.loc 1 277 0
 825 0050 1D4B     		ldr	r3, .L64+28
 826 0052 4FF49871 		mov	r1, #304
 827 0056 4022     		movs	r2, #64
 828 0058 0094     		str	r4, [sp, #0]
 829 005a 1C48     		ldr	r0, .L64+32
 830 005c FFF7FEFF 		bl	chThdCreateStatic
 831              	.LVL84:
 832              		.loc 1 283 0
 833 0060 1B48     		ldr	r0, .L64+36
 834 0062 02A9     		add	r1, sp, #8
 835 0064 0122     		movs	r2, #1
 836 0066 FFF7FEFF 		bl	chEvtRegisterMask
 837              	.LVL85:
 838              		.loc 1 284 0
 839 006a 1A48     		ldr	r0, .L64+40
 840 006c 05A9     		add	r1, sp, #20
 841 006e 0222     		movs	r2, #2
 842 0070 FFF7FEFF 		bl	chEvtRegisterMask
 843              	.LVL86:
 844              		.loc 1 286 0
 845 0074 64B1     		cbz	r4, .L62
 846              	.L59:
 847              		.loc 1 288 0
 848 0076 237F     		ldrb	r3, [r4, #28]	@ zero_extendqisi2
 849 0078 0E2B     		cmp	r3, #14
 850 007a 11D0     		beq	.L63
 851              	.LVL87:
ARM GAS  /var/folders/dt/0wfd0knj7gs46m8vwfzktm600000gn/T//cchDiTuj.s 			page 16


 852              	.L60:
 853              		.loc 1 292 0
 854 007c 4FF0FF30 		mov	r0, #-1
 855 0080 FFF7FEFF 		bl	chEvtWaitOne
 856              	.LVL88:
 857 0084 0146     		mov	r1, r0
 858 0086 1448     		ldr	r0, .L64+44
 859 0088 FFF7FEFF 		bl	chEvtDispatch
 860              	.LVL89:
 861              		.loc 1 286 0
 862 008c 002C     		cmp	r4, #0
 863 008e F2D1     		bne	.L59
 864              	.L62:
 865              		.loc 1 287 0
 866 0090 1248     		ldr	r0, .L64+48
 867 0092 4FF40B61 		mov	r1, #2224
 868 0096 4022     		movs	r2, #64
 869 0098 FFF7FEFF 		bl	shellCreate
 870              	.LVL90:
 871 009c 0446     		mov	r4, r0
 872              	.LVL91:
 873 009e EDE7     		b	.L60
 874              	.LVL92:
 875              	.L63:
 876              		.loc 1 289 0
 877 00a0 2046     		mov	r0, r4
 878 00a2 FFF7FEFF 		bl	chThdRelease
 879              	.LVL93:
 880              		.loc 1 290 0
 881 00a6 0024     		movs	r4, #0
 882 00a8 E8E7     		b	.L60
 883              	.L65:
 884 00aa 00BF     		.align	2
 885              	.L64:
 886 00ac 00000000 		.word	SD2
 887 00b0 00000000 		.word	mmc_is_protected
 888 00b4 00000000 		.word	.LANCHOR8
 889 00b8 00000000 		.word	mmc_is_inserted
 890 00bc 00000000 		.word	.LANCHOR9
 891 00c0 00000000 		.word	.LANCHOR5
 892 00c4 00000000 		.word	SPID2
 893 00c8 00000000 		.word	Thread1
 894 00cc 00000000 		.word	.LANCHOR10
 895 00d0 1C000000 		.word	.LANCHOR5+28
 896 00d4 20000000 		.word	.LANCHOR5+32
 897 00d8 00000000 		.word	.LANCHOR12
 898 00dc 00000000 		.word	.LANCHOR11
 899              		.cfi_endproc
 900              	.LFE72:
 901              		.size	main, .-main
 902              		.global	fbuff
 903              		.global	MMCD1
 904              		.global	tried
 905              		.global	connected
 906              		.global	err
 907              		.global	MMC_FS
 908              		.section	.rodata.commands,"a",%progbits
ARM GAS  /var/folders/dt/0wfd0knj7gs46m8vwfzktm600000gn/T//cchDiTuj.s 			page 17


 909              		.align	2
 910              		.type	commands, %object
 911              		.size	commands, 40
 912              	commands:
 913 0000 50020000 		.word	.LC33
 914 0004 00000000 		.word	cmd_mem
 915 0008 54020000 		.word	.LC34
 916 000c 00000000 		.word	cmd_threads
 917 0010 5C020000 		.word	.LC35
 918 0014 00000000 		.word	cmd_tree
 919 0018 64020000 		.word	.LC36
 920 001c 00000000 		.word	cmd_card
 921 0020 00000000 		.word	0
 922 0024 00000000 		.word	0
 923              		.section	.bss.MMC_FS,"aw",%nobits
 924              		.align	2
 925              		.set	.LANCHOR6,. + 0
 926              		.type	MMC_FS, %object
 927              		.size	MMC_FS, 560
 928              	MMC_FS:
 929 0000 00000000 		.space	560
 929      00000000 
 929      00000000 
 929      00000000 
 929      00000000 
 930              		.section	.bss.err,"aw",%nobits
 931              		.set	.LANCHOR3,. + 0
 932              		.type	err, %object
 933              		.size	err, 1
 934              	err:
 935 0000 00       		.space	1
 936              		.section	.rodata.shell_cfg1,"a",%progbits
 937              		.align	2
 938              		.set	.LANCHOR11,. + 0
 939              		.type	shell_cfg1, %object
 940              		.size	shell_cfg1, 8
 941              	shell_cfg1:
 942 0000 00000000 		.word	SD2
 943 0004 00000000 		.word	commands
 944              		.section	.bss.waThread1,"aw",%nobits
 945              		.align	3
 946              		.set	.LANCHOR10,. + 0
 947              		.type	waThread1, %object
 948              		.size	waThread1, 304
 949              	waThread1:
 950 0000 00000000 		.space	304
 950      00000000 
 950      00000000 
 950      00000000 
 950      00000000 
 951              		.section	.bss.tried,"aw",%nobits
 952              		.align	2
 953              		.set	.LANCHOR1,. + 0
 954              		.type	tried, %object
 955              		.size	tried, 4
 956              	tried:
 957 0000 00000000 		.space	4
ARM GAS  /var/folders/dt/0wfd0knj7gs46m8vwfzktm600000gn/T//cchDiTuj.s 			page 18


 958              		.section	.bss.MMCD1,"aw",%nobits
 959              		.align	2
 960              		.set	.LANCHOR5,. + 0
 961              		.type	MMCD1, %object
 962              		.size	MMCD1, 64
 963              	MMCD1:
 964 0000 00000000 		.space	64
 964      00000000 
 964      00000000 
 964      00000000 
 964      00000000 
 965              		.section	.bss.fs_ready,"aw",%nobits
 966              		.align	2
 967              		.set	.LANCHOR0,. + 0
 968              		.type	fs_ready, %object
 969              		.size	fs_ready, 4
 970              	fs_ready:
 971 0000 00000000 		.space	4
 972              		.section	.rodata.states.6695,"a",%progbits
 973              		.align	2
 974              		.set	.LANCHOR4,. + 0
 975              		.type	states.6695, %object
 976              		.size	states.6695, 60
 977              	states.6695:
 978 0000 CC010000 		.word	.LC18
 979 0004 D4010000 		.word	.LC19
 980 0008 DC010000 		.word	.LC20
 981 000c E8010000 		.word	.LC21
 982 0010 F0010000 		.word	.LC22
 983 0014 F8010000 		.word	.LC23
 984 0018 00020000 		.word	.LC24
 985 001c 0C020000 		.word	.LC25
 986 0020 14020000 		.word	.LC26
 987 0024 1C020000 		.word	.LC27
 988 0028 28020000 		.word	.LC28
 989 002c 30020000 		.word	.LC29
 990 0030 38020000 		.word	.LC30
 991 0034 40020000 		.word	.LC31
 992 0038 48020000 		.word	.LC32
 993              		.section	.bss.fbuff,"aw",%nobits
 994              		.align	2
 995              		.set	.LANCHOR7,. + 0
 996              		.type	fbuff, %object
 997              		.size	fbuff, 1024
 998              	fbuff:
 999 0000 00000000 		.space	1024
 999      00000000 
 999      00000000 
 999      00000000 
 999      00000000 
 1000              		.section	.data.ls_spicfg,"aw",%progbits
 1001              		.align	2
 1002              		.set	.LANCHOR8,. + 0
 1003              		.type	ls_spicfg, %object
 1004              		.size	ls_spicfg, 12
 1005              	ls_spicfg:
 1006 0000 00000000 		.word	0
ARM GAS  /var/folders/dt/0wfd0knj7gs46m8vwfzktm600000gn/T//cchDiTuj.s 			page 19


 1007 0004 000C0140 		.word	1073810432
 1008 0008 0C00     		.short	12
 1009 000a 3000     		.short	48
 1010              		.section	.rodata.str1.4,"aMS",%progbits,1
 1011              		.align	2
 1012              	.LC0:
 1013 0000 44455445 		.ascii	"DETECT %d, PROTECT %d\015\012\000"
 1013      43542025 
 1013      642C2050 
 1013      524F5445 
 1013      43542025 
 1014              	.LC1:
 1015 0018 74726965 		.ascii	"tried %d, connected %d\015\012\000"
 1015      64202564 
 1015      2C20636F 
 1015      6E6E6563 
 1015      74656420 
 1016 0031 000000   		.space	3
 1017              	.LC2:
 1018 0034 696E7365 		.ascii	"inserted %d, protected %d\015\012\000"
 1018      72746564 
 1018      2025642C 
 1018      2070726F 
 1018      74656374 
 1019              	.LC3:
 1020 0050 6572726F 		.ascii	"error je %d\015\012\000"
 1020      72206A65 
 1020      2025640D 
 1020      0A00
 1021 005e 0000     		.space	2
 1022              	.LC4:
 1023 0060 626C696E 		.ascii	"blinker\000"
 1023      6B657200 
 1024              	.LC5:
 1025 0068 55736167 		.ascii	"Usage: threads\015\012\000"
 1025      653A2074 
 1025      68726561 
 1025      64730D0A 
 1025      00
 1026 0079 000000   		.space	3
 1027              	.LC6:
 1028 007c 20202020 		.ascii	"    addr    stack prio refs     state time\015\012\000"
 1028      61646472 
 1028      20202020 
 1028      73746163 
 1028      6B207072 
 1029 00a9 000000   		.space	3
 1030              	.LC7:
 1031 00ac 252E386C 		.ascii	"%.8lx %.8lx %4lu %4lu %9s %lu\015\012\000"
 1031      7820252E 
 1031      386C7820 
 1031      25346C75 
 1031      2025346C 
 1032              	.LC8:
 1033 00cc 55736167 		.ascii	"Usage: mem\015\012\000"
 1033      653A206D 
 1033      656D0D0A 
ARM GAS  /var/folders/dt/0wfd0knj7gs46m8vwfzktm600000gn/T//cchDiTuj.s 			page 20


 1033      00
 1034 00d9 000000   		.space	3
 1035              	.LC9:
 1036 00dc 636F7265 		.ascii	"core free memory : %u bytes\015\012\000"
 1036      20667265 
 1036      65206D65 
 1036      6D6F7279 
 1036      203A2025 
 1037 00fa 0000     		.space	2
 1038              	.LC10:
 1039 00fc 68656170 		.ascii	"heap fragments   : %u\015\012\000"
 1039      20667261 
 1039      676D656E 
 1039      74732020 
 1039      203A2025 
 1040              	.LC11:
 1041 0114 68656170 		.ascii	"heap free total  : %u bytes\015\012\000"
 1041      20667265 
 1041      6520746F 
 1041      74616C20 
 1041      203A2025 
 1042 0132 0000     		.space	2
 1043              	.LC12:
 1044 0134 25732F25 		.ascii	"%s/%s\015\012\000"
 1044      730D0A00 
 1045              	.LC13:
 1046 013c 55736167 		.ascii	"Usage: tree\015\012\000"
 1046      653A2074 
 1046      7265650D 
 1046      0A00
 1047 014a 0000     		.space	2
 1048              	.LC14:
 1049 014c 46696C65 		.ascii	"File System not mounted\015\012\000"
 1049      20537973 
 1049      74656D20 
 1049      6E6F7420 
 1049      6D6F756E 
 1050 0166 0000     		.space	2
 1051              	.LC15:
 1052 0168 2F00     		.ascii	"/\000"
 1053 016a 0000     		.space	2
 1054              	.LC16:
 1055 016c 46533A20 		.ascii	"FS: f_getfree() failed\015\012\000"
 1055      665F6765 
 1055      74667265 
 1055      65282920 
 1055      6661696C 
 1056 0185 000000   		.space	3
 1057              	.LC17:
 1058 0188 46533A20 		.ascii	"FS: %lu free clusters, %lu sectors per cluster, %lu"
 1058      256C7520 
 1058      66726565 
 1058      20636C75 
 1058      73746572 
 1059 01bb 20627974 		.ascii	" bytes free\015\012\000"
 1059      65732066 
 1059      7265650D 
ARM GAS  /var/folders/dt/0wfd0knj7gs46m8vwfzktm600000gn/T//cchDiTuj.s 			page 21


 1059      0A00
 1060 01c9 000000   		.space	3
 1061              	.LC18:
 1062 01cc 52454144 		.ascii	"READY\000"
 1062      5900
 1063 01d2 0000     		.space	2
 1064              	.LC19:
 1065 01d4 43555252 		.ascii	"CURRENT\000"
 1065      454E5400 
 1066              	.LC20:
 1067 01dc 53555350 		.ascii	"SUSPENDED\000"
 1067      454E4445 
 1067      4400
 1068 01e6 0000     		.space	2
 1069              	.LC21:
 1070 01e8 57545345 		.ascii	"WTSEM\000"
 1070      4D00
 1071 01ee 0000     		.space	2
 1072              	.LC22:
 1073 01f0 57544D54 		.ascii	"WTMTX\000"
 1073      5800
 1074 01f6 0000     		.space	2
 1075              	.LC23:
 1076 01f8 5754434F 		.ascii	"WTCOND\000"
 1076      4E4400
 1077 01ff 00       		.space	1
 1078              	.LC24:
 1079 0200 534C4545 		.ascii	"SLEEPING\000"
 1079      50494E47 
 1079      00
 1080 0209 000000   		.space	3
 1081              	.LC25:
 1082 020c 57544558 		.ascii	"WTEXIT\000"
 1082      495400
 1083 0213 00       		.space	1
 1084              	.LC26:
 1085 0214 57544F52 		.ascii	"WTOREVT\000"
 1085      45565400 
 1086              	.LC27:
 1087 021c 5754414E 		.ascii	"WTANDEVT\000"
 1087      44455654 
 1087      00
 1088 0225 000000   		.space	3
 1089              	.LC28:
 1090 0228 534E444D 		.ascii	"SNDMSGQ\000"
 1090      53475100 
 1091              	.LC29:
 1092 0230 534E444D 		.ascii	"SNDMSG\000"
 1092      534700
 1093 0237 00       		.space	1
 1094              	.LC30:
 1095 0238 57544D53 		.ascii	"WTMSG\000"
 1095      4700
 1096 023e 0000     		.space	2
 1097              	.LC31:
 1098 0240 57545155 		.ascii	"WTQUEUE\000"
 1098      45554500 
ARM GAS  /var/folders/dt/0wfd0knj7gs46m8vwfzktm600000gn/T//cchDiTuj.s 			page 22


 1099              	.LC32:
 1100 0248 46494E41 		.ascii	"FINAL\000"
 1100      4C00
 1101 024e 0000     		.space	2
 1102              	.LC33:
 1103 0250 6D656D00 		.ascii	"mem\000"
 1104              	.LC34:
 1105 0254 74687265 		.ascii	"threads\000"
 1105      61647300 
 1106              	.LC35:
 1107 025c 74726565 		.ascii	"tree\000"
 1107      00
 1108 0261 000000   		.space	3
 1109              	.LC36:
 1110 0264 63617264 		.ascii	"card\000"
 1110      00
 1111 0269 000000   		.section	.data.hs_spicfg,"aw",%progbits
 1112              		.align	2
 1113              		.set	.LANCHOR9,. + 0
 1114              		.type	hs_spicfg, %object
 1115              		.size	hs_spicfg, 12
 1116              	hs_spicfg:
 1117 0000 00000000 		.word	0
 1118 0004 000C0140 		.word	1073810432
 1119 0008 0C00     		.short	12
 1120 000a 0000     		.short	0
 1121              		.section	.bss.connected,"aw",%nobits
 1122              		.align	2
 1123              		.set	.LANCHOR2,. + 0
 1124              		.type	connected, %object
 1125              		.size	connected, 4
 1126              	connected:
 1127 0000 00000000 		.space	4
 1128              		.section	.rodata.evhndl.6728,"a",%progbits
 1129              		.align	2
 1130              		.set	.LANCHOR12,. + 0
 1131              		.type	evhndl.6728, %object
 1132              		.size	evhndl.6728, 8
 1133              	evhndl.6728:
 1134 0000 00000000 		.word	InsertHandler
 1135 0004 00000000 		.word	RemoveHandler
 1136              		.text
 1137              	.Letext0:
 1138              		.file 2 "/Users/toxygen/Applications/yagarto-4.7.2/bin/../lib/gcc/arm-none-eabi/4.7.2/include/stdd
 1139              		.file 3 "/Users/toxygen/Applications/yagarto-4.7.2/bin/../lib/gcc/arm-none-eabi/4.7.2/../../../../
 1140              		.file 4 "../../os/ports/GCC/ARMCMx/chtypes.h"
 1141              		.file 5 "../../os/kernel/include/chlists.h"
 1142              		.file 6 "../../os/kernel/include/chthreads.h"
 1143              		.file 7 "../../os/ports/GCC/ARMCMx/chcore_v7m.h"
 1144              		.file 8 "../../os/kernel/include/chvt.h"
 1145              		.file 9 "../../os/kernel/include/chschd.h"
 1146              		.file 10 "../../os/kernel/include/chmtx.h"
 1147              		.file 11 "../../os/kernel/include/chevents.h"
 1148              		.file 12 "../../os/kernel/include/chmemcore.h"
 1149              		.file 13 "../../os/kernel/include/chheap.h"
 1150              		.file 14 "../../os/kernel/include/chqueues.h"
 1151              		.file 15 "../../os/kernel/include/chioch.h"
ARM GAS  /var/folders/dt/0wfd0knj7gs46m8vwfzktm600000gn/T//cchDiTuj.s 			page 23


 1152              		.file 16 "../../os/hal/platforms/STM32F1xx/stm32f10x.h"
 1153              		.file 17 "../../os/hal/platforms/STM32F1xx/stm32_dma.h"
 1154              		.file 18 "../../os/hal/platforms/STM32/GPIOv1/pal_lld.h"
 1155              		.file 19 "../../os/hal/include/serial.h"
 1156              		.file 20 "../../os/hal/platforms/STM32/serial_lld.h"
 1157              		.file 21 "../../os/hal/include/spi.h"
 1158              		.file 22 "../../os/hal/platforms/STM32/spi_lld.h"
 1159              		.file 23 "../../os/hal/include/mmc_spi.h"
 1160              		.file 24 "../../os/various/shell.h"
 1161              		.file 25 "../../ext/fatfs/src/integer.h"
 1162              		.file 26 "../../ext/fatfs/src/ff.h"
 1163              		.file 27 "../../os/ports/common/ARMCMx/CMSIS/include/core_cm3.h"
 1164              		.file 28 "../../os/various/chprintf.h"
 1165              		.file 29 "../../os/kernel/include/chregistry.h"
 1166              		.file 30 "/Users/toxygen/Applications/yagarto-4.7.2/bin/../lib/gcc/arm-none-eabi/4.7.2/../../../..
 1167              		.file 31 "../../os/hal/include/hal.h"
 1168              		.file 32 "../../os/kernel/include/chsys.h"
 1169              		.file 33 "../../os/kernel/include/chdynamic.h"