ARM GAS  /var/folders/dt/0wfd0knj7gs46m8vwfzktm600000gn/T//ccJGMtxw.s 			page 1


   1              		.syntax unified
   2              		.cpu cortex-m3
   3              		.fpu softvfp
   4              		.eabi_attribute 20, 1
   5              		.eabi_attribute 21, 1
   6              		.eabi_attribute 23, 3
   7              		.eabi_attribute 24, 1
   8              		.eabi_attribute 25, 1
   9              		.eabi_attribute 26, 1
  10              		.eabi_attribute 30, 2
  11              		.eabi_attribute 34, 1
  12              		.eabi_attribute 18, 4
  13              		.thumb
  14              		.file	"mmc_spi.c"
  15              		.text
  16              	.Ltext0:
  17              		.cfi_sections	.debug_frame
  18              		.section	.text.recvr1,"ax",%progbits
  19              		.align	2
  20              		.p2align 4,,15
  21              		.thumb
  22              		.thumb_func
  23              		.type	recvr1, %function
  24              	recvr1:
  25              	.LFB66:
  26              		.file 1 "../../os/hal/src/mmc_spi.c"
  27              		.loc 1 198 0
  28              		.cfi_startproc
  29              		@ args = 0, pretend = 0, frame = 8
  30              		@ frame_needed = 0, uses_anonymous_args = 0
  31              	.LVL0:
  32 0000 30B5     		push	{r4, r5, lr}
  33              	.LCFI0:
  34              		.cfi_def_cfa_offset 12
  35              		.cfi_offset 4, -12
  36              		.cfi_offset 5, -8
  37              		.cfi_offset 14, -4
  38 0002 0546     		mov	r5, r0
  39 0004 83B0     		sub	sp, sp, #12
  40              	.LCFI1:
  41              		.cfi_def_cfa_offset 24
  42              		.loc 1 198 0
  43 0006 0924     		movs	r4, #9
  44              	.LVL1:
  45              	.L3:
  46              		.loc 1 203 0
  47 0008 A868     		ldr	r0, [r5, #8]
  48 000a 0121     		movs	r1, #1
  49 000c 01AA     		add	r2, sp, #4
  50 000e FFF7FEFF 		bl	spiReceive
  51              	.LVL2:
  52              		.loc 1 204 0
  53 0012 9DF80400 		ldrb	r0, [sp, #4]	@ zero_extendqisi2
  54 0016 FF28     		cmp	r0, #255
  55 0018 01D1     		bne	.L2
  56              		.loc 1 202 0
  57 001a 013C     		subs	r4, r4, #1
ARM GAS  /var/folders/dt/0wfd0knj7gs46m8vwfzktm600000gn/T//ccJGMtxw.s 			page 2


  58 001c F4D1     		bne	.L3
  59              	.L2:
  60              		.loc 1 208 0
  61 001e 03B0     		add	sp, sp, #12
  62 0020 30BD     		pop	{r4, r5, pc}
  63              		.cfi_endproc
  64              	.LFE66:
  65              		.size	recvr1, .-recvr1
  66 0022 00BFAFF3 		.section	.text.wait,"ax",%progbits
  66      0080AFF3 
  66      0080AFF3 
  66      0080
  67              		.align	2
  68              		.p2align 4,,15
  69              		.thumb
  70              		.thumb_func
  71              		.type	wait, %function
  72              	wait:
  73              	.LFB64:
  74              		.loc 1 142 0
  75              		.cfi_startproc
  76              		@ args = 0, pretend = 0, frame = 8
  77              		@ frame_needed = 0, uses_anonymous_args = 0
  78              	.LVL3:
  79 0000 30B5     		push	{r4, r5, lr}
  80              	.LCFI2:
  81              		.cfi_def_cfa_offset 12
  82              		.cfi_offset 4, -12
  83              		.cfi_offset 5, -8
  84              		.cfi_offset 14, -4
  85 0002 0546     		mov	r5, r0
  86 0004 83B0     		sub	sp, sp, #12
  87              	.LCFI3:
  88              		.cfi_def_cfa_offset 24
  89              		.loc 1 142 0
  90 0006 1024     		movs	r4, #16
  91              	.LVL4:
  92              	.L8:
  93              		.loc 1 147 0
  94 0008 0121     		movs	r1, #1
  95 000a A868     		ldr	r0, [r5, #8]
  96 000c 01AA     		add	r2, sp, #4
  97 000e FFF7FEFF 		bl	spiReceive
  98              	.LVL5:
  99              		.loc 1 148 0
 100 0012 9DF80430 		ldrb	r3, [sp, #4]	@ zero_extendqisi2
 101 0016 FF2B     		cmp	r3, #255
 102 0018 0ED0     		beq	.L6
 103              		.loc 1 146 0
 104 001a 013C     		subs	r4, r4, #1
 105 001c F4D1     		bne	.L8
 106 001e 01E0     		b	.L19
 107              	.L20:
 108              		.loc 1 158 0
 109 0020 FFF7FEFF 		bl	chThdSleep
 110              	.LVL6:
 111              	.L19:
ARM GAS  /var/folders/dt/0wfd0knj7gs46m8vwfzktm600000gn/T//ccJGMtxw.s 			page 3


 112              		.loc 1 153 0
 113 0024 A868     		ldr	r0, [r5, #8]
 114 0026 0121     		movs	r1, #1
 115 0028 01AA     		add	r2, sp, #4
 116 002a FFF7FEFF 		bl	spiReceive
 117              	.LVL7:
 118              		.loc 1 154 0
 119 002e 9DF80430 		ldrb	r3, [sp, #4]	@ zero_extendqisi2
 120              		.loc 1 158 0
 121 0032 0120     		movs	r0, #1
 122              		.loc 1 154 0
 123 0034 FF2B     		cmp	r3, #255
 124 0036 F3D1     		bne	.L20
 125              	.L6:
 126              		.loc 1 161 0
 127 0038 03B0     		add	sp, sp, #12
 128 003a 30BD     		pop	{r4, r5, pc}
 129              		.cfi_endproc
 130              	.LFE64:
 131              		.size	wait, .-wait
 132 003c AFF30080 		.section	.text.send_hdr,"ax",%progbits
 133              		.align	2
 134              		.p2align 4,,15
 135              		.thumb
 136              		.thumb_func
 137              		.type	send_hdr, %function
 138              	send_hdr:
 139              	.LFB65:
 140              		.loc 1 172 0
 141              		.cfi_startproc
 142              		@ args = 0, pretend = 0, frame = 8
 143              		@ frame_needed = 0, uses_anonymous_args = 0
 144              	.LVL8:
 145 0000 70B5     		push	{r4, r5, r6, lr}
 146              	.LCFI4:
 147              		.cfi_def_cfa_offset 16
 148              		.cfi_offset 4, -16
 149              		.cfi_offset 5, -12
 150              		.cfi_offset 6, -8
 151              		.cfi_offset 14, -4
 152 0002 1446     		mov	r4, r2
 153 0004 82B0     		sub	sp, sp, #8
 154              	.LCFI5:
 155              		.cfi_def_cfa_offset 24
 156              		.loc 1 172 0
 157 0006 0D46     		mov	r5, r1
 158 0008 0646     		mov	r6, r0
 159              		.loc 1 176 0
 160 000a FFF7FEFF 		bl	wait
 161              	.LVL9:
 162              		.loc 1 180 0
 163 000e 220C     		lsrs	r2, r4, #16
 164              		.loc 1 181 0
 165 0010 230A     		lsrs	r3, r4, #8
 166              		.loc 1 178 0
 167 0012 45F04001 		orr	r1, r5, #64
 168              		.loc 1 179 0
ARM GAS  /var/folders/dt/0wfd0knj7gs46m8vwfzktm600000gn/T//ccJGMtxw.s 			page 4


 169 0016 200E     		lsrs	r0, r4, #24
 170              		.loc 1 180 0
 171 0018 8DF80220 		strb	r2, [sp, #2]
 172              		.loc 1 181 0
 173 001c 8DF80330 		strb	r3, [sp, #3]
 174              		.loc 1 182 0
 175 0020 8DF80440 		strb	r4, [sp, #4]
 176              	.LVL10:
 177 0024 0D4D     		ldr	r5, .L26
 178              		.loc 1 178 0
 179 0026 8DF80010 		strb	r1, [sp, #0]
 180              		.loc 1 179 0
 181 002a 8DF80100 		strb	r0, [sp, #1]
 182              		.loc 1 184 0
 183 002e 6B46     		mov	r3, sp
 184              		.loc 1 172 0
 185 0030 01AC     		add	r4, sp, #4
 186              	.LVL11:
 187 0032 0022     		movs	r2, #0
 188 0034 01E0     		b	.L23
 189              	.LVL12:
 190              	.L25:
 191 0036 13F8011F 		ldrb	r1, [r3, #1]!	@ zero_extendqisi2
 192              	.LVL13:
 193              	.L23:
 194              	.LBB4:
 195              	.LBB5:
 196              		.loc 1 101 0
 197 003a 81EA4202 		eor	r2, r1, r2, lsl #1
 198              		.loc 1 100 0
 199 003e A342     		cmp	r3, r4
 200              		.loc 1 101 0
 201 0040 AA5C     		ldrb	r2, [r5, r2]	@ zero_extendqisi2
 202              	.LVL14:
 203              		.loc 1 100 0
 204 0042 F8D1     		bne	.L25
 205              	.LBE5:
 206              	.LBE4:
 207              		.loc 1 184 0
 208 0044 5200     		lsls	r2, r2, #1
 209              	.LVL15:
 210 0046 42F00103 		orr	r3, r2, #1
 211              		.loc 1 186 0
 212 004a B068     		ldr	r0, [r6, #8]
 213 004c 0621     		movs	r1, #6
 214 004e 6A46     		mov	r2, sp
 215              		.loc 1 184 0
 216 0050 8DF80530 		strb	r3, [sp, #5]
 217              		.loc 1 186 0
 218 0054 FFF7FEFF 		bl	spiSend
 219              	.LVL16:
 220              		.loc 1 187 0
 221 0058 02B0     		add	sp, sp, #8
 222 005a 70BD     		pop	{r4, r5, r6, pc}
 223              	.L27:
 224              		.align	2
 225              	.L26:
ARM GAS  /var/folders/dt/0wfd0knj7gs46m8vwfzktm600000gn/T//ccJGMtxw.s 			page 5


 226 005c 00000000 		.word	.LANCHOR0
 227              		.cfi_endproc
 228              	.LFE65:
 229              		.size	send_hdr, .-send_hdr
 230              		.section	.text.send_command_R3,"ax",%progbits
 231              		.align	2
 232              		.p2align 4,,15
 233              		.thumb
 234              		.thumb_func
 235              		.type	send_command_R3, %function
 236              	send_command_R3:
 237              	.LFB69:
 238              		.loc 1 264 0
 239              		.cfi_startproc
 240              		@ args = 0, pretend = 0, frame = 0
 241              		@ frame_needed = 0, uses_anonymous_args = 0
 242              	.LVL17:
 243 0000 F8B5     		push	{r3, r4, r5, r6, r7, lr}
 244              	.LCFI6:
 245              		.cfi_def_cfa_offset 24
 246              		.cfi_offset 3, -24
 247              		.cfi_offset 4, -20
 248              		.cfi_offset 5, -16
 249              		.cfi_offset 6, -12
 250              		.cfi_offset 7, -8
 251              		.cfi_offset 14, -4
 252              		.loc 1 264 0
 253 0002 0446     		mov	r4, r0
 254 0004 0F46     		mov	r7, r1
 255 0006 1546     		mov	r5, r2
 256              		.loc 1 267 0
 257 0008 8068     		ldr	r0, [r0, #8]
 258              	.LVL18:
 259              		.loc 1 264 0
 260 000a 1E46     		mov	r6, r3
 261              		.loc 1 267 0
 262 000c FFF7FEFF 		bl	spiSelect
 263              	.LVL19:
 264              		.loc 1 268 0
 265 0010 3946     		mov	r1, r7
 266 0012 2A46     		mov	r2, r5
 267 0014 2046     		mov	r0, r4
 268 0016 FFF7FEFF 		bl	send_hdr
 269              	.LVL20:
 270              	.LBB8:
 271              	.LBB9:
 272              		.loc 1 223 0
 273 001a 2046     		mov	r0, r4
 274 001c FFF7FEFF 		bl	recvr1
 275              	.LVL21:
 276              		.loc 1 224 0
 277 0020 0421     		movs	r1, #4
 278              		.loc 1 223 0
 279 0022 0546     		mov	r5, r0
 280              	.LVL22:
 281              		.loc 1 224 0
 282 0024 3246     		mov	r2, r6
ARM GAS  /var/folders/dt/0wfd0knj7gs46m8vwfzktm600000gn/T//ccJGMtxw.s 			page 6


 283 0026 A068     		ldr	r0, [r4, #8]
 284              	.LVL23:
 285 0028 FFF7FEFF 		bl	spiReceive
 286              	.LVL24:
 287              	.LBE9:
 288              	.LBE8:
 289              		.loc 1 270 0
 290 002c A068     		ldr	r0, [r4, #8]
 291 002e FFF7FEFF 		bl	spiUnselect
 292              	.LVL25:
 293              		.loc 1 272 0
 294 0032 2846     		mov	r0, r5
 295 0034 F8BD     		pop	{r3, r4, r5, r6, r7, pc}
 296              		.cfi_endproc
 297              	.LFE69:
 298              		.size	send_command_R3, .-send_command_R3
 299 0036 00BFAFF3 		.section	.text.send_command_R1,"ax",%progbits
 299      0080AFF3 
 299      0080
 300              		.align	2
 301              		.p2align 4,,15
 302              		.thumb
 303              		.thumb_func
 304              		.type	send_command_R1, %function
 305              	send_command_R1:
 306              	.LFB68:
 307              		.loc 1 240 0
 308              		.cfi_startproc
 309              		@ args = 0, pretend = 0, frame = 0
 310              		@ frame_needed = 0, uses_anonymous_args = 0
 311              	.LVL26:
 312 0000 70B5     		push	{r4, r5, r6, lr}
 313              	.LCFI7:
 314              		.cfi_def_cfa_offset 16
 315              		.cfi_offset 4, -16
 316              		.cfi_offset 5, -12
 317              		.cfi_offset 6, -8
 318              		.cfi_offset 14, -4
 319              		.loc 1 240 0
 320 0002 0446     		mov	r4, r0
 321 0004 0E46     		mov	r6, r1
 322 0006 1546     		mov	r5, r2
 323              		.loc 1 243 0
 324 0008 8068     		ldr	r0, [r0, #8]
 325              	.LVL27:
 326 000a FFF7FEFF 		bl	spiSelect
 327              	.LVL28:
 328              		.loc 1 244 0
 329 000e 2A46     		mov	r2, r5
 330 0010 3146     		mov	r1, r6
 331 0012 2046     		mov	r0, r4
 332 0014 FFF7FEFF 		bl	send_hdr
 333              	.LVL29:
 334              		.loc 1 245 0
 335 0018 2046     		mov	r0, r4
 336 001a FFF7FEFF 		bl	recvr1
 337              	.LVL30:
ARM GAS  /var/folders/dt/0wfd0knj7gs46m8vwfzktm600000gn/T//ccJGMtxw.s 			page 7


 338 001e 0546     		mov	r5, r0
 339              	.LVL31:
 340              		.loc 1 246 0
 341 0020 A068     		ldr	r0, [r4, #8]
 342              	.LVL32:
 343 0022 FFF7FEFF 		bl	spiUnselect
 344              	.LVL33:
 345              		.loc 1 248 0
 346 0026 2846     		mov	r0, r5
 347 0028 70BD     		pop	{r4, r5, r6, pc}
 348              		.cfi_endproc
 349              	.LFE68:
 350              		.size	send_command_R1, .-send_command_R1
 351              		.section	.text.tmrfunc,"ax",%progbits
 352              		.align	2
 353              		.p2align 4,,15
 354              		.thumb
 355              		.thumb_func
 356              		.type	tmrfunc, %function
 357              	tmrfunc:
 358              	.LFB63:
 359              		.loc 1 112 0
 360              		.cfi_startproc
 361              		@ args = 0, pretend = 0, frame = 0
 362              		@ frame_needed = 0, uses_anonymous_args = 0
 363              	.LVL34:
 364              		.loc 1 115 0
 365 0000 836B     		ldr	r3, [r0, #56]
 366              		.loc 1 112 0
 367 0002 10B5     		push	{r4, lr}
 368              	.LCFI8:
 369              		.cfi_def_cfa_offset 8
 370              		.cfi_offset 4, -8
 371              		.cfi_offset 14, -4
 372              		.loc 1 112 0
 373 0004 0446     		mov	r4, r0
 374              	.LVL35:
 375              		.loc 1 115 0
 376 0006 7BB1     		cbz	r3, .L31
 377              		.loc 1 116 0
 378 0008 8369     		ldr	r3, [r0, #24]
 379 000a 9847     		blx	r3
 380              	.LVL36:
 381 000c D0B1     		cbz	r0, .L32
 382              		.loc 1 117 0
 383 000e A16B     		ldr	r1, [r4, #56]
 384 0010 0139     		subs	r1, r1, #1
 385 0012 A163     		str	r1, [r4, #56]
 386 0014 C9B1     		cbz	r1, .L36
 387              	.L34:
 388              		.loc 1 132 0
 389 0016 104A     		ldr	r2, .L37
 390 0018 04F12400 		add	r0, r4, #36
 391 001c 0A21     		movs	r1, #10
 392 001e 2346     		mov	r3, r4
 393              		.loc 1 133 0
 394 0020 BDE81040 		pop	{r4, lr}
ARM GAS  /var/folders/dt/0wfd0knj7gs46m8vwfzktm600000gn/T//ccJGMtxw.s 			page 8


 395              		.loc 1 132 0
 396 0024 FFF7FEBF 		b	chVTSetI
 397              	.LVL37:
 398              	.L31:
 399              		.loc 1 126 0
 400 0028 8369     		ldr	r3, [r0, #24]
 401 002a 9847     		blx	r3
 402              	.LVL38:
 403 002c 0146     		mov	r1, r0
 404 002e 0028     		cmp	r0, #0
 405 0030 F1D1     		bne	.L34
 406              		.loc 1 127 0
 407 0032 0223     		movs	r3, #2
 408 0034 2370     		strb	r3, [r4, #0]
 409              		.loc 1 128 0
 410 0036 0A23     		movs	r3, #10
 411 0038 A363     		str	r3, [r4, #56]
 412              		.loc 1 129 0
 413 003a 04F12000 		add	r0, r4, #32
 414 003e FFF7FEFF 		bl	chEvtBroadcastFlagsI
 415              	.LVL39:
 416 0042 E8E7     		b	.L34
 417              	.L32:
 418              		.loc 1 123 0
 419 0044 0A23     		movs	r3, #10
 420 0046 A363     		str	r3, [r4, #56]
 421 0048 E5E7     		b	.L34
 422              	.L36:
 423              		.loc 1 118 0
 424 004a 2046     		mov	r0, r4
 425 004c 0323     		movs	r3, #3
 426 004e 00F81C3B 		strb	r3, [r0], #28
 427              		.loc 1 119 0
 428 0052 FFF7FEFF 		bl	chEvtBroadcastFlagsI
 429              	.LVL40:
 430 0056 DEE7     		b	.L34
 431              	.L38:
 432              		.align	2
 433              	.L37:
 434 0058 00000000 		.word	tmrfunc
 435              		.cfi_endproc
 436              	.LFE63:
 437              		.size	tmrfunc, .-tmrfunc
 438 005c AFF30080 		.section	.text.mmcInit,"ax",%progbits
 439              		.align	2
 440              		.p2align 4,,15
 441              		.global	mmcInit
 442              		.thumb
 443              		.thumb_func
 444              		.type	mmcInit, %function
 445              	mmcInit:
 446              	.LFB71:
 447              		.loc 1 307 0
 448              		.cfi_startproc
 449              		@ args = 0, pretend = 0, frame = 0
 450              		@ frame_needed = 0, uses_anonymous_args = 0
 451              		@ link register save eliminated.
ARM GAS  /var/folders/dt/0wfd0knj7gs46m8vwfzktm600000gn/T//ccJGMtxw.s 			page 9


 452 0000 7047     		bx	lr
 453              		.cfi_endproc
 454              	.LFE71:
 455              		.size	mmcInit, .-mmcInit
 456 0002 00BFAFF3 		.section	.text.mmcObjectInit,"ax",%progbits
 456      0080AFF3 
 456      0080AFF3 
 456      0080
 457              		.align	2
 458              		.p2align 4,,15
 459              		.global	mmcObjectInit
 460              		.thumb
 461              		.thumb_func
 462              		.type	mmcObjectInit, %function
 463              	mmcObjectInit:
 464              	.LFB72:
 465              		.loc 1 327 0
 466              		.cfi_startproc
 467              		@ args = 8, pretend = 0, frame = 0
 468              		@ frame_needed = 0, uses_anonymous_args = 0
 469              		@ link register save eliminated.
 470              	.LVL41:
 471              		.loc 1 327 0
 472 0000 F0B4     		push	{r4, r5, r6, r7}
 473              	.LCFI9:
 474              		.cfi_def_cfa_offset 16
 475              		.cfi_offset 4, -16
 476              		.cfi_offset 5, -12
 477              		.cfi_offset 6, -8
 478              		.cfi_offset 7, -4
 479              		.loc 1 333 0
 480 0002 0361     		str	r3, [r0, #16]
 481              		.loc 1 334 0
 482 0004 049B     		ldr	r3, [sp, #16]
 483              	.LVL42:
 484              		.loc 1 330 0
 485 0006 0024     		movs	r4, #0
 486              		.loc 1 334 0
 487 0008 4361     		str	r3, [r0, #20]
 488              		.loc 1 335 0
 489 000a 059B     		ldr	r3, [sp, #20]
 490              		.loc 1 337 0
 491 000c 00F11C06 		add	r6, r0, #28
 492              		.loc 1 338 0
 493 0010 00F12005 		add	r5, r0, #32
 494              		.loc 1 329 0
 495 0014 0127     		movs	r7, #1
 496 0016 0770     		strb	r7, [r0, #0]
 497              		.loc 1 330 0
 498 0018 4460     		str	r4, [r0, #4]
 499              		.loc 1 331 0
 500 001a 8160     		str	r1, [r0, #8]
 501              		.loc 1 332 0
 502 001c C260     		str	r2, [r0, #12]
 503              		.loc 1 335 0
 504 001e 8361     		str	r3, [r0, #24]
 505              		.loc 1 336 0
ARM GAS  /var/folders/dt/0wfd0knj7gs46m8vwfzktm600000gn/T//ccJGMtxw.s 			page 10


 506 0020 C463     		str	r4, [r0, #60]
 507              		.loc 1 337 0
 508 0022 C661     		str	r6, [r0, #28]
 509              		.loc 1 338 0
 510 0024 0562     		str	r5, [r0, #32]
 511              		.loc 1 339 0
 512 0026 F0BC     		pop	{r4, r5, r6, r7}
 513 0028 7047     		bx	lr
 514              		.cfi_endproc
 515              	.LFE72:
 516              		.size	mmcObjectInit, .-mmcObjectInit
 517 002a 00BFAFF3 		.section	.text.mmcStart,"ax",%progbits
 517      0080
 518              		.align	2
 519              		.p2align 4,,15
 520              		.global	mmcStart
 521              		.thumb
 522              		.thumb_func
 523              		.type	mmcStart, %function
 524              	mmcStart:
 525              	.LFB73:
 526              		.loc 1 349 0
 527              		.cfi_startproc
 528              		@ args = 0, pretend = 0, frame = 0
 529              		@ frame_needed = 0, uses_anonymous_args = 0
 530              	.LVL43:
 531 0000 08B5     		push	{r3, lr}
 532              	.LCFI10:
 533              		.cfi_def_cfa_offset 8
 534              		.cfi_offset 3, -8
 535              		.cfi_offset 14, -4
 536              	.LBB10:
 537              		.loc 1 353 0
 538 0002 2023     		movs	r3, #32
 539              	.LVL44:
 540              	@ 353 "../../os/hal/src/mmc_spi.c" 1
 541 0004 83F31188 		msr     BASEPRI, r3
 542              	@ 0 "" 2
 543              	.LVL45:
 544              		.thumb
 545              	.LBE10:
 546              		.loc 1 357 0
 547 0008 0A22     		movs	r2, #10
 548              		.loc 1 355 0
 549 000a 4160     		str	r1, [r0, #4]
 550              		.loc 1 356 0
 551 000c 0221     		movs	r1, #2
 552              	.LVL46:
 553 000e 0170     		strb	r1, [r0, #0]
 554              		.loc 1 357 0
 555 0010 8263     		str	r2, [r0, #56]
 556              		.loc 1 358 0
 557 0012 1146     		mov	r1, r2
 558 0014 40F20002 		movw	r2, #:lower16:tmrfunc
 559 0018 0346     		mov	r3, r0
 560              	.LVL47:
 561 001a C0F20002 		movt	r2, #:upper16:tmrfunc
ARM GAS  /var/folders/dt/0wfd0knj7gs46m8vwfzktm600000gn/T//ccJGMtxw.s 			page 11


 562 001e 2430     		adds	r0, r0, #36
 563              	.LVL48:
 564 0020 FFF7FEFF 		bl	chVTSetI
 565              	.LVL49:
 566              	.LBB11:
 567              		.loc 1 359 0
 568 0024 0023     		movs	r3, #0
 569              	.LVL50:
 570              	@ 359 "../../os/hal/src/mmc_spi.c" 1
 571 0026 83F31188 		msr     BASEPRI, r3
 572              	@ 0 "" 2
 573              	.LVL51:
 574              		.thumb
 575 002a 08BD     		pop	{r3, pc}
 576              	.LBE11:
 577              		.cfi_endproc
 578              	.LFE73:
 579              		.size	mmcStart, .-mmcStart
 580 002c AFF30080 		.section	.text.mmcStop,"ax",%progbits
 581              		.align	2
 582              		.p2align 4,,15
 583              		.global	mmcStop
 584              		.thumb
 585              		.thumb_func
 586              		.type	mmcStop, %function
 587              	mmcStop:
 588              	.LFB74:
 589              		.loc 1 369 0
 590              		.cfi_startproc
 591              		@ args = 0, pretend = 0, frame = 0
 592              		@ frame_needed = 0, uses_anonymous_args = 0
 593              	.LVL52:
 594 0000 10B5     		push	{r4, lr}
 595              	.LCFI11:
 596              		.cfi_def_cfa_offset 8
 597              		.cfi_offset 4, -8
 598              		.cfi_offset 14, -4
 599              	.LBB12:
 600              		.loc 1 373 0
 601 0002 2023     		movs	r3, #32
 602              	.LVL53:
 603              	.LBE12:
 604              		.loc 1 369 0
 605 0004 0446     		mov	r4, r0
 606              	.LBB13:
 607              		.loc 1 373 0
 608              	@ 373 "../../os/hal/src/mmc_spi.c" 1
 609 0006 83F31188 		msr     BASEPRI, r3
 610              	@ 0 "" 2
 611              	.LVL54:
 612              		.thumb
 613              	.LBE13:
 614              		.loc 1 378 0
 615 000a 0378     		ldrb	r3, [r0, #0]	@ zero_extendqisi2
 616              	.LVL55:
 617 000c 012B     		cmp	r3, #1
 618 000e 04D0     		beq	.L43
ARM GAS  /var/folders/dt/0wfd0knj7gs46m8vwfzktm600000gn/T//ccJGMtxw.s 			page 12


 619              		.loc 1 379 0
 620 0010 0123     		movs	r3, #1
 621 0012 00F8243B 		strb	r3, [r0], #36
 622              	.LVL56:
 623              		.loc 1 380 0
 624 0016 FFF7FEFF 		bl	chVTResetI
 625              	.LVL57:
 626              	.L43:
 627              	.LBB14:
 628              		.loc 1 382 0
 629 001a 0023     		movs	r3, #0
 630              	.LVL58:
 631              	@ 382 "../../os/hal/src/mmc_spi.c" 1
 632 001c 83F31188 		msr     BASEPRI, r3
 633              	@ 0 "" 2
 634              	.LVL59:
 635              		.thumb
 636              	.LBE14:
 637              		.loc 1 383 0
 638 0020 A068     		ldr	r0, [r4, #8]
 639              		.loc 1 384 0
 640 0022 BDE81040 		pop	{r4, lr}
 641              		.loc 1 383 0
 642 0026 FFF7FEBF 		b	spiStop
 643              	.LVL60:
 644              		.cfi_endproc
 645              	.LFE74:
 646              		.size	mmcStop, .-mmcStop
 647 002a 00BFAFF3 		.section	.text.mmcConnect,"ax",%progbits
 647      0080
 648              		.align	2
 649              		.p2align 4,,15
 650              		.global	mmcConnect
 651              		.thumb
 652              		.thumb_func
 653              		.type	mmcConnect, %function
 654              	mmcConnect:
 655              	.LFB75:
 656              		.loc 1 402 0
 657              		.cfi_startproc
 658              		@ args = 0, pretend = 0, frame = 8
 659              		@ frame_needed = 0, uses_anonymous_args = 0
 660              	.LVL61:
 661 0000 70B5     		push	{r4, r5, r6, lr}
 662              	.LCFI12:
 663              		.cfi_def_cfa_offset 16
 664              		.cfi_offset 4, -16
 665              		.cfi_offset 5, -12
 666              		.cfi_offset 6, -8
 667              		.cfi_offset 14, -4
 668 0002 0446     		mov	r4, r0
 669              		.loc 1 412 0
 670 0004 0078     		ldrb	r0, [r0, #0]	@ zero_extendqisi2
 671              	.LVL62:
 672              		.loc 1 402 0
 673 0006 82B0     		sub	sp, sp, #8
 674              	.LCFI13:
ARM GAS  /var/folders/dt/0wfd0knj7gs46m8vwfzktm600000gn/T//ccJGMtxw.s 			page 13


 675              		.cfi_def_cfa_offset 24
 676              		.loc 1 412 0
 677 0008 0328     		cmp	r0, #3
 678 000a 04D0     		beq	.L76
 679              	.LBB15:
 680              		.loc 1 487 0
 681 000c 0438     		subs	r0, r0, #4
 682 000e 18BF     		it	ne
 683 0010 0120     		movne	r0, #1
 684              	.LVL63:
 685              	.L51:
 686              	.LBE15:
 687              		.loc 1 491 0
 688 0012 02B0     		add	sp, sp, #8
 689 0014 70BD     		pop	{r4, r5, r6, pc}
 690              	.LVL64:
 691              	.L76:
 692              		.loc 1 414 0
 693 0016 A068     		ldr	r0, [r4, #8]
 694 0018 E168     		ldr	r1, [r4, #12]
 695 001a FFF7FEFF 		bl	spiStart
 696              	.LVL65:
 697              		.loc 1 415 0
 698 001e A068     		ldr	r0, [r4, #8]
 699 0020 1021     		movs	r1, #16
 700 0022 FFF7FEFF 		bl	spiIgnore
 701              	.LVL66:
 702 0026 0A25     		movs	r5, #10
 703 0028 02E0     		b	.L52
 704              	.LVL67:
 705              	.L50:
 706              		.loc 1 424 0
 707 002a 0A20     		movs	r0, #10
 708 002c FFF7FEFF 		bl	chThdSleep
 709              	.LVL68:
 710              	.L52:
 711              		.loc 1 420 0
 712 0030 0021     		movs	r1, #0
 713 0032 0A46     		mov	r2, r1
 714 0034 2046     		mov	r0, r4
 715 0036 FFF7FEFF 		bl	send_command_R1
 716              	.LVL69:
 717 003a 0128     		cmp	r0, #1
 718 003c 03D0     		beq	.L49
 719              		.loc 1 422 0
 720 003e 013D     		subs	r5, r5, #1
 721 0040 F3D1     		bne	.L50
 722              	.L56:
 723              		.loc 1 423 0
 724 0042 0120     		movs	r0, #1
 725 0044 E5E7     		b	.L51
 726              	.L49:
 727              		.loc 1 434 0
 728 0046 0821     		movs	r1, #8
 729 0048 2046     		mov	r0, r4
 730 004a 4FF4D572 		mov	r2, #426
 731 004e 01AB     		add	r3, sp, #4
ARM GAS  /var/folders/dt/0wfd0knj7gs46m8vwfzktm600000gn/T//ccJGMtxw.s 			page 14


 732 0050 FFF7FEFF 		bl	send_command_R3
 733              	.LVL70:
 734 0054 0528     		cmp	r0, #5
 735 0056 26D0     		beq	.L54
 736 0058 6425     		movs	r5, #100
 737 005a 04E0     		b	.L53
 738              	.L59:
 739              		.loc 1 443 0
 740 005c 013D     		subs	r5, r5, #1
 741 005e F0D0     		beq	.L56
 742              		.loc 1 445 0
 743 0060 0A20     		movs	r0, #10
 744 0062 FFF7FEFF 		bl	chThdSleep
 745              	.LVL71:
 746              	.L53:
 747              		.loc 1 439 0
 748 0066 3721     		movs	r1, #55
 749 0068 0022     		movs	r2, #0
 750 006a 2046     		mov	r0, r4
 751 006c FFF7FEFF 		bl	send_command_R1
 752              	.LVL72:
 753 0070 0128     		cmp	r0, #1
 754 0072 0646     		mov	r6, r0
 755 0074 F2D1     		bne	.L59
 756              		.loc 1 440 0 discriminator 1
 757 0076 4FF4D572 		mov	r2, #426
 758 007a C4F20002 		movt	r2, 16384
 759 007e 2921     		movs	r1, #41
 760 0080 01AB     		add	r3, sp, #4
 761 0082 2046     		mov	r0, r4
 762 0084 FFF7FEFF 		bl	send_command_R3
 763              	.LVL73:
 764              		.loc 1 439 0 discriminator 1
 765 0088 0246     		mov	r2, r0
 766 008a 0028     		cmp	r0, #0
 767 008c E6D1     		bne	.L59
 768              		.loc 1 449 0
 769 008e 01AB     		add	r3, sp, #4
 770 0090 2046     		mov	r0, r4
 771 0092 3A21     		movs	r1, #58
 772 0094 FFF7FEFF 		bl	send_command_R3
 773              	.LVL74:
 774              		.loc 1 452 0
 775 0098 9DF80430 		ldrb	r3, [sp, #4]	@ zero_extendqisi2
 776 009c 03F04003 		and	r3, r3, #64
 777 00a0 DBB2     		uxtb	r3, r3
 778 00a2 03B1     		cbz	r3, .L54
 779              		.loc 1 453 0
 780 00a4 E663     		str	r6, [r4, #60]
 781              	.L54:
 782              		.loc 1 434 0
 783 00a6 6425     		movs	r5, #100
 784 00a8 05E0     		b	.L62
 785              	.LVL75:
 786              	.L77:
 787              	.LBB16:
 788              		.loc 1 462 0
ARM GAS  /var/folders/dt/0wfd0knj7gs46m8vwfzktm600000gn/T//ccJGMtxw.s 			page 15


 789 00aa 012B     		cmp	r3, #1
 790 00ac C9D1     		bne	.L56
 791              		.loc 1 464 0
 792 00ae 013D     		subs	r5, r5, #1
 793 00b0 C7D0     		beq	.L56
 794              		.loc 1 466 0
 795 00b2 FFF7FEFF 		bl	chThdSleep
 796              	.LVL76:
 797              	.L62:
 798              		.loc 1 459 0
 799 00b6 0121     		movs	r1, #1
 800 00b8 0022     		movs	r2, #0
 801 00ba 2046     		mov	r0, r4
 802 00bc FFF7FEFF 		bl	send_command_R1
 803              	.LVL77:
 804              		.loc 1 460 0
 805 00c0 0346     		mov	r3, r0
 806              		.loc 1 466 0
 807 00c2 0A20     		movs	r0, #10
 808              	.LVL78:
 809              		.loc 1 460 0
 810 00c4 002B     		cmp	r3, #0
 811 00c6 F0D1     		bne	.L77
 812              	.LBE16:
 813              		.loc 1 470 0
 814 00c8 2169     		ldr	r1, [r4, #16]
 815 00ca A068     		ldr	r0, [r4, #8]
 816 00cc FFF7FEFF 		bl	spiStart
 817              	.LVL79:
 818              		.loc 1 473 0
 819 00d0 2046     		mov	r0, r4
 820 00d2 1021     		movs	r1, #16
 821 00d4 4FF40072 		mov	r2, #512
 822 00d8 FFF7FEFF 		bl	send_command_R1
 823              	.LVL80:
 824 00dc 0028     		cmp	r0, #0
 825 00de B0D1     		bne	.L56
 826              	.LBB17:
 827              		.loc 1 477 0
 828 00e0 2023     		movs	r3, #32
 829              	.LVL81:
 830              	@ 477 "../../os/hal/src/mmc_spi.c" 1
 831 00e2 83F31188 		msr     BASEPRI, r3
 832              	@ 0 "" 2
 833              	.LVL82:
 834              		.thumb
 835              	.LBE17:
 836              		.loc 1 478 0
 837 00e6 2378     		ldrb	r3, [r4, #0]	@ zero_extendqisi2
 838              	.LVL83:
 839 00e8 032B     		cmp	r3, #3
 840 00ea 04D0     		beq	.L78
 841              		.loc 1 483 0
 842 00ec 0120     		movs	r0, #1
 843              	.L63:
 844              	.LVL84:
 845              	.LBB18:
ARM GAS  /var/folders/dt/0wfd0knj7gs46m8vwfzktm600000gn/T//ccJGMtxw.s 			page 16


 846              		.loc 1 484 0
 847 00ee 0023     		movs	r3, #0
 848              	@ 484 "../../os/hal/src/mmc_spi.c" 1
 849 00f0 83F31188 		msr     BASEPRI, r3
 850              	@ 0 "" 2
 851              	.LVL85:
 852              		.thumb
 853 00f4 8DE7     		b	.L51
 854              	.LVL86:
 855              	.L78:
 856              	.LBE18:
 857              		.loc 1 479 0
 858 00f6 0423     		movs	r3, #4
 859 00f8 2370     		strb	r3, [r4, #0]
 860              	.LVL87:
 861 00fa F8E7     		b	.L63
 862              		.cfi_endproc
 863              	.LFE75:
 864              		.size	mmcConnect, .-mmcConnect
 865 00fc AFF30080 		.section	.text.mmcDisconnect,"ax",%progbits
 866              		.align	2
 867              		.p2align 4,,15
 868              		.global	mmcDisconnect
 869              		.thumb
 870              		.thumb_func
 871              		.type	mmcDisconnect, %function
 872              	mmcDisconnect:
 873              	.LFB76:
 874              		.loc 1 504 0
 875              		.cfi_startproc
 876              		@ args = 0, pretend = 0, frame = 8
 877              		@ frame_needed = 0, uses_anonymous_args = 0
 878              	.LVL88:
 879 0000 10B5     		push	{r4, lr}
 880              	.LCFI14:
 881              		.cfi_def_cfa_offset 8
 882              		.cfi_offset 4, -8
 883              		.cfi_offset 14, -4
 884              		.loc 1 511 0
 885 0002 0378     		ldrb	r3, [r0, #0]	@ zero_extendqisi2
 886              		.loc 1 504 0
 887 0004 82B0     		sub	sp, sp, #8
 888              	.LCFI15:
 889              		.cfi_def_cfa_offset 16
 890              		.loc 1 511 0
 891 0006 042B     		cmp	r3, #4
 892              		.loc 1 504 0
 893 0008 0446     		mov	r4, r0
 894              		.loc 1 511 0
 895 000a 05D0     		beq	.L85
 896              	.LVL89:
 897              	.L80:
 898              		.loc 1 524 0
 899 000c A068     		ldr	r0, [r4, #8]
 900 000e FFF7FEFF 		bl	spiStop
 901              	.LVL90:
 902              		.loc 1 526 0
ARM GAS  /var/folders/dt/0wfd0knj7gs46m8vwfzktm600000gn/T//ccJGMtxw.s 			page 17


 903 0012 0120     		movs	r0, #1
 904 0014 02B0     		add	sp, sp, #8
 905 0016 10BD     		pop	{r4, pc}
 906              	.LVL91:
 907              	.L85:
 908              	.LBB23:
 909              	.LBB24:
 910              		.loc 1 284 0
 911 0018 8068     		ldr	r0, [r0, #8]
 912              	.LVL92:
 913 001a FFF7FEFF 		bl	spiSelect
 914              	.LVL93:
 915 001e 01E0     		b	.L83
 916              	.L86:
 917              		.loc 1 290 0
 918 0020 FFF7FEFF 		bl	chThdSleep
 919              	.LVL94:
 920              	.L83:
 921              		.loc 1 286 0
 922 0024 A068     		ldr	r0, [r4, #8]
 923 0026 0121     		movs	r1, #1
 924 0028 01AA     		add	r2, sp, #4
 925 002a FFF7FEFF 		bl	spiReceive
 926              	.LVL95:
 927              		.loc 1 287 0
 928 002e 9DF80430 		ldrb	r3, [sp, #4]	@ zero_extendqisi2
 929              		.loc 1 290 0
 930 0032 0120     		movs	r0, #1
 931              		.loc 1 287 0
 932 0034 FF2B     		cmp	r3, #255
 933 0036 F3D1     		bne	.L86
 934              		.loc 1 293 0
 935 0038 A068     		ldr	r0, [r4, #8]
 936 003a FFF7FEFF 		bl	spiUnselect
 937              	.LVL96:
 938              	.LBE24:
 939              	.LBE23:
 940              	.LBB25:
 941              		.loc 1 515 0
 942 003e 2023     		movs	r3, #32
 943              	.LVL97:
 944              	@ 515 "../../os/hal/src/mmc_spi.c" 1
 945 0040 83F31188 		msr     BASEPRI, r3
 946              	@ 0 "" 2
 947              	.LVL98:
 948              		.thumb
 949              	.LBE25:
 950              		.loc 1 516 0
 951 0044 2378     		ldrb	r3, [r4, #0]	@ zero_extendqisi2
 952              	.LVL99:
 953 0046 042B     		cmp	r3, #4
 954 0048 03D0     		beq	.L87
 955              	.L84:
 956              	.LBB26:
 957              		.loc 1 518 0
 958 004a 0023     		movs	r3, #0
 959              	@ 518 "../../os/hal/src/mmc_spi.c" 1
ARM GAS  /var/folders/dt/0wfd0knj7gs46m8vwfzktm600000gn/T//ccJGMtxw.s 			page 18


 960 004c 83F31188 		msr     BASEPRI, r3
 961              	@ 0 "" 2
 962              	.LVL100:
 963              		.thumb
 964 0050 DCE7     		b	.L80
 965              	.LVL101:
 966              	.L87:
 967              	.LBE26:
 968              		.loc 1 517 0
 969 0052 0323     		movs	r3, #3
 970 0054 2370     		strb	r3, [r4, #0]
 971 0056 F8E7     		b	.L84
 972              		.cfi_endproc
 973              	.LFE76:
 974              		.size	mmcDisconnect, .-mmcDisconnect
 975 0058 AFF30080 		.section	.text.mmcStartSequentialRead,"ax",%progbits
 975      AFF30080 
 976              		.align	2
 977              		.p2align 4,,15
 978              		.global	mmcStartSequentialRead
 979              		.thumb
 980              		.thumb_func
 981              		.type	mmcStartSequentialRead, %function
 982              	mmcStartSequentialRead:
 983              	.LFB77:
 984              		.loc 1 539 0
 985              		.cfi_startproc
 986              		@ args = 0, pretend = 0, frame = 0
 987              		@ frame_needed = 0, uses_anonymous_args = 0
 988              	.LVL102:
 989 0000 38B5     		push	{r3, r4, r5, lr}
 990              	.LCFI16:
 991              		.cfi_def_cfa_offset 16
 992              		.cfi_offset 3, -16
 993              		.cfi_offset 4, -12
 994              		.cfi_offset 5, -8
 995              		.cfi_offset 14, -4
 996              		.loc 1 539 0
 997 0002 0446     		mov	r4, r0
 998 0004 0D46     		mov	r5, r1
 999              	.LBB27:
 1000              		.loc 1 543 0
 1001 0006 2023     		movs	r3, #32
 1002              	.LVL103:
 1003              	@ 543 "../../os/hal/src/mmc_spi.c" 1
 1004 0008 83F31188 		msr     BASEPRI, r3
 1005              	@ 0 "" 2
 1006              	.LVL104:
 1007              		.thumb
 1008              	.LBE27:
 1009              		.loc 1 544 0
 1010 000c 0378     		ldrb	r3, [r0, #0]	@ zero_extendqisi2
 1011              	.LVL105:
 1012 000e 042B     		cmp	r3, #4
 1013 0010 04D0     		beq	.L89
 1014              	.LVL106:
 1015              	.L93:
ARM GAS  /var/folders/dt/0wfd0knj7gs46m8vwfzktm600000gn/T//ccJGMtxw.s 			page 19


 1016              	.LBB28:
 1017              		.loc 1 564 0
 1018 0012 0023     		movs	r3, #0
 1019              	.LVL107:
 1020              	@ 564 "../../os/hal/src/mmc_spi.c" 1
 1021 0014 83F31188 		msr     BASEPRI, r3
 1022              	@ 0 "" 2
 1023              	.LVL108:
 1024              		.thumb
 1025              	.LBE28:
 1026              		.loc 1 565 0
 1027 0018 0120     		movs	r0, #1
 1028              	.L90:
 1029              		.loc 1 568 0
 1030 001a 38BD     		pop	{r3, r4, r5, pc}
 1031              	.LVL109:
 1032              	.L89:
 1033              		.loc 1 548 0
 1034 001c 0523     		movs	r3, #5
 1035 001e 0370     		strb	r3, [r0, #0]
 1036              	.LBB29:
 1037              		.loc 1 549 0
 1038 0020 0023     		movs	r3, #0
 1039              	.LVL110:
 1040              	@ 549 "../../os/hal/src/mmc_spi.c" 1
 1041 0022 83F31188 		msr     BASEPRI, r3
 1042              	@ 0 "" 2
 1043              	.LVL111:
 1044              		.thumb
 1045              	.LBE29:
 1046              		.loc 1 551 0
 1047 0026 2169     		ldr	r1, [r4, #16]
 1048              	.LVL112:
 1049 0028 8068     		ldr	r0, [r0, #8]
 1050              	.LVL113:
 1051 002a FFF7FEFF 		bl	spiStart
 1052              	.LVL114:
 1053              		.loc 1 552 0
 1054 002e A068     		ldr	r0, [r4, #8]
 1055 0030 FFF7FEFF 		bl	spiSelect
 1056              	.LVL115:
 1057              		.loc 1 554 0
 1058 0034 E36B     		ldr	r3, [r4, #60]
 1059              		.loc 1 555 0
 1060 0036 2046     		mov	r0, r4
 1061 0038 1221     		movs	r1, #18
 1062              		.loc 1 554 0
 1063 003a 9BB1     		cbz	r3, .L91
 1064              	.LVL116:
 1065              		.loc 1 555 0
 1066 003c 2A46     		mov	r2, r5
 1067 003e FFF7FEFF 		bl	send_hdr
 1068              	.LVL117:
 1069              	.L92:
 1070              		.loc 1 559 0
 1071 0042 2046     		mov	r0, r4
 1072 0044 FFF7FEFF 		bl	recvr1
ARM GAS  /var/folders/dt/0wfd0knj7gs46m8vwfzktm600000gn/T//ccJGMtxw.s 			page 20


 1073              	.LVL118:
 1074 0048 0028     		cmp	r0, #0
 1075 004a E6D0     		beq	.L90
 1076              		.loc 1 560 0
 1077 004c A068     		ldr	r0, [r4, #8]
 1078 004e FFF7FEFF 		bl	spiUnselect
 1079              	.LVL119:
 1080              	.LBB30:
 1081              		.loc 1 561 0
 1082 0052 2023     		movs	r3, #32
 1083              	.LVL120:
 1084              	@ 561 "../../os/hal/src/mmc_spi.c" 1
 1085 0054 83F31188 		msr     BASEPRI, r3
 1086              	@ 0 "" 2
 1087              	.LVL121:
 1088              		.thumb
 1089              	.LBE30:
 1090              		.loc 1 562 0
 1091 0058 2378     		ldrb	r3, [r4, #0]	@ zero_extendqisi2
 1092              	.LVL122:
 1093 005a 052B     		cmp	r3, #5
 1094 005c D9D1     		bne	.L93
 1095              		.loc 1 563 0
 1096 005e 0423     		movs	r3, #4
 1097 0060 2370     		strb	r3, [r4, #0]
 1098 0062 D6E7     		b	.L93
 1099              	.LVL123:
 1100              	.L91:
 1101              		.loc 1 557 0
 1102 0064 6A02     		lsls	r2, r5, #9
 1103 0066 FFF7FEFF 		bl	send_hdr
 1104              	.LVL124:
 1105 006a EAE7     		b	.L92
 1106              		.cfi_endproc
 1107              	.LFE77:
 1108              		.size	mmcStartSequentialRead, .-mmcStartSequentialRead
 1109 006c AFF30080 		.section	.text.mmcSequentialRead,"ax",%progbits
 1110              		.align	2
 1111              		.p2align 4,,15
 1112              		.global	mmcSequentialRead
 1113              		.thumb
 1114              		.thumb_func
 1115              		.type	mmcSequentialRead, %function
 1116              	mmcSequentialRead:
 1117              	.LFB78:
 1118              		.loc 1 581 0
 1119              		.cfi_startproc
 1120              		@ args = 0, pretend = 0, frame = 0
 1121              		@ frame_needed = 0, uses_anonymous_args = 0
 1122              	.LVL125:
 1123 0000 70B5     		push	{r4, r5, r6, lr}
 1124              	.LCFI17:
 1125              		.cfi_def_cfa_offset 16
 1126              		.cfi_offset 4, -16
 1127              		.cfi_offset 5, -12
 1128              		.cfi_offset 6, -8
 1129              		.cfi_offset 14, -4
ARM GAS  /var/folders/dt/0wfd0knj7gs46m8vwfzktm600000gn/T//ccJGMtxw.s 			page 21


 1130              	.LBB31:
 1131              		.loc 1 586 0
 1132 0002 2023     		movs	r3, #32
 1133              	.LVL126:
 1134              	.LBE31:
 1135              		.loc 1 581 0
 1136 0004 0646     		mov	r6, r0
 1137 0006 0D46     		mov	r5, r1
 1138              	.LBB32:
 1139              		.loc 1 586 0
 1140              	@ 586 "../../os/hal/src/mmc_spi.c" 1
 1141 0008 83F31188 		msr     BASEPRI, r3
 1142              	@ 0 "" 2
 1143              	.LVL127:
 1144              		.thumb
 1145              	.LBE32:
 1146              		.loc 1 587 0
 1147 000c 0378     		ldrb	r3, [r0, #0]	@ zero_extendqisi2
 1148              	.LVL128:
 1149 000e 052B     		cmp	r3, #5
 1150              	.LBB33:
 1151              		.loc 1 588 0
 1152 0010 4FF00003 		mov	r3, #0
 1153              	.LVL129:
 1154              	@ 588 "../../os/hal/src/mmc_spi.c" 1
 1155 0014 83F31188 		msr     BASEPRI, r3
 1156              	@ 0 "" 2
 1157              	.LVL130:
 1158              		.thumb
 1159              	.LBE33:
 1160              		.loc 1 587 0
 1161 0018 01D0     		beq	.L96
 1162              	.LVL131:
 1163              	.L102:
 1164              		.loc 1 608 0
 1165 001a 0120     		movs	r0, #1
 1166              		.loc 1 609 0
 1167 001c 70BD     		pop	{r4, r5, r6, pc}
 1168              	.LVL132:
 1169              	.L96:
 1170              	.LBB34:
 1171              		.loc 1 591 0
 1172 001e 42F21074 		movw	r4, #10000
 1173 0022 01E0     		b	.L99
 1174              	.LVL133:
 1175              	.L98:
 1176              	.LBE34:
 1177              		.loc 1 593 0
 1178 0024 013C     		subs	r4, r4, #1
 1179 0026 13D0     		beq	.L103
 1180              	.LVL134:
 1181              	.L99:
 1182              		.loc 1 594 0
 1183 0028 0121     		movs	r1, #1
 1184 002a B068     		ldr	r0, [r6, #8]
 1185 002c 2A46     		mov	r2, r5
 1186 002e FFF7FEFF 		bl	spiReceive
ARM GAS  /var/folders/dt/0wfd0knj7gs46m8vwfzktm600000gn/T//ccJGMtxw.s 			page 22


 1187              	.LVL135:
 1188              		.loc 1 595 0
 1189 0032 2B78     		ldrb	r3, [r5, #0]	@ zero_extendqisi2
 1190 0034 FE2B     		cmp	r3, #254
 1191 0036 F5D1     		bne	.L98
 1192              		.loc 1 596 0
 1193 0038 B068     		ldr	r0, [r6, #8]
 1194 003a 2A46     		mov	r2, r5
 1195 003c 4FF40071 		mov	r1, #512
 1196 0040 FFF7FEFF 		bl	spiReceive
 1197              	.LVL136:
 1198              		.loc 1 598 0
 1199 0044 B068     		ldr	r0, [r6, #8]
 1200 0046 0221     		movs	r1, #2
 1201 0048 FFF7FEFF 		bl	spiIgnore
 1202              	.LVL137:
 1203              		.loc 1 599 0
 1204 004c 0020     		movs	r0, #0
 1205 004e 70BD     		pop	{r4, r5, r6, pc}
 1206              	.L103:
 1207              		.loc 1 603 0
 1208 0050 B068     		ldr	r0, [r6, #8]
 1209 0052 FFF7FEFF 		bl	spiUnselect
 1210              	.LVL138:
 1211              	.LBB35:
 1212              		.loc 1 604 0
 1213 0056 2023     		movs	r3, #32
 1214              	.LVL139:
 1215              	@ 604 "../../os/hal/src/mmc_spi.c" 1
 1216 0058 83F31188 		msr     BASEPRI, r3
 1217              	@ 0 "" 2
 1218              	.LVL140:
 1219              		.thumb
 1220              	.LBE35:
 1221              		.loc 1 605 0
 1222 005c 3378     		ldrb	r3, [r6, #0]	@ zero_extendqisi2
 1223              	.LVL141:
 1224 005e 052B     		cmp	r3, #5
 1225 0060 03D0     		beq	.L104
 1226              	.L100:
 1227              	.LBB36:
 1228              		.loc 1 607 0
 1229 0062 0023     		movs	r3, #0
 1230              	@ 607 "../../os/hal/src/mmc_spi.c" 1
 1231 0064 83F31188 		msr     BASEPRI, r3
 1232              	@ 0 "" 2
 1233              	.LVL142:
 1234              		.thumb
 1235 0068 D7E7     		b	.L102
 1236              	.LVL143:
 1237              	.L104:
 1238              	.LBE36:
 1239              		.loc 1 606 0
 1240 006a 0423     		movs	r3, #4
 1241 006c 3370     		strb	r3, [r6, #0]
 1242 006e F8E7     		b	.L100
 1243              		.cfi_endproc
ARM GAS  /var/folders/dt/0wfd0knj7gs46m8vwfzktm600000gn/T//ccJGMtxw.s 			page 23


 1244              	.LFE78:
 1245              		.size	mmcSequentialRead, .-mmcSequentialRead
 1246              		.section	.text.mmcStopSequentialRead,"ax",%progbits
 1247              		.align	2
 1248              		.p2align 4,,15
 1249              		.global	mmcStopSequentialRead
 1250              		.thumb
 1251              		.thumb_func
 1252              		.type	mmcStopSequentialRead, %function
 1253              	mmcStopSequentialRead:
 1254              	.LFB79:
 1255              		.loc 1 621 0
 1256              		.cfi_startproc
 1257              		@ args = 0, pretend = 0, frame = 0
 1258              		@ frame_needed = 0, uses_anonymous_args = 0
 1259              	.LVL144:
 1260 0000 10B5     		push	{r4, lr}
 1261              	.LCFI18:
 1262              		.cfi_def_cfa_offset 8
 1263              		.cfi_offset 4, -8
 1264              		.cfi_offset 14, -4
 1265              	.LBB37:
 1266              		.loc 1 627 0
 1267 0002 2023     		movs	r3, #32
 1268              	.LVL145:
 1269              	.LBE37:
 1270              		.loc 1 621 0
 1271 0004 0446     		mov	r4, r0
 1272              	.LBB38:
 1273              		.loc 1 627 0
 1274              	@ 627 "../../os/hal/src/mmc_spi.c" 1
 1275 0006 83F31188 		msr     BASEPRI, r3
 1276              	@ 0 "" 2
 1277              	.LVL146:
 1278              		.thumb
 1279              	.LBE38:
 1280              		.loc 1 628 0
 1281 000a 0378     		ldrb	r3, [r0, #0]	@ zero_extendqisi2
 1282              	.LVL147:
 1283 000c 052B     		cmp	r3, #5
 1284              	.LBB39:
 1285              		.loc 1 629 0
 1286 000e 4FF00003 		mov	r3, #0
 1287              	.LVL148:
 1288              	@ 629 "../../os/hal/src/mmc_spi.c" 1
 1289 0012 83F31188 		msr     BASEPRI, r3
 1290              	@ 0 "" 2
 1291              	.LVL149:
 1292              		.thumb
 1293              	.LBE39:
 1294              		.loc 1 628 0
 1295 0016 01D0     		beq	.L106
 1296              		.loc 1 630 0
 1297 0018 0120     		movs	r0, #1
 1298              	.LVL150:
 1299 001a 10BD     		pop	{r4, pc}
 1300              	.LVL151:
ARM GAS  /var/folders/dt/0wfd0knj7gs46m8vwfzktm600000gn/T//ccJGMtxw.s 			page 24


 1301              	.L106:
 1302              		.loc 1 634 0
 1303 001c 0721     		movs	r1, #7
 1304 001e 0C4A     		ldr	r2, .L110
 1305 0020 8068     		ldr	r0, [r0, #8]
 1306              	.LVL152:
 1307 0022 FFF7FEFF 		bl	spiSend
 1308              	.LVL153:
 1309              		.loc 1 637 0
 1310 0026 2046     		mov	r0, r4
 1311 0028 FFF7FEFF 		bl	recvr1
 1312              	.LVL154:
 1313              		.loc 1 639 0
 1314 002c A068     		ldr	r0, [r4, #8]
 1315 002e FFF7FEFF 		bl	spiUnselect
 1316              	.LVL155:
 1317              	.LBB40:
 1318              		.loc 1 641 0
 1319 0032 2023     		movs	r3, #32
 1320              	.LVL156:
 1321              	@ 641 "../../os/hal/src/mmc_spi.c" 1
 1322 0034 83F31188 		msr     BASEPRI, r3
 1323              	@ 0 "" 2
 1324              	.LVL157:
 1325              		.thumb
 1326              	.LBE40:
 1327              		.loc 1 642 0
 1328 0038 2378     		ldrb	r3, [r4, #0]	@ zero_extendqisi2
 1329              	.LVL158:
 1330 003a 052B     		cmp	r3, #5
 1331 003c 04D0     		beq	.L109
 1332              	.L108:
 1333              	.LBB41:
 1334              		.loc 1 644 0
 1335 003e 0023     		movs	r3, #0
 1336              	.LVL159:
 1337              	@ 644 "../../os/hal/src/mmc_spi.c" 1
 1338 0040 83F31188 		msr     BASEPRI, r3
 1339              	@ 0 "" 2
 1340              	.LVL160:
 1341              		.thumb
 1342              	.LBE41:
 1343              		.loc 1 645 0
 1344 0044 1846     		mov	r0, r3
 1345              		.loc 1 646 0
 1346 0046 10BD     		pop	{r4, pc}
 1347              	.LVL161:
 1348              	.L109:
 1349              		.loc 1 643 0
 1350 0048 0423     		movs	r3, #4
 1351 004a 2370     		strb	r3, [r4, #0]
 1352 004c F7E7     		b	.L108
 1353              	.L111:
 1354 004e 00BF     		.align	2
 1355              	.L110:
 1356 0050 00000000 		.word	.LANCHOR1
 1357              		.cfi_endproc
ARM GAS  /var/folders/dt/0wfd0knj7gs46m8vwfzktm600000gn/T//ccJGMtxw.s 			page 25


 1358              	.LFE79:
 1359              		.size	mmcStopSequentialRead, .-mmcStopSequentialRead
 1360 0054 AFF30080 		.section	.text.mmcStartSequentialWrite,"ax",%progbits
 1360      AFF30080 
 1360      AFF30080 
 1361              		.align	2
 1362              		.p2align 4,,15
 1363              		.global	mmcStartSequentialWrite
 1364              		.thumb
 1365              		.thumb_func
 1366              		.type	mmcStartSequentialWrite, %function
 1367              	mmcStartSequentialWrite:
 1368              	.LFB80:
 1369              		.loc 1 659 0
 1370              		.cfi_startproc
 1371              		@ args = 0, pretend = 0, frame = 0
 1372              		@ frame_needed = 0, uses_anonymous_args = 0
 1373              	.LVL162:
 1374 0000 38B5     		push	{r3, r4, r5, lr}
 1375              	.LCFI19:
 1376              		.cfi_def_cfa_offset 16
 1377              		.cfi_offset 3, -16
 1378              		.cfi_offset 4, -12
 1379              		.cfi_offset 5, -8
 1380              		.cfi_offset 14, -4
 1381              		.loc 1 659 0
 1382 0002 0446     		mov	r4, r0
 1383 0004 0D46     		mov	r5, r1
 1384              	.LBB42:
 1385              		.loc 1 663 0
 1386 0006 2023     		movs	r3, #32
 1387              	.LVL163:
 1388              	@ 663 "../../os/hal/src/mmc_spi.c" 1
 1389 0008 83F31188 		msr     BASEPRI, r3
 1390              	@ 0 "" 2
 1391              	.LVL164:
 1392              		.thumb
 1393              	.LBE42:
 1394              		.loc 1 664 0
 1395 000c 0378     		ldrb	r3, [r0, #0]	@ zero_extendqisi2
 1396              	.LVL165:
 1397 000e 042B     		cmp	r3, #4
 1398 0010 04D0     		beq	.L113
 1399              	.LVL166:
 1400              	.L117:
 1401              	.LBB43:
 1402              		.loc 1 684 0
 1403 0012 0023     		movs	r3, #0
 1404              	.LVL167:
 1405              	@ 684 "../../os/hal/src/mmc_spi.c" 1
 1406 0014 83F31188 		msr     BASEPRI, r3
 1407              	@ 0 "" 2
 1408              	.LVL168:
 1409              		.thumb
 1410              	.LBE43:
 1411              		.loc 1 685 0
 1412 0018 0120     		movs	r0, #1
ARM GAS  /var/folders/dt/0wfd0knj7gs46m8vwfzktm600000gn/T//ccJGMtxw.s 			page 26


 1413              	.L114:
 1414              		.loc 1 688 0
 1415 001a 38BD     		pop	{r3, r4, r5, pc}
 1416              	.LVL169:
 1417              	.L113:
 1418              		.loc 1 668 0
 1419 001c 0623     		movs	r3, #6
 1420 001e 0370     		strb	r3, [r0, #0]
 1421              	.LBB44:
 1422              		.loc 1 669 0
 1423 0020 0023     		movs	r3, #0
 1424              	.LVL170:
 1425              	@ 669 "../../os/hal/src/mmc_spi.c" 1
 1426 0022 83F31188 		msr     BASEPRI, r3
 1427              	@ 0 "" 2
 1428              	.LVL171:
 1429              		.thumb
 1430              	.LBE44:
 1431              		.loc 1 671 0
 1432 0026 2169     		ldr	r1, [r4, #16]
 1433              	.LVL172:
 1434 0028 8068     		ldr	r0, [r0, #8]
 1435              	.LVL173:
 1436 002a FFF7FEFF 		bl	spiStart
 1437              	.LVL174:
 1438              		.loc 1 672 0
 1439 002e A068     		ldr	r0, [r4, #8]
 1440 0030 FFF7FEFF 		bl	spiSelect
 1441              	.LVL175:
 1442              		.loc 1 673 0
 1443 0034 E36B     		ldr	r3, [r4, #60]
 1444              		.loc 1 674 0
 1445 0036 2046     		mov	r0, r4
 1446 0038 1921     		movs	r1, #25
 1447              		.loc 1 673 0
 1448 003a 9BB1     		cbz	r3, .L115
 1449              	.LVL176:
 1450              		.loc 1 674 0
 1451 003c 2A46     		mov	r2, r5
 1452 003e FFF7FEFF 		bl	send_hdr
 1453              	.LVL177:
 1454              	.L116:
 1455              		.loc 1 679 0
 1456 0042 2046     		mov	r0, r4
 1457 0044 FFF7FEFF 		bl	recvr1
 1458              	.LVL178:
 1459 0048 0028     		cmp	r0, #0
 1460 004a E6D0     		beq	.L114
 1461              		.loc 1 680 0
 1462 004c A068     		ldr	r0, [r4, #8]
 1463 004e FFF7FEFF 		bl	spiUnselect
 1464              	.LVL179:
 1465              	.LBB45:
 1466              		.loc 1 681 0
 1467 0052 2023     		movs	r3, #32
 1468              	.LVL180:
 1469              	@ 681 "../../os/hal/src/mmc_spi.c" 1
ARM GAS  /var/folders/dt/0wfd0knj7gs46m8vwfzktm600000gn/T//ccJGMtxw.s 			page 27


 1470 0054 83F31188 		msr     BASEPRI, r3
 1471              	@ 0 "" 2
 1472              	.LVL181:
 1473              		.thumb
 1474              	.LBE45:
 1475              		.loc 1 682 0
 1476 0058 2378     		ldrb	r3, [r4, #0]	@ zero_extendqisi2
 1477              	.LVL182:
 1478 005a 062B     		cmp	r3, #6
 1479 005c D9D1     		bne	.L117
 1480              		.loc 1 683 0
 1481 005e 0423     		movs	r3, #4
 1482 0060 2370     		strb	r3, [r4, #0]
 1483 0062 D6E7     		b	.L117
 1484              	.LVL183:
 1485              	.L115:
 1486              		.loc 1 676 0
 1487 0064 6A02     		lsls	r2, r5, #9
 1488 0066 FFF7FEFF 		bl	send_hdr
 1489              	.LVL184:
 1490 006a EAE7     		b	.L116
 1491              		.cfi_endproc
 1492              	.LFE80:
 1493              		.size	mmcStartSequentialWrite, .-mmcStartSequentialWrite
 1494 006c AFF30080 		.section	.text.mmcSequentialWrite,"ax",%progbits
 1495              		.align	2
 1496              		.p2align 4,,15
 1497              		.global	mmcSequentialWrite
 1498              		.thumb
 1499              		.thumb_func
 1500              		.type	mmcSequentialWrite, %function
 1501              	mmcSequentialWrite:
 1502              	.LFB81:
 1503              		.loc 1 701 0
 1504              		.cfi_startproc
 1505              		@ args = 0, pretend = 0, frame = 8
 1506              		@ frame_needed = 0, uses_anonymous_args = 0
 1507              	.LVL185:
 1508 0000 30B5     		push	{r4, r5, lr}
 1509              	.LCFI20:
 1510              		.cfi_def_cfa_offset 12
 1511              		.cfi_offset 4, -12
 1512              		.cfi_offset 5, -8
 1513              		.cfi_offset 14, -4
 1514              	.LBB46:
 1515              		.loc 1 707 0
 1516 0002 2023     		movs	r3, #32
 1517              	.LVL186:
 1518              	.LBE46:
 1519              		.loc 1 701 0
 1520 0004 83B0     		sub	sp, sp, #12
 1521              	.LCFI21:
 1522              		.cfi_def_cfa_offset 24
 1523              		.loc 1 701 0
 1524 0006 0446     		mov	r4, r0
 1525 0008 0D46     		mov	r5, r1
 1526              	.LBB47:
ARM GAS  /var/folders/dt/0wfd0knj7gs46m8vwfzktm600000gn/T//ccJGMtxw.s 			page 28


 1527              		.loc 1 707 0
 1528              	@ 707 "../../os/hal/src/mmc_spi.c" 1
 1529 000a 83F31188 		msr     BASEPRI, r3
 1530              	@ 0 "" 2
 1531              	.LVL187:
 1532              		.thumb
 1533              	.LBE47:
 1534              		.loc 1 708 0
 1535 000e 0378     		ldrb	r3, [r0, #0]	@ zero_extendqisi2
 1536              	.LVL188:
 1537 0010 062B     		cmp	r3, #6
 1538              	.LBB48:
 1539              		.loc 1 709 0
 1540 0012 4FF00003 		mov	r3, #0
 1541              	.LVL189:
 1542              	@ 709 "../../os/hal/src/mmc_spi.c" 1
 1543 0016 83F31188 		msr     BASEPRI, r3
 1544              	@ 0 "" 2
 1545              	.LVL190:
 1546              		.thumb
 1547              	.LBE48:
 1548              		.loc 1 708 0
 1549 001a 02D0     		beq	.L120
 1550              	.LVL191:
 1551              	.L124:
 1552              	.LBB49:
 1553              		.loc 1 729 0
 1554 001c 0120     		movs	r0, #1
 1555              	.L121:
 1556              	.LBE49:
 1557              		.loc 1 730 0
 1558 001e 03B0     		add	sp, sp, #12
 1559 0020 30BD     		pop	{r4, r5, pc}
 1560              	.LVL192:
 1561              	.L120:
 1562              		.loc 1 714 0
 1563 0022 0221     		movs	r1, #2
 1564              	.LVL193:
 1565 0024 8068     		ldr	r0, [r0, #8]
 1566              	.LVL194:
 1567 0026 164A     		ldr	r2, .L127
 1568 0028 FFF7FEFF 		bl	spiSend
 1569              	.LVL195:
 1570              		.loc 1 715 0
 1571 002c 2A46     		mov	r2, r5
 1572 002e A068     		ldr	r0, [r4, #8]
 1573 0030 4FF40071 		mov	r1, #512
 1574 0034 FFF7FEFF 		bl	spiSend
 1575              	.LVL196:
 1576              		.loc 1 716 0
 1577 0038 0221     		movs	r1, #2
 1578 003a A068     		ldr	r0, [r4, #8]
 1579 003c FFF7FEFF 		bl	spiIgnore
 1580              	.LVL197:
 1581              		.loc 1 717 0
 1582 0040 0121     		movs	r1, #1
 1583 0042 A068     		ldr	r0, [r4, #8]
ARM GAS  /var/folders/dt/0wfd0knj7gs46m8vwfzktm600000gn/T//ccJGMtxw.s 			page 29


 1584 0044 01AA     		add	r2, sp, #4
 1585 0046 FFF7FEFF 		bl	spiReceive
 1586              	.LVL198:
 1587              		.loc 1 718 0
 1588 004a 9DF80430 		ldrb	r3, [sp, #4]	@ zero_extendqisi2
 1589 004e 03F01F03 		and	r3, r3, #31
 1590 0052 052B     		cmp	r3, #5
 1591 0054 0FD0     		beq	.L125
 1592              		.loc 1 724 0
 1593 0056 A068     		ldr	r0, [r4, #8]
 1594 0058 FFF7FEFF 		bl	spiUnselect
 1595              	.LVL199:
 1596              	.LBB50:
 1597              		.loc 1 725 0
 1598 005c 2023     		movs	r3, #32
 1599              	.LVL200:
 1600              	@ 725 "../../os/hal/src/mmc_spi.c" 1
 1601 005e 83F31188 		msr     BASEPRI, r3
 1602              	@ 0 "" 2
 1603              	.LVL201:
 1604              		.thumb
 1605              	.LBE50:
 1606              		.loc 1 726 0
 1607 0062 2378     		ldrb	r3, [r4, #0]	@ zero_extendqisi2
 1608              	.LVL202:
 1609 0064 062B     		cmp	r3, #6
 1610 0066 03D0     		beq	.L126
 1611              	.L123:
 1612              	.LBB51:
 1613              		.loc 1 728 0
 1614 0068 0023     		movs	r3, #0
 1615              	@ 728 "../../os/hal/src/mmc_spi.c" 1
 1616 006a 83F31188 		msr     BASEPRI, r3
 1617              	@ 0 "" 2
 1618              	.LVL203:
 1619              		.thumb
 1620 006e D5E7     		b	.L124
 1621              	.LVL204:
 1622              	.L126:
 1623              	.LBE51:
 1624              		.loc 1 727 0
 1625 0070 0423     		movs	r3, #4
 1626 0072 2370     		strb	r3, [r4, #0]
 1627 0074 F8E7     		b	.L123
 1628              	.L125:
 1629              		.loc 1 719 0
 1630 0076 2046     		mov	r0, r4
 1631 0078 FFF7FEFF 		bl	wait
 1632              	.LVL205:
 1633              		.loc 1 720 0
 1634 007c 0020     		movs	r0, #0
 1635 007e CEE7     		b	.L121
 1636              	.L128:
 1637              		.align	2
 1638              	.L127:
 1639 0080 00000000 		.word	.LANCHOR2
 1640              		.cfi_endproc
ARM GAS  /var/folders/dt/0wfd0knj7gs46m8vwfzktm600000gn/T//ccJGMtxw.s 			page 30


 1641              	.LFE81:
 1642              		.size	mmcSequentialWrite, .-mmcSequentialWrite
 1643 0084 AFF30080 		.section	.text.mmcStopSequentialWrite,"ax",%progbits
 1643      AFF30080 
 1643      AFF30080 
 1644              		.align	2
 1645              		.p2align 4,,15
 1646              		.global	mmcStopSequentialWrite
 1647              		.thumb
 1648              		.thumb_func
 1649              		.type	mmcStopSequentialWrite, %function
 1650              	mmcStopSequentialWrite:
 1651              	.LFB82:
 1652              		.loc 1 742 0
 1653              		.cfi_startproc
 1654              		@ args = 0, pretend = 0, frame = 0
 1655              		@ frame_needed = 0, uses_anonymous_args = 0
 1656              	.LVL206:
 1657 0000 10B5     		push	{r4, lr}
 1658              	.LCFI22:
 1659              		.cfi_def_cfa_offset 8
 1660              		.cfi_offset 4, -8
 1661              		.cfi_offset 14, -4
 1662              	.LBB52:
 1663              		.loc 1 747 0
 1664 0002 2023     		movs	r3, #32
 1665              	.LVL207:
 1666              	.LBE52:
 1667              		.loc 1 742 0
 1668 0004 0446     		mov	r4, r0
 1669              	.LBB53:
 1670              		.loc 1 747 0
 1671              	@ 747 "../../os/hal/src/mmc_spi.c" 1
 1672 0006 83F31188 		msr     BASEPRI, r3
 1673              	@ 0 "" 2
 1674              	.LVL208:
 1675              		.thumb
 1676              	.LBE53:
 1677              		.loc 1 748 0
 1678 000a 0378     		ldrb	r3, [r0, #0]	@ zero_extendqisi2
 1679              	.LVL209:
 1680 000c 062B     		cmp	r3, #6
 1681              	.LBB54:
 1682              		.loc 1 749 0
 1683 000e 4FF00003 		mov	r3, #0
 1684              	.LVL210:
 1685              	@ 749 "../../os/hal/src/mmc_spi.c" 1
 1686 0012 83F31188 		msr     BASEPRI, r3
 1687              	@ 0 "" 2
 1688              	.LVL211:
 1689              		.thumb
 1690              	.LBE54:
 1691              		.loc 1 748 0
 1692 0016 01D0     		beq	.L130
 1693              		.loc 1 764 0
 1694 0018 0120     		movs	r0, #1
 1695              	.LVL212:
ARM GAS  /var/folders/dt/0wfd0knj7gs46m8vwfzktm600000gn/T//ccJGMtxw.s 			page 31


 1696              		.loc 1 765 0
 1697 001a 10BD     		pop	{r4, pc}
 1698              	.LVL213:
 1699              	.L130:
 1700              		.loc 1 754 0
 1701 001c 0221     		movs	r1, #2
 1702 001e 0C4A     		ldr	r2, .L135
 1703 0020 8068     		ldr	r0, [r0, #8]
 1704              	.LVL214:
 1705 0022 FFF7FEFF 		bl	spiSend
 1706              	.LVL215:
 1707              		.loc 1 755 0
 1708 0026 A068     		ldr	r0, [r4, #8]
 1709 0028 FFF7FEFF 		bl	spiUnselect
 1710              	.LVL216:
 1711              	.LBB55:
 1712              		.loc 1 757 0
 1713 002c 2023     		movs	r3, #32
 1714              	.LVL217:
 1715              	@ 757 "../../os/hal/src/mmc_spi.c" 1
 1716 002e 83F31188 		msr     BASEPRI, r3
 1717              	@ 0 "" 2
 1718              	.LVL218:
 1719              		.thumb
 1720              	.LBE55:
 1721              		.loc 1 758 0
 1722 0032 2378     		ldrb	r3, [r4, #0]	@ zero_extendqisi2
 1723              	.LVL219:
 1724 0034 062B     		cmp	r3, #6
 1725 0036 04D0     		beq	.L134
 1726              	.LBB56:
 1727              		.loc 1 763 0
 1728 0038 0023     		movs	r3, #0
 1729              	.LVL220:
 1730              	@ 763 "../../os/hal/src/mmc_spi.c" 1
 1731 003a 83F31188 		msr     BASEPRI, r3
 1732              	@ 0 "" 2
 1733              	.LVL221:
 1734              		.thumb
 1735              	.LBE56:
 1736              		.loc 1 764 0
 1737 003e 0120     		movs	r0, #1
 1738              		.loc 1 765 0
 1739 0040 10BD     		pop	{r4, pc}
 1740              	.LVL222:
 1741              	.L134:
 1742              		.loc 1 759 0
 1743 0042 0423     		movs	r3, #4
 1744 0044 2370     		strb	r3, [r4, #0]
 1745              	.LBB57:
 1746              		.loc 1 760 0
 1747 0046 0023     		movs	r3, #0
 1748              	.LVL223:
 1749              	@ 760 "../../os/hal/src/mmc_spi.c" 1
 1750 0048 83F31188 		msr     BASEPRI, r3
 1751              	@ 0 "" 2
 1752              	.LVL224:
ARM GAS  /var/folders/dt/0wfd0knj7gs46m8vwfzktm600000gn/T//ccJGMtxw.s 			page 32


 1753              		.thumb
 1754              	.LBE57:
 1755              		.loc 1 761 0
 1756 004c 1846     		mov	r0, r3
 1757 004e 10BD     		pop	{r4, pc}
 1758              	.L136:
 1759              		.align	2
 1760              	.L135:
 1761 0050 00000000 		.word	.LANCHOR3
 1762              		.cfi_endproc
 1763              	.LFE82:
 1764              		.size	mmcStopSequentialWrite, .-mmcStopSequentialWrite
 1765 0054 AFF30080 		.section	.rodata.crc7_lookup_table,"a",%progbits
 1765      AFF30080 
 1765      AFF30080 
 1766              		.align	2
 1767              		.set	.LANCHOR0,. + 0
 1768              		.type	crc7_lookup_table, %object
 1769              		.size	crc7_lookup_table, 256
 1770              	crc7_lookup_table:
 1771 0000 00       		.byte	0
 1772 0001 09       		.byte	9
 1773 0002 12       		.byte	18
 1774 0003 1B       		.byte	27
 1775 0004 24       		.byte	36
 1776 0005 2D       		.byte	45
 1777 0006 36       		.byte	54
 1778 0007 3F       		.byte	63
 1779 0008 48       		.byte	72
 1780 0009 41       		.byte	65
 1781 000a 5A       		.byte	90
 1782 000b 53       		.byte	83
 1783 000c 6C       		.byte	108
 1784 000d 65       		.byte	101
 1785 000e 7E       		.byte	126
 1786 000f 77       		.byte	119
 1787 0010 19       		.byte	25
 1788 0011 10       		.byte	16
 1789 0012 0B       		.byte	11
 1790 0013 02       		.byte	2
 1791 0014 3D       		.byte	61
 1792 0015 34       		.byte	52
 1793 0016 2F       		.byte	47
 1794 0017 26       		.byte	38
 1795 0018 51       		.byte	81
 1796 0019 58       		.byte	88
 1797 001a 43       		.byte	67
 1798 001b 4A       		.byte	74
 1799 001c 75       		.byte	117
 1800 001d 7C       		.byte	124
 1801 001e 67       		.byte	103
 1802 001f 6E       		.byte	110
 1803 0020 32       		.byte	50
 1804 0021 3B       		.byte	59
 1805 0022 20       		.byte	32
 1806 0023 29       		.byte	41
 1807 0024 16       		.byte	22
ARM GAS  /var/folders/dt/0wfd0knj7gs46m8vwfzktm600000gn/T//ccJGMtxw.s 			page 33


 1808 0025 1F       		.byte	31
 1809 0026 04       		.byte	4
 1810 0027 0D       		.byte	13
 1811 0028 7A       		.byte	122
 1812 0029 73       		.byte	115
 1813 002a 68       		.byte	104
 1814 002b 61       		.byte	97
 1815 002c 5E       		.byte	94
 1816 002d 57       		.byte	87
 1817 002e 4C       		.byte	76
 1818 002f 45       		.byte	69
 1819 0030 2B       		.byte	43
 1820 0031 22       		.byte	34
 1821 0032 39       		.byte	57
 1822 0033 30       		.byte	48
 1823 0034 0F       		.byte	15
 1824 0035 06       		.byte	6
 1825 0036 1D       		.byte	29
 1826 0037 14       		.byte	20
 1827 0038 63       		.byte	99
 1828 0039 6A       		.byte	106
 1829 003a 71       		.byte	113
 1830 003b 78       		.byte	120
 1831 003c 47       		.byte	71
 1832 003d 4E       		.byte	78
 1833 003e 55       		.byte	85
 1834 003f 5C       		.byte	92
 1835 0040 64       		.byte	100
 1836 0041 6D       		.byte	109
 1837 0042 76       		.byte	118
 1838 0043 7F       		.byte	127
 1839 0044 40       		.byte	64
 1840 0045 49       		.byte	73
 1841 0046 52       		.byte	82
 1842 0047 5B       		.byte	91
 1843 0048 2C       		.byte	44
 1844 0049 25       		.byte	37
 1845 004a 3E       		.byte	62
 1846 004b 37       		.byte	55
 1847 004c 08       		.byte	8
 1848 004d 01       		.byte	1
 1849 004e 1A       		.byte	26
 1850 004f 13       		.byte	19
 1851 0050 7D       		.byte	125
 1852 0051 74       		.byte	116
 1853 0052 6F       		.byte	111
 1854 0053 66       		.byte	102
 1855 0054 59       		.byte	89
 1856 0055 50       		.byte	80
 1857 0056 4B       		.byte	75
 1858 0057 42       		.byte	66
 1859 0058 35       		.byte	53
 1860 0059 3C       		.byte	60
 1861 005a 27       		.byte	39
 1862 005b 2E       		.byte	46
 1863 005c 11       		.byte	17
 1864 005d 18       		.byte	24
ARM GAS  /var/folders/dt/0wfd0knj7gs46m8vwfzktm600000gn/T//ccJGMtxw.s 			page 34


 1865 005e 03       		.byte	3
 1866 005f 0A       		.byte	10
 1867 0060 56       		.byte	86
 1868 0061 5F       		.byte	95
 1869 0062 44       		.byte	68
 1870 0063 4D       		.byte	77
 1871 0064 72       		.byte	114
 1872 0065 7B       		.byte	123
 1873 0066 60       		.byte	96
 1874 0067 69       		.byte	105
 1875 0068 1E       		.byte	30
 1876 0069 17       		.byte	23
 1877 006a 0C       		.byte	12
 1878 006b 05       		.byte	5
 1879 006c 3A       		.byte	58
 1880 006d 33       		.byte	51
 1881 006e 28       		.byte	40
 1882 006f 21       		.byte	33
 1883 0070 4F       		.byte	79
 1884 0071 46       		.byte	70
 1885 0072 5D       		.byte	93
 1886 0073 54       		.byte	84
 1887 0074 6B       		.byte	107
 1888 0075 62       		.byte	98
 1889 0076 79       		.byte	121
 1890 0077 70       		.byte	112
 1891 0078 07       		.byte	7
 1892 0079 0E       		.byte	14
 1893 007a 15       		.byte	21
 1894 007b 1C       		.byte	28
 1895 007c 23       		.byte	35
 1896 007d 2A       		.byte	42
 1897 007e 31       		.byte	49
 1898 007f 38       		.byte	56
 1899 0080 41       		.byte	65
 1900 0081 48       		.byte	72
 1901 0082 53       		.byte	83
 1902 0083 5A       		.byte	90
 1903 0084 65       		.byte	101
 1904 0085 6C       		.byte	108
 1905 0086 77       		.byte	119
 1906 0087 7E       		.byte	126
 1907 0088 09       		.byte	9
 1908 0089 00       		.byte	0
 1909 008a 1B       		.byte	27
 1910 008b 12       		.byte	18
 1911 008c 2D       		.byte	45
 1912 008d 24       		.byte	36
 1913 008e 3F       		.byte	63
 1914 008f 36       		.byte	54
 1915 0090 58       		.byte	88
 1916 0091 51       		.byte	81
 1917 0092 4A       		.byte	74
 1918 0093 43       		.byte	67
 1919 0094 7C       		.byte	124
 1920 0095 75       		.byte	117
 1921 0096 6E       		.byte	110
ARM GAS  /var/folders/dt/0wfd0knj7gs46m8vwfzktm600000gn/T//ccJGMtxw.s 			page 35


 1922 0097 67       		.byte	103
 1923 0098 10       		.byte	16
 1924 0099 19       		.byte	25
 1925 009a 02       		.byte	2
 1926 009b 0B       		.byte	11
 1927 009c 34       		.byte	52
 1928 009d 3D       		.byte	61
 1929 009e 26       		.byte	38
 1930 009f 2F       		.byte	47
 1931 00a0 73       		.byte	115
 1932 00a1 7A       		.byte	122
 1933 00a2 61       		.byte	97
 1934 00a3 68       		.byte	104
 1935 00a4 57       		.byte	87
 1936 00a5 5E       		.byte	94
 1937 00a6 45       		.byte	69
 1938 00a7 4C       		.byte	76
 1939 00a8 3B       		.byte	59
 1940 00a9 32       		.byte	50
 1941 00aa 29       		.byte	41
 1942 00ab 20       		.byte	32
 1943 00ac 1F       		.byte	31
 1944 00ad 16       		.byte	22
 1945 00ae 0D       		.byte	13
 1946 00af 04       		.byte	4
 1947 00b0 6A       		.byte	106
 1948 00b1 63       		.byte	99
 1949 00b2 78       		.byte	120
 1950 00b3 71       		.byte	113
 1951 00b4 4E       		.byte	78
 1952 00b5 47       		.byte	71
 1953 00b6 5C       		.byte	92
 1954 00b7 55       		.byte	85
 1955 00b8 22       		.byte	34
 1956 00b9 2B       		.byte	43
 1957 00ba 30       		.byte	48
 1958 00bb 39       		.byte	57
 1959 00bc 06       		.byte	6
 1960 00bd 0F       		.byte	15
 1961 00be 14       		.byte	20
 1962 00bf 1D       		.byte	29
 1963 00c0 25       		.byte	37
 1964 00c1 2C       		.byte	44
 1965 00c2 37       		.byte	55
 1966 00c3 3E       		.byte	62
 1967 00c4 01       		.byte	1
 1968 00c5 08       		.byte	8
 1969 00c6 13       		.byte	19
 1970 00c7 1A       		.byte	26
 1971 00c8 6D       		.byte	109
 1972 00c9 64       		.byte	100
 1973 00ca 7F       		.byte	127
 1974 00cb 76       		.byte	118
 1975 00cc 49       		.byte	73
 1976 00cd 40       		.byte	64
 1977 00ce 5B       		.byte	91
 1978 00cf 52       		.byte	82
ARM GAS  /var/folders/dt/0wfd0knj7gs46m8vwfzktm600000gn/T//ccJGMtxw.s 			page 36


 1979 00d0 3C       		.byte	60
 1980 00d1 35       		.byte	53
 1981 00d2 2E       		.byte	46
 1982 00d3 27       		.byte	39
 1983 00d4 18       		.byte	24
 1984 00d5 11       		.byte	17
 1985 00d6 0A       		.byte	10
 1986 00d7 03       		.byte	3
 1987 00d8 74       		.byte	116
 1988 00d9 7D       		.byte	125
 1989 00da 66       		.byte	102
 1990 00db 6F       		.byte	111
 1991 00dc 50       		.byte	80
 1992 00dd 59       		.byte	89
 1993 00de 42       		.byte	66
 1994 00df 4B       		.byte	75
 1995 00e0 17       		.byte	23
 1996 00e1 1E       		.byte	30
 1997 00e2 05       		.byte	5
 1998 00e3 0C       		.byte	12
 1999 00e4 33       		.byte	51
 2000 00e5 3A       		.byte	58
 2001 00e6 21       		.byte	33
 2002 00e7 28       		.byte	40
 2003 00e8 5F       		.byte	95
 2004 00e9 56       		.byte	86
 2005 00ea 4D       		.byte	77
 2006 00eb 44       		.byte	68
 2007 00ec 7B       		.byte	123
 2008 00ed 72       		.byte	114
 2009 00ee 69       		.byte	105
 2010 00ef 60       		.byte	96
 2011 00f0 0E       		.byte	14
 2012 00f1 07       		.byte	7
 2013 00f2 1C       		.byte	28
 2014 00f3 15       		.byte	21
 2015 00f4 2A       		.byte	42
 2016 00f5 23       		.byte	35
 2017 00f6 38       		.byte	56
 2018 00f7 31       		.byte	49
 2019 00f8 46       		.byte	70
 2020 00f9 4F       		.byte	79
 2021 00fa 54       		.byte	84
 2022 00fb 5D       		.byte	93
 2023 00fc 62       		.byte	98
 2024 00fd 6B       		.byte	107
 2025 00fe 70       		.byte	112
 2026 00ff 79       		.byte	121
 2027              		.section	.rodata.stop.6607,"a",%progbits
 2028              		.align	2
 2029              		.set	.LANCHOR3,. + 0
 2030              		.type	stop.6607, %object
 2031              		.size	stop.6607, 2
 2032              	stop.6607:
 2033 0000 FD       		.byte	-3
 2034 0001 FF       		.byte	-1
 2035 0002 0000     		.section	.rodata.start.6597,"a",%progbits
ARM GAS  /var/folders/dt/0wfd0knj7gs46m8vwfzktm600000gn/T//ccJGMtxw.s 			page 37


 2036              		.align	2
 2037              		.set	.LANCHOR2,. + 0
 2038              		.type	start.6597, %object
 2039              		.size	start.6597, 2
 2040              	start.6597:
 2041 0000 FF       		.byte	-1
 2042 0001 FC       		.byte	-4
 2043 0002 0000     		.section	.rodata.stopcmd.6577,"a",%progbits
 2044              		.align	2
 2045              		.set	.LANCHOR1,. + 0
 2046              		.type	stopcmd.6577, %object
 2047              		.size	stopcmd.6577, 7
 2048              	stopcmd.6577:
 2049 0000 4C       		.byte	76
 2050 0001 00       		.byte	0
 2051 0002 00       		.byte	0
 2052 0003 00       		.byte	0
 2053 0004 00       		.byte	0
 2054 0005 01       		.byte	1
 2055 0006 FF       		.byte	-1
 2056 0007 00       		.text
 2057              	.Letext0:
 2058              		.file 2 "/Users/toxygen/Applications/yagarto-4.7.2/bin/../lib/gcc/arm-none-eabi/4.7.2/include/stdd
 2059              		.file 3 "/Users/toxygen/Applications/yagarto-4.7.2/bin/../lib/gcc/arm-none-eabi/4.7.2/../../../../
 2060              		.file 4 "../../os/ports/GCC/ARMCMx/chtypes.h"
 2061              		.file 5 "../../os/kernel/include/chlists.h"
 2062              		.file 6 "../../os/kernel/include/chthreads.h"
 2063              		.file 7 "../../os/ports/GCC/ARMCMx/chcore_v7m.h"
 2064              		.file 8 "../../os/kernel/include/chvt.h"
 2065              		.file 9 "../../os/kernel/include/chmtx.h"
 2066              		.file 10 "../../os/kernel/include/chevents.h"
 2067              		.file 11 "../../os/hal/platforms/STM32F1xx/stm32f10x.h"
 2068              		.file 12 "../../os/hal/platforms/STM32F1xx/stm32_dma.h"
 2069              		.file 13 "../../os/hal/platforms/STM32/GPIOv1/pal_lld.h"
 2070              		.file 14 "../../os/hal/include/spi.h"
 2071              		.file 15 "../../os/hal/platforms/STM32/spi_lld.h"
 2072              		.file 16 "../../os/hal/include/mmc_spi.h"
 2073              		.file 17 "../../os/ports/common/ARMCMx/CMSIS/include/core_cm3.h"