ARM GAS  /var/folders/dt/0wfd0knj7gs46m8vwfzktm600000gn/T//ccoHqZPR.s 			page 1


   1              		.syntax unified
   2              		.cpu cortex-m3
   3              		.fpu softvfp
   4              		.eabi_attribute 20, 1
   5              		.eabi_attribute 21, 1
   6              		.eabi_attribute 23, 3
   7              		.eabi_attribute 24, 1
   8              		.eabi_attribute 25, 1
   9              		.eabi_attribute 26, 1
  10              		.eabi_attribute 30, 2
  11              		.eabi_attribute 34, 1
  12              		.eabi_attribute 18, 4
  13              		.thumb
  14              		.file	"serial.c"
  15              		.text
  16              	.Ltext0:
  17              		.cfi_sections	.debug_frame
  18              		.section	.text.putwouldblock,"ax",%progbits
  19              		.align	2
  20              		.p2align 4,,15
  21              		.thumb
  22              		.thumb_func
  23              		.type	putwouldblock, %function
  24              	putwouldblock:
  25              	.LFB64:
  26              		.file 1 "../../os/hal/src/serial.c"
  27              		.loc 1 74 0
  28              		.cfi_startproc
  29              		@ args = 0, pretend = 0, frame = 0
  30              		@ frame_needed = 0, uses_anonymous_args = 0
  31              		@ link register save eliminated.
  32              	.LVL0:
  33              		.loc 1 76 0
  34 0000 806B     		ldr	r0, [r0, #56]
  35              	.LVL1:
  36              		.loc 1 77 0
  37 0002 D0F10100 		rsbs	r0, r0, #1
  38 0006 38BF     		it	cc
  39 0008 0020     		movcc	r0, #0
  40 000a 7047     		bx	lr
  41              		.cfi_endproc
  42              	.LFE64:
  43              		.size	putwouldblock, .-putwouldblock
  44 000c AFF30080 		.section	.text.getwouldblock,"ax",%progbits
  45              		.align	2
  46              		.p2align 4,,15
  47              		.thumb
  48              		.thumb_func
  49              		.type	getwouldblock, %function
  50              	getwouldblock:
  51              	.LFB65:
  52              		.loc 1 79 0
  53              		.cfi_startproc
  54              		@ args = 0, pretend = 0, frame = 0
  55              		@ frame_needed = 0, uses_anonymous_args = 0
  56              		@ link register save eliminated.
  57              	.LVL2:
ARM GAS  /var/folders/dt/0wfd0knj7gs46m8vwfzktm600000gn/T//ccoHqZPR.s 			page 2


  58              		.loc 1 81 0
  59 0000 8069     		ldr	r0, [r0, #24]
  60              	.LVL3:
  61              		.loc 1 82 0
  62 0002 D0F10100 		rsbs	r0, r0, #1
  63 0006 38BF     		it	cc
  64 0008 0020     		movcc	r0, #0
  65 000a 7047     		bx	lr
  66              		.cfi_endproc
  67              	.LFE65:
  68              		.size	getwouldblock, .-getwouldblock
  69              		.section	.text.getflags,"ax",%progbits
  70              		.align	2
  71              		.p2align 4,,15
  72              		.thumb
  73              		.thumb_func
  74              		.type	getflags, %function
  75              	getflags:
  76              	.LFB70:
  77              		.loc 1 104 0
  78              		.cfi_startproc
  79              		@ args = 0, pretend = 0, frame = 0
  80              		@ frame_needed = 0, uses_anonymous_args = 0
  81              		@ link register save eliminated.
  82              	.LVL4:
  83              		.loc 1 104 0
  84 0000 0246     		mov	r2, r0
  85              	.LBB2:
  86              		.loc 1 105 0
  87 0002 2023     		movs	r3, #32
  88              	.LVL5:
  89              	@ 105 "../../os/hal/src/serial.c" 1
  90 0004 83F31188 		msr     BASEPRI, r3
  91              	@ 0 "" 2
  92              	.LVL6:
  93              		.thumb
  94              	.LBE2:
  95 0008 0021     		movs	r1, #0
  96 000a 8068     		ldr	r0, [r0, #8]
  97              	.LVL7:
  98              	.LBB3:
  99 000c 0B46     		mov	r3, r1
 100              	.LVL8:
 101              	.LBE3:
 102 000e 9160     		str	r1, [r2, #8]
 103              	.LBB4:
 104              	@ 105 "../../os/hal/src/serial.c" 1
 105 0010 83F31188 		msr     BASEPRI, r3
 106              	@ 0 "" 2
 107              	.LVL9:
 108              		.thumb
 109              	.LBE4:
 110              		.loc 1 106 0
 111 0014 7047     		bx	lr
 112              		.cfi_endproc
 113              	.LFE70:
 114              		.size	getflags, .-getflags
ARM GAS  /var/folders/dt/0wfd0knj7gs46m8vwfzktm600000gn/T//ccoHqZPR.s 			page 3


 115 0016 00BFAFF3 		.section	.text.readt,"ax",%progbits
 115      0080AFF3 
 115      0080
 116              		.align	2
 117              		.p2align 4,,15
 118              		.thumb
 119              		.thumb_func
 120              		.type	readt, %function
 121              	readt:
 122              	.LFB69:
 123              		.loc 1 99 0
 124              		.cfi_startproc
 125              		@ args = 0, pretend = 0, frame = 0
 126              		@ frame_needed = 0, uses_anonymous_args = 0
 127              		@ link register save eliminated.
 128              	.LVL10:
 129              		.loc 1 101 0
 130 0000 1030     		adds	r0, r0, #16
 131              	.LVL11:
 132              		.loc 1 102 0
 133              		.loc 1 101 0
 134 0002 FFF7FEBF 		b	chIQReadTimeout
 135              	.LVL12:
 136              		.cfi_endproc
 137              	.LFE69:
 138              		.size	readt, .-readt
 139 0006 00BFAFF3 		.section	.text.reads,"ax",%progbits
 139      0080AFF3 
 139      0080
 140              		.align	2
 141              		.p2align 4,,15
 142              		.thumb
 143              		.thumb_func
 144              		.type	reads, %function
 145              	reads:
 146              	.LFB63:
 147              		.loc 1 68 0
 148              		.cfi_startproc
 149              		@ args = 0, pretend = 0, frame = 0
 150              		@ frame_needed = 0, uses_anonymous_args = 0
 151              		@ link register save eliminated.
 152              	.LVL13:
 153              		.loc 1 70 0
 154 0000 1030     		adds	r0, r0, #16
 155              	.LVL14:
 156 0002 4FF0FF33 		mov	r3, #-1
 157              		.loc 1 72 0
 158              		.loc 1 70 0
 159 0006 FFF7FEBF 		b	chIQReadTimeout
 160              	.LVL15:
 161              		.cfi_endproc
 162              	.LFE63:
 163              		.size	reads, .-reads
 164 000a 00BFAFF3 		.section	.text.writet,"ax",%progbits
 164      0080
 165              		.align	2
 166              		.p2align 4,,15
ARM GAS  /var/folders/dt/0wfd0knj7gs46m8vwfzktm600000gn/T//ccoHqZPR.s 			page 4


 167              		.thumb
 168              		.thumb_func
 169              		.type	writet, %function
 170              	writet:
 171              	.LFB68:
 172              		.loc 1 94 0
 173              		.cfi_startproc
 174              		@ args = 0, pretend = 0, frame = 0
 175              		@ frame_needed = 0, uses_anonymous_args = 0
 176              		@ link register save eliminated.
 177              	.LVL16:
 178              		.loc 1 96 0
 179 0000 3030     		adds	r0, r0, #48
 180              	.LVL17:
 181              		.loc 1 97 0
 182              		.loc 1 96 0
 183 0002 FFF7FEBF 		b	chOQWriteTimeout
 184              	.LVL18:
 185              		.cfi_endproc
 186              	.LFE68:
 187              		.size	writet, .-writet
 188 0006 00BFAFF3 		.section	.text.writes,"ax",%progbits
 188      0080AFF3 
 188      0080
 189              		.align	2
 190              		.p2align 4,,15
 191              		.thumb
 192              		.thumb_func
 193              		.type	writes, %function
 194              	writes:
 195              	.LFB62:
 196              		.loc 1 62 0
 197              		.cfi_startproc
 198              		@ args = 0, pretend = 0, frame = 0
 199              		@ frame_needed = 0, uses_anonymous_args = 0
 200              		@ link register save eliminated.
 201              	.LVL19:
 202              		.loc 1 64 0
 203 0000 3030     		adds	r0, r0, #48
 204              	.LVL20:
 205 0002 4FF0FF33 		mov	r3, #-1
 206              		.loc 1 66 0
 207              		.loc 1 64 0
 208 0006 FFF7FEBF 		b	chOQWriteTimeout
 209              	.LVL21:
 210              		.cfi_endproc
 211              	.LFE62:
 212              		.size	writes, .-writes
 213 000a 00BFAFF3 		.section	.text.gett,"ax",%progbits
 213      0080
 214              		.align	2
 215              		.p2align 4,,15
 216              		.thumb
 217              		.thumb_func
 218              		.type	gett, %function
 219              	gett:
 220              	.LFB67:
ARM GAS  /var/folders/dt/0wfd0knj7gs46m8vwfzktm600000gn/T//ccoHqZPR.s 			page 5


 221              		.loc 1 89 0
 222              		.cfi_startproc
 223              		@ args = 0, pretend = 0, frame = 0
 224              		@ frame_needed = 0, uses_anonymous_args = 0
 225              		@ link register save eliminated.
 226              	.LVL22:
 227              		.loc 1 91 0
 228 0000 1030     		adds	r0, r0, #16
 229              	.LVL23:
 230              		.loc 1 92 0
 231              		.loc 1 91 0
 232 0002 FFF7FEBF 		b	chIQGetTimeout
 233              	.LVL24:
 234              		.cfi_endproc
 235              	.LFE67:
 236              		.size	gett, .-gett
 237 0006 00BFAFF3 		.section	.text.putt,"ax",%progbits
 237      0080AFF3 
 237      0080
 238              		.align	2
 239              		.p2align 4,,15
 240              		.thumb
 241              		.thumb_func
 242              		.type	putt, %function
 243              	putt:
 244              	.LFB66:
 245              		.loc 1 84 0
 246              		.cfi_startproc
 247              		@ args = 0, pretend = 0, frame = 0
 248              		@ frame_needed = 0, uses_anonymous_args = 0
 249              		@ link register save eliminated.
 250              	.LVL25:
 251              		.loc 1 86 0
 252 0000 3030     		adds	r0, r0, #48
 253              	.LVL26:
 254              		.loc 1 87 0
 255              		.loc 1 86 0
 256 0002 FFF7FEBF 		b	chOQPutTimeout
 257              	.LVL27:
 258              		.cfi_endproc
 259              	.LFE66:
 260              		.size	putt, .-putt
 261 0006 00BFAFF3 		.section	.text.sdInit,"ax",%progbits
 261      0080AFF3 
 261      0080
 262              		.align	2
 263              		.p2align 4,,15
 264              		.global	sdInit
 265              		.thumb
 266              		.thumb_func
 267              		.type	sdInit, %function
 268              	sdInit:
 269              	.LFB71:
 270              		.loc 1 125 0
 271              		.cfi_startproc
 272              		@ args = 0, pretend = 0, frame = 0
 273              		@ frame_needed = 0, uses_anonymous_args = 0
ARM GAS  /var/folders/dt/0wfd0knj7gs46m8vwfzktm600000gn/T//ccoHqZPR.s 			page 6


 274              		@ link register save eliminated.
 275              		.loc 1 128 0
 276              		.loc 1 127 0
 277 0000 FFF7FEBF 		b	sd_lld_init
 278              	.LVL28:
 279              		.cfi_endproc
 280              	.LFE71:
 281              		.size	sdInit, .-sdInit
 282 0004 AFF30080 		.section	.text.sdObjectInit,"ax",%progbits
 282      AFF30080 
 282      AFF30080 
 283              		.align	2
 284              		.p2align 4,,15
 285              		.global	sdObjectInit
 286              		.thumb
 287              		.thumb_func
 288              		.type	sdObjectInit, %function
 289              	sdObjectInit:
 290              	.LFB72:
 291              		.loc 1 145 0
 292              		.cfi_startproc
 293              		@ args = 0, pretend = 0, frame = 0
 294              		@ frame_needed = 0, uses_anonymous_args = 0
 295              	.LVL29:
 296 0000 0B46     		mov	r3, r1
 297              		.loc 1 147 0
 298 0002 40F20001 		movw	r1, #:lower16:.LANCHOR0
 299              	.LVL30:
 300              		.loc 1 145 0
 301 0006 70B5     		push	{r4, r5, r6, lr}
 302              	.LCFI0:
 303              		.cfi_def_cfa_offset 16
 304              		.cfi_offset 4, -16
 305              		.cfi_offset 5, -12
 306              		.cfi_offset 6, -8
 307              		.cfi_offset 14, -4
 308              		.loc 1 147 0
 309 0008 C0F20001 		movt	r1, #:upper16:.LANCHOR0
 310 000c 0546     		mov	r5, r0
 311              		.loc 1 145 0
 312 000e 0446     		mov	r4, r0
 313              		.loc 1 147 0
 314 0010 45F8041B 		str	r1, [r5], #4
 315              		.loc 1 148 0
 316 0014 6560     		str	r5, [r4, #4]
 317              		.loc 1 149 0
 318 0016 0025     		movs	r5, #0
 319 0018 A560     		str	r5, [r4, #8]
 320              		.loc 1 150 0
 321 001a 0125     		movs	r5, #1
 322              		.loc 1 145 0
 323 001c 1646     		mov	r6, r2
 324              		.loc 1 151 0
 325 001e 04F15001 		add	r1, r4, #80
 326 0022 1022     		movs	r2, #16
 327              	.LVL31:
 328 0024 00F11000 		add	r0, r0, #16
ARM GAS  /var/folders/dt/0wfd0knj7gs46m8vwfzktm600000gn/T//ccoHqZPR.s 			page 7


 329              	.LVL32:
 330              		.loc 1 150 0
 331 0028 2573     		strb	r5, [r4, #12]
 332              		.loc 1 151 0
 333 002a FFF7FEFF 		bl	chIQInit
 334              	.LVL33:
 335              		.loc 1 152 0
 336 002e 04F13000 		add	r0, r4, #48
 337 0032 04F16001 		add	r1, r4, #96
 338 0036 1022     		movs	r2, #16
 339 0038 3346     		mov	r3, r6
 340              		.loc 1 153 0
 341 003a BDE87040 		pop	{r4, r5, r6, lr}
 342              		.loc 1 152 0
 343 003e FFF7FEBF 		b	chOQInit
 344              	.LVL34:
 345              		.cfi_endproc
 346              	.LFE72:
 347              		.size	sdObjectInit, .-sdObjectInit
 348 0042 00BFAFF3 		.section	.text.sdStart,"ax",%progbits
 348      0080AFF3 
 348      0080AFF3 
 348      0080
 349              		.align	2
 350              		.p2align 4,,15
 351              		.global	sdStart
 352              		.thumb
 353              		.thumb_func
 354              		.type	sdStart, %function
 355              	sdStart:
 356              	.LFB73:
 357              		.loc 1 165 0
 358              		.cfi_startproc
 359              		@ args = 0, pretend = 0, frame = 0
 360              		@ frame_needed = 0, uses_anonymous_args = 0
 361              	.LVL35:
 362 0000 10B5     		push	{r4, lr}
 363              	.LCFI1:
 364              		.cfi_def_cfa_offset 8
 365              		.cfi_offset 4, -8
 366              		.cfi_offset 14, -4
 367              	.LBB5:
 368              		.loc 1 169 0
 369 0002 2023     		movs	r3, #32
 370              	.LVL36:
 371              	.LBE5:
 372              		.loc 1 165 0
 373 0004 0446     		mov	r4, r0
 374              	.LBB6:
 375              		.loc 1 169 0
 376              	@ 169 "../../os/hal/src/serial.c" 1
 377 0006 83F31188 		msr     BASEPRI, r3
 378              	@ 0 "" 2
 379              	.LVL37:
 380              		.thumb
 381              	.LBE6:
 382              		.loc 1 173 0
ARM GAS  /var/folders/dt/0wfd0knj7gs46m8vwfzktm600000gn/T//ccoHqZPR.s 			page 8


 383 000a FFF7FEFF 		bl	sd_lld_start
 384              	.LVL38:
 385              		.loc 1 174 0
 386 000e 0223     		movs	r3, #2
 387 0010 2373     		strb	r3, [r4, #12]
 388              	.LBB7:
 389              		.loc 1 175 0
 390 0012 0023     		movs	r3, #0
 391              	.LVL39:
 392              	@ 175 "../../os/hal/src/serial.c" 1
 393 0014 83F31188 		msr     BASEPRI, r3
 394              	@ 0 "" 2
 395              	.LVL40:
 396              		.thumb
 397 0018 10BD     		pop	{r4, pc}
 398              	.LBE7:
 399              		.cfi_endproc
 400              	.LFE73:
 401              		.size	sdStart, .-sdStart
 402 001a 00BFAFF3 		.section	.text.sdStop,"ax",%progbits
 402      0080
 403              		.align	2
 404              		.p2align 4,,15
 405              		.global	sdStop
 406              		.thumb
 407              		.thumb_func
 408              		.type	sdStop, %function
 409              	sdStop:
 410              	.LFB74:
 411              		.loc 1 187 0
 412              		.cfi_startproc
 413              		@ args = 0, pretend = 0, frame = 0
 414              		@ frame_needed = 0, uses_anonymous_args = 0
 415              	.LVL41:
 416 0000 10B5     		push	{r4, lr}
 417              	.LCFI2:
 418              		.cfi_def_cfa_offset 8
 419              		.cfi_offset 4, -8
 420              		.cfi_offset 14, -4
 421              	.LBB8:
 422              		.loc 1 191 0
 423 0002 2023     		movs	r3, #32
 424              	.LVL42:
 425              	.LBE8:
 426              		.loc 1 187 0
 427 0004 0446     		mov	r4, r0
 428              	.LBB9:
 429              		.loc 1 191 0
 430              	@ 191 "../../os/hal/src/serial.c" 1
 431 0006 83F31188 		msr     BASEPRI, r3
 432              	@ 0 "" 2
 433              	.LVL43:
 434              		.thumb
 435              	.LBE9:
 436              		.loc 1 195 0
 437 000a FFF7FEFF 		bl	sd_lld_stop
 438              	.LVL44:
ARM GAS  /var/folders/dt/0wfd0knj7gs46m8vwfzktm600000gn/T//ccoHqZPR.s 			page 9


 439              		.loc 1 196 0
 440 000e 0123     		movs	r3, #1
 441 0010 2373     		strb	r3, [r4, #12]
 442              		.loc 1 197 0
 443 0012 04F13000 		add	r0, r4, #48
 444 0016 FFF7FEFF 		bl	chOQResetI
 445              	.LVL45:
 446              		.loc 1 198 0
 447 001a 04F11000 		add	r0, r4, #16
 448 001e FFF7FEFF 		bl	chIQResetI
 449              	.LVL46:
 450              		.loc 1 199 0
 451 0022 FFF7FEFF 		bl	chSchRescheduleS
 452              	.LVL47:
 453              	.LBB10:
 454              		.loc 1 200 0
 455 0026 0023     		movs	r3, #0
 456              	.LVL48:
 457              	@ 200 "../../os/hal/src/serial.c" 1
 458 0028 83F31188 		msr     BASEPRI, r3
 459              	@ 0 "" 2
 460              	.LVL49:
 461              		.thumb
 462 002c 10BD     		pop	{r4, pc}
 463              	.LBE10:
 464              		.cfi_endproc
 465              	.LFE74:
 466              		.size	sdStop, .-sdStop
 467 002e 00BF     		.section	.text.sdIncomingDataI,"ax",%progbits
 468              		.align	2
 469              		.p2align 4,,15
 470              		.global	sdIncomingDataI
 471              		.thumb
 472              		.thumb_func
 473              		.type	sdIncomingDataI, %function
 474              	sdIncomingDataI:
 475              	.LFB75:
 476              		.loc 1 219 0
 477              		.cfi_startproc
 478              		@ args = 0, pretend = 0, frame = 0
 479              		@ frame_needed = 0, uses_anonymous_args = 0
 480              	.LVL50:
 481 0000 38B5     		push	{r3, r4, r5, lr}
 482              	.LCFI3:
 483              		.cfi_def_cfa_offset 16
 484              		.cfi_offset 3, -16
 485              		.cfi_offset 4, -12
 486              		.cfi_offset 5, -8
 487              		.cfi_offset 14, -4
 488              		.loc 1 224 0
 489 0002 8369     		ldr	r3, [r0, #24]
 490              		.loc 1 219 0
 491 0004 0446     		mov	r4, r0
 492 0006 0D46     		mov	r5, r1
 493              		.loc 1 224 0
 494 0008 3BB1     		cbz	r3, .L18
 495              		.loc 1 226 0
ARM GAS  /var/folders/dt/0wfd0knj7gs46m8vwfzktm600000gn/T//ccoHqZPR.s 			page 10


 496 000a 04F11000 		add	r0, r4, #16
 497              	.LVL51:
 498 000e 2946     		mov	r1, r5
 499              	.LVL52:
 500 0010 FFF7FEFF 		bl	chIQPutI
 501              	.LVL53:
 502 0014 0028     		cmp	r0, #0
 503 0016 0FDB     		blt	.L19
 504              	.L14:
 505 0018 38BD     		pop	{r3, r4, r5, pc}
 506              	.LVL54:
 507              	.L18:
 508              		.loc 1 225 0
 509 001a 8268     		ldr	r2, [r0, #8]
 510 001c 1946     		mov	r1, r3
 511              	.LVL55:
 512 001e 42F00402 		orr	r2, r2, #4
 513 0022 0430     		adds	r0, r0, #4
 514              	.LVL56:
 515 0024 A260     		str	r2, [r4, #8]
 516 0026 FFF7FEFF 		bl	chEvtBroadcastFlagsI
 517              	.LVL57:
 518              		.loc 1 226 0
 519 002a 04F11000 		add	r0, r4, #16
 520 002e 2946     		mov	r1, r5
 521 0030 FFF7FEFF 		bl	chIQPutI
 522              	.LVL58:
 523 0034 0028     		cmp	r0, #0
 524 0036 EFDA     		bge	.L14
 525              	.L19:
 526              		.loc 1 227 0
 527 0038 A368     		ldr	r3, [r4, #8]
 528 003a 201D     		adds	r0, r4, #4
 529 003c 43F08003 		orr	r3, r3, #128
 530 0040 0021     		movs	r1, #0
 531 0042 A360     		str	r3, [r4, #8]
 532              		.loc 1 228 0
 533 0044 BDE83840 		pop	{r3, r4, r5, lr}
 534              		.loc 1 227 0
 535 0048 FFF7FEBF 		b	chEvtBroadcastFlagsI
 536              	.LVL59:
 537              		.cfi_endproc
 538              	.LFE75:
 539              		.size	sdIncomingDataI, .-sdIncomingDataI
 540 004c AFF30080 		.section	.text.sdRequestDataI,"ax",%progbits
 541              		.align	2
 542              		.p2align 4,,15
 543              		.global	sdRequestDataI
 544              		.thumb
 545              		.thumb_func
 546              		.type	sdRequestDataI, %function
 547              	sdRequestDataI:
 548              	.LFB76:
 549              		.loc 1 245 0
 550              		.cfi_startproc
 551              		@ args = 0, pretend = 0, frame = 0
 552              		@ frame_needed = 0, uses_anonymous_args = 0
ARM GAS  /var/folders/dt/0wfd0knj7gs46m8vwfzktm600000gn/T//ccoHqZPR.s 			page 11


 553              	.LVL60:
 554 0000 38B5     		push	{r3, r4, r5, lr}
 555              	.LCFI4:
 556              		.cfi_def_cfa_offset 16
 557              		.cfi_offset 3, -16
 558              		.cfi_offset 4, -12
 559              		.cfi_offset 5, -8
 560              		.cfi_offset 14, -4
 561              		.loc 1 245 0
 562 0002 0446     		mov	r4, r0
 563              		.loc 1 251 0
 564 0004 00F13000 		add	r0, r0, #48
 565              	.LVL61:
 566 0008 FFF7FEFF 		bl	chOQGetI
 567              	.LVL62:
 568              		.loc 1 252 0
 569 000c 051E     		subs	r5, r0, #0
 570 000e 01DB     		blt	.L22
 571              		.loc 1 255 0
 572 0010 2846     		mov	r0, r5
 573 0012 38BD     		pop	{r3, r4, r5, pc}
 574              	.L22:
 575              		.loc 1 253 0
 576 0014 A368     		ldr	r3, [r4, #8]
 577 0016 201D     		adds	r0, r4, #4
 578 0018 43F00803 		orr	r3, r3, #8
 579 001c A360     		str	r3, [r4, #8]
 580 001e 0021     		movs	r1, #0
 581 0020 FFF7FEFF 		bl	chEvtBroadcastFlagsI
 582              	.LVL63:
 583              		.loc 1 255 0
 584 0024 2846     		mov	r0, r5
 585 0026 38BD     		pop	{r3, r4, r5, pc}
 586              		.cfi_endproc
 587              	.LFE76:
 588              		.size	sdRequestDataI, .-sdRequestDataI
 589 0028 AFF30080 		.section	.rodata.vmt,"a",%progbits
 589      AFF30080 
 590              		.align	2
 591              		.set	.LANCHOR0,. + 0
 592              		.type	vmt, %object
 593              		.size	vmt, 36
 594              	vmt:
 595 0000 00000000 		.word	writes
 596 0004 00000000 		.word	reads
 597 0008 00000000 		.word	putwouldblock
 598 000c 00000000 		.word	getwouldblock
 599 0010 00000000 		.word	putt
 600 0014 00000000 		.word	gett
 601 0018 00000000 		.word	writet
 602 001c 00000000 		.word	readt
 603 0020 00000000 		.word	getflags
 604              		.text
 605              	.Letext0:
 606              		.file 2 "/Users/toxygen/Applications/yagarto-4.7.2/bin/../lib/gcc/arm-none-eabi/4.7.2/include/stdd
 607              		.file 3 "/Users/toxygen/Applications/yagarto-4.7.2/bin/../lib/gcc/arm-none-eabi/4.7.2/../../../../
 608              		.file 4 "../../os/ports/GCC/ARMCMx/chtypes.h"
ARM GAS  /var/folders/dt/0wfd0knj7gs46m8vwfzktm600000gn/T//ccoHqZPR.s 			page 12


 609              		.file 5 "../../os/kernel/include/chlists.h"
 610              		.file 6 "../../os/kernel/include/chthreads.h"
 611              		.file 7 "../../os/ports/GCC/ARMCMx/chcore_v7m.h"
 612              		.file 8 "../../os/kernel/include/chmtx.h"
 613              		.file 9 "../../os/kernel/include/chevents.h"
 614              		.file 10 "../../os/kernel/include/chqueues.h"
 615              		.file 11 "../../os/kernel/include/chioch.h"
 616              		.file 12 "../../os/hal/platforms/STM32F1xx/stm32f10x.h"
 617              		.file 13 "../../os/hal/include/serial.h"
 618              		.file 14 "../../os/hal/platforms/STM32/serial_lld.h"
 619              		.file 15 "../../os/kernel/include/chschd.h"
 620              		.file 16 "../../os/ports/common/ARMCMx/CMSIS/include/core_cm3.h"