ARM GAS  /var/folders/dt/0wfd0knj7gs46m8vwfzktm600000gn/T//cc2px15A.s 			page 1


   1              		.syntax unified
   2              		.cpu cortex-m3
   3              		.fpu softvfp
   4              		.eabi_attribute 20, 1
   5              		.eabi_attribute 21, 1
   6              		.eabi_attribute 23, 3
   7              		.eabi_attribute 24, 1
   8              		.eabi_attribute 25, 1
   9              		.eabi_attribute 26, 1
  10              		.eabi_attribute 30, 2
  11              		.eabi_attribute 34, 1
  12              		.eabi_attribute 18, 4
  13              		.thumb
  14              		.file	"spi.c"
  15              		.text
  16              	.Ltext0:
  17              		.cfi_sections	.debug_frame
  18              		.section	.text.spiInit,"ax",%progbits
  19              		.align	2
  20              		.p2align 4,,15
  21              		.global	spiInit
  22              		.thumb
  23              		.thumb_func
  24              		.type	spiInit, %function
  25              	spiInit:
  26              	.LFB62:
  27              		.file 1 "../../os/hal/src/spi.c"
  28              		.loc 1 68 0
  29              		.cfi_startproc
  30              		@ args = 0, pretend = 0, frame = 0
  31              		@ frame_needed = 0, uses_anonymous_args = 0
  32              		@ link register save eliminated.
  33              		.loc 1 71 0
  34              		.loc 1 70 0
  35 0000 FFF7FEBF 		b	spi_lld_init
  36              	.LVL0:
  37              		.cfi_endproc
  38              	.LFE62:
  39              		.size	spiInit, .-spiInit
  40 0004 AFF30080 		.section	.text.spiObjectInit,"ax",%progbits
  40      AFF30080 
  40      AFF30080 
  41              		.align	2
  42              		.p2align 4,,15
  43              		.global	spiObjectInit
  44              		.thumb
  45              		.thumb_func
  46              		.type	spiObjectInit, %function
  47              	spiObjectInit:
  48              	.LFB63:
  49              		.loc 1 80 0
  50              		.cfi_startproc
  51              		@ args = 0, pretend = 0, frame = 0
  52              		@ frame_needed = 0, uses_anonymous_args = 0
  53              		@ link register save eliminated.
  54              	.LVL1:
  55              		.loc 1 83 0
ARM GAS  /var/folders/dt/0wfd0knj7gs46m8vwfzktm600000gn/T//cc2px15A.s 			page 2


  56 0000 0023     		movs	r3, #0
  57              		.loc 1 82 0
  58 0002 0122     		movs	r2, #1
  59 0004 0270     		strb	r2, [r0, #0]
  60              		.loc 1 83 0
  61 0006 4360     		str	r3, [r0, #4]
  62              		.loc 1 85 0
  63 0008 8360     		str	r3, [r0, #8]
  64              		.loc 1 89 0
  65 000a 0C30     		adds	r0, r0, #12
  66              	.LVL2:
  67              		.loc 1 97 0
  68              		.loc 1 89 0
  69 000c FFF7FEBF 		b	chMtxInit
  70              	.LVL3:
  71              		.cfi_endproc
  72              	.LFE63:
  73              		.size	spiObjectInit, .-spiObjectInit
  74              		.section	.text.spiStart,"ax",%progbits
  75              		.align	2
  76              		.p2align 4,,15
  77              		.global	spiStart
  78              		.thumb
  79              		.thumb_func
  80              		.type	spiStart, %function
  81              	spiStart:
  82              	.LFB64:
  83              		.loc 1 107 0
  84              		.cfi_startproc
  85              		@ args = 0, pretend = 0, frame = 0
  86              		@ frame_needed = 0, uses_anonymous_args = 0
  87              	.LVL4:
  88 0000 10B5     		push	{r4, lr}
  89              	.LCFI0:
  90              		.cfi_def_cfa_offset 8
  91              		.cfi_offset 4, -8
  92              		.cfi_offset 14, -4
  93              	.LBB2:
  94              		.loc 1 111 0
  95 0002 2023     		movs	r3, #32
  96              	.LVL5:
  97              	.LBE2:
  98              		.loc 1 107 0
  99 0004 0446     		mov	r4, r0
 100              	.LBB3:
 101              		.loc 1 111 0
 102              	@ 111 "../../os/hal/src/spi.c" 1
 103 0006 83F31188 		msr     BASEPRI, r3
 104              	@ 0 "" 2
 105              	.LVL6:
 106              		.thumb
 107              	.LBE3:
 108              		.loc 1 114 0
 109 000a 4160     		str	r1, [r0, #4]
 110              		.loc 1 115 0
 111 000c FFF7FEFF 		bl	spi_lld_start
 112              	.LVL7:
ARM GAS  /var/folders/dt/0wfd0knj7gs46m8vwfzktm600000gn/T//cc2px15A.s 			page 3


 113              		.loc 1 116 0
 114 0010 0223     		movs	r3, #2
 115 0012 2370     		strb	r3, [r4, #0]
 116              	.LBB4:
 117              		.loc 1 117 0
 118 0014 0023     		movs	r3, #0
 119              	.LVL8:
 120              	@ 117 "../../os/hal/src/spi.c" 1
 121 0016 83F31188 		msr     BASEPRI, r3
 122              	@ 0 "" 2
 123              	.LVL9:
 124              		.thumb
 125 001a 10BD     		pop	{r4, pc}
 126              	.LBE4:
 127              		.cfi_endproc
 128              	.LFE64:
 129              		.size	spiStart, .-spiStart
 130 001c AFF30080 		.section	.text.spiStop,"ax",%progbits
 131              		.align	2
 132              		.p2align 4,,15
 133              		.global	spiStop
 134              		.thumb
 135              		.thumb_func
 136              		.type	spiStop, %function
 137              	spiStop:
 138              	.LFB65:
 139              		.loc 1 129 0
 140              		.cfi_startproc
 141              		@ args = 0, pretend = 0, frame = 0
 142              		@ frame_needed = 0, uses_anonymous_args = 0
 143              	.LVL10:
 144 0000 10B5     		push	{r4, lr}
 145              	.LCFI1:
 146              		.cfi_def_cfa_offset 8
 147              		.cfi_offset 4, -8
 148              		.cfi_offset 14, -4
 149              	.LBB5:
 150              		.loc 1 133 0
 151 0002 2023     		movs	r3, #32
 152              	.LVL11:
 153              	.LBE5:
 154              		.loc 1 129 0
 155 0004 0446     		mov	r4, r0
 156              	.LBB6:
 157              		.loc 1 133 0
 158              	@ 133 "../../os/hal/src/spi.c" 1
 159 0006 83F31188 		msr     BASEPRI, r3
 160              	@ 0 "" 2
 161              	.LVL12:
 162              		.thumb
 163              	.LBE6:
 164              		.loc 1 136 0
 165 000a FFF7FEFF 		bl	spi_lld_unselect
 166              	.LVL13:
 167              		.loc 1 137 0
 168 000e 2046     		mov	r0, r4
 169 0010 FFF7FEFF 		bl	spi_lld_stop
ARM GAS  /var/folders/dt/0wfd0knj7gs46m8vwfzktm600000gn/T//cc2px15A.s 			page 4


 170              	.LVL14:
 171              		.loc 1 138 0
 172 0014 0123     		movs	r3, #1
 173 0016 2370     		strb	r3, [r4, #0]
 174              	.LBB7:
 175              		.loc 1 139 0
 176 0018 0023     		movs	r3, #0
 177              	.LVL15:
 178              	@ 139 "../../os/hal/src/spi.c" 1
 179 001a 83F31188 		msr     BASEPRI, r3
 180              	@ 0 "" 2
 181              	.LVL16:
 182              		.thumb
 183 001e 10BD     		pop	{r4, pc}
 184              	.LBE7:
 185              		.cfi_endproc
 186              	.LFE65:
 187              		.size	spiStop, .-spiStop
 188              		.section	.text.spiSelect,"ax",%progbits
 189              		.align	2
 190              		.p2align 4,,15
 191              		.global	spiSelect
 192              		.thumb
 193              		.thumb_func
 194              		.type	spiSelect, %function
 195              	spiSelect:
 196              	.LFB66:
 197              		.loc 1 149 0
 198              		.cfi_startproc
 199              		@ args = 0, pretend = 0, frame = 0
 200              		@ frame_needed = 0, uses_anonymous_args = 0
 201              	.LVL17:
 202 0000 08B5     		push	{r3, lr}
 203              	.LCFI2:
 204              		.cfi_def_cfa_offset 8
 205              		.cfi_offset 3, -8
 206              		.cfi_offset 14, -4
 207              	.LBB8:
 208              		.loc 1 153 0
 209 0002 2023     		movs	r3, #32
 210              	.LVL18:
 211              	@ 153 "../../os/hal/src/spi.c" 1
 212 0004 83F31188 		msr     BASEPRI, r3
 213              	@ 0 "" 2
 214              	.LVL19:
 215              		.thumb
 216              	.LBE8:
 217              		.loc 1 155 0
 218 0008 FFF7FEFF 		bl	spi_lld_select
 219              	.LVL20:
 220              	.LBB9:
 221              		.loc 1 156 0
 222 000c 0023     		movs	r3, #0
 223              	.LVL21:
 224              	@ 156 "../../os/hal/src/spi.c" 1
 225 000e 83F31188 		msr     BASEPRI, r3
 226              	@ 0 "" 2
ARM GAS  /var/folders/dt/0wfd0knj7gs46m8vwfzktm600000gn/T//cc2px15A.s 			page 5


 227              	.LVL22:
 228              		.thumb
 229 0012 08BD     		pop	{r3, pc}
 230              	.LBE9:
 231              		.cfi_endproc
 232              	.LFE66:
 233              		.size	spiSelect, .-spiSelect
 234 0014 AFF30080 		.section	.text.spiUnselect,"ax",%progbits
 234      AFF30080 
 234      AFF30080 
 235              		.align	2
 236              		.p2align 4,,15
 237              		.global	spiUnselect
 238              		.thumb
 239              		.thumb_func
 240              		.type	spiUnselect, %function
 241              	spiUnselect:
 242              	.LFB67:
 243              		.loc 1 167 0
 244              		.cfi_startproc
 245              		@ args = 0, pretend = 0, frame = 0
 246              		@ frame_needed = 0, uses_anonymous_args = 0
 247              	.LVL23:
 248 0000 08B5     		push	{r3, lr}
 249              	.LCFI3:
 250              		.cfi_def_cfa_offset 8
 251              		.cfi_offset 3, -8
 252              		.cfi_offset 14, -4
 253              	.LBB10:
 254              		.loc 1 171 0
 255 0002 2023     		movs	r3, #32
 256              	.LVL24:
 257              	@ 171 "../../os/hal/src/spi.c" 1
 258 0004 83F31188 		msr     BASEPRI, r3
 259              	@ 0 "" 2
 260              	.LVL25:
 261              		.thumb
 262              	.LBE10:
 263              		.loc 1 173 0
 264 0008 FFF7FEFF 		bl	spi_lld_unselect
 265              	.LVL26:
 266              	.LBB11:
 267              		.loc 1 174 0
 268 000c 0023     		movs	r3, #0
 269              	.LVL27:
 270              	@ 174 "../../os/hal/src/spi.c" 1
 271 000e 83F31188 		msr     BASEPRI, r3
 272              	@ 0 "" 2
 273              	.LVL28:
 274              		.thumb
 275 0012 08BD     		pop	{r3, pc}
 276              	.LBE11:
 277              		.cfi_endproc
 278              	.LFE67:
 279              		.size	spiUnselect, .-spiUnselect
 280 0014 AFF30080 		.section	.text.spiStartIgnore,"ax",%progbits
 280      AFF30080 
ARM GAS  /var/folders/dt/0wfd0knj7gs46m8vwfzktm600000gn/T//cc2px15A.s 			page 6


 280      AFF30080 
 281              		.align	2
 282              		.p2align 4,,15
 283              		.global	spiStartIgnore
 284              		.thumb
 285              		.thumb_func
 286              		.type	spiStartIgnore, %function
 287              	spiStartIgnore:
 288              	.LFB68:
 289              		.loc 1 190 0
 290              		.cfi_startproc
 291              		@ args = 0, pretend = 0, frame = 0
 292              		@ frame_needed = 0, uses_anonymous_args = 0
 293              	.LVL29:
 294 0000 08B5     		push	{r3, lr}
 295              	.LCFI4:
 296              		.cfi_def_cfa_offset 8
 297              		.cfi_offset 3, -8
 298              		.cfi_offset 14, -4
 299              	.LBB12:
 300              		.loc 1 194 0
 301 0002 2023     		movs	r3, #32
 302              	.LVL30:
 303              	@ 194 "../../os/hal/src/spi.c" 1
 304 0004 83F31188 		msr     BASEPRI, r3
 305              	@ 0 "" 2
 306              	.LVL31:
 307              		.thumb
 308              	.LBE12:
 309              		.loc 1 196 0
 310 0008 0323     		movs	r3, #3
 311              	.LVL32:
 312 000a 0370     		strb	r3, [r0, #0]
 313 000c FFF7FEFF 		bl	spi_lld_ignore
 314              	.LVL33:
 315              	.LBB13:
 316              		.loc 1 197 0
 317 0010 0023     		movs	r3, #0
 318              	.LVL34:
 319              	@ 197 "../../os/hal/src/spi.c" 1
 320 0012 83F31188 		msr     BASEPRI, r3
 321              	@ 0 "" 2
 322              	.LVL35:
 323              		.thumb
 324 0016 08BD     		pop	{r3, pc}
 325              	.LBE13:
 326              		.cfi_endproc
 327              	.LFE68:
 328              		.size	spiStartIgnore, .-spiStartIgnore
 329 0018 AFF30080 		.section	.text.spiStartExchange,"ax",%progbits
 329      AFF30080 
 330              		.align	2
 331              		.p2align 4,,15
 332              		.global	spiStartExchange
 333              		.thumb
 334              		.thumb_func
 335              		.type	spiStartExchange, %function
ARM GAS  /var/folders/dt/0wfd0knj7gs46m8vwfzktm600000gn/T//cc2px15A.s 			page 7


 336              	spiStartExchange:
 337              	.LFB69:
 338              		.loc 1 218 0
 339              		.cfi_startproc
 340              		@ args = 0, pretend = 0, frame = 0
 341              		@ frame_needed = 0, uses_anonymous_args = 0
 342              	.LVL36:
 343 0000 38B5     		push	{r3, r4, r5, lr}
 344              	.LCFI5:
 345              		.cfi_def_cfa_offset 16
 346              		.cfi_offset 3, -16
 347              		.cfi_offset 4, -12
 348              		.cfi_offset 5, -8
 349              		.cfi_offset 14, -4
 350              		.loc 1 218 0
 351 0002 1D46     		mov	r5, r3
 352 0004 0446     		mov	r4, r0
 353              	.LBB14:
 354              		.loc 1 223 0
 355 0006 2023     		movs	r3, #32
 356              	.LVL37:
 357              	@ 223 "../../os/hal/src/spi.c" 1
 358 0008 83F31188 		msr     BASEPRI, r3
 359              	@ 0 "" 2
 360              	.LVL38:
 361              		.thumb
 362              	.LBE14:
 363              		.loc 1 225 0
 364 000c 2B46     		mov	r3, r5
 365              	.LVL39:
 366 000e 0325     		movs	r5, #3
 367              	.LVL40:
 368 0010 0570     		strb	r5, [r0, #0]
 369 0012 FFF7FEFF 		bl	spi_lld_exchange
 370              	.LVL41:
 371              	.LBB15:
 372              		.loc 1 226 0
 373 0016 0023     		movs	r3, #0
 374              	.LVL42:
 375              	@ 226 "../../os/hal/src/spi.c" 1
 376 0018 83F31188 		msr     BASEPRI, r3
 377              	@ 0 "" 2
 378              	.LVL43:
 379              		.thumb
 380 001c 38BD     		pop	{r3, r4, r5, pc}
 381              	.LBE15:
 382              		.cfi_endproc
 383              	.LFE69:
 384              		.size	spiStartExchange, .-spiStartExchange
 385 001e 00BF     		.section	.text.spiStartSend,"ax",%progbits
 386              		.align	2
 387              		.p2align 4,,15
 388              		.global	spiStartSend
 389              		.thumb
 390              		.thumb_func
 391              		.type	spiStartSend, %function
 392              	spiStartSend:
ARM GAS  /var/folders/dt/0wfd0knj7gs46m8vwfzktm600000gn/T//cc2px15A.s 			page 8


 393              	.LFB70:
 394              		.loc 1 244 0
 395              		.cfi_startproc
 396              		@ args = 0, pretend = 0, frame = 0
 397              		@ frame_needed = 0, uses_anonymous_args = 0
 398              	.LVL44:
 399 0000 10B5     		push	{r4, lr}
 400              	.LCFI6:
 401              		.cfi_def_cfa_offset 8
 402              		.cfi_offset 4, -8
 403              		.cfi_offset 14, -4
 404              	.LBB16:
 405              		.loc 1 249 0
 406 0002 2023     		movs	r3, #32
 407              	.LVL45:
 408              	.LBE16:
 409              		.loc 1 244 0
 410 0004 0446     		mov	r4, r0
 411              	.LBB17:
 412              		.loc 1 249 0
 413              	@ 249 "../../os/hal/src/spi.c" 1
 414 0006 83F31188 		msr     BASEPRI, r3
 415              	@ 0 "" 2
 416              	.LVL46:
 417              		.thumb
 418              	.LBE17:
 419              		.loc 1 251 0
 420 000a 0323     		movs	r3, #3
 421              	.LVL47:
 422 000c 0370     		strb	r3, [r0, #0]
 423 000e FFF7FEFF 		bl	spi_lld_send
 424              	.LVL48:
 425              	.LBB18:
 426              		.loc 1 252 0
 427 0012 0023     		movs	r3, #0
 428              	.LVL49:
 429              	@ 252 "../../os/hal/src/spi.c" 1
 430 0014 83F31188 		msr     BASEPRI, r3
 431              	@ 0 "" 2
 432              	.LVL50:
 433              		.thumb
 434 0018 10BD     		pop	{r4, pc}
 435              	.LBE18:
 436              		.cfi_endproc
 437              	.LFE70:
 438              		.size	spiStartSend, .-spiStartSend
 439 001a 00BFAFF3 		.section	.text.spiStartReceive,"ax",%progbits
 439      0080
 440              		.align	2
 441              		.p2align 4,,15
 442              		.global	spiStartReceive
 443              		.thumb
 444              		.thumb_func
 445              		.type	spiStartReceive, %function
 446              	spiStartReceive:
 447              	.LFB71:
 448              		.loc 1 270 0
ARM GAS  /var/folders/dt/0wfd0knj7gs46m8vwfzktm600000gn/T//cc2px15A.s 			page 9


 449              		.cfi_startproc
 450              		@ args = 0, pretend = 0, frame = 0
 451              		@ frame_needed = 0, uses_anonymous_args = 0
 452              	.LVL51:
 453 0000 10B5     		push	{r4, lr}
 454              	.LCFI7:
 455              		.cfi_def_cfa_offset 8
 456              		.cfi_offset 4, -8
 457              		.cfi_offset 14, -4
 458              	.LBB19:
 459              		.loc 1 275 0
 460 0002 2023     		movs	r3, #32
 461              	.LVL52:
 462              	.LBE19:
 463              		.loc 1 270 0
 464 0004 0446     		mov	r4, r0
 465              	.LBB20:
 466              		.loc 1 275 0
 467              	@ 275 "../../os/hal/src/spi.c" 1
 468 0006 83F31188 		msr     BASEPRI, r3
 469              	@ 0 "" 2
 470              	.LVL53:
 471              		.thumb
 472              	.LBE20:
 473              		.loc 1 277 0
 474 000a 0323     		movs	r3, #3
 475              	.LVL54:
 476 000c 0370     		strb	r3, [r0, #0]
 477 000e FFF7FEFF 		bl	spi_lld_receive
 478              	.LVL55:
 479              	.LBB21:
 480              		.loc 1 278 0
 481 0012 0023     		movs	r3, #0
 482              	.LVL56:
 483              	@ 278 "../../os/hal/src/spi.c" 1
 484 0014 83F31188 		msr     BASEPRI, r3
 485              	@ 0 "" 2
 486              	.LVL57:
 487              		.thumb
 488 0018 10BD     		pop	{r4, pc}
 489              	.LBE21:
 490              		.cfi_endproc
 491              	.LFE71:
 492              		.size	spiStartReceive, .-spiStartReceive
 493 001a 00BFAFF3 		.section	.text.spiIgnore,"ax",%progbits
 493      0080
 494              		.align	2
 495              		.p2align 4,,15
 496              		.global	spiIgnore
 497              		.thumb
 498              		.thumb_func
 499              		.type	spiIgnore, %function
 500              	spiIgnore:
 501              	.LFB72:
 502              		.loc 1 296 0
 503              		.cfi_startproc
 504              		@ args = 0, pretend = 0, frame = 0
ARM GAS  /var/folders/dt/0wfd0knj7gs46m8vwfzktm600000gn/T//cc2px15A.s 			page 10


 505              		@ frame_needed = 0, uses_anonymous_args = 0
 506              	.LVL58:
 507 0000 10B5     		push	{r4, lr}
 508              	.LCFI8:
 509              		.cfi_def_cfa_offset 8
 510              		.cfi_offset 4, -8
 511              		.cfi_offset 14, -4
 512              	.LBB22:
 513              		.loc 1 300 0
 514 0002 2023     		movs	r3, #32
 515              	.LVL59:
 516              	.LBE22:
 517              		.loc 1 296 0
 518 0004 0446     		mov	r4, r0
 519              	.LBB23:
 520              		.loc 1 300 0
 521              	@ 300 "../../os/hal/src/spi.c" 1
 522 0006 83F31188 		msr     BASEPRI, r3
 523              	@ 0 "" 2
 524              	.LVL60:
 525              		.thumb
 526              	.LBE23:
 527              		.loc 1 303 0
 528 000a 0323     		movs	r3, #3
 529              	.LVL61:
 530 000c 0370     		strb	r3, [r0, #0]
 531 000e FFF7FEFF 		bl	spi_lld_ignore
 532              	.LVL62:
 533              		.loc 1 304 0
 534 0012 40F20003 		movw	r3, #:lower16:rlist
 535 0016 C0F20003 		movt	r3, #:upper16:rlist
 536 001a DB69     		ldr	r3, [r3, #28]
 537 001c 0220     		movs	r0, #2
 538 001e A360     		str	r3, [r4, #8]
 539 0020 FFF7FEFF 		bl	chSchGoSleepS
 540              	.LVL63:
 541              	.LBB24:
 542              		.loc 1 305 0
 543 0024 0023     		movs	r3, #0
 544              	.LVL64:
 545              	@ 305 "../../os/hal/src/spi.c" 1
 546 0026 83F31188 		msr     BASEPRI, r3
 547              	@ 0 "" 2
 548              	.LVL65:
 549              		.thumb
 550 002a 10BD     		pop	{r4, pc}
 551              	.LBE24:
 552              		.cfi_endproc
 553              	.LFE72:
 554              		.size	spiIgnore, .-spiIgnore
 555 002c AFF30080 		.section	.text.spiExchange,"ax",%progbits
 556              		.align	2
 557              		.p2align 4,,15
 558              		.global	spiExchange
 559              		.thumb
 560              		.thumb_func
 561              		.type	spiExchange, %function
ARM GAS  /var/folders/dt/0wfd0knj7gs46m8vwfzktm600000gn/T//cc2px15A.s 			page 11


 562              	spiExchange:
 563              	.LFB73:
 564              		.loc 1 327 0
 565              		.cfi_startproc
 566              		@ args = 0, pretend = 0, frame = 0
 567              		@ frame_needed = 0, uses_anonymous_args = 0
 568              	.LVL66:
 569 0000 38B5     		push	{r3, r4, r5, lr}
 570              	.LCFI9:
 571              		.cfi_def_cfa_offset 16
 572              		.cfi_offset 3, -16
 573              		.cfi_offset 4, -12
 574              		.cfi_offset 5, -8
 575              		.cfi_offset 14, -4
 576              		.loc 1 327 0
 577 0002 1D46     		mov	r5, r3
 578 0004 0446     		mov	r4, r0
 579              	.LBB25:
 580              		.loc 1 332 0
 581 0006 2023     		movs	r3, #32
 582              	.LVL67:
 583              	@ 332 "../../os/hal/src/spi.c" 1
 584 0008 83F31188 		msr     BASEPRI, r3
 585              	@ 0 "" 2
 586              	.LVL68:
 587              		.thumb
 588              	.LBE25:
 589              		.loc 1 336 0
 590 000c 2B46     		mov	r3, r5
 591              	.LVL69:
 592 000e 0325     		movs	r5, #3
 593              	.LVL70:
 594 0010 0570     		strb	r5, [r0, #0]
 595 0012 FFF7FEFF 		bl	spi_lld_exchange
 596              	.LVL71:
 597              		.loc 1 337 0
 598 0016 40F20003 		movw	r3, #:lower16:rlist
 599 001a C0F20003 		movt	r3, #:upper16:rlist
 600 001e DB69     		ldr	r3, [r3, #28]
 601 0020 0220     		movs	r0, #2
 602 0022 A360     		str	r3, [r4, #8]
 603 0024 FFF7FEFF 		bl	chSchGoSleepS
 604              	.LVL72:
 605              	.LBB26:
 606              		.loc 1 338 0
 607 0028 0023     		movs	r3, #0
 608              	.LVL73:
 609              	@ 338 "../../os/hal/src/spi.c" 1
 610 002a 83F31188 		msr     BASEPRI, r3
 611              	@ 0 "" 2
 612              	.LVL74:
 613              		.thumb
 614 002e 38BD     		pop	{r3, r4, r5, pc}
 615              	.LBE26:
 616              		.cfi_endproc
 617              	.LFE73:
 618              		.size	spiExchange, .-spiExchange
ARM GAS  /var/folders/dt/0wfd0knj7gs46m8vwfzktm600000gn/T//cc2px15A.s 			page 12


 619              		.section	.text.spiSend,"ax",%progbits
 620              		.align	2
 621              		.p2align 4,,15
 622              		.global	spiSend
 623              		.thumb
 624              		.thumb_func
 625              		.type	spiSend, %function
 626              	spiSend:
 627              	.LFB74:
 628              		.loc 1 357 0
 629              		.cfi_startproc
 630              		@ args = 0, pretend = 0, frame = 0
 631              		@ frame_needed = 0, uses_anonymous_args = 0
 632              	.LVL75:
 633 0000 10B5     		push	{r4, lr}
 634              	.LCFI10:
 635              		.cfi_def_cfa_offset 8
 636              		.cfi_offset 4, -8
 637              		.cfi_offset 14, -4
 638              	.LBB27:
 639              		.loc 1 361 0
 640 0002 2023     		movs	r3, #32
 641              	.LVL76:
 642              	.LBE27:
 643              		.loc 1 357 0
 644 0004 0446     		mov	r4, r0
 645              	.LBB28:
 646              		.loc 1 361 0
 647              	@ 361 "../../os/hal/src/spi.c" 1
 648 0006 83F31188 		msr     BASEPRI, r3
 649              	@ 0 "" 2
 650              	.LVL77:
 651              		.thumb
 652              	.LBE28:
 653              		.loc 1 364 0
 654 000a 0323     		movs	r3, #3
 655              	.LVL78:
 656 000c 0370     		strb	r3, [r0, #0]
 657 000e FFF7FEFF 		bl	spi_lld_send
 658              	.LVL79:
 659              		.loc 1 365 0
 660 0012 40F20003 		movw	r3, #:lower16:rlist
 661 0016 C0F20003 		movt	r3, #:upper16:rlist
 662 001a DB69     		ldr	r3, [r3, #28]
 663 001c 0220     		movs	r0, #2
 664 001e A360     		str	r3, [r4, #8]
 665 0020 FFF7FEFF 		bl	chSchGoSleepS
 666              	.LVL80:
 667              	.LBB29:
 668              		.loc 1 366 0
 669 0024 0023     		movs	r3, #0
 670              	.LVL81:
 671              	@ 366 "../../os/hal/src/spi.c" 1
 672 0026 83F31188 		msr     BASEPRI, r3
 673              	@ 0 "" 2
 674              	.LVL82:
 675              		.thumb
ARM GAS  /var/folders/dt/0wfd0knj7gs46m8vwfzktm600000gn/T//cc2px15A.s 			page 13


 676 002a 10BD     		pop	{r4, pc}
 677              	.LBE29:
 678              		.cfi_endproc
 679              	.LFE74:
 680              		.size	spiSend, .-spiSend
 681 002c AFF30080 		.section	.text.spiReceive,"ax",%progbits
 682              		.align	2
 683              		.p2align 4,,15
 684              		.global	spiReceive
 685              		.thumb
 686              		.thumb_func
 687              		.type	spiReceive, %function
 688              	spiReceive:
 689              	.LFB75:
 690              		.loc 1 385 0
 691              		.cfi_startproc
 692              		@ args = 0, pretend = 0, frame = 0
 693              		@ frame_needed = 0, uses_anonymous_args = 0
 694              	.LVL83:
 695 0000 10B5     		push	{r4, lr}
 696              	.LCFI11:
 697              		.cfi_def_cfa_offset 8
 698              		.cfi_offset 4, -8
 699              		.cfi_offset 14, -4
 700              	.LBB30:
 701              		.loc 1 390 0
 702 0002 2023     		movs	r3, #32
 703              	.LVL84:
 704              	.LBE30:
 705              		.loc 1 385 0
 706 0004 0446     		mov	r4, r0
 707              	.LBB31:
 708              		.loc 1 390 0
 709              	@ 390 "../../os/hal/src/spi.c" 1
 710 0006 83F31188 		msr     BASEPRI, r3
 711              	@ 0 "" 2
 712              	.LVL85:
 713              		.thumb
 714              	.LBE31:
 715              		.loc 1 394 0
 716 000a 0323     		movs	r3, #3
 717              	.LVL86:
 718 000c 0370     		strb	r3, [r0, #0]
 719 000e FFF7FEFF 		bl	spi_lld_receive
 720              	.LVL87:
 721              		.loc 1 395 0
 722 0012 40F20003 		movw	r3, #:lower16:rlist
 723 0016 C0F20003 		movt	r3, #:upper16:rlist
 724 001a DB69     		ldr	r3, [r3, #28]
 725 001c 0220     		movs	r0, #2
 726 001e A360     		str	r3, [r4, #8]
 727 0020 FFF7FEFF 		bl	chSchGoSleepS
 728              	.LVL88:
 729              	.LBB32:
 730              		.loc 1 396 0
 731 0024 0023     		movs	r3, #0
 732              	.LVL89:
ARM GAS  /var/folders/dt/0wfd0knj7gs46m8vwfzktm600000gn/T//cc2px15A.s 			page 14


 733              	@ 396 "../../os/hal/src/spi.c" 1
 734 0026 83F31188 		msr     BASEPRI, r3
 735              	@ 0 "" 2
 736              	.LVL90:
 737              		.thumb
 738 002a 10BD     		pop	{r4, pc}
 739              	.LBE32:
 740              		.cfi_endproc
 741              	.LFE75:
 742              		.size	spiReceive, .-spiReceive
 743 002c AFF30080 		.section	.text.spiAcquireBus,"ax",%progbits
 744              		.align	2
 745              		.p2align 4,,15
 746              		.global	spiAcquireBus
 747              		.thumb
 748              		.thumb_func
 749              		.type	spiAcquireBus, %function
 750              	spiAcquireBus:
 751              	.LFB76:
 752              		.loc 1 412 0
 753              		.cfi_startproc
 754              		@ args = 0, pretend = 0, frame = 0
 755              		@ frame_needed = 0, uses_anonymous_args = 0
 756              		@ link register save eliminated.
 757              	.LVL91:
 758              		.loc 1 417 0
 759 0000 0C30     		adds	r0, r0, #12
 760              	.LVL92:
 761              		.loc 1 421 0
 762              		.loc 1 417 0
 763 0002 FFF7FEBF 		b	chMtxLock
 764              	.LVL93:
 765              		.cfi_endproc
 766              	.LFE76:
 767              		.size	spiAcquireBus, .-spiAcquireBus
 768 0006 00BFAFF3 		.section	.text.spiReleaseBus,"ax",%progbits
 768      0080AFF3 
 768      0080
 769              		.align	2
 770              		.p2align 4,,15
 771              		.global	spiReleaseBus
 772              		.thumb
 773              		.thumb_func
 774              		.type	spiReleaseBus, %function
 775              	spiReleaseBus:
 776              	.LFB77:
 777              		.loc 1 432 0
 778              		.cfi_startproc
 779              		@ args = 0, pretend = 0, frame = 0
 780              		@ frame_needed = 0, uses_anonymous_args = 0
 781              		@ link register save eliminated.
 782              	.LVL94:
 783              		.loc 1 442 0
 784              		.loc 1 438 0
 785 0000 FFF7FEBF 		b	chMtxUnlock
 786              	.LVL95:
 787              		.cfi_endproc
ARM GAS  /var/folders/dt/0wfd0knj7gs46m8vwfzktm600000gn/T//cc2px15A.s 			page 15


 788              	.LFE77:
 789              		.size	spiReleaseBus, .-spiReleaseBus
 790 0004 AFF30080 		.text
 790      AFF30080 
 790      AFF30080 
 791              	.Letext0:
 792              		.file 2 "/Users/toxygen/Applications/yagarto-4.7.2/bin/../lib/gcc/arm-none-eabi/4.7.2/include/stdd
 793              		.file 3 "/Users/toxygen/Applications/yagarto-4.7.2/bin/../lib/gcc/arm-none-eabi/4.7.2/../../../../
 794              		.file 4 "../../os/ports/GCC/ARMCMx/chtypes.h"
 795              		.file 5 "../../os/kernel/include/chlists.h"
 796              		.file 6 "../../os/kernel/include/chthreads.h"
 797              		.file 7 "../../os/ports/GCC/ARMCMx/chcore_v7m.h"
 798              		.file 8 "../../os/kernel/include/chschd.h"
 799              		.file 9 "../../os/kernel/include/chmtx.h"
 800              		.file 10 "../../os/hal/platforms/STM32F1xx/stm32f10x.h"
 801              		.file 11 "../../os/hal/platforms/STM32F1xx/stm32_dma.h"
 802              		.file 12 "../../os/hal/platforms/STM32/GPIOv1/pal_lld.h"
 803              		.file 13 "../../os/hal/include/spi.h"
 804              		.file 14 "../../os/hal/platforms/STM32/spi_lld.h"
 805              		.file 15 "../../os/ports/common/ARMCMx/CMSIS/include/core_cm3.h"