ARM GAS  /var/folders/dt/0wfd0knj7gs46m8vwfzktm600000gn/T//ccosKjmj.s 			page 1


   1              		.syntax unified
   2              		.cpu cortex-m3
   3              		.fpu softvfp
   4              		.eabi_attribute 20, 1
   5              		.eabi_attribute 21, 1
   6              		.eabi_attribute 23, 3
   7              		.eabi_attribute 24, 1
   8              		.eabi_attribute 25, 1
   9              		.eabi_attribute 26, 1
  10              		.eabi_attribute 30, 2
  11              		.eabi_attribute 34, 1
  12              		.eabi_attribute 18, 4
  13              		.thumb
  14              		.file	"stm32_dma.c"
  15              		.text
  16              	.Ltext0:
  17              		.cfi_sections	.debug_frame
  18              		.section	.text.Vector6C,"ax",%progbits
  19              		.align	2
  20              		.p2align 4,,15
  21              		.global	Vector6C
  22              		.thumb
  23              		.thumb_func
  24              		.type	Vector6C, %function
  25              	Vector6C:
  26              	.LFB62:
  27              		.file 1 "../../os/hal/platforms/STM32F1xx/stm32_dma.c"
  28              		.loc 1 137 0
  29              		.cfi_startproc
  30              		@ args = 0, pretend = 0, frame = 0
  31              		@ frame_needed = 0, uses_anonymous_args = 0
  32              		.loc 1 142 0
  33 0000 0023     		movs	r3, #0
  34              		.loc 1 144 0
  35 0002 0848     		ldr	r0, .L7
  36              		.loc 1 142 0
  37 0004 C4F20203 		movt	r3, 16386
  38 0008 1968     		ldr	r1, [r3, #0]
  39              		.loc 1 144 0
  40 000a 0268     		ldr	r2, [r0, #0]
  41              		.loc 1 137 0
  42 000c 10B5     		push	{r4, lr}
  43              	.LCFI0:
  44              		.cfi_def_cfa_offset 8
  45              		.cfi_offset 4, -8
  46              		.cfi_offset 14, -4
  47              		.loc 1 143 0
  48 000e 0F24     		movs	r4, #15
  49              		.loc 1 142 0
  50 0010 01F00F01 		and	r1, r1, #15
  51              	.LVL0:
  52              		.loc 1 143 0
  53 0014 5C60     		str	r4, [r3, #4]
  54              		.loc 1 144 0
  55 0016 0AB1     		cbz	r2, .L2
  56              		.loc 1 145 0
  57 0018 4068     		ldr	r0, [r0, #4]
ARM GAS  /var/folders/dt/0wfd0knj7gs46m8vwfzktm600000gn/T//ccosKjmj.s 			page 2


  58 001a 9047     		blx	r2
  59              	.LVL1:
  60              	.L2:
  61              		.loc 1 148 0
  62 001c BDE81040 		pop	{r4, lr}
  63              		.loc 1 147 0
  64 0020 FFF7FEBF 		b	_port_irq_epilogue
  65              	.LVL2:
  66              	.L8:
  67              		.align	2
  68              	.L7:
  69 0024 00000000 		.word	.LANCHOR0
  70              		.cfi_endproc
  71              	.LFE62:
  72              		.size	Vector6C, .-Vector6C
  73 0028 AFF30080 		.section	.text.Vector70,"ax",%progbits
  73      AFF30080 
  74              		.align	2
  75              		.p2align 4,,15
  76              		.global	Vector70
  77              		.thumb
  78              		.thumb_func
  79              		.type	Vector70, %function
  80              	Vector70:
  81              	.LFB63:
  82              		.loc 1 155 0
  83              		.cfi_startproc
  84              		@ args = 0, pretend = 0, frame = 0
  85              		@ frame_needed = 0, uses_anonymous_args = 0
  86              		.loc 1 160 0
  87 0000 0023     		movs	r3, #0
  88              		.loc 1 162 0
  89 0002 0848     		ldr	r0, .L14
  90              		.loc 1 160 0
  91 0004 C4F20203 		movt	r3, 16386
  92 0008 1968     		ldr	r1, [r3, #0]
  93              		.loc 1 162 0
  94 000a 8268     		ldr	r2, [r0, #8]
  95              		.loc 1 155 0
  96 000c 10B5     		push	{r4, lr}
  97              	.LCFI1:
  98              		.cfi_def_cfa_offset 8
  99              		.cfi_offset 4, -8
 100              		.cfi_offset 14, -4
 101              		.loc 1 161 0
 102 000e F024     		movs	r4, #240
 103              		.loc 1 160 0
 104 0010 C1F30311 		ubfx	r1, r1, #4, #4
 105              	.LVL3:
 106              		.loc 1 161 0
 107 0014 5C60     		str	r4, [r3, #4]
 108              		.loc 1 162 0
 109 0016 0AB1     		cbz	r2, .L10
 110              		.loc 1 163 0
 111 0018 C068     		ldr	r0, [r0, #12]
 112 001a 9047     		blx	r2
 113              	.LVL4:
ARM GAS  /var/folders/dt/0wfd0knj7gs46m8vwfzktm600000gn/T//ccosKjmj.s 			page 3


 114              	.L10:
 115              		.loc 1 166 0
 116 001c BDE81040 		pop	{r4, lr}
 117              		.loc 1 165 0
 118 0020 FFF7FEBF 		b	_port_irq_epilogue
 119              	.LVL5:
 120              	.L15:
 121              		.align	2
 122              	.L14:
 123 0024 00000000 		.word	.LANCHOR0
 124              		.cfi_endproc
 125              	.LFE63:
 126              		.size	Vector70, .-Vector70
 127 0028 AFF30080 		.section	.text.Vector74,"ax",%progbits
 127      AFF30080 
 128              		.align	2
 129              		.p2align 4,,15
 130              		.global	Vector74
 131              		.thumb
 132              		.thumb_func
 133              		.type	Vector74, %function
 134              	Vector74:
 135              	.LFB64:
 136              		.loc 1 173 0
 137              		.cfi_startproc
 138              		@ args = 0, pretend = 0, frame = 0
 139              		@ frame_needed = 0, uses_anonymous_args = 0
 140              		.loc 1 178 0
 141 0000 0023     		movs	r3, #0
 142              		.loc 1 180 0
 143 0002 0948     		ldr	r0, .L21
 144              		.loc 1 178 0
 145 0004 C4F20203 		movt	r3, 16386
 146 0008 1968     		ldr	r1, [r3, #0]
 147              		.loc 1 180 0
 148 000a 0269     		ldr	r2, [r0, #16]
 149              		.loc 1 173 0
 150 000c 10B5     		push	{r4, lr}
 151              	.LCFI2:
 152              		.cfi_def_cfa_offset 8
 153              		.cfi_offset 4, -8
 154              		.cfi_offset 14, -4
 155              		.loc 1 179 0
 156 000e 4FF47064 		mov	r4, #3840
 157              		.loc 1 178 0
 158 0012 C1F30321 		ubfx	r1, r1, #8, #4
 159              	.LVL6:
 160              		.loc 1 179 0
 161 0016 5C60     		str	r4, [r3, #4]
 162              		.loc 1 180 0
 163 0018 0AB1     		cbz	r2, .L17
 164              		.loc 1 181 0
 165 001a 4069     		ldr	r0, [r0, #20]
 166 001c 9047     		blx	r2
 167              	.LVL7:
 168              	.L17:
 169              		.loc 1 184 0
ARM GAS  /var/folders/dt/0wfd0knj7gs46m8vwfzktm600000gn/T//ccosKjmj.s 			page 4


 170 001e BDE81040 		pop	{r4, lr}
 171              		.loc 1 183 0
 172 0022 FFF7FEBF 		b	_port_irq_epilogue
 173              	.LVL8:
 174              	.L22:
 175 0026 00BF     		.align	2
 176              	.L21:
 177 0028 00000000 		.word	.LANCHOR0
 178              		.cfi_endproc
 179              	.LFE64:
 180              		.size	Vector74, .-Vector74
 181 002c AFF30080 		.section	.text.Vector78,"ax",%progbits
 182              		.align	2
 183              		.p2align 4,,15
 184              		.global	Vector78
 185              		.thumb
 186              		.thumb_func
 187              		.type	Vector78, %function
 188              	Vector78:
 189              	.LFB65:
 190              		.loc 1 191 0
 191              		.cfi_startproc
 192              		@ args = 0, pretend = 0, frame = 0
 193              		@ frame_needed = 0, uses_anonymous_args = 0
 194              		.loc 1 196 0
 195 0000 0023     		movs	r3, #0
 196              		.loc 1 198 0
 197 0002 0948     		ldr	r0, .L28
 198              		.loc 1 196 0
 199 0004 C4F20203 		movt	r3, 16386
 200 0008 1968     		ldr	r1, [r3, #0]
 201              		.loc 1 198 0
 202 000a 8269     		ldr	r2, [r0, #24]
 203              		.loc 1 191 0
 204 000c 10B5     		push	{r4, lr}
 205              	.LCFI3:
 206              		.cfi_def_cfa_offset 8
 207              		.cfi_offset 4, -8
 208              		.cfi_offset 14, -4
 209              		.loc 1 197 0
 210 000e 4FF47044 		mov	r4, #61440
 211              		.loc 1 196 0
 212 0012 C1F30331 		ubfx	r1, r1, #12, #4
 213              	.LVL9:
 214              		.loc 1 197 0
 215 0016 5C60     		str	r4, [r3, #4]
 216              		.loc 1 198 0
 217 0018 0AB1     		cbz	r2, .L24
 218              		.loc 1 199 0
 219 001a C069     		ldr	r0, [r0, #28]
 220 001c 9047     		blx	r2
 221              	.LVL10:
 222              	.L24:
 223              		.loc 1 202 0
 224 001e BDE81040 		pop	{r4, lr}
 225              		.loc 1 201 0
 226 0022 FFF7FEBF 		b	_port_irq_epilogue
ARM GAS  /var/folders/dt/0wfd0knj7gs46m8vwfzktm600000gn/T//ccosKjmj.s 			page 5


 227              	.LVL11:
 228              	.L29:
 229 0026 00BF     		.align	2
 230              	.L28:
 231 0028 00000000 		.word	.LANCHOR0
 232              		.cfi_endproc
 233              	.LFE65:
 234              		.size	Vector78, .-Vector78
 235 002c AFF30080 		.section	.text.Vector7C,"ax",%progbits
 236              		.align	2
 237              		.p2align 4,,15
 238              		.global	Vector7C
 239              		.thumb
 240              		.thumb_func
 241              		.type	Vector7C, %function
 242              	Vector7C:
 243              	.LFB66:
 244              		.loc 1 209 0
 245              		.cfi_startproc
 246              		@ args = 0, pretend = 0, frame = 0
 247              		@ frame_needed = 0, uses_anonymous_args = 0
 248              		.loc 1 214 0
 249 0000 0023     		movs	r3, #0
 250              		.loc 1 216 0
 251 0002 0948     		ldr	r0, .L35
 252              		.loc 1 214 0
 253 0004 C4F20203 		movt	r3, 16386
 254 0008 1968     		ldr	r1, [r3, #0]
 255              		.loc 1 216 0
 256 000a 026A     		ldr	r2, [r0, #32]
 257              		.loc 1 209 0
 258 000c 10B5     		push	{r4, lr}
 259              	.LCFI4:
 260              		.cfi_def_cfa_offset 8
 261              		.cfi_offset 4, -8
 262              		.cfi_offset 14, -4
 263              		.loc 1 215 0
 264 000e 4FF47024 		mov	r4, #983040
 265              		.loc 1 214 0
 266 0012 C1F30341 		ubfx	r1, r1, #16, #4
 267              	.LVL12:
 268              		.loc 1 215 0
 269 0016 5C60     		str	r4, [r3, #4]
 270              		.loc 1 216 0
 271 0018 0AB1     		cbz	r2, .L31
 272              		.loc 1 217 0
 273 001a 406A     		ldr	r0, [r0, #36]
 274 001c 9047     		blx	r2
 275              	.LVL13:
 276              	.L31:
 277              		.loc 1 220 0
 278 001e BDE81040 		pop	{r4, lr}
 279              		.loc 1 219 0
 280 0022 FFF7FEBF 		b	_port_irq_epilogue
 281              	.LVL14:
 282              	.L36:
 283 0026 00BF     		.align	2
ARM GAS  /var/folders/dt/0wfd0knj7gs46m8vwfzktm600000gn/T//ccosKjmj.s 			page 6


 284              	.L35:
 285 0028 00000000 		.word	.LANCHOR0
 286              		.cfi_endproc
 287              	.LFE66:
 288              		.size	Vector7C, .-Vector7C
 289 002c AFF30080 		.section	.text.Vector80,"ax",%progbits
 290              		.align	2
 291              		.p2align 4,,15
 292              		.global	Vector80
 293              		.thumb
 294              		.thumb_func
 295              		.type	Vector80, %function
 296              	Vector80:
 297              	.LFB67:
 298              		.loc 1 227 0
 299              		.cfi_startproc
 300              		@ args = 0, pretend = 0, frame = 0
 301              		@ frame_needed = 0, uses_anonymous_args = 0
 302              		.loc 1 232 0
 303 0000 0023     		movs	r3, #0
 304              		.loc 1 234 0
 305 0002 0948     		ldr	r0, .L42
 306              		.loc 1 232 0
 307 0004 C4F20203 		movt	r3, 16386
 308 0008 1968     		ldr	r1, [r3, #0]
 309              		.loc 1 234 0
 310 000a 826A     		ldr	r2, [r0, #40]
 311              		.loc 1 227 0
 312 000c 10B5     		push	{r4, lr}
 313              	.LCFI5:
 314              		.cfi_def_cfa_offset 8
 315              		.cfi_offset 4, -8
 316              		.cfi_offset 14, -4
 317              		.loc 1 233 0
 318 000e 4FF47004 		mov	r4, #15728640
 319              		.loc 1 232 0
 320 0012 C1F30351 		ubfx	r1, r1, #20, #4
 321              	.LVL15:
 322              		.loc 1 233 0
 323 0016 5C60     		str	r4, [r3, #4]
 324              		.loc 1 234 0
 325 0018 0AB1     		cbz	r2, .L38
 326              		.loc 1 235 0
 327 001a C06A     		ldr	r0, [r0, #44]
 328 001c 9047     		blx	r2
 329              	.LVL16:
 330              	.L38:
 331              		.loc 1 238 0
 332 001e BDE81040 		pop	{r4, lr}
 333              		.loc 1 237 0
 334 0022 FFF7FEBF 		b	_port_irq_epilogue
 335              	.LVL17:
 336              	.L43:
 337 0026 00BF     		.align	2
 338              	.L42:
 339 0028 00000000 		.word	.LANCHOR0
 340              		.cfi_endproc
ARM GAS  /var/folders/dt/0wfd0knj7gs46m8vwfzktm600000gn/T//ccosKjmj.s 			page 7


 341              	.LFE67:
 342              		.size	Vector80, .-Vector80
 343 002c AFF30080 		.section	.text.Vector84,"ax",%progbits
 344              		.align	2
 345              		.p2align 4,,15
 346              		.global	Vector84
 347              		.thumb
 348              		.thumb_func
 349              		.type	Vector84, %function
 350              	Vector84:
 351              	.LFB68:
 352              		.loc 1 245 0
 353              		.cfi_startproc
 354              		@ args = 0, pretend = 0, frame = 0
 355              		@ frame_needed = 0, uses_anonymous_args = 0
 356              		.loc 1 250 0
 357 0000 0023     		movs	r3, #0
 358              		.loc 1 252 0
 359 0002 0948     		ldr	r0, .L49
 360              		.loc 1 250 0
 361 0004 C4F20203 		movt	r3, 16386
 362 0008 1968     		ldr	r1, [r3, #0]
 363              		.loc 1 252 0
 364 000a 026B     		ldr	r2, [r0, #48]
 365              		.loc 1 245 0
 366 000c 10B5     		push	{r4, lr}
 367              	.LCFI6:
 368              		.cfi_def_cfa_offset 8
 369              		.cfi_offset 4, -8
 370              		.cfi_offset 14, -4
 371              		.loc 1 251 0
 372 000e 4FF07064 		mov	r4, #251658240
 373              		.loc 1 250 0
 374 0012 C1F30361 		ubfx	r1, r1, #24, #4
 375              	.LVL18:
 376              		.loc 1 251 0
 377 0016 5C60     		str	r4, [r3, #4]
 378              		.loc 1 252 0
 379 0018 0AB1     		cbz	r2, .L45
 380              		.loc 1 253 0
 381 001a 406B     		ldr	r0, [r0, #52]
 382 001c 9047     		blx	r2
 383              	.LVL19:
 384              	.L45:
 385              		.loc 1 256 0
 386 001e BDE81040 		pop	{r4, lr}
 387              		.loc 1 255 0
 388 0022 FFF7FEBF 		b	_port_irq_epilogue
 389              	.LVL20:
 390              	.L50:
 391 0026 00BF     		.align	2
 392              	.L49:
 393 0028 00000000 		.word	.LANCHOR0
 394              		.cfi_endproc
 395              	.LFE68:
 396              		.size	Vector84, .-Vector84
 397 002c AFF30080 		.section	.text.Vector120,"ax",%progbits
ARM GAS  /var/folders/dt/0wfd0knj7gs46m8vwfzktm600000gn/T//ccosKjmj.s 			page 8


 398              		.align	2
 399              		.p2align 4,,15
 400              		.global	Vector120
 401              		.thumb
 402              		.thumb_func
 403              		.type	Vector120, %function
 404              	Vector120:
 405              	.LFB69:
 406              		.loc 1 264 0
 407              		.cfi_startproc
 408              		@ args = 0, pretend = 0, frame = 0
 409              		@ frame_needed = 0, uses_anonymous_args = 0
 410              		.loc 1 269 0
 411 0000 4FF48063 		mov	r3, #1024
 412              		.loc 1 271 0
 413 0004 0848     		ldr	r0, .L56
 414              		.loc 1 269 0
 415 0006 C4F20203 		movt	r3, 16386
 416 000a 1968     		ldr	r1, [r3, #0]
 417              		.loc 1 271 0
 418 000c 826B     		ldr	r2, [r0, #56]
 419              		.loc 1 264 0
 420 000e 10B5     		push	{r4, lr}
 421              	.LCFI7:
 422              		.cfi_def_cfa_offset 8
 423              		.cfi_offset 4, -8
 424              		.cfi_offset 14, -4
 425              		.loc 1 270 0
 426 0010 0F24     		movs	r4, #15
 427              		.loc 1 269 0
 428 0012 01F00F01 		and	r1, r1, #15
 429              	.LVL21:
 430              		.loc 1 270 0
 431 0016 5C60     		str	r4, [r3, #4]
 432              		.loc 1 271 0
 433 0018 0AB1     		cbz	r2, .L52
 434              		.loc 1 272 0
 435 001a C06B     		ldr	r0, [r0, #60]
 436 001c 9047     		blx	r2
 437              	.LVL22:
 438              	.L52:
 439              		.loc 1 275 0
 440 001e BDE81040 		pop	{r4, lr}
 441              		.loc 1 274 0
 442 0022 FFF7FEBF 		b	_port_irq_epilogue
 443              	.LVL23:
 444              	.L57:
 445 0026 00BF     		.align	2
 446              	.L56:
 447 0028 00000000 		.word	.LANCHOR0
 448              		.cfi_endproc
 449              	.LFE69:
 450              		.size	Vector120, .-Vector120
 451 002c AFF30080 		.section	.text.Vector124,"ax",%progbits
 452              		.align	2
 453              		.p2align 4,,15
 454              		.global	Vector124
ARM GAS  /var/folders/dt/0wfd0knj7gs46m8vwfzktm600000gn/T//ccosKjmj.s 			page 9


 455              		.thumb
 456              		.thumb_func
 457              		.type	Vector124, %function
 458              	Vector124:
 459              	.LFB70:
 460              		.loc 1 282 0
 461              		.cfi_startproc
 462              		@ args = 0, pretend = 0, frame = 0
 463              		@ frame_needed = 0, uses_anonymous_args = 0
 464              		.loc 1 287 0
 465 0000 4FF48063 		mov	r3, #1024
 466              		.loc 1 289 0
 467 0004 0848     		ldr	r0, .L63
 468              		.loc 1 287 0
 469 0006 C4F20203 		movt	r3, 16386
 470 000a 1968     		ldr	r1, [r3, #0]
 471              		.loc 1 289 0
 472 000c 026C     		ldr	r2, [r0, #64]
 473              		.loc 1 282 0
 474 000e 10B5     		push	{r4, lr}
 475              	.LCFI8:
 476              		.cfi_def_cfa_offset 8
 477              		.cfi_offset 4, -8
 478              		.cfi_offset 14, -4
 479              		.loc 1 288 0
 480 0010 F024     		movs	r4, #240
 481              		.loc 1 287 0
 482 0012 C1F30311 		ubfx	r1, r1, #4, #4
 483              	.LVL24:
 484              		.loc 1 288 0
 485 0016 5C60     		str	r4, [r3, #4]
 486              		.loc 1 289 0
 487 0018 0AB1     		cbz	r2, .L59
 488              		.loc 1 290 0
 489 001a 406C     		ldr	r0, [r0, #68]
 490 001c 9047     		blx	r2
 491              	.LVL25:
 492              	.L59:
 493              		.loc 1 293 0
 494 001e BDE81040 		pop	{r4, lr}
 495              		.loc 1 292 0
 496 0022 FFF7FEBF 		b	_port_irq_epilogue
 497              	.LVL26:
 498              	.L64:
 499 0026 00BF     		.align	2
 500              	.L63:
 501 0028 00000000 		.word	.LANCHOR0
 502              		.cfi_endproc
 503              	.LFE70:
 504              		.size	Vector124, .-Vector124
 505 002c AFF30080 		.section	.text.Vector128,"ax",%progbits
 506              		.align	2
 507              		.p2align 4,,15
 508              		.global	Vector128
 509              		.thumb
 510              		.thumb_func
 511              		.type	Vector128, %function
ARM GAS  /var/folders/dt/0wfd0knj7gs46m8vwfzktm600000gn/T//ccosKjmj.s 			page 10


 512              	Vector128:
 513              	.LFB71:
 514              		.loc 1 300 0
 515              		.cfi_startproc
 516              		@ args = 0, pretend = 0, frame = 0
 517              		@ frame_needed = 0, uses_anonymous_args = 0
 518              		.loc 1 305 0
 519 0000 4FF48063 		mov	r3, #1024
 520              		.loc 1 307 0
 521 0004 0848     		ldr	r0, .L70
 522              		.loc 1 305 0
 523 0006 C4F20203 		movt	r3, 16386
 524 000a 1968     		ldr	r1, [r3, #0]
 525              		.loc 1 307 0
 526 000c 826C     		ldr	r2, [r0, #72]
 527              		.loc 1 300 0
 528 000e 10B5     		push	{r4, lr}
 529              	.LCFI9:
 530              		.cfi_def_cfa_offset 8
 531              		.cfi_offset 4, -8
 532              		.cfi_offset 14, -4
 533              		.loc 1 306 0
 534 0010 4FF47064 		mov	r4, #3840
 535              		.loc 1 305 0
 536 0014 C1F30321 		ubfx	r1, r1, #8, #4
 537              	.LVL27:
 538              		.loc 1 306 0
 539 0018 5C60     		str	r4, [r3, #4]
 540              		.loc 1 307 0
 541 001a 0AB1     		cbz	r2, .L66
 542              		.loc 1 308 0
 543 001c C06C     		ldr	r0, [r0, #76]
 544 001e 9047     		blx	r2
 545              	.LVL28:
 546              	.L66:
 547              		.loc 1 311 0
 548 0020 BDE81040 		pop	{r4, lr}
 549              		.loc 1 310 0
 550 0024 FFF7FEBF 		b	_port_irq_epilogue
 551              	.LVL29:
 552              	.L71:
 553              		.align	2
 554              	.L70:
 555 0028 00000000 		.word	.LANCHOR0
 556              		.cfi_endproc
 557              	.LFE71:
 558              		.size	Vector128, .-Vector128
 559 002c AFF30080 		.section	.text.Vector12C,"ax",%progbits
 560              		.align	2
 561              		.p2align 4,,15
 562              		.global	Vector12C
 563              		.thumb
 564              		.thumb_func
 565              		.type	Vector12C, %function
 566              	Vector12C:
 567              	.LFB72:
 568              		.loc 1 357 0
ARM GAS  /var/folders/dt/0wfd0knj7gs46m8vwfzktm600000gn/T//ccosKjmj.s 			page 11


 569              		.cfi_startproc
 570              		@ args = 0, pretend = 0, frame = 0
 571              		@ frame_needed = 0, uses_anonymous_args = 0
 572              		.loc 1 363 0
 573 0000 4FF48063 		mov	r3, #1024
 574 0004 C4F20203 		movt	r3, 16386
 575 0008 1968     		ldr	r1, [r3, #0]
 576              		.loc 1 357 0
 577 000a 10B5     		push	{r4, lr}
 578              	.LCFI10:
 579              		.cfi_def_cfa_offset 8
 580              		.cfi_offset 4, -8
 581              		.cfi_offset 14, -4
 582              		.loc 1 363 0
 583 000c C1F30331 		ubfx	r1, r1, #12, #4
 584              	.LVL30:
 585              		.loc 1 364 0
 586 0010 39B1     		cbz	r1, .L74
 587              		.loc 1 366 0
 588 0012 0E48     		ldr	r0, .L85
 589              		.loc 1 365 0
 590 0014 4FF47044 		mov	r4, #61440
 591              		.loc 1 366 0
 592 0018 026D     		ldr	r2, [r0, #80]
 593              		.loc 1 365 0
 594 001a 5C60     		str	r4, [r3, #4]
 595              		.loc 1 366 0
 596 001c 0AB1     		cbz	r2, .L74
 597              		.loc 1 367 0
 598 001e 406D     		ldr	r0, [r0, #84]
 599 0020 9047     		blx	r2
 600              	.LVL31:
 601              	.L74:
 602              		.loc 1 371 0
 603 0022 4FF48063 		mov	r3, #1024
 604 0026 C4F20203 		movt	r3, 16386
 605 002a 1968     		ldr	r1, [r3, #0]
 606 002c C1F30341 		ubfx	r1, r1, #16, #4
 607              	.LVL32:
 608              		.loc 1 372 0
 609 0030 39B1     		cbz	r1, .L77
 610              		.loc 1 374 0
 611 0032 0648     		ldr	r0, .L85
 612              		.loc 1 373 0
 613 0034 4FF47024 		mov	r4, #983040
 614              		.loc 1 374 0
 615 0038 826D     		ldr	r2, [r0, #88]
 616              		.loc 1 373 0
 617 003a 5C60     		str	r4, [r3, #4]
 618              		.loc 1 374 0
 619 003c 0AB1     		cbz	r2, .L77
 620              		.loc 1 375 0
 621 003e C06D     		ldr	r0, [r0, #92]
 622 0040 9047     		blx	r2
 623              	.LVL33:
 624              	.L77:
 625              		.loc 1 379 0
ARM GAS  /var/folders/dt/0wfd0knj7gs46m8vwfzktm600000gn/T//ccosKjmj.s 			page 12


 626 0042 BDE81040 		pop	{r4, lr}
 627              		.loc 1 378 0
 628 0046 FFF7FEBF 		b	_port_irq_epilogue
 629              	.LVL34:
 630              	.L86:
 631 004a 00BF     		.align	2
 632              	.L85:
 633 004c 00000000 		.word	.LANCHOR0
 634              		.cfi_endproc
 635              	.LFE72:
 636              		.size	Vector12C, .-Vector12C
 637              		.section	.text.dmaInit,"ax",%progbits
 638              		.align	2
 639              		.p2align 4,,15
 640              		.global	dmaInit
 641              		.thumb
 642              		.thumb_func
 643              		.type	dmaInit, %function
 644              	dmaInit:
 645              	.LFB73:
 646              		.loc 1 392 0
 647              		.cfi_startproc
 648              		@ args = 0, pretend = 0, frame = 0
 649              		@ frame_needed = 0, uses_anonymous_args = 0
 650              		@ link register save eliminated.
 651              		.loc 1 395 0
 652 0000 0D49     		ldr	r1, .L90
 653              		.loc 1 392 0
 654 0002 30B4     		push	{r4, r5}
 655              	.LCFI11:
 656              		.cfi_def_cfa_offset 8
 657              		.cfi_offset 4, -8
 658              		.cfi_offset 5, -4
 659              		.loc 1 395 0
 660 0004 0023     		movs	r3, #0
 661 0006 0D4D     		ldr	r5, .L90+4
 662 0008 0D4C     		ldr	r4, .L90+8
 663 000a 0B60     		str	r3, [r1, #0]
 664              	.LVL35:
 665 000c 1A46     		mov	r2, r3
 666              		.loc 1 397 0
 667 000e 1946     		mov	r1, r3
 668              	.LVL36:
 669              	.L88:
 670              		.loc 1 397 0 is_stmt 0 discriminator 2
 671 0010 E858     		ldr	r0, [r5, r3]
 672 0012 0C33     		adds	r3, r3, #12
 673 0014 0160     		str	r1, [r0, #0]
 674              		.loc 1 398 0 is_stmt 1 discriminator 2
 675 0016 A150     		str	r1, [r4, r2]
 676 0018 0832     		adds	r2, r2, #8
 677              		.loc 1 396 0 discriminator 2
 678 001a 902B     		cmp	r3, #144
 679 001c F8D1     		bne	.L88
 680              		.loc 1 400 0
 681 001e 0021     		movs	r1, #0
 682              		.loc 1 402 0
ARM GAS  /var/folders/dt/0wfd0knj7gs46m8vwfzktm600000gn/T//ccosKjmj.s 			page 13


 683 0020 4FF48063 		mov	r3, #1024
 684              		.loc 1 400 0
 685 0024 4FF0FF32 		mov	r2, #-1
 686 0028 C4F20201 		movt	r1, 16386
 687              		.loc 1 402 0
 688 002c C4F20203 		movt	r3, 16386
 689              		.loc 1 400 0
 690 0030 4A60     		str	r2, [r1, #4]
 691              		.loc 1 402 0
 692 0032 5A60     		str	r2, [r3, #4]
 693              		.loc 1 404 0
 694 0034 30BC     		pop	{r4, r5}
 695 0036 7047     		bx	lr
 696              	.L91:
 697              		.align	2
 698              	.L90:
 699 0038 00000000 		.word	.LANCHOR1
 700 003c 00000000 		.word	.LANCHOR2
 701 0040 00000000 		.word	.LANCHOR0
 702              		.cfi_endproc
 703              	.LFE73:
 704              		.size	dmaInit, .-dmaInit
 705 0044 AFF30080 		.section	.text.dmaStreamAllocate,"ax",%progbits
 705      AFF30080 
 705      AFF30080 
 706              		.align	2
 707              		.p2align 4,,15
 708              		.global	dmaStreamAllocate
 709              		.thumb
 710              		.thumb_func
 711              		.type	dmaStreamAllocate, %function
 712              	dmaStreamAllocate:
 713              	.LFB74:
 714              		.loc 1 433 0
 715              		.cfi_startproc
 716              		@ args = 0, pretend = 0, frame = 0
 717              		@ frame_needed = 0, uses_anonymous_args = 0
 718              	.LVL37:
 719 0000 F8B5     		push	{r3, r4, r5, r6, r7, lr}
 720              	.LCFI12:
 721              		.cfi_def_cfa_offset 24
 722              		.cfi_offset 3, -24
 723              		.cfi_offset 4, -20
 724              		.cfi_offset 5, -16
 725              		.cfi_offset 6, -12
 726              		.cfi_offset 7, -8
 727              		.cfi_offset 14, -4
 728              		.loc 1 438 0
 729 0002 447A     		ldrb	r4, [r0, #9]	@ zero_extendqisi2
 730 0004 4FF0010C 		mov	ip, #1
 731 0008 0CFA04F6 		lsl	r6, ip, r4
 732 000c 1E4D     		ldr	r5, .L104
 733 000e 2F68     		ldr	r7, [r5, #0]
 734 0010 3E42     		tst	r6, r7
 735 0012 34D1     		bne	.L96
 736              		.loc 1 442 0
 737 0014 DFF874C0 		ldr	ip, .L104+4
ARM GAS  /var/folders/dt/0wfd0knj7gs46m8vwfzktm600000gn/T//ccosKjmj.s 			page 14


 738              		.loc 1 444 0
 739 0018 3E43     		orrs	r6, r6, r7
 740              		.loc 1 443 0
 741 001a 0CEBC407 		add	r7, ip, r4, lsl #3
 742 001e 7B60     		str	r3, [r7, #4]
 743              		.loc 1 447 0
 744 0020 7306     		lsls	r3, r6, #25
 745              	.LVL38:
 746              		.loc 1 448 0
 747 0022 1CBF     		itt	ne
 748 0024 4FF48053 		movne	r3, #4096
 749 0028 C4F20203 		movtne	r3, 16386
 750              		.loc 1 444 0
 751 002c 2E60     		str	r6, [r5, #0]
 752              		.loc 1 442 0
 753 002e 4CF83420 		str	r2, [ip, r4, lsl #3]
 754              		.loc 1 448 0
 755 0032 18BF     		it	ne
 756 0034 5C69     		ldrne	r4, [r3, #20]
 757              		.loc 1 455 0
 758 0036 4568     		ldr	r5, [r0, #4]
 759              		.loc 1 448 0
 760 0038 1CBF     		itt	ne
 761 003a 44F00104 		orrne	r4, r4, #1
 762 003e 5C61     		strne	r4, [r3, #20]
 763              		.loc 1 450 0
 764 0040 16F4786F 		tst	r6, #3968
 765              		.loc 1 451 0
 766 0044 1FBF     		itttt	ne
 767 0046 4FF48053 		movne	r3, #4096
 768 004a C4F20203 		movtne	r3, 16386
 769 004e 5C69     		ldrne	r4, [r3, #20]
 770 0050 44F00204 		orrne	r4, r4, #2
 771 0054 18BF     		it	ne
 772 0056 5C61     		strne	r4, [r3, #20]
 773              		.loc 1 455 0
 774 0058 0368     		ldr	r3, [r0, #0]
 775 005a 0F27     		movs	r7, #15
 776              	.LVL39:
 777 005c 1C68     		ldr	r4, [r3, #0]
 778 005e 24F00104 		bic	r4, r4, #1
 779 0062 1C60     		str	r4, [r3, #0]
 780 0064 067A     		ldrb	r6, [r0, #8]	@ zero_extendqisi2
 781              		.loc 1 456 0
 782 0066 0024     		movs	r4, #0
 783              		.loc 1 455 0
 784 0068 07FA06F6 		lsl	r6, r7, r6
 785 006c 2E60     		str	r6, [r5, #0]
 786              		.loc 1 456 0
 787 006e 1C60     		str	r4, [r3, #0]
 788              		.loc 1 459 0
 789 0070 3AB1     		cbz	r2, .L97
 790              		.loc 1 460 0
 791 0072 807A     		ldrb	r0, [r0, #10]	@ zero_extendqisi2
 792              	.LVL40:
 793 0074 0901     		lsls	r1, r1, #4
 794              	.LVL41:
ARM GAS  /var/folders/dt/0wfd0knj7gs46m8vwfzktm600000gn/T//ccosKjmj.s 			page 15


 795 0076 FFF7FEFF 		bl	nvicEnableVector
 796              	.LVL42:
 797              		.loc 1 462 0
 798 007a 2046     		mov	r0, r4
 799 007c F8BD     		pop	{r3, r4, r5, r6, r7, pc}
 800              	.LVL43:
 801              	.L96:
 802              		.loc 1 439 0
 803 007e 6046     		mov	r0, ip
 804              	.LVL44:
 805 0080 F8BD     		pop	{r3, r4, r5, r6, r7, pc}
 806              	.LVL45:
 807              	.L97:
 808              		.loc 1 462 0
 809 0082 1046     		mov	r0, r2
 810              	.LVL46:
 811              		.loc 1 463 0
 812 0084 F8BD     		pop	{r3, r4, r5, r6, r7, pc}
 813              	.L105:
 814 0086 00BF     		.align	2
 815              	.L104:
 816 0088 00000000 		.word	.LANCHOR1
 817 008c 00000000 		.word	.LANCHOR0
 818              		.cfi_endproc
 819              	.LFE74:
 820              		.size	dmaStreamAllocate, .-dmaStreamAllocate
 821              		.section	.text.dmaStreamRelease,"ax",%progbits
 822              		.align	2
 823              		.p2align 4,,15
 824              		.global	dmaStreamRelease
 825              		.thumb
 826              		.thumb_func
 827              		.type	dmaStreamRelease, %function
 828              	dmaStreamRelease:
 829              	.LFB75:
 830              		.loc 1 478 0
 831              		.cfi_startproc
 832              		@ args = 0, pretend = 0, frame = 0
 833              		@ frame_needed = 0, uses_anonymous_args = 0
 834              	.LVL47:
 835 0000 10B5     		push	{r4, lr}
 836              	.LCFI13:
 837              		.cfi_def_cfa_offset 8
 838              		.cfi_offset 4, -8
 839              		.cfi_offset 14, -4
 840              		.loc 1 478 0
 841 0002 0446     		mov	r4, r0
 842              		.loc 1 487 0
 843 0004 807A     		ldrb	r0, [r0, #10]	@ zero_extendqisi2
 844              	.LVL48:
 845 0006 FFF7FEFF 		bl	nvicDisableVector
 846              	.LVL49:
 847              		.loc 1 490 0
 848 000a 637A     		ldrb	r3, [r4, #9]	@ zero_extendqisi2
 849 000c 0122     		movs	r2, #1
 850 000e 02FA03F3 		lsl	r3, r2, r3
 851 0012 0E4A     		ldr	r2, .L109
ARM GAS  /var/folders/dt/0wfd0knj7gs46m8vwfzktm600000gn/T//ccosKjmj.s 			page 16


 852 0014 1168     		ldr	r1, [r2, #0]
 853 0016 21EA0303 		bic	r3, r1, r3
 854 001a 1360     		str	r3, [r2, #0]
 855              		.loc 1 493 0
 856 001c 5A06     		lsls	r2, r3, #25
 857              		.loc 1 494 0
 858 001e 01BF     		itttt	eq
 859 0020 4FF48052 		moveq	r2, #4096
 860 0024 C4F20202 		movteq	r2, 16386
 861 0028 5169     		ldreq	r1, [r2, #20]
 862 002a 21F00101 		biceq	r1, r1, #1
 863 002e 08BF     		it	eq
 864 0030 5161     		streq	r1, [r2, #20]
 865              		.loc 1 496 0
 866 0032 13F4786F 		tst	r3, #3968
 867              		.loc 1 497 0
 868 0036 01BF     		itttt	eq
 869 0038 4FF48053 		moveq	r3, #4096
 870 003c C4F20203 		movteq	r3, 16386
 871 0040 5A69     		ldreq	r2, [r3, #20]
 872 0042 22F00202 		biceq	r2, r2, #2
 873 0046 08BF     		it	eq
 874 0048 5A61     		streq	r2, [r3, #20]
 875 004a 10BD     		pop	{r4, pc}
 876              	.L110:
 877              		.align	2
 878              	.L109:
 879 004c 00000000 		.word	.LANCHOR1
 880              		.cfi_endproc
 881              	.LFE75:
 882              		.size	dmaStreamRelease, .-dmaStreamRelease
 883              		.global	_stm32_dma_streams
 884              		.section	.bss.dma_isr_redir,"aw",%nobits
 885              		.align	2
 886              		.set	.LANCHOR0,. + 0
 887              		.type	dma_isr_redir, %object
 888              		.size	dma_isr_redir, 96
 889              	dma_isr_redir:
 890 0000 00000000 		.space	96
 890      00000000 
 890      00000000 
 890      00000000 
 890      00000000 
 891              		.section	.rodata._stm32_dma_streams,"a",%progbits
 892              		.align	2
 893              		.set	.LANCHOR2,. + 0
 894              		.type	_stm32_dma_streams, %object
 895              		.size	_stm32_dma_streams, 144
 896              	_stm32_dma_streams:
 897 0000 08000240 		.word	1073872904
 898 0004 04000240 		.word	1073872900
 899 0008 00       		.byte	0
 900 0009 00       		.byte	0
 901 000a 0B       		.byte	11
 902 000b 00       		.space	1
 903 000c 1C000240 		.word	1073872924
 904 0010 04000240 		.word	1073872900
ARM GAS  /var/folders/dt/0wfd0knj7gs46m8vwfzktm600000gn/T//ccosKjmj.s 			page 17


 905 0014 04       		.byte	4
 906 0015 01       		.byte	1
 907 0016 0C       		.byte	12
 908 0017 00       		.space	1
 909 0018 30000240 		.word	1073872944
 910 001c 04000240 		.word	1073872900
 911 0020 08       		.byte	8
 912 0021 02       		.byte	2
 913 0022 0D       		.byte	13
 914 0023 00       		.space	1
 915 0024 44000240 		.word	1073872964
 916 0028 04000240 		.word	1073872900
 917 002c 0C       		.byte	12
 918 002d 03       		.byte	3
 919 002e 0E       		.byte	14
 920 002f 00       		.space	1
 921 0030 58000240 		.word	1073872984
 922 0034 04000240 		.word	1073872900
 923 0038 10       		.byte	16
 924 0039 04       		.byte	4
 925 003a 0F       		.byte	15
 926 003b 00       		.space	1
 927 003c 6C000240 		.word	1073873004
 928 0040 04000240 		.word	1073872900
 929 0044 14       		.byte	20
 930 0045 05       		.byte	5
 931 0046 10       		.byte	16
 932 0047 00       		.space	1
 933 0048 80000240 		.word	1073873024
 934 004c 04000240 		.word	1073872900
 935 0050 18       		.byte	24
 936 0051 06       		.byte	6
 937 0052 11       		.byte	17
 938 0053 00       		.space	1
 939 0054 08040240 		.word	1073873928
 940 0058 04040240 		.word	1073873924
 941 005c 00       		.byte	0
 942 005d 07       		.byte	7
 943 005e 38       		.byte	56
 944 005f 00       		.space	1
 945 0060 1C040240 		.word	1073873948
 946 0064 04040240 		.word	1073873924
 947 0068 04       		.byte	4
 948 0069 08       		.byte	8
 949 006a 39       		.byte	57
 950 006b 00       		.space	1
 951 006c 30040240 		.word	1073873968
 952 0070 04040240 		.word	1073873924
 953 0074 08       		.byte	8
 954 0075 09       		.byte	9
 955 0076 3A       		.byte	58
 956 0077 00       		.space	1
 957 0078 44040240 		.word	1073873988
 958 007c 04040240 		.word	1073873924
 959 0080 0C       		.byte	12
 960 0081 0A       		.byte	10
 961 0082 3B       		.byte	59
ARM GAS  /var/folders/dt/0wfd0knj7gs46m8vwfzktm600000gn/T//ccosKjmj.s 			page 18


 962 0083 00       		.space	1
 963 0084 58040240 		.word	1073874008
 964 0088 04040240 		.word	1073873924
 965 008c 10       		.byte	16
 966 008d 0B       		.byte	11
 967 008e 3B       		.byte	59
 968 008f 00       		.space	1
 969              		.section	.bss.dma_streams_mask,"aw",%nobits
 970              		.align	2
 971              		.set	.LANCHOR1,. + 0
 972              		.type	dma_streams_mask, %object
 973              		.size	dma_streams_mask, 4
 974              	dma_streams_mask:
 975 0000 00000000 		.space	4
 976              		.text
 977              	.Letext0:
 978              		.file 2 "/Users/toxygen/Applications/yagarto-4.7.2/bin/../lib/gcc/arm-none-eabi/4.7.2/../../../../
 979              		.file 3 "../../os/ports/GCC/ARMCMx/chtypes.h"
 980              		.file 4 "../../os/hal/platforms/STM32F1xx/stm32f10x.h"
 981              		.file 5 "../../os/hal/platforms/STM32F1xx/stm32_dma.h"
 982              		.file 6 "../../os/ports/common/ARMCMx/CMSIS/include/core_cm3.h"
 983              		.file 7 "../../os/ports/GCC/ARMCMx/chcore_v7m.h"
 984              		.file 8 "../../os/ports/common/ARMCMx/nvic.h"