ARM GAS  /var/folders/dt/0wfd0knj7gs46m8vwfzktm600000gn/T//ccosKjmj.s 			page 1


   1              		.syntax unified
   2              		.cpu cortex-m3
   3              		.fpu softvfp
   4              		.eabi_attribute 20, 1
   5              		.eabi_attribute 21, 1
   6              		.eabi_attribute 23, 3
   7              		.eabi_attribute 24, 1
   8              		.eabi_attribute 25, 1
   9              		.eabi_attribute 26, 1
  10              		.eabi_attribute 30, 2
  11              		.eabi_attribute 34, 1
  12              		.eabi_attribute 18, 4
  13              		.thumb
  14              		.file	"stm32_dma.c"
  15              		.text
  16              	.Ltext0:
  17              		.cfi_sections	.debug_frame
  18              		.section	.text.Vector6C,"ax",%progbits
  19              		.align	2
  20              		.p2align 4,,15
  21              		.global	Vector6C
  22              		.thumb
  23              		.thumb_func
  24              		.type	Vector6C, %function
  25              	Vector6C:
  26              	.LFB62:
  27              		.file 1 "../../os/hal/platforms/STM32F1xx/stm32_dma.c"
  28              		.loc 1 137 0
  29              		.cfi_startproc
  30              		@ args = 0, pretend = 0, frame = 0
  31              		@ frame_needed = 0, uses_anonymous_args = 0
  32              		.loc 1 142 0
  33 0000 0023     		movs	r3, #0
  34              		.loc 1 144 0
  35 0002 0848     		ldr	r0, .L7
  36              		.loc 1 142 0
  37 0004 C4F20203 		movt	r3, 16386
  38 0008 1968     		ldr	r1, [r3, #0]
  39              		.loc 1 144 0
  40 000a 0268     		ldr	r2, [r0, #0]
  41              		.loc 1 137 0
  42 000c 10B5     		push	{r4, lr}
  43              	.LCFI0:
  44              		.cfi_def_cfa_offset 8
  45              		.cfi_offset 4, -8
  46              		.cfi_offset 14, -4
  47              		.loc 1 143 0
  48 000e 0F24     		movs	r4, #15
  49              		.loc 1 142 0
  50 0010 01F00F01 		and	r1, r1, #15
  51              	.LVL0:
  52              		.loc 1 143 0
  53 0014 5C60     		str	r4, [r3, #4]
  54              		.loc 1 144 0
  55 0016 0AB1     		cbz	r2, .L2
  56              		.loc 1 145 0
  57 0018 4068     		ldr	r0, [r0, #4]
ARM GAS  /var/folders/dt/0wfd0knj7gs46m8vwfzktm600000gn/T//ccosKjmj.s 			page 2


  58 001a 9047     		blx	r2
  59              	.LVL1:
  60              	.L2:
  61              		.loc 1 148 0
  62 001c BDE81040 		pop	{r4, lr}
  63              		.loc 1 147 0
  64 0020 FFF7FEBF 		b	_port_irq_epilogue
  65              	.LVL2:
  66              	.L8:
  67              		.align	2
  68              	.L7:
  69 0024 00000000 		.word	.LANCHOR0
  70              		.cfi_endproc
  71              	.LFE62:
  72              		.size	Vector6C, .-Vector6C
  73 0028 AFF30080 		.section	.text.Vector70,"ax",%progbits
  73      AFF30080 
  74              		.align	2
  75              		.p2align 4,,15
  76              		.global	Vector70
  77              		.thumb
  78              		.thumb_func
  79              		.type	Vector70, %function
  80              	Vector70:
  81              	.LFB63:
  82              		.loc 1 155 0
  83              		.cfi_startproc
  84              		@ args = 0, pretend = 0, frame = 0
  85              		@ frame_needed = 0, uses_anonymous_args = 0
  86              		.loc 1 160 0
  87 0000 0023     		movs	r3, #0
  88              		.loc 1 162 0
  89 0002 0848     		ldr	r0, .L14
  90              		.loc 1 160 0
  91 0004 C4F20203 		movt	r3, 16386
  92 0008 1968     		ldr	r1, [r3, #0]
  93              		.loc 1 162 0
  94 000a 8268     		ldr	r2, [r0, #8]
  95              		.loc 1 155 0
  96 000c 10B5     		push	{r4, lr}
  97              	.LCFI1:
  98              		.cfi_def_cfa_offset 8
  99              		.cfi_offset 4, -8
 100              		.cfi_offset 14, -4
 101              		.loc 1 161 0
 102 000e F024     		movs	r4, #240
 103              		.loc 1 160 0
 104 0010 C1F30311 		ubfx	r1, r1, #4, #4
 105              	.LVL3:
 106              		.loc 1 161 0
 107 0014 5C60     		str	r4, [r3, #4]
 108              		.loc 1 162 0
 109 0016 0AB1     		cbz	r2, .L10
 110              		.loc 1 163 0
 111 0018 C068     		ldr	r0, [r0, #12]
 112 001a 9047     		blx	r2
 113              	.LVL4:
ARM GAS  /var/folders/dt/0wfd0knj7gs46m8vwfzktm600000gn/T//ccosKjmj.s 			page 3


 114              	.L10:
 115              		.loc 1 166 0
 116 001c BDE81040 		pop	{r4, lr}
 117              		.loc 1 165 0
 118 0020 FFF7FEBF 		b	_port_irq_epilogue
 119              	.LVL5:
 120              	.L15:
 121              		.align	2
 122              	.L14:
 123 0024 00000000 		.word	.LANCHOR0
 124              		.cfi_endproc
 125              	.LFE63:
 126              		.size	Vector70, .-Vector70
 127 0028 AFF30080 		.section	.text.Vector74,"ax",%progbits
 127      AFF30080 
 128              		.align	2
 129              		.p2align 4,,15
 130              		.global	Vector74
 131              		.thumb
 132              		.thumb_func
 133              		.type	Vector74, %function
 134              	Vector74:
 135              	.LFB64:
 136              		.loc 1 173 0
 137              		.cfi_startproc
 138              		@ args = 0, pretend = 0, frame = 0
 139              		@ frame_needed = 0, uses_anonymous_args = 0
 140              		.loc 1 178 0
 141 0000 0023     		movs	r3, #0
 142              		.loc 1 180 0
 143 0002 0948     		ldr	r0, .L21
 144              		.loc 1 178 0
 145 0004 C4F20203 		movt	r3, 16386
 146 0008 1968     		ldr	r1, [r3, #0]
 147              		.loc 1 180 0
 148 000a 0269     		ldr	r2, [r0, #16]
 149              		.loc 1 173 0
 150 000c 10B5     		push	{r4, lr}
 151              	.LCFI2:
 152              		.cfi_def_cfa_offset 8
 153              		.cfi_offset 4, -8
 154              		.cfi_offset 14, -4
 155              		.loc 1 179 0
 156 000e 4FF47064 		mov	r4, #3840
 157              		.loc 1 178 0
 158 0012 C1F30321 		ubfx	r1, r1, #8, #4
 159              	.LVL6:
 160              		.loc 1 179 0
 161 0016 5C60     		str	r4, [r3, #4]
 162              		.loc 1 180 0
 163 0018 0AB1     		cbz	r2, .L17
 164              		.loc 1 181 0
 165 001a 4069     		ldr	r0, [r0, #20]
 166 001c 9047     		blx	r2
 167              	.LVL7:
 168              	.L17:
 169              		.loc 1 184 0
ARM GAS  /var/folders/dt/0wfd0knj7gs46m8vwfzktm600000gn/T//ccosKjmj.s 			page 4


 170 001e BDE81040 		pop	{r4, lr}
 171              		.loc 1 183 0
 172 0022 FFF7FEBF 		b	_port_irq_epilogue
 173              	.LVL8:
 174              	.L22:
 175 0026 00BF     		.align	2
 176              	.L21:
 177 0028 00000000 		.word	.LANCHOR0
 178              		.cfi_endproc
 179              	.LFE64:
 180              		.size	Vector74, .-Vector74
 181 002c AFF30080 		.section	.text.Vector78,"ax",%progbits
 182              		.align	2
 183              		.p2align 4,,15
 184              		.global	Vector78
 185              		.thumb
 186              		.thumb_func
 187              		.type	Vector78, %function
 188              	Vector78:
 189              	.LFB65:
 190              		.loc 1 191 0
 191              		.cfi_startproc
 192              		@ args = 0, pretend = 0, frame = 0
 193              		@ frame_needed = 0, uses_anonymous_args = 0
 194              		.loc 1 196 0
 195 0000 0023     		movs	r3, #0
 196              		.loc 1 198 0
 197 0002 0948     		ldr	r0, .L28
 198              		.loc 1 196 0
 199 0004 C4F20203 		movt	r3, 16386
 200 0008 1968     		ldr	r1, [r3, #0]
 201              		.loc 1 198 0
 202 000a 8269     		ldr	r2, [r0, #24]
 203              		.loc 1 191 0
 204 000c 10B5     		push	{r4, lr}
 205              	.LCFI3:
 206              		.cfi_def_cfa_offset 8
 207              		.cfi_offset 4, -8
 208              		.cfi_offset 14, -4
 209              		.loc 1 197 0
 210 000e 4FF47044 		mov	r4, #61440
 211              		.loc 1 196 0
 212 0012 C1F30331 		ubfx	r1, r1, #12, #4
 213              	.LVL9:
 214              		.loc 1 197 0
 215 0016 5C60     		str	r4, [r3, #4]
 216              		.loc 1 198 0
 217 0018 0AB1     		cbz	r2, .L24
 218              		.loc 1 199 0
 219 001a C069     		ldr	r0, [r0, #28]
 220 001c 9047     		blx	r2
 221              	.LVL10:
 222              	.L24:
 223              		.loc 1 202 0
 224 001e BDE81040 		pop	{r4, lr}
 225              		.loc 1 201 0
 226 0022 FFF7FEBF 		b	_port_irq_epilogue
ARM GAS  /var/folders/dt/0wfd0knj7gs46m8vwfzktm600000gn/T//ccosKjmj.s 			page 5


 227              	.LVL11:
 228              	.L29:
 229 0026 00BF     		.align	2
 230              	.L28:
 231 0028 00000000 		.word	.LANCHOR0
 232              		.cfi_endproc
 233              	.LFE65:
 234              		.size	Vector78, .-Vector78
 235 002c AFF30080 		.section	.text.Vector7C,"ax",%progbits
 236              		.align	2
 237              		.p2align 4,,15
 238              		.global	Vector7C
 239              		.thumb
 240              		.thumb_func
 241              		.type	Vector7C, %function
 242              	Vector7C:
 243              	.LFB66:
 244              		.loc 1 209 0
 245              		.cfi_startproc
 246              		@ args = 0, pretend = 0, frame = 0
 247              		@ frame_needed = 0, uses_anonymous_args = 0
 248              		.loc 1 214 0
 249 0000 0023     		movs	r3, #0
 250              		.loc 1 216 0
 251 0002 0948     		ldr	r0, .L35
 252              		.loc 1 214 0
 253 0004 C4F20203 		movt	r3, 16386
 254 0008 1968     		ldr	r1, [r3, #0]
 255              		.loc 1 216 0
 256 000a 026A     		ldr	r2, [r0, #32]
 257              		.loc 1 209 0
 258 000c 10B5     		push	{r4, lr}
 259              	.LCFI4:
 260              		.cfi_def_cfa_offset 8
 261              		.cfi_offset 4, -8
 262              		.cfi_offset 14, -4
 263              		.loc 1 215 0
 264 000e 4FF47024 		mov	r4, #983040
 265              		.loc 1 214 0
 266 0012 C1F30341 		ubfx	r1, r1, #16, #4
 267              	.LVL12:
 268              		.loc 1 215 0
 269 0016 5C60     		str	r4, [r3, #4]
 270              		.loc 1 216 0
 271 0018 0AB1     		cbz	r2, .L31
 272              		.loc 1 217 0
 273 001a 406A     		ldr	r0, [r0, #36]
 274 001c 9047     		blx	r2
 275              	.LVL13:
 276              	.L31:
 277              		.loc 1 220 0
 278 001e BDE81040 		pop	{r4, lr}
 279              		.loc 1 219 0
 280 0022 FFF7FEBF 		b	_port_irq_epilogue
 281              	.LVL14:
 282              	.L36:
 283 0026 00BF     		.align	2
ARM GAS  /var/folders/dt/0wfd0knj7gs46m8vwfzktm600000gn/T//ccosKjmj.s 			page 6


 284              	.L35:
 285 0028 00000000 		.word	.LANCHOR0
 286              		.cfi_endproc
 287              	.LFE66:
 288              		.size	Vector7C, .-Vector7C
 289 002c AFF30080 		.section	.text.Vector80,"ax",%progbits
 290              		.align	2
 291              		.p2align 4,,15
 292              		.global	Vector80
 293              		.thumb
 294              		.thumb_func
 295              		.type	Vector80, %function
 296              	Vector80:
 297              	.LFB67:
 298              		.loc 1 227 0
 299              		.cfi_startproc
 300              		@ args = 0, pretend = 0, frame = 0
 301              		@ frame_needed = 0, uses_anonymous_args = 0
 302              		.loc 1 232 0
 303 0000 0023     		movs	r3, #0
 304              		.loc 1 234 0
 305 0002 0948     		ldr	r0, .L42
 306              		.loc 1 232 0
 307 0004 C4F20203 		movt	r3, 16386
 308 0008 1968     		ldr	r1, [r3, #0]
 309              		.loc 1 234 0
 310 000a 826A     		ldr	r2, [r0, #40]
 311              		.loc 1 227 0
 312 000c 10B5     		push	{r4, lr}
 313              	.LCFI5:
 314              		.cfi_def_cfa_offset 8
 315              		.cfi_offset 4, -8
 316              		.cfi_offset 14, -4
 317              		.loc 1 233 0
 318 000e 4FF47004 		mov	r4, #15728640
 319              		.loc 1 232 0
 320 0012 C1F30351 		ubfx	r1, r1, #20, #4
 321              	.LVL15:
 322              		.loc 1 233 0
 323 0016 5C60     		str	r4, [r3, #4]
 324              		.loc 1 234 0
 325 0018 0AB1     		cbz	r2, .L38
 326              		.loc 1 235 0
 327 001a C06A     		ldr	r0, [r0, #44]
 328 001c 9047     		blx	r2
 329              	.LVL16:
 330              	.L38:
 331              		.loc 1 238 0
 332 001e BDE81040 		pop	{r4, lr}
 333              		.loc 1 237 0
 334 0022 FFF7FEBF 		b	_port_irq_epilogue
 335              	.LVL17:
 336              	.L43:
 337 0026 00BF     		.align	2
 338              	.L42:
 339 0028 00000000 		.word	.LANCHOR0
 340              		.cfi_endproc
ARM GAS  /var/folders/dt/0wfd0knj7gs46m8vwfzktm600000gn/T//ccosKjmj.s 			page 7


 341              	.LFE67:
 342              		.size	Vector80, .-Vector80
 343 002c AFF30080 		.section	.text.Vector84,"ax",%progbits
 344              		.align	2
 345              		.p2align 4,,15
 346              		.global	Vector84
 347              		.thumb
 348              		.thumb_func
 349              		.type	Vector84, %function
 350              	Vector84:
 351              	.LFB68:
 352              		.loc 1 245 0
 353              		.cfi_startproc
 354              		@ args = 0, pretend = 0, frame = 0
 355              		@ frame_needed = 0, uses_anonymous_args = 0
 356              		.loc 1 250 0
 357 0000 0023     		movs	r3, #0
 358              		.loc 1 252 0
 359 0002 0948     		ldr	r0, .L49
 360              		.loc 1 250 0
 361 0004 C4F20203 		movt	r3, 16386
 362 0008 1968     		ldr	r1, [r3, #0]
 363              		.loc 1 252 0
 364 000a 026B     		ldr	r2, [r0, #48]
 365              		.loc 1 245 0
 366 000c 10B5     		push	{r4, lr}
 367              	.LCFI6:
 368              		.cfi_def_cfa_offset 8
 369              		.cfi_offset 4, -8
 370              		.cfi_offset 14, -4
 371              		.loc 1 251 0
 372 000e 4FF07064 		mov	r4, #251658240
 373              		.loc 1 250 0
 374 0012 C1F30361 		ubfx	r1, r1, #24, #4
 375              	.LVL18:
 376              		.loc 1 251 0
 377 0016 5C60     		str	r4, [r3, #4]
 378              		.loc 1 252 0
 379 0018 0AB1     		cbz	r2, .L45
 380              		.loc 1 253 0
 381 001a 406B     		ldr	r0, [r0, #52]
 382 001c 9047     		blx	r2
 383              	.LVL19:
 384              	.L45:
 385              		.loc 1 256 0
 386 001e BDE81040 		pop	{r4, lr}
 387              		.loc 1 255 0
 388 0022 FFF7FEBF 		b	_port_irq_epilogue
 389              	.LVL20:
 390              	.L50:
 391 0026 00BF     		.align	2
 392              	.L49:
 393 0028 00000000 		.word	.LANCHOR0
 394              		.cfi_endproc
 395              	.LFE68:
 396              		.size	Vector84, .-Vector84
 397 002c AFF30080 		.section	.text.Vector120,"ax",%progbits
ARM GAS  /var/folders/dt/0wfd0knj7gs46m8vwfzktm600000gn/T//ccosKjmj.s 			page 8


 398              		.align	2
 399              		.p2align 4,,15
 400              		.global	Vector120
 401              		.thumb
 402              		.thumb_func
 403              		.type	Vector120, %function
 404              	Vector120:
 405              	.LFB69:
 406              		.loc 1 264 0
 407              		.cfi_startproc
 408              		@ args = 0, pretend = 0, frame = 0
 409              		@ frame_needed = 0, uses_anonymous_args = 0
 410              		.loc 1 269 0
 411 0000 4FF48063 		mov	r3, #1024
 412              		.loc 1 271 0
 413 0004 0848     		ldr	r0, .L56
 414              		.loc 1 269 0
 415 0006 C4F20203 		movt	r3, 16386
 416 000a 1968     		ldr	r1, [r3, #0]
 417              		.loc 1 271 0
 418 000c 826B     		ldr	r2, [r0, #56]
 419              		.loc 1 264 0
 420 000e 10B5     		push	{r4, lr}
 421              	.LCFI7:
 422              		.cfi_def_cfa_offset 8
 423              		.cfi_offset 4, -8
 424              		.cfi_offset 14, -4
 425              		.loc 1 270 0
 426 0010 0F24     		movs	r4, #15
 427              		.loc 1 269 0
 428 0012 01F00F01 		and	r1, r1, #15
 429              	.LVL21:
 430              		.loc 1 270 0
 431 0016 5C60     		str	r4, [r3, #4]
 432              		.loc 1 271 0
 433 0018 0AB1     		cbz	r2, .L52
 434              		.loc 1 272 0
 435 001a C06B     		ldr	r0, [r0, #60]
 436 001c 9047     		blx	r2
 437              	.LVL22:
 438              	.L52:
 439              		.loc 1 275 0
 440 001e BDE81040 		pop	{r4, lr}
 441              		.loc 1 274 0
 442 0022 FFF7FEBF 		b	_port_irq_epilogue
 443              	.LVL23:
 444              	.L57:
 445 0026 00BF     		.align	2
 446              	.L56:
 447 0028 00000000 		.word	.LANCHOR0
 448              		.cfi_endproc
 449              	.LFE69:
 450              		.size	Vector120, .-Vector120
 451 002c AFF30080 		.section	.text.Vector124,"ax",%progbits
 452              		.align	2
 453              		.p2align 4,,15
 454              		.global	Vector124
ARM GAS  /var/folders/dt/0wfd0knj7gs46m8vwfzktm600000gn/T//ccosKjmj.s 			page 9


 455              		.thumb
 456              		.thumb_func
 457              		.type	Vector124, %function
 458              	Vector124:
 459              	.LFB70:
 460              		.loc 1 282 0
 461              		.cfi_startproc
 462              		@ args = 0, pretend = 0, frame = 0
 463              		@ frame_needed = 0, uses_anonymous_args = 0
 464              		.loc 1 287 0
 465 0000 4FF48063 		mov	r3, #1024
 466              		.loc 1 289 0
 467 0004 0848     		ldr	r0, .L63
 468              		.loc 1 287 0
 469 0006 C4F20203 		movt	r3, 16386
 470 000a 1968     		ldr	r1, [r3, #0]
 471              		.loc 1 289 0
 472 000c 026C     		ldr	r2, [r0, #64]
 473              		.loc 1 282 0
 474 000e 10B5     		push	{r4, lr}
 475              	.LCFI8:
 476              		.cfi_def_cfa_offset 8
 477              		.cfi_offset 4, -8
 478              		.cfi_offset 14, -4
 479              		.loc 1 288 0
 480 0010 F024     		movs	r4, #240
 481              		.loc 1 287 0
 482 0012 C1F30311 		ubfx	r1, r1, #4, #4
 483              	.LVL24:
 484              		.loc 1 288 0
 485 0016 5C60     		str	r4, [r3, #4]
 486              		.loc 1 289 0
 487 0018 0AB1     		cbz	r2, .L59
 488              		.loc 1 290 0
 489 001a 406C     		ldr	r0, [r0, #68]
 490 001c 9047     		blx	r2
 491              	.LVL25:
 492              	.L59:
 493              		.loc 1 293 0
 494 001e BDE81040 		pop	{r4, lr}
 495              		.loc 1 292 0
 496 0022 FFF7FEBF 		b	_port_irq_epilogue
 497              	.LVL26:
 498              	.L64:
 499 0026 00BF     		.align	2
 500              	.L63:
 501 0028 00000000 		.word	.LANCHOR0
 502              		.cfi_endproc
 503              	.LFE70:
 504              		.size	Vector124, .-Vector124
 505 002c AFF30080 		.section	.text.Vector128,"ax",%progbits
 506              		.align	2
 507              		.p2align 4,,15
 508              		.global	Vector128
 509              		.thumb
 510              		.thumb_func
 511              		.type	Vector128, %function
ARM GAS  /var/folders/dt/0wfd0knj7gs46m8vwfzktm600000gn/T//ccosKjmj.s 			page 10


 512              	Vector128:
 513              	.LFB71:
 514              		.loc 1 300 0
 515              		.cfi_startproc
 516              		@ args = 0, pretend = 0, frame = 0
 517              		@ frame_needed = 0, uses_anonymous_args = 0
 518              		.loc 1 305 0
 519 0000 4FF48063 		mov	r3, #1024
 520              		.loc 1 307 0
 521 0004 0848     		ldr	r0, .L70
 522              		.loc 1 305 0
 523 0006 C4F20203 		movt	r3, 16386
 524 000a 1968     		ldr	r1, [r3, #0]
 525              		.loc 1 307 0
 526 000c 826C     		ldr	r2, [r0, #72]
 527              		.loc 1 300 0
 528 000e 10B5     		push	{r4, lr}
 529              	.LCFI9:
 530              		.cfi_def_cfa_offset 8
 531              		.cfi_offset 4, -8
 532              		.cfi_offset 14, -4
 533              		.loc 1 306 0
 534 0010 4FF47064 		mov	r4, #3840
 535              		.loc 1 305 0
 536 0014 C1F30321 		ubfx	r1, r1, #8, #4
 537              	.LVL27:
 538              		.loc 1 306 0
 539 0018 5C60     		str	r4, [r3, #4]
 540              		.loc 1 307 0
 541 001a 0AB1     		cbz	r2, .L66
 542              		.loc 1 308 0
 543 001c C06C     		ldr	r0, [r0, #76]
 544 001e 9047     		blx	r2
 545              	.LVL28:
 546              	.L66:
 547              		.loc 1 311 0
 548 0020 BDE81040 		pop	{r4, lr}
 549              		.loc 1 310 0
 550 0024 FFF7FEBF 		b	_port_irq_epilogue
 551              	.LVL29:
 552              	.L71:
 553              		.align	2
 554              	.L70:
 555 0028 00000000 		.word	.LANCHOR0
 556              		.cfi_endproc
 557              	.LFE71:
 558              		.size	Vector128, .-Vector128
 559 002c AFF30080 		.section	.text.Vector12C,"ax",%progbits
 560              		.align	2
 561              		.p2align 4,,15
 562              		.global	Vector12C
 563              		.thumb
 564              		.thumb_func
 565              		.type	Vector12C, %function
 566              	Vector12C:
 567              	.LFB72:
 568              		.loc 1 357 0
ARM GAS  /var/folders/dt/0wfd0knj7gs46m8vwfzktm600000gn/T//ccosKjmj.s 			page 11


 569              		.cfi_startproc
 570              		@ args = 0, pretend = 0, frame = 0
 571              		@ frame_needed = 0, uses_anonymous_args = 0
 572              		.loc 1 363 0
 573 0000 4FF48063 		mov	r3, #1024
 574 0004 C4F20203 		movt	r3, 16386
 575 0008 1968     		ldr	r1, [r3, #0]
 576              		.loc 1 357 0
 577 000a 10B5     		push	{r4, lr}
 578              	.LCFI10:
 579              		.cfi_def_cfa_offset 8
 580              		.cfi_offset 4, -8
 581              		.cfi_offset 14, -4
 582              		.loc 1 363 0
 583 000c C1F30331 		ubfx	r1, r1, #12, #4
 584              	.LVL30:
 585              		.loc 1 364 0
 586 0010 39B1     		cbz	r1, .L74
 587              		.loc 1 366 0
 588 0012 0E48     		ldr	r0, .L85
 589              		.loc 1 365 0
 590 0014 4FF47044 		mov	r4, #61440
 591              		.loc 1 366 0
 592 0018 026D     		ldr	r2, [r0, #80]
 593              		.loc 1 365 0
 594 001a 5C60     		str	r4, [r3, #4]
 595              		.loc 1 366 0
 596 001c 0AB1     		cbz	r2, .L74
 597              		.loc 1 367 0
 598 001e 406D     		ldr	r0, [r0, #84]
 599 0020 9047     		blx	r2
 600              	.LVL31:
 601              	.L74:
 602              		.loc 1 371 0
 603 0022 4FF48063 		mov	r3, #1024
 604 0026 C4F20203 		movt	r3, 16386
 605 002a 1968     		ldr	r1, [r3, #0]
 606 002c C1F30341 		ubfx	r1, r1, #16, #4
 607              	.LVL32:
 608              		.loc 1 372 0
 609 0030 39B1     		cbz	r1, .L77
 610              		.loc 1 374 0
 611 0032 0648     		ldr	r0, .L85
 612              		.loc 1 373 0
 613 0034 4FF47024 		mov	r4, #983040
 614              		.loc 1 374 0
 615 0038 826D     		ldr	r2, [r0, #88]
 616              		.loc 1 373 0
 617 003a 5C60     		str	r4, [r3, #4]
 618              		.loc 1 374 0
 619 003c 0AB1     		cbz	r2, .L77
 620              		.loc 1 375 0
 621 003e C06D     		ldr	r0, [r0, #92]
 622 0040 9047     		blx	r2
 623              	.LVL33:
 624              	.L77:
 625              		.loc 1 379 0
ARM GAS  /var/folders/dt/0wfd0knj7gs46m8vwfzktm600000gn/T//ccosKjmj.s 			page 12


 626 0042 BDE81040 		pop	{r4, lr}
 627              		.loc 1 378 0
 628 0046 FFF7FEBF 		b	_port_irq_epilogue
 629              	.LVL34:
 630              	.L86:
 631 004a 00BF     		.align	2
 632              	.L85:
 633 004c 00000000 		.word	.LANCHOR0
 634              		.cfi_endproc
 635              	.LFE72:
 636              		.size	Vector12C, .-Vector12C
 637              		.section	.text.dmaInit,"ax",%progbits
 638              		.align	2
 639              		.p2align 4,,15
 640              		.global	dmaInit
 641              		.thumb
 642              		.thumb_func
 643              		.type	dmaInit, %function
 644              	dmaInit:
 645              	.LFB73:
 646              		.loc 1 392 0
 647              		.cfi_startproc
 648              		@ args = 0, pretend = 0, frame = 0
 649              		@ frame_needed = 0, uses_anonymous_args = 0
 650              		@ link register save eliminated.
 651              		.loc 1 395 0
 652 0000 0D49     		ldr	r1, .L90
 653              		.loc 1 392 0
 654 0002 30B4     		push	{r4, r5}
 655              	.LCFI11:
 656              		.cfi_def_cfa_offset 8
 657              		.cfi_offset 4, -8
 658              		.cfi_offset 5, -4
 659              		.loc 1 395 0
 660 0004 0023     		movs	r3, #0
 661 0006 0D4D     		ldr	r5, .L90+4
 662 0008 0D4C     		ldr	r4, .L90+8
 663 000a 0B60     		str	r3, [r1, #0]
 664              	.LVL35:
 665 000c 1A46     		mov	r2, r3
 666              		.loc 1 397 0
 667 000e 1946     		mov	r1, r3
 668              	.LVL36:
 669              	.L88:
 670              		.loc 1 397 0 is_stmt 0 discriminator 2
 671 0010 E858     		ldr	r0, [r5, r3]
 672 0012 0C33     		adds	r3, r3, #12
 673 0014 0160     		str	r1, [r0, #0]
 674              		.loc 1 398 0 is_stmt 1 discriminator 2
 675 0016 A150     		str	r1, [r4, r2]
 676 0018 0832     		adds	r2, r2, #8
 677              		.loc 1 396 0 discriminator 2
 678 001a 902B     		cmp	r3, #144
 679 001c F8D1     		bne	.L88
 680              		.loc 1 400 0
 681 001e 0021     		movs	r1, #0
 682              		.loc 1 402 0
ARM GAS  /var/folders/dt/0wfd0knj7gs46m8vwfzktm600000gn/T//ccosKjmj.s 			page 13


 683 0020 4FF48063 		mov	r3, #1024
 684              		.loc 1 400 0
 685 0024 4FF0FF32 		mov	r2, #-1
 686 0028 C4F20201 		movt	r1, 16386
 687              		.loc 1 402 0
 688 002c C4F20203 		movt	r3, 16386
 689              		.loc 1 400 0
 690 0030 4A60     		str	r2, [r1, #4]
 691              		.loc 1 402 0
 692 0032 5A60     		str	r2, [r3, #4]
 693              		.loc 1 404 0
 694 0034 30BC     		pop	{r4, r5}
 695 0036 7047     		bx	lr
 696              	.L91:
 697              		.align	2
 698              	.L90:
 699 0038 00000000 		.word	.LANCHOR1
 700 003c 00000000 		.word	.LANCHOR2
 701 0040 00000000 		.word	.LANCHOR0
 702              		.cfi_endproc
 703              	.LFE73:
 704              		.size	dmaInit, .-dmaInit
 705 0044 AFF30080 		.section	.text.dmaStreamAllocate,"ax",%progbits
 705      AFF30080 
 705      AFF30080 
 706              		.align	2
 707              		.p2align 4,,15
 708              		.global	dmaStreamAllocate
 709              		.thumb
 710              		.thumb_func
 711              		.type	dmaStreamAllocate, %function
 712              	dmaStreamAllocate:
 713              	.LFB74:
 714              		.loc 1 433 0
 715              		.cfi_startproc
 716              		@ args = 0, pretend = 0, frame = 0
 717              		@ frame_needed = 0, uses_anonymous_args = 0
 718              	.LVL37:
 719 0000 F8B5     		push	{r3, r4, r5, r6, r7, lr}
 720              	.LCFI12:
 721              		.cfi_def_cfa_offset 24
 722              		.cfi_offset 3, -24
 723              		.cfi_offset 4, -20
 724              		.cfi_offset 5, -16
 725              		.cfi_offset 6, -12
 726              		.cfi_offset 7, -8
 727              		.cfi_offset 14, -4
 728              		.loc 1 438 0
 729 0002 447A     		ldrb	r4, [r0, #9]	@ zero_extendqisi2
 730 0004 4FF0010C 		mov	ip, #1
 731 0008 0CFA04F6 		lsl	r6, ip, r4
 732 000c 1E4D     		ldr	r5, .L104
 733 000e 2F68     		ldr	r7, [r5, #0]
 734 0010 3E42     		tst	r6, r7
 735 0012 34D1     		bne	.L96
 736              		.loc 1 442 0
 737 0014 DFF874C0 		ldr	ip, .L104+4
ARM GAS  /var/folders/dt/0wfd0knj7gs46m8vwfzktm600000gn/T//ccosKjmj.s 			page 14


 738              		.loc 1 444 0
 739 0018 3E43     		orrs	r6, r6, r7
 740              		.loc 1 443 0
 741 001a 0CEBC407 		add	r7, ip, r4, lsl #3
 742 001e 7B60     		str	r3, [r7, #4]
 743              		.loc 1 447 0
 744 0020 7306     		lsls	r3, r6, #25
 745              	.LVL38:
 746              		.loc 1 448 0
 747 0022 1CBF     		itt	ne
 748 0024 4FF48053 		movne	r3, #4096
 749 0028 C4F20203 		movtne	r3, 16386
 750              		.loc 1 444 0
 751 002c 2E60     		str	r6, [r5, #0]
 752              		.loc 1 442 0
 753 002e 4CF83420 		str	r2, [ip, r4, lsl #3]
 754              		.loc 1 448 0
 755 0032 18BF     		it	ne
 756 0034 5C69     		ldrne	r4, [r3, #20]
 757              		.loc 1 455 0
 758 0036 4568     		ldr	r5, [r0, #4]
 759              		.loc 1 448 0
 760 0038 1CBF     		itt	ne
 761 003a 44F00104 		orrne	r4, r4, #1
 762 003e 5C61     		strne	r4, [r3, #20]
 763              		.loc 1 450 0
 764 0040 16F4786F 		tst	r6, #3968
 765              		.loc 1 451 0
 766 0044 1FBF     		itttt	ne
 767 0046 4FF48053 		movne	r3, #4096
 768 004a C4F20203 		movtne	r3, 16386
 769 004e 5C69     		ldrne	r4, [r3, #20]
 770 0050 44F00204 		orrne	r4, r4, #2
 771 0054 18BF     		it	ne
 772 0056 5C61     		strne	r4, [r3, #20]
 773              		.loc 1 455 0
 774 0058 0368     		ldr	r3, [r0, #0]
 775 005a 0F27     		movs	r7, #15
 776              	.LVL39:
 777 005c 1C68     		ldr	r4, [r3, #0]
 778 005e 24F00104 		bic	r4, r4, #1
 779 0062 1C60     		str	r4, [r3, #0]
 780 0064 067A     		ldrb	r6, [r0, #8]	@ zero_extendqisi2
 781              		.loc 1 456 0
 782 0066 0024     		movs	r4, #0
 783              		.loc 1 455 0
 784 0068 07FA06F6 		lsl	r6, r7, r6
 785 006c 2E60     		str	r6, [r5, #0]
 786              		.loc 1 456 0
 787 006e 1C60     		str	r4, [r3, #0]
 788              		.loc 1 459 0
 789 0070 3AB1     		cbz	r2, .L97
 790              		.loc 1 460 0
 791 0072 807A     		ldrb	r0, [r0, #10]	@ zero_extendqisi2
 792              	.LVL40:
 793 0074 0901     		lsls	r1, r1, #4
 794              	.LVL41:
ARM GAS  /var/folders/dt/0wfd0knj7gs46m8vwfzktm600000gn/T//ccosKjmj.s 			page 15


 795 0076 FFF7FEFF 		bl	nvicEnableVector
 796              	.LVL42:
 797              		.loc 1 462 0
 798 007a 2046     		mov	r0, r4
 799 007c F8BD     		pop	{r3, r4, r5, r6, r7, pc}
 800              	.LVL43:
 801              	.L96:
 802              		.loc 1 439 0
 803 007e 6046     		mov	r0, ip
 804              	.LVL44:
 805 0080 F8BD     		pop	{r3, r4, r5, r6, r7, pc}
 806              	.LVL45:
 807              	.L97:
 808              		.loc 1 462 0
 809 0082 1046     		mov	r0, r2
 810              	.LVL46:
 811              		.loc 1 463 0
 812 0084 F8BD     		pop	{r3, r4, r5, r6, r7, pc}
 813              	.L105:
 814 0086 00BF     		.align	2
 815              	.L104:
 816 0088 00000000 		.word	.LANCHOR1
 817 008c 00000000 		.word	.LANCHOR0
 818              		.cfi_endproc
 819              	.LFE74:
 820              		.size	dmaStreamAllocate, .-dmaStreamAllocate
 821              		.section	.text.dmaStreamRelease,"ax",%progbits
 822              		.align	2
 823              		.p2align 4,,15
 824              		.global	dmaStreamRelease
 825              		.thumb
 826              		.thumb_func
 827              		.type	dmaStreamRelease, %function
 828              	dmaStreamRelease:
 829              	.LFB75:
 830              		.loc 1 478 0
 831              		.cfi_startproc
 832              		@ args = 0, pretend = 0, frame = 0
 833              		@ frame_needed = 0, uses_anonymous_args = 0
 834              	.LVL47:
 835 0000 10B5     		push	{r4, lr}
 836              	.LCFI13:
 837              		.cfi_def_cfa_offset 8
 838              		.cfi_offset 4, -8
 839              		.cfi_offset 14, -4
 840              		.loc 1 478 0
 841 0002 0446     		mov	r4, r0
 842              		.loc 1 487 0
 843 0004 807A     		ldrb	r0, [r0, #10]	@ zero_extendqisi2
 844              	.LVL48:
 845 0006 FFF7FEFF 		bl	nvicDisableVector
 846              	.LVL49:
 847              		.loc 1 490 0
 848 000a 637A     		ldrb	r3, [r4, #9]	@ zero_extendqisi2
 849 000c 0122     		movs	r2, #1
 850 000e 02FA03F3 		lsl	r3, r2, r3
 851 0012 0E4A     		ldr	r2, .L109
ARM GAS  /var/folders/dt/0wfd0knj7gs46m8vwfzktm600000gn/T//ccosKjmj.s 			page 16


 852 0014 1168     		ldr	r1, [r2, #0]
 853 0016 21EA0303 		bic	r3, r1, r3
 854 001a 1360     		str	r3, [r2, #0]
 855              		.loc 1 493 0
 856 001c 5A06     		lsls	r2, r3, #25
 857              		.loc 1 494 0
 858 001e 01BF     		itttt	eq
 859 0020 4FF48052 		moveq	r2, #4096
 860 0024 C4F20202 		movteq	r2, 16386
 861 0028 5169     		ldreq	r1, [r2, #20]
 862 002a 21F00101 		biceq	r1, r1, #1
 863 002e 08BF     		it	eq
 864 0030 5161     		streq	r1, [r2, #20]
 865              		.loc 1 496 0
 866 0032 13F4786F 		tst	r3, #3968
 867              		.loc 1 497 0
 868 0036 01BF     		itttt	eq
 869 0038 4FF48053 		moveq	r3, #4096
 870 003c C4F20203 		movteq	r3, 16386
 871 0040 5A69     		ldreq	r2, [r3, #20]
 872 0042 22F00202 		biceq	r2, r2, #2
 873 0046 08BF     		it	eq
 874 0048 5A61     		streq	r2, [r3, #20]
 875 004a 10BD     		pop	{r4, pc}
 876              	.L110:
 877              		.align	2
 878              	.L109:
 879 004c 00000000 		.word	.LANCHOR1
 880              		.cfi_endproc
 881              	.LFE75:
 882              		.size	dmaStreamRelease, .-dmaStreamRelease
 883              		.global	_stm32_dma_streams
 884              		.section	.bss.dma_isr_redir,"aw",%nobits
 885              		.align	2
 886              		.set	.LANCHOR0,. + 0
 887              		.type	dma_isr_redir, %object
 888              		.size	dma_isr_redir, 96
 889              	dma_isr_redir:
 890 0000 00000000 		.space	96
 890      00000000 
 890      00000000 
 890      00000000 
 890      00000000 
 891              		.section	.rodata._stm32_dma_streams,"a",%progbits
 892              		.align	2
 893              		.set	.LANCHOR2,. + 0
 894              		.type	_stm32_dma_streams, %object
 895              		.size	_stm32_dma_streams, 144
 896              	_stm32_dma_streams:
 897 0000 08000240 		.word	1073872904
 898 0004 04000240 		.word	1073872900
 899 0008 00       		.byte	0
 900 0009 00       		.byte	0
 901 000a 0B       		.byte	11
 902 000b 00       		.space	1
 903 000c 1C000240 		.word	1073872924
 904 0010 04000240 		.word	1073872900
ARM GAS  /var/folders/dt/0wfd0knj7gs46m8vwfzktm600000gn/T//ccosKjmj.s 			page 17


 905 0014 04       		.byte	4
 906 0015 01       		.byte	1
 907 0016 0C       		.byte	12
 908 0017 00       		.space	1
 909 0018 30000240 		.word	1073872944
 910 001c 04000240 		.word	1073872900
 911 0020 08       		.byte	8
 912 0021 02       		.byte	2
 913 0022 0D       		.byte	13
 914 0023 00       		.space	1
 915 0024 44000240 		.word	1073872964
 916 0028 04000240 		.word	1073872900
 917 002c 0C       		.byte	12
 918 002d 03       		.byte	3
 919 002e 0E       		.byte	14
 920 002f 00       		.space	1
 921 0030 58000240 		.word	1073872984
 922 0034 04000240 		.word	1073872900
 923 0038 10       		.byte	16
 924 0039 04       		.byte	4
 925 003a 0F       		.byte	15
 926 003b 00       		.space	1
 927 003c 6C000240 		.word	1073873004
 928 0040 04000240 		.word	1073872900
 929 0044 14       		.byte	20
 930 0045 05       		.byte	5
 931 0046 10       		.byte	16
 932 0047 00       		.space	1
 933 0048 80000240 		.word	1073873024
 934 004c 04000240 		.word	1073872900
 935 0050 18       		.byte	24
 936 0051 06       		.byte	6
 937 0052 11       		.byte	17
 938 0053 00       		.space	1
 939 0054 08040240 		.word	1073873928
 940 0058 04040240 		.word	1073873924
 941 005c 00       		.byte	0
 942 005d 07       		.byte	7
 943 005e 38       		.byte	56
 944 005f 00       		.space	1
 945 0060 1C040240 		.word	1073873948
 946 0064 04040240 		.word	1073873924
 947 0068 04       		.byte	4
 948 0069 08       		.byte	8
 949 006a 39       		.byte	57
 950 006b 00       		.space	1
 951 006c 30040240 		.word	1073873968
 952 0070 04040240 		.word	1073873924
 953 0074 08       		.byte	8
 954 0075 09       		.byte	9
 955 0076 3A       		.byte	58
 956 0077 00       		.space	1
 957 0078 44040240 		.word	1073873988
 958 007c 04040240 		.word	1073873924
 959 0080 0C       		.byte	12
 960 0081 0A       		.byte	10
 961 0082 3B       		.byte	59
ARM GAS  /var/folders/dt/0wfd0knj7gs46m8vwfzktm600000gn/T//ccosKjmj.s 			page 18


 962 0083 00       		.space	1
 963 0084 58040240 		.word	1073874008
 964 0088 04040240 		.word	1073873924
 965 008c 10       		.byte	16
 966 008d 0B       		.byte	11
 967 008e 3B       		.byte	59
 968 008f 00       		.space	1
 969              		.section	.bss.dma_streams_mask,"aw",%nobits
 970              		.align	2
 971              		.set	.LANCHOR1,. + 0
 972              		.type	dma_streams_mask, %object
 973              		.size	dma_streams_mask, 4
 974              	dma_streams_mask:
 975 0000 00000000 		.space	4
 976              		.text
 977              	.Letext0:
 978              		.file 2 "/Users/toxygen/Applications/yagarto-4.7.2/bin/../lib/gcc/arm-none-eabi/4.7.2/../../../../
 979              		.file 3 "../../os/ports/GCC/ARMCMx/chtypes.h"
 980              		.file 4 "../../os/hal/platforms/STM32F1xx/stm32f10x.h"
 981              		.file 5 "../../os/hal/platforms/STM32F1xx/stm32_dma.h"
 982              		.file 6 "../../os/ports/common/ARMCMx/CMSIS/include/core_cm3.h"
 983              		.file 7 "../../os/ports/GCC/ARMCMx/chcore_v7m.h"
 984              		.file 8 "../../os/ports/common/ARMCMx/nvic.h"
 985              		.section	.debug_info,"",%progbits
 986              	.Ldebug_info0:
 987 0000 09080000 		.4byte	0x809
 988 0004 0200     		.2byte	0x2
 989 0006 00000000 		.4byte	.Ldebug_abbrev0
 990 000a 04       		.byte	0x4
 991 000b 01       		.uleb128 0x1
 992 000c 92030000 		.4byte	.LASF130
 993 0010 01       		.byte	0x1
 994 0011 62060000 		.4byte	.LASF131
 995 0015 2B000000 		.4byte	.LASF132
 996 0019 00000000 		.4byte	.Ldebug_ranges0+0
 997 001d 00000000 		.4byte	0
 998 0021 00000000 		.4byte	0
 999 0025 00000000 		.4byte	.Ldebug_line0
 1000 0029 02       		.uleb128 0x2
 1001 002a 04       		.byte	0x4
 1002 002b 05       		.byte	0x5
 1003 002c 696E7400 		.ascii	"int\000"
 1004 0030 03       		.uleb128 0x3
 1005 0031 04       		.byte	0x4
 1006 0032 07       		.byte	0x7
 1007 0033 0A020000 		.4byte	.LASF0
 1008 0037 03       		.uleb128 0x3
 1009 0038 01       		.byte	0x1
 1010 0039 06       		.byte	0x6
 1011 003a 46010000 		.4byte	.LASF1
 1012 003e 04       		.uleb128 0x4
 1013 003f 23060000 		.4byte	.LASF4
 1014 0043 02       		.byte	0x2
 1015 0044 2A       		.byte	0x2a
 1016 0045 49000000 		.4byte	0x49
 1017 0049 03       		.uleb128 0x3
 1018 004a 01       		.byte	0x1
ARM GAS  /var/folders/dt/0wfd0knj7gs46m8vwfzktm600000gn/T//ccosKjmj.s 			page 19


 1019 004b 08       		.byte	0x8
 1020 004c 1D040000 		.4byte	.LASF2
 1021 0050 03       		.uleb128 0x3
 1022 0051 02       		.byte	0x2
 1023 0052 05       		.byte	0x5
 1024 0053 88040000 		.4byte	.LASF3
 1025 0057 04       		.uleb128 0x4
 1026 0058 94010000 		.4byte	.LASF5
 1027 005c 02       		.byte	0x2
 1028 005d 36       		.byte	0x36
 1029 005e 62000000 		.4byte	0x62
 1030 0062 03       		.uleb128 0x3
 1031 0063 02       		.byte	0x2
 1032 0064 07       		.byte	0x7
 1033 0065 89020000 		.4byte	.LASF6
 1034 0069 04       		.uleb128 0x4
 1035 006a 15040000 		.4byte	.LASF7
 1036 006e 02       		.byte	0x2
 1037 006f 4F       		.byte	0x4f
 1038 0070 74000000 		.4byte	0x74
 1039 0074 03       		.uleb128 0x3
 1040 0075 04       		.byte	0x4
 1041 0076 05       		.byte	0x5
 1042 0077 60010000 		.4byte	.LASF8
 1043 007b 04       		.uleb128 0x4
 1044 007c 9D010000 		.4byte	.LASF9
 1045 0080 02       		.byte	0x2
 1046 0081 50       		.byte	0x50
 1047 0082 86000000 		.4byte	0x86
 1048 0086 03       		.uleb128 0x3
 1049 0087 04       		.byte	0x4
 1050 0088 07       		.byte	0x7
 1051 0089 3D020000 		.4byte	.LASF10
 1052 008d 03       		.uleb128 0x3
 1053 008e 08       		.byte	0x8
 1054 008f 05       		.byte	0x5
 1055 0090 38010000 		.4byte	.LASF11
 1056 0094 03       		.uleb128 0x3
 1057 0095 08       		.byte	0x8
 1058 0096 07       		.byte	0x7
 1059 0097 9E000000 		.4byte	.LASF12
 1060 009b 04       		.uleb128 0x4
 1061 009c 52010000 		.4byte	.LASF13
 1062 00a0 03       		.byte	0x3
 1063 00a1 2E       		.byte	0x2e
 1064 00a2 69000000 		.4byte	0x69
 1065 00a6 05       		.uleb128 0x5
 1066 00a7 04       		.byte	0x4
 1067 00a8 06       		.uleb128 0x6
 1068 00a9 7B000000 		.4byte	0x7b
 1069 00ad 03       		.uleb128 0x3
 1070 00ae 04       		.byte	0x4
 1071 00af 07       		.byte	0x7
 1072 00b0 11030000 		.4byte	.LASF14
 1073 00b4 03       		.uleb128 0x3
 1074 00b5 01       		.byte	0x1
 1075 00b6 08       		.byte	0x8
ARM GAS  /var/folders/dt/0wfd0knj7gs46m8vwfzktm600000gn/T//ccosKjmj.s 			page 20


 1076 00b7 16050000 		.4byte	.LASF15
 1077 00bb 07       		.uleb128 0x7
 1078 00bc EB020000 		.4byte	.LASF133
 1079 00c0 01       		.byte	0x1
 1080 00c1 04       		.byte	0x4
 1081 00c2 A9       		.byte	0xa9
 1082 00c3 60020000 		.4byte	0x260
 1083 00c7 08       		.uleb128 0x8
 1084 00c8 4D050000 		.4byte	.LASF16
 1085 00cc 72       		.sleb128 -14
 1086 00cd 08       		.uleb128 0x8
 1087 00ce BA030000 		.4byte	.LASF17
 1088 00d2 74       		.sleb128 -12
 1089 00d3 08       		.uleb128 0x8
 1090 00d4 E6010000 		.4byte	.LASF18
 1091 00d8 75       		.sleb128 -11
 1092 00d9 08       		.uleb128 0x8
 1093 00da F0040000 		.4byte	.LASF19
 1094 00de 76       		.sleb128 -10
 1095 00df 08       		.uleb128 0x8
 1096 00e0 27030000 		.4byte	.LASF20
 1097 00e4 7B       		.sleb128 -5
 1098 00e5 08       		.uleb128 0x8
 1099 00e6 A6050000 		.4byte	.LASF21
 1100 00ea 7C       		.sleb128 -4
 1101 00eb 08       		.uleb128 0x8
 1102 00ec C7010000 		.4byte	.LASF22
 1103 00f0 7E       		.sleb128 -2
 1104 00f1 08       		.uleb128 0x8
 1105 00f2 D1020000 		.4byte	.LASF23
 1106 00f6 7F       		.sleb128 -1
 1107 00f7 08       		.uleb128 0x8
 1108 00f8 13010000 		.4byte	.LASF24
 1109 00fc 00       		.sleb128 0
 1110 00fd 08       		.uleb128 0x8
 1111 00fe 10000000 		.4byte	.LASF25
 1112 0102 01       		.sleb128 1
 1113 0103 08       		.uleb128 0x8
 1114 0104 7C050000 		.4byte	.LASF26
 1115 0108 02       		.sleb128 2
 1116 0109 08       		.uleb128 0x8
 1117 010a 9C060000 		.4byte	.LASF27
 1118 010e 03       		.sleb128 3
 1119 010f 08       		.uleb128 0x8
 1120 0110 C2040000 		.4byte	.LASF28
 1121 0114 04       		.sleb128 4
 1122 0115 08       		.uleb128 0x8
 1123 0116 D9060000 		.4byte	.LASF29
 1124 011a 05       		.sleb128 5
 1125 011b 08       		.uleb128 0x8
 1126 011c FA050000 		.4byte	.LASF30
 1127 0120 06       		.sleb128 6
 1128 0121 08       		.uleb128 0x8
 1129 0122 F3060000 		.4byte	.LASF31
 1130 0126 07       		.sleb128 7
 1131 0127 08       		.uleb128 0x8
 1132 0128 08010000 		.4byte	.LASF32
ARM GAS  /var/folders/dt/0wfd0knj7gs46m8vwfzktm600000gn/T//ccosKjmj.s 			page 21


 1133 012c 08       		.sleb128 8
 1134 012d 08       		.uleb128 0x8
 1135 012e 63030000 		.4byte	.LASF33
 1136 0132 09       		.sleb128 9
 1137 0133 08       		.uleb128 0x8
 1138 0134 7D040000 		.4byte	.LASF34
 1139 0138 0A       		.sleb128 10
 1140 0139 08       		.uleb128 0x8
 1141 013a A7030000 		.4byte	.LASF35
 1142 013e 0B       		.sleb128 11
 1143 013f 08       		.uleb128 0x8
 1144 0140 F0020000 		.4byte	.LASF36
 1145 0144 0C       		.sleb128 12
 1146 0145 08       		.uleb128 0x8
 1147 0146 81010000 		.4byte	.LASF37
 1148 014a 0D       		.sleb128 13
 1149 014b 08       		.uleb128 0x8
 1150 014c D3010000 		.4byte	.LASF38
 1151 0150 0E       		.sleb128 14
 1152 0151 08       		.uleb128 0x8
 1153 0152 76020000 		.4byte	.LASF39
 1154 0156 0F       		.sleb128 15
 1155 0157 08       		.uleb128 0x8
 1156 0158 61050000 		.4byte	.LASF40
 1157 015c 10       		.sleb128 16
 1158 015d 08       		.uleb128 0x8
 1159 015e BE020000 		.4byte	.LASF41
 1160 0162 11       		.sleb128 17
 1161 0163 08       		.uleb128 0x8
 1162 0164 A6010000 		.4byte	.LASF42
 1163 0168 12       		.sleb128 18
 1164 0169 08       		.uleb128 0x8
 1165 016a 52040000 		.4byte	.LASF43
 1166 016e 13       		.sleb128 19
 1167 016f 08       		.uleb128 0x8
 1168 0170 2B040000 		.4byte	.LASF44
 1169 0174 14       		.sleb128 20
 1170 0175 08       		.uleb128 0x8
 1171 0176 90000000 		.4byte	.LASF45
 1172 017a 15       		.sleb128 21
 1173 017b 08       		.uleb128 0x8
 1174 017c B9060000 		.4byte	.LASF46
 1175 0180 16       		.sleb128 22
 1176 0181 08       		.uleb128 0x8
 1177 0182 B8050000 		.4byte	.LASF47
 1178 0186 17       		.sleb128 23
 1179 0187 08       		.uleb128 0x8
 1180 0188 35050000 		.4byte	.LASF48
 1181 018c 18       		.sleb128 24
 1182 018d 08       		.uleb128 0x8
 1183 018e 88050000 		.4byte	.LASF49
 1184 0192 19       		.sleb128 25
 1185 0193 08       		.uleb128 0x8
 1186 0194 19000000 		.4byte	.LASF50
 1187 0198 1A       		.sleb128 26
 1188 0199 08       		.uleb128 0x8
 1189 019a DE020000 		.4byte	.LASF51
ARM GAS  /var/folders/dt/0wfd0knj7gs46m8vwfzktm600000gn/T//ccosKjmj.s 			page 22


 1190 019e 1B       		.sleb128 27
 1191 019f 08       		.uleb128 0x8
 1192 01a0 E3050000 		.4byte	.LASF52
 1193 01a4 1C       		.sleb128 28
 1194 01a5 08       		.uleb128 0x8
 1195 01a6 E2060000 		.4byte	.LASF53
 1196 01aa 1D       		.sleb128 29
 1197 01ab 08       		.uleb128 0x8
 1198 01ac FE000000 		.4byte	.LASF54
 1199 01b0 1E       		.sleb128 30
 1200 01b1 08       		.uleb128 0x8
 1201 01b2 83000000 		.4byte	.LASF55
 1202 01b6 1F       		.sleb128 31
 1203 01b7 08       		.uleb128 0x8
 1204 01b8 8F060000 		.4byte	.LASF56
 1205 01bc 20       		.sleb128 32
 1206 01bd 08       		.uleb128 0x8
 1207 01be 33030000 		.4byte	.LASF57
 1208 01c2 21       		.sleb128 33
 1209 01c3 08       		.uleb128 0x8
 1210 01c4 F1000000 		.4byte	.LASF58
 1211 01c8 22       		.sleb128 34
 1212 01c9 08       		.uleb128 0x8
 1213 01ca AB020000 		.4byte	.LASF59
 1214 01ce 23       		.sleb128 35
 1215 01cf 08       		.uleb128 0x8
 1216 01d0 6E030000 		.4byte	.LASF60
 1217 01d4 24       		.sleb128 36
 1218 01d5 08       		.uleb128 0x8
 1219 01d6 D0030000 		.4byte	.LASF61
 1220 01da 25       		.sleb128 37
 1221 01db 08       		.uleb128 0x8
 1222 01dc E4040000 		.4byte	.LASF62
 1223 01e0 26       		.sleb128 38
 1224 01e1 08       		.uleb128 0x8
 1225 01e2 CE050000 		.4byte	.LASF63
 1226 01e6 27       		.sleb128 39
 1227 01e7 08       		.uleb128 0x8
 1228 01e8 9C020000 		.4byte	.LASF64
 1229 01ec 28       		.sleb128 40
 1230 01ed 08       		.uleb128 0x8
 1231 01ee C8000000 		.4byte	.LASF65
 1232 01f2 29       		.sleb128 41
 1233 01f3 08       		.uleb128 0x8
 1234 01f4 81030000 		.4byte	.LASF66
 1235 01f8 2A       		.sleb128 42
 1236 01f9 08       		.uleb128 0x8
 1237 01fa 03030000 		.4byte	.LASF67
 1238 01fe 2B       		.sleb128 43
 1239 01ff 08       		.uleb128 0x8
 1240 0200 ED050000 		.4byte	.LASF68
 1241 0204 2C       		.sleb128 44
 1242 0205 08       		.uleb128 0x8
 1243 0206 40040000 		.4byte	.LASF69
 1244 020a 2D       		.sleb128 45
 1245 020b 08       		.uleb128 0x8
 1246 020c 1A030000 		.4byte	.LASF70
ARM GAS  /var/folders/dt/0wfd0knj7gs46m8vwfzktm600000gn/T//ccosKjmj.s 			page 23


 1247 0210 2E       		.sleb128 46
 1248 0211 08       		.uleb128 0x8
 1249 0212 77010000 		.4byte	.LASF71
 1250 0216 2F       		.sleb128 47
 1251 0217 08       		.uleb128 0x8
 1252 0218 F8030000 		.4byte	.LASF72
 1253 021c 30       		.sleb128 48
 1254 021d 08       		.uleb128 0x8
 1255 021e 1D010000 		.4byte	.LASF73
 1256 0222 31       		.sleb128 49
 1257 0223 08       		.uleb128 0x8
 1258 0224 59030000 		.4byte	.LASF74
 1259 0228 32       		.sleb128 50
 1260 0229 08       		.uleb128 0x8
 1261 022a A5060000 		.4byte	.LASF75
 1262 022e 33       		.sleb128 51
 1263 022f 08       		.uleb128 0x8
 1264 0230 B2010000 		.4byte	.LASF76
 1265 0234 34       		.sleb128 52
 1266 0235 08       		.uleb128 0x8
 1267 0236 92040000 		.4byte	.LASF77
 1268 023a 35       		.sleb128 53
 1269 023b 08       		.uleb128 0x8
 1270 023c 73040000 		.4byte	.LASF78
 1271 0240 36       		.sleb128 54
 1272 0241 08       		.uleb128 0x8
 1273 0242 43050000 		.4byte	.LASF79
 1274 0246 37       		.sleb128 55
 1275 0247 08       		.uleb128 0x8
 1276 0248 B5000000 		.4byte	.LASF80
 1277 024c 38       		.sleb128 56
 1278 024d 08       		.uleb128 0x8
 1279 024e 40030000 		.4byte	.LASF81
 1280 0252 39       		.sleb128 57
 1281 0253 08       		.uleb128 0x8
 1282 0254 02040000 		.4byte	.LASF82
 1283 0258 3A       		.sleb128 58
 1284 0259 08       		.uleb128 0x8
 1285 025a 9D040000 		.4byte	.LASF83
 1286 025e 3B       		.sleb128 59
 1287 025f 00       		.byte	0
 1288 0260 06       		.uleb128 0x6
 1289 0261 69000000 		.4byte	0x69
 1290 0265 09       		.uleb128 0x9
 1291 0266 10       		.byte	0x10
 1292 0267 04       		.byte	0x4
 1293 0268 2D03     		.2byte	0x32d
 1294 026a AB020000 		.4byte	0x2ab
 1295 026e 0A       		.uleb128 0xa
 1296 026f 43435200 		.ascii	"CCR\000"
 1297 0273 04       		.byte	0x4
 1298 0274 2F03     		.2byte	0x32f
 1299 0276 A8000000 		.4byte	0xa8
 1300 027a 02       		.byte	0x2
 1301 027b 23       		.byte	0x23
 1302 027c 00       		.uleb128 0
 1303 027d 0B       		.uleb128 0xb
ARM GAS  /var/folders/dt/0wfd0knj7gs46m8vwfzktm600000gn/T//ccosKjmj.s 			page 24


 1304 027e 05060000 		.4byte	.LASF84
 1305 0282 04       		.byte	0x4
 1306 0283 3003     		.2byte	0x330
 1307 0285 A8000000 		.4byte	0xa8
 1308 0289 02       		.byte	0x2
 1309 028a 23       		.byte	0x23
 1310 028b 04       		.uleb128 0x4
 1311 028c 0B       		.uleb128 0xb
 1312 028d 29020000 		.4byte	.LASF85
 1313 0291 04       		.byte	0x4
 1314 0292 3103     		.2byte	0x331
 1315 0294 A8000000 		.4byte	0xa8
 1316 0298 02       		.byte	0x2
 1317 0299 23       		.byte	0x23
 1318 029a 08       		.uleb128 0x8
 1319 029b 0B       		.uleb128 0xb
 1320 029c 7E000000 		.4byte	.LASF86
 1321 02a0 04       		.byte	0x4
 1322 02a1 3203     		.2byte	0x332
 1323 02a3 A8000000 		.4byte	0xa8
 1324 02a7 02       		.byte	0x2
 1325 02a8 23       		.byte	0x23
 1326 02a9 0C       		.uleb128 0xc
 1327 02aa 00       		.byte	0
 1328 02ab 0C       		.uleb128 0xc
 1329 02ac 5B020000 		.4byte	.LASF87
 1330 02b0 04       		.byte	0x4
 1331 02b1 3303     		.2byte	0x333
 1332 02b3 65020000 		.4byte	0x265
 1333 02b7 09       		.uleb128 0x9
 1334 02b8 08       		.byte	0x8
 1335 02b9 04       		.byte	0x4
 1336 02ba 3503     		.2byte	0x335
 1337 02bc DF020000 		.4byte	0x2df
 1338 02c0 0A       		.uleb128 0xa
 1339 02c1 49535200 		.ascii	"ISR\000"
 1340 02c5 04       		.byte	0x4
 1341 02c6 3703     		.2byte	0x337
 1342 02c8 A8000000 		.4byte	0xa8
 1343 02cc 02       		.byte	0x2
 1344 02cd 23       		.byte	0x23
 1345 02ce 00       		.uleb128 0
 1346 02cf 0B       		.uleb128 0xb
 1347 02d0 11050000 		.4byte	.LASF88
 1348 02d4 04       		.byte	0x4
 1349 02d5 3803     		.2byte	0x338
 1350 02d7 A8000000 		.4byte	0xa8
 1351 02db 02       		.byte	0x2
 1352 02dc 23       		.byte	0x23
 1353 02dd 04       		.uleb128 0x4
 1354 02de 00       		.byte	0
 1355 02df 0C       		.uleb128 0xc
 1356 02e0 FE010000 		.4byte	.LASF89
 1357 02e4 04       		.byte	0x4
 1358 02e5 3903     		.2byte	0x339
 1359 02e7 B7020000 		.4byte	0x2b7
 1360 02eb 09       		.uleb128 0x9
ARM GAS  /var/folders/dt/0wfd0knj7gs46m8vwfzktm600000gn/T//ccosKjmj.s 			page 25


 1361 02ec 28       		.byte	0x28
 1362 02ed 04       		.byte	0x4
 1363 02ee 4304     		.2byte	0x443
 1364 02f0 8A030000 		.4byte	0x38a
 1365 02f4 0A       		.uleb128 0xa
 1366 02f5 435200   		.ascii	"CR\000"
 1367 02f8 04       		.byte	0x4
 1368 02f9 4504     		.2byte	0x445
 1369 02fb A8000000 		.4byte	0xa8
 1370 02ff 02       		.byte	0x2
 1371 0300 23       		.byte	0x23
 1372 0301 00       		.uleb128 0
 1373 0302 0B       		.uleb128 0xb
 1374 0303 49060000 		.4byte	.LASF90
 1375 0307 04       		.byte	0x4
 1376 0308 4604     		.2byte	0x446
 1377 030a A8000000 		.4byte	0xa8
 1378 030e 02       		.byte	0x2
 1379 030f 23       		.byte	0x23
 1380 0310 04       		.uleb128 0x4
 1381 0311 0A       		.uleb128 0xa
 1382 0312 43495200 		.ascii	"CIR\000"
 1383 0316 04       		.byte	0x4
 1384 0317 4704     		.2byte	0x447
 1385 0319 A8000000 		.4byte	0xa8
 1386 031d 02       		.byte	0x2
 1387 031e 23       		.byte	0x23
 1388 031f 08       		.uleb128 0x8
 1389 0320 0B       		.uleb128 0xb
 1390 0321 69010000 		.4byte	.LASF91
 1391 0325 04       		.byte	0x4
 1392 0326 4804     		.2byte	0x448
 1393 0328 A8000000 		.4byte	0xa8
 1394 032c 02       		.byte	0x2
 1395 032d 23       		.byte	0x23
 1396 032e 0C       		.uleb128 0xc
 1397 032f 0B       		.uleb128 0xb
 1398 0330 9E030000 		.4byte	.LASF92
 1399 0334 04       		.byte	0x4
 1400 0335 4904     		.2byte	0x449
 1401 0337 A8000000 		.4byte	0xa8
 1402 033b 02       		.byte	0x2
 1403 033c 23       		.byte	0x23
 1404 033d 10       		.uleb128 0x10
 1405 033e 0B       		.uleb128 0xb
 1406 033f EC060000 		.4byte	.LASF93
 1407 0343 04       		.byte	0x4
 1408 0344 4A04     		.2byte	0x44a
 1409 0346 A8000000 		.4byte	0xa8
 1410 034a 02       		.byte	0x2
 1411 034b 23       		.byte	0x23
 1412 034c 14       		.uleb128 0x14
 1413 034d 0B       		.uleb128 0xb
 1414 034e B2040000 		.4byte	.LASF94
 1415 0352 04       		.byte	0x4
 1416 0353 4B04     		.2byte	0x44b
 1417 0355 A8000000 		.4byte	0xa8
ARM GAS  /var/folders/dt/0wfd0knj7gs46m8vwfzktm600000gn/T//ccosKjmj.s 			page 26


 1418 0359 02       		.byte	0x2
 1419 035a 23       		.byte	0x23
 1420 035b 18       		.uleb128 0x18
 1421 035c 0B       		.uleb128 0xb
 1422 035d 74050000 		.4byte	.LASF95
 1423 0361 04       		.byte	0x4
 1424 0362 4C04     		.2byte	0x44c
 1425 0364 A8000000 		.4byte	0xa8
 1426 0368 02       		.byte	0x2
 1427 0369 23       		.byte	0x23
 1428 036a 1C       		.uleb128 0x1c
 1429 036b 0B       		.uleb128 0xb
 1430 036c 0B060000 		.4byte	.LASF96
 1431 0370 04       		.byte	0x4
 1432 0371 4D04     		.2byte	0x44d
 1433 0373 A8000000 		.4byte	0xa8
 1434 0377 02       		.byte	0x2
 1435 0378 23       		.byte	0x23
 1436 0379 20       		.uleb128 0x20
 1437 037a 0A       		.uleb128 0xa
 1438 037b 43535200 		.ascii	"CSR\000"
 1439 037f 04       		.byte	0x4
 1440 0380 4E04     		.2byte	0x44e
 1441 0382 A8000000 		.4byte	0xa8
 1442 0386 02       		.byte	0x2
 1443 0387 23       		.byte	0x23
 1444 0388 24       		.uleb128 0x24
 1445 0389 00       		.byte	0
 1446 038a 0C       		.uleb128 0xc
 1447 038b 4F020000 		.4byte	.LASF97
 1448 038f 04       		.byte	0x4
 1449 0390 5904     		.2byte	0x459
 1450 0392 EB020000 		.4byte	0x2eb
 1451 0396 0D       		.uleb128 0xd
 1452 0397 0C       		.byte	0xc
 1453 0398 05       		.byte	0x5
 1454 0399 C2       		.byte	0xc2
 1455 039a E5030000 		.4byte	0x3e5
 1456 039e 0E       		.uleb128 0xe
 1457 039f BA040000 		.4byte	.LASF98
 1458 03a3 05       		.byte	0x5
 1459 03a4 C3       		.byte	0xc3
 1460 03a5 E5030000 		.4byte	0x3e5
 1461 03a9 02       		.byte	0x2
 1462 03aa 23       		.byte	0x23
 1463 03ab 00       		.uleb128 0
 1464 03ac 0E       		.uleb128 0xe
 1465 03ad CD040000 		.4byte	.LASF99
 1466 03b1 05       		.byte	0x5
 1467 03b2 C4       		.byte	0xc4
 1468 03b3 EB030000 		.4byte	0x3eb
 1469 03b7 02       		.byte	0x2
 1470 03b8 23       		.byte	0x23
 1471 03b9 04       		.uleb128 0x4
 1472 03ba 0E       		.uleb128 0xe
 1473 03bb 6F020000 		.4byte	.LASF100
 1474 03bf 05       		.byte	0x5
ARM GAS  /var/folders/dt/0wfd0knj7gs46m8vwfzktm600000gn/T//ccosKjmj.s 			page 27


 1475 03c0 C5       		.byte	0xc5
 1476 03c1 3E000000 		.4byte	0x3e
 1477 03c5 02       		.byte	0x2
 1478 03c6 23       		.byte	0x23
 1479 03c7 08       		.uleb128 0x8
 1480 03c8 0E       		.uleb128 0xe
 1481 03c9 F4010000 		.4byte	.LASF101
 1482 03cd 05       		.byte	0x5
 1483 03ce C7       		.byte	0xc7
 1484 03cf 3E000000 		.4byte	0x3e
 1485 03d3 02       		.byte	0x2
 1486 03d4 23       		.byte	0x23
 1487 03d5 09       		.uleb128 0x9
 1488 03d6 0E       		.uleb128 0xe
 1489 03d7 D7000000 		.4byte	.LASF102
 1490 03db 05       		.byte	0x5
 1491 03dc C8       		.byte	0xc8
 1492 03dd 3E000000 		.4byte	0x3e
 1493 03e1 02       		.byte	0x2
 1494 03e2 23       		.byte	0x23
 1495 03e3 0A       		.uleb128 0xa
 1496 03e4 00       		.byte	0
 1497 03e5 0F       		.uleb128 0xf
 1498 03e6 04       		.byte	0x4
 1499 03e7 AB020000 		.4byte	0x2ab
 1500 03eb 0F       		.uleb128 0xf
 1501 03ec 04       		.byte	0x4
 1502 03ed A8000000 		.4byte	0xa8
 1503 03f1 04       		.uleb128 0x4
 1504 03f2 DC030000 		.4byte	.LASF103
 1505 03f6 05       		.byte	0x5
 1506 03f7 C9       		.byte	0xc9
 1507 03f8 96030000 		.4byte	0x396
 1508 03fc 04       		.uleb128 0x4
 1509 03fd 2E020000 		.4byte	.LASF104
 1510 0401 05       		.byte	0x5
 1511 0402 D2       		.byte	0xd2
 1512 0403 07040000 		.4byte	0x407
 1513 0407 0F       		.uleb128 0xf
 1514 0408 04       		.byte	0x4
 1515 0409 0D040000 		.4byte	0x40d
 1516 040d 10       		.uleb128 0x10
 1517 040e 01       		.byte	0x1
 1518 040f 1E040000 		.4byte	0x41e
 1519 0413 11       		.uleb128 0x11
 1520 0414 A6000000 		.4byte	0xa6
 1521 0418 11       		.uleb128 0x11
 1522 0419 7B000000 		.4byte	0x7b
 1523 041d 00       		.byte	0
 1524 041e 0F       		.uleb128 0xf
 1525 041f 04       		.byte	0x4
 1526 0420 24040000 		.4byte	0x424
 1527 0424 12       		.uleb128 0x12
 1528 0425 F1030000 		.4byte	0x3f1
 1529 0429 0D       		.uleb128 0xd
 1530 042a 08       		.byte	0x8
 1531 042b 01       		.byte	0x1
ARM GAS  /var/folders/dt/0wfd0knj7gs46m8vwfzktm600000gn/T//ccosKjmj.s 			page 28


 1532 042c 6D       		.byte	0x6d
 1533 042d 4E040000 		.4byte	0x44e
 1534 0431 0E       		.uleb128 0xe
 1535 0432 78030000 		.4byte	.LASF105
 1536 0436 01       		.byte	0x1
 1537 0437 6E       		.byte	0x6e
 1538 0438 FC030000 		.4byte	0x3fc
 1539 043c 02       		.byte	0x2
 1540 043d 23       		.byte	0x23
 1541 043e 00       		.uleb128 0
 1542 043f 0E       		.uleb128 0xe
 1543 0440 BD010000 		.4byte	.LASF106
 1544 0444 01       		.byte	0x1
 1545 0445 6F       		.byte	0x6f
 1546 0446 A6000000 		.4byte	0xa6
 1547 044a 02       		.byte	0x2
 1548 044b 23       		.byte	0x23
 1549 044c 04       		.uleb128 0x4
 1550 044d 00       		.byte	0
 1551 044e 04       		.uleb128 0x4
 1552 044f 00000000 		.4byte	.LASF107
 1553 0453 01       		.byte	0x1
 1554 0454 70       		.byte	0x70
 1555 0455 29040000 		.4byte	0x429
 1556 0459 13       		.uleb128 0x13
 1557 045a 01       		.byte	0x1
 1558 045b EF030000 		.4byte	.LASF108
 1559 045f 01       		.byte	0x1
 1560 0460 89       		.byte	0x89
 1561 0461 01       		.byte	0x1
 1562 0462 00000000 		.4byte	.LFB62
 1563 0466 28000000 		.4byte	.LFE62
 1564 046a 00000000 		.4byte	.LLST0
 1565 046e 01       		.byte	0x1
 1566 046f 8D040000 		.4byte	0x48d
 1567 0473 14       		.uleb128 0x14
 1568 0474 2B060000 		.4byte	.LASF110
 1569 0478 01       		.byte	0x1
 1570 0479 8A       		.byte	0x8a
 1571 047a 7B000000 		.4byte	0x7b
 1572 047e 20000000 		.4byte	.LLST1
 1573 0482 15       		.uleb128 0x15
 1574 0483 24000000 		.4byte	.LVL2
 1575 0487 01       		.byte	0x1
 1576 0488 D6070000 		.4byte	0x7d6
 1577 048c 00       		.byte	0
 1578 048d 13       		.uleb128 0x13
 1579 048e 01       		.byte	0x1
 1580 048f D2040000 		.4byte	.LASF109
 1581 0493 01       		.byte	0x1
 1582 0494 9B       		.byte	0x9b
 1583 0495 01       		.byte	0x1
 1584 0496 00000000 		.4byte	.LFB63
 1585 049a 28000000 		.4byte	.LFE63
 1586 049e 33000000 		.4byte	.LLST2
 1587 04a2 01       		.byte	0x1
 1588 04a3 C1040000 		.4byte	0x4c1
ARM GAS  /var/folders/dt/0wfd0knj7gs46m8vwfzktm600000gn/T//ccosKjmj.s 			page 29


 1589 04a7 14       		.uleb128 0x14
 1590 04a8 2B060000 		.4byte	.LASF110
 1591 04ac 01       		.byte	0x1
 1592 04ad 9C       		.byte	0x9c
 1593 04ae 7B000000 		.4byte	0x7b
 1594 04b2 53000000 		.4byte	.LLST3
 1595 04b6 15       		.uleb128 0x15
 1596 04b7 24000000 		.4byte	.LVL5
 1597 04bb 01       		.byte	0x1
 1598 04bc D6070000 		.4byte	0x7d6
 1599 04c0 00       		.byte	0
 1600 04c1 13       		.uleb128 0x13
 1601 04c2 01       		.byte	0x1
 1602 04c3 DB040000 		.4byte	.LASF111
 1603 04c7 01       		.byte	0x1
 1604 04c8 AD       		.byte	0xad
 1605 04c9 01       		.byte	0x1
 1606 04ca 00000000 		.4byte	.LFB64
 1607 04ce 2C000000 		.4byte	.LFE64
 1608 04d2 66000000 		.4byte	.LLST4
 1609 04d6 01       		.byte	0x1
 1610 04d7 F5040000 		.4byte	0x4f5
 1611 04db 14       		.uleb128 0x14
 1612 04dc 2B060000 		.4byte	.LASF110
 1613 04e0 01       		.byte	0x1
 1614 04e1 AE       		.byte	0xae
 1615 04e2 7B000000 		.4byte	0x7b
 1616 04e6 86000000 		.4byte	.LLST5
 1617 04ea 15       		.uleb128 0x15
 1618 04eb 26000000 		.4byte	.LVL8
 1619 04ef 01       		.byte	0x1
 1620 04f0 D6070000 		.4byte	0x7d6
 1621 04f4 00       		.byte	0
 1622 04f5 13       		.uleb128 0x13
 1623 04f6 01       		.byte	0x1
 1624 04f7 00050000 		.4byte	.LASF112
 1625 04fb 01       		.byte	0x1
 1626 04fc BF       		.byte	0xbf
 1627 04fd 01       		.byte	0x1
 1628 04fe 00000000 		.4byte	.LFB65
 1629 0502 2C000000 		.4byte	.LFE65
 1630 0506 99000000 		.4byte	.LLST6
 1631 050a 01       		.byte	0x1
 1632 050b 29050000 		.4byte	0x529
 1633 050f 14       		.uleb128 0x14
 1634 0510 2B060000 		.4byte	.LASF110
 1635 0514 01       		.byte	0x1
 1636 0515 C0       		.byte	0xc0
 1637 0516 7B000000 		.4byte	0x7b
 1638 051a B9000000 		.4byte	.LLST7
 1639 051e 15       		.uleb128 0x15
 1640 051f 26000000 		.4byte	.LVL11
 1641 0523 01       		.byte	0x1
 1642 0524 D6070000 		.4byte	0x7d6
 1643 0528 00       		.byte	0
 1644 0529 13       		.uleb128 0x13
 1645 052a 01       		.byte	0x1
ARM GAS  /var/folders/dt/0wfd0knj7gs46m8vwfzktm600000gn/T//ccosKjmj.s 			page 30


 1646 052b 2C050000 		.4byte	.LASF113
 1647 052f 01       		.byte	0x1
 1648 0530 D1       		.byte	0xd1
 1649 0531 01       		.byte	0x1
 1650 0532 00000000 		.4byte	.LFB66
 1651 0536 2C000000 		.4byte	.LFE66
 1652 053a CC000000 		.4byte	.LLST8
 1653 053e 01       		.byte	0x1
 1654 053f 5D050000 		.4byte	0x55d
 1655 0543 14       		.uleb128 0x14
 1656 0544 2B060000 		.4byte	.LASF110
 1657 0548 01       		.byte	0x1
 1658 0549 D2       		.byte	0xd2
 1659 054a 7B000000 		.4byte	0x7b
 1660 054e EC000000 		.4byte	.LLST9
 1661 0552 15       		.uleb128 0x15
 1662 0553 26000000 		.4byte	.LVL14
 1663 0557 01       		.byte	0x1
 1664 0558 D6070000 		.4byte	0x7d6
 1665 055c 00       		.byte	0
 1666 055d 13       		.uleb128 0x13
 1667 055e 01       		.byte	0x1
 1668 055f C5050000 		.4byte	.LASF114
 1669 0563 01       		.byte	0x1
 1670 0564 E3       		.byte	0xe3
 1671 0565 01       		.byte	0x1
 1672 0566 00000000 		.4byte	.LFB67
 1673 056a 2C000000 		.4byte	.LFE67
 1674 056e FF000000 		.4byte	.LLST10
 1675 0572 01       		.byte	0x1
 1676 0573 91050000 		.4byte	0x591
 1677 0577 14       		.uleb128 0x14
 1678 0578 2B060000 		.4byte	.LASF110
 1679 057c 01       		.byte	0x1
 1680 057d E4       		.byte	0xe4
 1681 057e 7B000000 		.4byte	0x7b
 1682 0582 1F010000 		.4byte	.LLST11
 1683 0586 15       		.uleb128 0x15
 1684 0587 26000000 		.4byte	.LVL17
 1685 058b 01       		.byte	0x1
 1686 058c D6070000 		.4byte	0x7d6
 1687 0590 00       		.byte	0
 1688 0591 13       		.uleb128 0x13
 1689 0592 01       		.byte	0x1
 1690 0593 DA050000 		.4byte	.LASF115
 1691 0597 01       		.byte	0x1
 1692 0598 F5       		.byte	0xf5
 1693 0599 01       		.byte	0x1
 1694 059a 00000000 		.4byte	.LFB68
 1695 059e 2C000000 		.4byte	.LFE68
 1696 05a2 32010000 		.4byte	.LLST12
 1697 05a6 01       		.byte	0x1
 1698 05a7 C5050000 		.4byte	0x5c5
 1699 05ab 14       		.uleb128 0x14
 1700 05ac 2B060000 		.4byte	.LASF110
 1701 05b0 01       		.byte	0x1
 1702 05b1 F6       		.byte	0xf6
ARM GAS  /var/folders/dt/0wfd0knj7gs46m8vwfzktm600000gn/T//ccosKjmj.s 			page 31


 1703 05b2 7B000000 		.4byte	0x7b
 1704 05b6 52010000 		.4byte	.LLST13
 1705 05ba 15       		.uleb128 0x15
 1706 05bb 26000000 		.4byte	.LVL20
 1707 05bf 01       		.byte	0x1
 1708 05c0 D6070000 		.4byte	0x7d6
 1709 05c4 00       		.byte	0
 1710 05c5 16       		.uleb128 0x16
 1711 05c6 01       		.byte	0x1
 1712 05c7 3F060000 		.4byte	.LASF116
 1713 05cb 01       		.byte	0x1
 1714 05cc 0801     		.2byte	0x108
 1715 05ce 01       		.byte	0x1
 1716 05cf 00000000 		.4byte	.LFB69
 1717 05d3 2C000000 		.4byte	.LFE69
 1718 05d7 65010000 		.4byte	.LLST14
 1719 05db 01       		.byte	0x1
 1720 05dc FB050000 		.4byte	0x5fb
 1721 05e0 17       		.uleb128 0x17
 1722 05e1 2B060000 		.4byte	.LASF110
 1723 05e5 01       		.byte	0x1
 1724 05e6 0901     		.2byte	0x109
 1725 05e8 7B000000 		.4byte	0x7b
 1726 05ec 85010000 		.4byte	.LLST15
 1727 05f0 15       		.uleb128 0x15
 1728 05f1 26000000 		.4byte	.LVL23
 1729 05f5 01       		.byte	0x1
 1730 05f6 D6070000 		.4byte	0x7d6
 1731 05fa 00       		.byte	0
 1732 05fb 16       		.uleb128 0x16
 1733 05fc 01       		.byte	0x1
 1734 05fd 4E060000 		.4byte	.LASF117
 1735 0601 01       		.byte	0x1
 1736 0602 1A01     		.2byte	0x11a
 1737 0604 01       		.byte	0x1
 1738 0605 00000000 		.4byte	.LFB70
 1739 0609 2C000000 		.4byte	.LFE70
 1740 060d 98010000 		.4byte	.LLST16
 1741 0611 01       		.byte	0x1
 1742 0612 31060000 		.4byte	0x631
 1743 0616 17       		.uleb128 0x17
 1744 0617 2B060000 		.4byte	.LASF110
 1745 061b 01       		.byte	0x1
 1746 061c 1B01     		.2byte	0x11b
 1747 061e 7B000000 		.4byte	0x7b
 1748 0622 B8010000 		.4byte	.LLST17
 1749 0626 15       		.uleb128 0x15
 1750 0627 26000000 		.4byte	.LVL26
 1751 062b 01       		.byte	0x1
 1752 062c D6070000 		.4byte	0x7d6
 1753 0630 00       		.byte	0
 1754 0631 16       		.uleb128 0x16
 1755 0632 01       		.byte	0x1
 1756 0633 58060000 		.4byte	.LASF118
 1757 0637 01       		.byte	0x1
 1758 0638 2C01     		.2byte	0x12c
 1759 063a 01       		.byte	0x1
ARM GAS  /var/folders/dt/0wfd0knj7gs46m8vwfzktm600000gn/T//ccosKjmj.s 			page 32


 1760 063b 00000000 		.4byte	.LFB71
 1761 063f 2C000000 		.4byte	.LFE71
 1762 0643 CB010000 		.4byte	.LLST18
 1763 0647 01       		.byte	0x1
 1764 0648 67060000 		.4byte	0x667
 1765 064c 17       		.uleb128 0x17
 1766 064d 2B060000 		.4byte	.LASF110
 1767 0651 01       		.byte	0x1
 1768 0652 2D01     		.2byte	0x12d
 1769 0654 7B000000 		.4byte	0x7b
 1770 0658 EB010000 		.4byte	.LLST19
 1771 065c 15       		.uleb128 0x15
 1772 065d 28000000 		.4byte	.LVL29
 1773 0661 01       		.byte	0x1
 1774 0662 D6070000 		.4byte	0x7d6
 1775 0666 00       		.byte	0
 1776 0667 16       		.uleb128 0x16
 1777 0668 01       		.byte	0x1
 1778 0669 AF060000 		.4byte	.LASF119
 1779 066d 01       		.byte	0x1
 1780 066e 6501     		.2byte	0x165
 1781 0670 01       		.byte	0x1
 1782 0671 00000000 		.4byte	.LFB72
 1783 0675 50000000 		.4byte	.LFE72
 1784 0679 FE010000 		.4byte	.LLST20
 1785 067d 01       		.byte	0x1
 1786 067e 9D060000 		.4byte	0x69d
 1787 0682 17       		.uleb128 0x17
 1788 0683 2B060000 		.4byte	.LASF110
 1789 0687 01       		.byte	0x1
 1790 0688 6601     		.2byte	0x166
 1791 068a 7B000000 		.4byte	0x7b
 1792 068e 1E020000 		.4byte	.LLST21
 1793 0692 15       		.uleb128 0x15
 1794 0693 4A000000 		.4byte	.LVL34
 1795 0697 01       		.byte	0x1
 1796 0698 D6070000 		.4byte	0x7d6
 1797 069c 00       		.byte	0
 1798 069d 18       		.uleb128 0x18
 1799 069e 01       		.byte	0x1
 1800 069f 09050000 		.4byte	.LASF120
 1801 06a3 01       		.byte	0x1
 1802 06a4 8801     		.2byte	0x188
 1803 06a6 01       		.byte	0x1
 1804 06a7 00000000 		.4byte	.LFB73
 1805 06ab 44000000 		.4byte	.LFE73
 1806 06af 3C020000 		.4byte	.LLST22
 1807 06b3 01       		.byte	0x1
 1808 06b4 C7060000 		.4byte	0x6c7
 1809 06b8 19       		.uleb128 0x19
 1810 06b9 6900     		.ascii	"i\000"
 1811 06bb 01       		.byte	0x1
 1812 06bc 8901     		.2byte	0x189
 1813 06be 29000000 		.4byte	0x29
 1814 06c2 5C020000 		.4byte	.LLST23
 1815 06c6 00       		.byte	0
 1816 06c7 1A       		.uleb128 0x1a
ARM GAS  /var/folders/dt/0wfd0knj7gs46m8vwfzktm600000gn/T//ccosKjmj.s 			page 33


 1817 06c8 01       		.byte	0x1
 1818 06c9 C7060000 		.4byte	.LASF134
 1819 06cd 01       		.byte	0x1
 1820 06ce AE01     		.2byte	0x1ae
 1821 06d0 01       		.byte	0x1
 1822 06d1 9B000000 		.4byte	0x9b
 1823 06d5 00000000 		.4byte	.LFB74
 1824 06d9 90000000 		.4byte	.LFE74
 1825 06dd 70020000 		.4byte	.LLST24
 1826 06e1 01       		.byte	0x1
 1827 06e2 3A070000 		.4byte	0x73a
 1828 06e6 1B       		.uleb128 0x1b
 1829 06e7 59010000 		.4byte	.LASF121
 1830 06eb 01       		.byte	0x1
 1831 06ec AE01     		.2byte	0x1ae
 1832 06ee 1E040000 		.4byte	0x41e
 1833 06f2 90020000 		.4byte	.LLST25
 1834 06f6 1B       		.uleb128 0x1b
 1835 06f7 B5020000 		.4byte	.LASF122
 1836 06fb 01       		.byte	0x1
 1837 06fc AF01     		.2byte	0x1af
 1838 06fe 7B000000 		.4byte	0x7b
 1839 0702 E3020000 		.4byte	.LLST26
 1840 0706 1B       		.uleb128 0x1b
 1841 0707 72010000 		.4byte	.LASF123
 1842 070b 01       		.byte	0x1
 1843 070c B001     		.2byte	0x1b0
 1844 070e FC030000 		.4byte	0x3fc
 1845 0712 0F030000 		.4byte	.LLST27
 1846 0716 1B       		.uleb128 0x1b
 1847 0717 53030000 		.4byte	.LASF124
 1848 071b 01       		.byte	0x1
 1849 071c B101     		.2byte	0x1b1
 1850 071e A6000000 		.4byte	0xa6
 1851 0722 3B030000 		.4byte	.LLST28
 1852 0726 1C       		.uleb128 0x1c
 1853 0727 7A000000 		.4byte	.LVL42
 1854 072b E1070000 		.4byte	0x7e1
 1855 072f 1D       		.uleb128 0x1d
 1856 0730 01       		.byte	0x1
 1857 0731 51       		.byte	0x51
 1858 0732 05       		.byte	0x5
 1859 0733 F3       		.byte	0xf3
 1860 0734 01       		.uleb128 0x1
 1861 0735 51       		.byte	0x51
 1862 0736 34       		.byte	0x34
 1863 0737 24       		.byte	0x24
 1864 0738 00       		.byte	0
 1865 0739 00       		.byte	0
 1866 073a 18       		.uleb128 0x18
 1867 073b 01       		.byte	0x1
 1868 073c 1B050000 		.4byte	.LASF125
 1869 0740 01       		.byte	0x1
 1870 0741 DE01     		.2byte	0x1de
 1871 0743 01       		.byte	0x1
 1872 0744 00000000 		.4byte	.LFB75
 1873 0748 50000000 		.4byte	.LFE75
ARM GAS  /var/folders/dt/0wfd0knj7gs46m8vwfzktm600000gn/T//ccosKjmj.s 			page 34


 1874 074c D9030000 		.4byte	.LLST29
 1875 0750 01       		.byte	0x1
 1876 0751 6F070000 		.4byte	0x76f
 1877 0755 1B       		.uleb128 0x1b
 1878 0756 59010000 		.4byte	.LASF121
 1879 075a 01       		.byte	0x1
 1880 075b DE01     		.2byte	0x1de
 1881 075d 1E040000 		.4byte	0x41e
 1882 0761 F9030000 		.4byte	.LLST30
 1883 0765 1E       		.uleb128 0x1e
 1884 0766 0A000000 		.4byte	.LVL49
 1885 076a FB070000 		.4byte	0x7fb
 1886 076e 00       		.byte	0
 1887 076f 1F       		.uleb128 0x1f
 1888 0770 95050000 		.4byte	.LASF126
 1889 0774 01       		.byte	0x1
 1890 0775 75       		.byte	0x75
 1891 0776 7B000000 		.4byte	0x7b
 1892 077a 05       		.byte	0x5
 1893 077b 03       		.byte	0x3
 1894 077c 00000000 		.4byte	dma_streams_mask
 1895 0780 20       		.uleb128 0x20
 1896 0781 4E040000 		.4byte	0x44e
 1897 0785 90070000 		.4byte	0x790
 1898 0789 21       		.uleb128 0x21
 1899 078a AD000000 		.4byte	0xad
 1900 078e 0B       		.byte	0xb
 1901 078f 00       		.byte	0
 1902 0790 1F       		.uleb128 0x1f
 1903 0791 31060000 		.4byte	.LASF127
 1904 0795 01       		.byte	0x1
 1905 0796 7A       		.byte	0x7a
 1906 0797 80070000 		.4byte	0x780
 1907 079b 05       		.byte	0x5
 1908 079c 03       		.byte	0x3
 1909 079d 00000000 		.4byte	dma_isr_redir
 1910 07a1 22       		.uleb128 0x22
 1911 07a2 66040000 		.4byte	.LASF128
 1912 07a6 06       		.byte	0x6
 1913 07a7 9404     		.2byte	0x494
 1914 07a9 60020000 		.4byte	0x260
 1915 07ad 01       		.byte	0x1
 1916 07ae 01       		.byte	0x1
 1917 07af 20       		.uleb128 0x20
 1918 07b0 F1030000 		.4byte	0x3f1
 1919 07b4 BF070000 		.4byte	0x7bf
 1920 07b8 21       		.uleb128 0x21
 1921 07b9 AD000000 		.4byte	0xad
 1922 07bd 0B       		.byte	0xb
 1923 07be 00       		.byte	0
 1924 07bf 23       		.uleb128 0x23
 1925 07c0 DE000000 		.4byte	.LASF129
 1926 07c4 01       		.byte	0x1
 1927 07c5 50       		.byte	0x50
 1928 07c6 D1070000 		.4byte	0x7d1
 1929 07ca 01       		.byte	0x1
 1930 07cb 05       		.byte	0x5
ARM GAS  /var/folders/dt/0wfd0knj7gs46m8vwfzktm600000gn/T//ccosKjmj.s 			page 35


 1931 07cc 03       		.byte	0x3
 1932 07cd 00000000 		.4byte	_stm32_dma_streams
 1933 07d1 12       		.uleb128 0x12
 1934 07d2 AF070000 		.4byte	0x7af
 1935 07d6 24       		.uleb128 0x24
 1936 07d7 01       		.byte	0x1
 1937 07d8 10060000 		.4byte	.LASF135
 1938 07dc 07       		.byte	0x7
 1939 07dd F501     		.2byte	0x1f5
 1940 07df 01       		.byte	0x1
 1941 07e0 01       		.byte	0x1
 1942 07e1 25       		.uleb128 0x25
 1943 07e2 01       		.byte	0x1
 1944 07e3 27010000 		.4byte	.LASF136
 1945 07e7 08       		.byte	0x8
 1946 07e8 2301     		.2byte	0x123
 1947 07ea 01       		.byte	0x1
 1948 07eb 01       		.byte	0x1
 1949 07ec FB070000 		.4byte	0x7fb
 1950 07f0 11       		.uleb128 0x11
 1951 07f1 7B000000 		.4byte	0x7b
 1952 07f5 11       		.uleb128 0x11
 1953 07f6 7B000000 		.4byte	0x7b
 1954 07fa 00       		.byte	0
 1955 07fb 26       		.uleb128 0x26
 1956 07fc 01       		.byte	0x1
 1957 07fd 17020000 		.4byte	.LASF137
 1958 0801 08       		.byte	0x8
 1959 0802 2401     		.2byte	0x124
 1960 0804 01       		.byte	0x1
 1961 0805 01       		.byte	0x1
 1962 0806 11       		.uleb128 0x11
 1963 0807 7B000000 		.4byte	0x7b
 1964 080b 00       		.byte	0
 1965 080c 00       		.byte	0
 1966              		.section	.debug_abbrev,"",%progbits
 1967              	.Ldebug_abbrev0:
 1968 0000 01       		.uleb128 0x1
 1969 0001 11       		.uleb128 0x11
 1970 0002 01       		.byte	0x1
 1971 0003 25       		.uleb128 0x25
 1972 0004 0E       		.uleb128 0xe
 1973 0005 13       		.uleb128 0x13
 1974 0006 0B       		.uleb128 0xb
 1975 0007 03       		.uleb128 0x3
 1976 0008 0E       		.uleb128 0xe
 1977 0009 1B       		.uleb128 0x1b
 1978 000a 0E       		.uleb128 0xe
 1979 000b 55       		.uleb128 0x55
 1980 000c 06       		.uleb128 0x6
 1981 000d 11       		.uleb128 0x11
 1982 000e 01       		.uleb128 0x1
 1983 000f 52       		.uleb128 0x52
 1984 0010 01       		.uleb128 0x1
 1985 0011 10       		.uleb128 0x10
 1986 0012 06       		.uleb128 0x6
 1987 0013 00       		.byte	0
ARM GAS  /var/folders/dt/0wfd0knj7gs46m8vwfzktm600000gn/T//ccosKjmj.s 			page 36


 1988 0014 00       		.byte	0
 1989 0015 02       		.uleb128 0x2
 1990 0016 24       		.uleb128 0x24
 1991 0017 00       		.byte	0
 1992 0018 0B       		.uleb128 0xb
 1993 0019 0B       		.uleb128 0xb
 1994 001a 3E       		.uleb128 0x3e
 1995 001b 0B       		.uleb128 0xb
 1996 001c 03       		.uleb128 0x3
 1997 001d 08       		.uleb128 0x8
 1998 001e 00       		.byte	0
 1999 001f 00       		.byte	0
 2000 0020 03       		.uleb128 0x3
 2001 0021 24       		.uleb128 0x24
 2002 0022 00       		.byte	0
 2003 0023 0B       		.uleb128 0xb
 2004 0024 0B       		.uleb128 0xb
 2005 0025 3E       		.uleb128 0x3e
 2006 0026 0B       		.uleb128 0xb
 2007 0027 03       		.uleb128 0x3
 2008 0028 0E       		.uleb128 0xe
 2009 0029 00       		.byte	0
 2010 002a 00       		.byte	0
 2011 002b 04       		.uleb128 0x4
 2012 002c 16       		.uleb128 0x16
 2013 002d 00       		.byte	0
 2014 002e 03       		.uleb128 0x3
 2015 002f 0E       		.uleb128 0xe
 2016 0030 3A       		.uleb128 0x3a
 2017 0031 0B       		.uleb128 0xb
 2018 0032 3B       		.uleb128 0x3b
 2019 0033 0B       		.uleb128 0xb
 2020 0034 49       		.uleb128 0x49
 2021 0035 13       		.uleb128 0x13
 2022 0036 00       		.byte	0
 2023 0037 00       		.byte	0
 2024 0038 05       		.uleb128 0x5
 2025 0039 0F       		.uleb128 0xf
 2026 003a 00       		.byte	0
 2027 003b 0B       		.uleb128 0xb
 2028 003c 0B       		.uleb128 0xb
 2029 003d 00       		.byte	0
 2030 003e 00       		.byte	0
 2031 003f 06       		.uleb128 0x6
 2032 0040 35       		.uleb128 0x35
 2033 0041 00       		.byte	0
 2034 0042 49       		.uleb128 0x49
 2035 0043 13       		.uleb128 0x13
 2036 0044 00       		.byte	0
 2037 0045 00       		.byte	0
 2038 0046 07       		.uleb128 0x7
 2039 0047 04       		.uleb128 0x4
 2040 0048 01       		.byte	0x1
 2041 0049 03       		.uleb128 0x3
 2042 004a 0E       		.uleb128 0xe
 2043 004b 0B       		.uleb128 0xb
 2044 004c 0B       		.uleb128 0xb
ARM GAS  /var/folders/dt/0wfd0knj7gs46m8vwfzktm600000gn/T//ccosKjmj.s 			page 37


 2045 004d 3A       		.uleb128 0x3a
 2046 004e 0B       		.uleb128 0xb
 2047 004f 3B       		.uleb128 0x3b
 2048 0050 0B       		.uleb128 0xb
 2049 0051 01       		.uleb128 0x1
 2050 0052 13       		.uleb128 0x13
 2051 0053 00       		.byte	0
 2052 0054 00       		.byte	0
 2053 0055 08       		.uleb128 0x8
 2054 0056 28       		.uleb128 0x28
 2055 0057 00       		.byte	0
 2056 0058 03       		.uleb128 0x3
 2057 0059 0E       		.uleb128 0xe
 2058 005a 1C       		.uleb128 0x1c
 2059 005b 0D       		.uleb128 0xd
 2060 005c 00       		.byte	0
 2061 005d 00       		.byte	0
 2062 005e 09       		.uleb128 0x9
 2063 005f 13       		.uleb128 0x13
 2064 0060 01       		.byte	0x1
 2065 0061 0B       		.uleb128 0xb
 2066 0062 0B       		.uleb128 0xb
 2067 0063 3A       		.uleb128 0x3a
 2068 0064 0B       		.uleb128 0xb
 2069 0065 3B       		.uleb128 0x3b
 2070 0066 05       		.uleb128 0x5
 2071 0067 01       		.uleb128 0x1
 2072 0068 13       		.uleb128 0x13
 2073 0069 00       		.byte	0
 2074 006a 00       		.byte	0
 2075 006b 0A       		.uleb128 0xa
 2076 006c 0D       		.uleb128 0xd
 2077 006d 00       		.byte	0
 2078 006e 03       		.uleb128 0x3
 2079 006f 08       		.uleb128 0x8
 2080 0070 3A       		.uleb128 0x3a
 2081 0071 0B       		.uleb128 0xb
 2082 0072 3B       		.uleb128 0x3b
 2083 0073 05       		.uleb128 0x5
 2084 0074 49       		.uleb128 0x49
 2085 0075 13       		.uleb128 0x13
 2086 0076 38       		.uleb128 0x38
 2087 0077 0A       		.uleb128 0xa
 2088 0078 00       		.byte	0
 2089 0079 00       		.byte	0
 2090 007a 0B       		.uleb128 0xb
 2091 007b 0D       		.uleb128 0xd
 2092 007c 00       		.byte	0
 2093 007d 03       		.uleb128 0x3
 2094 007e 0E       		.uleb128 0xe
 2095 007f 3A       		.uleb128 0x3a
 2096 0080 0B       		.uleb128 0xb
 2097 0081 3B       		.uleb128 0x3b
 2098 0082 05       		.uleb128 0x5
 2099 0083 49       		.uleb128 0x49
 2100 0084 13       		.uleb128 0x13
 2101 0085 38       		.uleb128 0x38
ARM GAS  /var/folders/dt/0wfd0knj7gs46m8vwfzktm600000gn/T//ccosKjmj.s 			page 38


 2102 0086 0A       		.uleb128 0xa
 2103 0087 00       		.byte	0
 2104 0088 00       		.byte	0
 2105 0089 0C       		.uleb128 0xc
 2106 008a 16       		.uleb128 0x16
 2107 008b 00       		.byte	0
 2108 008c 03       		.uleb128 0x3
 2109 008d 0E       		.uleb128 0xe
 2110 008e 3A       		.uleb128 0x3a
 2111 008f 0B       		.uleb128 0xb
 2112 0090 3B       		.uleb128 0x3b
 2113 0091 05       		.uleb128 0x5
 2114 0092 49       		.uleb128 0x49
 2115 0093 13       		.uleb128 0x13
 2116 0094 00       		.byte	0
 2117 0095 00       		.byte	0
 2118 0096 0D       		.uleb128 0xd
 2119 0097 13       		.uleb128 0x13
 2120 0098 01       		.byte	0x1
 2121 0099 0B       		.uleb128 0xb
 2122 009a 0B       		.uleb128 0xb
 2123 009b 3A       		.uleb128 0x3a
 2124 009c 0B       		.uleb128 0xb
 2125 009d 3B       		.uleb128 0x3b
 2126 009e 0B       		.uleb128 0xb
 2127 009f 01       		.uleb128 0x1
 2128 00a0 13       		.uleb128 0x13
 2129 00a1 00       		.byte	0
 2130 00a2 00       		.byte	0
 2131 00a3 0E       		.uleb128 0xe
 2132 00a4 0D       		.uleb128 0xd
 2133 00a5 00       		.byte	0
 2134 00a6 03       		.uleb128 0x3
 2135 00a7 0E       		.uleb128 0xe
 2136 00a8 3A       		.uleb128 0x3a
 2137 00a9 0B       		.uleb128 0xb
 2138 00aa 3B       		.uleb128 0x3b
 2139 00ab 0B       		.uleb128 0xb
 2140 00ac 49       		.uleb128 0x49
 2141 00ad 13       		.uleb128 0x13
 2142 00ae 38       		.uleb128 0x38
 2143 00af 0A       		.uleb128 0xa
 2144 00b0 00       		.byte	0
 2145 00b1 00       		.byte	0
 2146 00b2 0F       		.uleb128 0xf
 2147 00b3 0F       		.uleb128 0xf
 2148 00b4 00       		.byte	0
 2149 00b5 0B       		.uleb128 0xb
 2150 00b6 0B       		.uleb128 0xb
 2151 00b7 49       		.uleb128 0x49
 2152 00b8 13       		.uleb128 0x13
 2153 00b9 00       		.byte	0
 2154 00ba 00       		.byte	0
 2155 00bb 10       		.uleb128 0x10
 2156 00bc 15       		.uleb128 0x15
 2157 00bd 01       		.byte	0x1
 2158 00be 27       		.uleb128 0x27
ARM GAS  /var/folders/dt/0wfd0knj7gs46m8vwfzktm600000gn/T//ccosKjmj.s 			page 39


 2159 00bf 0C       		.uleb128 0xc
 2160 00c0 01       		.uleb128 0x1
 2161 00c1 13       		.uleb128 0x13
 2162 00c2 00       		.byte	0
 2163 00c3 00       		.byte	0
 2164 00c4 11       		.uleb128 0x11
 2165 00c5 05       		.uleb128 0x5
 2166 00c6 00       		.byte	0
 2167 00c7 49       		.uleb128 0x49
 2168 00c8 13       		.uleb128 0x13
 2169 00c9 00       		.byte	0
 2170 00ca 00       		.byte	0
 2171 00cb 12       		.uleb128 0x12
 2172 00cc 26       		.uleb128 0x26
 2173 00cd 00       		.byte	0
 2174 00ce 49       		.uleb128 0x49
 2175 00cf 13       		.uleb128 0x13
 2176 00d0 00       		.byte	0
 2177 00d1 00       		.byte	0
 2178 00d2 13       		.uleb128 0x13
 2179 00d3 2E       		.uleb128 0x2e
 2180 00d4 01       		.byte	0x1
 2181 00d5 3F       		.uleb128 0x3f
 2182 00d6 0C       		.uleb128 0xc
 2183 00d7 03       		.uleb128 0x3
 2184 00d8 0E       		.uleb128 0xe
 2185 00d9 3A       		.uleb128 0x3a
 2186 00da 0B       		.uleb128 0xb
 2187 00db 3B       		.uleb128 0x3b
 2188 00dc 0B       		.uleb128 0xb
 2189 00dd 27       		.uleb128 0x27
 2190 00de 0C       		.uleb128 0xc
 2191 00df 11       		.uleb128 0x11
 2192 00e0 01       		.uleb128 0x1
 2193 00e1 12       		.uleb128 0x12
 2194 00e2 01       		.uleb128 0x1
 2195 00e3 40       		.uleb128 0x40
 2196 00e4 06       		.uleb128 0x6
 2197 00e5 9642     		.uleb128 0x2116
 2198 00e7 0C       		.uleb128 0xc
 2199 00e8 01       		.uleb128 0x1
 2200 00e9 13       		.uleb128 0x13
 2201 00ea 00       		.byte	0
 2202 00eb 00       		.byte	0
 2203 00ec 14       		.uleb128 0x14
 2204 00ed 34       		.uleb128 0x34
 2205 00ee 00       		.byte	0
 2206 00ef 03       		.uleb128 0x3
 2207 00f0 0E       		.uleb128 0xe
 2208 00f1 3A       		.uleb128 0x3a
 2209 00f2 0B       		.uleb128 0xb
 2210 00f3 3B       		.uleb128 0x3b
 2211 00f4 0B       		.uleb128 0xb
 2212 00f5 49       		.uleb128 0x49
 2213 00f6 13       		.uleb128 0x13
 2214 00f7 02       		.uleb128 0x2
 2215 00f8 06       		.uleb128 0x6
ARM GAS  /var/folders/dt/0wfd0knj7gs46m8vwfzktm600000gn/T//ccosKjmj.s 			page 40


 2216 00f9 00       		.byte	0
 2217 00fa 00       		.byte	0
 2218 00fb 15       		.uleb128 0x15
 2219 00fc 898201   		.uleb128 0x4109
 2220 00ff 00       		.byte	0
 2221 0100 11       		.uleb128 0x11
 2222 0101 01       		.uleb128 0x1
 2223 0102 9542     		.uleb128 0x2115
 2224 0104 0C       		.uleb128 0xc
 2225 0105 31       		.uleb128 0x31
 2226 0106 13       		.uleb128 0x13
 2227 0107 00       		.byte	0
 2228 0108 00       		.byte	0
 2229 0109 16       		.uleb128 0x16
 2230 010a 2E       		.uleb128 0x2e
 2231 010b 01       		.byte	0x1
 2232 010c 3F       		.uleb128 0x3f
 2233 010d 0C       		.uleb128 0xc
 2234 010e 03       		.uleb128 0x3
 2235 010f 0E       		.uleb128 0xe
 2236 0110 3A       		.uleb128 0x3a
 2237 0111 0B       		.uleb128 0xb
 2238 0112 3B       		.uleb128 0x3b
 2239 0113 05       		.uleb128 0x5
 2240 0114 27       		.uleb128 0x27
 2241 0115 0C       		.uleb128 0xc
 2242 0116 11       		.uleb128 0x11
 2243 0117 01       		.uleb128 0x1
 2244 0118 12       		.uleb128 0x12
 2245 0119 01       		.uleb128 0x1
 2246 011a 40       		.uleb128 0x40
 2247 011b 06       		.uleb128 0x6
 2248 011c 9642     		.uleb128 0x2116
 2249 011e 0C       		.uleb128 0xc
 2250 011f 01       		.uleb128 0x1
 2251 0120 13       		.uleb128 0x13
 2252 0121 00       		.byte	0
 2253 0122 00       		.byte	0
 2254 0123 17       		.uleb128 0x17
 2255 0124 34       		.uleb128 0x34
 2256 0125 00       		.byte	0
 2257 0126 03       		.uleb128 0x3
 2258 0127 0E       		.uleb128 0xe
 2259 0128 3A       		.uleb128 0x3a
 2260 0129 0B       		.uleb128 0xb
 2261 012a 3B       		.uleb128 0x3b
 2262 012b 05       		.uleb128 0x5
 2263 012c 49       		.uleb128 0x49
 2264 012d 13       		.uleb128 0x13
 2265 012e 02       		.uleb128 0x2
 2266 012f 06       		.uleb128 0x6
 2267 0130 00       		.byte	0
 2268 0131 00       		.byte	0
 2269 0132 18       		.uleb128 0x18
 2270 0133 2E       		.uleb128 0x2e
 2271 0134 01       		.byte	0x1
 2272 0135 3F       		.uleb128 0x3f
ARM GAS  /var/folders/dt/0wfd0knj7gs46m8vwfzktm600000gn/T//ccosKjmj.s 			page 41


 2273 0136 0C       		.uleb128 0xc
 2274 0137 03       		.uleb128 0x3
 2275 0138 0E       		.uleb128 0xe
 2276 0139 3A       		.uleb128 0x3a
 2277 013a 0B       		.uleb128 0xb
 2278 013b 3B       		.uleb128 0x3b
 2279 013c 05       		.uleb128 0x5
 2280 013d 27       		.uleb128 0x27
 2281 013e 0C       		.uleb128 0xc
 2282 013f 11       		.uleb128 0x11
 2283 0140 01       		.uleb128 0x1
 2284 0141 12       		.uleb128 0x12
 2285 0142 01       		.uleb128 0x1
 2286 0143 40       		.uleb128 0x40
 2287 0144 06       		.uleb128 0x6
 2288 0145 9742     		.uleb128 0x2117
 2289 0147 0C       		.uleb128 0xc
 2290 0148 01       		.uleb128 0x1
 2291 0149 13       		.uleb128 0x13
 2292 014a 00       		.byte	0
 2293 014b 00       		.byte	0
 2294 014c 19       		.uleb128 0x19
 2295 014d 34       		.uleb128 0x34
 2296 014e 00       		.byte	0
 2297 014f 03       		.uleb128 0x3
 2298 0150 08       		.uleb128 0x8
 2299 0151 3A       		.uleb128 0x3a
 2300 0152 0B       		.uleb128 0xb
 2301 0153 3B       		.uleb128 0x3b
 2302 0154 05       		.uleb128 0x5
 2303 0155 49       		.uleb128 0x49
 2304 0156 13       		.uleb128 0x13
 2305 0157 02       		.uleb128 0x2
 2306 0158 06       		.uleb128 0x6
 2307 0159 00       		.byte	0
 2308 015a 00       		.byte	0
 2309 015b 1A       		.uleb128 0x1a
 2310 015c 2E       		.uleb128 0x2e
 2311 015d 01       		.byte	0x1
 2312 015e 3F       		.uleb128 0x3f
 2313 015f 0C       		.uleb128 0xc
 2314 0160 03       		.uleb128 0x3
 2315 0161 0E       		.uleb128 0xe
 2316 0162 3A       		.uleb128 0x3a
 2317 0163 0B       		.uleb128 0xb
 2318 0164 3B       		.uleb128 0x3b
 2319 0165 05       		.uleb128 0x5
 2320 0166 27       		.uleb128 0x27
 2321 0167 0C       		.uleb128 0xc
 2322 0168 49       		.uleb128 0x49
 2323 0169 13       		.uleb128 0x13
 2324 016a 11       		.uleb128 0x11
 2325 016b 01       		.uleb128 0x1
 2326 016c 12       		.uleb128 0x12
 2327 016d 01       		.uleb128 0x1
 2328 016e 40       		.uleb128 0x40
 2329 016f 06       		.uleb128 0x6
ARM GAS  /var/folders/dt/0wfd0knj7gs46m8vwfzktm600000gn/T//ccosKjmj.s 			page 42


 2330 0170 9742     		.uleb128 0x2117
 2331 0172 0C       		.uleb128 0xc
 2332 0173 01       		.uleb128 0x1
 2333 0174 13       		.uleb128 0x13
 2334 0175 00       		.byte	0
 2335 0176 00       		.byte	0
 2336 0177 1B       		.uleb128 0x1b
 2337 0178 05       		.uleb128 0x5
 2338 0179 00       		.byte	0
 2339 017a 03       		.uleb128 0x3
 2340 017b 0E       		.uleb128 0xe
 2341 017c 3A       		.uleb128 0x3a
 2342 017d 0B       		.uleb128 0xb
 2343 017e 3B       		.uleb128 0x3b
 2344 017f 05       		.uleb128 0x5
 2345 0180 49       		.uleb128 0x49
 2346 0181 13       		.uleb128 0x13
 2347 0182 02       		.uleb128 0x2
 2348 0183 06       		.uleb128 0x6
 2349 0184 00       		.byte	0
 2350 0185 00       		.byte	0
 2351 0186 1C       		.uleb128 0x1c
 2352 0187 898201   		.uleb128 0x4109
 2353 018a 01       		.byte	0x1
 2354 018b 11       		.uleb128 0x11
 2355 018c 01       		.uleb128 0x1
 2356 018d 31       		.uleb128 0x31
 2357 018e 13       		.uleb128 0x13
 2358 018f 00       		.byte	0
 2359 0190 00       		.byte	0
 2360 0191 1D       		.uleb128 0x1d
 2361 0192 8A8201   		.uleb128 0x410a
 2362 0195 00       		.byte	0
 2363 0196 02       		.uleb128 0x2
 2364 0197 0A       		.uleb128 0xa
 2365 0198 9142     		.uleb128 0x2111
 2366 019a 0A       		.uleb128 0xa
 2367 019b 00       		.byte	0
 2368 019c 00       		.byte	0
 2369 019d 1E       		.uleb128 0x1e
 2370 019e 898201   		.uleb128 0x4109
 2371 01a1 00       		.byte	0
 2372 01a2 11       		.uleb128 0x11
 2373 01a3 01       		.uleb128 0x1
 2374 01a4 31       		.uleb128 0x31
 2375 01a5 13       		.uleb128 0x13
 2376 01a6 00       		.byte	0
 2377 01a7 00       		.byte	0
 2378 01a8 1F       		.uleb128 0x1f
 2379 01a9 34       		.uleb128 0x34
 2380 01aa 00       		.byte	0
 2381 01ab 03       		.uleb128 0x3
 2382 01ac 0E       		.uleb128 0xe
 2383 01ad 3A       		.uleb128 0x3a
 2384 01ae 0B       		.uleb128 0xb
 2385 01af 3B       		.uleb128 0x3b
 2386 01b0 0B       		.uleb128 0xb
ARM GAS  /var/folders/dt/0wfd0knj7gs46m8vwfzktm600000gn/T//ccosKjmj.s 			page 43


 2387 01b1 49       		.uleb128 0x49
 2388 01b2 13       		.uleb128 0x13
 2389 01b3 02       		.uleb128 0x2
 2390 01b4 0A       		.uleb128 0xa
 2391 01b5 00       		.byte	0
 2392 01b6 00       		.byte	0
 2393 01b7 20       		.uleb128 0x20
 2394 01b8 01       		.uleb128 0x1
 2395 01b9 01       		.byte	0x1
 2396 01ba 49       		.uleb128 0x49
 2397 01bb 13       		.uleb128 0x13
 2398 01bc 01       		.uleb128 0x1
 2399 01bd 13       		.uleb128 0x13
 2400 01be 00       		.byte	0
 2401 01bf 00       		.byte	0
 2402 01c0 21       		.uleb128 0x21
 2403 01c1 21       		.uleb128 0x21
 2404 01c2 00       		.byte	0
 2405 01c3 49       		.uleb128 0x49
 2406 01c4 13       		.uleb128 0x13
 2407 01c5 2F       		.uleb128 0x2f
 2408 01c6 0B       		.uleb128 0xb
 2409 01c7 00       		.byte	0
 2410 01c8 00       		.byte	0
 2411 01c9 22       		.uleb128 0x22
 2412 01ca 34       		.uleb128 0x34
 2413 01cb 00       		.byte	0
 2414 01cc 03       		.uleb128 0x3
 2415 01cd 0E       		.uleb128 0xe
 2416 01ce 3A       		.uleb128 0x3a
 2417 01cf 0B       		.uleb128 0xb
 2418 01d0 3B       		.uleb128 0x3b
 2419 01d1 05       		.uleb128 0x5
 2420 01d2 49       		.uleb128 0x49
 2421 01d3 13       		.uleb128 0x13
 2422 01d4 3F       		.uleb128 0x3f
 2423 01d5 0C       		.uleb128 0xc
 2424 01d6 3C       		.uleb128 0x3c
 2425 01d7 0C       		.uleb128 0xc
 2426 01d8 00       		.byte	0
 2427 01d9 00       		.byte	0
 2428 01da 23       		.uleb128 0x23
 2429 01db 34       		.uleb128 0x34
 2430 01dc 00       		.byte	0
 2431 01dd 03       		.uleb128 0x3
 2432 01de 0E       		.uleb128 0xe
 2433 01df 3A       		.uleb128 0x3a
 2434 01e0 0B       		.uleb128 0xb
 2435 01e1 3B       		.uleb128 0x3b
 2436 01e2 0B       		.uleb128 0xb
 2437 01e3 49       		.uleb128 0x49
 2438 01e4 13       		.uleb128 0x13
 2439 01e5 3F       		.uleb128 0x3f
 2440 01e6 0C       		.uleb128 0xc
 2441 01e7 02       		.uleb128 0x2
 2442 01e8 0A       		.uleb128 0xa
 2443 01e9 00       		.byte	0
ARM GAS  /var/folders/dt/0wfd0knj7gs46m8vwfzktm600000gn/T//ccosKjmj.s 			page 44


 2444 01ea 00       		.byte	0
 2445 01eb 24       		.uleb128 0x24
 2446 01ec 2E       		.uleb128 0x2e
 2447 01ed 00       		.byte	0
 2448 01ee 3F       		.uleb128 0x3f
 2449 01ef 0C       		.uleb128 0xc
 2450 01f0 03       		.uleb128 0x3
 2451 01f1 0E       		.uleb128 0xe
 2452 01f2 3A       		.uleb128 0x3a
 2453 01f3 0B       		.uleb128 0xb
 2454 01f4 3B       		.uleb128 0x3b
 2455 01f5 05       		.uleb128 0x5
 2456 01f6 27       		.uleb128 0x27
 2457 01f7 0C       		.uleb128 0xc
 2458 01f8 3C       		.uleb128 0x3c
 2459 01f9 0C       		.uleb128 0xc
 2460 01fa 00       		.byte	0
 2461 01fb 00       		.byte	0
 2462 01fc 25       		.uleb128 0x25
 2463 01fd 2E       		.uleb128 0x2e
 2464 01fe 01       		.byte	0x1
 2465 01ff 3F       		.uleb128 0x3f
 2466 0200 0C       		.uleb128 0xc
 2467 0201 03       		.uleb128 0x3
 2468 0202 0E       		.uleb128 0xe
 2469 0203 3A       		.uleb128 0x3a
 2470 0204 0B       		.uleb128 0xb
 2471 0205 3B       		.uleb128 0x3b
 2472 0206 05       		.uleb128 0x5
 2473 0207 27       		.uleb128 0x27
 2474 0208 0C       		.uleb128 0xc
 2475 0209 3C       		.uleb128 0x3c
 2476 020a 0C       		.uleb128 0xc
 2477 020b 01       		.uleb128 0x1
 2478 020c 13       		.uleb128 0x13
 2479 020d 00       		.byte	0
 2480 020e 00       		.byte	0
 2481 020f 26       		.uleb128 0x26
 2482 0210 2E       		.uleb128 0x2e
 2483 0211 01       		.byte	0x1
 2484 0212 3F       		.uleb128 0x3f
 2485 0213 0C       		.uleb128 0xc
 2486 0214 03       		.uleb128 0x3
 2487 0215 0E       		.uleb128 0xe
 2488 0216 3A       		.uleb128 0x3a
 2489 0217 0B       		.uleb128 0xb
 2490 0218 3B       		.uleb128 0x3b
 2491 0219 05       		.uleb128 0x5
 2492 021a 27       		.uleb128 0x27
 2493 021b 0C       		.uleb128 0xc
 2494 021c 3C       		.uleb128 0x3c
 2495 021d 0C       		.uleb128 0xc
 2496 021e 00       		.byte	0
 2497 021f 00       		.byte	0
 2498 0220 00       		.byte	0
 2499              		.section	.debug_loc,"",%progbits
 2500              	.Ldebug_loc0:
ARM GAS  /var/folders/dt/0wfd0knj7gs46m8vwfzktm600000gn/T//ccosKjmj.s 			page 45


 2501              	.LLST0:
 2502 0000 00000000 		.4byte	.LFB62
 2503 0004 0E000000 		.4byte	.LCFI0
 2504 0008 0200     		.2byte	0x2
 2505 000a 7D       		.byte	0x7d
 2506 000b 00       		.sleb128 0
 2507 000c 0E000000 		.4byte	.LCFI0
 2508 0010 28000000 		.4byte	.LFE62
 2509 0014 0200     		.2byte	0x2
 2510 0016 7D       		.byte	0x7d
 2511 0017 08       		.sleb128 8
 2512 0018 00000000 		.4byte	0
 2513 001c 00000000 		.4byte	0
 2514              	.LLST1:
 2515 0020 14000000 		.4byte	.LVL0
 2516 0024 1B000000 		.4byte	.LVL1-1
 2517 0028 0100     		.2byte	0x1
 2518 002a 51       		.byte	0x51
 2519 002b 00000000 		.4byte	0
 2520 002f 00000000 		.4byte	0
 2521              	.LLST2:
 2522 0033 00000000 		.4byte	.LFB63
 2523 0037 0E000000 		.4byte	.LCFI1
 2524 003b 0200     		.2byte	0x2
 2525 003d 7D       		.byte	0x7d
 2526 003e 00       		.sleb128 0
 2527 003f 0E000000 		.4byte	.LCFI1
 2528 0043 28000000 		.4byte	.LFE63
 2529 0047 0200     		.2byte	0x2
 2530 0049 7D       		.byte	0x7d
 2531 004a 08       		.sleb128 8
 2532 004b 00000000 		.4byte	0
 2533 004f 00000000 		.4byte	0
 2534              	.LLST3:
 2535 0053 14000000 		.4byte	.LVL3
 2536 0057 1B000000 		.4byte	.LVL4-1
 2537 005b 0100     		.2byte	0x1
 2538 005d 51       		.byte	0x51
 2539 005e 00000000 		.4byte	0
 2540 0062 00000000 		.4byte	0
 2541              	.LLST4:
 2542 0066 00000000 		.4byte	.LFB64
 2543 006a 0E000000 		.4byte	.LCFI2
 2544 006e 0200     		.2byte	0x2
 2545 0070 7D       		.byte	0x7d
 2546 0071 00       		.sleb128 0
 2547 0072 0E000000 		.4byte	.LCFI2
 2548 0076 2C000000 		.4byte	.LFE64
 2549 007a 0200     		.2byte	0x2
 2550 007c 7D       		.byte	0x7d
 2551 007d 08       		.sleb128 8
 2552 007e 00000000 		.4byte	0
 2553 0082 00000000 		.4byte	0
 2554              	.LLST5:
 2555 0086 16000000 		.4byte	.LVL6
 2556 008a 1D000000 		.4byte	.LVL7-1
 2557 008e 0100     		.2byte	0x1
ARM GAS  /var/folders/dt/0wfd0knj7gs46m8vwfzktm600000gn/T//ccosKjmj.s 			page 46


 2558 0090 51       		.byte	0x51
 2559 0091 00000000 		.4byte	0
 2560 0095 00000000 		.4byte	0
 2561              	.LLST6:
 2562 0099 00000000 		.4byte	.LFB65
 2563 009d 0E000000 		.4byte	.LCFI3
 2564 00a1 0200     		.2byte	0x2
 2565 00a3 7D       		.byte	0x7d
 2566 00a4 00       		.sleb128 0
 2567 00a5 0E000000 		.4byte	.LCFI3
 2568 00a9 2C000000 		.4byte	.LFE65
 2569 00ad 0200     		.2byte	0x2
 2570 00af 7D       		.byte	0x7d
 2571 00b0 08       		.sleb128 8
 2572 00b1 00000000 		.4byte	0
 2573 00b5 00000000 		.4byte	0
 2574              	.LLST7:
 2575 00b9 16000000 		.4byte	.LVL9
 2576 00bd 1D000000 		.4byte	.LVL10-1
 2577 00c1 0100     		.2byte	0x1
 2578 00c3 51       		.byte	0x51
 2579 00c4 00000000 		.4byte	0
 2580 00c8 00000000 		.4byte	0
 2581              	.LLST8:
 2582 00cc 00000000 		.4byte	.LFB66
 2583 00d0 0E000000 		.4byte	.LCFI4
 2584 00d4 0200     		.2byte	0x2
 2585 00d6 7D       		.byte	0x7d
 2586 00d7 00       		.sleb128 0
 2587 00d8 0E000000 		.4byte	.LCFI4
 2588 00dc 2C000000 		.4byte	.LFE66
 2589 00e0 0200     		.2byte	0x2
 2590 00e2 7D       		.byte	0x7d
 2591 00e3 08       		.sleb128 8
 2592 00e4 00000000 		.4byte	0
 2593 00e8 00000000 		.4byte	0
 2594              	.LLST9:
 2595 00ec 16000000 		.4byte	.LVL12
 2596 00f0 1D000000 		.4byte	.LVL13-1
 2597 00f4 0100     		.2byte	0x1
 2598 00f6 51       		.byte	0x51
 2599 00f7 00000000 		.4byte	0
 2600 00fb 00000000 		.4byte	0
 2601              	.LLST10:
 2602 00ff 00000000 		.4byte	.LFB67
 2603 0103 0E000000 		.4byte	.LCFI5
 2604 0107 0200     		.2byte	0x2
 2605 0109 7D       		.byte	0x7d
 2606 010a 00       		.sleb128 0
 2607 010b 0E000000 		.4byte	.LCFI5
 2608 010f 2C000000 		.4byte	.LFE67
 2609 0113 0200     		.2byte	0x2
 2610 0115 7D       		.byte	0x7d
 2611 0116 08       		.sleb128 8
 2612 0117 00000000 		.4byte	0
 2613 011b 00000000 		.4byte	0
 2614              	.LLST11:
ARM GAS  /var/folders/dt/0wfd0knj7gs46m8vwfzktm600000gn/T//ccosKjmj.s 			page 47


 2615 011f 16000000 		.4byte	.LVL15
 2616 0123 1D000000 		.4byte	.LVL16-1
 2617 0127 0100     		.2byte	0x1
 2618 0129 51       		.byte	0x51
 2619 012a 00000000 		.4byte	0
 2620 012e 00000000 		.4byte	0
 2621              	.LLST12:
 2622 0132 00000000 		.4byte	.LFB68
 2623 0136 0E000000 		.4byte	.LCFI6
 2624 013a 0200     		.2byte	0x2
 2625 013c 7D       		.byte	0x7d
 2626 013d 00       		.sleb128 0
 2627 013e 0E000000 		.4byte	.LCFI6
 2628 0142 2C000000 		.4byte	.LFE68
 2629 0146 0200     		.2byte	0x2
 2630 0148 7D       		.byte	0x7d
 2631 0149 08       		.sleb128 8
 2632 014a 00000000 		.4byte	0
 2633 014e 00000000 		.4byte	0
 2634              	.LLST13:
 2635 0152 16000000 		.4byte	.LVL18
 2636 0156 1D000000 		.4byte	.LVL19-1
 2637 015a 0100     		.2byte	0x1
 2638 015c 51       		.byte	0x51
 2639 015d 00000000 		.4byte	0
 2640 0161 00000000 		.4byte	0
 2641              	.LLST14:
 2642 0165 00000000 		.4byte	.LFB69
 2643 0169 10000000 		.4byte	.LCFI7
 2644 016d 0200     		.2byte	0x2
 2645 016f 7D       		.byte	0x7d
 2646 0170 00       		.sleb128 0
 2647 0171 10000000 		.4byte	.LCFI7
 2648 0175 2C000000 		.4byte	.LFE69
 2649 0179 0200     		.2byte	0x2
 2650 017b 7D       		.byte	0x7d
 2651 017c 08       		.sleb128 8
 2652 017d 00000000 		.4byte	0
 2653 0181 00000000 		.4byte	0
 2654              	.LLST15:
 2655 0185 16000000 		.4byte	.LVL21
 2656 0189 1D000000 		.4byte	.LVL22-1
 2657 018d 0100     		.2byte	0x1
 2658 018f 51       		.byte	0x51
 2659 0190 00000000 		.4byte	0
 2660 0194 00000000 		.4byte	0
 2661              	.LLST16:
 2662 0198 00000000 		.4byte	.LFB70
 2663 019c 10000000 		.4byte	.LCFI8
 2664 01a0 0200     		.2byte	0x2
 2665 01a2 7D       		.byte	0x7d
 2666 01a3 00       		.sleb128 0
 2667 01a4 10000000 		.4byte	.LCFI8
 2668 01a8 2C000000 		.4byte	.LFE70
 2669 01ac 0200     		.2byte	0x2
 2670 01ae 7D       		.byte	0x7d
 2671 01af 08       		.sleb128 8
ARM GAS  /var/folders/dt/0wfd0knj7gs46m8vwfzktm600000gn/T//ccosKjmj.s 			page 48


 2672 01b0 00000000 		.4byte	0
 2673 01b4 00000000 		.4byte	0
 2674              	.LLST17:
 2675 01b8 16000000 		.4byte	.LVL24
 2676 01bc 1D000000 		.4byte	.LVL25-1
 2677 01c0 0100     		.2byte	0x1
 2678 01c2 51       		.byte	0x51
 2679 01c3 00000000 		.4byte	0
 2680 01c7 00000000 		.4byte	0
 2681              	.LLST18:
 2682 01cb 00000000 		.4byte	.LFB71
 2683 01cf 10000000 		.4byte	.LCFI9
 2684 01d3 0200     		.2byte	0x2
 2685 01d5 7D       		.byte	0x7d
 2686 01d6 00       		.sleb128 0
 2687 01d7 10000000 		.4byte	.LCFI9
 2688 01db 2C000000 		.4byte	.LFE71
 2689 01df 0200     		.2byte	0x2
 2690 01e1 7D       		.byte	0x7d
 2691 01e2 08       		.sleb128 8
 2692 01e3 00000000 		.4byte	0
 2693 01e7 00000000 		.4byte	0
 2694              	.LLST19:
 2695 01eb 18000000 		.4byte	.LVL27
 2696 01ef 1F000000 		.4byte	.LVL28-1
 2697 01f3 0100     		.2byte	0x1
 2698 01f5 51       		.byte	0x51
 2699 01f6 00000000 		.4byte	0
 2700 01fa 00000000 		.4byte	0
 2701              	.LLST20:
 2702 01fe 00000000 		.4byte	.LFB72
 2703 0202 0C000000 		.4byte	.LCFI10
 2704 0206 0200     		.2byte	0x2
 2705 0208 7D       		.byte	0x7d
 2706 0209 00       		.sleb128 0
 2707 020a 0C000000 		.4byte	.LCFI10
 2708 020e 50000000 		.4byte	.LFE72
 2709 0212 0200     		.2byte	0x2
 2710 0214 7D       		.byte	0x7d
 2711 0215 08       		.sleb128 8
 2712 0216 00000000 		.4byte	0
 2713 021a 00000000 		.4byte	0
 2714              	.LLST21:
 2715 021e 10000000 		.4byte	.LVL30
 2716 0222 21000000 		.4byte	.LVL31-1
 2717 0226 0100     		.2byte	0x1
 2718 0228 51       		.byte	0x51
 2719 0229 30000000 		.4byte	.LVL32
 2720 022d 41000000 		.4byte	.LVL33-1
 2721 0231 0100     		.2byte	0x1
 2722 0233 51       		.byte	0x51
 2723 0234 00000000 		.4byte	0
 2724 0238 00000000 		.4byte	0
 2725              	.LLST22:
 2726 023c 00000000 		.4byte	.LFB73
 2727 0240 04000000 		.4byte	.LCFI11
 2728 0244 0200     		.2byte	0x2
ARM GAS  /var/folders/dt/0wfd0knj7gs46m8vwfzktm600000gn/T//ccosKjmj.s 			page 49


 2729 0246 7D       		.byte	0x7d
 2730 0247 00       		.sleb128 0
 2731 0248 04000000 		.4byte	.LCFI11
 2732 024c 44000000 		.4byte	.LFE73
 2733 0250 0200     		.2byte	0x2
 2734 0252 7D       		.byte	0x7d
 2735 0253 08       		.sleb128 8
 2736 0254 00000000 		.4byte	0
 2737 0258 00000000 		.4byte	0
 2738              	.LLST23:
 2739 025c 0C000000 		.4byte	.LVL35
 2740 0260 10000000 		.4byte	.LVL36
 2741 0264 0200     		.2byte	0x2
 2742 0266 30       		.byte	0x30
 2743 0267 9F       		.byte	0x9f
 2744 0268 00000000 		.4byte	0
 2745 026c 00000000 		.4byte	0
 2746              	.LLST24:
 2747 0270 00000000 		.4byte	.LFB74
 2748 0274 02000000 		.4byte	.LCFI12
 2749 0278 0200     		.2byte	0x2
 2750 027a 7D       		.byte	0x7d
 2751 027b 00       		.sleb128 0
 2752 027c 02000000 		.4byte	.LCFI12
 2753 0280 90000000 		.4byte	.LFE74
 2754 0284 0200     		.2byte	0x2
 2755 0286 7D       		.byte	0x7d
 2756 0287 18       		.sleb128 24
 2757 0288 00000000 		.4byte	0
 2758 028c 00000000 		.4byte	0
 2759              	.LLST25:
 2760 0290 00000000 		.4byte	.LVL37
 2761 0294 74000000 		.4byte	.LVL40
 2762 0298 0100     		.2byte	0x1
 2763 029a 50       		.byte	0x50
 2764 029b 74000000 		.4byte	.LVL40
 2765 029f 7E000000 		.4byte	.LVL43
 2766 02a3 0400     		.2byte	0x4
 2767 02a5 F3       		.byte	0xf3
 2768 02a6 01       		.uleb128 0x1
 2769 02a7 50       		.byte	0x50
 2770 02a8 9F       		.byte	0x9f
 2771 02a9 7E000000 		.4byte	.LVL43
 2772 02ad 80000000 		.4byte	.LVL44
 2773 02b1 0100     		.2byte	0x1
 2774 02b3 50       		.byte	0x50
 2775 02b4 80000000 		.4byte	.LVL44
 2776 02b8 82000000 		.4byte	.LVL45
 2777 02bc 0400     		.2byte	0x4
 2778 02be F3       		.byte	0xf3
 2779 02bf 01       		.uleb128 0x1
 2780 02c0 50       		.byte	0x50
 2781 02c1 9F       		.byte	0x9f
 2782 02c2 82000000 		.4byte	.LVL45
 2783 02c6 84000000 		.4byte	.LVL46
 2784 02ca 0100     		.2byte	0x1
 2785 02cc 50       		.byte	0x50
ARM GAS  /var/folders/dt/0wfd0knj7gs46m8vwfzktm600000gn/T//ccosKjmj.s 			page 50


 2786 02cd 84000000 		.4byte	.LVL46
 2787 02d1 90000000 		.4byte	.LFE74
 2788 02d5 0400     		.2byte	0x4
 2789 02d7 F3       		.byte	0xf3
 2790 02d8 01       		.uleb128 0x1
 2791 02d9 50       		.byte	0x50
 2792 02da 9F       		.byte	0x9f
 2793 02db 00000000 		.4byte	0
 2794 02df 00000000 		.4byte	0
 2795              	.LLST26:
 2796 02e3 00000000 		.4byte	.LVL37
 2797 02e7 76000000 		.4byte	.LVL41
 2798 02eb 0100     		.2byte	0x1
 2799 02ed 51       		.byte	0x51
 2800 02ee 76000000 		.4byte	.LVL41
 2801 02f2 7E000000 		.4byte	.LVL43
 2802 02f6 0400     		.2byte	0x4
 2803 02f8 F3       		.byte	0xf3
 2804 02f9 01       		.uleb128 0x1
 2805 02fa 51       		.byte	0x51
 2806 02fb 9F       		.byte	0x9f
 2807 02fc 7E000000 		.4byte	.LVL43
 2808 0300 90000000 		.4byte	.LFE74
 2809 0304 0100     		.2byte	0x1
 2810 0306 51       		.byte	0x51
 2811 0307 00000000 		.4byte	0
 2812 030b 00000000 		.4byte	0
 2813              	.LLST27:
 2814 030f 00000000 		.4byte	.LVL37
 2815 0313 79000000 		.4byte	.LVL42-1
 2816 0317 0100     		.2byte	0x1
 2817 0319 52       		.byte	0x52
 2818 031a 79000000 		.4byte	.LVL42-1
 2819 031e 7E000000 		.4byte	.LVL43
 2820 0322 0400     		.2byte	0x4
 2821 0324 F3       		.byte	0xf3
 2822 0325 01       		.uleb128 0x1
 2823 0326 52       		.byte	0x52
 2824 0327 9F       		.byte	0x9f
 2825 0328 7E000000 		.4byte	.LVL43
 2826 032c 90000000 		.4byte	.LFE74
 2827 0330 0100     		.2byte	0x1
 2828 0332 52       		.byte	0x52
 2829 0333 00000000 		.4byte	0
 2830 0337 00000000 		.4byte	0
 2831              	.LLST28:
 2832 033b 00000000 		.4byte	.LVL37
 2833 033f 22000000 		.4byte	.LVL38
 2834 0343 0100     		.2byte	0x1
 2835 0345 53       		.byte	0x53
 2836 0346 22000000 		.4byte	.LVL38
 2837 034a 5C000000 		.4byte	.LVL39
 2838 034e 0200     		.2byte	0x2
 2839 0350 77       		.byte	0x77
 2840 0351 04       		.sleb128 4
 2841 0352 5C000000 		.4byte	.LVL39
 2842 0356 74000000 		.4byte	.LVL40
ARM GAS  /var/folders/dt/0wfd0knj7gs46m8vwfzktm600000gn/T//ccosKjmj.s 			page 51


 2843 035a 0E00     		.2byte	0xe
 2844 035c 70       		.byte	0x70
 2845 035d 09       		.sleb128 9
 2846 035e 94       		.byte	0x94
 2847 035f 01       		.byte	0x1
 2848 0360 08       		.byte	0x8
 2849 0361 FF       		.byte	0xff
 2850 0362 1A       		.byte	0x1a
 2851 0363 33       		.byte	0x33
 2852 0364 24       		.byte	0x24
 2853 0365 7C       		.byte	0x7c
 2854 0366 00       		.sleb128 0
 2855 0367 22       		.byte	0x22
 2856 0368 23       		.byte	0x23
 2857 0369 04       		.uleb128 0x4
 2858 036a 74000000 		.4byte	.LVL40
 2859 036e 79000000 		.4byte	.LVL42-1
 2860 0372 1100     		.2byte	0x11
 2861 0374 F3       		.byte	0xf3
 2862 0375 01       		.uleb128 0x1
 2863 0376 50       		.byte	0x50
 2864 0377 23       		.byte	0x23
 2865 0378 09       		.uleb128 0x9
 2866 0379 94       		.byte	0x94
 2867 037a 01       		.byte	0x1
 2868 037b 08       		.byte	0x8
 2869 037c FF       		.byte	0xff
 2870 037d 1A       		.byte	0x1a
 2871 037e 33       		.byte	0x33
 2872 037f 24       		.byte	0x24
 2873 0380 7C       		.byte	0x7c
 2874 0381 00       		.sleb128 0
 2875 0382 22       		.byte	0x22
 2876 0383 23       		.byte	0x23
 2877 0384 04       		.uleb128 0x4
 2878 0385 79000000 		.4byte	.LVL42-1
 2879 0389 7E000000 		.4byte	.LVL43
 2880 038d 0400     		.2byte	0x4
 2881 038f F3       		.byte	0xf3
 2882 0390 01       		.uleb128 0x1
 2883 0391 53       		.byte	0x53
 2884 0392 9F       		.byte	0x9f
 2885 0393 7E000000 		.4byte	.LVL43
 2886 0397 82000000 		.4byte	.LVL45
 2887 039b 0100     		.2byte	0x1
 2888 039d 53       		.byte	0x53
 2889 039e 82000000 		.4byte	.LVL45
 2890 03a2 84000000 		.4byte	.LVL46
 2891 03a6 0E00     		.2byte	0xe
 2892 03a8 70       		.byte	0x70
 2893 03a9 09       		.sleb128 9
 2894 03aa 94       		.byte	0x94
 2895 03ab 01       		.byte	0x1
 2896 03ac 08       		.byte	0x8
 2897 03ad FF       		.byte	0xff
 2898 03ae 1A       		.byte	0x1a
 2899 03af 33       		.byte	0x33
ARM GAS  /var/folders/dt/0wfd0knj7gs46m8vwfzktm600000gn/T//ccosKjmj.s 			page 52


 2900 03b0 24       		.byte	0x24
 2901 03b1 7C       		.byte	0x7c
 2902 03b2 00       		.sleb128 0
 2903 03b3 22       		.byte	0x22
 2904 03b4 23       		.byte	0x23
 2905 03b5 04       		.uleb128 0x4
 2906 03b6 84000000 		.4byte	.LVL46
 2907 03ba 90000000 		.4byte	.LFE74
 2908 03be 1100     		.2byte	0x11
 2909 03c0 F3       		.byte	0xf3
 2910 03c1 01       		.uleb128 0x1
 2911 03c2 50       		.byte	0x50
 2912 03c3 23       		.byte	0x23
 2913 03c4 09       		.uleb128 0x9
 2914 03c5 94       		.byte	0x94
 2915 03c6 01       		.byte	0x1
 2916 03c7 08       		.byte	0x8
 2917 03c8 FF       		.byte	0xff
 2918 03c9 1A       		.byte	0x1a
 2919 03ca 33       		.byte	0x33
 2920 03cb 24       		.byte	0x24
 2921 03cc 7C       		.byte	0x7c
 2922 03cd 00       		.sleb128 0
 2923 03ce 22       		.byte	0x22
 2924 03cf 23       		.byte	0x23
 2925 03d0 04       		.uleb128 0x4
 2926 03d1 00000000 		.4byte	0
 2927 03d5 00000000 		.4byte	0
 2928              	.LLST29:
 2929 03d9 00000000 		.4byte	.LFB75
 2930 03dd 02000000 		.4byte	.LCFI13
 2931 03e1 0200     		.2byte	0x2
 2932 03e3 7D       		.byte	0x7d
 2933 03e4 00       		.sleb128 0
 2934 03e5 02000000 		.4byte	.LCFI13
 2935 03e9 50000000 		.4byte	.LFE75
 2936 03ed 0200     		.2byte	0x2
 2937 03ef 7D       		.byte	0x7d
 2938 03f0 08       		.sleb128 8
 2939 03f1 00000000 		.4byte	0
 2940 03f5 00000000 		.4byte	0
 2941              	.LLST30:
 2942 03f9 00000000 		.4byte	.LVL47
 2943 03fd 06000000 		.4byte	.LVL48
 2944 0401 0100     		.2byte	0x1
 2945 0403 50       		.byte	0x50
 2946 0404 06000000 		.4byte	.LVL48
 2947 0408 50000000 		.4byte	.LFE75
 2948 040c 0100     		.2byte	0x1
 2949 040e 54       		.byte	0x54
 2950 040f 00000000 		.4byte	0
 2951 0413 00000000 		.4byte	0
 2952              		.section	.debug_aranges,"",%progbits
 2953 0000 84000000 		.4byte	0x84
 2954 0004 0200     		.2byte	0x2
 2955 0006 00000000 		.4byte	.Ldebug_info0
 2956 000a 04       		.byte	0x4
ARM GAS  /var/folders/dt/0wfd0knj7gs46m8vwfzktm600000gn/T//ccosKjmj.s 			page 53


 2957 000b 00       		.byte	0
 2958 000c 0000     		.2byte	0
 2959 000e 0000     		.2byte	0
 2960 0010 00000000 		.4byte	.LFB62
 2961 0014 28000000 		.4byte	.LFE62-.LFB62
 2962 0018 00000000 		.4byte	.LFB63
 2963 001c 28000000 		.4byte	.LFE63-.LFB63
 2964 0020 00000000 		.4byte	.LFB64
 2965 0024 2C000000 		.4byte	.LFE64-.LFB64
 2966 0028 00000000 		.4byte	.LFB65
 2967 002c 2C000000 		.4byte	.LFE65-.LFB65
 2968 0030 00000000 		.4byte	.LFB66
 2969 0034 2C000000 		.4byte	.LFE66-.LFB66
 2970 0038 00000000 		.4byte	.LFB67
 2971 003c 2C000000 		.4byte	.LFE67-.LFB67
 2972 0040 00000000 		.4byte	.LFB68
 2973 0044 2C000000 		.4byte	.LFE68-.LFB68
 2974 0048 00000000 		.4byte	.LFB69
 2975 004c 2C000000 		.4byte	.LFE69-.LFB69
 2976 0050 00000000 		.4byte	.LFB70
 2977 0054 2C000000 		.4byte	.LFE70-.LFB70
 2978 0058 00000000 		.4byte	.LFB71
 2979 005c 2C000000 		.4byte	.LFE71-.LFB71
 2980 0060 00000000 		.4byte	.LFB72
 2981 0064 50000000 		.4byte	.LFE72-.LFB72
 2982 0068 00000000 		.4byte	.LFB73
 2983 006c 44000000 		.4byte	.LFE73-.LFB73
 2984 0070 00000000 		.4byte	.LFB74
 2985 0074 90000000 		.4byte	.LFE74-.LFB74
 2986 0078 00000000 		.4byte	.LFB75
 2987 007c 50000000 		.4byte	.LFE75-.LFB75
 2988 0080 00000000 		.4byte	0
 2989 0084 00000000 		.4byte	0
 2990              		.section	.debug_ranges,"",%progbits
 2991              	.Ldebug_ranges0:
 2992 0000 00000000 		.4byte	.LFB62
 2993 0004 28000000 		.4byte	.LFE62
 2994 0008 00000000 		.4byte	.LFB63
 2995 000c 28000000 		.4byte	.LFE63
 2996 0010 00000000 		.4byte	.LFB64
 2997 0014 2C000000 		.4byte	.LFE64
 2998 0018 00000000 		.4byte	.LFB65
 2999 001c 2C000000 		.4byte	.LFE65
 3000 0020 00000000 		.4byte	.LFB66
 3001 0024 2C000000 		.4byte	.LFE66
 3002 0028 00000000 		.4byte	.LFB67
 3003 002c 2C000000 		.4byte	.LFE67
 3004 0030 00000000 		.4byte	.LFB68
 3005 0034 2C000000 		.4byte	.LFE68
 3006 0038 00000000 		.4byte	.LFB69
 3007 003c 2C000000 		.4byte	.LFE69
 3008 0040 00000000 		.4byte	.LFB70
 3009 0044 2C000000 		.4byte	.LFE70
 3010 0048 00000000 		.4byte	.LFB71
 3011 004c 2C000000 		.4byte	.LFE71
 3012 0050 00000000 		.4byte	.LFB72
 3013 0054 50000000 		.4byte	.LFE72
ARM GAS  /var/folders/dt/0wfd0knj7gs46m8vwfzktm600000gn/T//ccosKjmj.s 			page 54


 3014 0058 00000000 		.4byte	.LFB73
 3015 005c 44000000 		.4byte	.LFE73
 3016 0060 00000000 		.4byte	.LFB74
 3017 0064 90000000 		.4byte	.LFE74
 3018 0068 00000000 		.4byte	.LFB75
 3019 006c 50000000 		.4byte	.LFE75
 3020 0070 00000000 		.4byte	0
 3021 0074 00000000 		.4byte	0
 3022              		.section	.debug_line,"",%progbits
 3023              	.Ldebug_line0:
 3024 0000 41030000 		.section	.debug_str,"MS",%progbits,1
 3024      02007701 
 3024      00000201 
 3024      FB0E0D00 
 3024      01010101 
 3025              	.LASF107:
 3026 0000 646D615F 		.ascii	"dma_isr_redir_t\000"
 3026      6973725F 
 3026      72656469 
 3026      725F7400 
 3027              	.LASF25:
 3028 0010 5056445F 		.ascii	"PVD_IRQn\000"
 3028      4952516E 
 3028      00
 3029              	.LASF50:
 3030 0019 54494D31 		.ascii	"TIM1_TRG_COM_IRQn\000"
 3030      5F545247 
 3030      5F434F4D 
 3030      5F495251 
 3030      6E00
 3031              	.LASF132:
 3032 002b 2F557365 		.ascii	"/Users/toxygen/Projects/UAV/Control_sytem/sw/autopi"
 3032      72732F74 
 3032      6F787967 
 3032      656E2F50 
 3032      726F6A65 
 3033 005e 6C6F742F 		.ascii	"lot/2.4.3/demos/STM32F103-sdspi\000"
 3033      322E342E 
 3033      332F6465 
 3033      6D6F732F 
 3033      53544D33 
 3034              	.LASF86:
 3035 007e 434D4152 		.ascii	"CMAR\000"
 3035      00
 3036              	.LASF55:
 3037 0083 49324331 		.ascii	"I2C1_EV_IRQn\000"
 3037      5F45565F 
 3037      4952516E 
 3037      00
 3038              	.LASF45:
 3039 0090 43414E31 		.ascii	"CAN1_RX1_IRQn\000"
 3039      5F525831 
 3039      5F495251 
 3039      6E00
 3040              	.LASF12:
 3041 009e 6C6F6E67 		.ascii	"long long unsigned int\000"
 3041      206C6F6E 
ARM GAS  /var/folders/dt/0wfd0knj7gs46m8vwfzktm600000gn/T//ccosKjmj.s 			page 55


 3041      6720756E 
 3041      7369676E 
 3041      65642069 
 3042              	.LASF80:
 3043 00b5 444D4132 		.ascii	"DMA2_Channel1_IRQn\000"
 3043      5F436861 
 3043      6E6E656C 
 3043      315F4952 
 3043      516E00
 3044              	.LASF65:
 3045 00c8 5254435F 		.ascii	"RTC_Alarm_IRQn\000"
 3045      416C6172 
 3045      6D5F4952 
 3045      516E00
 3046              	.LASF102:
 3047 00d7 76656374 		.ascii	"vector\000"
 3047      6F7200
 3048              	.LASF129:
 3049 00de 5F73746D 		.ascii	"_stm32_dma_streams\000"
 3049      33325F64 
 3049      6D615F73 
 3049      74726561 
 3049      6D7300
 3050              	.LASF58:
 3051 00f1 49324332 		.ascii	"I2C2_ER_IRQn\000"
 3051      5F45525F 
 3051      4952516E 
 3051      00
 3052              	.LASF54:
 3053 00fe 54494D34 		.ascii	"TIM4_IRQn\000"
 3053      5F495251 
 3053      6E00
 3054              	.LASF32:
 3055 0108 45585449 		.ascii	"EXTI2_IRQn\000"
 3055      325F4952 
 3055      516E00
 3056              	.LASF24:
 3057 0113 57574447 		.ascii	"WWDG_IRQn\000"
 3057      5F495251 
 3057      6E00
 3058              	.LASF73:
 3059 011d 5344494F 		.ascii	"SDIO_IRQn\000"
 3059      5F495251 
 3059      6E00
 3060              	.LASF136:
 3061 0127 6E766963 		.ascii	"nvicEnableVector\000"
 3061      456E6162 
 3061      6C655665 
 3061      63746F72 
 3061      00
 3062              	.LASF11:
 3063 0138 6C6F6E67 		.ascii	"long long int\000"
 3063      206C6F6E 
 3063      6720696E 
 3063      7400
 3064              	.LASF1:
 3065 0146 7369676E 		.ascii	"signed char\000"
ARM GAS  /var/folders/dt/0wfd0knj7gs46m8vwfzktm600000gn/T//ccosKjmj.s 			page 56


 3065      65642063 
 3065      68617200 
 3066              	.LASF13:
 3067 0152 626F6F6C 		.ascii	"bool_t\000"
 3067      5F7400
 3068              	.LASF121:
 3069 0159 646D6173 		.ascii	"dmastp\000"
 3069      747000
 3070              	.LASF8:
 3071 0160 6C6F6E67 		.ascii	"long int\000"
 3071      20696E74 
 3071      00
 3072              	.LASF91:
 3073 0169 41504232 		.ascii	"APB2RSTR\000"
 3073      52535452 
 3073      00
 3074              	.LASF123:
 3075 0172 66756E63 		.ascii	"func\000"
 3075      00
 3076              	.LASF71:
 3077 0177 41444333 		.ascii	"ADC3_IRQn\000"
 3077      5F495251 
 3077      6E00
 3078              	.LASF37:
 3079 0181 444D4131 		.ascii	"DMA1_Channel3_IRQn\000"
 3079      5F436861 
 3079      6E6E656C 
 3079      335F4952 
 3079      516E00
 3080              	.LASF5:
 3081 0194 75696E74 		.ascii	"uint16_t\000"
 3081      31365F74 
 3081      00
 3082              	.LASF9:
 3083 019d 75696E74 		.ascii	"uint32_t\000"
 3083      33325F74 
 3083      00
 3084              	.LASF42:
 3085 01a6 41444331 		.ascii	"ADC1_2_IRQn\000"
 3085      5F325F49 
 3085      52516E00 
 3086              	.LASF76:
 3087 01b2 55415254 		.ascii	"UART4_IRQn\000"
 3087      345F4952 
 3087      516E00
 3088              	.LASF106:
 3089 01bd 646D615F 		.ascii	"dma_param\000"
 3089      70617261 
 3089      6D00
 3090              	.LASF22:
 3091 01c7 50656E64 		.ascii	"PendSV_IRQn\000"
 3091      53565F49 
 3091      52516E00 
 3092              	.LASF38:
 3093 01d3 444D4131 		.ascii	"DMA1_Channel4_IRQn\000"
 3093      5F436861 
 3093      6E6E656C 
ARM GAS  /var/folders/dt/0wfd0knj7gs46m8vwfzktm600000gn/T//ccosKjmj.s 			page 57


 3093      345F4952 
 3093      516E00
 3094              	.LASF18:
 3095 01e6 42757346 		.ascii	"BusFault_IRQn\000"
 3095      61756C74 
 3095      5F495251 
 3095      6E00
 3096              	.LASF101:
 3097 01f4 73656C66 		.ascii	"selfindex\000"
 3097      696E6465 
 3097      7800
 3098              	.LASF89:
 3099 01fe 444D415F 		.ascii	"DMA_TypeDef\000"
 3099      54797065 
 3099      44656600 
 3100              	.LASF0:
 3101 020a 756E7369 		.ascii	"unsigned int\000"
 3101      676E6564 
 3101      20696E74 
 3101      00
 3102              	.LASF137:
 3103 0217 6E766963 		.ascii	"nvicDisableVector\000"
 3103      44697361 
 3103      626C6556 
 3103      6563746F 
 3103      7200
 3104              	.LASF85:
 3105 0229 43504152 		.ascii	"CPAR\000"
 3105      00
 3106              	.LASF104:
 3107 022e 73746D33 		.ascii	"stm32_dmaisr_t\000"
 3107      325F646D 
 3107      61697372 
 3107      5F7400
 3108              	.LASF10:
 3109 023d 6C6F6E67 		.ascii	"long unsigned int\000"
 3109      20756E73 
 3109      69676E65 
 3109      6420696E 
 3109      7400
 3110              	.LASF97:
 3111 024f 5243435F 		.ascii	"RCC_TypeDef\000"
 3111      54797065 
 3111      44656600 
 3112              	.LASF87:
 3113 025b 444D415F 		.ascii	"DMA_Channel_TypeDef\000"
 3113      4368616E 
 3113      6E656C5F 
 3113      54797065 
 3113      44656600 
 3114              	.LASF100:
 3115 026f 69736869 		.ascii	"ishift\000"
 3115      667400
 3116              	.LASF39:
 3117 0276 444D4131 		.ascii	"DMA1_Channel5_IRQn\000"
 3117      5F436861 
 3117      6E6E656C 
ARM GAS  /var/folders/dt/0wfd0knj7gs46m8vwfzktm600000gn/T//ccosKjmj.s 			page 58


 3117      355F4952 
 3117      516E00
 3118              	.LASF6:
 3119 0289 73686F72 		.ascii	"short unsigned int\000"
 3119      7420756E 
 3119      7369676E 
 3119      65642069 
 3119      6E7400
 3120              	.LASF64:
 3121 029c 45585449 		.ascii	"EXTI15_10_IRQn\000"
 3121      31355F31 
 3121      305F4952 
 3121      516E00
 3122              	.LASF59:
 3123 02ab 53504931 		.ascii	"SPI1_IRQn\000"
 3123      5F495251 
 3123      6E00
 3124              	.LASF122:
 3125 02b5 7072696F 		.ascii	"priority\000"
 3125      72697479 
 3125      00
 3126              	.LASF41:
 3127 02be 444D4131 		.ascii	"DMA1_Channel7_IRQn\000"
 3127      5F436861 
 3127      6E6E656C 
 3127      375F4952 
 3127      516E00
 3128              	.LASF23:
 3129 02d1 53797354 		.ascii	"SysTick_IRQn\000"
 3129      69636B5F 
 3129      4952516E 
 3129      00
 3130              	.LASF51:
 3131 02de 54494D31 		.ascii	"TIM1_CC_IRQn\000"
 3131      5F43435F 
 3131      4952516E 
 3131      00
 3132              	.LASF133:
 3133 02eb 4952516E 		.ascii	"IRQn\000"
 3133      00
 3134              	.LASF36:
 3135 02f0 444D4131 		.ascii	"DMA1_Channel2_IRQn\000"
 3135      5F436861 
 3135      6E6E656C 
 3135      325F4952 
 3135      516E00
 3136              	.LASF67:
 3137 0303 54494D38 		.ascii	"TIM8_BRK_IRQn\000"
 3137      5F42524B 
 3137      5F495251 
 3137      6E00
 3138              	.LASF14:
 3139 0311 73697A65 		.ascii	"sizetype\000"
 3139      74797065 
 3139      00
 3140              	.LASF70:
 3141 031a 54494D38 		.ascii	"TIM8_CC_IRQn\000"
ARM GAS  /var/folders/dt/0wfd0knj7gs46m8vwfzktm600000gn/T//ccosKjmj.s 			page 59


 3141      5F43435F 
 3141      4952516E 
 3141      00
 3142              	.LASF20:
 3143 0327 53564361 		.ascii	"SVCall_IRQn\000"
 3143      6C6C5F49 
 3143      52516E00 
 3144              	.LASF57:
 3145 0333 49324332 		.ascii	"I2C2_EV_IRQn\000"
 3145      5F45565F 
 3145      4952516E 
 3145      00
 3146              	.LASF81:
 3147 0340 444D4132 		.ascii	"DMA2_Channel2_IRQn\000"
 3147      5F436861 
 3147      6E6E656C 
 3147      325F4952 
 3147      516E00
 3148              	.LASF124:
 3149 0353 70617261 		.ascii	"param\000"
 3149      6D00
 3150              	.LASF74:
 3151 0359 54494D35 		.ascii	"TIM5_IRQn\000"
 3151      5F495251 
 3151      6E00
 3152              	.LASF33:
 3153 0363 45585449 		.ascii	"EXTI3_IRQn\000"
 3153      335F4952 
 3153      516E00
 3154              	.LASF60:
 3155 036e 53504932 		.ascii	"SPI2_IRQn\000"
 3155      5F495251 
 3155      6E00
 3156              	.LASF105:
 3157 0378 646D615F 		.ascii	"dma_func\000"
 3157      66756E63 
 3157      00
 3158              	.LASF66:
 3159 0381 5553425F 		.ascii	"USB_FS_WKUP_IRQn\000"
 3159      46535F57 
 3159      4B55505F 
 3159      4952516E 
 3159      00
 3160              	.LASF130:
 3161 0392 474E5520 		.ascii	"GNU C 4.7.2\000"
 3161      4320342E 
 3161      372E3200 
 3162              	.LASF92:
 3163 039e 41504231 		.ascii	"APB1RSTR\000"
 3163      52535452 
 3163      00
 3164              	.LASF35:
 3165 03a7 444D4131 		.ascii	"DMA1_Channel1_IRQn\000"
 3165      5F436861 
 3165      6E6E656C 
 3165      315F4952 
 3165      516E00
ARM GAS  /var/folders/dt/0wfd0knj7gs46m8vwfzktm600000gn/T//ccosKjmj.s 			page 60


 3166              	.LASF17:
 3167 03ba 4D656D6F 		.ascii	"MemoryManagement_IRQn\000"
 3167      72794D61 
 3167      6E616765 
 3167      6D656E74 
 3167      5F495251 
 3168              	.LASF61:
 3169 03d0 55534152 		.ascii	"USART1_IRQn\000"
 3169      54315F49 
 3169      52516E00 
 3170              	.LASF103:
 3171 03dc 73746D33 		.ascii	"stm32_dma_stream_t\000"
 3171      325F646D 
 3171      615F7374 
 3171      7265616D 
 3171      5F7400
 3172              	.LASF108:
 3173 03ef 56656374 		.ascii	"Vector6C\000"
 3173      6F723643 
 3173      00
 3174              	.LASF72:
 3175 03f8 46534D43 		.ascii	"FSMC_IRQn\000"
 3175      5F495251 
 3175      6E00
 3176              	.LASF82:
 3177 0402 444D4132 		.ascii	"DMA2_Channel3_IRQn\000"
 3177      5F436861 
 3177      6E6E656C 
 3177      335F4952 
 3177      516E00
 3178              	.LASF7:
 3179 0415 696E7433 		.ascii	"int32_t\000"
 3179      325F7400 
 3180              	.LASF2:
 3181 041d 756E7369 		.ascii	"unsigned char\000"
 3181      676E6564 
 3181      20636861 
 3181      7200
 3182              	.LASF44:
 3183 042b 5553425F 		.ascii	"USB_LP_CAN1_RX0_IRQn\000"
 3183      4C505F43 
 3183      414E315F 
 3183      5258305F 
 3183      4952516E 
 3184              	.LASF69:
 3185 0440 54494D38 		.ascii	"TIM8_TRG_COM_IRQn\000"
 3185      5F545247 
 3185      5F434F4D 
 3185      5F495251 
 3185      6E00
 3186              	.LASF43:
 3187 0452 5553425F 		.ascii	"USB_HP_CAN1_TX_IRQn\000"
 3187      48505F43 
 3187      414E315F 
 3187      54585F49 
 3187      52516E00 
 3188              	.LASF128:
ARM GAS  /var/folders/dt/0wfd0knj7gs46m8vwfzktm600000gn/T//ccosKjmj.s 			page 61


 3189 0466 49544D5F 		.ascii	"ITM_RxBuffer\000"
 3189      52784275 
 3189      66666572 
 3189      00
 3190              	.LASF78:
 3191 0473 54494D36 		.ascii	"TIM6_IRQn\000"
 3191      5F495251 
 3191      6E00
 3192              	.LASF34:
 3193 047d 45585449 		.ascii	"EXTI4_IRQn\000"
 3193      345F4952 
 3193      516E00
 3194              	.LASF3:
 3195 0488 73686F72 		.ascii	"short int\000"
 3195      7420696E 
 3195      7400
 3196              	.LASF77:
 3197 0492 55415254 		.ascii	"UART5_IRQn\000"
 3197      355F4952 
 3197      516E00
 3198              	.LASF83:
 3199 049d 444D4132 		.ascii	"DMA2_Channel4_5_IRQn\000"
 3199      5F436861 
 3199      6E6E656C 
 3199      345F355F 
 3199      4952516E 
 3200              	.LASF94:
 3201 04b2 41504232 		.ascii	"APB2ENR\000"
 3201      454E5200 
 3202              	.LASF98:
 3203 04ba 6368616E 		.ascii	"channel\000"
 3203      6E656C00 
 3204              	.LASF28:
 3205 04c2 464C4153 		.ascii	"FLASH_IRQn\000"
 3205      485F4952 
 3205      516E00
 3206              	.LASF99:
 3207 04cd 69666372 		.ascii	"ifcr\000"
 3207      00
 3208              	.LASF109:
 3209 04d2 56656374 		.ascii	"Vector70\000"
 3209      6F723730 
 3209      00
 3210              	.LASF111:
 3211 04db 56656374 		.ascii	"Vector74\000"
 3211      6F723734 
 3211      00
 3212              	.LASF62:
 3213 04e4 55534152 		.ascii	"USART2_IRQn\000"
 3213      54325F49 
 3213      52516E00 
 3214              	.LASF19:
 3215 04f0 55736167 		.ascii	"UsageFault_IRQn\000"
 3215      65466175 
 3215      6C745F49 
 3215      52516E00 
 3216              	.LASF112:
ARM GAS  /var/folders/dt/0wfd0knj7gs46m8vwfzktm600000gn/T//ccosKjmj.s 			page 62


 3217 0500 56656374 		.ascii	"Vector78\000"
 3217      6F723738 
 3217      00
 3218              	.LASF120:
 3219 0509 646D6149 		.ascii	"dmaInit\000"
 3219      6E697400 
 3220              	.LASF88:
 3221 0511 49464352 		.ascii	"IFCR\000"
 3221      00
 3222              	.LASF15:
 3223 0516 63686172 		.ascii	"char\000"
 3223      00
 3224              	.LASF125:
 3225 051b 646D6153 		.ascii	"dmaStreamRelease\000"
 3225      74726561 
 3225      6D52656C 
 3225      65617365 
 3225      00
 3226              	.LASF113:
 3227 052c 56656374 		.ascii	"Vector7C\000"
 3227      6F723743 
 3227      00
 3228              	.LASF48:
 3229 0535 54494D31 		.ascii	"TIM1_BRK_IRQn\000"
 3229      5F42524B 
 3229      5F495251 
 3229      6E00
 3230              	.LASF79:
 3231 0543 54494D37 		.ascii	"TIM7_IRQn\000"
 3231      5F495251 
 3231      6E00
 3232              	.LASF16:
 3233 054d 4E6F6E4D 		.ascii	"NonMaskableInt_IRQn\000"
 3233      61736B61 
 3233      626C6549 
 3233      6E745F49 
 3233      52516E00 
 3234              	.LASF40:
 3235 0561 444D4131 		.ascii	"DMA1_Channel6_IRQn\000"
 3235      5F436861 
 3235      6E6E656C 
 3235      365F4952 
 3235      516E00
 3236              	.LASF95:
 3237 0574 41504231 		.ascii	"APB1ENR\000"
 3237      454E5200 
 3238              	.LASF26:
 3239 057c 54414D50 		.ascii	"TAMPER_IRQn\000"
 3239      45525F49 
 3239      52516E00 
 3240              	.LASF49:
 3241 0588 54494D31 		.ascii	"TIM1_UP_IRQn\000"
 3241      5F55505F 
 3241      4952516E 
 3241      00
 3242              	.LASF126:
 3243 0595 646D615F 		.ascii	"dma_streams_mask\000"
ARM GAS  /var/folders/dt/0wfd0knj7gs46m8vwfzktm600000gn/T//ccosKjmj.s 			page 63


 3243      73747265 
 3243      616D735F 
 3243      6D61736B 
 3243      00
 3244              	.LASF21:
 3245 05a6 44656275 		.ascii	"DebugMonitor_IRQn\000"
 3245      674D6F6E 
 3245      69746F72 
 3245      5F495251 
 3245      6E00
 3246              	.LASF47:
 3247 05b8 45585449 		.ascii	"EXTI9_5_IRQn\000"
 3247      395F355F 
 3247      4952516E 
 3247      00
 3248              	.LASF114:
 3249 05c5 56656374 		.ascii	"Vector80\000"
 3249      6F723830 
 3249      00
 3250              	.LASF63:
 3251 05ce 55534152 		.ascii	"USART3_IRQn\000"
 3251      54335F49 
 3251      52516E00 
 3252              	.LASF115:
 3253 05da 56656374 		.ascii	"Vector84\000"
 3253      6F723834 
 3253      00
 3254              	.LASF52:
 3255 05e3 54494D32 		.ascii	"TIM2_IRQn\000"
 3255      5F495251 
 3255      6E00
 3256              	.LASF68:
 3257 05ed 54494D38 		.ascii	"TIM8_UP_IRQn\000"
 3257      5F55505F 
 3257      4952516E 
 3257      00
 3258              	.LASF30:
 3259 05fa 45585449 		.ascii	"EXTI0_IRQn\000"
 3259      305F4952 
 3259      516E00
 3260              	.LASF84:
 3261 0605 434E4454 		.ascii	"CNDTR\000"
 3261      5200
 3262              	.LASF96:
 3263 060b 42444352 		.ascii	"BDCR\000"
 3263      00
 3264              	.LASF135:
 3265 0610 5F706F72 		.ascii	"_port_irq_epilogue\000"
 3265      745F6972 
 3265      715F6570 
 3265      696C6F67 
 3265      756500
 3266              	.LASF4:
 3267 0623 75696E74 		.ascii	"uint8_t\000"
 3267      385F7400 
 3268              	.LASF110:
 3269 062b 666C6167 		.ascii	"flags\000"
ARM GAS  /var/folders/dt/0wfd0knj7gs46m8vwfzktm600000gn/T//ccosKjmj.s 			page 64


 3269      7300
 3270              	.LASF127:
 3271 0631 646D615F 		.ascii	"dma_isr_redir\000"
 3271      6973725F 
 3271      72656469 
 3271      7200
 3272              	.LASF116:
 3273 063f 56656374 		.ascii	"Vector120\000"
 3273      6F723132 
 3273      3000
 3274              	.LASF90:
 3275 0649 43464752 		.ascii	"CFGR\000"
 3275      00
 3276              	.LASF117:
 3277 064e 56656374 		.ascii	"Vector124\000"
 3277      6F723132 
 3277      3400
 3278              	.LASF118:
 3279 0658 56656374 		.ascii	"Vector128\000"
 3279      6F723132 
 3279      3800
 3280              	.LASF131:
 3281 0662 2E2E2F2E 		.ascii	"../../os/hal/platforms/STM32F1xx/stm32_dma.c\000"
 3281      2E2F6F73 
 3281      2F68616C 
 3281      2F706C61 
 3281      74666F72 
 3282              	.LASF56:
 3283 068f 49324331 		.ascii	"I2C1_ER_IRQn\000"
 3283      5F45525F 
 3283      4952516E 
 3283      00
 3284              	.LASF27:
 3285 069c 5254435F 		.ascii	"RTC_IRQn\000"
 3285      4952516E 
 3285      00
 3286              	.LASF75:
 3287 06a5 53504933 		.ascii	"SPI3_IRQn\000"
 3287      5F495251 
 3287      6E00
 3288              	.LASF119:
 3289 06af 56656374 		.ascii	"Vector12C\000"
 3289      6F723132 
 3289      4300
 3290              	.LASF46:
 3291 06b9 43414E31 		.ascii	"CAN1_SCE_IRQn\000"
 3291      5F534345 
 3291      5F495251 
 3291      6E00
 3292              	.LASF134:
 3293 06c7 646D6153 		.ascii	"dmaStreamAllocate\000"
 3293      74726561 
 3293      6D416C6C 
 3293      6F636174 
 3293      6500
 3294              	.LASF29:
 3295 06d9 5243435F 		.ascii	"RCC_IRQn\000"
ARM GAS  /var/folders/dt/0wfd0knj7gs46m8vwfzktm600000gn/T//ccosKjmj.s 			page 65


 3295      4952516E 
 3295      00
 3296              	.LASF53:
 3297 06e2 54494D33 		.ascii	"TIM3_IRQn\000"
 3297      5F495251 
 3297      6E00
 3298              	.LASF93:
 3299 06ec 41484245 		.ascii	"AHBENR\000"
 3299      4E5200
 3300              	.LASF31:
 3301 06f3 45585449 		.ascii	"EXTI1_IRQn\000"
 3301      315F4952 
 3301      516E00
 3302              		.ident	"GCC: (GNU) 4.7.2"
ARM GAS  /var/folders/dt/0wfd0knj7gs46m8vwfzktm600000gn/T//ccosKjmj.s 			page 66


DEFINED SYMBOLS
                            *ABS*:0000000000000000 stm32_dma.c
/var/folders/dt/0wfd0knj7gs46m8vwfzktm600000gn/T//ccosKjmj.s:19     .text.Vector6C:0000000000000000 $t
/var/folders/dt/0wfd0knj7gs46m8vwfzktm600000gn/T//ccosKjmj.s:25     .text.Vector6C:0000000000000000 Vector6C
/var/folders/dt/0wfd0knj7gs46m8vwfzktm600000gn/T//ccosKjmj.s:69     .text.Vector6C:0000000000000024 $d
/var/folders/dt/0wfd0knj7gs46m8vwfzktm600000gn/T//ccosKjmj.s:74     .text.Vector70:0000000000000000 $t
/var/folders/dt/0wfd0knj7gs46m8vwfzktm600000gn/T//ccosKjmj.s:80     .text.Vector70:0000000000000000 Vector70
/var/folders/dt/0wfd0knj7gs46m8vwfzktm600000gn/T//ccosKjmj.s:123    .text.Vector70:0000000000000024 $d
/var/folders/dt/0wfd0knj7gs46m8vwfzktm600000gn/T//ccosKjmj.s:128    .text.Vector74:0000000000000000 $t
/var/folders/dt/0wfd0knj7gs46m8vwfzktm600000gn/T//ccosKjmj.s:134    .text.Vector74:0000000000000000 Vector74
/var/folders/dt/0wfd0knj7gs46m8vwfzktm600000gn/T//ccosKjmj.s:177    .text.Vector74:0000000000000028 $d
/var/folders/dt/0wfd0knj7gs46m8vwfzktm600000gn/T//ccosKjmj.s:182    .text.Vector78:0000000000000000 $t
/var/folders/dt/0wfd0knj7gs46m8vwfzktm600000gn/T//ccosKjmj.s:188    .text.Vector78:0000000000000000 Vector78
/var/folders/dt/0wfd0knj7gs46m8vwfzktm600000gn/T//ccosKjmj.s:231    .text.Vector78:0000000000000028 $d
/var/folders/dt/0wfd0knj7gs46m8vwfzktm600000gn/T//ccosKjmj.s:236    .text.Vector7C:0000000000000000 $t
/var/folders/dt/0wfd0knj7gs46m8vwfzktm600000gn/T//ccosKjmj.s:242    .text.Vector7C:0000000000000000 Vector7C
/var/folders/dt/0wfd0knj7gs46m8vwfzktm600000gn/T//ccosKjmj.s:285    .text.Vector7C:0000000000000028 $d
/var/folders/dt/0wfd0knj7gs46m8vwfzktm600000gn/T//ccosKjmj.s:290    .text.Vector80:0000000000000000 $t
/var/folders/dt/0wfd0knj7gs46m8vwfzktm600000gn/T//ccosKjmj.s:296    .text.Vector80:0000000000000000 Vector80
/var/folders/dt/0wfd0knj7gs46m8vwfzktm600000gn/T//ccosKjmj.s:339    .text.Vector80:0000000000000028 $d
/var/folders/dt/0wfd0knj7gs46m8vwfzktm600000gn/T//ccosKjmj.s:344    .text.Vector84:0000000000000000 $t
/var/folders/dt/0wfd0knj7gs46m8vwfzktm600000gn/T//ccosKjmj.s:350    .text.Vector84:0000000000000000 Vector84
/var/folders/dt/0wfd0knj7gs46m8vwfzktm600000gn/T//ccosKjmj.s:393    .text.Vector84:0000000000000028 $d
/var/folders/dt/0wfd0knj7gs46m8vwfzktm600000gn/T//ccosKjmj.s:398    .text.Vector120:0000000000000000 $t
/var/folders/dt/0wfd0knj7gs46m8vwfzktm600000gn/T//ccosKjmj.s:404    .text.Vector120:0000000000000000 Vector120
/var/folders/dt/0wfd0knj7gs46m8vwfzktm600000gn/T//ccosKjmj.s:447    .text.Vector120:0000000000000028 $d
/var/folders/dt/0wfd0knj7gs46m8vwfzktm600000gn/T//ccosKjmj.s:452    .text.Vector124:0000000000000000 $t
/var/folders/dt/0wfd0knj7gs46m8vwfzktm600000gn/T//ccosKjmj.s:458    .text.Vector124:0000000000000000 Vector124
/var/folders/dt/0wfd0knj7gs46m8vwfzktm600000gn/T//ccosKjmj.s:501    .text.Vector124:0000000000000028 $d
/var/folders/dt/0wfd0knj7gs46m8vwfzktm600000gn/T//ccosKjmj.s:506    .text.Vector128:0000000000000000 $t
/var/folders/dt/0wfd0knj7gs46m8vwfzktm600000gn/T//ccosKjmj.s:512    .text.Vector128:0000000000000000 Vector128
/var/folders/dt/0wfd0knj7gs46m8vwfzktm600000gn/T//ccosKjmj.s:555    .text.Vector128:0000000000000028 $d
/var/folders/dt/0wfd0knj7gs46m8vwfzktm600000gn/T//ccosKjmj.s:560    .text.Vector12C:0000000000000000 $t
/var/folders/dt/0wfd0knj7gs46m8vwfzktm600000gn/T//ccosKjmj.s:566    .text.Vector12C:0000000000000000 Vector12C
/var/folders/dt/0wfd0knj7gs46m8vwfzktm600000gn/T//ccosKjmj.s:633    .text.Vector12C:000000000000004c $d
/var/folders/dt/0wfd0knj7gs46m8vwfzktm600000gn/T//ccosKjmj.s:638    .text.dmaInit:0000000000000000 $t
/var/folders/dt/0wfd0knj7gs46m8vwfzktm600000gn/T//ccosKjmj.s:644    .text.dmaInit:0000000000000000 dmaInit
/var/folders/dt/0wfd0knj7gs46m8vwfzktm600000gn/T//ccosKjmj.s:699    .text.dmaInit:0000000000000038 $d
/var/folders/dt/0wfd0knj7gs46m8vwfzktm600000gn/T//ccosKjmj.s:706    .text.dmaStreamAllocate:0000000000000000 $t
/var/folders/dt/0wfd0knj7gs46m8vwfzktm600000gn/T//ccosKjmj.s:712    .text.dmaStreamAllocate:0000000000000000 dmaStreamAllocate
/var/folders/dt/0wfd0knj7gs46m8vwfzktm600000gn/T//ccosKjmj.s:816    .text.dmaStreamAllocate:0000000000000088 $d
/var/folders/dt/0wfd0knj7gs46m8vwfzktm600000gn/T//ccosKjmj.s:822    .text.dmaStreamRelease:0000000000000000 $t
/var/folders/dt/0wfd0knj7gs46m8vwfzktm600000gn/T//ccosKjmj.s:828    .text.dmaStreamRelease:0000000000000000 dmaStreamRelease
/var/folders/dt/0wfd0knj7gs46m8vwfzktm600000gn/T//ccosKjmj.s:879    .text.dmaStreamRelease:000000000000004c $d
/var/folders/dt/0wfd0knj7gs46m8vwfzktm600000gn/T//ccosKjmj.s:896    .rodata._stm32_dma_streams:0000000000000000 _stm32_dma_streams
/var/folders/dt/0wfd0knj7gs46m8vwfzktm600000gn/T//ccosKjmj.s:885    .bss.dma_isr_redir:0000000000000000 $d
/var/folders/dt/0wfd0knj7gs46m8vwfzktm600000gn/T//ccosKjmj.s:889    .bss.dma_isr_redir:0000000000000000 dma_isr_redir
/var/folders/dt/0wfd0knj7gs46m8vwfzktm600000gn/T//ccosKjmj.s:892    .rodata._stm32_dma_streams:0000000000000000 $d
/var/folders/dt/0wfd0knj7gs46m8vwfzktm600000gn/T//ccosKjmj.s:970    .bss.dma_streams_mask:0000000000000000 $d
/var/folders/dt/0wfd0knj7gs46m8vwfzktm600000gn/T//ccosKjmj.s:974    .bss.dma_streams_mask:0000000000000000 dma_streams_mask
                     .debug_frame:0000000000000010 $d
/var/folders/dt/0wfd0knj7gs46m8vwfzktm600000gn/T//ccosKjmj.s:73     .text.Vector6C:0000000000000028 $t
/var/folders/dt/0wfd0knj7gs46m8vwfzktm600000gn/T//ccosKjmj.s:127    .text.Vector70:0000000000000028 $t
/var/folders/dt/0wfd0knj7gs46m8vwfzktm600000gn/T//ccosKjmj.s:181    .text.Vector74:000000000000002c $t
/var/folders/dt/0wfd0knj7gs46m8vwfzktm600000gn/T//ccosKjmj.s:235    .text.Vector78:000000000000002c $t
/var/folders/dt/0wfd0knj7gs46m8vwfzktm600000gn/T//ccosKjmj.s:289    .text.Vector7C:000000000000002c $t
/var/folders/dt/0wfd0knj7gs46m8vwfzktm600000gn/T//ccosKjmj.s:343    .text.Vector80:000000000000002c $t
ARM GAS  /var/folders/dt/0wfd0knj7gs46m8vwfzktm600000gn/T//ccosKjmj.s 			page 67


/var/folders/dt/0wfd0knj7gs46m8vwfzktm600000gn/T//ccosKjmj.s:397    .text.Vector84:000000000000002c $t
/var/folders/dt/0wfd0knj7gs46m8vwfzktm600000gn/T//ccosKjmj.s:451    .text.Vector120:000000000000002c $t
/var/folders/dt/0wfd0knj7gs46m8vwfzktm600000gn/T//ccosKjmj.s:505    .text.Vector124:000000000000002c $t
/var/folders/dt/0wfd0knj7gs46m8vwfzktm600000gn/T//ccosKjmj.s:559    .text.Vector128:000000000000002c $t
/var/folders/dt/0wfd0knj7gs46m8vwfzktm600000gn/T//ccosKjmj.s:705    .text.dmaInit:0000000000000044 $t

UNDEFINED SYMBOLS
_port_irq_epilogue
nvicEnableVector
nvicDisableVector
