ARM GAS  /var/folders/dt/0wfd0knj7gs46m8vwfzktm600000gn/T//ccWoQfLH.s 			page 1


   1              		.syntax unified
   2              		.cpu cortex-m3
   3              		.fpu softvfp
   4              		.eabi_attribute 20, 1
   5              		.eabi_attribute 21, 1
   6              		.eabi_attribute 23, 3
   7              		.eabi_attribute 24, 1
   8              		.eabi_attribute 25, 1
   9              		.eabi_attribute 26, 1
  10              		.eabi_attribute 30, 2
  11              		.eabi_attribute 34, 1
  12              		.eabi_attribute 18, 4
  13              		.thumb
  14              		.file	"syscalls.c"
  15              		.text
  16              	.Ltext0:
  17              		.cfi_sections	.debug_frame
  18              		.section	.text._read_r,"ax",%progbits
  19              		.align	2
  20              		.p2align 4,,15
  21              		.global	_read_r
  22              		.thumb
  23              		.thumb_func
  24              		.type	_read_r, %function
  25              	_read_r:
  26              	.LFB62:
  27              		.file 1 "../../os/various/syscalls.c"
  28              		.loc 1 82 0
  29              		.cfi_startproc
  30              		@ args = 0, pretend = 0, frame = 0
  31              		@ frame_needed = 0, uses_anonymous_args = 0
  32              		@ link register save eliminated.
  33              	.LVL0:
  34              		.loc 1 85 0
  35 0000 0031     		adds	r1, r1, #0
  36 0002 18BF     		it	ne
  37 0004 0121     		movne	r1, #1
  38              	.LVL1:
  39              		.loc 1 82 0
  40 0006 10B4     		push	{r4}
  41              	.LCFI0:
  42              		.cfi_def_cfa_offset 4
  43              		.cfi_offset 4, -4
  44              		.loc 1 85 0
  45 0008 002B     		cmp	r3, #0
  46 000a 14BF     		ite	ne
  47 000c 0C46     		movne	r4, r1
  48 000e 41F00104 		orreq	r4, r1, #1
  49 0012 3CB9     		cbnz	r4, .L5
  50              		.loc 1 89 0
  51 0014 0648     		ldr	r0, .L7
  52              	.LVL2:
  53 0016 1146     		mov	r1, r2
  54 0018 1A46     		mov	r2, r3
  55              	.LVL3:
  56 001a 4FF0FF33 		mov	r3, #-1
  57              	.LVL4:
ARM GAS  /var/folders/dt/0wfd0knj7gs46m8vwfzktm600000gn/T//ccWoQfLH.s 			page 2


  58              		.loc 1 98 0
  59 001e 10BC     		pop	{r4}
  60              		.loc 1 89 0
  61 0020 FFF7FEBF 		b	chIQReadTimeout
  62              	.LVL5:
  63              	.L5:
  64              		.loc 1 86 0
  65 0024 1623     		movs	r3, #22
  66              	.LVL6:
  67 0026 0360     		str	r3, [r0, #0]
  68              		.loc 1 98 0
  69 0028 4FF0FF30 		mov	r0, #-1
  70              	.LVL7:
  71 002c 10BC     		pop	{r4}
  72 002e 7047     		bx	lr
  73              	.L8:
  74              		.align	2
  75              	.L7:
  76 0030 10000000 		.word	SD2+16
  77              		.cfi_endproc
  78              	.LFE62:
  79              		.size	_read_r, .-_read_r
  80 0034 AFF30080 		.section	.text._lseek_r,"ax",%progbits
  80      AFF30080 
  80      AFF30080 
  81              		.align	2
  82              		.p2align 4,,15
  83              		.global	_lseek_r
  84              		.thumb
  85              		.thumb_func
  86              		.type	_lseek_r, %function
  87              	_lseek_r:
  88              	.LFB63:
  89              		.loc 1 103 0
  90              		.cfi_startproc
  91              		@ args = 0, pretend = 0, frame = 0
  92              		@ frame_needed = 0, uses_anonymous_args = 0
  93              		@ link register save eliminated.
  94              	.LVL8:
  95              		.loc 1 110 0
  96 0000 0020     		movs	r0, #0
  97              	.LVL9:
  98 0002 7047     		bx	lr
  99              		.cfi_endproc
 100              	.LFE63:
 101              		.size	_lseek_r, .-_lseek_r
 102 0004 AFF30080 		.section	.text._write_r,"ax",%progbits
 102      AFF30080 
 102      AFF30080 
 103              		.align	2
 104              		.p2align 4,,15
 105              		.global	_write_r
 106              		.thumb
 107              		.thumb_func
 108              		.type	_write_r, %function
 109              	_write_r:
 110              	.LFB64:
ARM GAS  /var/folders/dt/0wfd0knj7gs46m8vwfzktm600000gn/T//ccWoQfLH.s 			page 3


 111              		.loc 1 115 0
 112              		.cfi_startproc
 113              		@ args = 0, pretend = 0, frame = 0
 114              		@ frame_needed = 0, uses_anonymous_args = 0
 115              	.LVL10:
 116              		.loc 1 120 0
 117 0000 0129     		cmp	r1, #1
 118              		.loc 1 115 0
 119 0002 10B5     		push	{r4, lr}
 120              	.LCFI1:
 121              		.cfi_def_cfa_offset 8
 122              		.cfi_offset 4, -8
 123              		.cfi_offset 14, -4
 124              		.loc 1 115 0
 125 0004 1C46     		mov	r4, r3
 126              		.loc 1 120 0
 127 0006 08D1     		bne	.L13
 128              		.loc 1 124 0
 129 0008 1146     		mov	r1, r2
 130              	.LVL11:
 131 000a 0748     		ldr	r0, .L14
 132              	.LVL12:
 133 000c 1A46     		mov	r2, r3
 134              	.LVL13:
 135 000e 4FF0FF33 		mov	r3, #-1
 136              	.LVL14:
 137 0012 FFF7FEFF 		bl	chOQWriteTimeout
 138              	.LVL15:
 139              		.loc 1 127 0
 140 0016 2046     		mov	r0, r4
 141 0018 10BD     		pop	{r4, pc}
 142              	.LVL16:
 143              	.L13:
 144              		.loc 1 121 0
 145 001a 1623     		movs	r3, #22
 146              	.LVL17:
 147              		.loc 1 122 0
 148 001c 4FF0FF34 		mov	r4, #-1
 149              	.LVL18:
 150              		.loc 1 121 0
 151 0020 0360     		str	r3, [r0, #0]
 152              		.loc 1 127 0
 153 0022 2046     		mov	r0, r4
 154              	.LVL19:
 155 0024 10BD     		pop	{r4, pc}
 156              	.L15:
 157 0026 00BF     		.align	2
 158              	.L14:
 159 0028 30000000 		.word	SD2+48
 160              		.cfi_endproc
 161              	.LFE64:
 162              		.size	_write_r, .-_write_r
 163 002c AFF30080 		.section	.text._close_r,"ax",%progbits
 164              		.align	2
 165              		.p2align 4,,15
 166              		.global	_close_r
 167              		.thumb
ARM GAS  /var/folders/dt/0wfd0knj7gs46m8vwfzktm600000gn/T//ccWoQfLH.s 			page 4


 168              		.thumb_func
 169              		.type	_close_r, %function
 170              	_close_r:
 171              	.LFB65:
 172              		.loc 1 132 0
 173              		.cfi_startproc
 174              		@ args = 0, pretend = 0, frame = 0
 175              		@ frame_needed = 0, uses_anonymous_args = 0
 176              		@ link register save eliminated.
 177              	.LVL20:
 178              		.loc 1 137 0
 179 0000 0020     		movs	r0, #0
 180              	.LVL21:
 181 0002 7047     		bx	lr
 182              		.cfi_endproc
 183              	.LFE65:
 184              		.size	_close_r, .-_close_r
 185 0004 AFF30080 		.section	.text._sbrk_r,"ax",%progbits
 185      AFF30080 
 185      AFF30080 
 186              		.align	2
 187              		.p2align 4,,15
 188              		.global	_sbrk_r
 189              		.thumb
 190              		.thumb_func
 191              		.type	_sbrk_r, %function
 192              	_sbrk_r:
 193              	.LFB66:
 194              		.loc 1 142 0
 195              		.cfi_startproc
 196              		@ args = 0, pretend = 0, frame = 0
 197              		@ frame_needed = 0, uses_anonymous_args = 0
 198              	.LVL22:
 199 0000 10B5     		push	{r4, lr}
 200              	.LCFI2:
 201              		.cfi_def_cfa_offset 8
 202              		.cfi_offset 4, -8
 203              		.cfi_offset 14, -4
 204              		.loc 1 142 0
 205 0002 0446     		mov	r4, r0
 206              		.loc 1 149 0
 207 0004 0846     		mov	r0, r1
 208              	.LVL23:
 209 0006 FFF7FEFF 		bl	chCoreAlloc
 210              	.LVL24:
 211              		.loc 1 150 0
 212 000a 00B1     		cbz	r0, .L19
 213              		.loc 1 159 0
 214 000c 10BD     		pop	{r4, pc}
 215              	.L19:
 216              		.loc 1 151 0
 217 000e 0C23     		movs	r3, #12
 218 0010 2360     		str	r3, [r4, #0]
 219              		.loc 1 152 0
 220 0012 4FF0FF30 		mov	r0, #-1
 221              	.LVL25:
 222              		.loc 1 159 0
ARM GAS  /var/folders/dt/0wfd0knj7gs46m8vwfzktm600000gn/T//ccWoQfLH.s 			page 5


 223 0016 10BD     		pop	{r4, pc}
 224              		.cfi_endproc
 225              	.LFE66:
 226              		.size	_sbrk_r, .-_sbrk_r
 227 0018 AFF30080 		.section	.text._fstat_r,"ax",%progbits
 227      AFF30080 
 228              		.align	2
 229              		.p2align 4,,15
 230              		.global	_fstat_r
 231              		.thumb
 232              		.thumb_func
 233              		.type	_fstat_r, %function
 234              	_fstat_r:
 235              	.LFB67:
 236              		.loc 1 164 0
 237              		.cfi_startproc
 238              		@ args = 0, pretend = 0, frame = 0
 239              		@ frame_needed = 0, uses_anonymous_args = 0
 240              	.LVL26:
 241 0000 10B5     		push	{r4, lr}
 242              	.LCFI3:
 243              		.cfi_def_cfa_offset 8
 244              		.cfi_offset 4, -8
 245              		.cfi_offset 14, -4
 246              		.loc 1 168 0
 247 0002 1046     		mov	r0, r2
 248              	.LVL27:
 249              		.loc 1 164 0
 250 0004 1446     		mov	r4, r2
 251              		.loc 1 168 0
 252 0006 0021     		movs	r1, #0
 253              	.LVL28:
 254 0008 3C22     		movs	r2, #60
 255              	.LVL29:
 256 000a FFF7FEFF 		bl	memset
 257              	.LVL30:
 258              		.loc 1 169 0
 259 000e 4FF40053 		mov	r3, #8192
 260 0012 6360     		str	r3, [r4, #4]
 261              		.loc 1 171 0
 262 0014 0020     		movs	r0, #0
 263 0016 10BD     		pop	{r4, pc}
 264              		.cfi_endproc
 265              	.LFE67:
 266              		.size	_fstat_r, .-_fstat_r
 267 0018 AFF30080 		.section	.text._isatty_r,"ax",%progbits
 267      AFF30080 
 268              		.align	2
 269              		.p2align 4,,15
 270              		.global	_isatty_r
 271              		.thumb
 272              		.thumb_func
 273              		.type	_isatty_r, %function
 274              	_isatty_r:
 275              	.LFB68:
 276              		.loc 1 176 0
 277              		.cfi_startproc
ARM GAS  /var/folders/dt/0wfd0knj7gs46m8vwfzktm600000gn/T//ccWoQfLH.s 			page 6


 278              		@ args = 0, pretend = 0, frame = 0
 279              		@ frame_needed = 0, uses_anonymous_args = 0
 280              		@ link register save eliminated.
 281              	.LVL31:
 282              		.loc 1 181 0
 283 0000 0120     		movs	r0, #1
 284              	.LVL32:
 285 0002 7047     		bx	lr
 286              		.cfi_endproc
 287              	.LFE68:
 288              		.size	_isatty_r, .-_isatty_r
 289 0004 AFF30080 		.text
 289      AFF30080 
 289      AFF30080 
 290              	.Letext0:
 291              		.file 2 "/Users/toxygen/Applications/yagarto-4.7.2/bin/../lib/gcc/arm-none-eabi/4.7.2/include/stdd
 292              		.file 3 "/Users/toxygen/Applications/yagarto-4.7.2/bin/../lib/gcc/arm-none-eabi/4.7.2/../../../../
 293              		.file 4 "/Users/toxygen/Applications/yagarto-4.7.2/bin/../lib/gcc/arm-none-eabi/4.7.2/../../../../
 294              		.file 5 "/Users/toxygen/Applications/yagarto-4.7.2/bin/../lib/gcc/arm-none-eabi/4.7.2/../../../../
 295              		.file 6 "/Users/toxygen/Applications/yagarto-4.7.2/bin/../lib/gcc/arm-none-eabi/4.7.2/../../../../
 296              		.file 7 "/Users/toxygen/Applications/yagarto-4.7.2/bin/../lib/gcc/arm-none-eabi/4.7.2/../../../../
 297              		.file 8 "/Users/toxygen/Applications/yagarto-4.7.2/bin/../lib/gcc/arm-none-eabi/4.7.2/../../../../
 298              		.file 9 "../../os/ports/GCC/ARMCMx/chtypes.h"
 299              		.file 10 "../../os/kernel/include/chlists.h"
 300              		.file 11 "../../os/kernel/include/chthreads.h"
 301              		.file 12 "../../os/ports/GCC/ARMCMx/chcore_v7m.h"
 302              		.file 13 "../../os/kernel/include/chmtx.h"
 303              		.file 14 "../../os/kernel/include/chevents.h"
 304              		.file 15 "../../os/kernel/include/chqueues.h"
 305              		.file 16 "../../os/kernel/include/chioch.h"
 306              		.file 17 "../../os/hal/platforms/STM32F1xx/stm32f10x.h"
 307              		.file 18 "../../os/hal/include/serial.h"
 308              		.file 19 "../../os/kernel/include/chmemcore.h"
 309              		.file 20 "../../os/ports/common/ARMCMx/CMSIS/include/core_cm3.h"
 310              		.file 21 "../../os/hal/platforms/STM32/serial_lld.h"