ARM GAS  /var/folders/dt/0wfd0knj7gs46m8vwfzktm600000gn/T//ccWoQfLH.s 			page 1


   1              		.syntax unified
   2              		.cpu cortex-m3
   3              		.fpu softvfp
   4              		.eabi_attribute 20, 1
   5              		.eabi_attribute 21, 1
   6              		.eabi_attribute 23, 3
   7              		.eabi_attribute 24, 1
   8              		.eabi_attribute 25, 1
   9              		.eabi_attribute 26, 1
  10              		.eabi_attribute 30, 2
  11              		.eabi_attribute 34, 1
  12              		.eabi_attribute 18, 4
  13              		.thumb
  14              		.file	"syscalls.c"
  15              		.text
  16              	.Ltext0:
  17              		.cfi_sections	.debug_frame
  18              		.section	.text._read_r,"ax",%progbits
  19              		.align	2
  20              		.p2align 4,,15
  21              		.global	_read_r
  22              		.thumb
  23              		.thumb_func
  24              		.type	_read_r, %function
  25              	_read_r:
  26              	.LFB62:
  27              		.file 1 "../../os/various/syscalls.c"
  28              		.loc 1 82 0
  29              		.cfi_startproc
  30              		@ args = 0, pretend = 0, frame = 0
  31              		@ frame_needed = 0, uses_anonymous_args = 0
  32              		@ link register save eliminated.
  33              	.LVL0:
  34              		.loc 1 85 0
  35 0000 0031     		adds	r1, r1, #0
  36 0002 18BF     		it	ne
  37 0004 0121     		movne	r1, #1
  38              	.LVL1:
  39              		.loc 1 82 0
  40 0006 10B4     		push	{r4}
  41              	.LCFI0:
  42              		.cfi_def_cfa_offset 4
  43              		.cfi_offset 4, -4
  44              		.loc 1 85 0
  45 0008 002B     		cmp	r3, #0
  46 000a 14BF     		ite	ne
  47 000c 0C46     		movne	r4, r1
  48 000e 41F00104 		orreq	r4, r1, #1
  49 0012 3CB9     		cbnz	r4, .L5
  50              		.loc 1 89 0
  51 0014 0648     		ldr	r0, .L7
  52              	.LVL2:
  53 0016 1146     		mov	r1, r2
  54 0018 1A46     		mov	r2, r3
  55              	.LVL3:
  56 001a 4FF0FF33 		mov	r3, #-1
  57              	.LVL4:
ARM GAS  /var/folders/dt/0wfd0knj7gs46m8vwfzktm600000gn/T//ccWoQfLH.s 			page 2


  58              		.loc 1 98 0
  59 001e 10BC     		pop	{r4}
  60              		.loc 1 89 0
  61 0020 FFF7FEBF 		b	chIQReadTimeout
  62              	.LVL5:
  63              	.L5:
  64              		.loc 1 86 0
  65 0024 1623     		movs	r3, #22
  66              	.LVL6:
  67 0026 0360     		str	r3, [r0, #0]
  68              		.loc 1 98 0
  69 0028 4FF0FF30 		mov	r0, #-1
  70              	.LVL7:
  71 002c 10BC     		pop	{r4}
  72 002e 7047     		bx	lr
  73              	.L8:
  74              		.align	2
  75              	.L7:
  76 0030 10000000 		.word	SD2+16
  77              		.cfi_endproc
  78              	.LFE62:
  79              		.size	_read_r, .-_read_r
  80 0034 AFF30080 		.section	.text._lseek_r,"ax",%progbits
  80      AFF30080 
  80      AFF30080 
  81              		.align	2
  82              		.p2align 4,,15
  83              		.global	_lseek_r
  84              		.thumb
  85              		.thumb_func
  86              		.type	_lseek_r, %function
  87              	_lseek_r:
  88              	.LFB63:
  89              		.loc 1 103 0
  90              		.cfi_startproc
  91              		@ args = 0, pretend = 0, frame = 0
  92              		@ frame_needed = 0, uses_anonymous_args = 0
  93              		@ link register save eliminated.
  94              	.LVL8:
  95              		.loc 1 110 0
  96 0000 0020     		movs	r0, #0
  97              	.LVL9:
  98 0002 7047     		bx	lr
  99              		.cfi_endproc
 100              	.LFE63:
 101              		.size	_lseek_r, .-_lseek_r
 102 0004 AFF30080 		.section	.text._write_r,"ax",%progbits
 102      AFF30080 
 102      AFF30080 
 103              		.align	2
 104              		.p2align 4,,15
 105              		.global	_write_r
 106              		.thumb
 107              		.thumb_func
 108              		.type	_write_r, %function
 109              	_write_r:
 110              	.LFB64:
ARM GAS  /var/folders/dt/0wfd0knj7gs46m8vwfzktm600000gn/T//ccWoQfLH.s 			page 3


 111              		.loc 1 115 0
 112              		.cfi_startproc
 113              		@ args = 0, pretend = 0, frame = 0
 114              		@ frame_needed = 0, uses_anonymous_args = 0
 115              	.LVL10:
 116              		.loc 1 120 0
 117 0000 0129     		cmp	r1, #1
 118              		.loc 1 115 0
 119 0002 10B5     		push	{r4, lr}
 120              	.LCFI1:
 121              		.cfi_def_cfa_offset 8
 122              		.cfi_offset 4, -8
 123              		.cfi_offset 14, -4
 124              		.loc 1 115 0
 125 0004 1C46     		mov	r4, r3
 126              		.loc 1 120 0
 127 0006 08D1     		bne	.L13
 128              		.loc 1 124 0
 129 0008 1146     		mov	r1, r2
 130              	.LVL11:
 131 000a 0748     		ldr	r0, .L14
 132              	.LVL12:
 133 000c 1A46     		mov	r2, r3
 134              	.LVL13:
 135 000e 4FF0FF33 		mov	r3, #-1
 136              	.LVL14:
 137 0012 FFF7FEFF 		bl	chOQWriteTimeout
 138              	.LVL15:
 139              		.loc 1 127 0
 140 0016 2046     		mov	r0, r4
 141 0018 10BD     		pop	{r4, pc}
 142              	.LVL16:
 143              	.L13:
 144              		.loc 1 121 0
 145 001a 1623     		movs	r3, #22
 146              	.LVL17:
 147              		.loc 1 122 0
 148 001c 4FF0FF34 		mov	r4, #-1
 149              	.LVL18:
 150              		.loc 1 121 0
 151 0020 0360     		str	r3, [r0, #0]
 152              		.loc 1 127 0
 153 0022 2046     		mov	r0, r4
 154              	.LVL19:
 155 0024 10BD     		pop	{r4, pc}
 156              	.L15:
 157 0026 00BF     		.align	2
 158              	.L14:
 159 0028 30000000 		.word	SD2+48
 160              		.cfi_endproc
 161              	.LFE64:
 162              		.size	_write_r, .-_write_r
 163 002c AFF30080 		.section	.text._close_r,"ax",%progbits
 164              		.align	2
 165              		.p2align 4,,15
 166              		.global	_close_r
 167              		.thumb
ARM GAS  /var/folders/dt/0wfd0knj7gs46m8vwfzktm600000gn/T//ccWoQfLH.s 			page 4


 168              		.thumb_func
 169              		.type	_close_r, %function
 170              	_close_r:
 171              	.LFB65:
 172              		.loc 1 132 0
 173              		.cfi_startproc
 174              		@ args = 0, pretend = 0, frame = 0
 175              		@ frame_needed = 0, uses_anonymous_args = 0
 176              		@ link register save eliminated.
 177              	.LVL20:
 178              		.loc 1 137 0
 179 0000 0020     		movs	r0, #0
 180              	.LVL21:
 181 0002 7047     		bx	lr
 182              		.cfi_endproc
 183              	.LFE65:
 184              		.size	_close_r, .-_close_r
 185 0004 AFF30080 		.section	.text._sbrk_r,"ax",%progbits
 185      AFF30080 
 185      AFF30080 
 186              		.align	2
 187              		.p2align 4,,15
 188              		.global	_sbrk_r
 189              		.thumb
 190              		.thumb_func
 191              		.type	_sbrk_r, %function
 192              	_sbrk_r:
 193              	.LFB66:
 194              		.loc 1 142 0
 195              		.cfi_startproc
 196              		@ args = 0, pretend = 0, frame = 0
 197              		@ frame_needed = 0, uses_anonymous_args = 0
 198              	.LVL22:
 199 0000 10B5     		push	{r4, lr}
 200              	.LCFI2:
 201              		.cfi_def_cfa_offset 8
 202              		.cfi_offset 4, -8
 203              		.cfi_offset 14, -4
 204              		.loc 1 142 0
 205 0002 0446     		mov	r4, r0
 206              		.loc 1 149 0
 207 0004 0846     		mov	r0, r1
 208              	.LVL23:
 209 0006 FFF7FEFF 		bl	chCoreAlloc
 210              	.LVL24:
 211              		.loc 1 150 0
 212 000a 00B1     		cbz	r0, .L19
 213              		.loc 1 159 0
 214 000c 10BD     		pop	{r4, pc}
 215              	.L19:
 216              		.loc 1 151 0
 217 000e 0C23     		movs	r3, #12
 218 0010 2360     		str	r3, [r4, #0]
 219              		.loc 1 152 0
 220 0012 4FF0FF30 		mov	r0, #-1
 221              	.LVL25:
 222              		.loc 1 159 0
ARM GAS  /var/folders/dt/0wfd0knj7gs46m8vwfzktm600000gn/T//ccWoQfLH.s 			page 5


 223 0016 10BD     		pop	{r4, pc}
 224              		.cfi_endproc
 225              	.LFE66:
 226              		.size	_sbrk_r, .-_sbrk_r
 227 0018 AFF30080 		.section	.text._fstat_r,"ax",%progbits
 227      AFF30080 
 228              		.align	2
 229              		.p2align 4,,15
 230              		.global	_fstat_r
 231              		.thumb
 232              		.thumb_func
 233              		.type	_fstat_r, %function
 234              	_fstat_r:
 235              	.LFB67:
 236              		.loc 1 164 0
 237              		.cfi_startproc
 238              		@ args = 0, pretend = 0, frame = 0
 239              		@ frame_needed = 0, uses_anonymous_args = 0
 240              	.LVL26:
 241 0000 10B5     		push	{r4, lr}
 242              	.LCFI3:
 243              		.cfi_def_cfa_offset 8
 244              		.cfi_offset 4, -8
 245              		.cfi_offset 14, -4
 246              		.loc 1 168 0
 247 0002 1046     		mov	r0, r2
 248              	.LVL27:
 249              		.loc 1 164 0
 250 0004 1446     		mov	r4, r2
 251              		.loc 1 168 0
 252 0006 0021     		movs	r1, #0
 253              	.LVL28:
 254 0008 3C22     		movs	r2, #60
 255              	.LVL29:
 256 000a FFF7FEFF 		bl	memset
 257              	.LVL30:
 258              		.loc 1 169 0
 259 000e 4FF40053 		mov	r3, #8192
 260 0012 6360     		str	r3, [r4, #4]
 261              		.loc 1 171 0
 262 0014 0020     		movs	r0, #0
 263 0016 10BD     		pop	{r4, pc}
 264              		.cfi_endproc
 265              	.LFE67:
 266              		.size	_fstat_r, .-_fstat_r
 267 0018 AFF30080 		.section	.text._isatty_r,"ax",%progbits
 267      AFF30080 
 268              		.align	2
 269              		.p2align 4,,15
 270              		.global	_isatty_r
 271              		.thumb
 272              		.thumb_func
 273              		.type	_isatty_r, %function
 274              	_isatty_r:
 275              	.LFB68:
 276              		.loc 1 176 0
 277              		.cfi_startproc
ARM GAS  /var/folders/dt/0wfd0knj7gs46m8vwfzktm600000gn/T//ccWoQfLH.s 			page 6


 278              		@ args = 0, pretend = 0, frame = 0
 279              		@ frame_needed = 0, uses_anonymous_args = 0
 280              		@ link register save eliminated.
 281              	.LVL31:
 282              		.loc 1 181 0
 283 0000 0120     		movs	r0, #1
 284              	.LVL32:
 285 0002 7047     		bx	lr
 286              		.cfi_endproc
 287              	.LFE68:
 288              		.size	_isatty_r, .-_isatty_r
 289 0004 AFF30080 		.text
 289      AFF30080 
 289      AFF30080 
 290              	.Letext0:
 291              		.file 2 "/Users/toxygen/Applications/yagarto-4.7.2/bin/../lib/gcc/arm-none-eabi/4.7.2/include/stdd
 292              		.file 3 "/Users/toxygen/Applications/yagarto-4.7.2/bin/../lib/gcc/arm-none-eabi/4.7.2/../../../../
 293              		.file 4 "/Users/toxygen/Applications/yagarto-4.7.2/bin/../lib/gcc/arm-none-eabi/4.7.2/../../../../
 294              		.file 5 "/Users/toxygen/Applications/yagarto-4.7.2/bin/../lib/gcc/arm-none-eabi/4.7.2/../../../../
 295              		.file 6 "/Users/toxygen/Applications/yagarto-4.7.2/bin/../lib/gcc/arm-none-eabi/4.7.2/../../../../
 296              		.file 7 "/Users/toxygen/Applications/yagarto-4.7.2/bin/../lib/gcc/arm-none-eabi/4.7.2/../../../../
 297              		.file 8 "/Users/toxygen/Applications/yagarto-4.7.2/bin/../lib/gcc/arm-none-eabi/4.7.2/../../../../
 298              		.file 9 "../../os/ports/GCC/ARMCMx/chtypes.h"
 299              		.file 10 "../../os/kernel/include/chlists.h"
 300              		.file 11 "../../os/kernel/include/chthreads.h"
 301              		.file 12 "../../os/ports/GCC/ARMCMx/chcore_v7m.h"
 302              		.file 13 "../../os/kernel/include/chmtx.h"
 303              		.file 14 "../../os/kernel/include/chevents.h"
 304              		.file 15 "../../os/kernel/include/chqueues.h"
 305              		.file 16 "../../os/kernel/include/chioch.h"
 306              		.file 17 "../../os/hal/platforms/STM32F1xx/stm32f10x.h"
 307              		.file 18 "../../os/hal/include/serial.h"
 308              		.file 19 "../../os/kernel/include/chmemcore.h"
 309              		.file 20 "../../os/ports/common/ARMCMx/CMSIS/include/core_cm3.h"
 310              		.file 21 "../../os/hal/platforms/STM32/serial_lld.h"
 311              		.section	.debug_info,"",%progbits
 312              	.Ldebug_info0:
 313 0000 C5150000 		.4byte	0x15c5
 314 0004 0200     		.2byte	0x2
 315 0006 00000000 		.4byte	.Ldebug_abbrev0
 316 000a 04       		.byte	0x4
 317 000b 01       		.uleb128 0x1
 318 000c 0A010000 		.4byte	.LASF252
 319 0010 01       		.byte	0x1
 320 0011 6F030000 		.4byte	.LASF253
 321 0015 CE060000 		.4byte	.LASF254
 322 0019 00000000 		.4byte	.Ldebug_ranges0+0
 323 001d 00000000 		.4byte	0
 324 0021 00000000 		.4byte	0
 325 0025 00000000 		.4byte	.Ldebug_line0
 326 0029 02       		.uleb128 0x2
 327 002a 00000000 		.4byte	.LASF7
 328 002e 02       		.byte	0x2
 329 002f D5       		.byte	0xd5
 330 0030 34000000 		.4byte	0x34
 331 0034 03       		.uleb128 0x3
 332 0035 04       		.byte	0x4
ARM GAS  /var/folders/dt/0wfd0knj7gs46m8vwfzktm600000gn/T//ccWoQfLH.s 			page 7


 333 0036 07       		.byte	0x7
 334 0037 71050000 		.4byte	.LASF0
 335 003b 03       		.uleb128 0x3
 336 003c 01       		.byte	0x1
 337 003d 06       		.byte	0x6
 338 003e 1A020000 		.4byte	.LASF1
 339 0042 03       		.uleb128 0x3
 340 0043 01       		.byte	0x1
 341 0044 08       		.byte	0x8
 342 0045 82020000 		.4byte	.LASF2
 343 0049 03       		.uleb128 0x3
 344 004a 02       		.byte	0x2
 345 004b 05       		.byte	0x5
 346 004c EA070000 		.4byte	.LASF3
 347 0050 03       		.uleb128 0x3
 348 0051 02       		.byte	0x2
 349 0052 07       		.byte	0x7
 350 0053 BC080000 		.4byte	.LASF4
 351 0057 04       		.uleb128 0x4
 352 0058 04       		.byte	0x4
 353 0059 05       		.byte	0x5
 354 005a 696E7400 		.ascii	"int\000"
 355 005e 03       		.uleb128 0x3
 356 005f 08       		.byte	0x8
 357 0060 05       		.byte	0x5
 358 0061 D7040000 		.4byte	.LASF5
 359 0065 03       		.uleb128 0x3
 360 0066 08       		.byte	0x8
 361 0067 07       		.byte	0x7
 362 0068 94060000 		.4byte	.LASF6
 363 006c 02       		.uleb128 0x2
 364 006d 35040000 		.4byte	.LASF8
 365 0071 03       		.byte	0x3
 366 0072 07       		.byte	0x7
 367 0073 57000000 		.4byte	0x57
 368 0077 02       		.uleb128 0x2
 369 0078 A9080000 		.4byte	.LASF9
 370 007c 04       		.byte	0x4
 371 007d 10       		.byte	0x10
 372 007e 82000000 		.4byte	0x82
 373 0082 03       		.uleb128 0x3
 374 0083 04       		.byte	0x4
 375 0084 05       		.byte	0x5
 376 0085 8B010000 		.4byte	.LASF10
 377 0089 02       		.uleb128 0x2
 378 008a 3B010000 		.4byte	.LASF11
 379 008e 04       		.byte	0x4
 380 008f 18       		.byte	0x18
 381 0090 49000000 		.4byte	0x49
 382 0094 02       		.uleb128 0x2
 383 0095 58080000 		.4byte	.LASF12
 384 0099 04       		.byte	0x4
 385 009a 1D       		.byte	0x1d
 386 009b 50000000 		.4byte	0x50
 387 009f 02       		.uleb128 0x2
 388 00a0 B2000000 		.4byte	.LASF13
 389 00a4 04       		.byte	0x4
ARM GAS  /var/folders/dt/0wfd0knj7gs46m8vwfzktm600000gn/T//ccWoQfLH.s 			page 8


 390 00a5 20       		.byte	0x20
 391 00a6 50000000 		.4byte	0x50
 392 00aa 02       		.uleb128 0x2
 393 00ab 77060000 		.4byte	.LASF14
 394 00af 04       		.byte	0x4
 395 00b0 2C       		.byte	0x2c
 396 00b1 82000000 		.4byte	0x82
 397 00b5 05       		.uleb128 0x5
 398 00b6 85070000 		.4byte	.LASF15
 399 00ba 02       		.byte	0x2
 400 00bb 6201     		.2byte	0x162
 401 00bd 34000000 		.4byte	0x34
 402 00c1 06       		.uleb128 0x6
 403 00c2 04       		.byte	0x4
 404 00c3 04       		.byte	0x4
 405 00c4 46       		.byte	0x46
 406 00c5 E0000000 		.4byte	0xe0
 407 00c9 07       		.uleb128 0x7
 408 00ca 26010000 		.4byte	.LASF16
 409 00ce 04       		.byte	0x4
 410 00cf 48       		.byte	0x48
 411 00d0 B5000000 		.4byte	0xb5
 412 00d4 07       		.uleb128 0x7
 413 00d5 7F060000 		.4byte	.LASF17
 414 00d9 04       		.byte	0x4
 415 00da 49       		.byte	0x49
 416 00db E0000000 		.4byte	0xe0
 417 00df 00       		.byte	0
 418 00e0 08       		.uleb128 0x8
 419 00e1 42000000 		.4byte	0x42
 420 00e5 F0000000 		.4byte	0xf0
 421 00e9 09       		.uleb128 0x9
 422 00ea F0000000 		.4byte	0xf0
 423 00ee 03       		.byte	0x3
 424 00ef 00       		.byte	0
 425 00f0 03       		.uleb128 0x3
 426 00f1 04       		.byte	0x4
 427 00f2 07       		.byte	0x7
 428 00f3 07000000 		.4byte	.LASF18
 429 00f7 0A       		.uleb128 0xa
 430 00f8 08       		.byte	0x8
 431 00f9 04       		.byte	0x4
 432 00fa 43       		.byte	0x43
 433 00fb 1C010000 		.4byte	0x11c
 434 00ff 0B       		.uleb128 0xb
 435 0100 10060000 		.4byte	.LASF19
 436 0104 04       		.byte	0x4
 437 0105 45       		.byte	0x45
 438 0106 57000000 		.4byte	0x57
 439 010a 02       		.byte	0x2
 440 010b 23       		.byte	0x23
 441 010c 00       		.uleb128 0
 442 010d 0B       		.uleb128 0xb
 443 010e 10000000 		.4byte	.LASF20
 444 0112 04       		.byte	0x4
 445 0113 4A       		.byte	0x4a
 446 0114 C1000000 		.4byte	0xc1
ARM GAS  /var/folders/dt/0wfd0knj7gs46m8vwfzktm600000gn/T//ccWoQfLH.s 			page 9


 447 0118 02       		.byte	0x2
 448 0119 23       		.byte	0x23
 449 011a 04       		.uleb128 0x4
 450 011b 00       		.byte	0
 451 011c 02       		.uleb128 0x2
 452 011d 75070000 		.4byte	.LASF21
 453 0121 04       		.byte	0x4
 454 0122 4B       		.byte	0x4b
 455 0123 F7000000 		.4byte	0xf7
 456 0127 02       		.uleb128 0x2
 457 0128 65070000 		.4byte	.LASF22
 458 012c 04       		.byte	0x4
 459 012d 4F       		.byte	0x4f
 460 012e 6C000000 		.4byte	0x6c
 461 0132 0C       		.uleb128 0xc
 462 0133 04       		.byte	0x4
 463 0134 02       		.uleb128 0x2
 464 0135 75080000 		.4byte	.LASF23
 465 0139 05       		.byte	0x5
 466 013a 15       		.byte	0x15
 467 013b 3F010000 		.4byte	0x13f
 468 013f 03       		.uleb128 0x3
 469 0140 04       		.byte	0x4
 470 0141 07       		.byte	0x7
 471 0142 00040000 		.4byte	.LASF24
 472 0146 0D       		.uleb128 0xd
 473 0147 93040000 		.4byte	.LASF29
 474 014b 18       		.byte	0x18
 475 014c 05       		.byte	0x5
 476 014d 2C       		.byte	0x2c
 477 014e A5010000 		.4byte	0x1a5
 478 0152 0B       		.uleb128 0xb
 479 0153 99070000 		.4byte	.LASF25
 480 0157 05       		.byte	0x5
 481 0158 2E       		.byte	0x2e
 482 0159 A5010000 		.4byte	0x1a5
 483 015d 02       		.byte	0x2
 484 015e 23       		.byte	0x23
 485 015f 00       		.uleb128 0
 486 0160 0E       		.uleb128 0xe
 487 0161 5F6B00   		.ascii	"_k\000"
 488 0164 05       		.byte	0x5
 489 0165 2F       		.byte	0x2f
 490 0166 57000000 		.4byte	0x57
 491 016a 02       		.byte	0x2
 492 016b 23       		.byte	0x23
 493 016c 04       		.uleb128 0x4
 494 016d 0B       		.uleb128 0xb
 495 016e 9B040000 		.4byte	.LASF26
 496 0172 05       		.byte	0x5
 497 0173 2F       		.byte	0x2f
 498 0174 57000000 		.4byte	0x57
 499 0178 02       		.byte	0x2
 500 0179 23       		.byte	0x23
 501 017a 08       		.uleb128 0x8
 502 017b 0B       		.uleb128 0xb
 503 017c 4C050000 		.4byte	.LASF27
ARM GAS  /var/folders/dt/0wfd0knj7gs46m8vwfzktm600000gn/T//ccWoQfLH.s 			page 10


 504 0180 05       		.byte	0x5
 505 0181 2F       		.byte	0x2f
 506 0182 57000000 		.4byte	0x57
 507 0186 02       		.byte	0x2
 508 0187 23       		.byte	0x23
 509 0188 0C       		.uleb128 0xc
 510 0189 0B       		.uleb128 0xb
 511 018a B1030000 		.4byte	.LASF28
 512 018e 05       		.byte	0x5
 513 018f 2F       		.byte	0x2f
 514 0190 57000000 		.4byte	0x57
 515 0194 02       		.byte	0x2
 516 0195 23       		.byte	0x23
 517 0196 10       		.uleb128 0x10
 518 0197 0E       		.uleb128 0xe
 519 0198 5F7800   		.ascii	"_x\000"
 520 019b 05       		.byte	0x5
 521 019c 30       		.byte	0x30
 522 019d AB010000 		.4byte	0x1ab
 523 01a1 02       		.byte	0x2
 524 01a2 23       		.byte	0x23
 525 01a3 14       		.uleb128 0x14
 526 01a4 00       		.byte	0
 527 01a5 0F       		.uleb128 0xf
 528 01a6 04       		.byte	0x4
 529 01a7 46010000 		.4byte	0x146
 530 01ab 08       		.uleb128 0x8
 531 01ac 34010000 		.4byte	0x134
 532 01b0 BB010000 		.4byte	0x1bb
 533 01b4 09       		.uleb128 0x9
 534 01b5 F0000000 		.4byte	0xf0
 535 01b9 00       		.byte	0
 536 01ba 00       		.byte	0
 537 01bb 0D       		.uleb128 0xd
 538 01bc C2000000 		.4byte	.LASF30
 539 01c0 24       		.byte	0x24
 540 01c1 05       		.byte	0x5
 541 01c2 34       		.byte	0x34
 542 01c3 46020000 		.4byte	0x246
 543 01c7 0B       		.uleb128 0xb
 544 01c8 DE000000 		.4byte	.LASF31
 545 01cc 05       		.byte	0x5
 546 01cd 36       		.byte	0x36
 547 01ce 57000000 		.4byte	0x57
 548 01d2 02       		.byte	0x2
 549 01d3 23       		.byte	0x23
 550 01d4 00       		.uleb128 0
 551 01d5 0B       		.uleb128 0xb
 552 01d6 3B090000 		.4byte	.LASF32
 553 01da 05       		.byte	0x5
 554 01db 37       		.byte	0x37
 555 01dc 57000000 		.4byte	0x57
 556 01e0 02       		.byte	0x2
 557 01e1 23       		.byte	0x23
 558 01e2 04       		.uleb128 0x4
 559 01e3 0B       		.uleb128 0xb
 560 01e4 CF080000 		.4byte	.LASF33
ARM GAS  /var/folders/dt/0wfd0knj7gs46m8vwfzktm600000gn/T//ccWoQfLH.s 			page 11


 561 01e8 05       		.byte	0x5
 562 01e9 38       		.byte	0x38
 563 01ea 57000000 		.4byte	0x57
 564 01ee 02       		.byte	0x2
 565 01ef 23       		.byte	0x23
 566 01f0 08       		.uleb128 0x8
 567 01f1 0B       		.uleb128 0xb
 568 01f2 BB050000 		.4byte	.LASF34
 569 01f6 05       		.byte	0x5
 570 01f7 39       		.byte	0x39
 571 01f8 57000000 		.4byte	0x57
 572 01fc 02       		.byte	0x2
 573 01fd 23       		.byte	0x23
 574 01fe 0C       		.uleb128 0xc
 575 01ff 0B       		.uleb128 0xb
 576 0200 EC010000 		.4byte	.LASF35
 577 0204 05       		.byte	0x5
 578 0205 3A       		.byte	0x3a
 579 0206 57000000 		.4byte	0x57
 580 020a 02       		.byte	0x2
 581 020b 23       		.byte	0x23
 582 020c 10       		.uleb128 0x10
 583 020d 0B       		.uleb128 0xb
 584 020e 04080000 		.4byte	.LASF36
 585 0212 05       		.byte	0x5
 586 0213 3B       		.byte	0x3b
 587 0214 57000000 		.4byte	0x57
 588 0218 02       		.byte	0x2
 589 0219 23       		.byte	0x23
 590 021a 14       		.uleb128 0x14
 591 021b 0B       		.uleb128 0xb
 592 021c 2E060000 		.4byte	.LASF37
 593 0220 05       		.byte	0x5
 594 0221 3C       		.byte	0x3c
 595 0222 57000000 		.4byte	0x57
 596 0226 02       		.byte	0x2
 597 0227 23       		.byte	0x23
 598 0228 18       		.uleb128 0x18
 599 0229 0B       		.uleb128 0xb
 600 022a 41060000 		.4byte	.LASF38
 601 022e 05       		.byte	0x5
 602 022f 3D       		.byte	0x3d
 603 0230 57000000 		.4byte	0x57
 604 0234 02       		.byte	0x2
 605 0235 23       		.byte	0x23
 606 0236 1C       		.uleb128 0x1c
 607 0237 0B       		.uleb128 0xb
 608 0238 1C090000 		.4byte	.LASF39
 609 023c 05       		.byte	0x5
 610 023d 3E       		.byte	0x3e
 611 023e 57000000 		.4byte	0x57
 612 0242 02       		.byte	0x2
 613 0243 23       		.byte	0x23
 614 0244 20       		.uleb128 0x20
 615 0245 00       		.byte	0
 616 0246 10       		.uleb128 0x10
 617 0247 4F010000 		.4byte	.LASF40
ARM GAS  /var/folders/dt/0wfd0knj7gs46m8vwfzktm600000gn/T//ccWoQfLH.s 			page 12


 618 024b 0801     		.2byte	0x108
 619 024d 05       		.byte	0x5
 620 024e 47       		.byte	0x47
 621 024f 8F020000 		.4byte	0x28f
 622 0253 0B       		.uleb128 0xb
 623 0254 14090000 		.4byte	.LASF41
 624 0258 05       		.byte	0x5
 625 0259 48       		.byte	0x48
 626 025a 8F020000 		.4byte	0x28f
 627 025e 02       		.byte	0x2
 628 025f 23       		.byte	0x23
 629 0260 00       		.uleb128 0
 630 0261 0B       		.uleb128 0xb
 631 0262 BC060000 		.4byte	.LASF42
 632 0266 05       		.byte	0x5
 633 0267 49       		.byte	0x49
 634 0268 8F020000 		.4byte	0x28f
 635 026c 03       		.byte	0x3
 636 026d 23       		.byte	0x23
 637 026e 8001     		.uleb128 0x80
 638 0270 0B       		.uleb128 0xb
 639 0271 FB070000 		.4byte	.LASF43
 640 0275 05       		.byte	0x5
 641 0276 4B       		.byte	0x4b
 642 0277 34010000 		.4byte	0x134
 643 027b 03       		.byte	0x3
 644 027c 23       		.byte	0x23
 645 027d 8002     		.uleb128 0x100
 646 027f 0B       		.uleb128 0xb
 647 0280 48080000 		.4byte	.LASF44
 648 0284 05       		.byte	0x5
 649 0285 4E       		.byte	0x4e
 650 0286 34010000 		.4byte	0x134
 651 028a 03       		.byte	0x3
 652 028b 23       		.byte	0x23
 653 028c 8402     		.uleb128 0x104
 654 028e 00       		.byte	0
 655 028f 08       		.uleb128 0x8
 656 0290 32010000 		.4byte	0x132
 657 0294 9F020000 		.4byte	0x29f
 658 0298 09       		.uleb128 0x9
 659 0299 F0000000 		.4byte	0xf0
 660 029d 1F       		.byte	0x1f
 661 029e 00       		.byte	0
 662 029f 10       		.uleb128 0x10
 663 02a0 01060000 		.4byte	.LASF45
 664 02a4 9001     		.2byte	0x190
 665 02a6 05       		.byte	0x5
 666 02a7 59       		.byte	0x59
 667 02a8 E6020000 		.4byte	0x2e6
 668 02ac 0B       		.uleb128 0xb
 669 02ad 99070000 		.4byte	.LASF25
 670 02b1 05       		.byte	0x5
 671 02b2 5A       		.byte	0x5a
 672 02b3 E6020000 		.4byte	0x2e6
 673 02b7 02       		.byte	0x2
 674 02b8 23       		.byte	0x23
ARM GAS  /var/folders/dt/0wfd0knj7gs46m8vwfzktm600000gn/T//ccWoQfLH.s 			page 13


 675 02b9 00       		.uleb128 0
 676 02ba 0B       		.uleb128 0xb
 677 02bb 33080000 		.4byte	.LASF46
 678 02bf 05       		.byte	0x5
 679 02c0 5B       		.byte	0x5b
 680 02c1 57000000 		.4byte	0x57
 681 02c5 02       		.byte	0x2
 682 02c6 23       		.byte	0x23
 683 02c7 04       		.uleb128 0x4
 684 02c8 0B       		.uleb128 0xb
 685 02c9 F3020000 		.4byte	.LASF47
 686 02cd 05       		.byte	0x5
 687 02ce 5D       		.byte	0x5d
 688 02cf EC020000 		.4byte	0x2ec
 689 02d3 02       		.byte	0x2
 690 02d4 23       		.byte	0x23
 691 02d5 08       		.uleb128 0x8
 692 02d6 0B       		.uleb128 0xb
 693 02d7 4F010000 		.4byte	.LASF40
 694 02db 05       		.byte	0x5
 695 02dc 5E       		.byte	0x5e
 696 02dd 46020000 		.4byte	0x246
 697 02e1 03       		.byte	0x3
 698 02e2 23       		.byte	0x23
 699 02e3 8801     		.uleb128 0x88
 700 02e5 00       		.byte	0
 701 02e6 0F       		.uleb128 0xf
 702 02e7 04       		.byte	0x4
 703 02e8 9F020000 		.4byte	0x29f
 704 02ec 08       		.uleb128 0x8
 705 02ed FE020000 		.4byte	0x2fe
 706 02f1 FC020000 		.4byte	0x2fc
 707 02f5 09       		.uleb128 0x9
 708 02f6 F0000000 		.4byte	0xf0
 709 02fa 1F       		.byte	0x1f
 710 02fb 00       		.byte	0
 711 02fc 11       		.uleb128 0x11
 712 02fd 01       		.byte	0x1
 713 02fe 0F       		.uleb128 0xf
 714 02ff 04       		.byte	0x4
 715 0300 FC020000 		.4byte	0x2fc
 716 0304 0D       		.uleb128 0xd
 717 0305 38080000 		.4byte	.LASF48
 718 0309 08       		.byte	0x8
 719 030a 05       		.byte	0x5
 720 030b 69       		.byte	0x69
 721 030c 2D030000 		.4byte	0x32d
 722 0310 0B       		.uleb128 0xb
 723 0311 3A070000 		.4byte	.LASF49
 724 0315 05       		.byte	0x5
 725 0316 6A       		.byte	0x6a
 726 0317 2D030000 		.4byte	0x32d
 727 031b 02       		.byte	0x2
 728 031c 23       		.byte	0x23
 729 031d 00       		.uleb128 0
 730 031e 0B       		.uleb128 0xb
 731 031f AD010000 		.4byte	.LASF50
ARM GAS  /var/folders/dt/0wfd0knj7gs46m8vwfzktm600000gn/T//ccWoQfLH.s 			page 14


 732 0323 05       		.byte	0x5
 733 0324 6B       		.byte	0x6b
 734 0325 57000000 		.4byte	0x57
 735 0329 02       		.byte	0x2
 736 032a 23       		.byte	0x23
 737 032b 04       		.uleb128 0x4
 738 032c 00       		.byte	0
 739 032d 0F       		.uleb128 0xf
 740 032e 04       		.byte	0x4
 741 032f 42000000 		.4byte	0x42
 742 0333 0D       		.uleb128 0xd
 743 0334 12040000 		.4byte	.LASF51
 744 0338 68       		.byte	0x68
 745 0339 05       		.byte	0x5
 746 033a A9       		.byte	0xa9
 747 033b 8D040000 		.4byte	0x48d
 748 033f 0E       		.uleb128 0xe
 749 0340 5F7000   		.ascii	"_p\000"
 750 0343 05       		.byte	0x5
 751 0344 AA       		.byte	0xaa
 752 0345 2D030000 		.4byte	0x32d
 753 0349 02       		.byte	0x2
 754 034a 23       		.byte	0x23
 755 034b 00       		.uleb128 0
 756 034c 0E       		.uleb128 0xe
 757 034d 5F7200   		.ascii	"_r\000"
 758 0350 05       		.byte	0x5
 759 0351 AB       		.byte	0xab
 760 0352 57000000 		.4byte	0x57
 761 0356 02       		.byte	0x2
 762 0357 23       		.byte	0x23
 763 0358 04       		.uleb128 0x4
 764 0359 0E       		.uleb128 0xe
 765 035a 5F7700   		.ascii	"_w\000"
 766 035d 05       		.byte	0x5
 767 035e AC       		.byte	0xac
 768 035f 57000000 		.4byte	0x57
 769 0363 02       		.byte	0x2
 770 0364 23       		.byte	0x23
 771 0365 08       		.uleb128 0x8
 772 0366 0B       		.uleb128 0xb
 773 0367 FA050000 		.4byte	.LASF52
 774 036b 05       		.byte	0x5
 775 036c AD       		.byte	0xad
 776 036d 49000000 		.4byte	0x49
 777 0371 02       		.byte	0x2
 778 0372 23       		.byte	0x23
 779 0373 0C       		.uleb128 0xc
 780 0374 0B       		.uleb128 0xb
 781 0375 49010000 		.4byte	.LASF53
 782 0379 05       		.byte	0x5
 783 037a AE       		.byte	0xae
 784 037b 49000000 		.4byte	0x49
 785 037f 02       		.byte	0x2
 786 0380 23       		.byte	0x23
 787 0381 0E       		.uleb128 0xe
 788 0382 0E       		.uleb128 0xe
ARM GAS  /var/folders/dt/0wfd0knj7gs46m8vwfzktm600000gn/T//ccWoQfLH.s 			page 15


 789 0383 5F626600 		.ascii	"_bf\000"
 790 0387 05       		.byte	0x5
 791 0388 AF       		.byte	0xaf
 792 0389 04030000 		.4byte	0x304
 793 038d 02       		.byte	0x2
 794 038e 23       		.byte	0x23
 795 038f 10       		.uleb128 0x10
 796 0390 0B       		.uleb128 0xb
 797 0391 1C080000 		.4byte	.LASF54
 798 0395 05       		.byte	0x5
 799 0396 B0       		.byte	0xb0
 800 0397 57000000 		.4byte	0x57
 801 039b 02       		.byte	0x2
 802 039c 23       		.byte	0x23
 803 039d 18       		.uleb128 0x18
 804 039e 0B       		.uleb128 0xb
 805 039f 8B030000 		.4byte	.LASF55
 806 03a3 05       		.byte	0x5
 807 03a4 B7       		.byte	0xb7
 808 03a5 32010000 		.4byte	0x132
 809 03a9 02       		.byte	0x2
 810 03aa 23       		.byte	0x23
 811 03ab 1C       		.uleb128 0x1c
 812 03ac 0B       		.uleb128 0xb
 813 03ad 3D000000 		.4byte	.LASF56
 814 03b1 05       		.byte	0x5
 815 03b2 B9       		.byte	0xb9
 816 03b3 1D060000 		.4byte	0x61d
 817 03b7 02       		.byte	0x2
 818 03b8 23       		.byte	0x23
 819 03b9 20       		.uleb128 0x20
 820 03ba 0B       		.uleb128 0xb
 821 03bb 60000000 		.4byte	.LASF57
 822 03bf 05       		.byte	0x5
 823 03c0 BB       		.byte	0xbb
 824 03c1 4D060000 		.4byte	0x64d
 825 03c5 02       		.byte	0x2
 826 03c6 23       		.byte	0x23
 827 03c7 24       		.uleb128 0x24
 828 03c8 0B       		.uleb128 0xb
 829 03c9 6A060000 		.4byte	.LASF58
 830 03cd 05       		.byte	0x5
 831 03ce BD       		.byte	0xbd
 832 03cf 72060000 		.4byte	0x672
 833 03d3 02       		.byte	0x2
 834 03d4 23       		.byte	0x23
 835 03d5 28       		.uleb128 0x28
 836 03d6 0B       		.uleb128 0xb
 837 03d7 F8020000 		.4byte	.LASF59
 838 03db 05       		.byte	0x5
 839 03dc BE       		.byte	0xbe
 840 03dd 8D060000 		.4byte	0x68d
 841 03e1 02       		.byte	0x2
 842 03e2 23       		.byte	0x23
 843 03e3 2C       		.uleb128 0x2c
 844 03e4 0E       		.uleb128 0xe
 845 03e5 5F756200 		.ascii	"_ub\000"
ARM GAS  /var/folders/dt/0wfd0knj7gs46m8vwfzktm600000gn/T//ccWoQfLH.s 			page 16


 846 03e9 05       		.byte	0x5
 847 03ea C1       		.byte	0xc1
 848 03eb 04030000 		.4byte	0x304
 849 03ef 02       		.byte	0x2
 850 03f0 23       		.byte	0x23
 851 03f1 30       		.uleb128 0x30
 852 03f2 0E       		.uleb128 0xe
 853 03f3 5F757000 		.ascii	"_up\000"
 854 03f7 05       		.byte	0x5
 855 03f8 C2       		.byte	0xc2
 856 03f9 2D030000 		.4byte	0x32d
 857 03fd 02       		.byte	0x2
 858 03fe 23       		.byte	0x23
 859 03ff 38       		.uleb128 0x38
 860 0400 0E       		.uleb128 0xe
 861 0401 5F757200 		.ascii	"_ur\000"
 862 0405 05       		.byte	0x5
 863 0406 C3       		.byte	0xc3
 864 0407 57000000 		.4byte	0x57
 865 040b 02       		.byte	0x2
 866 040c 23       		.byte	0x23
 867 040d 3C       		.uleb128 0x3c
 868 040e 0B       		.uleb128 0xb
 869 040f CA050000 		.4byte	.LASF60
 870 0413 05       		.byte	0x5
 871 0414 C6       		.byte	0xc6
 872 0415 93060000 		.4byte	0x693
 873 0419 02       		.byte	0x2
 874 041a 23       		.byte	0x23
 875 041b 40       		.uleb128 0x40
 876 041c 0B       		.uleb128 0xb
 877 041d D8000000 		.4byte	.LASF61
 878 0421 05       		.byte	0x5
 879 0422 C7       		.byte	0xc7
 880 0423 A3060000 		.4byte	0x6a3
 881 0427 02       		.byte	0x2
 882 0428 23       		.byte	0x23
 883 0429 43       		.uleb128 0x43
 884 042a 0E       		.uleb128 0xe
 885 042b 5F6C6200 		.ascii	"_lb\000"
 886 042f 05       		.byte	0x5
 887 0430 CA       		.byte	0xca
 888 0431 04030000 		.4byte	0x304
 889 0435 02       		.byte	0x2
 890 0436 23       		.byte	0x23
 891 0437 44       		.uleb128 0x44
 892 0438 0B       		.uleb128 0xb
 893 0439 31070000 		.4byte	.LASF62
 894 043d 05       		.byte	0x5
 895 043e CD       		.byte	0xcd
 896 043f 57000000 		.4byte	0x57
 897 0443 02       		.byte	0x2
 898 0444 23       		.byte	0x23
 899 0445 4C       		.uleb128 0x4c
 900 0446 0B       		.uleb128 0xb
 901 0447 C0030000 		.4byte	.LASF63
 902 044b 05       		.byte	0x5
ARM GAS  /var/folders/dt/0wfd0knj7gs46m8vwfzktm600000gn/T//ccWoQfLH.s 			page 17


 903 044c CE       		.byte	0xce
 904 044d 57000000 		.4byte	0x57
 905 0451 02       		.byte	0x2
 906 0452 23       		.byte	0x23
 907 0453 50       		.uleb128 0x50
 908 0454 0B       		.uleb128 0xb
 909 0455 9F070000 		.4byte	.LASF64
 910 0459 05       		.byte	0x5
 911 045a D1       		.byte	0xd1
 912 045b AC040000 		.4byte	0x4ac
 913 045f 02       		.byte	0x2
 914 0460 23       		.byte	0x23
 915 0461 54       		.uleb128 0x54
 916 0462 0B       		.uleb128 0xb
 917 0463 FE000000 		.4byte	.LASF65
 918 0467 05       		.byte	0x5
 919 0468 D5       		.byte	0xd5
 920 0469 27010000 		.4byte	0x127
 921 046d 02       		.byte	0x2
 922 046e 23       		.byte	0x23
 923 046f 58       		.uleb128 0x58
 924 0470 0B       		.uleb128 0xb
 925 0471 E6050000 		.4byte	.LASF66
 926 0475 05       		.byte	0x5
 927 0476 D7       		.byte	0xd7
 928 0477 1C010000 		.4byte	0x11c
 929 047b 02       		.byte	0x2
 930 047c 23       		.byte	0x23
 931 047d 5C       		.uleb128 0x5c
 932 047e 0B       		.uleb128 0xb
 933 047f 25040000 		.4byte	.LASF67
 934 0483 05       		.byte	0x5
 935 0484 D8       		.byte	0xd8
 936 0485 57000000 		.4byte	0x57
 937 0489 02       		.byte	0x2
 938 048a 23       		.byte	0x23
 939 048b 64       		.uleb128 0x64
 940 048c 00       		.byte	0
 941 048d 12       		.uleb128 0x12
 942 048e 01       		.byte	0x1
 943 048f 57000000 		.4byte	0x57
 944 0493 AC040000 		.4byte	0x4ac
 945 0497 13       		.uleb128 0x13
 946 0498 AC040000 		.4byte	0x4ac
 947 049c 13       		.uleb128 0x13
 948 049d 32010000 		.4byte	0x132
 949 04a1 13       		.uleb128 0x13
 950 04a2 10060000 		.4byte	0x610
 951 04a6 13       		.uleb128 0x13
 952 04a7 57000000 		.4byte	0x57
 953 04ab 00       		.byte	0
 954 04ac 0F       		.uleb128 0xf
 955 04ad 04       		.byte	0x4
 956 04ae B2040000 		.4byte	0x4b2
 957 04b2 14       		.uleb128 0x14
 958 04b3 C0020000 		.4byte	.LASF68
 959 04b7 2804     		.2byte	0x428
ARM GAS  /var/folders/dt/0wfd0knj7gs46m8vwfzktm600000gn/T//ccWoQfLH.s 			page 18


 960 04b9 05       		.byte	0x5
 961 04ba 4402     		.2byte	0x244
 962 04bc 10060000 		.4byte	0x610
 963 04c0 15       		.uleb128 0x15
 964 04c1 4F040000 		.4byte	.LASF69
 965 04c5 05       		.byte	0x5
 966 04c6 4602     		.2byte	0x246
 967 04c8 57000000 		.4byte	0x57
 968 04cc 02       		.byte	0x2
 969 04cd 23       		.byte	0x23
 970 04ce 00       		.uleb128 0
 971 04cf 15       		.uleb128 0x15
 972 04d0 1A030000 		.4byte	.LASF70
 973 04d4 05       		.byte	0x5
 974 04d5 4B02     		.2byte	0x24b
 975 04d7 00070000 		.4byte	0x700
 976 04db 02       		.byte	0x2
 977 04dc 23       		.byte	0x23
 978 04dd 04       		.uleb128 0x4
 979 04de 15       		.uleb128 0x15
 980 04df 29070000 		.4byte	.LASF71
 981 04e3 05       		.byte	0x5
 982 04e4 4B02     		.2byte	0x24b
 983 04e6 00070000 		.4byte	0x700
 984 04ea 02       		.byte	0x2
 985 04eb 23       		.byte	0x23
 986 04ec 08       		.uleb128 0x8
 987 04ed 15       		.uleb128 0x15
 988 04ee D0050000 		.4byte	.LASF72
 989 04f2 05       		.byte	0x5
 990 04f3 4B02     		.2byte	0x24b
 991 04f5 00070000 		.4byte	0x700
 992 04f9 02       		.byte	0x2
 993 04fa 23       		.byte	0x23
 994 04fb 0C       		.uleb128 0xc
 995 04fc 15       		.uleb128 0x15
 996 04fd 2E080000 		.4byte	.LASF73
 997 0501 05       		.byte	0x5
 998 0502 4D02     		.2byte	0x24d
 999 0504 57000000 		.4byte	0x57
 1000 0508 02       		.byte	0x2
 1001 0509 23       		.byte	0x23
 1002 050a 10       		.uleb128 0x10
 1003 050b 15       		.uleb128 0x15
 1004 050c C6040000 		.4byte	.LASF74
 1005 0510 05       		.byte	0x5
 1006 0511 4E02     		.2byte	0x24e
 1007 0513 1B090000 		.4byte	0x91b
 1008 0517 02       		.byte	0x2
 1009 0518 23       		.byte	0x23
 1010 0519 14       		.uleb128 0x14
 1011 051a 15       		.uleb128 0x15
 1012 051b F5010000 		.4byte	.LASF75
 1013 051f 05       		.byte	0x5
 1014 0520 5002     		.2byte	0x250
 1015 0522 57000000 		.4byte	0x57
 1016 0526 02       		.byte	0x2
ARM GAS  /var/folders/dt/0wfd0knj7gs46m8vwfzktm600000gn/T//ccWoQfLH.s 			page 19


 1017 0527 23       		.byte	0x23
 1018 0528 30       		.uleb128 0x30
 1019 0529 15       		.uleb128 0x15
 1020 052a 19050000 		.4byte	.LASF76
 1021 052e 05       		.byte	0x5
 1022 052f 5102     		.2byte	0x251
 1023 0531 42060000 		.4byte	0x642
 1024 0535 02       		.byte	0x2
 1025 0536 23       		.byte	0x23
 1026 0537 34       		.uleb128 0x34
 1027 0538 15       		.uleb128 0x15
 1028 0539 1A040000 		.4byte	.LASF77
 1029 053d 05       		.byte	0x5
 1030 053e 5302     		.2byte	0x253
 1031 0540 57000000 		.4byte	0x57
 1032 0544 02       		.byte	0x2
 1033 0545 23       		.byte	0x23
 1034 0546 38       		.uleb128 0x38
 1035 0547 15       		.uleb128 0x15
 1036 0548 A3040000 		.4byte	.LASF78
 1037 054c 05       		.byte	0x5
 1038 054d 5502     		.2byte	0x255
 1039 054f 37090000 		.4byte	0x937
 1040 0553 02       		.byte	0x2
 1041 0554 23       		.byte	0x23
 1042 0555 3C       		.uleb128 0x3c
 1043 0556 15       		.uleb128 0x15
 1044 0557 86080000 		.4byte	.LASF79
 1045 055b 05       		.byte	0x5
 1046 055c 5802     		.2byte	0x258
 1047 055e A5010000 		.4byte	0x1a5
 1048 0562 02       		.byte	0x2
 1049 0563 23       		.byte	0x23
 1050 0564 40       		.uleb128 0x40
 1051 0565 15       		.uleb128 0x15
 1052 0566 A3010000 		.4byte	.LASF80
 1053 056a 05       		.byte	0x5
 1054 056b 5902     		.2byte	0x259
 1055 056d 57000000 		.4byte	0x57
 1056 0571 02       		.byte	0x2
 1057 0572 23       		.byte	0x23
 1058 0573 44       		.uleb128 0x44
 1059 0574 15       		.uleb128 0x15
 1060 0575 FB030000 		.4byte	.LASF81
 1061 0579 05       		.byte	0x5
 1062 057a 5A02     		.2byte	0x25a
 1063 057c A5010000 		.4byte	0x1a5
 1064 0580 02       		.byte	0x2
 1065 0581 23       		.byte	0x23
 1066 0582 48       		.uleb128 0x48
 1067 0583 15       		.uleb128 0x15
 1068 0584 29050000 		.4byte	.LASF82
 1069 0588 05       		.byte	0x5
 1070 0589 5B02     		.2byte	0x25b
 1071 058b 3D090000 		.4byte	0x93d
 1072 058f 02       		.byte	0x2
 1073 0590 23       		.byte	0x23
ARM GAS  /var/folders/dt/0wfd0knj7gs46m8vwfzktm600000gn/T//ccWoQfLH.s 			page 20


 1074 0591 4C       		.uleb128 0x4c
 1075 0592 15       		.uleb128 0x15
 1076 0593 83000000 		.4byte	.LASF83
 1077 0597 05       		.byte	0x5
 1078 0598 5E02     		.2byte	0x25e
 1079 059a 57000000 		.4byte	0x57
 1080 059e 02       		.byte	0x2
 1081 059f 23       		.byte	0x23
 1082 05a0 50       		.uleb128 0x50
 1083 05a1 15       		.uleb128 0x15
 1084 05a2 C8030000 		.4byte	.LASF84
 1085 05a6 05       		.byte	0x5
 1086 05a7 5F02     		.2byte	0x25f
 1087 05a9 10060000 		.4byte	0x610
 1088 05ad 02       		.byte	0x2
 1089 05ae 23       		.byte	0x23
 1090 05af 54       		.uleb128 0x54
 1091 05b0 15       		.uleb128 0x15
 1092 05b1 C5050000 		.4byte	.LASF85
 1093 05b5 05       		.byte	0x5
 1094 05b6 8202     		.2byte	0x282
 1095 05b8 F9080000 		.4byte	0x8f9
 1096 05bc 02       		.byte	0x2
 1097 05bd 23       		.byte	0x23
 1098 05be 58       		.uleb128 0x58
 1099 05bf 15       		.uleb128 0x15
 1100 05c0 01060000 		.4byte	.LASF45
 1101 05c4 05       		.byte	0x5
 1102 05c5 8502     		.2byte	0x285
 1103 05c7 E6020000 		.4byte	0x2e6
 1104 05cb 03       		.byte	0x3
 1105 05cc 23       		.byte	0x23
 1106 05cd C802     		.uleb128 0x148
 1107 05cf 15       		.uleb128 0x15
 1108 05d0 AD040000 		.4byte	.LASF86
 1109 05d4 05       		.byte	0x5
 1110 05d5 8602     		.2byte	0x286
 1111 05d7 9F020000 		.4byte	0x29f
 1112 05db 03       		.byte	0x3
 1113 05dc 23       		.byte	0x23
 1114 05dd CC02     		.uleb128 0x14c
 1115 05df 15       		.uleb128 0x15
 1116 05e0 B6030000 		.4byte	.LASF87
 1117 05e4 05       		.byte	0x5
 1118 05e5 8902     		.2byte	0x289
 1119 05e7 4F090000 		.4byte	0x94f
 1120 05eb 03       		.byte	0x3
 1121 05ec 23       		.byte	0x23
 1122 05ed DC05     		.uleb128 0x2dc
 1123 05ef 15       		.uleb128 0x15
 1124 05f0 F4040000 		.4byte	.LASF88
 1125 05f4 05       		.byte	0x5
 1126 05f5 8E02     		.2byte	0x28e
 1127 05f7 BF060000 		.4byte	0x6bf
 1128 05fb 03       		.byte	0x3
 1129 05fc 23       		.byte	0x23
 1130 05fd E005     		.uleb128 0x2e0
ARM GAS  /var/folders/dt/0wfd0knj7gs46m8vwfzktm600000gn/T//ccWoQfLH.s 			page 21


 1131 05ff 15       		.uleb128 0x15
 1132 0600 22000000 		.4byte	.LASF89
 1133 0604 05       		.byte	0x5
 1134 0605 8F02     		.2byte	0x28f
 1135 0607 5B090000 		.4byte	0x95b
 1136 060b 03       		.byte	0x3
 1137 060c 23       		.byte	0x23
 1138 060d EC05     		.uleb128 0x2ec
 1139 060f 00       		.byte	0
 1140 0610 0F       		.uleb128 0xf
 1141 0611 04       		.byte	0x4
 1142 0612 16060000 		.4byte	0x616
 1143 0616 03       		.uleb128 0x3
 1144 0617 01       		.byte	0x1
 1145 0618 08       		.byte	0x8
 1146 0619 E7020000 		.4byte	.LASF90
 1147 061d 0F       		.uleb128 0xf
 1148 061e 04       		.byte	0x4
 1149 061f 8D040000 		.4byte	0x48d
 1150 0623 12       		.uleb128 0x12
 1151 0624 01       		.byte	0x1
 1152 0625 57000000 		.4byte	0x57
 1153 0629 42060000 		.4byte	0x642
 1154 062d 13       		.uleb128 0x13
 1155 062e AC040000 		.4byte	0x4ac
 1156 0632 13       		.uleb128 0x13
 1157 0633 32010000 		.4byte	0x132
 1158 0637 13       		.uleb128 0x13
 1159 0638 42060000 		.4byte	0x642
 1160 063c 13       		.uleb128 0x13
 1161 063d 57000000 		.4byte	0x57
 1162 0641 00       		.byte	0
 1163 0642 0F       		.uleb128 0xf
 1164 0643 04       		.byte	0x4
 1165 0644 48060000 		.4byte	0x648
 1166 0648 16       		.uleb128 0x16
 1167 0649 16060000 		.4byte	0x616
 1168 064d 0F       		.uleb128 0xf
 1169 064e 04       		.byte	0x4
 1170 064f 23060000 		.4byte	0x623
 1171 0653 12       		.uleb128 0x12
 1172 0654 01       		.byte	0x1
 1173 0655 AA000000 		.4byte	0xaa
 1174 0659 72060000 		.4byte	0x672
 1175 065d 13       		.uleb128 0x13
 1176 065e AC040000 		.4byte	0x4ac
 1177 0662 13       		.uleb128 0x13
 1178 0663 32010000 		.4byte	0x132
 1179 0667 13       		.uleb128 0x13
 1180 0668 AA000000 		.4byte	0xaa
 1181 066c 13       		.uleb128 0x13
 1182 066d 57000000 		.4byte	0x57
 1183 0671 00       		.byte	0
 1184 0672 0F       		.uleb128 0xf
 1185 0673 04       		.byte	0x4
 1186 0674 53060000 		.4byte	0x653
 1187 0678 12       		.uleb128 0x12
ARM GAS  /var/folders/dt/0wfd0knj7gs46m8vwfzktm600000gn/T//ccWoQfLH.s 			page 22


 1188 0679 01       		.byte	0x1
 1189 067a 57000000 		.4byte	0x57
 1190 067e 8D060000 		.4byte	0x68d
 1191 0682 13       		.uleb128 0x13
 1192 0683 AC040000 		.4byte	0x4ac
 1193 0687 13       		.uleb128 0x13
 1194 0688 32010000 		.4byte	0x132
 1195 068c 00       		.byte	0
 1196 068d 0F       		.uleb128 0xf
 1197 068e 04       		.byte	0x4
 1198 068f 78060000 		.4byte	0x678
 1199 0693 08       		.uleb128 0x8
 1200 0694 42000000 		.4byte	0x42
 1201 0698 A3060000 		.4byte	0x6a3
 1202 069c 09       		.uleb128 0x9
 1203 069d F0000000 		.4byte	0xf0
 1204 06a1 02       		.byte	0x2
 1205 06a2 00       		.byte	0
 1206 06a3 08       		.uleb128 0x8
 1207 06a4 42000000 		.4byte	0x42
 1208 06a8 B3060000 		.4byte	0x6b3
 1209 06ac 09       		.uleb128 0x9
 1210 06ad F0000000 		.4byte	0xf0
 1211 06b1 00       		.byte	0
 1212 06b2 00       		.byte	0
 1213 06b3 05       		.uleb128 0x5
 1214 06b4 6E070000 		.4byte	.LASF91
 1215 06b8 05       		.byte	0x5
 1216 06b9 1101     		.2byte	0x111
 1217 06bb 33030000 		.4byte	0x333
 1218 06bf 17       		.uleb128 0x17
 1219 06c0 39050000 		.4byte	.LASF92
 1220 06c4 0C       		.byte	0xc
 1221 06c5 05       		.byte	0x5
 1222 06c6 1501     		.2byte	0x115
 1223 06c8 FA060000 		.4byte	0x6fa
 1224 06cc 15       		.uleb128 0x15
 1225 06cd 99070000 		.4byte	.LASF25
 1226 06d1 05       		.byte	0x5
 1227 06d2 1701     		.2byte	0x117
 1228 06d4 FA060000 		.4byte	0x6fa
 1229 06d8 02       		.byte	0x2
 1230 06d9 23       		.byte	0x23
 1231 06da 00       		.uleb128 0
 1232 06db 15       		.uleb128 0x15
 1233 06dc ED040000 		.4byte	.LASF93
 1234 06e0 05       		.byte	0x5
 1235 06e1 1801     		.2byte	0x118
 1236 06e3 57000000 		.4byte	0x57
 1237 06e7 02       		.byte	0x2
 1238 06e8 23       		.byte	0x23
 1239 06e9 04       		.uleb128 0x4
 1240 06ea 15       		.uleb128 0x15
 1241 06eb 33050000 		.4byte	.LASF94
 1242 06ef 05       		.byte	0x5
 1243 06f0 1901     		.2byte	0x119
 1244 06f2 00070000 		.4byte	0x700
ARM GAS  /var/folders/dt/0wfd0knj7gs46m8vwfzktm600000gn/T//ccWoQfLH.s 			page 23


 1245 06f6 02       		.byte	0x2
 1246 06f7 23       		.byte	0x23
 1247 06f8 08       		.uleb128 0x8
 1248 06f9 00       		.byte	0
 1249 06fa 0F       		.uleb128 0xf
 1250 06fb 04       		.byte	0x4
 1251 06fc BF060000 		.4byte	0x6bf
 1252 0700 0F       		.uleb128 0xf
 1253 0701 04       		.byte	0x4
 1254 0702 B3060000 		.4byte	0x6b3
 1255 0706 17       		.uleb128 0x17
 1256 0707 21070000 		.4byte	.LASF95
 1257 070b 0E       		.byte	0xe
 1258 070c 05       		.byte	0x5
 1259 070d 3101     		.2byte	0x131
 1260 070f 41070000 		.4byte	0x741
 1261 0713 15       		.uleb128 0x15
 1262 0714 64060000 		.4byte	.LASF96
 1263 0718 05       		.byte	0x5
 1264 0719 3201     		.2byte	0x132
 1265 071b 41070000 		.4byte	0x741
 1266 071f 02       		.byte	0x2
 1267 0720 23       		.byte	0x23
 1268 0721 00       		.uleb128 0
 1269 0722 15       		.uleb128 0x15
 1270 0723 04010000 		.4byte	.LASF97
 1271 0727 05       		.byte	0x5
 1272 0728 3301     		.2byte	0x133
 1273 072a 41070000 		.4byte	0x741
 1274 072e 02       		.byte	0x2
 1275 072f 23       		.byte	0x23
 1276 0730 06       		.uleb128 0x6
 1277 0731 15       		.uleb128 0x15
 1278 0732 B7080000 		.4byte	.LASF98
 1279 0736 05       		.byte	0x5
 1280 0737 3401     		.2byte	0x134
 1281 0739 50000000 		.4byte	0x50
 1282 073d 02       		.byte	0x2
 1283 073e 23       		.byte	0x23
 1284 073f 0C       		.uleb128 0xc
 1285 0740 00       		.byte	0
 1286 0741 08       		.uleb128 0x8
 1287 0742 50000000 		.4byte	0x50
 1288 0746 51070000 		.4byte	0x751
 1289 074a 09       		.uleb128 0x9
 1290 074b F0000000 		.4byte	0xf0
 1291 074f 02       		.byte	0x2
 1292 0750 00       		.byte	0
 1293 0751 18       		.uleb128 0x18
 1294 0752 D0       		.byte	0xd0
 1295 0753 05       		.byte	0x5
 1296 0754 6302     		.2byte	0x263
 1297 0756 81080000 		.4byte	0x881
 1298 075a 15       		.uleb128 0x15
 1299 075b 0D020000 		.4byte	.LASF99
 1300 075f 05       		.byte	0x5
 1301 0760 6502     		.2byte	0x265
ARM GAS  /var/folders/dt/0wfd0knj7gs46m8vwfzktm600000gn/T//ccWoQfLH.s 			page 24


 1302 0762 34000000 		.4byte	0x34
 1303 0766 02       		.byte	0x2
 1304 0767 23       		.byte	0x23
 1305 0768 00       		.uleb128 0
 1306 0769 15       		.uleb128 0x15
 1307 076a 49070000 		.4byte	.LASF100
 1308 076e 05       		.byte	0x5
 1309 076f 6602     		.2byte	0x266
 1310 0771 10060000 		.4byte	0x610
 1311 0775 02       		.byte	0x2
 1312 0776 23       		.byte	0x23
 1313 0777 04       		.uleb128 0x4
 1314 0778 15       		.uleb128 0x15
 1315 0779 76000000 		.4byte	.LASF101
 1316 077d 05       		.byte	0x5
 1317 077e 6702     		.2byte	0x267
 1318 0780 81080000 		.4byte	0x881
 1319 0784 02       		.byte	0x2
 1320 0785 23       		.byte	0x23
 1321 0786 08       		.uleb128 0x8
 1322 0787 15       		.uleb128 0x15
 1323 0788 BA010000 		.4byte	.LASF102
 1324 078c 05       		.byte	0x5
 1325 078d 6802     		.2byte	0x268
 1326 078f BB010000 		.4byte	0x1bb
 1327 0793 02       		.byte	0x2
 1328 0794 23       		.byte	0x23
 1329 0795 24       		.uleb128 0x24
 1330 0796 15       		.uleb128 0x15
 1331 0797 0A050000 		.4byte	.LASF103
 1332 079b 05       		.byte	0x5
 1333 079c 6902     		.2byte	0x269
 1334 079e 57000000 		.4byte	0x57
 1335 07a2 02       		.byte	0x2
 1336 07a3 23       		.byte	0x23
 1337 07a4 48       		.uleb128 0x48
 1338 07a5 15       		.uleb128 0x15
 1339 07a6 EF050000 		.4byte	.LASF104
 1340 07aa 05       		.byte	0x5
 1341 07ab 6A02     		.2byte	0x26a
 1342 07ad 65000000 		.4byte	0x65
 1343 07b1 02       		.byte	0x2
 1344 07b2 23       		.byte	0x23
 1345 07b3 50       		.uleb128 0x50
 1346 07b4 15       		.uleb128 0x15
 1347 07b5 80070000 		.4byte	.LASF105
 1348 07b9 05       		.byte	0x5
 1349 07ba 6B02     		.2byte	0x26b
 1350 07bc 06070000 		.4byte	0x706
 1351 07c0 02       		.byte	0x2
 1352 07c1 23       		.byte	0x23
 1353 07c2 58       		.uleb128 0x58
 1354 07c3 15       		.uleb128 0x15
 1355 07c4 DD070000 		.4byte	.LASF106
 1356 07c8 05       		.byte	0x5
 1357 07c9 6C02     		.2byte	0x26c
 1358 07cb 1C010000 		.4byte	0x11c
ARM GAS  /var/folders/dt/0wfd0knj7gs46m8vwfzktm600000gn/T//ccWoQfLH.s 			page 25


 1359 07cf 02       		.byte	0x2
 1360 07d0 23       		.byte	0x23
 1361 07d1 68       		.uleb128 0x68
 1362 07d2 15       		.uleb128 0x15
 1363 07d3 86060000 		.4byte	.LASF107
 1364 07d7 05       		.byte	0x5
 1365 07d8 6D02     		.2byte	0x26d
 1366 07da 1C010000 		.4byte	0x11c
 1367 07de 02       		.byte	0x2
 1368 07df 23       		.byte	0x23
 1369 07e0 70       		.uleb128 0x70
 1370 07e1 15       		.uleb128 0x15
 1371 07e2 D8050000 		.4byte	.LASF108
 1372 07e6 05       		.byte	0x5
 1373 07e7 6E02     		.2byte	0x26e
 1374 07e9 1C010000 		.4byte	0x11c
 1375 07ed 02       		.byte	0x2
 1376 07ee 23       		.byte	0x23
 1377 07ef 78       		.uleb128 0x78
 1378 07f0 15       		.uleb128 0x15
 1379 07f1 E7000000 		.4byte	.LASF109
 1380 07f5 05       		.byte	0x5
 1381 07f6 6F02     		.2byte	0x26f
 1382 07f8 91080000 		.4byte	0x891
 1383 07fc 03       		.byte	0x3
 1384 07fd 23       		.byte	0x23
 1385 07fe 8001     		.uleb128 0x80
 1386 0800 15       		.uleb128 0x15
 1387 0801 68040000 		.4byte	.LASF110
 1388 0805 05       		.byte	0x5
 1389 0806 7002     		.2byte	0x270
 1390 0808 A1080000 		.4byte	0x8a1
 1391 080c 03       		.byte	0x3
 1392 080d 23       		.byte	0x23
 1393 080e 8801     		.uleb128 0x88
 1394 0810 15       		.uleb128 0x15
 1395 0811 44090000 		.4byte	.LASF111
 1396 0815 05       		.byte	0x5
 1397 0816 7102     		.2byte	0x271
 1398 0818 57000000 		.4byte	0x57
 1399 081c 03       		.byte	0x3
 1400 081d 23       		.byte	0x23
 1401 081e A001     		.uleb128 0xa0
 1402 0820 15       		.uleb128 0x15
 1403 0821 7D010000 		.4byte	.LASF112
 1404 0825 05       		.byte	0x5
 1405 0826 7202     		.2byte	0x272
 1406 0828 1C010000 		.4byte	0x11c
 1407 082c 03       		.byte	0x3
 1408 082d 23       		.byte	0x23
 1409 082e A401     		.uleb128 0xa4
 1410 0830 15       		.uleb128 0x15
 1411 0831 56070000 		.4byte	.LASF113
 1412 0835 05       		.byte	0x5
 1413 0836 7302     		.2byte	0x273
 1414 0838 1C010000 		.4byte	0x11c
 1415 083c 03       		.byte	0x3
ARM GAS  /var/folders/dt/0wfd0knj7gs46m8vwfzktm600000gn/T//ccWoQfLH.s 			page 26


 1416 083d 23       		.byte	0x23
 1417 083e AC01     		.uleb128 0xac
 1418 0840 15       		.uleb128 0x15
 1419 0841 E4080000 		.4byte	.LASF114
 1420 0845 05       		.byte	0x5
 1421 0846 7402     		.2byte	0x274
 1422 0848 1C010000 		.4byte	0x11c
 1423 084c 03       		.byte	0x3
 1424 084d 23       		.byte	0x23
 1425 084e B401     		.uleb128 0xb4
 1426 0850 15       		.uleb128 0x15
 1427 0851 AC050000 		.4byte	.LASF115
 1428 0855 05       		.byte	0x5
 1429 0856 7502     		.2byte	0x275
 1430 0858 1C010000 		.4byte	0x11c
 1431 085c 03       		.byte	0x3
 1432 085d 23       		.byte	0x23
 1433 085e BC01     		.uleb128 0xbc
 1434 0860 15       		.uleb128 0x15
 1435 0861 C7000000 		.4byte	.LASF116
 1436 0865 05       		.byte	0x5
 1437 0866 7602     		.2byte	0x276
 1438 0868 1C010000 		.4byte	0x11c
 1439 086c 03       		.byte	0x3
 1440 086d 23       		.byte	0x23
 1441 086e C401     		.uleb128 0xc4
 1442 0870 15       		.uleb128 0x15
 1443 0871 97050000 		.4byte	.LASF117
 1444 0875 05       		.byte	0x5
 1445 0876 7702     		.2byte	0x277
 1446 0878 57000000 		.4byte	0x57
 1447 087c 03       		.byte	0x3
 1448 087d 23       		.byte	0x23
 1449 087e CC01     		.uleb128 0xcc
 1450 0880 00       		.byte	0
 1451 0881 08       		.uleb128 0x8
 1452 0882 16060000 		.4byte	0x616
 1453 0886 91080000 		.4byte	0x891
 1454 088a 09       		.uleb128 0x9
 1455 088b F0000000 		.4byte	0xf0
 1456 088f 19       		.byte	0x19
 1457 0890 00       		.byte	0
 1458 0891 08       		.uleb128 0x8
 1459 0892 16060000 		.4byte	0x616
 1460 0896 A1080000 		.4byte	0x8a1
 1461 089a 09       		.uleb128 0x9
 1462 089b F0000000 		.4byte	0xf0
 1463 089f 07       		.byte	0x7
 1464 08a0 00       		.byte	0
 1465 08a1 08       		.uleb128 0x8
 1466 08a2 16060000 		.4byte	0x616
 1467 08a6 B1080000 		.4byte	0x8b1
 1468 08aa 09       		.uleb128 0x9
 1469 08ab F0000000 		.4byte	0xf0
 1470 08af 17       		.byte	0x17
 1471 08b0 00       		.byte	0
 1472 08b1 18       		.uleb128 0x18
ARM GAS  /var/folders/dt/0wfd0knj7gs46m8vwfzktm600000gn/T//ccWoQfLH.s 			page 27


 1473 08b2 F0       		.byte	0xf0
 1474 08b3 05       		.byte	0x5
 1475 08b4 7C02     		.2byte	0x27c
 1476 08b6 D9080000 		.4byte	0x8d9
 1477 08ba 15       		.uleb128 0x15
 1478 08bb 60080000 		.4byte	.LASF118
 1479 08bf 05       		.byte	0x5
 1480 08c0 7F02     		.2byte	0x27f
 1481 08c2 D9080000 		.4byte	0x8d9
 1482 08c6 02       		.byte	0x2
 1483 08c7 23       		.byte	0x23
 1484 08c8 00       		.uleb128 0
 1485 08c9 15       		.uleb128 0x15
 1486 08ca FC040000 		.4byte	.LASF119
 1487 08ce 05       		.byte	0x5
 1488 08cf 8002     		.2byte	0x280
 1489 08d1 E9080000 		.4byte	0x8e9
 1490 08d5 02       		.byte	0x2
 1491 08d6 23       		.byte	0x23
 1492 08d7 78       		.uleb128 0x78
 1493 08d8 00       		.byte	0
 1494 08d9 08       		.uleb128 0x8
 1495 08da 2D030000 		.4byte	0x32d
 1496 08de E9080000 		.4byte	0x8e9
 1497 08e2 09       		.uleb128 0x9
 1498 08e3 F0000000 		.4byte	0xf0
 1499 08e7 1D       		.byte	0x1d
 1500 08e8 00       		.byte	0
 1501 08e9 08       		.uleb128 0x8
 1502 08ea 34000000 		.4byte	0x34
 1503 08ee F9080000 		.4byte	0x8f9
 1504 08f2 09       		.uleb128 0x9
 1505 08f3 F0000000 		.4byte	0xf0
 1506 08f7 1D       		.byte	0x1d
 1507 08f8 00       		.byte	0
 1508 08f9 19       		.uleb128 0x19
 1509 08fa F0       		.byte	0xf0
 1510 08fb 05       		.byte	0x5
 1511 08fc 6102     		.2byte	0x261
 1512 08fe 1B090000 		.4byte	0x91b
 1513 0902 1A       		.uleb128 0x1a
 1514 0903 C0020000 		.4byte	.LASF68
 1515 0907 05       		.byte	0x5
 1516 0908 7802     		.2byte	0x278
 1517 090a 51070000 		.4byte	0x751
 1518 090e 1A       		.uleb128 0x1a
 1519 090f BA000000 		.4byte	.LASF120
 1520 0913 05       		.byte	0x5
 1521 0914 8102     		.2byte	0x281
 1522 0916 B1080000 		.4byte	0x8b1
 1523 091a 00       		.byte	0
 1524 091b 08       		.uleb128 0x8
 1525 091c 16060000 		.4byte	0x616
 1526 0920 2B090000 		.4byte	0x92b
 1527 0924 09       		.uleb128 0x9
 1528 0925 F0000000 		.4byte	0xf0
 1529 0929 18       		.byte	0x18
ARM GAS  /var/folders/dt/0wfd0knj7gs46m8vwfzktm600000gn/T//ccWoQfLH.s 			page 28


 1530 092a 00       		.byte	0
 1531 092b 1B       		.uleb128 0x1b
 1532 092c 01       		.byte	0x1
 1533 092d 37090000 		.4byte	0x937
 1534 0931 13       		.uleb128 0x13
 1535 0932 AC040000 		.4byte	0x4ac
 1536 0936 00       		.byte	0
 1537 0937 0F       		.uleb128 0xf
 1538 0938 04       		.byte	0x4
 1539 0939 2B090000 		.4byte	0x92b
 1540 093d 0F       		.uleb128 0xf
 1541 093e 04       		.byte	0x4
 1542 093f A5010000 		.4byte	0x1a5
 1543 0943 1B       		.uleb128 0x1b
 1544 0944 01       		.byte	0x1
 1545 0945 4F090000 		.4byte	0x94f
 1546 0949 13       		.uleb128 0x13
 1547 094a 57000000 		.4byte	0x57
 1548 094e 00       		.byte	0
 1549 094f 0F       		.uleb128 0xf
 1550 0950 04       		.byte	0x4
 1551 0951 55090000 		.4byte	0x955
 1552 0955 0F       		.uleb128 0xf
 1553 0956 04       		.byte	0x4
 1554 0957 43090000 		.4byte	0x943
 1555 095b 08       		.uleb128 0x8
 1556 095c B3060000 		.4byte	0x6b3
 1557 0960 6B090000 		.4byte	0x96b
 1558 0964 09       		.uleb128 0x9
 1559 0965 F0000000 		.4byte	0xf0
 1560 0969 02       		.byte	0x2
 1561 096a 00       		.byte	0
 1562 096b 02       		.uleb128 0x2
 1563 096c F1000000 		.4byte	.LASF121
 1564 0970 06       		.byte	0x6
 1565 0971 6E       		.byte	0x6e
 1566 0972 82000000 		.4byte	0x82
 1567 0976 02       		.uleb128 0x2
 1568 0977 87050000 		.4byte	.LASF122
 1569 097b 06       		.byte	0x6
 1570 097c 7F       		.byte	0x7f
 1571 097d 10060000 		.4byte	0x610
 1572 0981 02       		.uleb128 0x2
 1573 0982 F5030000 		.4byte	.LASF123
 1574 0986 06       		.byte	0x6
 1575 0987 86       		.byte	0x86
 1576 0988 50000000 		.4byte	0x50
 1577 098c 02       		.uleb128 0x2
 1578 098d 21060000 		.4byte	.LASF124
 1579 0991 06       		.byte	0x6
 1580 0992 A3       		.byte	0xa3
 1581 0993 77000000 		.4byte	0x77
 1582 0997 02       		.uleb128 0x2
 1583 0998 93000000 		.4byte	.LASF125
 1584 099c 06       		.byte	0x6
 1585 099d A4       		.byte	0xa4
 1586 099e 89000000 		.4byte	0x89
ARM GAS  /var/folders/dt/0wfd0knj7gs46m8vwfzktm600000gn/T//ccWoQfLH.s 			page 29


 1587 09a2 02       		.uleb128 0x2
 1588 09a3 43010000 		.4byte	.LASF126
 1589 09a7 06       		.byte	0x6
 1590 09a8 A5       		.byte	0xa5
 1591 09a9 94000000 		.4byte	0x94
 1592 09ad 02       		.uleb128 0x2
 1593 09ae 2E090000 		.4byte	.LASF127
 1594 09b2 06       		.byte	0x6
 1595 09b3 A6       		.byte	0xa6
 1596 09b4 9F000000 		.4byte	0x9f
 1597 09b8 02       		.uleb128 0x2
 1598 09b9 27060000 		.4byte	.LASF128
 1599 09bd 06       		.byte	0x6
 1600 09be C4       		.byte	0xc4
 1601 09bf 34000000 		.4byte	0x34
 1602 09c3 02       		.uleb128 0x2
 1603 09c4 99000000 		.4byte	.LASF129
 1604 09c8 06       		.byte	0x6
 1605 09c9 C9       		.byte	0xc9
 1606 09ca 50000000 		.4byte	0x50
 1607 09ce 0D       		.uleb128 0xd
 1608 09cf B6040000 		.4byte	.LASF130
 1609 09d3 3C       		.byte	0x3c
 1610 09d4 07       		.byte	0x7
 1611 09d5 19       		.byte	0x19
 1612 09d6 C90A0000 		.4byte	0xac9
 1613 09da 0B       		.uleb128 0xb
 1614 09db 70060000 		.4byte	.LASF131
 1615 09df 07       		.byte	0x7
 1616 09e0 1B       		.byte	0x1b
 1617 09e1 97090000 		.4byte	0x997
 1618 09e5 02       		.byte	0x2
 1619 09e6 23       		.byte	0x23
 1620 09e7 00       		.uleb128 0
 1621 09e8 0B       		.uleb128 0xb
 1622 09e9 0D090000 		.4byte	.LASF132
 1623 09ed 07       		.byte	0x7
 1624 09ee 1C       		.byte	0x1c
 1625 09ef 81090000 		.4byte	0x981
 1626 09f3 02       		.byte	0x2
 1627 09f4 23       		.byte	0x23
 1628 09f5 02       		.uleb128 0x2
 1629 09f6 0B       		.uleb128 0xb
 1630 09f7 50080000 		.4byte	.LASF133
 1631 09fb 07       		.byte	0x7
 1632 09fc 1D       		.byte	0x1d
 1633 09fd B8090000 		.4byte	0x9b8
 1634 0a01 02       		.byte	0x2
 1635 0a02 23       		.byte	0x23
 1636 0a03 04       		.uleb128 0x4
 1637 0a04 0B       		.uleb128 0xb
 1638 0a05 18060000 		.4byte	.LASF134
 1639 0a09 07       		.byte	0x7
 1640 0a0a 1E       		.byte	0x1e
 1641 0a0b C3090000 		.4byte	0x9c3
 1642 0a0f 02       		.byte	0x2
 1643 0a10 23       		.byte	0x23
ARM GAS  /var/folders/dt/0wfd0knj7gs46m8vwfzktm600000gn/T//ccWoQfLH.s 			page 30


 1644 0a11 08       		.uleb128 0x8
 1645 0a12 0B       		.uleb128 0xb
 1646 0a13 3F020000 		.4byte	.LASF135
 1647 0a17 07       		.byte	0x7
 1648 0a18 1F       		.byte	0x1f
 1649 0a19 A2090000 		.4byte	0x9a2
 1650 0a1d 02       		.byte	0x2
 1651 0a1e 23       		.byte	0x23
 1652 0a1f 0A       		.uleb128 0xa
 1653 0a20 0B       		.uleb128 0xb
 1654 0a21 D0030000 		.4byte	.LASF136
 1655 0a25 07       		.byte	0x7
 1656 0a26 20       		.byte	0x20
 1657 0a27 AD090000 		.4byte	0x9ad
 1658 0a2b 02       		.byte	0x2
 1659 0a2c 23       		.byte	0x23
 1660 0a2d 0C       		.uleb128 0xc
 1661 0a2e 0B       		.uleb128 0xb
 1662 0a2f B8020000 		.4byte	.LASF137
 1663 0a33 07       		.byte	0x7
 1664 0a34 21       		.byte	0x21
 1665 0a35 97090000 		.4byte	0x997
 1666 0a39 02       		.byte	0x2
 1667 0a3a 23       		.byte	0x23
 1668 0a3b 0E       		.uleb128 0xe
 1669 0a3c 0B       		.uleb128 0xb
 1670 0a3d 2D040000 		.4byte	.LASF138
 1671 0a41 07       		.byte	0x7
 1672 0a42 22       		.byte	0x22
 1673 0a43 8C090000 		.4byte	0x98c
 1674 0a47 02       		.byte	0x2
 1675 0a48 23       		.byte	0x23
 1676 0a49 10       		.uleb128 0x10
 1677 0a4a 0B       		.uleb128 0xb
 1678 0a4b 38060000 		.4byte	.LASF139
 1679 0a4f 07       		.byte	0x7
 1680 0a50 30       		.byte	0x30
 1681 0a51 6B090000 		.4byte	0x96b
 1682 0a55 02       		.byte	0x2
 1683 0a56 23       		.byte	0x23
 1684 0a57 14       		.uleb128 0x14
 1685 0a58 0B       		.uleb128 0xb
 1686 0a59 35020000 		.4byte	.LASF140
 1687 0a5d 07       		.byte	0x7
 1688 0a5e 31       		.byte	0x31
 1689 0a5f 82000000 		.4byte	0x82
 1690 0a63 02       		.byte	0x2
 1691 0a64 23       		.byte	0x23
 1692 0a65 18       		.uleb128 0x18
 1693 0a66 0B       		.uleb128 0xb
 1694 0a67 CB070000 		.4byte	.LASF141
 1695 0a6b 07       		.byte	0x7
 1696 0a6c 32       		.byte	0x32
 1697 0a6d 6B090000 		.4byte	0x96b
 1698 0a71 02       		.byte	0x2
 1699 0a72 23       		.byte	0x23
 1700 0a73 1C       		.uleb128 0x1c
ARM GAS  /var/folders/dt/0wfd0knj7gs46m8vwfzktm600000gn/T//ccWoQfLH.s 			page 31


 1701 0a74 0B       		.uleb128 0xb
 1702 0a75 5E040000 		.4byte	.LASF142
 1703 0a79 07       		.byte	0x7
 1704 0a7a 33       		.byte	0x33
 1705 0a7b 82000000 		.4byte	0x82
 1706 0a7f 02       		.byte	0x2
 1707 0a80 23       		.byte	0x23
 1708 0a81 20       		.uleb128 0x20
 1709 0a82 0B       		.uleb128 0xb
 1710 0a83 61030000 		.4byte	.LASF143
 1711 0a87 07       		.byte	0x7
 1712 0a88 34       		.byte	0x34
 1713 0a89 6B090000 		.4byte	0x96b
 1714 0a8d 02       		.byte	0x2
 1715 0a8e 23       		.byte	0x23
 1716 0a8f 24       		.uleb128 0x24
 1717 0a90 0B       		.uleb128 0xb
 1718 0a91 46020000 		.4byte	.LASF144
 1719 0a95 07       		.byte	0x7
 1720 0a96 35       		.byte	0x35
 1721 0a97 82000000 		.4byte	0x82
 1722 0a9b 02       		.byte	0x2
 1723 0a9c 23       		.byte	0x23
 1724 0a9d 28       		.uleb128 0x28
 1725 0a9e 0B       		.uleb128 0xb
 1726 0a9f BB040000 		.4byte	.LASF145
 1727 0aa3 07       		.byte	0x7
 1728 0aa4 36       		.byte	0x36
 1729 0aa5 82000000 		.4byte	0x82
 1730 0aa9 02       		.byte	0x2
 1731 0aaa 23       		.byte	0x23
 1732 0aab 2C       		.uleb128 0x2c
 1733 0aac 0B       		.uleb128 0xb
 1734 0aad 4B000000 		.4byte	.LASF146
 1735 0ab1 07       		.byte	0x7
 1736 0ab2 37       		.byte	0x37
 1737 0ab3 82000000 		.4byte	0x82
 1738 0ab7 02       		.byte	0x2
 1739 0ab8 23       		.byte	0x23
 1740 0ab9 30       		.uleb128 0x30
 1741 0aba 0B       		.uleb128 0xb
 1742 0abb 50020000 		.4byte	.LASF147
 1743 0abf 07       		.byte	0x7
 1744 0ac0 38       		.byte	0x38
 1745 0ac1 C90A0000 		.4byte	0xac9
 1746 0ac5 02       		.byte	0x2
 1747 0ac6 23       		.byte	0x23
 1748 0ac7 34       		.uleb128 0x34
 1749 0ac8 00       		.byte	0
 1750 0ac9 08       		.uleb128 0x8
 1751 0aca 82000000 		.4byte	0x82
 1752 0ace D90A0000 		.4byte	0xad9
 1753 0ad2 09       		.uleb128 0x9
 1754 0ad3 F0000000 		.4byte	0xf0
 1755 0ad7 01       		.byte	0x1
 1756 0ad8 00       		.byte	0
 1757 0ad9 02       		.uleb128 0x2
ARM GAS  /var/folders/dt/0wfd0knj7gs46m8vwfzktm600000gn/T//ccWoQfLH.s 			page 32


 1758 0ada 2D020000 		.4byte	.LASF148
 1759 0ade 08       		.byte	0x8
 1760 0adf 2A       		.byte	0x2a
 1761 0ae0 42000000 		.4byte	0x42
 1762 0ae4 02       		.uleb128 0x2
 1763 0ae5 B3060000 		.4byte	.LASF149
 1764 0ae9 08       		.byte	0x8
 1765 0aea 36       		.byte	0x36
 1766 0aeb 50000000 		.4byte	0x50
 1767 0aef 02       		.uleb128 0x2
 1768 0af0 67000000 		.4byte	.LASF150
 1769 0af4 08       		.byte	0x8
 1770 0af5 4F       		.byte	0x4f
 1771 0af6 82000000 		.4byte	0x82
 1772 0afa 02       		.uleb128 0x2
 1773 0afb 7D080000 		.4byte	.LASF151
 1774 0aff 08       		.byte	0x8
 1775 0b00 50       		.byte	0x50
 1776 0b01 3F010000 		.4byte	0x13f
 1777 0b05 02       		.uleb128 0x2
 1778 0b06 9B080000 		.4byte	.LASF152
 1779 0b0a 08       		.byte	0x8
 1780 0b0b A6       		.byte	0xa6
 1781 0b0c 34000000 		.4byte	0x34
 1782 0b10 02       		.uleb128 0x2
 1783 0b11 0E080000 		.4byte	.LASF153
 1784 0b15 09       		.byte	0x9
 1785 0b16 2E       		.byte	0x2e
 1786 0b17 EF0A0000 		.4byte	0xaef
 1787 0b1b 02       		.uleb128 0x2
 1788 0b1c B9070000 		.4byte	.LASF154
 1789 0b20 09       		.byte	0x9
 1790 0b21 2F       		.byte	0x2f
 1791 0b22 D90A0000 		.4byte	0xad9
 1792 0b26 02       		.uleb128 0x2
 1793 0b27 C9010000 		.4byte	.LASF155
 1794 0b2b 09       		.byte	0x9
 1795 0b2c 30       		.byte	0x30
 1796 0b2d D90A0000 		.4byte	0xad9
 1797 0b31 02       		.uleb128 0x2
 1798 0b32 4B030000 		.4byte	.LASF156
 1799 0b36 09       		.byte	0x9
 1800 0b37 31       		.byte	0x31
 1801 0b38 D90A0000 		.4byte	0xad9
 1802 0b3c 02       		.uleb128 0x2
 1803 0b3d 43000000 		.4byte	.LASF157
 1804 0b41 09       		.byte	0x9
 1805 0b42 32       		.byte	0x32
 1806 0b43 FA0A0000 		.4byte	0xafa
 1807 0b47 02       		.uleb128 0x2
 1808 0b48 C8060000 		.4byte	.LASF158
 1809 0b4c 09       		.byte	0x9
 1810 0b4d 33       		.byte	0x33
 1811 0b4e EF0A0000 		.4byte	0xaef
 1812 0b52 02       		.uleb128 0x2
 1813 0b53 5A020000 		.4byte	.LASF159
 1814 0b57 09       		.byte	0x9
ARM GAS  /var/folders/dt/0wfd0knj7gs46m8vwfzktm600000gn/T//ccWoQfLH.s 			page 33


 1815 0b58 35       		.byte	0x35
 1816 0b59 FA0A0000 		.4byte	0xafa
 1817 0b5d 02       		.uleb128 0x2
 1818 0b5e 18000000 		.4byte	.LASF160
 1819 0b62 09       		.byte	0x9
 1820 0b63 36       		.byte	0x36
 1821 0b64 FA0A0000 		.4byte	0xafa
 1822 0b68 02       		.uleb128 0x2
 1823 0b69 15080000 		.4byte	.LASF161
 1824 0b6d 0A       		.byte	0xa
 1825 0b6e 2A       		.byte	0x2a
 1826 0b6f 730B0000 		.4byte	0xb73
 1827 0b73 0D       		.uleb128 0xd
 1828 0b74 15080000 		.4byte	.LASF161
 1829 0b78 48       		.byte	0x48
 1830 0b79 0B       		.byte	0xb
 1831 0b7a 5E       		.byte	0x5e
 1832 0b7b 8A0C0000 		.4byte	0xc8a
 1833 0b7f 0B       		.uleb128 0xb
 1834 0b80 94010000 		.4byte	.LASF162
 1835 0b84 0B       		.byte	0xb
 1836 0b85 5F       		.byte	0x5f
 1837 0b86 AF0C0000 		.4byte	0xcaf
 1838 0b8a 02       		.byte	0x2
 1839 0b8b 23       		.byte	0x23
 1840 0b8c 00       		.uleb128 0
 1841 0b8d 0B       		.uleb128 0xb
 1842 0b8e B3010000 		.4byte	.LASF163
 1843 0b92 0B       		.byte	0xb
 1844 0b93 61       		.byte	0x61
 1845 0b94 AF0C0000 		.4byte	0xcaf
 1846 0b98 02       		.byte	0x2
 1847 0b99 23       		.byte	0x23
 1848 0b9a 04       		.uleb128 0x4
 1849 0b9b 0B       		.uleb128 0xb
 1850 0b9c FF020000 		.4byte	.LASF164
 1851 0ba0 0B       		.byte	0xb
 1852 0ba1 63       		.byte	0x63
 1853 0ba2 3C0B0000 		.4byte	0xb3c
 1854 0ba6 02       		.byte	0x2
 1855 0ba7 23       		.byte	0x23
 1856 0ba8 08       		.uleb128 0x8
 1857 0ba9 0B       		.uleb128 0xb
 1858 0baa 37000000 		.4byte	.LASF165
 1859 0bae 0B       		.byte	0xb
 1860 0baf 64       		.byte	0x64
 1861 0bb0 7A0D0000 		.4byte	0xd7a
 1862 0bb4 02       		.byte	0x2
 1863 0bb5 23       		.byte	0x23
 1864 0bb6 0C       		.uleb128 0xc
 1865 0bb7 0B       		.uleb128 0xb
 1866 0bb8 75010000 		.4byte	.LASF166
 1867 0bbc 0B       		.byte	0xb
 1868 0bbd 66       		.byte	0x66
 1869 0bbe AF0C0000 		.4byte	0xcaf
 1870 0bc2 02       		.byte	0x2
 1871 0bc3 23       		.byte	0x23
ARM GAS  /var/folders/dt/0wfd0knj7gs46m8vwfzktm600000gn/T//ccWoQfLH.s 			page 34


 1872 0bc4 10       		.uleb128 0x10
 1873 0bc5 0B       		.uleb128 0xb
 1874 0bc6 AB060000 		.4byte	.LASF167
 1875 0bca 0B       		.byte	0xb
 1876 0bcb 67       		.byte	0x67
 1877 0bcc AF0C0000 		.4byte	0xcaf
 1878 0bd0 02       		.byte	0x2
 1879 0bd1 23       		.byte	0x23
 1880 0bd2 14       		.uleb128 0x14
 1881 0bd3 0B       		.uleb128 0xb
 1882 0bd4 27090000 		.4byte	.LASF168
 1883 0bd8 0B       		.byte	0xb
 1884 0bd9 6E       		.byte	0x6e
 1885 0bda 42060000 		.4byte	0x642
 1886 0bde 02       		.byte	0x2
 1887 0bdf 23       		.byte	0x23
 1888 0be0 18       		.uleb128 0x18
 1889 0be1 0B       		.uleb128 0xb
 1890 0be2 63090000 		.4byte	.LASF169
 1891 0be6 0B       		.byte	0xb
 1892 0be7 79       		.byte	0x79
 1893 0be8 260B0000 		.4byte	0xb26
 1894 0bec 02       		.byte	0x2
 1895 0bed 23       		.byte	0x23
 1896 0bee 1C       		.uleb128 0x1c
 1897 0bef 0B       		.uleb128 0xb
 1898 0bf0 1E010000 		.4byte	.LASF170
 1899 0bf4 0B       		.byte	0xb
 1900 0bf5 7D       		.byte	0x7d
 1901 0bf6 1B0B0000 		.4byte	0xb1b
 1902 0bfa 02       		.byte	0x2
 1903 0bfb 23       		.byte	0x23
 1904 0bfc 1D       		.uleb128 0x1d
 1905 0bfd 0B       		.uleb128 0xb
 1906 0bfe A5050000 		.4byte	.LASF171
 1907 0c02 0B       		.byte	0xb
 1908 0c03 82       		.byte	0x82
 1909 0c04 310B0000 		.4byte	0xb31
 1910 0c08 02       		.byte	0x2
 1911 0c09 23       		.byte	0x23
 1912 0c0a 1E       		.uleb128 0x1e
 1913 0c0b 0B       		.uleb128 0xb
 1914 0c0c 09060000 		.4byte	.LASF172
 1915 0c10 0B       		.byte	0xb
 1916 0c11 89       		.byte	0x89
 1917 0c12 9D0D0000 		.4byte	0xd9d
 1918 0c16 02       		.byte	0x2
 1919 0c17 23       		.byte	0x23
 1920 0c18 20       		.uleb128 0x20
 1921 0c19 0E       		.uleb128 0xe
 1922 0c1a 705F7500 		.ascii	"p_u\000"
 1923 0c1e 0B       		.byte	0xb
 1924 0c1f AE       		.byte	0xae
 1925 0c20 580E0000 		.4byte	0xe58
 1926 0c24 02       		.byte	0x2
 1927 0c25 23       		.byte	0x23
 1928 0c26 24       		.uleb128 0x24
ARM GAS  /var/folders/dt/0wfd0knj7gs46m8vwfzktm600000gn/T//ccWoQfLH.s 			page 35


 1929 0c27 0B       		.uleb128 0xb
 1930 0c28 5C050000 		.4byte	.LASF173
 1931 0c2c 0B       		.byte	0xb
 1932 0c2d B3       		.byte	0xb3
 1933 0c2e D70C0000 		.4byte	0xcd7
 1934 0c32 02       		.byte	0x2
 1935 0c33 23       		.byte	0x23
 1936 0c34 28       		.uleb128 0x28
 1937 0c35 0B       		.uleb128 0xb
 1938 0c36 55000000 		.4byte	.LASF174
 1939 0c3a 0B       		.byte	0xb
 1940 0c3b B9       		.byte	0xb9
 1941 0c3c B50C0000 		.4byte	0xcb5
 1942 0c40 02       		.byte	0x2
 1943 0c41 23       		.byte	0x23
 1944 0c42 2C       		.uleb128 0x2c
 1945 0c43 0B       		.uleb128 0xb
 1946 0c44 51090000 		.4byte	.LASF175
 1947 0c48 0B       		.byte	0xb
 1948 0c49 BD       		.byte	0xbd
 1949 0c4a 470B0000 		.4byte	0xb47
 1950 0c4e 02       		.byte	0x2
 1951 0c4f 23       		.byte	0x23
 1952 0c50 34       		.uleb128 0x34
 1953 0c51 0B       		.uleb128 0xb
 1954 0c52 A6030000 		.4byte	.LASF176
 1955 0c56 0B       		.byte	0xb
 1956 0c57 C3       		.byte	0xc3
 1957 0c58 520B0000 		.4byte	0xb52
 1958 0c5c 02       		.byte	0x2
 1959 0c5d 23       		.byte	0x23
 1960 0c5e 38       		.uleb128 0x38
 1961 0c5f 0B       		.uleb128 0xb
 1962 0c60 D2010000 		.4byte	.LASF177
 1963 0c64 0B       		.byte	0xb
 1964 0c65 CA       		.byte	0xca
 1965 0c66 8D0E0000 		.4byte	0xe8d
 1966 0c6a 02       		.byte	0x2
 1967 0c6b 23       		.byte	0x23
 1968 0c6c 3C       		.uleb128 0x3c
 1969 0c6d 0B       		.uleb128 0xb
 1970 0c6e 4B060000 		.4byte	.LASF178
 1971 0c72 0B       		.byte	0xb
 1972 0c73 CE       		.byte	0xce
 1973 0c74 3C0B0000 		.4byte	0xb3c
 1974 0c78 02       		.byte	0x2
 1975 0c79 23       		.byte	0x23
 1976 0c7a 40       		.uleb128 0x40
 1977 0c7b 0B       		.uleb128 0xb
 1978 0c7c 8F050000 		.4byte	.LASF179
 1979 0c80 0B       		.byte	0xb
 1980 0c81 D4       		.byte	0xd4
 1981 0c82 32010000 		.4byte	0x132
 1982 0c86 02       		.byte	0x2
 1983 0c87 23       		.byte	0x23
 1984 0c88 44       		.uleb128 0x44
 1985 0c89 00       		.byte	0
ARM GAS  /var/folders/dt/0wfd0knj7gs46m8vwfzktm600000gn/T//ccWoQfLH.s 			page 36


 1986 0c8a 0A       		.uleb128 0xa
 1987 0c8b 08       		.byte	0x8
 1988 0c8c 0A       		.byte	0xa
 1989 0c8d 61       		.byte	0x61
 1990 0c8e AF0C0000 		.4byte	0xcaf
 1991 0c92 0B       		.uleb128 0xb
 1992 0c93 94010000 		.4byte	.LASF162
 1993 0c97 0A       		.byte	0xa
 1994 0c98 62       		.byte	0x62
 1995 0c99 AF0C0000 		.4byte	0xcaf
 1996 0c9d 02       		.byte	0x2
 1997 0c9e 23       		.byte	0x23
 1998 0c9f 00       		.uleb128 0
 1999 0ca0 0B       		.uleb128 0xb
 2000 0ca1 B3010000 		.4byte	.LASF163
 2001 0ca5 0A       		.byte	0xa
 2002 0ca6 64       		.byte	0x64
 2003 0ca7 AF0C0000 		.4byte	0xcaf
 2004 0cab 02       		.byte	0x2
 2005 0cac 23       		.byte	0x23
 2006 0cad 04       		.uleb128 0x4
 2007 0cae 00       		.byte	0
 2008 0caf 0F       		.uleb128 0xf
 2009 0cb0 04       		.byte	0x4
 2010 0cb1 680B0000 		.4byte	0xb68
 2011 0cb5 02       		.uleb128 0x2
 2012 0cb6 8E080000 		.4byte	.LASF180
 2013 0cba 0A       		.byte	0xa
 2014 0cbb 66       		.byte	0x66
 2015 0cbc 8A0C0000 		.4byte	0xc8a
 2016 0cc0 0A       		.uleb128 0xa
 2017 0cc1 04       		.byte	0x4
 2018 0cc2 0A       		.byte	0xa
 2019 0cc3 6B       		.byte	0x6b
 2020 0cc4 D70C0000 		.4byte	0xcd7
 2021 0cc8 0B       		.uleb128 0xb
 2022 0cc9 94010000 		.4byte	.LASF162
 2023 0ccd 0A       		.byte	0xa
 2024 0cce 6D       		.byte	0x6d
 2025 0ccf AF0C0000 		.4byte	0xcaf
 2026 0cd3 02       		.byte	0x2
 2027 0cd4 23       		.byte	0x23
 2028 0cd5 00       		.uleb128 0
 2029 0cd6 00       		.byte	0
 2030 0cd7 02       		.uleb128 0x2
 2031 0cd8 DB020000 		.4byte	.LASF181
 2032 0cdc 0A       		.byte	0xa
 2033 0cdd 70       		.byte	0x70
 2034 0cde C00C0000 		.4byte	0xcc0
 2035 0ce2 02       		.uleb128 0x2
 2036 0ce3 E3010000 		.4byte	.LASF182
 2037 0ce7 0C       		.byte	0xc
 2038 0ce8 D7       		.byte	0xd7
 2039 0ce9 32010000 		.4byte	0x132
 2040 0ced 0D       		.uleb128 0xd
 2041 0cee 93030000 		.4byte	.LASF183
 2042 0cf2 24       		.byte	0x24
ARM GAS  /var/folders/dt/0wfd0knj7gs46m8vwfzktm600000gn/T//ccWoQfLH.s 			page 37


 2043 0cf3 0C       		.byte	0xc
 2044 0cf4 FE       		.byte	0xfe
 2045 0cf5 7A0D0000 		.4byte	0xd7a
 2046 0cf9 1C       		.uleb128 0x1c
 2047 0cfa 723400   		.ascii	"r4\000"
 2048 0cfd 0C       		.byte	0xc
 2049 0cfe 1101     		.2byte	0x111
 2050 0d00 E20C0000 		.4byte	0xce2
 2051 0d04 02       		.byte	0x2
 2052 0d05 23       		.byte	0x23
 2053 0d06 00       		.uleb128 0
 2054 0d07 1C       		.uleb128 0x1c
 2055 0d08 723500   		.ascii	"r5\000"
 2056 0d0b 0C       		.byte	0xc
 2057 0d0c 1201     		.2byte	0x112
 2058 0d0e E20C0000 		.4byte	0xce2
 2059 0d12 02       		.byte	0x2
 2060 0d13 23       		.byte	0x23
 2061 0d14 04       		.uleb128 0x4
 2062 0d15 1C       		.uleb128 0x1c
 2063 0d16 723600   		.ascii	"r6\000"
 2064 0d19 0C       		.byte	0xc
 2065 0d1a 1301     		.2byte	0x113
 2066 0d1c E20C0000 		.4byte	0xce2
 2067 0d20 02       		.byte	0x2
 2068 0d21 23       		.byte	0x23
 2069 0d22 08       		.uleb128 0x8
 2070 0d23 1C       		.uleb128 0x1c
 2071 0d24 723700   		.ascii	"r7\000"
 2072 0d27 0C       		.byte	0xc
 2073 0d28 1401     		.2byte	0x114
 2074 0d2a E20C0000 		.4byte	0xce2
 2075 0d2e 02       		.byte	0x2
 2076 0d2f 23       		.byte	0x23
 2077 0d30 0C       		.uleb128 0xc
 2078 0d31 1C       		.uleb128 0x1c
 2079 0d32 723800   		.ascii	"r8\000"
 2080 0d35 0C       		.byte	0xc
 2081 0d36 1501     		.2byte	0x115
 2082 0d38 E20C0000 		.4byte	0xce2
 2083 0d3c 02       		.byte	0x2
 2084 0d3d 23       		.byte	0x23
 2085 0d3e 10       		.uleb128 0x10
 2086 0d3f 1C       		.uleb128 0x1c
 2087 0d40 723900   		.ascii	"r9\000"
 2088 0d43 0C       		.byte	0xc
 2089 0d44 1601     		.2byte	0x116
 2090 0d46 E20C0000 		.4byte	0xce2
 2091 0d4a 02       		.byte	0x2
 2092 0d4b 23       		.byte	0x23
 2093 0d4c 14       		.uleb128 0x14
 2094 0d4d 1C       		.uleb128 0x1c
 2095 0d4e 72313000 		.ascii	"r10\000"
 2096 0d52 0C       		.byte	0xc
 2097 0d53 1701     		.2byte	0x117
 2098 0d55 E20C0000 		.4byte	0xce2
 2099 0d59 02       		.byte	0x2
ARM GAS  /var/folders/dt/0wfd0knj7gs46m8vwfzktm600000gn/T//ccWoQfLH.s 			page 38


 2100 0d5a 23       		.byte	0x23
 2101 0d5b 18       		.uleb128 0x18
 2102 0d5c 1C       		.uleb128 0x1c
 2103 0d5d 72313100 		.ascii	"r11\000"
 2104 0d61 0C       		.byte	0xc
 2105 0d62 1801     		.2byte	0x118
 2106 0d64 E20C0000 		.4byte	0xce2
 2107 0d68 02       		.byte	0x2
 2108 0d69 23       		.byte	0x23
 2109 0d6a 1C       		.uleb128 0x1c
 2110 0d6b 1C       		.uleb128 0x1c
 2111 0d6c 6C7200   		.ascii	"lr\000"
 2112 0d6f 0C       		.byte	0xc
 2113 0d70 1901     		.2byte	0x119
 2114 0d72 E20C0000 		.4byte	0xce2
 2115 0d76 02       		.byte	0x2
 2116 0d77 23       		.byte	0x23
 2117 0d78 20       		.uleb128 0x20
 2118 0d79 00       		.byte	0
 2119 0d7a 17       		.uleb128 0x17
 2120 0d7b 66020000 		.4byte	.LASF184
 2121 0d7f 04       		.byte	0x4
 2122 0d80 0C       		.byte	0xc
 2123 0d81 2301     		.2byte	0x123
 2124 0d83 970D0000 		.4byte	0xd97
 2125 0d87 1C       		.uleb128 0x1c
 2126 0d88 72313300 		.ascii	"r13\000"
 2127 0d8c 0C       		.byte	0xc
 2128 0d8d 2401     		.2byte	0x124
 2129 0d8f 970D0000 		.4byte	0xd97
 2130 0d93 02       		.byte	0x2
 2131 0d94 23       		.byte	0x23
 2132 0d95 00       		.uleb128 0
 2133 0d96 00       		.byte	0
 2134 0d97 0F       		.uleb128 0xf
 2135 0d98 04       		.byte	0x4
 2136 0d99 ED0C0000 		.4byte	0xced
 2137 0d9d 1D       		.uleb128 0x1d
 2138 0d9e 5D0B0000 		.4byte	0xb5d
 2139 0da2 0D       		.uleb128 0xd
 2140 0da3 D1040000 		.4byte	.LASF185
 2141 0da7 10       		.byte	0x10
 2142 0da8 0D       		.byte	0xd
 2143 0da9 2C       		.byte	0x2c
 2144 0daa D90D0000 		.4byte	0xdd9
 2145 0dae 0B       		.uleb128 0xb
 2146 0daf E5040000 		.4byte	.LASF186
 2147 0db3 0D       		.byte	0xd
 2148 0db4 2D       		.byte	0x2d
 2149 0db5 B50C0000 		.4byte	0xcb5
 2150 0db9 02       		.byte	0x2
 2151 0dba 23       		.byte	0x23
 2152 0dbb 00       		.uleb128 0
 2153 0dbc 0B       		.uleb128 0xb
 2154 0dbd 16010000 		.4byte	.LASF187
 2155 0dc1 0D       		.byte	0xd
 2156 0dc2 2F       		.byte	0x2f
ARM GAS  /var/folders/dt/0wfd0knj7gs46m8vwfzktm600000gn/T//ccWoQfLH.s 			page 39


 2157 0dc3 AF0C0000 		.4byte	0xcaf
 2158 0dc7 02       		.byte	0x2
 2159 0dc8 23       		.byte	0x23
 2160 0dc9 08       		.uleb128 0x8
 2161 0dca 0B       		.uleb128 0xb
 2162 0dcb 34090000 		.4byte	.LASF188
 2163 0dcf 0D       		.byte	0xd
 2164 0dd0 31       		.byte	0x31
 2165 0dd1 D90D0000 		.4byte	0xdd9
 2166 0dd5 02       		.byte	0x2
 2167 0dd6 23       		.byte	0x23
 2168 0dd7 0C       		.uleb128 0xc
 2169 0dd8 00       		.byte	0
 2170 0dd9 0F       		.uleb128 0xf
 2171 0dda 04       		.byte	0x4
 2172 0ddb A20D0000 		.4byte	0xda2
 2173 0ddf 02       		.uleb128 0x2
 2174 0de0 D1040000 		.4byte	.LASF185
 2175 0de4 0D       		.byte	0xd
 2176 0de5 33       		.byte	0x33
 2177 0de6 A20D0000 		.4byte	0xda2
 2178 0dea 02       		.uleb128 0x2
 2179 0deb 67080000 		.4byte	.LASF189
 2180 0def 0E       		.byte	0xe
 2181 0df0 29       		.byte	0x29
 2182 0df1 F50D0000 		.4byte	0xdf5
 2183 0df5 0D       		.uleb128 0xd
 2184 0df6 67080000 		.4byte	.LASF189
 2185 0dfa 0C       		.byte	0xc
 2186 0dfb 0E       		.byte	0xe
 2187 0dfc 2E       		.byte	0x2e
 2188 0dfd 2C0E0000 		.4byte	0xe2c
 2189 0e01 0B       		.uleb128 0xb
 2190 0e02 47040000 		.4byte	.LASF190
 2191 0e06 0E       		.byte	0xe
 2192 0e07 2F       		.byte	0x2f
 2193 0e08 2C0E0000 		.4byte	0xe2c
 2194 0e0c 02       		.byte	0x2
 2195 0e0d 23       		.byte	0x23
 2196 0e0e 00       		.uleb128 0
 2197 0e0f 0B       		.uleb128 0xb
 2198 0e10 57090000 		.4byte	.LASF191
 2199 0e14 0E       		.byte	0xe
 2200 0e15 32       		.byte	0x32
 2201 0e16 AF0C0000 		.4byte	0xcaf
 2202 0e1a 02       		.byte	0x2
 2203 0e1b 23       		.byte	0x23
 2204 0e1c 04       		.uleb128 0x4
 2205 0e1d 0B       		.uleb128 0xb
 2206 0e1e FD080000 		.4byte	.LASF192
 2207 0e22 0E       		.byte	0xe
 2208 0e23 34       		.byte	0x34
 2209 0e24 520B0000 		.4byte	0xb52
 2210 0e28 02       		.byte	0x2
 2211 0e29 23       		.byte	0x23
 2212 0e2a 08       		.uleb128 0x8
 2213 0e2b 00       		.byte	0
ARM GAS  /var/folders/dt/0wfd0knj7gs46m8vwfzktm600000gn/T//ccWoQfLH.s 			page 40


 2214 0e2c 0F       		.uleb128 0xf
 2215 0e2d 04       		.byte	0x4
 2216 0e2e EA0D0000 		.4byte	0xdea
 2217 0e32 0D       		.uleb128 0xd
 2218 0e33 E9030000 		.4byte	.LASF193
 2219 0e37 04       		.byte	0x4
 2220 0e38 0E       		.byte	0xe
 2221 0e39 3C       		.byte	0x3c
 2222 0e3a 4D0E0000 		.4byte	0xe4d
 2223 0e3e 0B       		.uleb128 0xb
 2224 0e3f D7030000 		.4byte	.LASF194
 2225 0e43 0E       		.byte	0xe
 2226 0e44 3D       		.byte	0x3d
 2227 0e45 2C0E0000 		.4byte	0xe2c
 2228 0e49 02       		.byte	0x2
 2229 0e4a 23       		.byte	0x23
 2230 0e4b 00       		.uleb128 0
 2231 0e4c 00       		.byte	0
 2232 0e4d 02       		.uleb128 0x2
 2233 0e4e E9030000 		.4byte	.LASF193
 2234 0e52 0E       		.byte	0xe
 2235 0e53 40       		.byte	0x40
 2236 0e54 320E0000 		.4byte	0xe32
 2237 0e58 06       		.uleb128 0x6
 2238 0e59 04       		.byte	0x4
 2239 0e5a 0B       		.byte	0xb
 2240 0e5b 90       		.byte	0x90
 2241 0e5c 8D0E0000 		.4byte	0xe8d
 2242 0e60 07       		.uleb128 0x7
 2243 0e61 B0080000 		.4byte	.LASF195
 2244 0e65 0B       		.byte	0xb
 2245 0e66 97       		.byte	0x97
 2246 0e67 470B0000 		.4byte	0xb47
 2247 0e6b 07       		.uleb128 0x7
 2248 0e6c 2C010000 		.4byte	.LASF196
 2249 0e70 0B       		.byte	0xb
 2250 0e71 9E       		.byte	0x9e
 2251 0e72 470B0000 		.4byte	0xb47
 2252 0e76 07       		.uleb128 0x7
 2253 0e77 13030000 		.4byte	.LASF197
 2254 0e7b 0B       		.byte	0xb
 2255 0e7c A5       		.byte	0xa5
 2256 0e7d 32010000 		.4byte	0x132
 2257 0e81 07       		.uleb128 0x7
 2258 0e82 26020000 		.4byte	.LASF198
 2259 0e86 0B       		.byte	0xb
 2260 0e87 AC       		.byte	0xac
 2261 0e88 520B0000 		.4byte	0xb52
 2262 0e8c 00       		.byte	0
 2263 0e8d 0F       		.uleb128 0xf
 2264 0e8e 04       		.byte	0x4
 2265 0e8f DF0D0000 		.4byte	0xddf
 2266 0e93 02       		.uleb128 0x2
 2267 0e94 06030000 		.4byte	.LASF199
 2268 0e98 0F       		.byte	0xf
 2269 0e99 37       		.byte	0x37
 2270 0e9a 9E0E0000 		.4byte	0xe9e
ARM GAS  /var/folders/dt/0wfd0knj7gs46m8vwfzktm600000gn/T//ccWoQfLH.s 			page 41


 2271 0e9e 0D       		.uleb128 0xd
 2272 0e9f 06030000 		.4byte	.LASF199
 2273 0ea3 20       		.byte	0x20
 2274 0ea4 0F       		.byte	0xf
 2275 0ea5 45       		.byte	0x45
 2276 0ea6 0D0F0000 		.4byte	0xf0d
 2277 0eaa 0B       		.uleb128 0xb
 2278 0eab A5070000 		.4byte	.LASF200
 2279 0eaf 0F       		.byte	0xf
 2280 0eb0 46       		.byte	0x46
 2281 0eb1 B50C0000 		.4byte	0xcb5
 2282 0eb5 02       		.byte	0x2
 2283 0eb6 23       		.byte	0x23
 2284 0eb7 00       		.uleb128 0
 2285 0eb8 0B       		.uleb128 0xb
 2286 0eb9 DF030000 		.4byte	.LASF201
 2287 0ebd 0F       		.byte	0xf
 2288 0ebe 47       		.byte	0x47
 2289 0ebf 29000000 		.4byte	0x29
 2290 0ec3 02       		.byte	0x2
 2291 0ec4 23       		.byte	0x23
 2292 0ec5 08       		.uleb128 0x8
 2293 0ec6 0B       		.uleb128 0xb
 2294 0ec7 63010000 		.4byte	.LASF202
 2295 0ecb 0F       		.byte	0xf
 2296 0ecc 48       		.byte	0x48
 2297 0ecd 300F0000 		.4byte	0xf30
 2298 0ed1 02       		.byte	0x2
 2299 0ed2 23       		.byte	0x23
 2300 0ed3 0C       		.uleb128 0xc
 2301 0ed4 0B       		.uleb128 0xb
 2302 0ed5 35010000 		.4byte	.LASF203
 2303 0ed9 0F       		.byte	0xf
 2304 0eda 49       		.byte	0x49
 2305 0edb 300F0000 		.4byte	0xf30
 2306 0edf 02       		.byte	0x2
 2307 0ee0 23       		.byte	0x23
 2308 0ee1 10       		.uleb128 0x10
 2309 0ee2 0B       		.uleb128 0xb
 2310 0ee3 56040000 		.4byte	.LASF204
 2311 0ee7 0F       		.byte	0xf
 2312 0ee8 4B       		.byte	0x4b
 2313 0ee9 300F0000 		.4byte	0xf30
 2314 0eed 02       		.byte	0x2
 2315 0eee 23       		.byte	0x23
 2316 0eef 14       		.uleb128 0x14
 2317 0ef0 0B       		.uleb128 0xb
 2318 0ef1 9B010000 		.4byte	.LASF205
 2319 0ef5 0F       		.byte	0xf
 2320 0ef6 4C       		.byte	0x4c
 2321 0ef7 300F0000 		.4byte	0xf30
 2322 0efb 02       		.byte	0x2
 2323 0efc 23       		.byte	0x23
 2324 0efd 18       		.uleb128 0x18
 2325 0efe 0B       		.uleb128 0xb
 2326 0eff 6C010000 		.4byte	.LASF206
 2327 0f03 0F       		.byte	0xf
ARM GAS  /var/folders/dt/0wfd0knj7gs46m8vwfzktm600000gn/T//ccWoQfLH.s 			page 42


 2328 0f04 4D       		.byte	0x4d
 2329 0f05 0D0F0000 		.4byte	0xf0d
 2330 0f09 02       		.byte	0x2
 2331 0f0a 23       		.byte	0x23
 2332 0f0b 1C       		.uleb128 0x1c
 2333 0f0c 00       		.byte	0
 2334 0f0d 02       		.uleb128 0x2
 2335 0f0e 52050000 		.4byte	.LASF207
 2336 0f12 0F       		.byte	0xf
 2337 0f13 3A       		.byte	0x3a
 2338 0f14 180F0000 		.4byte	0xf18
 2339 0f18 0F       		.uleb128 0xf
 2340 0f19 04       		.byte	0x4
 2341 0f1a 1E0F0000 		.4byte	0xf1e
 2342 0f1e 1B       		.uleb128 0x1b
 2343 0f1f 01       		.byte	0x1
 2344 0f20 2A0F0000 		.4byte	0xf2a
 2345 0f24 13       		.uleb128 0x13
 2346 0f25 2A0F0000 		.4byte	0xf2a
 2347 0f29 00       		.byte	0
 2348 0f2a 0F       		.uleb128 0xf
 2349 0f2b 04       		.byte	0x4
 2350 0f2c 930E0000 		.4byte	0xe93
 2351 0f30 0F       		.uleb128 0xf
 2352 0f31 04       		.byte	0x4
 2353 0f32 D90A0000 		.4byte	0xad9
 2354 0f36 02       		.uleb128 0x2
 2355 0f37 D9080000 		.4byte	.LASF208
 2356 0f3b 0F       		.byte	0xf
 2357 0f3c 76       		.byte	0x76
 2358 0f3d 930E0000 		.4byte	0xe93
 2359 0f41 02       		.uleb128 0x2
 2360 0f42 3F030000 		.4byte	.LASF209
 2361 0f46 0F       		.byte	0xf
 2362 0f47 E6       		.byte	0xe6
 2363 0f48 930E0000 		.4byte	0xe93
 2364 0f4c 12       		.uleb128 0x12
 2365 0f4d 01       		.byte	0x1
 2366 0f4e 29000000 		.4byte	0x29
 2367 0f52 660F0000 		.4byte	0xf66
 2368 0f56 13       		.uleb128 0x13
 2369 0f57 32010000 		.4byte	0x132
 2370 0f5b 13       		.uleb128 0x13
 2371 0f5c 660F0000 		.4byte	0xf66
 2372 0f60 13       		.uleb128 0x13
 2373 0f61 29000000 		.4byte	0x29
 2374 0f65 00       		.byte	0
 2375 0f66 0F       		.uleb128 0xf
 2376 0f67 04       		.byte	0x4
 2377 0f68 6C0F0000 		.4byte	0xf6c
 2378 0f6c 16       		.uleb128 0x16
 2379 0f6d D90A0000 		.4byte	0xad9
 2380 0f71 0F       		.uleb128 0xf
 2381 0f72 04       		.byte	0x4
 2382 0f73 4C0F0000 		.4byte	0xf4c
 2383 0f77 12       		.uleb128 0x12
 2384 0f78 01       		.byte	0x1
ARM GAS  /var/folders/dt/0wfd0knj7gs46m8vwfzktm600000gn/T//ccWoQfLH.s 			page 43


 2385 0f79 29000000 		.4byte	0x29
 2386 0f7d 910F0000 		.4byte	0xf91
 2387 0f81 13       		.uleb128 0x13
 2388 0f82 32010000 		.4byte	0x132
 2389 0f86 13       		.uleb128 0x13
 2390 0f87 300F0000 		.4byte	0xf30
 2391 0f8b 13       		.uleb128 0x13
 2392 0f8c 29000000 		.4byte	0x29
 2393 0f90 00       		.byte	0
 2394 0f91 0F       		.uleb128 0xf
 2395 0f92 04       		.byte	0x4
 2396 0f93 770F0000 		.4byte	0xf77
 2397 0f97 12       		.uleb128 0x12
 2398 0f98 01       		.byte	0x1
 2399 0f99 100B0000 		.4byte	0xb10
 2400 0f9d A70F0000 		.4byte	0xfa7
 2401 0fa1 13       		.uleb128 0x13
 2402 0fa2 32010000 		.4byte	0x132
 2403 0fa6 00       		.byte	0
 2404 0fa7 0F       		.uleb128 0xf
 2405 0fa8 04       		.byte	0x4
 2406 0fa9 970F0000 		.4byte	0xf97
 2407 0fad 12       		.uleb128 0x12
 2408 0fae 01       		.byte	0x1
 2409 0faf 470B0000 		.4byte	0xb47
 2410 0fb3 C70F0000 		.4byte	0xfc7
 2411 0fb7 13       		.uleb128 0x13
 2412 0fb8 32010000 		.4byte	0x132
 2413 0fbc 13       		.uleb128 0x13
 2414 0fbd D90A0000 		.4byte	0xad9
 2415 0fc1 13       		.uleb128 0x13
 2416 0fc2 5D0B0000 		.4byte	0xb5d
 2417 0fc6 00       		.byte	0
 2418 0fc7 0F       		.uleb128 0xf
 2419 0fc8 04       		.byte	0x4
 2420 0fc9 AD0F0000 		.4byte	0xfad
 2421 0fcd 12       		.uleb128 0x12
 2422 0fce 01       		.byte	0x1
 2423 0fcf 470B0000 		.4byte	0xb47
 2424 0fd3 E20F0000 		.4byte	0xfe2
 2425 0fd7 13       		.uleb128 0x13
 2426 0fd8 32010000 		.4byte	0x132
 2427 0fdc 13       		.uleb128 0x13
 2428 0fdd 5D0B0000 		.4byte	0xb5d
 2429 0fe1 00       		.byte	0
 2430 0fe2 0F       		.uleb128 0xf
 2431 0fe3 04       		.byte	0x4
 2432 0fe4 CD0F0000 		.4byte	0xfcd
 2433 0fe8 12       		.uleb128 0x12
 2434 0fe9 01       		.byte	0x1
 2435 0fea 29000000 		.4byte	0x29
 2436 0fee 07100000 		.4byte	0x1007
 2437 0ff2 13       		.uleb128 0x13
 2438 0ff3 32010000 		.4byte	0x132
 2439 0ff7 13       		.uleb128 0x13
 2440 0ff8 660F0000 		.4byte	0xf66
 2441 0ffc 13       		.uleb128 0x13
ARM GAS  /var/folders/dt/0wfd0knj7gs46m8vwfzktm600000gn/T//ccWoQfLH.s 			page 44


 2442 0ffd 29000000 		.4byte	0x29
 2443 1001 13       		.uleb128 0x13
 2444 1002 5D0B0000 		.4byte	0xb5d
 2445 1006 00       		.byte	0
 2446 1007 0F       		.uleb128 0xf
 2447 1008 04       		.byte	0x4
 2448 1009 E80F0000 		.4byte	0xfe8
 2449 100d 12       		.uleb128 0x12
 2450 100e 01       		.byte	0x1
 2451 100f 29000000 		.4byte	0x29
 2452 1013 2C100000 		.4byte	0x102c
 2453 1017 13       		.uleb128 0x13
 2454 1018 32010000 		.4byte	0x132
 2455 101c 13       		.uleb128 0x13
 2456 101d 300F0000 		.4byte	0xf30
 2457 1021 13       		.uleb128 0x13
 2458 1022 29000000 		.4byte	0x29
 2459 1026 13       		.uleb128 0x13
 2460 1027 5D0B0000 		.4byte	0xb5d
 2461 102b 00       		.byte	0
 2462 102c 0F       		.uleb128 0xf
 2463 102d 04       		.byte	0x4
 2464 102e 0D100000 		.4byte	0x100d
 2465 1032 05       		.uleb128 0x5
 2466 1033 AF070000 		.4byte	.LASF210
 2467 1037 10       		.byte	0x10
 2468 1038 0B01     		.2byte	0x10b
 2469 103a 050B0000 		.4byte	0xb05
 2470 103e 12       		.uleb128 0x12
 2471 103f 01       		.byte	0x1
 2472 1040 32100000 		.4byte	0x1032
 2473 1044 4E100000 		.4byte	0x104e
 2474 1048 13       		.uleb128 0x13
 2475 1049 32010000 		.4byte	0x132
 2476 104d 00       		.byte	0
 2477 104e 0F       		.uleb128 0xf
 2478 104f 04       		.byte	0x4
 2479 1050 3E100000 		.4byte	0x103e
 2480 1054 1D       		.uleb128 0x1d
 2481 1055 E40A0000 		.4byte	0xae4
 2482 1059 1D       		.uleb128 0x1d
 2483 105a EF0A0000 		.4byte	0xaef
 2484 105e 18       		.uleb128 0x18
 2485 105f 1C       		.byte	0x1c
 2486 1060 11       		.byte	0x11
 2487 1061 E104     		.2byte	0x4e1
 2488 1063 38110000 		.4byte	0x1138
 2489 1067 1C       		.uleb128 0x1c
 2490 1068 535200   		.ascii	"SR\000"
 2491 106b 11       		.byte	0x11
 2492 106c E304     		.2byte	0x4e3
 2493 106e 54100000 		.4byte	0x1054
 2494 1072 02       		.byte	0x2
 2495 1073 23       		.byte	0x23
 2496 1074 00       		.uleb128 0
 2497 1075 15       		.uleb128 0x15
 2498 1076 6E020000 		.4byte	.LASF211
ARM GAS  /var/folders/dt/0wfd0knj7gs46m8vwfzktm600000gn/T//ccWoQfLH.s 			page 45


 2499 107a 11       		.byte	0x11
 2500 107b E404     		.2byte	0x4e4
 2501 107d E40A0000 		.4byte	0xae4
 2502 1081 02       		.byte	0x2
 2503 1082 23       		.byte	0x23
 2504 1083 02       		.uleb128 0x2
 2505 1084 1C       		.uleb128 0x1c
 2506 1085 445200   		.ascii	"DR\000"
 2507 1088 11       		.byte	0x11
 2508 1089 E504     		.2byte	0x4e5
 2509 108b 54100000 		.4byte	0x1054
 2510 108f 02       		.byte	0x2
 2511 1090 23       		.byte	0x23
 2512 1091 04       		.uleb128 0x4
 2513 1092 15       		.uleb128 0x15
 2514 1093 78020000 		.4byte	.LASF212
 2515 1097 11       		.byte	0x11
 2516 1098 E604     		.2byte	0x4e6
 2517 109a E40A0000 		.4byte	0xae4
 2518 109e 02       		.byte	0x2
 2519 109f 23       		.byte	0x23
 2520 10a0 06       		.uleb128 0x6
 2521 10a1 1C       		.uleb128 0x1c
 2522 10a2 42525200 		.ascii	"BRR\000"
 2523 10a6 11       		.byte	0x11
 2524 10a7 E704     		.2byte	0x4e7
 2525 10a9 54100000 		.4byte	0x1054
 2526 10ad 02       		.byte	0x2
 2527 10ae 23       		.byte	0x23
 2528 10af 08       		.uleb128 0x8
 2529 10b0 15       		.uleb128 0x15
 2530 10b1 D1020000 		.4byte	.LASF213
 2531 10b5 11       		.byte	0x11
 2532 10b6 E804     		.2byte	0x4e8
 2533 10b8 E40A0000 		.4byte	0xae4
 2534 10bc 02       		.byte	0x2
 2535 10bd 23       		.byte	0x23
 2536 10be 0A       		.uleb128 0xa
 2537 10bf 1C       		.uleb128 0x1c
 2538 10c0 43523100 		.ascii	"CR1\000"
 2539 10c4 11       		.byte	0x11
 2540 10c5 E904     		.2byte	0x4e9
 2541 10c7 54100000 		.4byte	0x1054
 2542 10cb 02       		.byte	0x2
 2543 10cc 23       		.byte	0x23
 2544 10cd 0C       		.uleb128 0xc
 2545 10ce 15       		.uleb128 0x15
 2546 10cf 90020000 		.4byte	.LASF214
 2547 10d3 11       		.byte	0x11
 2548 10d4 EA04     		.2byte	0x4ea
 2549 10d6 E40A0000 		.4byte	0xae4
 2550 10da 02       		.byte	0x2
 2551 10db 23       		.byte	0x23
 2552 10dc 0E       		.uleb128 0xe
 2553 10dd 1C       		.uleb128 0x1c
 2554 10de 43523200 		.ascii	"CR2\000"
 2555 10e2 11       		.byte	0x11
ARM GAS  /var/folders/dt/0wfd0knj7gs46m8vwfzktm600000gn/T//ccWoQfLH.s 			page 46


 2556 10e3 EB04     		.2byte	0x4eb
 2557 10e5 54100000 		.4byte	0x1054
 2558 10e9 02       		.byte	0x2
 2559 10ea 23       		.byte	0x23
 2560 10eb 10       		.uleb128 0x10
 2561 10ec 15       		.uleb128 0x15
 2562 10ed 9A020000 		.4byte	.LASF215
 2563 10f1 11       		.byte	0x11
 2564 10f2 EC04     		.2byte	0x4ec
 2565 10f4 E40A0000 		.4byte	0xae4
 2566 10f8 02       		.byte	0x2
 2567 10f9 23       		.byte	0x23
 2568 10fa 12       		.uleb128 0x12
 2569 10fb 1C       		.uleb128 0x1c
 2570 10fc 43523300 		.ascii	"CR3\000"
 2571 1100 11       		.byte	0x11
 2572 1101 ED04     		.2byte	0x4ed
 2573 1103 54100000 		.4byte	0x1054
 2574 1107 02       		.byte	0x2
 2575 1108 23       		.byte	0x23
 2576 1109 14       		.uleb128 0x14
 2577 110a 15       		.uleb128 0x15
 2578 110b A4020000 		.4byte	.LASF216
 2579 110f 11       		.byte	0x11
 2580 1110 EE04     		.2byte	0x4ee
 2581 1112 E40A0000 		.4byte	0xae4
 2582 1116 02       		.byte	0x2
 2583 1117 23       		.byte	0x23
 2584 1118 16       		.uleb128 0x16
 2585 1119 15       		.uleb128 0x15
 2586 111a 05050000 		.4byte	.LASF217
 2587 111e 11       		.byte	0x11
 2588 111f EF04     		.2byte	0x4ef
 2589 1121 54100000 		.4byte	0x1054
 2590 1125 02       		.byte	0x2
 2591 1126 23       		.byte	0x23
 2592 1127 18       		.uleb128 0x18
 2593 1128 15       		.uleb128 0x15
 2594 1129 AE020000 		.4byte	.LASF218
 2595 112d 11       		.byte	0x11
 2596 112e F004     		.2byte	0x4f0
 2597 1130 E40A0000 		.4byte	0xae4
 2598 1134 02       		.byte	0x2
 2599 1135 23       		.byte	0x23
 2600 1136 1A       		.uleb128 0x1a
 2601 1137 00       		.byte	0
 2602 1138 05       		.uleb128 0x5
 2603 1139 31030000 		.4byte	.LASF219
 2604 113d 11       		.byte	0x11
 2605 113e F104     		.2byte	0x4f1
 2606 1140 5E100000 		.4byte	0x105e
 2607 1144 1E       		.uleb128 0x1e
 2608 1145 01       		.byte	0x1
 2609 1146 12       		.byte	0x12
 2610 1147 64       		.byte	0x64
 2611 1148 5F110000 		.4byte	0x115f
 2612 114c 1F       		.uleb128 0x1f
ARM GAS  /var/folders/dt/0wfd0knj7gs46m8vwfzktm600000gn/T//ccWoQfLH.s 			page 47


 2613 114d C7020000 		.4byte	.LASF220
 2614 1151 00       		.sleb128 0
 2615 1152 1F       		.uleb128 0x1f
 2616 1153 F5080000 		.4byte	.LASF221
 2617 1157 01       		.sleb128 1
 2618 1158 1F       		.uleb128 0x1f
 2619 1159 D4070000 		.4byte	.LASF222
 2620 115d 02       		.sleb128 2
 2621 115e 00       		.byte	0
 2622 115f 02       		.uleb128 0x2
 2623 1160 C1070000 		.4byte	.LASF223
 2624 1164 12       		.byte	0x12
 2625 1165 68       		.byte	0x68
 2626 1166 44110000 		.4byte	0x1144
 2627 116a 02       		.uleb128 0x2
 2628 116b 8C070000 		.4byte	.LASF224
 2629 116f 12       		.byte	0x12
 2630 1170 6D       		.byte	0x6d
 2631 1171 75110000 		.4byte	0x1175
 2632 1175 0D       		.uleb128 0xd
 2633 1176 8C070000 		.4byte	.LASF224
 2634 117a 74       		.byte	0x74
 2635 117b 12       		.byte	0x12
 2636 117c 87       		.byte	0x87
 2637 117d FE110000 		.4byte	0x11fe
 2638 1181 0E       		.uleb128 0xe
 2639 1182 766D7400 		.ascii	"vmt\000"
 2640 1186 12       		.byte	0x12
 2641 1187 89       		.byte	0x89
 2642 1188 89120000 		.4byte	0x1289
 2643 118c 02       		.byte	0x2
 2644 118d 23       		.byte	0x23
 2645 118e 00       		.uleb128 0
 2646 118f 0B       		.uleb128 0xb
 2647 1190 66050000 		.4byte	.LASF225
 2648 1194 12       		.byte	0x12
 2649 1195 8A       		.byte	0x8a
 2650 1196 4D0E0000 		.4byte	0xe4d
 2651 119a 02       		.byte	0x2
 2652 119b 23       		.byte	0x23
 2653 119c 04       		.uleb128 0x4
 2654 119d 0B       		.uleb128 0xb
 2655 119e 21030000 		.4byte	.LASF226
 2656 11a2 12       		.byte	0x12
 2657 11a3 8A       		.byte	0x8a
 2658 11a4 32100000 		.4byte	0x1032
 2659 11a8 02       		.byte	0x2
 2660 11a9 23       		.byte	0x23
 2661 11aa 08       		.uleb128 0x8
 2662 11ab 0B       		.uleb128 0xb
 2663 11ac F8000000 		.4byte	.LASF227
 2664 11b0 12       		.byte	0x12
 2665 11b1 8A       		.byte	0x8a
 2666 11b2 5F110000 		.4byte	0x115f
 2667 11b6 02       		.byte	0x2
 2668 11b7 23       		.byte	0x23
 2669 11b8 0C       		.uleb128 0xc
ARM GAS  /var/folders/dt/0wfd0knj7gs46m8vwfzktm600000gn/T//ccWoQfLH.s 			page 48


 2670 11b9 0B       		.uleb128 0xb
 2671 11ba F4070000 		.4byte	.LASF228
 2672 11be 12       		.byte	0x12
 2673 11bf 8A       		.byte	0x8a
 2674 11c0 360F0000 		.4byte	0xf36
 2675 11c4 02       		.byte	0x2
 2676 11c5 23       		.byte	0x23
 2677 11c6 10       		.uleb128 0x10
 2678 11c7 0B       		.uleb128 0xb
 2679 11c8 DC010000 		.4byte	.LASF229
 2680 11cc 12       		.byte	0x12
 2681 11cd 8A       		.byte	0x8a
 2682 11ce 410F0000 		.4byte	0xf41
 2683 11d2 02       		.byte	0x2
 2684 11d3 23       		.byte	0x23
 2685 11d4 30       		.uleb128 0x30
 2686 11d5 0E       		.uleb128 0xe
 2687 11d6 696200   		.ascii	"ib\000"
 2688 11d9 12       		.byte	0x12
 2689 11da 8A       		.byte	0x8a
 2690 11db 94120000 		.4byte	0x1294
 2691 11df 02       		.byte	0x2
 2692 11e0 23       		.byte	0x23
 2693 11e1 50       		.uleb128 0x50
 2694 11e2 0E       		.uleb128 0xe
 2695 11e3 6F6200   		.ascii	"ob\000"
 2696 11e6 12       		.byte	0x12
 2697 11e7 8A       		.byte	0x8a
 2698 11e8 94120000 		.4byte	0x1294
 2699 11ec 02       		.byte	0x2
 2700 11ed 23       		.byte	0x23
 2701 11ee 60       		.uleb128 0x60
 2702 11ef 0B       		.uleb128 0xb
 2703 11f0 07020000 		.4byte	.LASF230
 2704 11f4 12       		.byte	0x12
 2705 11f5 8A       		.byte	0x8a
 2706 11f6 A4120000 		.4byte	0x12a4
 2707 11fa 02       		.byte	0x2
 2708 11fb 23       		.byte	0x23
 2709 11fc 70       		.uleb128 0x70
 2710 11fd 00       		.byte	0
 2711 11fe 0D       		.uleb128 0xd
 2712 11ff 74040000 		.4byte	.LASF231
 2713 1203 24       		.byte	0x24
 2714 1204 12       		.byte	0x12
 2715 1205 7C       		.byte	0x7c
 2716 1206 89120000 		.4byte	0x1289
 2717 120a 0B       		.uleb128 0xb
 2718 120b 84040000 		.4byte	.LASF232
 2719 120f 12       		.byte	0x12
 2720 1210 7D       		.byte	0x7d
 2721 1211 710F0000 		.4byte	0xf71
 2722 1215 02       		.byte	0x2
 2723 1216 23       		.byte	0x23
 2724 1217 00       		.uleb128 0
 2725 1218 0B       		.uleb128 0xb
 2726 1219 6C050000 		.4byte	.LASF233
ARM GAS  /var/folders/dt/0wfd0knj7gs46m8vwfzktm600000gn/T//ccWoQfLH.s 			page 49


 2727 121d 12       		.byte	0x12
 2728 121e 7D       		.byte	0x7d
 2729 121f 910F0000 		.4byte	0xf91
 2730 1223 02       		.byte	0x2
 2731 1224 23       		.byte	0x23
 2732 1225 04       		.uleb128 0x4
 2733 1226 0B       		.uleb128 0xb
 2734 1227 53030000 		.4byte	.LASF234
 2735 122b 12       		.byte	0x12
 2736 122c 7D       		.byte	0x7d
 2737 122d A70F0000 		.4byte	0xfa7
 2738 1231 02       		.byte	0x2
 2739 1232 23       		.byte	0x23
 2740 1233 08       		.uleb128 0x8
 2741 1234 0B       		.uleb128 0xb
 2742 1235 56060000 		.4byte	.LASF235
 2743 1239 12       		.byte	0x12
 2744 123a 7D       		.byte	0x7d
 2745 123b A70F0000 		.4byte	0xfa7
 2746 123f 02       		.byte	0x2
 2747 1240 23       		.byte	0x23
 2748 1241 0C       		.uleb128 0xc
 2749 1242 0E       		.uleb128 0xe
 2750 1243 70757400 		.ascii	"put\000"
 2751 1247 12       		.byte	0x12
 2752 1248 7D       		.byte	0x7d
 2753 1249 C70F0000 		.4byte	0xfc7
 2754 124d 02       		.byte	0x2
 2755 124e 23       		.byte	0x23
 2756 124f 10       		.uleb128 0x10
 2757 1250 0E       		.uleb128 0xe
 2758 1251 67657400 		.ascii	"get\000"
 2759 1255 12       		.byte	0x12
 2760 1256 7D       		.byte	0x7d
 2761 1257 E20F0000 		.4byte	0xfe2
 2762 125b 02       		.byte	0x2
 2763 125c 23       		.byte	0x23
 2764 125d 14       		.uleb128 0x14
 2765 125e 0B       		.uleb128 0xb
 2766 125f 6F000000 		.4byte	.LASF236
 2767 1263 12       		.byte	0x12
 2768 1264 7D       		.byte	0x7d
 2769 1265 07100000 		.4byte	0x1007
 2770 1269 02       		.byte	0x2
 2771 126a 23       		.byte	0x23
 2772 126b 18       		.uleb128 0x18
 2773 126c 0B       		.uleb128 0xb
 2774 126d 5D010000 		.4byte	.LASF237
 2775 1271 12       		.byte	0x12
 2776 1272 7D       		.byte	0x7d
 2777 1273 2C100000 		.4byte	0x102c
 2778 1277 02       		.byte	0x2
 2779 1278 23       		.byte	0x23
 2780 1279 1C       		.uleb128 0x1c
 2781 127a 0B       		.uleb128 0xb
 2782 127b 25080000 		.4byte	.LASF238
 2783 127f 12       		.byte	0x12
ARM GAS  /var/folders/dt/0wfd0knj7gs46m8vwfzktm600000gn/T//ccWoQfLH.s 			page 50


 2784 1280 7D       		.byte	0x7d
 2785 1281 4E100000 		.4byte	0x104e
 2786 1285 02       		.byte	0x2
 2787 1286 23       		.byte	0x23
 2788 1287 20       		.uleb128 0x20
 2789 1288 00       		.byte	0
 2790 1289 0F       		.uleb128 0xf
 2791 128a 04       		.byte	0x4
 2792 128b 8F120000 		.4byte	0x128f
 2793 128f 16       		.uleb128 0x16
 2794 1290 FE110000 		.4byte	0x11fe
 2795 1294 08       		.uleb128 0x8
 2796 1295 D90A0000 		.4byte	0xad9
 2797 1299 A4120000 		.4byte	0x12a4
 2798 129d 09       		.uleb128 0x9
 2799 129e F0000000 		.4byte	0xf0
 2800 12a2 0F       		.byte	0xf
 2801 12a3 00       		.byte	0
 2802 12a4 0F       		.uleb128 0xf
 2803 12a5 04       		.byte	0x4
 2804 12a6 38110000 		.4byte	0x1138
 2805 12aa 20       		.uleb128 0x20
 2806 12ab 01       		.byte	0x1
 2807 12ac 05090000 		.4byte	.LASF240
 2808 12b0 01       		.byte	0x1
 2809 12b1 51       		.byte	0x51
 2810 12b2 01       		.byte	0x1
 2811 12b3 57000000 		.4byte	0x57
 2812 12b7 00000000 		.4byte	.LFB62
 2813 12bb 34000000 		.4byte	.LFE62
 2814 12bf 00000000 		.4byte	.LLST0
 2815 12c3 01       		.byte	0x1
 2816 12c4 22130000 		.4byte	0x1322
 2817 12c8 21       		.uleb128 0x21
 2818 12c9 7200     		.ascii	"r\000"
 2819 12cb 01       		.byte	0x1
 2820 12cc 51       		.byte	0x51
 2821 12cd AC040000 		.4byte	0x4ac
 2822 12d1 20000000 		.4byte	.LLST1
 2823 12d5 22       		.uleb128 0x22
 2824 12d6 6A030000 		.4byte	.LASF239
 2825 12da 01       		.byte	0x1
 2826 12db 51       		.byte	0x51
 2827 12dc 57000000 		.4byte	0x57
 2828 12e0 5A000000 		.4byte	.LLST2
 2829 12e4 21       		.uleb128 0x21
 2830 12e5 70747200 		.ascii	"ptr\000"
 2831 12e9 01       		.byte	0x1
 2832 12ea 51       		.byte	0x51
 2833 12eb 10060000 		.4byte	0x610
 2834 12ef 7B000000 		.4byte	.LLST3
 2835 12f3 21       		.uleb128 0x21
 2836 12f4 6C656E00 		.ascii	"len\000"
 2837 12f8 01       		.byte	0x1
 2838 12f9 51       		.byte	0x51
 2839 12fa 57000000 		.4byte	0x57
 2840 12fe B2000000 		.4byte	.LLST4
ARM GAS  /var/folders/dt/0wfd0knj7gs46m8vwfzktm600000gn/T//ccWoQfLH.s 			page 51


 2841 1302 23       		.uleb128 0x23
 2842 1303 24000000 		.4byte	.LVL5
 2843 1307 01       		.byte	0x1
 2844 1308 37150000 		.4byte	0x1537
 2845 130c 24       		.uleb128 0x24
 2846 130d 01       		.byte	0x1
 2847 130e 53       		.byte	0x53
 2848 130f 02       		.byte	0x2
 2849 1310 09       		.byte	0x9
 2850 1311 FF       		.byte	0xff
 2851 1312 24       		.uleb128 0x24
 2852 1313 01       		.byte	0x1
 2853 1314 52       		.byte	0x52
 2854 1315 03       		.byte	0x3
 2855 1316 F3       		.byte	0xf3
 2856 1317 01       		.uleb128 0x1
 2857 1318 53       		.byte	0x53
 2858 1319 24       		.uleb128 0x24
 2859 131a 01       		.byte	0x1
 2860 131b 51       		.byte	0x51
 2861 131c 03       		.byte	0x3
 2862 131d F3       		.byte	0xf3
 2863 131e 01       		.uleb128 0x1
 2864 131f 52       		.byte	0x52
 2865 1320 00       		.byte	0
 2866 1321 00       		.byte	0
 2867 1322 25       		.uleb128 0x25
 2868 1323 01       		.byte	0x1
 2869 1324 3F080000 		.4byte	.LASF241
 2870 1328 01       		.byte	0x1
 2871 1329 66       		.byte	0x66
 2872 132a 01       		.byte	0x1
 2873 132b 57000000 		.4byte	0x57
 2874 132f 00000000 		.4byte	.LFB63
 2875 1333 04000000 		.4byte	.LFE63
 2876 1337 02       		.byte	0x2
 2877 1338 7D       		.byte	0x7d
 2878 1339 00       		.sleb128 0
 2879 133a 01       		.byte	0x1
 2880 133b 74130000 		.4byte	0x1374
 2881 133f 21       		.uleb128 0x21
 2882 1340 7200     		.ascii	"r\000"
 2883 1342 01       		.byte	0x1
 2884 1343 66       		.byte	0x66
 2885 1344 AC040000 		.4byte	0x4ac
 2886 1348 F7000000 		.4byte	.LLST5
 2887 134c 26       		.uleb128 0x26
 2888 134d 6A030000 		.4byte	.LASF239
 2889 1351 01       		.byte	0x1
 2890 1352 66       		.byte	0x66
 2891 1353 57000000 		.4byte	0x57
 2892 1357 01       		.byte	0x1
 2893 1358 51       		.byte	0x51
 2894 1359 27       		.uleb128 0x27
 2895 135a 70747200 		.ascii	"ptr\000"
 2896 135e 01       		.byte	0x1
 2897 135f 66       		.byte	0x66
ARM GAS  /var/folders/dt/0wfd0knj7gs46m8vwfzktm600000gn/T//ccWoQfLH.s 			page 52


 2898 1360 57000000 		.4byte	0x57
 2899 1364 01       		.byte	0x1
 2900 1365 52       		.byte	0x52
 2901 1366 27       		.uleb128 0x27
 2902 1367 64697200 		.ascii	"dir\000"
 2903 136b 01       		.byte	0x1
 2904 136c 66       		.byte	0x66
 2905 136d 57000000 		.4byte	0x57
 2906 1371 01       		.byte	0x1
 2907 1372 53       		.byte	0x53
 2908 1373 00       		.byte	0
 2909 1374 20       		.uleb128 0x20
 2910 1375 01       		.byte	0x1
 2911 1376 7E050000 		.4byte	.LASF242
 2912 137a 01       		.byte	0x1
 2913 137b 72       		.byte	0x72
 2914 137c 01       		.byte	0x1
 2915 137d 57000000 		.4byte	0x57
 2916 1381 00000000 		.4byte	.LFB64
 2917 1385 2C000000 		.4byte	.LFE64
 2918 1389 18010000 		.4byte	.LLST6
 2919 138d 01       		.byte	0x1
 2920 138e EA130000 		.4byte	0x13ea
 2921 1392 21       		.uleb128 0x21
 2922 1393 7200     		.ascii	"r\000"
 2923 1395 01       		.byte	0x1
 2924 1396 72       		.byte	0x72
 2925 1397 AC040000 		.4byte	0x4ac
 2926 139b 38010000 		.4byte	.LLST7
 2927 139f 22       		.uleb128 0x22
 2928 13a0 6A030000 		.4byte	.LASF239
 2929 13a4 01       		.byte	0x1
 2930 13a5 72       		.byte	0x72
 2931 13a6 57000000 		.4byte	0x57
 2932 13aa 72010000 		.4byte	.LLST8
 2933 13ae 21       		.uleb128 0x21
 2934 13af 70747200 		.ascii	"ptr\000"
 2935 13b3 01       		.byte	0x1
 2936 13b4 72       		.byte	0x72
 2937 13b5 10060000 		.4byte	0x610
 2938 13b9 9E010000 		.4byte	.LLST9
 2939 13bd 21       		.uleb128 0x21
 2940 13be 6C656E00 		.ascii	"len\000"
 2941 13c2 01       		.byte	0x1
 2942 13c3 72       		.byte	0x72
 2943 13c4 57000000 		.4byte	0x57
 2944 13c8 D5010000 		.4byte	.LLST10
 2945 13cc 28       		.uleb128 0x28
 2946 13cd 16000000 		.4byte	.LVL15
 2947 13d1 65150000 		.4byte	0x1565
 2948 13d5 24       		.uleb128 0x24
 2949 13d6 01       		.byte	0x1
 2950 13d7 53       		.byte	0x53
 2951 13d8 02       		.byte	0x2
 2952 13d9 09       		.byte	0x9
 2953 13da FF       		.byte	0xff
 2954 13db 24       		.uleb128 0x24
ARM GAS  /var/folders/dt/0wfd0knj7gs46m8vwfzktm600000gn/T//ccWoQfLH.s 			page 53


 2955 13dc 01       		.byte	0x1
 2956 13dd 52       		.byte	0x52
 2957 13de 02       		.byte	0x2
 2958 13df 74       		.byte	0x74
 2959 13e0 00       		.sleb128 0
 2960 13e1 24       		.uleb128 0x24
 2961 13e2 01       		.byte	0x1
 2962 13e3 51       		.byte	0x51
 2963 13e4 03       		.byte	0x3
 2964 13e5 F3       		.byte	0xf3
 2965 13e6 01       		.uleb128 0x1
 2966 13e7 52       		.byte	0x52
 2967 13e8 00       		.byte	0
 2968 13e9 00       		.byte	0
 2969 13ea 25       		.uleb128 0x25
 2970 13eb 01       		.byte	0x1
 2971 13ec 8A040000 		.4byte	.LASF243
 2972 13f0 01       		.byte	0x1
 2973 13f1 83       		.byte	0x83
 2974 13f2 01       		.byte	0x1
 2975 13f3 57000000 		.4byte	0x57
 2976 13f7 00000000 		.4byte	.LFB65
 2977 13fb 04000000 		.4byte	.LFE65
 2978 13ff 02       		.byte	0x2
 2979 1400 7D       		.byte	0x7d
 2980 1401 00       		.sleb128 0
 2981 1402 01       		.byte	0x1
 2982 1403 22140000 		.4byte	0x1422
 2983 1407 21       		.uleb128 0x21
 2984 1408 7200     		.ascii	"r\000"
 2985 140a 01       		.byte	0x1
 2986 140b 83       		.byte	0x83
 2987 140c AC040000 		.4byte	0x4ac
 2988 1410 22020000 		.4byte	.LLST11
 2989 1414 26       		.uleb128 0x26
 2990 1415 6A030000 		.4byte	.LASF239
 2991 1419 01       		.byte	0x1
 2992 141a 83       		.byte	0x83
 2993 141b 57000000 		.4byte	0x57
 2994 141f 01       		.byte	0x1
 2995 1420 51       		.byte	0x51
 2996 1421 00       		.byte	0
 2997 1422 20       		.uleb128 0x20
 2998 1423 01       		.byte	0x1
 2999 1424 8B000000 		.4byte	.LASF244
 3000 1428 01       		.byte	0x1
 3001 1429 8D       		.byte	0x8d
 3002 142a 01       		.byte	0x1
 3003 142b 76090000 		.4byte	0x976
 3004 142f 00000000 		.4byte	.LFB66
 3005 1433 18000000 		.4byte	.LFE66
 3006 1437 43020000 		.4byte	.LLST12
 3007 143b 01       		.byte	0x1
 3008 143c 7B140000 		.4byte	0x147b
 3009 1440 21       		.uleb128 0x21
 3010 1441 7200     		.ascii	"r\000"
 3011 1443 01       		.byte	0x1
ARM GAS  /var/folders/dt/0wfd0knj7gs46m8vwfzktm600000gn/T//ccWoQfLH.s 			page 54


 3012 1444 8D       		.byte	0x8d
 3013 1445 AC040000 		.4byte	0x4ac
 3014 1449 63020000 		.4byte	.LLST13
 3015 144d 22       		.uleb128 0x22
 3016 144e A0050000 		.4byte	.LASF245
 3017 1452 01       		.byte	0x1
 3018 1453 8D       		.byte	0x8d
 3019 1454 57000000 		.4byte	0x57
 3020 1458 81020000 		.4byte	.LLST14
 3021 145c 29       		.uleb128 0x29
 3022 145d 7000     		.ascii	"p\000"
 3023 145f 01       		.byte	0x1
 3024 1460 90       		.byte	0x90
 3025 1461 32010000 		.4byte	0x132
 3026 1465 A2020000 		.4byte	.LLST15
 3027 1469 28       		.uleb128 0x28
 3028 146a 0A000000 		.4byte	.LVL24
 3029 146e 93150000 		.4byte	0x1593
 3030 1472 24       		.uleb128 0x24
 3031 1473 01       		.byte	0x1
 3032 1474 50       		.byte	0x50
 3033 1475 03       		.byte	0x3
 3034 1476 F3       		.byte	0xf3
 3035 1477 01       		.uleb128 0x1
 3036 1478 51       		.byte	0x51
 3037 1479 00       		.byte	0
 3038 147a 00       		.byte	0
 3039 147b 20       		.uleb128 0x20
 3040 147c 01       		.byte	0x1
 3041 147d 40070000 		.4byte	.LASF246
 3042 1481 01       		.byte	0x1
 3043 1482 A3       		.byte	0xa3
 3044 1483 01       		.byte	0x1
 3045 1484 57000000 		.4byte	0x57
 3046 1488 00000000 		.4byte	.LFB67
 3047 148c 18000000 		.4byte	.LFE67
 3048 1490 B5020000 		.4byte	.LLST16
 3049 1494 01       		.byte	0x1
 3050 1495 DF140000 		.4byte	0x14df
 3051 1499 21       		.uleb128 0x21
 3052 149a 7200     		.ascii	"r\000"
 3053 149c 01       		.byte	0x1
 3054 149d A3       		.byte	0xa3
 3055 149e AC040000 		.4byte	0x4ac
 3056 14a2 D5020000 		.4byte	.LLST17
 3057 14a6 22       		.uleb128 0x22
 3058 14a7 6A030000 		.4byte	.LASF239
 3059 14ab 01       		.byte	0x1
 3060 14ac A3       		.byte	0xa3
 3061 14ad 57000000 		.4byte	0x57
 3062 14b1 F6020000 		.4byte	.LLST18
 3063 14b5 21       		.uleb128 0x21
 3064 14b6 737400   		.ascii	"st\000"
 3065 14b9 01       		.byte	0x1
 3066 14ba A3       		.byte	0xa3
 3067 14bb DF140000 		.4byte	0x14df
 3068 14bf 17030000 		.4byte	.LLST19
ARM GAS  /var/folders/dt/0wfd0knj7gs46m8vwfzktm600000gn/T//ccWoQfLH.s 			page 55


 3069 14c3 28       		.uleb128 0x28
 3070 14c4 0E000000 		.4byte	.LVL30
 3071 14c8 AB150000 		.4byte	0x15ab
 3072 14cc 24       		.uleb128 0x24
 3073 14cd 01       		.byte	0x1
 3074 14ce 52       		.byte	0x52
 3075 14cf 02       		.byte	0x2
 3076 14d0 08       		.byte	0x8
 3077 14d1 3C       		.byte	0x3c
 3078 14d2 24       		.uleb128 0x24
 3079 14d3 01       		.byte	0x1
 3080 14d4 51       		.byte	0x51
 3081 14d5 01       		.byte	0x1
 3082 14d6 30       		.byte	0x30
 3083 14d7 24       		.uleb128 0x24
 3084 14d8 01       		.byte	0x1
 3085 14d9 50       		.byte	0x50
 3086 14da 02       		.byte	0x2
 3087 14db 74       		.byte	0x74
 3088 14dc 00       		.sleb128 0
 3089 14dd 00       		.byte	0
 3090 14de 00       		.byte	0
 3091 14df 0F       		.uleb128 0xf
 3092 14e0 04       		.byte	0x4
 3093 14e1 CE090000 		.4byte	0x9ce
 3094 14e5 25       		.uleb128 0x25
 3095 14e6 01       		.byte	0x1
 3096 14e7 27030000 		.4byte	.LASF247
 3097 14eb 01       		.byte	0x1
 3098 14ec AF       		.byte	0xaf
 3099 14ed 01       		.byte	0x1
 3100 14ee 57000000 		.4byte	0x57
 3101 14f2 00000000 		.4byte	.LFB68
 3102 14f6 04000000 		.4byte	.LFE68
 3103 14fa 02       		.byte	0x2
 3104 14fb 7D       		.byte	0x7d
 3105 14fc 00       		.sleb128 0
 3106 14fd 01       		.byte	0x1
 3107 14fe 1C150000 		.4byte	0x151c
 3108 1502 21       		.uleb128 0x21
 3109 1503 7200     		.ascii	"r\000"
 3110 1505 01       		.byte	0x1
 3111 1506 AF       		.byte	0xaf
 3112 1507 AC040000 		.4byte	0x4ac
 3113 150b 40030000 		.4byte	.LLST20
 3114 150f 27       		.uleb128 0x27
 3115 1510 666400   		.ascii	"fd\000"
 3116 1513 01       		.byte	0x1
 3117 1514 AF       		.byte	0xaf
 3118 1515 57000000 		.4byte	0x57
 3119 1519 01       		.byte	0x1
 3120 151a 51       		.byte	0x51
 3121 151b 00       		.byte	0
 3122 151c 2A       		.uleb128 0x2a
 3123 151d 3F050000 		.4byte	.LASF248
 3124 1521 14       		.byte	0x14
 3125 1522 9404     		.2byte	0x494
ARM GAS  /var/folders/dt/0wfd0knj7gs46m8vwfzktm600000gn/T//ccWoQfLH.s 			page 56


 3126 1524 59100000 		.4byte	0x1059
 3127 1528 01       		.byte	0x1
 3128 1529 01       		.byte	0x1
 3129 152a 2B       		.uleb128 0x2b
 3130 152b 53443200 		.ascii	"SD2\000"
 3131 152f 15       		.byte	0x15
 3132 1530 FE       		.byte	0xfe
 3133 1531 6A110000 		.4byte	0x116a
 3134 1535 01       		.byte	0x1
 3135 1536 01       		.byte	0x1
 3136 1537 2C       		.uleb128 0x2c
 3137 1538 01       		.byte	0x1
 3138 1539 27000000 		.4byte	.LASF249
 3139 153d 0F       		.byte	0xf
 3140 153e 5401     		.2byte	0x154
 3141 1540 01       		.byte	0x1
 3142 1541 29000000 		.4byte	0x29
 3143 1545 01       		.byte	0x1
 3144 1546 5F150000 		.4byte	0x155f
 3145 154a 13       		.uleb128 0x13
 3146 154b 5F150000 		.4byte	0x155f
 3147 154f 13       		.uleb128 0x13
 3148 1550 300F0000 		.4byte	0xf30
 3149 1554 13       		.uleb128 0x13
 3150 1555 29000000 		.4byte	0x29
 3151 1559 13       		.uleb128 0x13
 3152 155a 5D0B0000 		.4byte	0xb5d
 3153 155e 00       		.byte	0
 3154 155f 0F       		.uleb128 0xf
 3155 1560 04       		.byte	0x4
 3156 1561 360F0000 		.4byte	0xf36
 3157 1565 2C       		.uleb128 0x2c
 3158 1566 01       		.byte	0x1
 3159 1567 A1000000 		.4byte	.LASF250
 3160 156b 0F       		.byte	0xf
 3161 156c 5B01     		.2byte	0x15b
 3162 156e 01       		.byte	0x1
 3163 156f 29000000 		.4byte	0x29
 3164 1573 01       		.byte	0x1
 3165 1574 8D150000 		.4byte	0x158d
 3166 1578 13       		.uleb128 0x13
 3167 1579 8D150000 		.4byte	0x158d
 3168 157d 13       		.uleb128 0x13
 3169 157e 660F0000 		.4byte	0xf66
 3170 1582 13       		.uleb128 0x13
 3171 1583 29000000 		.4byte	0x29
 3172 1587 13       		.uleb128 0x13
 3173 1588 5D0B0000 		.4byte	0xb5d
 3174 158c 00       		.byte	0
 3175 158d 0F       		.uleb128 0xf
 3176 158e 04       		.byte	0x4
 3177 158f 410F0000 		.4byte	0xf41
 3178 1593 2D       		.uleb128 0x2d
 3179 1594 01       		.byte	0x1
 3180 1595 9A030000 		.4byte	.LASF251
 3181 1599 13       		.byte	0x13
 3182 159a 52       		.byte	0x52
ARM GAS  /var/folders/dt/0wfd0knj7gs46m8vwfzktm600000gn/T//ccWoQfLH.s 			page 57


 3183 159b 01       		.byte	0x1
 3184 159c 32010000 		.4byte	0x132
 3185 15a0 01       		.byte	0x1
 3186 15a1 AB150000 		.4byte	0x15ab
 3187 15a5 13       		.uleb128 0x13
 3188 15a6 29000000 		.4byte	0x29
 3189 15aa 00       		.byte	0
 3190 15ab 2E       		.uleb128 0x2e
 3191 15ac 01       		.byte	0x1
 3192 15ad EC020000 		.4byte	.LASF255
 3193 15b1 01       		.byte	0x1
 3194 15b2 32010000 		.4byte	0x132
 3195 15b6 01       		.byte	0x1
 3196 15b7 01       		.byte	0x1
 3197 15b8 13       		.uleb128 0x13
 3198 15b9 32010000 		.4byte	0x132
 3199 15bd 13       		.uleb128 0x13
 3200 15be 57000000 		.4byte	0x57
 3201 15c2 13       		.uleb128 0x13
 3202 15c3 F0000000 		.4byte	0xf0
 3203 15c7 00       		.byte	0
 3204 15c8 00       		.byte	0
 3205              		.section	.debug_abbrev,"",%progbits
 3206              	.Ldebug_abbrev0:
 3207 0000 01       		.uleb128 0x1
 3208 0001 11       		.uleb128 0x11
 3209 0002 01       		.byte	0x1
 3210 0003 25       		.uleb128 0x25
 3211 0004 0E       		.uleb128 0xe
 3212 0005 13       		.uleb128 0x13
 3213 0006 0B       		.uleb128 0xb
 3214 0007 03       		.uleb128 0x3
 3215 0008 0E       		.uleb128 0xe
 3216 0009 1B       		.uleb128 0x1b
 3217 000a 0E       		.uleb128 0xe
 3218 000b 55       		.uleb128 0x55
 3219 000c 06       		.uleb128 0x6
 3220 000d 11       		.uleb128 0x11
 3221 000e 01       		.uleb128 0x1
 3222 000f 52       		.uleb128 0x52
 3223 0010 01       		.uleb128 0x1
 3224 0011 10       		.uleb128 0x10
 3225 0012 06       		.uleb128 0x6
 3226 0013 00       		.byte	0
 3227 0014 00       		.byte	0
 3228 0015 02       		.uleb128 0x2
 3229 0016 16       		.uleb128 0x16
 3230 0017 00       		.byte	0
 3231 0018 03       		.uleb128 0x3
 3232 0019 0E       		.uleb128 0xe
 3233 001a 3A       		.uleb128 0x3a
 3234 001b 0B       		.uleb128 0xb
 3235 001c 3B       		.uleb128 0x3b
 3236 001d 0B       		.uleb128 0xb
 3237 001e 49       		.uleb128 0x49
 3238 001f 13       		.uleb128 0x13
 3239 0020 00       		.byte	0
ARM GAS  /var/folders/dt/0wfd0knj7gs46m8vwfzktm600000gn/T//ccWoQfLH.s 			page 58


 3240 0021 00       		.byte	0
 3241 0022 03       		.uleb128 0x3
 3242 0023 24       		.uleb128 0x24
 3243 0024 00       		.byte	0
 3244 0025 0B       		.uleb128 0xb
 3245 0026 0B       		.uleb128 0xb
 3246 0027 3E       		.uleb128 0x3e
 3247 0028 0B       		.uleb128 0xb
 3248 0029 03       		.uleb128 0x3
 3249 002a 0E       		.uleb128 0xe
 3250 002b 00       		.byte	0
 3251 002c 00       		.byte	0
 3252 002d 04       		.uleb128 0x4
 3253 002e 24       		.uleb128 0x24
 3254 002f 00       		.byte	0
 3255 0030 0B       		.uleb128 0xb
 3256 0031 0B       		.uleb128 0xb
 3257 0032 3E       		.uleb128 0x3e
 3258 0033 0B       		.uleb128 0xb
 3259 0034 03       		.uleb128 0x3
 3260 0035 08       		.uleb128 0x8
 3261 0036 00       		.byte	0
 3262 0037 00       		.byte	0
 3263 0038 05       		.uleb128 0x5
 3264 0039 16       		.uleb128 0x16
 3265 003a 00       		.byte	0
 3266 003b 03       		.uleb128 0x3
 3267 003c 0E       		.uleb128 0xe
 3268 003d 3A       		.uleb128 0x3a
 3269 003e 0B       		.uleb128 0xb
 3270 003f 3B       		.uleb128 0x3b
 3271 0040 05       		.uleb128 0x5
 3272 0041 49       		.uleb128 0x49
 3273 0042 13       		.uleb128 0x13
 3274 0043 00       		.byte	0
 3275 0044 00       		.byte	0
 3276 0045 06       		.uleb128 0x6
 3277 0046 17       		.uleb128 0x17
 3278 0047 01       		.byte	0x1
 3279 0048 0B       		.uleb128 0xb
 3280 0049 0B       		.uleb128 0xb
 3281 004a 3A       		.uleb128 0x3a
 3282 004b 0B       		.uleb128 0xb
 3283 004c 3B       		.uleb128 0x3b
 3284 004d 0B       		.uleb128 0xb
 3285 004e 01       		.uleb128 0x1
 3286 004f 13       		.uleb128 0x13
 3287 0050 00       		.byte	0
 3288 0051 00       		.byte	0
 3289 0052 07       		.uleb128 0x7
 3290 0053 0D       		.uleb128 0xd
 3291 0054 00       		.byte	0
 3292 0055 03       		.uleb128 0x3
 3293 0056 0E       		.uleb128 0xe
 3294 0057 3A       		.uleb128 0x3a
 3295 0058 0B       		.uleb128 0xb
 3296 0059 3B       		.uleb128 0x3b
ARM GAS  /var/folders/dt/0wfd0knj7gs46m8vwfzktm600000gn/T//ccWoQfLH.s 			page 59


 3297 005a 0B       		.uleb128 0xb
 3298 005b 49       		.uleb128 0x49
 3299 005c 13       		.uleb128 0x13
 3300 005d 00       		.byte	0
 3301 005e 00       		.byte	0
 3302 005f 08       		.uleb128 0x8
 3303 0060 01       		.uleb128 0x1
 3304 0061 01       		.byte	0x1
 3305 0062 49       		.uleb128 0x49
 3306 0063 13       		.uleb128 0x13
 3307 0064 01       		.uleb128 0x1
 3308 0065 13       		.uleb128 0x13
 3309 0066 00       		.byte	0
 3310 0067 00       		.byte	0
 3311 0068 09       		.uleb128 0x9
 3312 0069 21       		.uleb128 0x21
 3313 006a 00       		.byte	0
 3314 006b 49       		.uleb128 0x49
 3315 006c 13       		.uleb128 0x13
 3316 006d 2F       		.uleb128 0x2f
 3317 006e 0B       		.uleb128 0xb
 3318 006f 00       		.byte	0
 3319 0070 00       		.byte	0
 3320 0071 0A       		.uleb128 0xa
 3321 0072 13       		.uleb128 0x13
 3322 0073 01       		.byte	0x1
 3323 0074 0B       		.uleb128 0xb
 3324 0075 0B       		.uleb128 0xb
 3325 0076 3A       		.uleb128 0x3a
 3326 0077 0B       		.uleb128 0xb
 3327 0078 3B       		.uleb128 0x3b
 3328 0079 0B       		.uleb128 0xb
 3329 007a 01       		.uleb128 0x1
 3330 007b 13       		.uleb128 0x13
 3331 007c 00       		.byte	0
 3332 007d 00       		.byte	0
 3333 007e 0B       		.uleb128 0xb
 3334 007f 0D       		.uleb128 0xd
 3335 0080 00       		.byte	0
 3336 0081 03       		.uleb128 0x3
 3337 0082 0E       		.uleb128 0xe
 3338 0083 3A       		.uleb128 0x3a
 3339 0084 0B       		.uleb128 0xb
 3340 0085 3B       		.uleb128 0x3b
 3341 0086 0B       		.uleb128 0xb
 3342 0087 49       		.uleb128 0x49
 3343 0088 13       		.uleb128 0x13
 3344 0089 38       		.uleb128 0x38
 3345 008a 0A       		.uleb128 0xa
 3346 008b 00       		.byte	0
 3347 008c 00       		.byte	0
 3348 008d 0C       		.uleb128 0xc
 3349 008e 0F       		.uleb128 0xf
 3350 008f 00       		.byte	0
 3351 0090 0B       		.uleb128 0xb
 3352 0091 0B       		.uleb128 0xb
 3353 0092 00       		.byte	0
ARM GAS  /var/folders/dt/0wfd0knj7gs46m8vwfzktm600000gn/T//ccWoQfLH.s 			page 60


 3354 0093 00       		.byte	0
 3355 0094 0D       		.uleb128 0xd
 3356 0095 13       		.uleb128 0x13
 3357 0096 01       		.byte	0x1
 3358 0097 03       		.uleb128 0x3
 3359 0098 0E       		.uleb128 0xe
 3360 0099 0B       		.uleb128 0xb
 3361 009a 0B       		.uleb128 0xb
 3362 009b 3A       		.uleb128 0x3a
 3363 009c 0B       		.uleb128 0xb
 3364 009d 3B       		.uleb128 0x3b
 3365 009e 0B       		.uleb128 0xb
 3366 009f 01       		.uleb128 0x1
 3367 00a0 13       		.uleb128 0x13
 3368 00a1 00       		.byte	0
 3369 00a2 00       		.byte	0
 3370 00a3 0E       		.uleb128 0xe
 3371 00a4 0D       		.uleb128 0xd
 3372 00a5 00       		.byte	0
 3373 00a6 03       		.uleb128 0x3
 3374 00a7 08       		.uleb128 0x8
 3375 00a8 3A       		.uleb128 0x3a
 3376 00a9 0B       		.uleb128 0xb
 3377 00aa 3B       		.uleb128 0x3b
 3378 00ab 0B       		.uleb128 0xb
 3379 00ac 49       		.uleb128 0x49
 3380 00ad 13       		.uleb128 0x13
 3381 00ae 38       		.uleb128 0x38
 3382 00af 0A       		.uleb128 0xa
 3383 00b0 00       		.byte	0
 3384 00b1 00       		.byte	0
 3385 00b2 0F       		.uleb128 0xf
 3386 00b3 0F       		.uleb128 0xf
 3387 00b4 00       		.byte	0
 3388 00b5 0B       		.uleb128 0xb
 3389 00b6 0B       		.uleb128 0xb
 3390 00b7 49       		.uleb128 0x49
 3391 00b8 13       		.uleb128 0x13
 3392 00b9 00       		.byte	0
 3393 00ba 00       		.byte	0
 3394 00bb 10       		.uleb128 0x10
 3395 00bc 13       		.uleb128 0x13
 3396 00bd 01       		.byte	0x1
 3397 00be 03       		.uleb128 0x3
 3398 00bf 0E       		.uleb128 0xe
 3399 00c0 0B       		.uleb128 0xb
 3400 00c1 05       		.uleb128 0x5
 3401 00c2 3A       		.uleb128 0x3a
 3402 00c3 0B       		.uleb128 0xb
 3403 00c4 3B       		.uleb128 0x3b
 3404 00c5 0B       		.uleb128 0xb
 3405 00c6 01       		.uleb128 0x1
 3406 00c7 13       		.uleb128 0x13
 3407 00c8 00       		.byte	0
 3408 00c9 00       		.byte	0
 3409 00ca 11       		.uleb128 0x11
 3410 00cb 15       		.uleb128 0x15
ARM GAS  /var/folders/dt/0wfd0knj7gs46m8vwfzktm600000gn/T//ccWoQfLH.s 			page 61


 3411 00cc 00       		.byte	0
 3412 00cd 27       		.uleb128 0x27
 3413 00ce 0C       		.uleb128 0xc
 3414 00cf 00       		.byte	0
 3415 00d0 00       		.byte	0
 3416 00d1 12       		.uleb128 0x12
 3417 00d2 15       		.uleb128 0x15
 3418 00d3 01       		.byte	0x1
 3419 00d4 27       		.uleb128 0x27
 3420 00d5 0C       		.uleb128 0xc
 3421 00d6 49       		.uleb128 0x49
 3422 00d7 13       		.uleb128 0x13
 3423 00d8 01       		.uleb128 0x1
 3424 00d9 13       		.uleb128 0x13
 3425 00da 00       		.byte	0
 3426 00db 00       		.byte	0
 3427 00dc 13       		.uleb128 0x13
 3428 00dd 05       		.uleb128 0x5
 3429 00de 00       		.byte	0
 3430 00df 49       		.uleb128 0x49
 3431 00e0 13       		.uleb128 0x13
 3432 00e1 00       		.byte	0
 3433 00e2 00       		.byte	0
 3434 00e3 14       		.uleb128 0x14
 3435 00e4 13       		.uleb128 0x13
 3436 00e5 01       		.byte	0x1
 3437 00e6 03       		.uleb128 0x3
 3438 00e7 0E       		.uleb128 0xe
 3439 00e8 0B       		.uleb128 0xb
 3440 00e9 05       		.uleb128 0x5
 3441 00ea 3A       		.uleb128 0x3a
 3442 00eb 0B       		.uleb128 0xb
 3443 00ec 3B       		.uleb128 0x3b
 3444 00ed 05       		.uleb128 0x5
 3445 00ee 01       		.uleb128 0x1
 3446 00ef 13       		.uleb128 0x13
 3447 00f0 00       		.byte	0
 3448 00f1 00       		.byte	0
 3449 00f2 15       		.uleb128 0x15
 3450 00f3 0D       		.uleb128 0xd
 3451 00f4 00       		.byte	0
 3452 00f5 03       		.uleb128 0x3
 3453 00f6 0E       		.uleb128 0xe
 3454 00f7 3A       		.uleb128 0x3a
 3455 00f8 0B       		.uleb128 0xb
 3456 00f9 3B       		.uleb128 0x3b
 3457 00fa 05       		.uleb128 0x5
 3458 00fb 49       		.uleb128 0x49
 3459 00fc 13       		.uleb128 0x13
 3460 00fd 38       		.uleb128 0x38
 3461 00fe 0A       		.uleb128 0xa
 3462 00ff 00       		.byte	0
 3463 0100 00       		.byte	0
 3464 0101 16       		.uleb128 0x16
 3465 0102 26       		.uleb128 0x26
 3466 0103 00       		.byte	0
 3467 0104 49       		.uleb128 0x49
ARM GAS  /var/folders/dt/0wfd0knj7gs46m8vwfzktm600000gn/T//ccWoQfLH.s 			page 62


 3468 0105 13       		.uleb128 0x13
 3469 0106 00       		.byte	0
 3470 0107 00       		.byte	0
 3471 0108 17       		.uleb128 0x17
 3472 0109 13       		.uleb128 0x13
 3473 010a 01       		.byte	0x1
 3474 010b 03       		.uleb128 0x3
 3475 010c 0E       		.uleb128 0xe
 3476 010d 0B       		.uleb128 0xb
 3477 010e 0B       		.uleb128 0xb
 3478 010f 3A       		.uleb128 0x3a
 3479 0110 0B       		.uleb128 0xb
 3480 0111 3B       		.uleb128 0x3b
 3481 0112 05       		.uleb128 0x5
 3482 0113 01       		.uleb128 0x1
 3483 0114 13       		.uleb128 0x13
 3484 0115 00       		.byte	0
 3485 0116 00       		.byte	0
 3486 0117 18       		.uleb128 0x18
 3487 0118 13       		.uleb128 0x13
 3488 0119 01       		.byte	0x1
 3489 011a 0B       		.uleb128 0xb
 3490 011b 0B       		.uleb128 0xb
 3491 011c 3A       		.uleb128 0x3a
 3492 011d 0B       		.uleb128 0xb
 3493 011e 3B       		.uleb128 0x3b
 3494 011f 05       		.uleb128 0x5
 3495 0120 01       		.uleb128 0x1
 3496 0121 13       		.uleb128 0x13
 3497 0122 00       		.byte	0
 3498 0123 00       		.byte	0
 3499 0124 19       		.uleb128 0x19
 3500 0125 17       		.uleb128 0x17
 3501 0126 01       		.byte	0x1
 3502 0127 0B       		.uleb128 0xb
 3503 0128 0B       		.uleb128 0xb
 3504 0129 3A       		.uleb128 0x3a
 3505 012a 0B       		.uleb128 0xb
 3506 012b 3B       		.uleb128 0x3b
 3507 012c 05       		.uleb128 0x5
 3508 012d 01       		.uleb128 0x1
 3509 012e 13       		.uleb128 0x13
 3510 012f 00       		.byte	0
 3511 0130 00       		.byte	0
 3512 0131 1A       		.uleb128 0x1a
 3513 0132 0D       		.uleb128 0xd
 3514 0133 00       		.byte	0
 3515 0134 03       		.uleb128 0x3
 3516 0135 0E       		.uleb128 0xe
 3517 0136 3A       		.uleb128 0x3a
 3518 0137 0B       		.uleb128 0xb
 3519 0138 3B       		.uleb128 0x3b
 3520 0139 05       		.uleb128 0x5
 3521 013a 49       		.uleb128 0x49
 3522 013b 13       		.uleb128 0x13
 3523 013c 00       		.byte	0
 3524 013d 00       		.byte	0
ARM GAS  /var/folders/dt/0wfd0knj7gs46m8vwfzktm600000gn/T//ccWoQfLH.s 			page 63


 3525 013e 1B       		.uleb128 0x1b
 3526 013f 15       		.uleb128 0x15
 3527 0140 01       		.byte	0x1
 3528 0141 27       		.uleb128 0x27
 3529 0142 0C       		.uleb128 0xc
 3530 0143 01       		.uleb128 0x1
 3531 0144 13       		.uleb128 0x13
 3532 0145 00       		.byte	0
 3533 0146 00       		.byte	0
 3534 0147 1C       		.uleb128 0x1c
 3535 0148 0D       		.uleb128 0xd
 3536 0149 00       		.byte	0
 3537 014a 03       		.uleb128 0x3
 3538 014b 08       		.uleb128 0x8
 3539 014c 3A       		.uleb128 0x3a
 3540 014d 0B       		.uleb128 0xb
 3541 014e 3B       		.uleb128 0x3b
 3542 014f 05       		.uleb128 0x5
 3543 0150 49       		.uleb128 0x49
 3544 0151 13       		.uleb128 0x13
 3545 0152 38       		.uleb128 0x38
 3546 0153 0A       		.uleb128 0xa
 3547 0154 00       		.byte	0
 3548 0155 00       		.byte	0
 3549 0156 1D       		.uleb128 0x1d
 3550 0157 35       		.uleb128 0x35
 3551 0158 00       		.byte	0
 3552 0159 49       		.uleb128 0x49
 3553 015a 13       		.uleb128 0x13
 3554 015b 00       		.byte	0
 3555 015c 00       		.byte	0
 3556 015d 1E       		.uleb128 0x1e
 3557 015e 04       		.uleb128 0x4
 3558 015f 01       		.byte	0x1
 3559 0160 0B       		.uleb128 0xb
 3560 0161 0B       		.uleb128 0xb
 3561 0162 3A       		.uleb128 0x3a
 3562 0163 0B       		.uleb128 0xb
 3563 0164 3B       		.uleb128 0x3b
 3564 0165 0B       		.uleb128 0xb
 3565 0166 01       		.uleb128 0x1
 3566 0167 13       		.uleb128 0x13
 3567 0168 00       		.byte	0
 3568 0169 00       		.byte	0
 3569 016a 1F       		.uleb128 0x1f
 3570 016b 28       		.uleb128 0x28
 3571 016c 00       		.byte	0
 3572 016d 03       		.uleb128 0x3
 3573 016e 0E       		.uleb128 0xe
 3574 016f 1C       		.uleb128 0x1c
 3575 0170 0D       		.uleb128 0xd
 3576 0171 00       		.byte	0
 3577 0172 00       		.byte	0
 3578 0173 20       		.uleb128 0x20
 3579 0174 2E       		.uleb128 0x2e
 3580 0175 01       		.byte	0x1
 3581 0176 3F       		.uleb128 0x3f
ARM GAS  /var/folders/dt/0wfd0knj7gs46m8vwfzktm600000gn/T//ccWoQfLH.s 			page 64


 3582 0177 0C       		.uleb128 0xc
 3583 0178 03       		.uleb128 0x3
 3584 0179 0E       		.uleb128 0xe
 3585 017a 3A       		.uleb128 0x3a
 3586 017b 0B       		.uleb128 0xb
 3587 017c 3B       		.uleb128 0x3b
 3588 017d 0B       		.uleb128 0xb
 3589 017e 27       		.uleb128 0x27
 3590 017f 0C       		.uleb128 0xc
 3591 0180 49       		.uleb128 0x49
 3592 0181 13       		.uleb128 0x13
 3593 0182 11       		.uleb128 0x11
 3594 0183 01       		.uleb128 0x1
 3595 0184 12       		.uleb128 0x12
 3596 0185 01       		.uleb128 0x1
 3597 0186 40       		.uleb128 0x40
 3598 0187 06       		.uleb128 0x6
 3599 0188 9742     		.uleb128 0x2117
 3600 018a 0C       		.uleb128 0xc
 3601 018b 01       		.uleb128 0x1
 3602 018c 13       		.uleb128 0x13
 3603 018d 00       		.byte	0
 3604 018e 00       		.byte	0
 3605 018f 21       		.uleb128 0x21
 3606 0190 05       		.uleb128 0x5
 3607 0191 00       		.byte	0
 3608 0192 03       		.uleb128 0x3
 3609 0193 08       		.uleb128 0x8
 3610 0194 3A       		.uleb128 0x3a
 3611 0195 0B       		.uleb128 0xb
 3612 0196 3B       		.uleb128 0x3b
 3613 0197 0B       		.uleb128 0xb
 3614 0198 49       		.uleb128 0x49
 3615 0199 13       		.uleb128 0x13
 3616 019a 02       		.uleb128 0x2
 3617 019b 06       		.uleb128 0x6
 3618 019c 00       		.byte	0
 3619 019d 00       		.byte	0
 3620 019e 22       		.uleb128 0x22
 3621 019f 05       		.uleb128 0x5
 3622 01a0 00       		.byte	0
 3623 01a1 03       		.uleb128 0x3
 3624 01a2 0E       		.uleb128 0xe
 3625 01a3 3A       		.uleb128 0x3a
 3626 01a4 0B       		.uleb128 0xb
 3627 01a5 3B       		.uleb128 0x3b
 3628 01a6 0B       		.uleb128 0xb
 3629 01a7 49       		.uleb128 0x49
 3630 01a8 13       		.uleb128 0x13
 3631 01a9 02       		.uleb128 0x2
 3632 01aa 06       		.uleb128 0x6
 3633 01ab 00       		.byte	0
 3634 01ac 00       		.byte	0
 3635 01ad 23       		.uleb128 0x23
 3636 01ae 898201   		.uleb128 0x4109
 3637 01b1 01       		.byte	0x1
 3638 01b2 11       		.uleb128 0x11
ARM GAS  /var/folders/dt/0wfd0knj7gs46m8vwfzktm600000gn/T//ccWoQfLH.s 			page 65


 3639 01b3 01       		.uleb128 0x1
 3640 01b4 9542     		.uleb128 0x2115
 3641 01b6 0C       		.uleb128 0xc
 3642 01b7 31       		.uleb128 0x31
 3643 01b8 13       		.uleb128 0x13
 3644 01b9 00       		.byte	0
 3645 01ba 00       		.byte	0
 3646 01bb 24       		.uleb128 0x24
 3647 01bc 8A8201   		.uleb128 0x410a
 3648 01bf 00       		.byte	0
 3649 01c0 02       		.uleb128 0x2
 3650 01c1 0A       		.uleb128 0xa
 3651 01c2 9142     		.uleb128 0x2111
 3652 01c4 0A       		.uleb128 0xa
 3653 01c5 00       		.byte	0
 3654 01c6 00       		.byte	0
 3655 01c7 25       		.uleb128 0x25
 3656 01c8 2E       		.uleb128 0x2e
 3657 01c9 01       		.byte	0x1
 3658 01ca 3F       		.uleb128 0x3f
 3659 01cb 0C       		.uleb128 0xc
 3660 01cc 03       		.uleb128 0x3
 3661 01cd 0E       		.uleb128 0xe
 3662 01ce 3A       		.uleb128 0x3a
 3663 01cf 0B       		.uleb128 0xb
 3664 01d0 3B       		.uleb128 0x3b
 3665 01d1 0B       		.uleb128 0xb
 3666 01d2 27       		.uleb128 0x27
 3667 01d3 0C       		.uleb128 0xc
 3668 01d4 49       		.uleb128 0x49
 3669 01d5 13       		.uleb128 0x13
 3670 01d6 11       		.uleb128 0x11
 3671 01d7 01       		.uleb128 0x1
 3672 01d8 12       		.uleb128 0x12
 3673 01d9 01       		.uleb128 0x1
 3674 01da 40       		.uleb128 0x40
 3675 01db 0A       		.uleb128 0xa
 3676 01dc 9742     		.uleb128 0x2117
 3677 01de 0C       		.uleb128 0xc
 3678 01df 01       		.uleb128 0x1
 3679 01e0 13       		.uleb128 0x13
 3680 01e1 00       		.byte	0
 3681 01e2 00       		.byte	0
 3682 01e3 26       		.uleb128 0x26
 3683 01e4 05       		.uleb128 0x5
 3684 01e5 00       		.byte	0
 3685 01e6 03       		.uleb128 0x3
 3686 01e7 0E       		.uleb128 0xe
 3687 01e8 3A       		.uleb128 0x3a
 3688 01e9 0B       		.uleb128 0xb
 3689 01ea 3B       		.uleb128 0x3b
 3690 01eb 0B       		.uleb128 0xb
 3691 01ec 49       		.uleb128 0x49
 3692 01ed 13       		.uleb128 0x13
 3693 01ee 02       		.uleb128 0x2
 3694 01ef 0A       		.uleb128 0xa
 3695 01f0 00       		.byte	0
ARM GAS  /var/folders/dt/0wfd0knj7gs46m8vwfzktm600000gn/T//ccWoQfLH.s 			page 66


 3696 01f1 00       		.byte	0
 3697 01f2 27       		.uleb128 0x27
 3698 01f3 05       		.uleb128 0x5
 3699 01f4 00       		.byte	0
 3700 01f5 03       		.uleb128 0x3
 3701 01f6 08       		.uleb128 0x8
 3702 01f7 3A       		.uleb128 0x3a
 3703 01f8 0B       		.uleb128 0xb
 3704 01f9 3B       		.uleb128 0x3b
 3705 01fa 0B       		.uleb128 0xb
 3706 01fb 49       		.uleb128 0x49
 3707 01fc 13       		.uleb128 0x13
 3708 01fd 02       		.uleb128 0x2
 3709 01fe 0A       		.uleb128 0xa
 3710 01ff 00       		.byte	0
 3711 0200 00       		.byte	0
 3712 0201 28       		.uleb128 0x28
 3713 0202 898201   		.uleb128 0x4109
 3714 0205 01       		.byte	0x1
 3715 0206 11       		.uleb128 0x11
 3716 0207 01       		.uleb128 0x1
 3717 0208 31       		.uleb128 0x31
 3718 0209 13       		.uleb128 0x13
 3719 020a 00       		.byte	0
 3720 020b 00       		.byte	0
 3721 020c 29       		.uleb128 0x29
 3722 020d 34       		.uleb128 0x34
 3723 020e 00       		.byte	0
 3724 020f 03       		.uleb128 0x3
 3725 0210 08       		.uleb128 0x8
 3726 0211 3A       		.uleb128 0x3a
 3727 0212 0B       		.uleb128 0xb
 3728 0213 3B       		.uleb128 0x3b
 3729 0214 0B       		.uleb128 0xb
 3730 0215 49       		.uleb128 0x49
 3731 0216 13       		.uleb128 0x13
 3732 0217 02       		.uleb128 0x2
 3733 0218 06       		.uleb128 0x6
 3734 0219 00       		.byte	0
 3735 021a 00       		.byte	0
 3736 021b 2A       		.uleb128 0x2a
 3737 021c 34       		.uleb128 0x34
 3738 021d 00       		.byte	0
 3739 021e 03       		.uleb128 0x3
 3740 021f 0E       		.uleb128 0xe
 3741 0220 3A       		.uleb128 0x3a
 3742 0221 0B       		.uleb128 0xb
 3743 0222 3B       		.uleb128 0x3b
 3744 0223 05       		.uleb128 0x5
 3745 0224 49       		.uleb128 0x49
 3746 0225 13       		.uleb128 0x13
 3747 0226 3F       		.uleb128 0x3f
 3748 0227 0C       		.uleb128 0xc
 3749 0228 3C       		.uleb128 0x3c
 3750 0229 0C       		.uleb128 0xc
 3751 022a 00       		.byte	0
 3752 022b 00       		.byte	0
ARM GAS  /var/folders/dt/0wfd0knj7gs46m8vwfzktm600000gn/T//ccWoQfLH.s 			page 67


 3753 022c 2B       		.uleb128 0x2b
 3754 022d 34       		.uleb128 0x34
 3755 022e 00       		.byte	0
 3756 022f 03       		.uleb128 0x3
 3757 0230 08       		.uleb128 0x8
 3758 0231 3A       		.uleb128 0x3a
 3759 0232 0B       		.uleb128 0xb
 3760 0233 3B       		.uleb128 0x3b
 3761 0234 0B       		.uleb128 0xb
 3762 0235 49       		.uleb128 0x49
 3763 0236 13       		.uleb128 0x13
 3764 0237 3F       		.uleb128 0x3f
 3765 0238 0C       		.uleb128 0xc
 3766 0239 3C       		.uleb128 0x3c
 3767 023a 0C       		.uleb128 0xc
 3768 023b 00       		.byte	0
 3769 023c 00       		.byte	0
 3770 023d 2C       		.uleb128 0x2c
 3771 023e 2E       		.uleb128 0x2e
 3772 023f 01       		.byte	0x1
 3773 0240 3F       		.uleb128 0x3f
 3774 0241 0C       		.uleb128 0xc
 3775 0242 03       		.uleb128 0x3
 3776 0243 0E       		.uleb128 0xe
 3777 0244 3A       		.uleb128 0x3a
 3778 0245 0B       		.uleb128 0xb
 3779 0246 3B       		.uleb128 0x3b
 3780 0247 05       		.uleb128 0x5
 3781 0248 27       		.uleb128 0x27
 3782 0249 0C       		.uleb128 0xc
 3783 024a 49       		.uleb128 0x49
 3784 024b 13       		.uleb128 0x13
 3785 024c 3C       		.uleb128 0x3c
 3786 024d 0C       		.uleb128 0xc
 3787 024e 01       		.uleb128 0x1
 3788 024f 13       		.uleb128 0x13
 3789 0250 00       		.byte	0
 3790 0251 00       		.byte	0
 3791 0252 2D       		.uleb128 0x2d
 3792 0253 2E       		.uleb128 0x2e
 3793 0254 01       		.byte	0x1
 3794 0255 3F       		.uleb128 0x3f
 3795 0256 0C       		.uleb128 0xc
 3796 0257 03       		.uleb128 0x3
 3797 0258 0E       		.uleb128 0xe
 3798 0259 3A       		.uleb128 0x3a
 3799 025a 0B       		.uleb128 0xb
 3800 025b 3B       		.uleb128 0x3b
 3801 025c 0B       		.uleb128 0xb
 3802 025d 27       		.uleb128 0x27
 3803 025e 0C       		.uleb128 0xc
 3804 025f 49       		.uleb128 0x49
 3805 0260 13       		.uleb128 0x13
 3806 0261 3C       		.uleb128 0x3c
 3807 0262 0C       		.uleb128 0xc
 3808 0263 01       		.uleb128 0x1
 3809 0264 13       		.uleb128 0x13
ARM GAS  /var/folders/dt/0wfd0knj7gs46m8vwfzktm600000gn/T//ccWoQfLH.s 			page 68


 3810 0265 00       		.byte	0
 3811 0266 00       		.byte	0
 3812 0267 2E       		.uleb128 0x2e
 3813 0268 2E       		.uleb128 0x2e
 3814 0269 01       		.byte	0x1
 3815 026a 3F       		.uleb128 0x3f
 3816 026b 0C       		.uleb128 0xc
 3817 026c 03       		.uleb128 0x3
 3818 026d 0E       		.uleb128 0xe
 3819 026e 27       		.uleb128 0x27
 3820 026f 0C       		.uleb128 0xc
 3821 0270 49       		.uleb128 0x49
 3822 0271 13       		.uleb128 0x13
 3823 0272 34       		.uleb128 0x34
 3824 0273 0C       		.uleb128 0xc
 3825 0274 3C       		.uleb128 0x3c
 3826 0275 0C       		.uleb128 0xc
 3827 0276 00       		.byte	0
 3828 0277 00       		.byte	0
 3829 0278 00       		.byte	0
 3830              		.section	.debug_loc,"",%progbits
 3831              	.Ldebug_loc0:
 3832              	.LLST0:
 3833 0000 00000000 		.4byte	.LFB62
 3834 0004 08000000 		.4byte	.LCFI0
 3835 0008 0200     		.2byte	0x2
 3836 000a 7D       		.byte	0x7d
 3837 000b 00       		.sleb128 0
 3838 000c 08000000 		.4byte	.LCFI0
 3839 0010 34000000 		.4byte	.LFE62
 3840 0014 0200     		.2byte	0x2
 3841 0016 7D       		.byte	0x7d
 3842 0017 04       		.sleb128 4
 3843 0018 00000000 		.4byte	0
 3844 001c 00000000 		.4byte	0
 3845              	.LLST1:
 3846 0020 00000000 		.4byte	.LVL0
 3847 0024 16000000 		.4byte	.LVL2
 3848 0028 0100     		.2byte	0x1
 3849 002a 50       		.byte	0x50
 3850 002b 16000000 		.4byte	.LVL2
 3851 002f 24000000 		.4byte	.LVL5
 3852 0033 0400     		.2byte	0x4
 3853 0035 F3       		.byte	0xf3
 3854 0036 01       		.uleb128 0x1
 3855 0037 50       		.byte	0x50
 3856 0038 9F       		.byte	0x9f
 3857 0039 24000000 		.4byte	.LVL5
 3858 003d 2C000000 		.4byte	.LVL7
 3859 0041 0100     		.2byte	0x1
 3860 0043 50       		.byte	0x50
 3861 0044 2C000000 		.4byte	.LVL7
 3862 0048 34000000 		.4byte	.LFE62
 3863 004c 0400     		.2byte	0x4
 3864 004e F3       		.byte	0xf3
 3865 004f 01       		.uleb128 0x1
 3866 0050 50       		.byte	0x50
ARM GAS  /var/folders/dt/0wfd0knj7gs46m8vwfzktm600000gn/T//ccWoQfLH.s 			page 69


 3867 0051 9F       		.byte	0x9f
 3868 0052 00000000 		.4byte	0
 3869 0056 00000000 		.4byte	0
 3870              	.LLST2:
 3871 005a 00000000 		.4byte	.LVL0
 3872 005e 06000000 		.4byte	.LVL1
 3873 0062 0100     		.2byte	0x1
 3874 0064 51       		.byte	0x51
 3875 0065 06000000 		.4byte	.LVL1
 3876 0069 34000000 		.4byte	.LFE62
 3877 006d 0400     		.2byte	0x4
 3878 006f F3       		.byte	0xf3
 3879 0070 01       		.uleb128 0x1
 3880 0071 51       		.byte	0x51
 3881 0072 9F       		.byte	0x9f
 3882 0073 00000000 		.4byte	0
 3883 0077 00000000 		.4byte	0
 3884              	.LLST3:
 3885 007b 00000000 		.4byte	.LVL0
 3886 007f 1A000000 		.4byte	.LVL3
 3887 0083 0100     		.2byte	0x1
 3888 0085 52       		.byte	0x52
 3889 0086 1A000000 		.4byte	.LVL3
 3890 008a 23000000 		.4byte	.LVL5-1
 3891 008e 0100     		.2byte	0x1
 3892 0090 51       		.byte	0x51
 3893 0091 23000000 		.4byte	.LVL5-1
 3894 0095 24000000 		.4byte	.LVL5
 3895 0099 0400     		.2byte	0x4
 3896 009b F3       		.byte	0xf3
 3897 009c 01       		.uleb128 0x1
 3898 009d 52       		.byte	0x52
 3899 009e 9F       		.byte	0x9f
 3900 009f 24000000 		.4byte	.LVL5
 3901 00a3 34000000 		.4byte	.LFE62
 3902 00a7 0100     		.2byte	0x1
 3903 00a9 52       		.byte	0x52
 3904 00aa 00000000 		.4byte	0
 3905 00ae 00000000 		.4byte	0
 3906              	.LLST4:
 3907 00b2 00000000 		.4byte	.LVL0
 3908 00b6 1E000000 		.4byte	.LVL4
 3909 00ba 0100     		.2byte	0x1
 3910 00bc 53       		.byte	0x53
 3911 00bd 1E000000 		.4byte	.LVL4
 3912 00c1 23000000 		.4byte	.LVL5-1
 3913 00c5 0100     		.2byte	0x1
 3914 00c7 52       		.byte	0x52
 3915 00c8 23000000 		.4byte	.LVL5-1
 3916 00cc 24000000 		.4byte	.LVL5
 3917 00d0 0400     		.2byte	0x4
 3918 00d2 F3       		.byte	0xf3
 3919 00d3 01       		.uleb128 0x1
 3920 00d4 53       		.byte	0x53
 3921 00d5 9F       		.byte	0x9f
 3922 00d6 24000000 		.4byte	.LVL5
 3923 00da 26000000 		.4byte	.LVL6
ARM GAS  /var/folders/dt/0wfd0knj7gs46m8vwfzktm600000gn/T//ccWoQfLH.s 			page 70


 3924 00de 0100     		.2byte	0x1
 3925 00e0 53       		.byte	0x53
 3926 00e1 26000000 		.4byte	.LVL6
 3927 00e5 34000000 		.4byte	.LFE62
 3928 00e9 0400     		.2byte	0x4
 3929 00eb F3       		.byte	0xf3
 3930 00ec 01       		.uleb128 0x1
 3931 00ed 53       		.byte	0x53
 3932 00ee 9F       		.byte	0x9f
 3933 00ef 00000000 		.4byte	0
 3934 00f3 00000000 		.4byte	0
 3935              	.LLST5:
 3936 00f7 00000000 		.4byte	.LVL8
 3937 00fb 02000000 		.4byte	.LVL9
 3938 00ff 0100     		.2byte	0x1
 3939 0101 50       		.byte	0x50
 3940 0102 02000000 		.4byte	.LVL9
 3941 0106 04000000 		.4byte	.LFE63
 3942 010a 0400     		.2byte	0x4
 3943 010c F3       		.byte	0xf3
 3944 010d 01       		.uleb128 0x1
 3945 010e 50       		.byte	0x50
 3946 010f 9F       		.byte	0x9f
 3947 0110 00000000 		.4byte	0
 3948 0114 00000000 		.4byte	0
 3949              	.LLST6:
 3950 0118 00000000 		.4byte	.LFB64
 3951 011c 04000000 		.4byte	.LCFI1
 3952 0120 0200     		.2byte	0x2
 3953 0122 7D       		.byte	0x7d
 3954 0123 00       		.sleb128 0
 3955 0124 04000000 		.4byte	.LCFI1
 3956 0128 2C000000 		.4byte	.LFE64
 3957 012c 0200     		.2byte	0x2
 3958 012e 7D       		.byte	0x7d
 3959 012f 08       		.sleb128 8
 3960 0130 00000000 		.4byte	0
 3961 0134 00000000 		.4byte	0
 3962              	.LLST7:
 3963 0138 00000000 		.4byte	.LVL10
 3964 013c 0C000000 		.4byte	.LVL12
 3965 0140 0100     		.2byte	0x1
 3966 0142 50       		.byte	0x50
 3967 0143 0C000000 		.4byte	.LVL12
 3968 0147 1A000000 		.4byte	.LVL16
 3969 014b 0400     		.2byte	0x4
 3970 014d F3       		.byte	0xf3
 3971 014e 01       		.uleb128 0x1
 3972 014f 50       		.byte	0x50
 3973 0150 9F       		.byte	0x9f
 3974 0151 1A000000 		.4byte	.LVL16
 3975 0155 24000000 		.4byte	.LVL19
 3976 0159 0100     		.2byte	0x1
 3977 015b 50       		.byte	0x50
 3978 015c 24000000 		.4byte	.LVL19
 3979 0160 2C000000 		.4byte	.LFE64
 3980 0164 0400     		.2byte	0x4
ARM GAS  /var/folders/dt/0wfd0knj7gs46m8vwfzktm600000gn/T//ccWoQfLH.s 			page 71


 3981 0166 F3       		.byte	0xf3
 3982 0167 01       		.uleb128 0x1
 3983 0168 50       		.byte	0x50
 3984 0169 9F       		.byte	0x9f
 3985 016a 00000000 		.4byte	0
 3986 016e 00000000 		.4byte	0
 3987              	.LLST8:
 3988 0172 00000000 		.4byte	.LVL10
 3989 0176 0A000000 		.4byte	.LVL11
 3990 017a 0100     		.2byte	0x1
 3991 017c 51       		.byte	0x51
 3992 017d 0A000000 		.4byte	.LVL11
 3993 0181 1A000000 		.4byte	.LVL16
 3994 0185 0400     		.2byte	0x4
 3995 0187 F3       		.byte	0xf3
 3996 0188 01       		.uleb128 0x1
 3997 0189 51       		.byte	0x51
 3998 018a 9F       		.byte	0x9f
 3999 018b 1A000000 		.4byte	.LVL16
 4000 018f 2C000000 		.4byte	.LFE64
 4001 0193 0100     		.2byte	0x1
 4002 0195 51       		.byte	0x51
 4003 0196 00000000 		.4byte	0
 4004 019a 00000000 		.4byte	0
 4005              	.LLST9:
 4006 019e 00000000 		.4byte	.LVL10
 4007 01a2 0E000000 		.4byte	.LVL13
 4008 01a6 0100     		.2byte	0x1
 4009 01a8 52       		.byte	0x52
 4010 01a9 0E000000 		.4byte	.LVL13
 4011 01ad 15000000 		.4byte	.LVL15-1
 4012 01b1 0100     		.2byte	0x1
 4013 01b3 51       		.byte	0x51
 4014 01b4 15000000 		.4byte	.LVL15-1
 4015 01b8 1A000000 		.4byte	.LVL16
 4016 01bc 0400     		.2byte	0x4
 4017 01be F3       		.byte	0xf3
 4018 01bf 01       		.uleb128 0x1
 4019 01c0 52       		.byte	0x52
 4020 01c1 9F       		.byte	0x9f
 4021 01c2 1A000000 		.4byte	.LVL16
 4022 01c6 2C000000 		.4byte	.LFE64
 4023 01ca 0100     		.2byte	0x1
 4024 01cc 52       		.byte	0x52
 4025 01cd 00000000 		.4byte	0
 4026 01d1 00000000 		.4byte	0
 4027              	.LLST10:
 4028 01d5 00000000 		.4byte	.LVL10
 4029 01d9 12000000 		.4byte	.LVL14
 4030 01dd 0100     		.2byte	0x1
 4031 01df 53       		.byte	0x53
 4032 01e0 12000000 		.4byte	.LVL14
 4033 01e4 15000000 		.4byte	.LVL15-1
 4034 01e8 0100     		.2byte	0x1
 4035 01ea 52       		.byte	0x52
 4036 01eb 15000000 		.4byte	.LVL15-1
 4037 01ef 1A000000 		.4byte	.LVL16
ARM GAS  /var/folders/dt/0wfd0knj7gs46m8vwfzktm600000gn/T//ccWoQfLH.s 			page 72


 4038 01f3 0100     		.2byte	0x1
 4039 01f5 54       		.byte	0x54
 4040 01f6 1A000000 		.4byte	.LVL16
 4041 01fa 1C000000 		.4byte	.LVL17
 4042 01fe 0100     		.2byte	0x1
 4043 0200 53       		.byte	0x53
 4044 0201 1C000000 		.4byte	.LVL17
 4045 0205 20000000 		.4byte	.LVL18
 4046 0209 0100     		.2byte	0x1
 4047 020b 54       		.byte	0x54
 4048 020c 20000000 		.4byte	.LVL18
 4049 0210 2C000000 		.4byte	.LFE64
 4050 0214 0400     		.2byte	0x4
 4051 0216 F3       		.byte	0xf3
 4052 0217 01       		.uleb128 0x1
 4053 0218 53       		.byte	0x53
 4054 0219 9F       		.byte	0x9f
 4055 021a 00000000 		.4byte	0
 4056 021e 00000000 		.4byte	0
 4057              	.LLST11:
 4058 0222 00000000 		.4byte	.LVL20
 4059 0226 02000000 		.4byte	.LVL21
 4060 022a 0100     		.2byte	0x1
 4061 022c 50       		.byte	0x50
 4062 022d 02000000 		.4byte	.LVL21
 4063 0231 04000000 		.4byte	.LFE65
 4064 0235 0400     		.2byte	0x4
 4065 0237 F3       		.byte	0xf3
 4066 0238 01       		.uleb128 0x1
 4067 0239 50       		.byte	0x50
 4068 023a 9F       		.byte	0x9f
 4069 023b 00000000 		.4byte	0
 4070 023f 00000000 		.4byte	0
 4071              	.LLST12:
 4072 0243 00000000 		.4byte	.LFB66
 4073 0247 02000000 		.4byte	.LCFI2
 4074 024b 0200     		.2byte	0x2
 4075 024d 7D       		.byte	0x7d
 4076 024e 00       		.sleb128 0
 4077 024f 02000000 		.4byte	.LCFI2
 4078 0253 18000000 		.4byte	.LFE66
 4079 0257 0200     		.2byte	0x2
 4080 0259 7D       		.byte	0x7d
 4081 025a 08       		.sleb128 8
 4082 025b 00000000 		.4byte	0
 4083 025f 00000000 		.4byte	0
 4084              	.LLST13:
 4085 0263 00000000 		.4byte	.LVL22
 4086 0267 06000000 		.4byte	.LVL23
 4087 026b 0100     		.2byte	0x1
 4088 026d 50       		.byte	0x50
 4089 026e 06000000 		.4byte	.LVL23
 4090 0272 18000000 		.4byte	.LFE66
 4091 0276 0100     		.2byte	0x1
 4092 0278 54       		.byte	0x54
 4093 0279 00000000 		.4byte	0
 4094 027d 00000000 		.4byte	0
ARM GAS  /var/folders/dt/0wfd0knj7gs46m8vwfzktm600000gn/T//ccWoQfLH.s 			page 73


 4095              	.LLST14:
 4096 0281 00000000 		.4byte	.LVL22
 4097 0285 09000000 		.4byte	.LVL24-1
 4098 0289 0100     		.2byte	0x1
 4099 028b 51       		.byte	0x51
 4100 028c 09000000 		.4byte	.LVL24-1
 4101 0290 18000000 		.4byte	.LFE66
 4102 0294 0400     		.2byte	0x4
 4103 0296 F3       		.byte	0xf3
 4104 0297 01       		.uleb128 0x1
 4105 0298 51       		.byte	0x51
 4106 0299 9F       		.byte	0x9f
 4107 029a 00000000 		.4byte	0
 4108 029e 00000000 		.4byte	0
 4109              	.LLST15:
 4110 02a2 0A000000 		.4byte	.LVL24
 4111 02a6 16000000 		.4byte	.LVL25
 4112 02aa 0100     		.2byte	0x1
 4113 02ac 50       		.byte	0x50
 4114 02ad 00000000 		.4byte	0
 4115 02b1 00000000 		.4byte	0
 4116              	.LLST16:
 4117 02b5 00000000 		.4byte	.LFB67
 4118 02b9 02000000 		.4byte	.LCFI3
 4119 02bd 0200     		.2byte	0x2
 4120 02bf 7D       		.byte	0x7d
 4121 02c0 00       		.sleb128 0
 4122 02c1 02000000 		.4byte	.LCFI3
 4123 02c5 18000000 		.4byte	.LFE67
 4124 02c9 0200     		.2byte	0x2
 4125 02cb 7D       		.byte	0x7d
 4126 02cc 08       		.sleb128 8
 4127 02cd 00000000 		.4byte	0
 4128 02d1 00000000 		.4byte	0
 4129              	.LLST17:
 4130 02d5 00000000 		.4byte	.LVL26
 4131 02d9 04000000 		.4byte	.LVL27
 4132 02dd 0100     		.2byte	0x1
 4133 02df 50       		.byte	0x50
 4134 02e0 04000000 		.4byte	.LVL27
 4135 02e4 18000000 		.4byte	.LFE67
 4136 02e8 0400     		.2byte	0x4
 4137 02ea F3       		.byte	0xf3
 4138 02eb 01       		.uleb128 0x1
 4139 02ec 50       		.byte	0x50
 4140 02ed 9F       		.byte	0x9f
 4141 02ee 00000000 		.4byte	0
 4142 02f2 00000000 		.4byte	0
 4143              	.LLST18:
 4144 02f6 00000000 		.4byte	.LVL26
 4145 02fa 08000000 		.4byte	.LVL28
 4146 02fe 0100     		.2byte	0x1
 4147 0300 51       		.byte	0x51
 4148 0301 08000000 		.4byte	.LVL28
 4149 0305 18000000 		.4byte	.LFE67
 4150 0309 0400     		.2byte	0x4
 4151 030b F3       		.byte	0xf3
ARM GAS  /var/folders/dt/0wfd0knj7gs46m8vwfzktm600000gn/T//ccWoQfLH.s 			page 74


 4152 030c 01       		.uleb128 0x1
 4153 030d 51       		.byte	0x51
 4154 030e 9F       		.byte	0x9f
 4155 030f 00000000 		.4byte	0
 4156 0313 00000000 		.4byte	0
 4157              	.LLST19:
 4158 0317 00000000 		.4byte	.LVL26
 4159 031b 0A000000 		.4byte	.LVL29
 4160 031f 0100     		.2byte	0x1
 4161 0321 52       		.byte	0x52
 4162 0322 0A000000 		.4byte	.LVL29
 4163 0326 0D000000 		.4byte	.LVL30-1
 4164 032a 0100     		.2byte	0x1
 4165 032c 50       		.byte	0x50
 4166 032d 0D000000 		.4byte	.LVL30-1
 4167 0331 18000000 		.4byte	.LFE67
 4168 0335 0100     		.2byte	0x1
 4169 0337 54       		.byte	0x54
 4170 0338 00000000 		.4byte	0
 4171 033c 00000000 		.4byte	0
 4172              	.LLST20:
 4173 0340 00000000 		.4byte	.LVL31
 4174 0344 02000000 		.4byte	.LVL32
 4175 0348 0100     		.2byte	0x1
 4176 034a 50       		.byte	0x50
 4177 034b 02000000 		.4byte	.LVL32
 4178 034f 04000000 		.4byte	.LFE68
 4179 0353 0400     		.2byte	0x4
 4180 0355 F3       		.byte	0xf3
 4181 0356 01       		.uleb128 0x1
 4182 0357 50       		.byte	0x50
 4183 0358 9F       		.byte	0x9f
 4184 0359 00000000 		.4byte	0
 4185 035d 00000000 		.4byte	0
 4186              		.section	.debug_aranges,"",%progbits
 4187 0000 4C000000 		.4byte	0x4c
 4188 0004 0200     		.2byte	0x2
 4189 0006 00000000 		.4byte	.Ldebug_info0
 4190 000a 04       		.byte	0x4
 4191 000b 00       		.byte	0
 4192 000c 0000     		.2byte	0
 4193 000e 0000     		.2byte	0
 4194 0010 00000000 		.4byte	.LFB62
 4195 0014 34000000 		.4byte	.LFE62-.LFB62
 4196 0018 00000000 		.4byte	.LFB63
 4197 001c 04000000 		.4byte	.LFE63-.LFB63
 4198 0020 00000000 		.4byte	.LFB64
 4199 0024 2C000000 		.4byte	.LFE64-.LFB64
 4200 0028 00000000 		.4byte	.LFB65
 4201 002c 04000000 		.4byte	.LFE65-.LFB65
 4202 0030 00000000 		.4byte	.LFB66
 4203 0034 18000000 		.4byte	.LFE66-.LFB66
 4204 0038 00000000 		.4byte	.LFB67
 4205 003c 18000000 		.4byte	.LFE67-.LFB67
 4206 0040 00000000 		.4byte	.LFB68
 4207 0044 04000000 		.4byte	.LFE68-.LFB68
 4208 0048 00000000 		.4byte	0
ARM GAS  /var/folders/dt/0wfd0knj7gs46m8vwfzktm600000gn/T//ccWoQfLH.s 			page 75


 4209 004c 00000000 		.4byte	0
 4210              		.section	.debug_ranges,"",%progbits
 4211              	.Ldebug_ranges0:
 4212 0000 00000000 		.4byte	.LFB62
 4213 0004 34000000 		.4byte	.LFE62
 4214 0008 00000000 		.4byte	.LFB63
 4215 000c 04000000 		.4byte	.LFE63
 4216 0010 00000000 		.4byte	.LFB64
 4217 0014 2C000000 		.4byte	.LFE64
 4218 0018 00000000 		.4byte	.LFB65
 4219 001c 04000000 		.4byte	.LFE65
 4220 0020 00000000 		.4byte	.LFB66
 4221 0024 18000000 		.4byte	.LFE66
 4222 0028 00000000 		.4byte	.LFB67
 4223 002c 18000000 		.4byte	.LFE67
 4224 0030 00000000 		.4byte	.LFB68
 4225 0034 04000000 		.4byte	.LFE68
 4226 0038 00000000 		.4byte	0
 4227 003c 00000000 		.4byte	0
 4228              		.section	.debug_line,"",%progbits
 4229              	.Ldebug_line0:
 4230 0000 C6030000 		.section	.debug_str,"MS",%progbits,1
 4230      02002303 
 4230      00000201 
 4230      FB0E0D00 
 4230      01010101 
 4231              	.LASF7:
 4232 0000 73697A65 		.ascii	"size_t\000"
 4232      5F7400
 4233              	.LASF18:
 4234 0007 73697A65 		.ascii	"sizetype\000"
 4234      74797065 
 4234      00
 4235              	.LASF20:
 4236 0010 5F5F7661 		.ascii	"__value\000"
 4236      6C756500 
 4237              	.LASF160:
 4238 0018 73797374 		.ascii	"systime_t\000"
 4238      696D655F 
 4238      7400
 4239              	.LASF89:
 4240 0022 5F5F7366 		.ascii	"__sf\000"
 4240      00
 4241              	.LASF249:
 4242 0027 63684951 		.ascii	"chIQReadTimeout\000"
 4242      52656164 
 4242      54696D65 
 4242      6F757400 
 4243              	.LASF165:
 4244 0037 705F6374 		.ascii	"p_ctx\000"
 4244      7800
 4245              	.LASF56:
 4246 003d 5F726561 		.ascii	"_read\000"
 4246      6400
 4247              	.LASF157:
 4248 0043 74707269 		.ascii	"tprio_t\000"
 4248      6F5F7400 
ARM GAS  /var/folders/dt/0wfd0knj7gs46m8vwfzktm600000gn/T//ccWoQfLH.s 			page 76


 4249              	.LASF146:
 4250 004b 73745F62 		.ascii	"st_blocks\000"
 4250      6C6F636B 
 4250      7300
 4251              	.LASF174:
 4252 0055 705F6D73 		.ascii	"p_msgqueue\000"
 4252      67717565 
 4252      756500
 4253              	.LASF57:
 4254 0060 5F777269 		.ascii	"_write\000"
 4254      746500
 4255              	.LASF150:
 4256 0067 696E7433 		.ascii	"int32_t\000"
 4256      325F7400 
 4257              	.LASF236:
 4258 006f 77726974 		.ascii	"writet\000"
 4258      657400
 4259              	.LASF101:
 4260 0076 5F617363 		.ascii	"_asctime_buf\000"
 4260      74696D65 
 4260      5F627566 
 4260      00
 4261              	.LASF83:
 4262 0083 5F637674 		.ascii	"_cvtlen\000"
 4262      6C656E00 
 4263              	.LASF244:
 4264 008b 5F736272 		.ascii	"_sbrk_r\000"
 4264      6B5F7200 
 4265              	.LASF125:
 4266 0093 6465765F 		.ascii	"dev_t\000"
 4266      7400
 4267              	.LASF129:
 4268 0099 6E6C696E 		.ascii	"nlink_t\000"
 4268      6B5F7400 
 4269              	.LASF250:
 4270 00a1 63684F51 		.ascii	"chOQWriteTimeout\000"
 4270      57726974 
 4270      6554696D 
 4270      656F7574 
 4270      00
 4271              	.LASF13:
 4272 00b2 5F5F6769 		.ascii	"__gid_t\000"
 4272      645F7400 
 4273              	.LASF120:
 4274 00ba 5F756E75 		.ascii	"_unused\000"
 4274      73656400 
 4275              	.LASF30:
 4276 00c2 5F5F746D 		.ascii	"__tm\000"
 4276      00
 4277              	.LASF116:
 4278 00c7 5F776373 		.ascii	"_wcsrtombs_state\000"
 4278      72746F6D 
 4278      62735F73 
 4278      74617465 
 4278      00
 4279              	.LASF61:
 4280 00d8 5F6E6275 		.ascii	"_nbuf\000"
ARM GAS  /var/folders/dt/0wfd0knj7gs46m8vwfzktm600000gn/T//ccWoQfLH.s 			page 77


 4280      6600
 4281              	.LASF31:
 4282 00de 5F5F746D 		.ascii	"__tm_sec\000"
 4282      5F736563 
 4282      00
 4283              	.LASF109:
 4284 00e7 5F6C3634 		.ascii	"_l64a_buf\000"
 4284      615F6275 
 4284      6600
 4285              	.LASF121:
 4286 00f1 74696D65 		.ascii	"time_t\000"
 4286      5F7400
 4287              	.LASF227:
 4288 00f8 73746174 		.ascii	"state\000"
 4288      6500
 4289              	.LASF65:
 4290 00fe 5F6C6F63 		.ascii	"_lock\000"
 4290      6B00
 4291              	.LASF97:
 4292 0104 5F6D756C 		.ascii	"_mult\000"
 4292      7400
 4293              	.LASF252:
 4294 010a 474E5520 		.ascii	"GNU C 4.7.2\000"
 4294      4320342E 
 4294      372E3200 
 4295              	.LASF187:
 4296 0116 6D5F6F77 		.ascii	"m_owner\000"
 4296      6E657200 
 4297              	.LASF170:
 4298 011e 705F666C 		.ascii	"p_flags\000"
 4298      61677300 
 4299              	.LASF16:
 4300 0126 5F5F7763 		.ascii	"__wch\000"
 4300      6800
 4301              	.LASF196:
 4302 012c 65786974 		.ascii	"exitcode\000"
 4302      636F6465 
 4302      00
 4303              	.LASF203:
 4304 0135 715F746F 		.ascii	"q_top\000"
 4304      7000
 4305              	.LASF11:
 4306 013b 5F5F6465 		.ascii	"__dev_t\000"
 4306      765F7400 
 4307              	.LASF126:
 4308 0143 7569645F 		.ascii	"uid_t\000"
 4308      7400
 4309              	.LASF53:
 4310 0149 5F66696C 		.ascii	"_file\000"
 4310      6500
 4311              	.LASF40:
 4312 014f 5F6F6E5F 		.ascii	"_on_exit_args\000"
 4312      65786974 
 4312      5F617267 
 4312      7300
 4313              	.LASF237:
 4314 015d 72656164 		.ascii	"readt\000"
ARM GAS  /var/folders/dt/0wfd0knj7gs46m8vwfzktm600000gn/T//ccWoQfLH.s 			page 78


 4314      7400
 4315              	.LASF202:
 4316 0163 715F6275 		.ascii	"q_buffer\000"
 4316      66666572 
 4316      00
 4317              	.LASF206:
 4318 016c 715F6E6F 		.ascii	"q_notify\000"
 4318      74696679 
 4318      00
 4319              	.LASF166:
 4320 0175 705F6E65 		.ascii	"p_newer\000"
 4320      77657200 
 4321              	.LASF112:
 4322 017d 5F6D6272 		.ascii	"_mbrlen_state\000"
 4322      6C656E5F 
 4322      73746174 
 4322      6500
 4323              	.LASF10:
 4324 018b 6C6F6E67 		.ascii	"long int\000"
 4324      20696E74 
 4324      00
 4325              	.LASF162:
 4326 0194 705F6E65 		.ascii	"p_next\000"
 4326      787400
 4327              	.LASF205:
 4328 019b 715F7264 		.ascii	"q_rdptr\000"
 4328      70747200 
 4329              	.LASF80:
 4330 01a3 5F726573 		.ascii	"_result_k\000"
 4330      756C745F 
 4330      6B00
 4331              	.LASF50:
 4332 01ad 5F73697A 		.ascii	"_size\000"
 4332      6500
 4333              	.LASF163:
 4334 01b3 705F7072 		.ascii	"p_prev\000"
 4334      657600
 4335              	.LASF102:
 4336 01ba 5F6C6F63 		.ascii	"_localtime_buf\000"
 4336      616C7469 
 4336      6D655F62 
 4336      756600
 4337              	.LASF155:
 4338 01c9 74737461 		.ascii	"tstate_t\000"
 4338      74655F74 
 4338      00
 4339              	.LASF177:
 4340 01d2 705F6D74 		.ascii	"p_mtxlist\000"
 4340      786C6973 
 4340      7400
 4341              	.LASF229:
 4342 01dc 6F717565 		.ascii	"oqueue\000"
 4342      756500
 4343              	.LASF182:
 4344 01e3 72656761 		.ascii	"regarm_t\000"
 4344      726D5F74 
 4344      00
ARM GAS  /var/folders/dt/0wfd0knj7gs46m8vwfzktm600000gn/T//ccWoQfLH.s 			page 79


 4345              	.LASF35:
 4346 01ec 5F5F746D 		.ascii	"__tm_mon\000"
 4346      5F6D6F6E 
 4346      00
 4347              	.LASF75:
 4348 01f5 5F637572 		.ascii	"_current_category\000"
 4348      72656E74 
 4348      5F636174 
 4348      65676F72 
 4348      7900
 4349              	.LASF230:
 4350 0207 75736172 		.ascii	"usart\000"
 4350      7400
 4351              	.LASF99:
 4352 020d 5F756E75 		.ascii	"_unused_rand\000"
 4352      7365645F 
 4352      72616E64 
 4352      00
 4353              	.LASF1:
 4354 021a 7369676E 		.ascii	"signed char\000"
 4354      65642063 
 4354      68617200 
 4355              	.LASF198:
 4356 0226 65776D61 		.ascii	"ewmask\000"
 4356      736B00
 4357              	.LASF148:
 4358 022d 75696E74 		.ascii	"uint8_t\000"
 4358      385F7400 
 4359              	.LASF140:
 4360 0235 73745F73 		.ascii	"st_spare1\000"
 4360      70617265 
 4360      3100
 4361              	.LASF135:
 4362 023f 73745F75 		.ascii	"st_uid\000"
 4362      696400
 4363              	.LASF144:
 4364 0246 73745F73 		.ascii	"st_spare3\000"
 4364      70617265 
 4364      3300
 4365              	.LASF147:
 4366 0250 73745F73 		.ascii	"st_spare4\000"
 4366      70617265 
 4366      3400
 4367              	.LASF159:
 4368 025a 6576656E 		.ascii	"eventmask_t\000"
 4368      746D6173 
 4368      6B5F7400 
 4369              	.LASF184:
 4370 0266 636F6E74 		.ascii	"context\000"
 4370      65787400 
 4371              	.LASF211:
 4372 026e 52455345 		.ascii	"RESERVED0\000"
 4372      52564544 
 4372      3000
 4373              	.LASF212:
 4374 0278 52455345 		.ascii	"RESERVED1\000"
 4374      52564544 
ARM GAS  /var/folders/dt/0wfd0knj7gs46m8vwfzktm600000gn/T//ccWoQfLH.s 			page 80


 4374      3100
 4375              	.LASF2:
 4376 0282 756E7369 		.ascii	"unsigned char\000"
 4376      676E6564 
 4376      20636861 
 4376      7200
 4377              	.LASF214:
 4378 0290 52455345 		.ascii	"RESERVED3\000"
 4378      52564544 
 4378      3300
 4379              	.LASF215:
 4380 029a 52455345 		.ascii	"RESERVED4\000"
 4380      52564544 
 4380      3400
 4381              	.LASF216:
 4382 02a4 52455345 		.ascii	"RESERVED5\000"
 4382      52564544 
 4382      3500
 4383              	.LASF218:
 4384 02ae 52455345 		.ascii	"RESERVED6\000"
 4384      52564544 
 4384      3600
 4385              	.LASF137:
 4386 02b8 73745F72 		.ascii	"st_rdev\000"
 4386      64657600 
 4387              	.LASF68:
 4388 02c0 5F726565 		.ascii	"_reent\000"
 4388      6E7400
 4389              	.LASF220:
 4390 02c7 53445F55 		.ascii	"SD_UNINIT\000"
 4390      4E494E49 
 4390      5400
 4391              	.LASF213:
 4392 02d1 52455345 		.ascii	"RESERVED2\000"
 4392      52564544 
 4392      3200
 4393              	.LASF181:
 4394 02db 54687265 		.ascii	"ThreadsList\000"
 4394      6164734C 
 4394      69737400 
 4395              	.LASF90:
 4396 02e7 63686172 		.ascii	"char\000"
 4396      00
 4397              	.LASF255:
 4398 02ec 6D656D73 		.ascii	"memset\000"
 4398      657400
 4399              	.LASF47:
 4400 02f3 5F666E73 		.ascii	"_fns\000"
 4400      00
 4401              	.LASF59:
 4402 02f8 5F636C6F 		.ascii	"_close\000"
 4402      736500
 4403              	.LASF164:
 4404 02ff 705F7072 		.ascii	"p_prio\000"
 4404      696F00
 4405              	.LASF199:
 4406 0306 47656E65 		.ascii	"GenericQueue\000"
ARM GAS  /var/folders/dt/0wfd0knj7gs46m8vwfzktm600000gn/T//ccWoQfLH.s 			page 81


 4406      72696351 
 4406      75657565 
 4406      00
 4407              	.LASF197:
 4408 0313 77746F62 		.ascii	"wtobjp\000"
 4408      6A7000
 4409              	.LASF70:
 4410 031a 5F737464 		.ascii	"_stdin\000"
 4410      696E00
 4411              	.LASF226:
 4412 0321 666C6167 		.ascii	"flags\000"
 4412      7300
 4413              	.LASF247:
 4414 0327 5F697361 		.ascii	"_isatty_r\000"
 4414      7474795F 
 4414      7200
 4415              	.LASF219:
 4416 0331 55534152 		.ascii	"USART_TypeDef\000"
 4416      545F5479 
 4416      70654465 
 4416      6600
 4417              	.LASF209:
 4418 033f 4F757470 		.ascii	"OutputQueue\000"
 4418      75745175 
 4418      65756500 
 4419              	.LASF156:
 4420 034b 74726566 		.ascii	"trefs_t\000"
 4420      735F7400 
 4421              	.LASF234:
 4422 0353 70757477 		.ascii	"putwouldblock\000"
 4422      6F756C64 
 4422      626C6F63 
 4422      6B00
 4423              	.LASF143:
 4424 0361 73745F63 		.ascii	"st_ctime\000"
 4424      74696D65 
 4424      00
 4425              	.LASF239:
 4426 036a 66696C65 		.ascii	"file\000"
 4426      00
 4427              	.LASF253:
 4428 036f 2E2E2F2E 		.ascii	"../../os/various/syscalls.c\000"
 4428      2E2F6F73 
 4428      2F766172 
 4428      696F7573 
 4428      2F737973 
 4429              	.LASF55:
 4430 038b 5F636F6F 		.ascii	"_cookie\000"
 4430      6B696500 
 4431              	.LASF183:
 4432 0393 696E7463 		.ascii	"intctx\000"
 4432      747800
 4433              	.LASF251:
 4434 039a 6368436F 		.ascii	"chCoreAlloc\000"
 4434      7265416C 
 4434      6C6F6300 
 4435              	.LASF176:
ARM GAS  /var/folders/dt/0wfd0knj7gs46m8vwfzktm600000gn/T//ccWoQfLH.s 			page 82


 4436 03a6 705F6570 		.ascii	"p_epending\000"
 4436      656E6469 
 4436      6E6700
 4437              	.LASF28:
 4438 03b1 5F776473 		.ascii	"_wds\000"
 4438      00
 4439              	.LASF87:
 4440 03b6 5F736967 		.ascii	"_sig_func\000"
 4440      5F66756E 
 4440      6300
 4441              	.LASF63:
 4442 03c0 5F6F6666 		.ascii	"_offset\000"
 4442      73657400 
 4443              	.LASF84:
 4444 03c8 5F637674 		.ascii	"_cvtbuf\000"
 4444      62756600 
 4445              	.LASF136:
 4446 03d0 73745F67 		.ascii	"st_gid\000"
 4446      696400
 4447              	.LASF194:
 4448 03d7 65735F6E 		.ascii	"es_next\000"
 4448      65787400 
 4449              	.LASF201:
 4450 03df 715F636F 		.ascii	"q_counter\000"
 4450      756E7465 
 4450      7200
 4451              	.LASF193:
 4452 03e9 4576656E 		.ascii	"EventSource\000"
 4452      74536F75 
 4452      72636500 
 4453              	.LASF123:
 4454 03f5 696E6F5F 		.ascii	"ino_t\000"
 4454      7400
 4455              	.LASF81:
 4456 03fb 5F703573 		.ascii	"_p5s\000"
 4456      00
 4457              	.LASF24:
 4458 0400 6C6F6E67 		.ascii	"long unsigned int\000"
 4458      20756E73 
 4458      69676E65 
 4458      6420696E 
 4458      7400
 4459              	.LASF51:
 4460 0412 5F5F7346 		.ascii	"__sFILE\000"
 4460      494C4500 
 4461              	.LASF77:
 4462 041a 5F5F7364 		.ascii	"__sdidinit\000"
 4462      6964696E 
 4462      697400
 4463              	.LASF67:
 4464 0425 5F666C61 		.ascii	"_flags2\000"
 4464      67733200 
 4465              	.LASF138:
 4466 042d 73745F73 		.ascii	"st_size\000"
 4466      697A6500 
 4467              	.LASF8:
 4468 0435 5F4C4F43 		.ascii	"_LOCK_RECURSIVE_T\000"
ARM GAS  /var/folders/dt/0wfd0knj7gs46m8vwfzktm600000gn/T//ccWoQfLH.s 			page 83


 4468      4B5F5245 
 4468      43555253 
 4468      4956455F 
 4468      5400
 4469              	.LASF190:
 4470 0447 656C5F6E 		.ascii	"el_next\000"
 4470      65787400 
 4471              	.LASF69:
 4472 044f 5F657272 		.ascii	"_errno\000"
 4472      6E6F00
 4473              	.LASF204:
 4474 0456 715F7772 		.ascii	"q_wrptr\000"
 4474      70747200 
 4475              	.LASF142:
 4476 045e 73745F73 		.ascii	"st_spare2\000"
 4476      70617265 
 4476      3200
 4477              	.LASF110:
 4478 0468 5F736967 		.ascii	"_signal_buf\000"
 4478      6E616C5F 
 4478      62756600 
 4479              	.LASF231:
 4480 0474 53657269 		.ascii	"SerialDriverVMT\000"
 4480      616C4472 
 4480      69766572 
 4480      564D5400 
 4481              	.LASF232:
 4482 0484 77726974 		.ascii	"write\000"
 4482      6500
 4483              	.LASF243:
 4484 048a 5F636C6F 		.ascii	"_close_r\000"
 4484      73655F72 
 4484      00
 4485              	.LASF29:
 4486 0493 5F426967 		.ascii	"_Bigint\000"
 4486      696E7400 
 4487              	.LASF26:
 4488 049b 5F6D6178 		.ascii	"_maxwds\000"
 4488      77647300 
 4489              	.LASF78:
 4490 04a3 5F5F636C 		.ascii	"__cleanup\000"
 4490      65616E75 
 4490      7000
 4491              	.LASF86:
 4492 04ad 5F617465 		.ascii	"_atexit0\000"
 4492      78697430 
 4492      00
 4493              	.LASF130:
 4494 04b6 73746174 		.ascii	"stat\000"
 4494      00
 4495              	.LASF145:
 4496 04bb 73745F62 		.ascii	"st_blksize\000"
 4496      6C6B7369 
 4496      7A6500
 4497              	.LASF74:
 4498 04c6 5F656D65 		.ascii	"_emergency\000"
 4498      7267656E 
ARM GAS  /var/folders/dt/0wfd0knj7gs46m8vwfzktm600000gn/T//ccWoQfLH.s 			page 84


 4498      637900
 4499              	.LASF185:
 4500 04d1 4D757465 		.ascii	"Mutex\000"
 4500      7800
 4501              	.LASF5:
 4502 04d7 6C6F6E67 		.ascii	"long long int\000"
 4502      206C6F6E 
 4502      6720696E 
 4502      7400
 4503              	.LASF186:
 4504 04e5 6D5F7175 		.ascii	"m_queue\000"
 4504      65756500 
 4505              	.LASF93:
 4506 04ed 5F6E696F 		.ascii	"_niobs\000"
 4506      627300
 4507              	.LASF88:
 4508 04f4 5F5F7367 		.ascii	"__sglue\000"
 4508      6C756500 
 4509              	.LASF119:
 4510 04fc 5F6E6D61 		.ascii	"_nmalloc\000"
 4510      6C6C6F63 
 4510      00
 4511              	.LASF217:
 4512 0505 47545052 		.ascii	"GTPR\000"
 4512      00
 4513              	.LASF103:
 4514 050a 5F67616D 		.ascii	"_gamma_signgam\000"
 4514      6D615F73 
 4514      69676E67 
 4514      616D00
 4515              	.LASF76:
 4516 0519 5F637572 		.ascii	"_current_locale\000"
 4516      72656E74 
 4516      5F6C6F63 
 4516      616C6500 
 4517              	.LASF82:
 4518 0529 5F667265 		.ascii	"_freelist\000"
 4518      656C6973 
 4518      7400
 4519              	.LASF94:
 4520 0533 5F696F62 		.ascii	"_iobs\000"
 4520      7300
 4521              	.LASF92:
 4522 0539 5F676C75 		.ascii	"_glue\000"
 4522      6500
 4523              	.LASF248:
 4524 053f 49544D5F 		.ascii	"ITM_RxBuffer\000"
 4524      52784275 
 4524      66666572 
 4524      00
 4525              	.LASF27:
 4526 054c 5F736967 		.ascii	"_sign\000"
 4526      6E00
 4527              	.LASF207:
 4528 0552 716E6F74 		.ascii	"qnotify_t\000"
 4528      6966795F 
 4528      7400
ARM GAS  /var/folders/dt/0wfd0knj7gs46m8vwfzktm600000gn/T//ccWoQfLH.s 			page 85


 4529              	.LASF173:
 4530 055c 705F7761 		.ascii	"p_waiting\000"
 4530      6974696E 
 4530      6700
 4531              	.LASF225:
 4532 0566 6576656E 		.ascii	"event\000"
 4532      7400
 4533              	.LASF233:
 4534 056c 72656164 		.ascii	"read\000"
 4534      00
 4535              	.LASF0:
 4536 0571 756E7369 		.ascii	"unsigned int\000"
 4536      676E6564 
 4536      20696E74 
 4536      00
 4537              	.LASF242:
 4538 057e 5F777269 		.ascii	"_write_r\000"
 4538      74655F72 
 4538      00
 4539              	.LASF122:
 4540 0587 63616464 		.ascii	"caddr_t\000"
 4540      725F7400 
 4541              	.LASF179:
 4542 058f 705F6D70 		.ascii	"p_mpool\000"
 4542      6F6F6C00 
 4543              	.LASF117:
 4544 0597 5F685F65 		.ascii	"_h_errno\000"
 4544      72726E6F 
 4544      00
 4545              	.LASF245:
 4546 05a0 696E6372 		.ascii	"incr\000"
 4546      00
 4547              	.LASF171:
 4548 05a5 705F7265 		.ascii	"p_refs\000"
 4548      667300
 4549              	.LASF115:
 4550 05ac 5F776372 		.ascii	"_wcrtomb_state\000"
 4550      746F6D62 
 4550      5F737461 
 4550      746500
 4551              	.LASF34:
 4552 05bb 5F5F746D 		.ascii	"__tm_mday\000"
 4552      5F6D6461 
 4552      7900
 4553              	.LASF85:
 4554 05c5 5F6E6577 		.ascii	"_new\000"
 4554      00
 4555              	.LASF60:
 4556 05ca 5F756275 		.ascii	"_ubuf\000"
 4556      6600
 4557              	.LASF72:
 4558 05d0 5F737464 		.ascii	"_stderr\000"
 4558      65727200 
 4559              	.LASF108:
 4560 05d8 5F776374 		.ascii	"_wctomb_state\000"
 4560      6F6D625F 
 4560      73746174 
ARM GAS  /var/folders/dt/0wfd0knj7gs46m8vwfzktm600000gn/T//ccWoQfLH.s 			page 86


 4560      6500
 4561              	.LASF66:
 4562 05e6 5F6D6273 		.ascii	"_mbstate\000"
 4562      74617465 
 4562      00
 4563              	.LASF104:
 4564 05ef 5F72616E 		.ascii	"_rand_next\000"
 4564      645F6E65 
 4564      787400
 4565              	.LASF52:
 4566 05fa 5F666C61 		.ascii	"_flags\000"
 4566      677300
 4567              	.LASF45:
 4568 0601 5F617465 		.ascii	"_atexit\000"
 4568      78697400 
 4569              	.LASF172:
 4570 0609 705F7469 		.ascii	"p_time\000"
 4570      6D6500
 4571              	.LASF19:
 4572 0610 5F5F636F 		.ascii	"__count\000"
 4572      756E7400 
 4573              	.LASF134:
 4574 0618 73745F6E 		.ascii	"st_nlink\000"
 4574      6C696E6B 
 4574      00
 4575              	.LASF124:
 4576 0621 6F66665F 		.ascii	"off_t\000"
 4576      7400
 4577              	.LASF128:
 4578 0627 6D6F6465 		.ascii	"mode_t\000"
 4578      5F7400
 4579              	.LASF37:
 4580 062e 5F5F746D 		.ascii	"__tm_wday\000"
 4580      5F776461 
 4580      7900
 4581              	.LASF139:
 4582 0638 73745F61 		.ascii	"st_atime\000"
 4582      74696D65 
 4582      00
 4583              	.LASF38:
 4584 0641 5F5F746D 		.ascii	"__tm_yday\000"
 4584      5F796461 
 4584      7900
 4585              	.LASF178:
 4586 064b 705F7265 		.ascii	"p_realprio\000"
 4586      616C7072 
 4586      696F00
 4587              	.LASF235:
 4588 0656 67657477 		.ascii	"getwouldblock\000"
 4588      6F756C64 
 4588      626C6F63 
 4588      6B00
 4589              	.LASF96:
 4590 0664 5F736565 		.ascii	"_seed\000"
 4590      6400
 4591              	.LASF58:
 4592 066a 5F736565 		.ascii	"_seek\000"
ARM GAS  /var/folders/dt/0wfd0knj7gs46m8vwfzktm600000gn/T//ccWoQfLH.s 			page 87


 4592      6B00
 4593              	.LASF131:
 4594 0670 73745F64 		.ascii	"st_dev\000"
 4594      657600
 4595              	.LASF14:
 4596 0677 5F66706F 		.ascii	"_fpos_t\000"
 4596      735F7400 
 4597              	.LASF17:
 4598 067f 5F5F7763 		.ascii	"__wchb\000"
 4598      686200
 4599              	.LASF107:
 4600 0686 5F6D6274 		.ascii	"_mbtowc_state\000"
 4600      6F77635F 
 4600      73746174 
 4600      6500
 4601              	.LASF6:
 4602 0694 6C6F6E67 		.ascii	"long long unsigned int\000"
 4602      206C6F6E 
 4602      6720756E 
 4602      7369676E 
 4602      65642069 
 4603              	.LASF167:
 4604 06ab 705F6F6C 		.ascii	"p_older\000"
 4604      64657200 
 4605              	.LASF149:
 4606 06b3 75696E74 		.ascii	"uint16_t\000"
 4606      31365F74 
 4606      00
 4607              	.LASF42:
 4608 06bc 5F64736F 		.ascii	"_dso_handle\000"
 4608      5F68616E 
 4608      646C6500 
 4609              	.LASF158:
 4610 06c8 6D73675F 		.ascii	"msg_t\000"
 4610      7400
 4611              	.LASF254:
 4612 06ce 2F557365 		.ascii	"/Users/toxygen/Projects/UAV/Control_sytem/sw/autopi"
 4612      72732F74 
 4612      6F787967 
 4612      656E2F50 
 4612      726F6A65 
 4613 0701 6C6F742F 		.ascii	"lot/2.4.3/demos/STM32F103-sdspi\000"
 4613      322E342E 
 4613      332F6465 
 4613      6D6F732F 
 4613      53544D33 
 4614              	.LASF95:
 4615 0721 5F72616E 		.ascii	"_rand48\000"
 4615      64343800 
 4616              	.LASF71:
 4617 0729 5F737464 		.ascii	"_stdout\000"
 4617      6F757400 
 4618              	.LASF62:
 4619 0731 5F626C6B 		.ascii	"_blksize\000"
 4619      73697A65 
 4619      00
 4620              	.LASF49:
ARM GAS  /var/folders/dt/0wfd0knj7gs46m8vwfzktm600000gn/T//ccWoQfLH.s 			page 88


 4621 073a 5F626173 		.ascii	"_base\000"
 4621      6500
 4622              	.LASF246:
 4623 0740 5F667374 		.ascii	"_fstat_r\000"
 4623      61745F72 
 4623      00
 4624              	.LASF100:
 4625 0749 5F737472 		.ascii	"_strtok_last\000"
 4625      746F6B5F 
 4625      6C617374 
 4625      00
 4626              	.LASF113:
 4627 0756 5F6D6272 		.ascii	"_mbrtowc_state\000"
 4627      746F7763 
 4627      5F737461 
 4627      746500
 4628              	.LASF22:
 4629 0765 5F666C6F 		.ascii	"_flock_t\000"
 4629      636B5F74 
 4629      00
 4630              	.LASF91:
 4631 076e 5F5F4649 		.ascii	"__FILE\000"
 4631      4C4500
 4632              	.LASF21:
 4633 0775 5F6D6273 		.ascii	"_mbstate_t\000"
 4633      74617465 
 4633      5F7400
 4634              	.LASF105:
 4635 0780 5F723438 		.ascii	"_r48\000"
 4635      00
 4636              	.LASF15:
 4637 0785 77696E74 		.ascii	"wint_t\000"
 4637      5F7400
 4638              	.LASF224:
 4639 078c 53657269 		.ascii	"SerialDriver\000"
 4639      616C4472 
 4639      69766572 
 4639      00
 4640              	.LASF25:
 4641 0799 5F6E6578 		.ascii	"_next\000"
 4641      7400
 4642              	.LASF64:
 4643 079f 5F646174 		.ascii	"_data\000"
 4643      6100
 4644              	.LASF200:
 4645 07a5 715F7761 		.ascii	"q_waiting\000"
 4645      6974696E 
 4645      6700
 4646              	.LASF210:
 4647 07af 696F666C 		.ascii	"ioflags_t\000"
 4647      6167735F 
 4647      7400
 4648              	.LASF154:
 4649 07b9 746D6F64 		.ascii	"tmode_t\000"
 4649      655F7400 
 4650              	.LASF223:
 4651 07c1 73647374 		.ascii	"sdstate_t\000"
ARM GAS  /var/folders/dt/0wfd0knj7gs46m8vwfzktm600000gn/T//ccWoQfLH.s 			page 89


 4651      6174655F 
 4651      7400
 4652              	.LASF141:
 4653 07cb 73745F6D 		.ascii	"st_mtime\000"
 4653      74696D65 
 4653      00
 4654              	.LASF222:
 4655 07d4 53445F52 		.ascii	"SD_READY\000"
 4655      45414459 
 4655      00
 4656              	.LASF106:
 4657 07dd 5F6D626C 		.ascii	"_mblen_state\000"
 4657      656E5F73 
 4657      74617465 
 4657      00
 4658              	.LASF3:
 4659 07ea 73686F72 		.ascii	"short int\000"
 4659      7420696E 
 4659      7400
 4660              	.LASF228:
 4661 07f4 69717565 		.ascii	"iqueue\000"
 4661      756500
 4662              	.LASF43:
 4663 07fb 5F666E74 		.ascii	"_fntypes\000"
 4663      79706573 
 4663      00
 4664              	.LASF36:
 4665 0804 5F5F746D 		.ascii	"__tm_year\000"
 4665      5F796561 
 4665      7200
 4666              	.LASF153:
 4667 080e 626F6F6C 		.ascii	"bool_t\000"
 4667      5F7400
 4668              	.LASF161:
 4669 0815 54687265 		.ascii	"Thread\000"
 4669      616400
 4670              	.LASF54:
 4671 081c 5F6C6266 		.ascii	"_lbfsize\000"
 4671      73697A65 
 4671      00
 4672              	.LASF238:
 4673 0825 67657466 		.ascii	"getflags\000"
 4673      6C616773 
 4673      00
 4674              	.LASF73:
 4675 082e 5F696E63 		.ascii	"_inc\000"
 4675      00
 4676              	.LASF46:
 4677 0833 5F696E64 		.ascii	"_ind\000"
 4677      00
 4678              	.LASF48:
 4679 0838 5F5F7362 		.ascii	"__sbuf\000"
 4679      756600
 4680              	.LASF241:
 4681 083f 5F6C7365 		.ascii	"_lseek_r\000"
 4681      656B5F72 
 4681      00
ARM GAS  /var/folders/dt/0wfd0knj7gs46m8vwfzktm600000gn/T//ccWoQfLH.s 			page 90


 4682              	.LASF44:
 4683 0848 5F69735F 		.ascii	"_is_cxa\000"
 4683      63786100 
 4684              	.LASF133:
 4685 0850 73745F6D 		.ascii	"st_mode\000"
 4685      6F646500 
 4686              	.LASF12:
 4687 0858 5F5F7569 		.ascii	"__uid_t\000"
 4687      645F7400 
 4688              	.LASF118:
 4689 0860 5F6E6578 		.ascii	"_nextf\000"
 4689      746600
 4690              	.LASF189:
 4691 0867 4576656E 		.ascii	"EventListener\000"
 4691      744C6973 
 4691      74656E65 
 4691      7200
 4692              	.LASF23:
 4693 0875 5F5F554C 		.ascii	"__ULong\000"
 4693      6F6E6700 
 4694              	.LASF151:
 4695 087d 75696E74 		.ascii	"uint32_t\000"
 4695      33325F74 
 4695      00
 4696              	.LASF79:
 4697 0886 5F726573 		.ascii	"_result\000"
 4697      756C7400 
 4698              	.LASF180:
 4699 088e 54687265 		.ascii	"ThreadsQueue\000"
 4699      61647351 
 4699      75657565 
 4699      00
 4700              	.LASF152:
 4701 089b 75696E74 		.ascii	"uint_fast16_t\000"
 4701      5F666173 
 4701      7431365F 
 4701      7400
 4702              	.LASF9:
 4703 08a9 5F6F6666 		.ascii	"_off_t\000"
 4703      5F7400
 4704              	.LASF195:
 4705 08b0 7264796D 		.ascii	"rdymsg\000"
 4705      736700
 4706              	.LASF98:
 4707 08b7 5F616464 		.ascii	"_add\000"
 4707      00
 4708              	.LASF4:
 4709 08bc 73686F72 		.ascii	"short unsigned int\000"
 4709      7420756E 
 4709      7369676E 
 4709      65642069 
 4709      6E7400
 4710              	.LASF33:
 4711 08cf 5F5F746D 		.ascii	"__tm_hour\000"
 4711      5F686F75 
 4711      7200
 4712              	.LASF208:
ARM GAS  /var/folders/dt/0wfd0knj7gs46m8vwfzktm600000gn/T//ccWoQfLH.s 			page 91


 4713 08d9 496E7075 		.ascii	"InputQueue\000"
 4713      74517565 
 4713      756500
 4714              	.LASF114:
 4715 08e4 5F6D6273 		.ascii	"_mbsrtowcs_state\000"
 4715      72746F77 
 4715      63735F73 
 4715      74617465 
 4715      00
 4716              	.LASF221:
 4717 08f5 53445F53 		.ascii	"SD_STOP\000"
 4717      544F5000 
 4718              	.LASF192:
 4719 08fd 656C5F6D 		.ascii	"el_mask\000"
 4719      61736B00 
 4720              	.LASF240:
 4721 0905 5F726561 		.ascii	"_read_r\000"
 4721      645F7200 
 4722              	.LASF132:
 4723 090d 73745F69 		.ascii	"st_ino\000"
 4723      6E6F00
 4724              	.LASF41:
 4725 0914 5F666E61 		.ascii	"_fnargs\000"
 4725      72677300 
 4726              	.LASF39:
 4727 091c 5F5F746D 		.ascii	"__tm_isdst\000"
 4727      5F697364 
 4727      737400
 4728              	.LASF168:
 4729 0927 705F6E61 		.ascii	"p_name\000"
 4729      6D6500
 4730              	.LASF127:
 4731 092e 6769645F 		.ascii	"gid_t\000"
 4731      7400
 4732              	.LASF188:
 4733 0934 6D5F6E65 		.ascii	"m_next\000"
 4733      787400
 4734              	.LASF32:
 4735 093b 5F5F746D 		.ascii	"__tm_min\000"
 4735      5F6D696E 
 4735      00
 4736              	.LASF111:
 4737 0944 5F676574 		.ascii	"_getdate_err\000"
 4737      64617465 
 4737      5F657272 
 4737      00
 4738              	.LASF175:
 4739 0951 705F6D73 		.ascii	"p_msg\000"
 4739      6700
 4740              	.LASF191:
 4741 0957 656C5F6C 		.ascii	"el_listener\000"
 4741      69737465 
 4741      6E657200 
 4742              	.LASF169:
 4743 0963 705F7374 		.ascii	"p_state\000"
 4743      61746500 
 4744              		.ident	"GCC: (GNU) 4.7.2"
ARM GAS  /var/folders/dt/0wfd0knj7gs46m8vwfzktm600000gn/T//ccWoQfLH.s 			page 92


ARM GAS  /var/folders/dt/0wfd0knj7gs46m8vwfzktm600000gn/T//ccWoQfLH.s 			page 93


DEFINED SYMBOLS
                            *ABS*:0000000000000000 syscalls.c
/var/folders/dt/0wfd0knj7gs46m8vwfzktm600000gn/T//ccWoQfLH.s:19     .text._read_r:0000000000000000 $t
/var/folders/dt/0wfd0knj7gs46m8vwfzktm600000gn/T//ccWoQfLH.s:25     .text._read_r:0000000000000000 _read_r
/var/folders/dt/0wfd0knj7gs46m8vwfzktm600000gn/T//ccWoQfLH.s:76     .text._read_r:0000000000000030 $d
/var/folders/dt/0wfd0knj7gs46m8vwfzktm600000gn/T//ccWoQfLH.s:81     .text._lseek_r:0000000000000000 $t
/var/folders/dt/0wfd0knj7gs46m8vwfzktm600000gn/T//ccWoQfLH.s:87     .text._lseek_r:0000000000000000 _lseek_r
/var/folders/dt/0wfd0knj7gs46m8vwfzktm600000gn/T//ccWoQfLH.s:103    .text._write_r:0000000000000000 $t
/var/folders/dt/0wfd0knj7gs46m8vwfzktm600000gn/T//ccWoQfLH.s:109    .text._write_r:0000000000000000 _write_r
/var/folders/dt/0wfd0knj7gs46m8vwfzktm600000gn/T//ccWoQfLH.s:159    .text._write_r:0000000000000028 $d
/var/folders/dt/0wfd0knj7gs46m8vwfzktm600000gn/T//ccWoQfLH.s:164    .text._close_r:0000000000000000 $t
/var/folders/dt/0wfd0knj7gs46m8vwfzktm600000gn/T//ccWoQfLH.s:170    .text._close_r:0000000000000000 _close_r
/var/folders/dt/0wfd0knj7gs46m8vwfzktm600000gn/T//ccWoQfLH.s:186    .text._sbrk_r:0000000000000000 $t
/var/folders/dt/0wfd0knj7gs46m8vwfzktm600000gn/T//ccWoQfLH.s:192    .text._sbrk_r:0000000000000000 _sbrk_r
/var/folders/dt/0wfd0knj7gs46m8vwfzktm600000gn/T//ccWoQfLH.s:228    .text._fstat_r:0000000000000000 $t
/var/folders/dt/0wfd0knj7gs46m8vwfzktm600000gn/T//ccWoQfLH.s:234    .text._fstat_r:0000000000000000 _fstat_r
/var/folders/dt/0wfd0knj7gs46m8vwfzktm600000gn/T//ccWoQfLH.s:268    .text._isatty_r:0000000000000000 $t
/var/folders/dt/0wfd0knj7gs46m8vwfzktm600000gn/T//ccWoQfLH.s:274    .text._isatty_r:0000000000000000 _isatty_r
                     .debug_frame:0000000000000010 $d
/var/folders/dt/0wfd0knj7gs46m8vwfzktm600000gn/T//ccWoQfLH.s:80     .text._read_r:0000000000000034 $t
/var/folders/dt/0wfd0knj7gs46m8vwfzktm600000gn/T//ccWoQfLH.s:163    .text._write_r:000000000000002c $t

UNDEFINED SYMBOLS
chIQReadTimeout
SD2
chOQWriteTimeout
chCoreAlloc
memset
