ARM GAS  /var/folders/dt/0wfd0knj7gs46m8vwfzktm600000gn/T//ccgwL2QU.s 			page 1


   1              		.syntax unified
   2              		.cpu cortex-m3
   3              		.fpu softvfp
   4              		.eabi_attribute 20, 1
   5              		.eabi_attribute 21, 1
   6              		.eabi_attribute 23, 3
   7              		.eabi_attribute 24, 1
   8              		.eabi_attribute 25, 1
   9              		.eabi_attribute 26, 1
  10              		.eabi_attribute 30, 2
  11              		.eabi_attribute 34, 1
  12              		.eabi_attribute 18, 4
  13              		.thumb
  14              		.file	"testbmk.c"
  15              		.text
  16              	.Ltext0:
  17              		.cfi_sections	.debug_frame
  18              		.section	.text.thread2,"ax",%progbits
  19              		.align	2
  20              		.p2align 4,,15
  21              		.thumb
  22              		.thumb_func
  23              		.type	thread2, %function
  24              	thread2:
  25              	.LFB11:
  26              		.file 1 "../../test/testbmk.c"
  27              		.loc 1 165 0
  28              		.cfi_startproc
  29              		@ args = 0, pretend = 0, frame = 0
  30              		@ frame_needed = 0, uses_anonymous_args = 0
  31              		@ link register save eliminated.
  32              	.LVL0:
  33              		.loc 1 168 0
  34 0000 7047     		bx	lr
  35              		.cfi_endproc
  36              	.LFE11:
  37              		.size	thread2, .-thread2
  38 0002 00BFAFF3 		.section	.text.tmo,"ax",%progbits
  38      0080AFF3 
  38      0080AFF3 
  38      0080
  39              		.align	2
  40              		.p2align 4,,15
  41              		.thumb
  42              		.thumb_func
  43              		.type	tmo, %function
  44              	tmo:
  45              	.LFB23:
  46              		.loc 1 511 0
  47              		.cfi_startproc
  48              		@ args = 0, pretend = 0, frame = 0
  49              		@ frame_needed = 0, uses_anonymous_args = 0
  50              		@ link register save eliminated.
  51              	.LVL1:
  52 0000 7047     		bx	lr
  53              		.cfi_endproc
  54              	.LFE23:
ARM GAS  /var/folders/dt/0wfd0knj7gs46m8vwfzktm600000gn/T//ccgwL2QU.s 			page 2


  55              		.size	tmo, .-tmo
  56 0002 00BFAFF3 		.section	.text.bmk13_execute,"ax",%progbits
  56      0080AFF3 
  56      0080AFF3 
  56      0080
  57              		.align	2
  58              		.p2align 4,,15
  59              		.thumb
  60              		.thumb_func
  61              		.type	bmk13_execute, %function
  62              	bmk13_execute:
  63              	.LFB29:
  64              		.loc 1 644 0
  65              		.cfi_startproc
  66              		@ args = 0, pretend = 0, frame = 0
  67              		@ frame_needed = 0, uses_anonymous_args = 0
  68              		.loc 1 646 0
  69 0000 40F20000 		movw	r0, #:lower16:.LC0
  70              		.loc 1 644 0
  71 0004 10B5     		push	{r4, lr}
  72              	.LCFI0:
  73              		.cfi_def_cfa_offset 8
  74              		.cfi_offset 4, -8
  75              		.cfi_offset 14, -4
  76              		.loc 1 646 0
  77 0006 C0F20000 		movt	r0, #:upper16:.LC0
  78              		.loc 1 652 0
  79 000a 40F20004 		movw	r4, #:lower16:.LC1
  80 000e C0F20004 		movt	r4, #:upper16:.LC1
  81              		.loc 1 646 0
  82 0012 FFF7FEFF 		bl	test_print
  83              	.LVL2:
  84              		.loc 1 647 0
  85 0016 4FF4CC70 		mov	r0, #408
  86 001a FFF7FEFF 		bl	test_printn
  87              	.LVL3:
  88              		.loc 1 652 0
  89 001e 2046     		mov	r0, r4
  90 0020 FFF7FEFF 		bl	test_println
  91              	.LVL4:
  92              		.loc 1 653 0
  93 0024 40F20000 		movw	r0, #:lower16:.LC2
  94 0028 C0F20000 		movt	r0, #:upper16:.LC2
  95 002c FFF7FEFF 		bl	test_print
  96              	.LVL5:
  97              		.loc 1 654 0
  98 0030 4820     		movs	r0, #72
  99 0032 FFF7FEFF 		bl	test_printn
 100              	.LVL6:
 101              		.loc 1 655 0
 102 0036 2046     		mov	r0, r4
 103 0038 FFF7FEFF 		bl	test_println
 104              	.LVL7:
 105              		.loc 1 656 0
 106 003c 40F20000 		movw	r0, #:lower16:.LC3
 107 0040 C0F20000 		movt	r0, #:upper16:.LC3
 108 0044 FFF7FEFF 		bl	test_print
ARM GAS  /var/folders/dt/0wfd0knj7gs46m8vwfzktm600000gn/T//ccgwL2QU.s 			page 3


 109              	.LVL8:
 110              		.loc 1 657 0
 111 0048 1420     		movs	r0, #20
 112 004a FFF7FEFF 		bl	test_printn
 113              	.LVL9:
 114              		.loc 1 658 0
 115 004e 2046     		mov	r0, r4
 116 0050 FFF7FEFF 		bl	test_println
 117              	.LVL10:
 118              		.loc 1 659 0
 119 0054 40F20000 		movw	r0, #:lower16:.LC4
 120 0058 C0F20000 		movt	r0, #:upper16:.LC4
 121 005c FFF7FEFF 		bl	test_print
 122              	.LVL11:
 123              		.loc 1 660 0
 124 0060 0C20     		movs	r0, #12
 125 0062 FFF7FEFF 		bl	test_printn
 126              	.LVL12:
 127              		.loc 1 661 0
 128 0066 2046     		mov	r0, r4
 129 0068 FFF7FEFF 		bl	test_println
 130              	.LVL13:
 131              		.loc 1 663 0
 132 006c 40F20000 		movw	r0, #:lower16:.LC5
 133 0070 C0F20000 		movt	r0, #:upper16:.LC5
 134 0074 FFF7FEFF 		bl	test_print
 135              	.LVL14:
 136              		.loc 1 664 0
 137 0078 0420     		movs	r0, #4
 138 007a FFF7FEFF 		bl	test_printn
 139              	.LVL15:
 140              		.loc 1 665 0
 141 007e 2046     		mov	r0, r4
 142 0080 FFF7FEFF 		bl	test_println
 143              	.LVL16:
 144              		.loc 1 666 0
 145 0084 40F20000 		movw	r0, #:lower16:.LC6
 146 0088 C0F20000 		movt	r0, #:upper16:.LC6
 147 008c FFF7FEFF 		bl	test_print
 148              	.LVL17:
 149              		.loc 1 667 0
 150 0090 0C20     		movs	r0, #12
 151 0092 FFF7FEFF 		bl	test_printn
 152              	.LVL18:
 153              		.loc 1 668 0
 154 0096 2046     		mov	r0, r4
 155 0098 FFF7FEFF 		bl	test_println
 156              	.LVL19:
 157              		.loc 1 671 0
 158 009c 40F20000 		movw	r0, #:lower16:.LC7
 159 00a0 C0F20000 		movt	r0, #:upper16:.LC7
 160 00a4 FFF7FEFF 		bl	test_print
 161              	.LVL20:
 162              		.loc 1 672 0
 163 00a8 1020     		movs	r0, #16
 164 00aa FFF7FEFF 		bl	test_printn
 165              	.LVL21:
ARM GAS  /var/folders/dt/0wfd0knj7gs46m8vwfzktm600000gn/T//ccgwL2QU.s 			page 4


 166              		.loc 1 673 0
 167 00ae 2046     		mov	r0, r4
 168 00b0 FFF7FEFF 		bl	test_println
 169              	.LVL22:
 170              		.loc 1 676 0
 171 00b4 40F20000 		movw	r0, #:lower16:.LC8
 172 00b8 C0F20000 		movt	r0, #:upper16:.LC8
 173 00bc FFF7FEFF 		bl	test_print
 174              	.LVL23:
 175              		.loc 1 677 0
 176 00c0 0820     		movs	r0, #8
 177 00c2 FFF7FEFF 		bl	test_printn
 178              	.LVL24:
 179              		.loc 1 678 0
 180 00c6 2046     		mov	r0, r4
 181 00c8 FFF7FEFF 		bl	test_println
 182              	.LVL25:
 183              		.loc 1 681 0
 184 00cc 40F20000 		movw	r0, #:lower16:.LC9
 185 00d0 C0F20000 		movt	r0, #:upper16:.LC9
 186 00d4 FFF7FEFF 		bl	test_print
 187              	.LVL26:
 188              		.loc 1 682 0
 189 00d8 2020     		movs	r0, #32
 190 00da FFF7FEFF 		bl	test_printn
 191              	.LVL27:
 192              		.loc 1 683 0
 193 00de 2046     		mov	r0, r4
 194 00e0 FFF7FEFF 		bl	test_println
 195              	.LVL28:
 196              		.loc 1 686 0
 197 00e4 40F20000 		movw	r0, #:lower16:.LC10
 198 00e8 C0F20000 		movt	r0, #:upper16:.LC10
 199 00ec FFF7FEFF 		bl	test_print
 200              	.LVL29:
 201              		.loc 1 687 0
 202 00f0 2820     		movs	r0, #40
 203 00f2 FFF7FEFF 		bl	test_printn
 204              	.LVL30:
 205              		.loc 1 688 0
 206 00f6 2046     		mov	r0, r4
 207              		.loc 1 690 0
 208 00f8 BDE81040 		pop	{r4, lr}
 209              		.loc 1 688 0
 210 00fc FFF7FEBF 		b	test_println
 211              	.LVL31:
 212              		.cfi_endproc
 213              	.LFE29:
 214              		.size	bmk13_execute, .-bmk13_execute
 215              		.section	.text.bmk12_execute,"ax",%progbits
 216              		.align	2
 217              		.p2align 4,,15
 218              		.thumb
 219              		.thumb_func
 220              		.type	bmk12_execute, %function
 221              	bmk12_execute:
 222              	.LFB28:
ARM GAS  /var/folders/dt/0wfd0knj7gs46m8vwfzktm600000gn/T//ccgwL2QU.s 			page 5


 223              		.loc 1 605 0
 224              		.cfi_startproc
 225              		@ args = 0, pretend = 0, frame = 0
 226              		@ frame_needed = 0, uses_anonymous_args = 0
 227              	.LVL32:
 228 0000 38B5     		push	{r3, r4, r5, lr}
 229              	.LCFI1:
 230              		.cfi_def_cfa_offset 16
 231              		.cfi_offset 3, -16
 232              		.cfi_offset 4, -12
 233              		.cfi_offset 5, -8
 234              		.cfi_offset 14, -4
 235              		.loc 1 608 0
 236 0002 FFF7FEFF 		bl	test_wait_tick
 237              	.LVL33:
 238              		.loc 1 609 0
 239 0006 4FF47A70 		mov	r0, #1000
 240 000a FFF7FEFF 		bl	test_start_timer
 241              	.LVL34:
 242 000e 124D     		ldr	r5, .L11
 243              		.loc 1 606 0
 244 0010 0024     		movs	r4, #0
 245              	.LVL35:
 246              	.L5:
 247              		.loc 1 611 0 discriminator 1
 248 0012 1248     		ldr	r0, .L11+4
 249 0014 FFF7FEFF 		bl	chMtxLock
 250              	.LVL36:
 251              		.loc 1 612 0 discriminator 1
 252 0018 FFF7FEFF 		bl	chMtxUnlock
 253              	.LVL37:
 254              		.loc 1 613 0 discriminator 1
 255 001c 0F48     		ldr	r0, .L11+4
 256 001e FFF7FEFF 		bl	chMtxLock
 257              	.LVL38:
 258              		.loc 1 614 0 discriminator 1
 259 0022 FFF7FEFF 		bl	chMtxUnlock
 260              	.LVL39:
 261              		.loc 1 615 0 discriminator 1
 262 0026 0D48     		ldr	r0, .L11+4
 263 0028 FFF7FEFF 		bl	chMtxLock
 264              	.LVL40:
 265              		.loc 1 616 0 discriminator 1
 266 002c FFF7FEFF 		bl	chMtxUnlock
 267              	.LVL41:
 268              		.loc 1 617 0 discriminator 1
 269 0030 0A48     		ldr	r0, .L11+4
 270 0032 FFF7FEFF 		bl	chMtxLock
 271              	.LVL42:
 272              		.loc 1 618 0 discriminator 1
 273 0036 FFF7FEFF 		bl	chMtxUnlock
 274              	.LVL43:
 275              		.loc 1 623 0 discriminator 1
 276 003a 2B68     		ldr	r3, [r5, #0]
 277              		.loc 1 619 0 discriminator 1
 278 003c 0134     		adds	r4, r4, #1
 279              	.LVL44:
ARM GAS  /var/folders/dt/0wfd0knj7gs46m8vwfzktm600000gn/T//ccgwL2QU.s 			page 6


 280              		.loc 1 623 0 discriminator 1
 281 003e 002B     		cmp	r3, #0
 282 0040 E7D0     		beq	.L5
 283              		.loc 1 624 0
 284 0042 0748     		ldr	r0, .L11+8
 285 0044 FFF7FEFF 		bl	test_print
 286              	.LVL45:
 287              		.loc 1 625 0
 288 0048 A000     		lsls	r0, r4, #2
 289 004a FFF7FEFF 		bl	test_printn
 290              	.LVL46:
 291              		.loc 1 626 0
 292 004e 0548     		ldr	r0, .L11+12
 293              		.loc 1 627 0
 294 0050 BDE83840 		pop	{r3, r4, r5, lr}
 295              		.loc 1 626 0
 296 0054 FFF7FEBF 		b	test_println
 297              	.LVL47:
 298              	.L12:
 299              		.align	2
 300              	.L11:
 301 0058 00000000 		.word	test_timer_done
 302 005c 00000000 		.word	.LANCHOR0
 303 0060 A8000000 		.word	.LC11
 304 0064 B8000000 		.word	.LC12
 305              		.cfi_endproc
 306              	.LFE28:
 307              		.size	bmk12_execute, .-bmk12_execute
 308 0068 AFF30080 		.section	.text.bmk12_setup,"ax",%progbits
 308      AFF30080 
 309              		.align	2
 310              		.p2align 4,,15
 311              		.thumb
 312              		.thumb_func
 313              		.type	bmk12_setup, %function
 314              	bmk12_setup:
 315              	.LFB27:
 316              		.loc 1 600 0
 317              		.cfi_startproc
 318              		@ args = 0, pretend = 0, frame = 0
 319              		@ frame_needed = 0, uses_anonymous_args = 0
 320              		@ link register save eliminated.
 321              		.loc 1 602 0
 322 0000 40F20000 		movw	r0, #:lower16:.LANCHOR0
 323 0004 C0F20000 		movt	r0, #:upper16:.LANCHOR0
 324              		.loc 1 603 0
 325              		.loc 1 602 0
 326 0008 FFF7FEBF 		b	chMtxInit
 327              	.LVL48:
 328              		.cfi_endproc
 329              	.LFE27:
 330              		.size	bmk12_setup, .-bmk12_setup
 331 000c AFF30080 		.section	.text.thread3,"ax",%progbits
 332              		.align	2
 333              		.p2align 4,,15
 334              		.thumb
 335              		.thumb_func
ARM GAS  /var/folders/dt/0wfd0knj7gs46m8vwfzktm600000gn/T//ccgwL2QU.s 			page 7


 336              		.type	thread3, %function
 337              	thread3:
 338              	.LFB17:
 339              		.loc 1 352 0
 340              		.cfi_startproc
 341              		@ args = 0, pretend = 0, frame = 0
 342              		@ frame_needed = 0, uses_anonymous_args = 0
 343              	.LVL49:
 344 0000 10B5     		push	{r4, lr}
 345              	.LCFI2:
 346              		.cfi_def_cfa_offset 8
 347              		.cfi_offset 4, -8
 348              		.cfi_offset 14, -4
 349              		.loc 1 355 0
 350 0002 074C     		ldr	r4, .L27
 351 0004 02E0     		b	.L25
 352              	.LVL50:
 353              	.L26:
 354              		.loc 1 356 0
 355 0006 0748     		ldr	r0, .L27+4
 356 0008 FFF7FEFF 		bl	chSemWait
 357              	.LVL51:
 358              	.L25:
 359              		.loc 1 355 0
 360 000c E369     		ldr	r3, [r4, #28]
 361 000e 5B7F     		ldrb	r3, [r3, #29]	@ zero_extendqisi2
 362 0010 03F00403 		and	r3, r3, #4
 363 0014 DBB2     		uxtb	r3, r3
 364 0016 002B     		cmp	r3, #0
 365 0018 F5D0     		beq	.L26
 366              		.loc 1 358 0
 367 001a 0020     		movs	r0, #0
 368 001c 10BD     		pop	{r4, pc}
 369              	.L28:
 370 001e 00BF     		.align	2
 371              	.L27:
 372 0020 00000000 		.word	rlist
 373 0024 00000000 		.word	.LANCHOR1
 374              		.cfi_endproc
 375              	.LFE17:
 376              		.size	thread3, .-thread3
 377 0028 AFF30080 		.section	.text.bmk11_execute,"ax",%progbits
 377      AFF30080 
 378              		.align	2
 379              		.p2align 4,,15
 380              		.thumb
 381              		.thumb_func
 382              		.type	bmk11_execute, %function
 383              	bmk11_execute:
 384              	.LFB26:
 385              		.loc 1 558 0
 386              		.cfi_startproc
 387              		@ args = 0, pretend = 0, frame = 0
 388              		@ frame_needed = 0, uses_anonymous_args = 0
 389              	.LVL52:
 390 0000 38B5     		push	{r3, r4, r5, lr}
 391              	.LCFI3:
ARM GAS  /var/folders/dt/0wfd0knj7gs46m8vwfzktm600000gn/T//ccgwL2QU.s 			page 8


 392              		.cfi_def_cfa_offset 16
 393              		.cfi_offset 3, -16
 394              		.cfi_offset 4, -12
 395              		.cfi_offset 5, -8
 396              		.cfi_offset 14, -4
 397              		.loc 1 561 0
 398 0002 FFF7FEFF 		bl	test_wait_tick
 399              	.LVL53:
 400              		.loc 1 562 0
 401 0006 4FF47A70 		mov	r0, #1000
 402 000a FFF7FEFF 		bl	test_start_timer
 403              	.LVL54:
 404 000e 144D     		ldr	r5, .L35
 405              		.loc 1 559 0
 406 0010 0024     		movs	r4, #0
 407              	.LVL55:
 408              	.L30:
 409              		.loc 1 564 0 discriminator 1
 410 0012 1448     		ldr	r0, .L35+4
 411 0014 FFF7FEFF 		bl	chSemWait
 412              	.LVL56:
 413              		.loc 1 565 0 discriminator 1
 414 0018 1248     		ldr	r0, .L35+4
 415 001a FFF7FEFF 		bl	chSemSignal
 416              	.LVL57:
 417              		.loc 1 566 0 discriminator 1
 418 001e 1148     		ldr	r0, .L35+4
 419 0020 FFF7FEFF 		bl	chSemWait
 420              	.LVL58:
 421              		.loc 1 567 0 discriminator 1
 422 0024 0F48     		ldr	r0, .L35+4
 423 0026 FFF7FEFF 		bl	chSemSignal
 424              	.LVL59:
 425              		.loc 1 568 0 discriminator 1
 426 002a 0E48     		ldr	r0, .L35+4
 427 002c FFF7FEFF 		bl	chSemWait
 428              	.LVL60:
 429              		.loc 1 569 0 discriminator 1
 430 0030 0C48     		ldr	r0, .L35+4
 431 0032 FFF7FEFF 		bl	chSemSignal
 432              	.LVL61:
 433              		.loc 1 570 0 discriminator 1
 434 0036 0B48     		ldr	r0, .L35+4
 435 0038 FFF7FEFF 		bl	chSemWait
 436              	.LVL62:
 437              		.loc 1 571 0 discriminator 1
 438 003c 0948     		ldr	r0, .L35+4
 439 003e FFF7FEFF 		bl	chSemSignal
 440              	.LVL63:
 441              		.loc 1 576 0 discriminator 1
 442 0042 2B68     		ldr	r3, [r5, #0]
 443              		.loc 1 572 0 discriminator 1
 444 0044 0134     		adds	r4, r4, #1
 445              	.LVL64:
 446              		.loc 1 576 0 discriminator 1
 447 0046 002B     		cmp	r3, #0
 448 0048 E3D0     		beq	.L30
ARM GAS  /var/folders/dt/0wfd0knj7gs46m8vwfzktm600000gn/T//ccgwL2QU.s 			page 9


 449              		.loc 1 577 0
 450 004a 0748     		ldr	r0, .L35+8
 451 004c FFF7FEFF 		bl	test_print
 452              	.LVL65:
 453              		.loc 1 578 0
 454 0050 A000     		lsls	r0, r4, #2
 455 0052 FFF7FEFF 		bl	test_printn
 456              	.LVL66:
 457              		.loc 1 579 0
 458 0056 0548     		ldr	r0, .L35+12
 459              		.loc 1 580 0
 460 0058 BDE83840 		pop	{r3, r4, r5, lr}
 461              		.loc 1 579 0
 462 005c FFF7FEBF 		b	test_println
 463              	.LVL67:
 464              	.L36:
 465              		.align	2
 466              	.L35:
 467 0060 00000000 		.word	test_timer_done
 468 0064 00000000 		.word	.LANCHOR1
 469 0068 A8000000 		.word	.LC11
 470 006c C8000000 		.word	.LC13
 471              		.cfi_endproc
 472              	.LFE26:
 473              		.size	bmk11_execute, .-bmk11_execute
 474              		.section	.text.bmk11_setup,"ax",%progbits
 475              		.align	2
 476              		.p2align 4,,15
 477              		.thumb
 478              		.thumb_func
 479              		.type	bmk11_setup, %function
 480              	bmk11_setup:
 481              	.LFB25:
 482              		.loc 1 553 0
 483              		.cfi_startproc
 484              		@ args = 0, pretend = 0, frame = 0
 485              		@ frame_needed = 0, uses_anonymous_args = 0
 486              		@ link register save eliminated.
 487              		.loc 1 555 0
 488 0000 40F20000 		movw	r0, #:lower16:.LANCHOR1
 489 0004 C0F20000 		movt	r0, #:upper16:.LANCHOR1
 490 0008 0121     		movs	r1, #1
 491              		.loc 1 556 0
 492              		.loc 1 555 0
 493 000a FFF7FEBF 		b	chSemInit
 494              	.LVL68:
 495              		.cfi_endproc
 496              	.LFE25:
 497              		.size	bmk11_setup, .-bmk11_setup
 498              		.section	.text.bmk7_setup,"ax",%progbits
 499              		.align	2
 500              		.p2align 4,,15
 501              		.thumb
 502              		.thumb_func
 503              		.type	bmk7_setup, %function
 504              	bmk7_setup:
 505              	.LFB18:
ARM GAS  /var/folders/dt/0wfd0knj7gs46m8vwfzktm600000gn/T//ccgwL2QU.s 			page 10


 506              		.loc 1 360 0
 507              		.cfi_startproc
 508              		@ args = 0, pretend = 0, frame = 0
 509              		@ frame_needed = 0, uses_anonymous_args = 0
 510              		@ link register save eliminated.
 511              		.loc 1 362 0
 512 0000 40F20000 		movw	r0, #:lower16:.LANCHOR1
 513 0004 C0F20000 		movt	r0, #:upper16:.LANCHOR1
 514 0008 0021     		movs	r1, #0
 515              		.loc 1 363 0
 516              		.loc 1 362 0
 517 000a FFF7FEBF 		b	chSemInit
 518              	.LVL69:
 519              		.cfi_endproc
 520              	.LFE18:
 521              		.size	bmk7_setup, .-bmk7_setup
 522              		.section	.text.bmk10_execute,"ax",%progbits
 523              		.align	2
 524              		.p2align 4,,15
 525              		.thumb
 526              		.thumb_func
 527              		.type	bmk10_execute, %function
 528              	bmk10_execute:
 529              	.LFB24:
 530              		.loc 1 513 0
 531              		.cfi_startproc
 532              		@ args = 0, pretend = 0, frame = 0
 533              		@ frame_needed = 0, uses_anonymous_args = 0
 534              	.LVL70:
 535 0000 38B5     		push	{r3, r4, r5, lr}
 536              	.LCFI4:
 537              		.cfi_def_cfa_offset 16
 538              		.cfi_offset 3, -16
 539              		.cfi_offset 4, -12
 540              		.cfi_offset 5, -8
 541              		.cfi_offset 14, -4
 542              		.loc 1 517 0
 543 0002 FFF7FEFF 		bl	test_wait_tick
 544              	.LVL71:
 545              		.loc 1 518 0
 546 0006 4FF47A70 		mov	r0, #1000
 547 000a FFF7FEFF 		bl	test_start_timer
 548              	.LVL72:
 549 000e 154D     		ldr	r5, .L45
 550              		.loc 1 515 0
 551 0010 0024     		movs	r4, #0
 552              	.LVL73:
 553              	.L40:
 554              	.LBB2:
 555              		.loc 1 520 0 discriminator 1
 556 0012 2023     		movs	r3, #32
 557              	.LVL74:
 558              	@ 520 "../../test/testbmk.c" 1
 559 0014 83F31188 		msr     BASEPRI, r3
 560              	@ 0 "" 2
 561              	.LVL75:
 562              		.thumb
ARM GAS  /var/folders/dt/0wfd0knj7gs46m8vwfzktm600000gn/T//ccgwL2QU.s 			page 11


 563              	.LBE2:
 564              		.loc 1 521 0 discriminator 1
 565 0018 0121     		movs	r1, #1
 566 001a 0023     		movs	r3, #0
 567              	.LVL76:
 568 001c 1248     		ldr	r0, .L45+4
 569 001e 134A     		ldr	r2, .L45+8
 570 0020 FFF7FEFF 		bl	chVTSetI
 571              	.LVL77:
 572              		.loc 1 522 0 discriminator 1
 573 0024 0023     		movs	r3, #0
 574 0026 42F21071 		movw	r1, #10000
 575 002a 104A     		ldr	r2, .L45+8
 576 002c 1048     		ldr	r0, .L45+12
 577 002e FFF7FEFF 		bl	chVTSetI
 578              	.LVL78:
 579              		.loc 1 523 0 discriminator 1
 580 0032 0D48     		ldr	r0, .L45+4
 581 0034 FFF7FEFF 		bl	chVTResetI
 582              	.LVL79:
 583              		.loc 1 524 0 discriminator 1
 584 0038 0D48     		ldr	r0, .L45+12
 585 003a FFF7FEFF 		bl	chVTResetI
 586              	.LVL80:
 587              	.LBB3:
 588              		.loc 1 525 0 discriminator 1
 589 003e 0023     		movs	r3, #0
 590              	.LVL81:
 591              	@ 525 "../../test/testbmk.c" 1
 592 0040 83F31188 		msr     BASEPRI, r3
 593              	@ 0 "" 2
 594              	.LVL82:
 595              		.thumb
 596              	.LBE3:
 597              		.loc 1 530 0 discriminator 1
 598 0044 2B68     		ldr	r3, [r5, #0]
 599              	.LVL83:
 600              		.loc 1 526 0 discriminator 1
 601 0046 0134     		adds	r4, r4, #1
 602              	.LVL84:
 603              		.loc 1 530 0 discriminator 1
 604 0048 002B     		cmp	r3, #0
 605 004a E2D0     		beq	.L40
 606              		.loc 1 531 0
 607 004c 0948     		ldr	r0, .L45+16
 608 004e FFF7FEFF 		bl	test_print
 609              	.LVL85:
 610              		.loc 1 532 0
 611 0052 6000     		lsls	r0, r4, #1
 612 0054 FFF7FEFF 		bl	test_printn
 613              	.LVL86:
 614              		.loc 1 533 0
 615 0058 0748     		ldr	r0, .L45+20
 616              		.loc 1 534 0
 617 005a BDE83840 		pop	{r3, r4, r5, lr}
 618              		.loc 1 533 0
 619 005e FFF7FEBF 		b	test_println
ARM GAS  /var/folders/dt/0wfd0knj7gs46m8vwfzktm600000gn/T//ccgwL2QU.s 			page 12


 620              	.LVL87:
 621              	.L46:
 622 0062 00BF     		.align	2
 623              	.L45:
 624 0064 00000000 		.word	test_timer_done
 625 0068 00000000 		.word	.LANCHOR2
 626 006c 00000000 		.word	tmo
 627 0070 00000000 		.word	.LANCHOR3
 628 0074 A8000000 		.word	.LC11
 629 0078 D8000000 		.word	.LC14
 630              		.cfi_endproc
 631              	.LFE24:
 632              		.size	bmk10_execute, .-bmk10_execute
 633 007c AFF30080 		.section	.text.bmk9_execute,"ax",%progbits
 634              		.align	2
 635              		.p2align 4,,15
 636              		.thumb
 637              		.thumb_func
 638              		.type	bmk9_execute, %function
 639              	bmk9_execute:
 640              	.LFB22:
 641              		.loc 1 465 0
 642              		.cfi_startproc
 643              		@ args = 0, pretend = 0, frame = 0
 644              		@ frame_needed = 0, uses_anonymous_args = 0
 645 0000 38B5     		push	{r3, r4, r5, lr}
 646              	.LCFI5:
 647              		.cfi_def_cfa_offset 16
 648              		.cfi_offset 3, -16
 649              		.cfi_offset 4, -12
 650              		.cfi_offset 5, -8
 651              		.cfi_offset 14, -4
 652              		.loc 1 470 0
 653 0002 2349     		ldr	r1, .L53
 654 0004 1022     		movs	r2, #16
 655 0006 0023     		movs	r3, #0
 656 0008 2248     		ldr	r0, .L53+4
 657 000a FFF7FEFF 		bl	chIQInit
 658              	.LVL88:
 659              		.loc 1 472 0
 660 000e FFF7FEFF 		bl	test_wait_tick
 661              	.LVL89:
 662              		.loc 1 473 0
 663 0012 4FF47A70 		mov	r0, #1000
 664 0016 FFF7FEFF 		bl	test_start_timer
 665              	.LVL90:
 666 001a 1F4D     		ldr	r5, .L53+8
 667              		.loc 1 471 0
 668 001c 0024     		movs	r4, #0
 669              	.LVL91:
 670              	.L48:
 671              	.LBB4:
 672              		.loc 1 475 0 discriminator 1
 673 001e 2023     		movs	r3, #32
 674              	.LVL92:
 675              	@ 475 "../../test/testbmk.c" 1
 676 0020 83F31188 		msr     BASEPRI, r3
ARM GAS  /var/folders/dt/0wfd0knj7gs46m8vwfzktm600000gn/T//ccgwL2QU.s 			page 13


 677              	@ 0 "" 2
 678              	.LVL93:
 679              		.thumb
 680              	.LBE4:
 681              		.loc 1 476 0 discriminator 1
 682 0024 0021     		movs	r1, #0
 683 0026 1B48     		ldr	r0, .L53+4
 684 0028 FFF7FEFF 		bl	chIQPutI
 685              	.LVL94:
 686              		.loc 1 477 0 discriminator 1
 687 002c 0121     		movs	r1, #1
 688 002e 1948     		ldr	r0, .L53+4
 689 0030 FFF7FEFF 		bl	chIQPutI
 690              	.LVL95:
 691              		.loc 1 478 0 discriminator 1
 692 0034 0221     		movs	r1, #2
 693 0036 1748     		ldr	r0, .L53+4
 694 0038 FFF7FEFF 		bl	chIQPutI
 695              	.LVL96:
 696              		.loc 1 479 0 discriminator 1
 697 003c 0321     		movs	r1, #3
 698 003e 1548     		ldr	r0, .L53+4
 699 0040 FFF7FEFF 		bl	chIQPutI
 700              	.LVL97:
 701              	.LBB5:
 702              		.loc 1 480 0 discriminator 1
 703 0044 0023     		movs	r3, #0
 704              	.LVL98:
 705              	@ 480 "../../test/testbmk.c" 1
 706 0046 83F31188 		msr     BASEPRI, r3
 707              	@ 0 "" 2
 708              	.LVL99:
 709              		.thumb
 710              	.LBE5:
 711              		.loc 1 481 0 discriminator 1
 712 004a 4FF0FF31 		mov	r1, #-1
 713 004e 1148     		ldr	r0, .L53+4
 714 0050 FFF7FEFF 		bl	chIQGetTimeout
 715              	.LVL100:
 716              		.loc 1 482 0 discriminator 1
 717 0054 4FF0FF31 		mov	r1, #-1
 718 0058 0E48     		ldr	r0, .L53+4
 719 005a FFF7FEFF 		bl	chIQGetTimeout
 720              	.LVL101:
 721              		.loc 1 483 0 discriminator 1
 722 005e 4FF0FF31 		mov	r1, #-1
 723 0062 0C48     		ldr	r0, .L53+4
 724 0064 FFF7FEFF 		bl	chIQGetTimeout
 725              	.LVL102:
 726              		.loc 1 484 0 discriminator 1
 727 0068 0A48     		ldr	r0, .L53+4
 728 006a 4FF0FF31 		mov	r1, #-1
 729 006e FFF7FEFF 		bl	chIQGetTimeout
 730              	.LVL103:
 731              		.loc 1 489 0 discriminator 1
 732 0072 2B68     		ldr	r3, [r5, #0]
 733              		.loc 1 485 0 discriminator 1
ARM GAS  /var/folders/dt/0wfd0knj7gs46m8vwfzktm600000gn/T//ccgwL2QU.s 			page 14


 734 0074 0134     		adds	r4, r4, #1
 735              	.LVL104:
 736              		.loc 1 489 0 discriminator 1
 737 0076 002B     		cmp	r3, #0
 738 0078 D1D0     		beq	.L48
 739              		.loc 1 490 0
 740 007a 0848     		ldr	r0, .L53+12
 741 007c FFF7FEFF 		bl	test_print
 742              	.LVL105:
 743              		.loc 1 491 0
 744 0080 A000     		lsls	r0, r4, #2
 745 0082 FFF7FEFF 		bl	test_printn
 746              	.LVL106:
 747              		.loc 1 492 0
 748 0086 0648     		ldr	r0, .L53+16
 749              		.loc 1 493 0
 750 0088 BDE83840 		pop	{r3, r4, r5, lr}
 751              		.loc 1 492 0
 752 008c FFF7FEBF 		b	test_println
 753              	.LVL107:
 754              	.L54:
 755              		.align	2
 756              	.L53:
 757 0090 00000000 		.word	.LANCHOR5
 758 0094 00000000 		.word	.LANCHOR4
 759 0098 00000000 		.word	test_timer_done
 760 009c A8000000 		.word	.LC11
 761 00a0 E4000000 		.word	.LC15
 762              		.cfi_endproc
 763              	.LFE22:
 764              		.size	bmk9_execute, .-bmk9_execute
 765 00a4 AFF30080 		.section	.text.bmk6_execute,"ax",%progbits
 765      AFF30080 
 765      AFF30080 
 766              		.align	2
 767              		.p2align 4,,15
 768              		.thumb
 769              		.thumb_func
 770              		.type	bmk6_execute, %function
 771              	bmk6_execute:
 772              	.LFB16:
 773              		.loc 1 315 0
 774              		.cfi_startproc
 775              		@ args = 0, pretend = 0, frame = 0
 776              		@ frame_needed = 0, uses_anonymous_args = 0
 777              	.LVL108:
 778 0000 2DE9F041 		push	{r4, r5, r6, r7, r8, lr}
 779              	.LCFI6:
 780              		.cfi_def_cfa_offset 24
 781              		.cfi_offset 4, -24
 782              		.cfi_offset 5, -20
 783              		.cfi_offset 6, -16
 784              		.cfi_offset 7, -12
 785              		.cfi_offset 8, -8
 786              		.cfi_offset 14, -4
 787              		.loc 1 319 0
 788 0004 144B     		ldr	r3, .L61
ARM GAS  /var/folders/dt/0wfd0knj7gs46m8vwfzktm600000gn/T//ccgwL2QU.s 			page 15


 789              		.loc 1 318 0
 790 0006 154A     		ldr	r2, .L61+4
 791              		.loc 1 319 0
 792 0008 DB69     		ldr	r3, [r3, #28]
 793              		.loc 1 315 0
 794 000a 82B0     		sub	sp, sp, #8
 795              	.LCFI7:
 796              		.cfi_def_cfa_offset 32
 797              		.loc 1 319 0
 798 000c 9E68     		ldr	r6, [r3, #8]
 799              		.loc 1 318 0
 800 000e 1768     		ldr	r7, [r2, #0]
 801              	.LVL109:
 802              		.loc 1 320 0
 803 0010 FFF7FEFF 		bl	test_wait_tick
 804              	.LVL110:
 805              		.loc 1 321 0
 806 0014 4FF47A70 		mov	r0, #1000
 807 0018 FFF7FEFF 		bl	test_start_timer
 808              	.LVL111:
 809              		.loc 1 317 0
 810 001c 0024     		movs	r4, #0
 811 001e DFF84C80 		ldr	r8, .L61+20
 812              		.loc 1 319 0
 813 0022 0136     		adds	r6, r6, #1
 814              	.LVL112:
 815              		.loc 1 323 0
 816 0024 2546     		mov	r5, r4
 817              	.LVL113:
 818              	.L56:
 819              		.loc 1 323 0 is_stmt 0 discriminator 1
 820 0026 0E4B     		ldr	r3, .L61+8
 821 0028 0095     		str	r5, [sp, #0]
 822 002a 3846     		mov	r0, r7
 823 002c 4FF49871 		mov	r1, #304
 824 0030 3246     		mov	r2, r6
 825 0032 FFF7FEFF 		bl	chThdCreateStatic
 826              	.LVL114:
 827              		.loc 1 328 0 is_stmt 1 discriminator 1
 828 0036 D8F80030 		ldr	r3, [r8, #0]
 829              		.loc 1 324 0 discriminator 1
 830 003a 0134     		adds	r4, r4, #1
 831              	.LVL115:
 832              		.loc 1 328 0 discriminator 1
 833 003c 002B     		cmp	r3, #0
 834 003e F2D0     		beq	.L56
 835              		.loc 1 329 0
 836 0040 0848     		ldr	r0, .L61+12
 837 0042 FFF7FEFF 		bl	test_print
 838              	.LVL116:
 839              		.loc 1 330 0
 840 0046 2046     		mov	r0, r4
 841 0048 FFF7FEFF 		bl	test_printn
 842              	.LVL117:
 843              		.loc 1 331 0
 844 004c 0648     		ldr	r0, .L61+16
 845              		.loc 1 332 0
ARM GAS  /var/folders/dt/0wfd0knj7gs46m8vwfzktm600000gn/T//ccgwL2QU.s 			page 16


 846 004e 02B0     		add	sp, sp, #8
 847 0050 BDE8F041 		pop	{r4, r5, r6, r7, r8, lr}
 848              		.loc 1 331 0
 849 0054 FFF7FEBF 		b	test_println
 850              	.LVL118:
 851              	.L62:
 852              		.align	2
 853              	.L61:
 854 0058 00000000 		.word	rlist
 855 005c 00000000 		.word	wa
 856 0060 00000000 		.word	thread2
 857 0064 A8000000 		.word	.LC11
 858 0068 F0000000 		.word	.LC16
 859 006c 00000000 		.word	test_timer_done
 860              		.cfi_endproc
 861              	.LFE16:
 862              		.size	bmk6_execute, .-bmk6_execute
 863              		.section	.text.bmk8_execute,"ax",%progbits
 864              		.align	2
 865              		.p2align 4,,15
 866              		.thumb
 867              		.thumb_func
 868              		.type	bmk8_execute, %function
 869              	bmk8_execute:
 870              	.LFB21:
 871              		.loc 1 427 0
 872              		.cfi_startproc
 873              		@ args = 0, pretend = 0, frame = 8
 874              		@ frame_needed = 0, uses_anonymous_args = 0
 875 0000 2DE9F043 		push	{r4, r5, r6, r7, r8, r9, lr}
 876              	.LCFI8:
 877              		.cfi_def_cfa_offset 28
 878              		.cfi_offset 4, -28
 879              		.cfi_offset 5, -24
 880              		.cfi_offset 6, -20
 881              		.cfi_offset 7, -16
 882              		.cfi_offset 8, -12
 883              		.cfi_offset 9, -8
 884              		.cfi_offset 14, -4
 885              		.loc 1 433 0
 886 0004 40F20009 		movw	r9, #:lower16:rlist
 887              		.loc 1 427 0
 888 0008 85B0     		sub	sp, sp, #20
 889              	.LCFI9:
 890              		.cfi_def_cfa_offset 48
 891              		.loc 1 430 0
 892 000a 04AC     		add	r4, sp, #16
 893              		.loc 1 433 0
 894 000c C0F20009 		movt	r9, #:upper16:rlist
 895              		.loc 1 430 0
 896 0010 0023     		movs	r3, #0
 897 0012 44F8043D 		str	r3, [r4, #-4]!
 898              	.LVL119:
 899              		.loc 1 431 0
 900 0016 FFF7FEFF 		bl	test_wait_tick
 901              	.LVL120:
 902              		.loc 1 433 0
ARM GAS  /var/folders/dt/0wfd0knj7gs46m8vwfzktm600000gn/T//ccgwL2QU.s 			page 17


 903 001a D9F81C30 		ldr	r3, [r9, #28]
 904 001e 40F20008 		movw	r8, #:lower16:wa
 905 0022 9A68     		ldr	r2, [r3, #8]
 906 0024 40F20006 		movw	r6, #:lower16:thread8
 907 0028 C0F20008 		movt	r8, #:upper16:wa
 908 002c C0F20006 		movt	r6, #:upper16:thread8
 909 0030 013A     		subs	r2, r2, #1
 910 0032 3346     		mov	r3, r6
 911 0034 D8F80000 		ldr	r0, [r8, #0]
 912 0038 4FF49871 		mov	r1, #304
 913 003c 0094     		str	r4, [sp, #0]
 914 003e FFF7FEFF 		bl	chThdCreateStatic
 915              	.LVL121:
 916              		.loc 1 434 0
 917 0042 D9F81C30 		ldr	r3, [r9, #28]
 918 0046 D8F80470 		ldr	r7, [r8, #4]
 919 004a 9A68     		ldr	r2, [r3, #8]
 920              		.loc 1 433 0
 921 004c 40F20005 		movw	r5, #:lower16:threads
 922 0050 C0F20005 		movt	r5, #:upper16:threads
 923 0054 2860     		str	r0, [r5, #0]
 924              		.loc 1 434 0
 925 0056 013A     		subs	r2, r2, #1
 926 0058 3346     		mov	r3, r6
 927 005a 4FF49871 		mov	r1, #304
 928 005e 0094     		str	r4, [sp, #0]
 929 0060 3846     		mov	r0, r7
 930 0062 FFF7FEFF 		bl	chThdCreateStatic
 931              	.LVL122:
 932              		.loc 1 435 0
 933 0066 D9F81C30 		ldr	r3, [r9, #28]
 934 006a D8F80870 		ldr	r7, [r8, #8]
 935 006e 9A68     		ldr	r2, [r3, #8]
 936 0070 4FF49871 		mov	r1, #304
 937              		.loc 1 434 0
 938 0074 6860     		str	r0, [r5, #4]
 939              		.loc 1 435 0
 940 0076 013A     		subs	r2, r2, #1
 941 0078 3346     		mov	r3, r6
 942 007a 0094     		str	r4, [sp, #0]
 943 007c 3846     		mov	r0, r7
 944 007e FFF7FEFF 		bl	chThdCreateStatic
 945              	.LVL123:
 946              		.loc 1 436 0
 947 0082 D9F81C30 		ldr	r3, [r9, #28]
 948 0086 D8F80C70 		ldr	r7, [r8, #12]
 949 008a 9A68     		ldr	r2, [r3, #8]
 950 008c 4FF49871 		mov	r1, #304
 951              		.loc 1 435 0
 952 0090 A860     		str	r0, [r5, #8]
 953              		.loc 1 436 0
 954 0092 013A     		subs	r2, r2, #1
 955 0094 3346     		mov	r3, r6
 956 0096 0094     		str	r4, [sp, #0]
 957 0098 3846     		mov	r0, r7
 958 009a FFF7FEFF 		bl	chThdCreateStatic
 959              	.LVL124:
ARM GAS  /var/folders/dt/0wfd0knj7gs46m8vwfzktm600000gn/T//ccgwL2QU.s 			page 18


 960              		.loc 1 437 0
 961 009e D9F81C30 		ldr	r3, [r9, #28]
 962 00a2 D8F81070 		ldr	r7, [r8, #16]
 963 00a6 9A68     		ldr	r2, [r3, #8]
 964 00a8 4FF49871 		mov	r1, #304
 965 00ac 013A     		subs	r2, r2, #1
 966 00ae 3346     		mov	r3, r6
 967              		.loc 1 436 0
 968 00b0 E860     		str	r0, [r5, #12]
 969              		.loc 1 437 0
 970 00b2 0094     		str	r4, [sp, #0]
 971 00b4 3846     		mov	r0, r7
 972 00b6 FFF7FEFF 		bl	chThdCreateStatic
 973              	.LVL125:
 974 00ba 2861     		str	r0, [r5, #16]
 975              		.loc 1 439 0
 976 00bc 4FF47A70 		mov	r0, #1000
 977 00c0 FFF7FEFF 		bl	chThdSleep
 978              	.LVL126:
 979              		.loc 1 440 0
 980 00c4 FFF7FEFF 		bl	test_terminate_threads
 981              	.LVL127:
 982              		.loc 1 441 0
 983 00c8 FFF7FEFF 		bl	test_wait_threads
 984              	.LVL128:
 985              		.loc 1 443 0
 986 00cc 40F20000 		movw	r0, #:lower16:.LC11
 987 00d0 C0F20000 		movt	r0, #:upper16:.LC11
 988 00d4 FFF7FEFF 		bl	test_print
 989              	.LVL129:
 990              		.loc 1 444 0
 991 00d8 0398     		ldr	r0, [sp, #12]
 992 00da FFF7FEFF 		bl	test_printn
 993              	.LVL130:
 994              		.loc 1 445 0
 995 00de 40F20000 		movw	r0, #:lower16:.LC17
 996 00e2 C0F20000 		movt	r0, #:upper16:.LC17
 997 00e6 FFF7FEFF 		bl	test_println
 998              	.LVL131:
 999              		.loc 1 446 0
 1000 00ea 05B0     		add	sp, sp, #20
 1001 00ec BDE8F083 		pop	{r4, r5, r6, r7, r8, r9, pc}
 1002              		.cfi_endproc
 1003              	.LFE21:
 1004              		.size	bmk8_execute, .-bmk8_execute
 1005              		.section	.text.thread8,"ax",%progbits
 1006              		.align	2
 1007              		.p2align 4,,15
 1008              		.thumb
 1009              		.thumb_func
 1010              		.type	thread8, %function
 1011              	thread8:
 1012              	.LFB20:
 1013              		.loc 1 412 0
 1014              		.cfi_startproc
 1015              		@ args = 0, pretend = 0, frame = 0
 1016              		@ frame_needed = 0, uses_anonymous_args = 0
ARM GAS  /var/folders/dt/0wfd0knj7gs46m8vwfzktm600000gn/T//ccgwL2QU.s 			page 19


 1017              	.LVL132:
 1018 0000 38B5     		push	{r3, r4, r5, lr}
 1019              	.LCFI10:
 1020              		.cfi_def_cfa_offset 16
 1021              		.cfi_offset 3, -16
 1022              		.cfi_offset 4, -12
 1023              		.cfi_offset 5, -8
 1024              		.cfi_offset 14, -4
 1025 0002 0B4D     		ldr	r5, .L70
 1026              		.loc 1 412 0
 1027 0004 0446     		mov	r4, r0
 1028              	.LVL133:
 1029              	.L65:
 1030              		.loc 1 415 0 discriminator 1
 1031 0006 FFF7FEFF 		bl	chThdYield
 1032              	.LVL134:
 1033              		.loc 1 416 0 discriminator 1
 1034 000a FFF7FEFF 		bl	chThdYield
 1035              	.LVL135:
 1036              		.loc 1 417 0 discriminator 1
 1037 000e FFF7FEFF 		bl	chThdYield
 1038              	.LVL136:
 1039              		.loc 1 418 0 discriminator 1
 1040 0012 FFF7FEFF 		bl	chThdYield
 1041              	.LVL137:
 1042              		.loc 1 419 0 discriminator 1
 1043 0016 2268     		ldr	r2, [r4, #0]
 1044              		.loc 1 423 0 discriminator 1
 1045 0018 EB69     		ldr	r3, [r5, #28]
 1046              		.loc 1 419 0 discriminator 1
 1047 001a 0432     		adds	r2, r2, #4
 1048 001c 2260     		str	r2, [r4, #0]
 1049              		.loc 1 423 0 discriminator 1
 1050 001e 5B7F     		ldrb	r3, [r3, #29]	@ zero_extendqisi2
 1051 0020 03F00403 		and	r3, r3, #4
 1052 0024 DBB2     		uxtb	r3, r3
 1053 0026 002B     		cmp	r3, #0
 1054 0028 EDD0     		beq	.L65
 1055              		.loc 1 425 0
 1056 002a 0020     		movs	r0, #0
 1057 002c 38BD     		pop	{r3, r4, r5, pc}
 1058              	.L71:
 1059 002e 00BF     		.align	2
 1060              	.L70:
 1061 0030 00000000 		.word	rlist
 1062              		.cfi_endproc
 1063              	.LFE20:
 1064              		.size	thread8, .-thread8
 1065 0034 AFF30080 		.section	.text.bmk7_execute,"ax",%progbits
 1065      AFF30080 
 1065      AFF30080 
 1066              		.align	2
 1067              		.p2align 4,,15
 1068              		.thumb
 1069              		.thumb_func
 1070              		.type	bmk7_execute, %function
 1071              	bmk7_execute:
ARM GAS  /var/folders/dt/0wfd0knj7gs46m8vwfzktm600000gn/T//ccgwL2QU.s 			page 20


 1072              	.LFB19:
 1073              		.loc 1 365 0
 1074              		.cfi_startproc
 1075              		@ args = 0, pretend = 0, frame = 8
 1076              		@ frame_needed = 0, uses_anonymous_args = 0
 1077 0000 F0B5     		push	{r4, r5, r6, r7, lr}
 1078              	.LCFI11:
 1079              		.cfi_def_cfa_offset 20
 1080              		.cfi_offset 4, -20
 1081              		.cfi_offset 5, -16
 1082              		.cfi_offset 6, -12
 1083              		.cfi_offset 7, -8
 1084              		.cfi_offset 14, -4
 1085              		.loc 1 368 0
 1086 0002 374F     		ldr	r7, .L78
 1087 0004 374E     		ldr	r6, .L78+4
 1088 0006 FB69     		ldr	r3, [r7, #28]
 1089              		.loc 1 365 0
 1090 0008 85B0     		sub	sp, sp, #20
 1091              	.LCFI12:
 1092              		.cfi_def_cfa_offset 40
 1093              		.loc 1 368 0
 1094 000a 9A68     		ldr	r2, [r3, #8]
 1095 000c 0024     		movs	r4, #0
 1096 000e 3068     		ldr	r0, [r6, #0]
 1097 0010 4FF49871 		mov	r1, #304
 1098 0014 0532     		adds	r2, r2, #5
 1099 0016 344B     		ldr	r3, .L78+8
 1100 0018 0094     		str	r4, [sp, #0]
 1101 001a FFF7FEFF 		bl	chThdCreateStatic
 1102              	.LVL138:
 1103              		.loc 1 369 0
 1104 001e FB69     		ldr	r3, [r7, #28]
 1105              		.loc 1 368 0
 1106 0020 324D     		ldr	r5, .L78+12
 1107              		.loc 1 369 0
 1108 0022 9A68     		ldr	r2, [r3, #8]
 1109 0024 7368     		ldr	r3, [r6, #4]
 1110              		.loc 1 368 0
 1111 0026 2860     		str	r0, [r5, #0]
 1112              		.loc 1 369 0
 1113 0028 0393     		str	r3, [sp, #12]
 1114 002a 4FF49871 		mov	r1, #304
 1115 002e 0432     		adds	r2, r2, #4
 1116 0030 2D4B     		ldr	r3, .L78+8
 1117 0032 0094     		str	r4, [sp, #0]
 1118 0034 0398     		ldr	r0, [sp, #12]
 1119 0036 FFF7FEFF 		bl	chThdCreateStatic
 1120              	.LVL139:
 1121              		.loc 1 370 0
 1122 003a FB69     		ldr	r3, [r7, #28]
 1123 003c B268     		ldr	r2, [r6, #8]
 1124 003e 4FF49871 		mov	r1, #304
 1125 0042 0392     		str	r2, [sp, #12]
 1126 0044 9A68     		ldr	r2, [r3, #8]
 1127              		.loc 1 369 0
 1128 0046 6860     		str	r0, [r5, #4]
ARM GAS  /var/folders/dt/0wfd0knj7gs46m8vwfzktm600000gn/T//ccgwL2QU.s 			page 21


 1129              		.loc 1 370 0
 1130 0048 0332     		adds	r2, r2, #3
 1131 004a 274B     		ldr	r3, .L78+8
 1132 004c 0094     		str	r4, [sp, #0]
 1133 004e 0398     		ldr	r0, [sp, #12]
 1134 0050 FFF7FEFF 		bl	chThdCreateStatic
 1135              	.LVL140:
 1136              		.loc 1 371 0
 1137 0054 FB69     		ldr	r3, [r7, #28]
 1138 0056 F268     		ldr	r2, [r6, #12]
 1139 0058 4FF49871 		mov	r1, #304
 1140 005c 0392     		str	r2, [sp, #12]
 1141 005e 9A68     		ldr	r2, [r3, #8]
 1142              		.loc 1 370 0
 1143 0060 A860     		str	r0, [r5, #8]
 1144              		.loc 1 371 0
 1145 0062 0232     		adds	r2, r2, #2
 1146 0064 204B     		ldr	r3, .L78+8
 1147 0066 0094     		str	r4, [sp, #0]
 1148 0068 0398     		ldr	r0, [sp, #12]
 1149 006a FFF7FEFF 		bl	chThdCreateStatic
 1150              	.LVL141:
 1151              		.loc 1 372 0
 1152 006e FB69     		ldr	r3, [r7, #28]
 1153 0070 3669     		ldr	r6, [r6, #16]
 1154 0072 9A68     		ldr	r2, [r3, #8]
 1155 0074 4FF49871 		mov	r1, #304
 1156              		.loc 1 371 0
 1157 0078 E860     		str	r0, [r5, #12]
 1158              		.loc 1 372 0
 1159 007a 0132     		adds	r2, r2, #1
 1160 007c 1A4B     		ldr	r3, .L78+8
 1161 007e 0094     		str	r4, [sp, #0]
 1162 0080 3046     		mov	r0, r6
 1163 0082 FFF7FEFF 		bl	chThdCreateStatic
 1164              	.LVL142:
 1165 0086 2861     		str	r0, [r5, #16]
 1166              	.LVL143:
 1167              		.loc 1 375 0
 1168 0088 FFF7FEFF 		bl	test_wait_tick
 1169              	.LVL144:
 1170              		.loc 1 376 0
 1171 008c 4FF47A70 		mov	r0, #1000
 1172 0090 FFF7FEFF 		bl	test_start_timer
 1173              	.LVL145:
 1174 0094 164D     		ldr	r5, .L78+16
 1175              	.LVL146:
 1176              	.L73:
 1177              		.loc 1 378 0 discriminator 1
 1178 0096 1748     		ldr	r0, .L78+20
 1179 0098 0021     		movs	r1, #0
 1180 009a FFF7FEFF 		bl	chSemReset
 1181              	.LVL147:
 1182              		.loc 1 383 0 discriminator 1
 1183 009e 2B68     		ldr	r3, [r5, #0]
 1184              		.loc 1 379 0 discriminator 1
 1185 00a0 0134     		adds	r4, r4, #1
ARM GAS  /var/folders/dt/0wfd0knj7gs46m8vwfzktm600000gn/T//ccgwL2QU.s 			page 22


 1186              	.LVL148:
 1187              		.loc 1 383 0 discriminator 1
 1188 00a2 002B     		cmp	r3, #0
 1189 00a4 F7D0     		beq	.L73
 1190              		.loc 1 384 0
 1191 00a6 FFF7FEFF 		bl	test_terminate_threads
 1192              	.LVL149:
 1193              		.loc 1 385 0
 1194 00aa 0021     		movs	r1, #0
 1195 00ac 1148     		ldr	r0, .L78+20
 1196 00ae FFF7FEFF 		bl	chSemReset
 1197              	.LVL150:
 1198              		.loc 1 386 0
 1199 00b2 FFF7FEFF 		bl	test_wait_threads
 1200              	.LVL151:
 1201              		.loc 1 388 0
 1202 00b6 1048     		ldr	r0, .L78+24
 1203 00b8 FFF7FEFF 		bl	test_print
 1204              	.LVL152:
 1205              		.loc 1 389 0
 1206 00bc 2046     		mov	r0, r4
 1207 00be FFF7FEFF 		bl	test_printn
 1208              	.LVL153:
 1209              		.loc 1 390 0
 1210 00c2 0E48     		ldr	r0, .L78+28
 1211 00c4 FFF7FEFF 		bl	test_print
 1212              	.LVL154:
 1213              		.loc 1 391 0
 1214 00c8 04EB4400 		add	r0, r4, r4, lsl #1
 1215 00cc 4000     		lsls	r0, r0, #1
 1216 00ce FFF7FEFF 		bl	test_printn
 1217              	.LVL155:
 1218              		.loc 1 392 0
 1219 00d2 0B48     		ldr	r0, .L78+32
 1220              		.loc 1 393 0
 1221 00d4 05B0     		add	sp, sp, #20
 1222 00d6 BDE8F040 		pop	{r4, r5, r6, r7, lr}
 1223              		.loc 1 392 0
 1224 00da FFF7FEBF 		b	test_println
 1225              	.LVL156:
 1226              	.L79:
 1227 00de 00BF     		.align	2
 1228              	.L78:
 1229 00e0 00000000 		.word	rlist
 1230 00e4 00000000 		.word	wa
 1231 00e8 00000000 		.word	thread3
 1232 00ec 00000000 		.word	threads
 1233 00f0 00000000 		.word	test_timer_done
 1234 00f4 00000000 		.word	.LANCHOR1
 1235 00f8 A8000000 		.word	.LC11
 1236 00fc 08010000 		.word	.LC18
 1237 0100 FC000000 		.word	.LC17
 1238              		.cfi_endproc
 1239              	.LFE19:
 1240              		.size	bmk7_execute, .-bmk7_execute
 1241 0104 AFF30080 		.section	.text.bmk5_execute,"ax",%progbits
 1241      AFF30080 
ARM GAS  /var/folders/dt/0wfd0knj7gs46m8vwfzktm600000gn/T//ccgwL2QU.s 			page 23


 1241      AFF30080 
 1242              		.align	2
 1243              		.p2align 4,,15
 1244              		.thumb
 1245              		.thumb_func
 1246              		.type	bmk5_execute, %function
 1247              	bmk5_execute:
 1248              	.LFB15:
 1249              		.loc 1 276 0
 1250              		.cfi_startproc
 1251              		@ args = 0, pretend = 0, frame = 0
 1252              		@ frame_needed = 0, uses_anonymous_args = 0
 1253              	.LVL157:
 1254 0000 2DE9F041 		push	{r4, r5, r6, r7, r8, lr}
 1255              	.LCFI13:
 1256              		.cfi_def_cfa_offset 24
 1257              		.cfi_offset 4, -24
 1258              		.cfi_offset 5, -20
 1259              		.cfi_offset 6, -16
 1260              		.cfi_offset 7, -12
 1261              		.cfi_offset 8, -8
 1262              		.cfi_offset 14, -4
 1263              		.loc 1 280 0
 1264 0004 154B     		ldr	r3, .L86
 1265              		.loc 1 279 0
 1266 0006 164A     		ldr	r2, .L86+4
 1267              		.loc 1 280 0
 1268 0008 DB69     		ldr	r3, [r3, #28]
 1269              		.loc 1 276 0
 1270 000a 82B0     		sub	sp, sp, #8
 1271              	.LCFI14:
 1272              		.cfi_def_cfa_offset 32
 1273              		.loc 1 280 0
 1274 000c 9E68     		ldr	r6, [r3, #8]
 1275              		.loc 1 279 0
 1276 000e 1768     		ldr	r7, [r2, #0]
 1277              	.LVL158:
 1278              		.loc 1 281 0
 1279 0010 FFF7FEFF 		bl	test_wait_tick
 1280              	.LVL159:
 1281              		.loc 1 282 0
 1282 0014 4FF47A70 		mov	r0, #1000
 1283 0018 FFF7FEFF 		bl	test_start_timer
 1284              	.LVL160:
 1285              		.loc 1 278 0
 1286 001c 0024     		movs	r4, #0
 1287 001e DFF85080 		ldr	r8, .L86+20
 1288              		.loc 1 280 0
 1289 0022 013E     		subs	r6, r6, #1
 1290              	.LVL161:
 1291              		.loc 1 284 0
 1292 0024 2546     		mov	r5, r4
 1293              	.LVL162:
 1294              	.L81:
 1295              		.loc 1 284 0 is_stmt 0 discriminator 1
 1296 0026 0F4B     		ldr	r3, .L86+8
 1297 0028 4FF49871 		mov	r1, #304
ARM GAS  /var/folders/dt/0wfd0knj7gs46m8vwfzktm600000gn/T//ccgwL2QU.s 			page 24


 1298 002c 3246     		mov	r2, r6
 1299 002e 0095     		str	r5, [sp, #0]
 1300 0030 3846     		mov	r0, r7
 1301 0032 FFF7FEFF 		bl	chThdCreateStatic
 1302              	.LVL163:
 1303 0036 FFF7FEFF 		bl	chThdWait
 1304              	.LVL164:
 1305              		.loc 1 289 0 is_stmt 1 discriminator 1
 1306 003a D8F80030 		ldr	r3, [r8, #0]
 1307              		.loc 1 285 0 discriminator 1
 1308 003e 0134     		adds	r4, r4, #1
 1309              	.LVL165:
 1310              		.loc 1 289 0 discriminator 1
 1311 0040 002B     		cmp	r3, #0
 1312 0042 F0D0     		beq	.L81
 1313              		.loc 1 290 0
 1314 0044 0848     		ldr	r0, .L86+12
 1315 0046 FFF7FEFF 		bl	test_print
 1316              	.LVL166:
 1317              		.loc 1 291 0
 1318 004a 2046     		mov	r0, r4
 1319 004c FFF7FEFF 		bl	test_printn
 1320              	.LVL167:
 1321              		.loc 1 292 0
 1322 0050 0648     		ldr	r0, .L86+16
 1323              		.loc 1 293 0
 1324 0052 02B0     		add	sp, sp, #8
 1325 0054 BDE8F041 		pop	{r4, r5, r6, r7, r8, lr}
 1326              		.loc 1 292 0
 1327 0058 FFF7FEBF 		b	test_println
 1328              	.LVL168:
 1329              	.L87:
 1330              		.align	2
 1331              	.L86:
 1332 005c 00000000 		.word	rlist
 1333 0060 00000000 		.word	wa
 1334 0064 00000000 		.word	thread2
 1335 0068 A8000000 		.word	.LC11
 1336 006c F0000000 		.word	.LC16
 1337 0070 00000000 		.word	test_timer_done
 1338              		.cfi_endproc
 1339              	.LFE15:
 1340              		.size	bmk5_execute, .-bmk5_execute
 1341 0074 AFF30080 		.section	.text.bmk4_execute,"ax",%progbits
 1341      AFF30080 
 1341      AFF30080 
 1342              		.align	2
 1343              		.p2align 4,,15
 1344              		.thumb
 1345              		.thumb_func
 1346              		.type	bmk4_execute, %function
 1347              	bmk4_execute:
 1348              	.LFB14:
 1349              		.loc 1 228 0
 1350              		.cfi_startproc
 1351              		@ args = 0, pretend = 0, frame = 0
 1352              		@ frame_needed = 0, uses_anonymous_args = 0
ARM GAS  /var/folders/dt/0wfd0knj7gs46m8vwfzktm600000gn/T//ccgwL2QU.s 			page 25


 1353 0000 70B5     		push	{r4, r5, r6, lr}
 1354              	.LCFI15:
 1355              		.cfi_def_cfa_offset 16
 1356              		.cfi_offset 4, -16
 1357              		.cfi_offset 5, -12
 1358              		.cfi_offset 6, -8
 1359              		.cfi_offset 14, -4
 1360              		.loc 1 232 0
 1361 0002 254B     		ldr	r3, .L94
 1362 0004 2548     		ldr	r0, .L94+4
 1363 0006 DB69     		ldr	r3, [r3, #28]
 1364              		.loc 1 228 0
 1365 0008 82B0     		sub	sp, sp, #8
 1366              	.LCFI16:
 1367              		.cfi_def_cfa_offset 24
 1368              		.loc 1 232 0
 1369 000a 9A68     		ldr	r2, [r3, #8]
 1370 000c 0025     		movs	r5, #0
 1371 000e 4FF49871 		mov	r1, #304
 1372 0012 0132     		adds	r2, r2, #1
 1373 0014 224B     		ldr	r3, .L94+8
 1374 0016 0095     		str	r5, [sp, #0]
 1375 0018 0068     		ldr	r0, [r0, #0]
 1376 001a FFF7FEFF 		bl	chThdCreateStatic
 1377              	.LVL169:
 1378 001e 214B     		ldr	r3, .L94+12
 1379 0020 0446     		mov	r4, r0
 1380 0022 1860     		str	r0, [r3, #0]
 1381              	.LVL170:
 1382              		.loc 1 234 0
 1383 0024 FFF7FEFF 		bl	test_wait_tick
 1384              	.LVL171:
 1385              		.loc 1 235 0
 1386 0028 4FF47A70 		mov	r0, #1000
 1387 002c 1E4E     		ldr	r6, .L94+16
 1388 002e FFF7FEFF 		bl	test_start_timer
 1389              	.LVL172:
 1390              	.L89:
 1391              	.LBB6:
 1392              		.loc 1 237 0 discriminator 1
 1393 0032 2023     		movs	r3, #32
 1394              	.LVL173:
 1395              	@ 237 "../../test/testbmk.c" 1
 1396 0034 83F31188 		msr     BASEPRI, r3
 1397              	@ 0 "" 2
 1398              	.LVL174:
 1399              		.thumb
 1400              	.LBE6:
 1401              		.loc 1 238 0 discriminator 1
 1402 0038 0021     		movs	r1, #0
 1403 003a 2046     		mov	r0, r4
 1404 003c FFF7FEFF 		bl	chSchWakeupS
 1405              	.LVL175:
 1406              		.loc 1 239 0 discriminator 1
 1407 0040 2046     		mov	r0, r4
 1408 0042 0021     		movs	r1, #0
 1409 0044 FFF7FEFF 		bl	chSchWakeupS
ARM GAS  /var/folders/dt/0wfd0knj7gs46m8vwfzktm600000gn/T//ccgwL2QU.s 			page 26


 1410              	.LVL176:
 1411              		.loc 1 240 0 discriminator 1
 1412 0048 2046     		mov	r0, r4
 1413 004a 0021     		movs	r1, #0
 1414 004c FFF7FEFF 		bl	chSchWakeupS
 1415              	.LVL177:
 1416              		.loc 1 241 0 discriminator 1
 1417 0050 2046     		mov	r0, r4
 1418 0052 0021     		movs	r1, #0
 1419 0054 FFF7FEFF 		bl	chSchWakeupS
 1420              	.LVL178:
 1421              	.LBB7:
 1422              		.loc 1 242 0 discriminator 1
 1423 0058 0023     		movs	r3, #0
 1424              	.LVL179:
 1425              	@ 242 "../../test/testbmk.c" 1
 1426 005a 83F31188 		msr     BASEPRI, r3
 1427              	@ 0 "" 2
 1428              	.LVL180:
 1429              		.thumb
 1430              	.LBE7:
 1431              		.loc 1 247 0 discriminator 1
 1432 005e 3368     		ldr	r3, [r6, #0]
 1433              	.LVL181:
 1434              		.loc 1 243 0 discriminator 1
 1435 0060 0435     		adds	r5, r5, #4
 1436              	.LVL182:
 1437              		.loc 1 247 0 discriminator 1
 1438 0062 002B     		cmp	r3, #0
 1439 0064 E5D0     		beq	.L89
 1440              	.LBB8:
 1441              		.loc 1 248 0
 1442 0066 2023     		movs	r3, #32
 1443              	.LVL183:
 1444              	@ 248 "../../test/testbmk.c" 1
 1445 0068 83F31188 		msr     BASEPRI, r3
 1446              	@ 0 "" 2
 1447              	.LVL184:
 1448              		.thumb
 1449              	.LBE8:
 1450              		.loc 1 249 0
 1451 006c 4FF0FF31 		mov	r1, #-1
 1452 0070 2046     		mov	r0, r4
 1453 0072 FFF7FEFF 		bl	chSchWakeupS
 1454              	.LVL185:
 1455              	.LBB9:
 1456              		.loc 1 250 0
 1457 0076 0023     		movs	r3, #0
 1458              	.LVL186:
 1459              	@ 250 "../../test/testbmk.c" 1
 1460 0078 83F31188 		msr     BASEPRI, r3
 1461              	@ 0 "" 2
 1462              	.LVL187:
 1463              		.thumb
 1464              	.LBE9:
 1465              		.loc 1 252 0
 1466 007c FFF7FEFF 		bl	test_wait_threads
ARM GAS  /var/folders/dt/0wfd0knj7gs46m8vwfzktm600000gn/T//ccgwL2QU.s 			page 27


 1467              	.LVL188:
 1468              		.loc 1 253 0
 1469 0080 0A48     		ldr	r0, .L94+20
 1470 0082 FFF7FEFF 		bl	test_print
 1471              	.LVL189:
 1472              		.loc 1 254 0
 1473 0086 6800     		lsls	r0, r5, #1
 1474 0088 FFF7FEFF 		bl	test_printn
 1475              	.LVL190:
 1476              		.loc 1 255 0
 1477 008c 0848     		ldr	r0, .L94+24
 1478              		.loc 1 256 0
 1479 008e 02B0     		add	sp, sp, #8
 1480 0090 BDE87040 		pop	{r4, r5, r6, lr}
 1481              		.loc 1 255 0
 1482 0094 FFF7FEBF 		b	test_println
 1483              	.LVL191:
 1484              	.L95:
 1485              		.align	2
 1486              	.L94:
 1487 0098 00000000 		.word	rlist
 1488 009c 00000000 		.word	wa
 1489 00a0 00000000 		.word	thread4
 1490 00a4 00000000 		.word	threads
 1491 00a8 00000000 		.word	test_timer_done
 1492 00ac A8000000 		.word	.LC11
 1493 00b0 FC000000 		.word	.LC17
 1494              		.cfi_endproc
 1495              	.LFE14:
 1496              		.size	bmk4_execute, .-bmk4_execute
 1497 00b4 AFF30080 		.section	.text.msg_loop_test,"ax",%progbits
 1497      AFF30080 
 1497      AFF30080 
 1498              		.align	2
 1499              		.p2align 4,,15
 1500              		.thumb
 1501              		.thumb_func
 1502              		.type	msg_loop_test, %function
 1503              	msg_loop_test:
 1504              	.LFB8:
 1505              		.loc 1 91 0
 1506              		.cfi_startproc
 1507              		@ args = 0, pretend = 0, frame = 0
 1508              		@ frame_needed = 0, uses_anonymous_args = 0
 1509              	.LVL192:
 1510 0000 70B5     		push	{r4, r5, r6, lr}
 1511              	.LCFI17:
 1512              		.cfi_def_cfa_offset 16
 1513              		.cfi_offset 4, -16
 1514              		.cfi_offset 5, -12
 1515              		.cfi_offset 6, -8
 1516              		.cfi_offset 14, -4
 1517              		.loc 1 91 0
 1518 0002 0546     		mov	r5, r0
 1519              		.loc 1 94 0
 1520 0004 FFF7FEFF 		bl	test_wait_tick
 1521              	.LVL193:
ARM GAS  /var/folders/dt/0wfd0knj7gs46m8vwfzktm600000gn/T//ccgwL2QU.s 			page 28


 1522              		.loc 1 95 0
 1523 0008 4FF47A70 		mov	r0, #1000
 1524 000c FFF7FEFF 		bl	test_start_timer
 1525              	.LVL194:
 1526 0010 074E     		ldr	r6, .L102
 1527              		.loc 1 93 0
 1528 0012 0024     		movs	r4, #0
 1529              	.LVL195:
 1530              	.L97:
 1531              		.loc 1 97 0 discriminator 1
 1532 0014 2846     		mov	r0, r5
 1533 0016 0121     		movs	r1, #1
 1534 0018 FFF7FEFF 		bl	chMsgSend
 1535              	.LVL196:
 1536              		.loc 1 102 0 discriminator 1
 1537 001c 3368     		ldr	r3, [r6, #0]
 1538              		.loc 1 98 0 discriminator 1
 1539 001e 0134     		adds	r4, r4, #1
 1540              	.LVL197:
 1541              		.loc 1 102 0 discriminator 1
 1542 0020 002B     		cmp	r3, #0
 1543 0022 F7D0     		beq	.L97
 1544              		.loc 1 103 0
 1545 0024 2846     		mov	r0, r5
 1546 0026 0021     		movs	r1, #0
 1547 0028 FFF7FEFF 		bl	chMsgSend
 1548              	.LVL198:
 1549              		.loc 1 105 0
 1550 002c 2046     		mov	r0, r4
 1551 002e 70BD     		pop	{r4, r5, r6, pc}
 1552              	.L103:
 1553              		.align	2
 1554              	.L102:
 1555 0030 00000000 		.word	test_timer_done
 1556              		.cfi_endproc
 1557              	.LFE8:
 1558              		.size	msg_loop_test, .-msg_loop_test
 1559 0034 AFF30080 		.section	.text.bmk3_execute,"ax",%progbits
 1559      AFF30080 
 1559      AFF30080 
 1560              		.align	2
 1561              		.p2align 4,,15
 1562              		.thumb
 1563              		.thumb_func
 1564              		.type	bmk3_execute, %function
 1565              	bmk3_execute:
 1566              	.LFB12:
 1567              		.loc 1 180 0
 1568              		.cfi_startproc
 1569              		@ args = 0, pretend = 0, frame = 0
 1570              		@ frame_needed = 0, uses_anonymous_args = 0
 1571 0000 2DE9F041 		push	{r4, r5, r6, r7, r8, lr}
 1572              	.LCFI18:
 1573              		.cfi_def_cfa_offset 24
 1574              		.cfi_offset 4, -24
 1575              		.cfi_offset 5, -20
 1576              		.cfi_offset 6, -16
ARM GAS  /var/folders/dt/0wfd0knj7gs46m8vwfzktm600000gn/T//ccgwL2QU.s 			page 29


 1577              		.cfi_offset 7, -12
 1578              		.cfi_offset 8, -8
 1579              		.cfi_offset 14, -4
 1580              		.loc 1 183 0
 1581 0004 40F20006 		movw	r6, #:lower16:rlist
 1582 0008 C0F20006 		movt	r6, #:upper16:rlist
 1583 000c F369     		ldr	r3, [r6, #28]
 1584 000e 40F20005 		movw	r5, #:lower16:wa
 1585 0012 9A68     		ldr	r2, [r3, #8]
 1586              		.loc 1 180 0
 1587 0014 82B0     		sub	sp, sp, #8
 1588              	.LCFI19:
 1589              		.cfi_def_cfa_offset 32
 1590              		.loc 1 183 0
 1591 0016 0027     		movs	r7, #0
 1592 0018 C0F20005 		movt	r5, #:upper16:wa
 1593 001c 40F20003 		movw	r3, #:lower16:thread1
 1594 0020 0132     		adds	r2, r2, #1
 1595 0022 2868     		ldr	r0, [r5, #0]
 1596 0024 4FF49871 		mov	r1, #304
 1597 0028 C0F20003 		movt	r3, #:upper16:thread1
 1598 002c 0097     		str	r7, [sp, #0]
 1599 002e FFF7FEFF 		bl	chThdCreateStatic
 1600              	.LVL199:
 1601              		.loc 1 184 0
 1602 0032 F369     		ldr	r3, [r6, #28]
 1603              		.loc 1 183 0
 1604 0034 40F20004 		movw	r4, #:lower16:threads
 1605              		.loc 1 184 0
 1606 0038 9A68     		ldr	r2, [r3, #8]
 1607 003a 40F20008 		movw	r8, #:lower16:thread2
 1608              		.loc 1 183 0
 1609 003e C0F20004 		movt	r4, #:upper16:threads
 1610              		.loc 1 184 0
 1611 0042 C0F20008 		movt	r8, #:upper16:thread2
 1612              		.loc 1 183 0
 1613 0046 2060     		str	r0, [r4, #0]
 1614              		.loc 1 184 0
 1615 0048 023A     		subs	r2, r2, #2
 1616 004a 4346     		mov	r3, r8
 1617 004c 4FF49871 		mov	r1, #304
 1618 0050 0097     		str	r7, [sp, #0]
 1619 0052 6868     		ldr	r0, [r5, #4]
 1620 0054 FFF7FEFF 		bl	chThdCreateStatic
 1621              	.LVL200:
 1622              		.loc 1 185 0
 1623 0058 F369     		ldr	r3, [r6, #28]
 1624 005a 4FF49871 		mov	r1, #304
 1625 005e 9A68     		ldr	r2, [r3, #8]
 1626              		.loc 1 184 0
 1627 0060 6060     		str	r0, [r4, #4]
 1628              		.loc 1 185 0
 1629 0062 033A     		subs	r2, r2, #3
 1630 0064 4346     		mov	r3, r8
 1631 0066 0097     		str	r7, [sp, #0]
 1632 0068 A868     		ldr	r0, [r5, #8]
 1633 006a FFF7FEFF 		bl	chThdCreateStatic
ARM GAS  /var/folders/dt/0wfd0knj7gs46m8vwfzktm600000gn/T//ccgwL2QU.s 			page 30


 1634              	.LVL201:
 1635              		.loc 1 186 0
 1636 006e F369     		ldr	r3, [r6, #28]
 1637 0070 4FF49871 		mov	r1, #304
 1638 0074 9A68     		ldr	r2, [r3, #8]
 1639              		.loc 1 185 0
 1640 0076 A060     		str	r0, [r4, #8]
 1641              		.loc 1 186 0
 1642 0078 043A     		subs	r2, r2, #4
 1643 007a 4346     		mov	r3, r8
 1644 007c 0097     		str	r7, [sp, #0]
 1645 007e E868     		ldr	r0, [r5, #12]
 1646 0080 FFF7FEFF 		bl	chThdCreateStatic
 1647              	.LVL202:
 1648              		.loc 1 187 0
 1649 0084 F369     		ldr	r3, [r6, #28]
 1650 0086 2D69     		ldr	r5, [r5, #16]
 1651 0088 9A68     		ldr	r2, [r3, #8]
 1652 008a 4FF49871 		mov	r1, #304
 1653 008e 053A     		subs	r2, r2, #5
 1654 0090 4346     		mov	r3, r8
 1655              		.loc 1 186 0
 1656 0092 E060     		str	r0, [r4, #12]
 1657              		.loc 1 187 0
 1658 0094 0097     		str	r7, [sp, #0]
 1659 0096 2846     		mov	r0, r5
 1660 0098 FFF7FEFF 		bl	chThdCreateStatic
 1661              	.LVL203:
 1662 009c 2061     		str	r0, [r4, #16]
 1663              		.loc 1 188 0
 1664 009e 2068     		ldr	r0, [r4, #0]
 1665 00a0 FFF7FEFF 		bl	msg_loop_test
 1666              	.LVL204:
 1667 00a4 0446     		mov	r4, r0
 1668              	.LVL205:
 1669              		.loc 1 189 0
 1670 00a6 FFF7FEFF 		bl	test_wait_threads
 1671              	.LVL206:
 1672              		.loc 1 190 0
 1673 00aa 40F20000 		movw	r0, #:lower16:.LC11
 1674 00ae C0F20000 		movt	r0, #:upper16:.LC11
 1675 00b2 FFF7FEFF 		bl	test_print
 1676              	.LVL207:
 1677              		.loc 1 191 0
 1678 00b6 2046     		mov	r0, r4
 1679 00b8 FFF7FEFF 		bl	test_printn
 1680              	.LVL208:
 1681              		.loc 1 192 0
 1682 00bc 40F20000 		movw	r0, #:lower16:.LC19
 1683 00c0 C0F20000 		movt	r0, #:upper16:.LC19
 1684 00c4 FFF7FEFF 		bl	test_print
 1685              	.LVL209:
 1686              		.loc 1 193 0
 1687 00c8 6000     		lsls	r0, r4, #1
 1688 00ca FFF7FEFF 		bl	test_printn
 1689              	.LVL210:
 1690              		.loc 1 194 0
ARM GAS  /var/folders/dt/0wfd0knj7gs46m8vwfzktm600000gn/T//ccgwL2QU.s 			page 31


 1691 00ce 40F20000 		movw	r0, #:lower16:.LC17
 1692 00d2 C0F20000 		movt	r0, #:upper16:.LC17
 1693              		.loc 1 195 0
 1694 00d6 02B0     		add	sp, sp, #8
 1695 00d8 BDE8F041 		pop	{r4, r5, r6, r7, r8, lr}
 1696              		.loc 1 194 0
 1697 00dc FFF7FEBF 		b	test_println
 1698              	.LVL211:
 1699              		.cfi_endproc
 1700              	.LFE12:
 1701              		.size	bmk3_execute, .-bmk3_execute
 1702              		.section	.text.bmk2_execute,"ax",%progbits
 1703              		.align	2
 1704              		.p2align 4,,15
 1705              		.thumb
 1706              		.thumb_func
 1707              		.type	bmk2_execute, %function
 1708              	bmk2_execute:
 1709              	.LFB10:
 1710              		.loc 1 145 0
 1711              		.cfi_startproc
 1712              		@ args = 0, pretend = 0, frame = 0
 1713              		@ frame_needed = 0, uses_anonymous_args = 0
 1714 0000 10B5     		push	{r4, lr}
 1715              	.LCFI20:
 1716              		.cfi_def_cfa_offset 8
 1717              		.cfi_offset 4, -8
 1718              		.cfi_offset 14, -4
 1719              		.loc 1 148 0
 1720 0002 40F20003 		movw	r3, #:lower16:rlist
 1721 0006 C0F20003 		movt	r3, #:upper16:rlist
 1722 000a DA69     		ldr	r2, [r3, #28]
 1723 000c 40F20003 		movw	r3, #:lower16:wa
 1724 0010 9268     		ldr	r2, [r2, #8]
 1725 0012 C0F20003 		movt	r3, #:upper16:wa
 1726              		.loc 1 145 0
 1727 0016 82B0     		sub	sp, sp, #8
 1728              	.LCFI21:
 1729              		.cfi_def_cfa_offset 16
 1730              		.loc 1 148 0
 1731 0018 0024     		movs	r4, #0
 1732 001a 1868     		ldr	r0, [r3, #0]
 1733 001c 40F20003 		movw	r3, #:lower16:thread1
 1734 0020 4FF49871 		mov	r1, #304
 1735 0024 0132     		adds	r2, r2, #1
 1736 0026 0094     		str	r4, [sp, #0]
 1737 0028 C0F20003 		movt	r3, #:upper16:thread1
 1738 002c FFF7FEFF 		bl	chThdCreateStatic
 1739              	.LVL212:
 1740 0030 40F20003 		movw	r3, #:lower16:threads
 1741 0034 C0F20003 		movt	r3, #:upper16:threads
 1742 0038 1860     		str	r0, [r3, #0]
 1743              		.loc 1 149 0
 1744 003a FFF7FEFF 		bl	msg_loop_test
 1745              	.LVL213:
 1746 003e 0446     		mov	r4, r0
 1747              	.LVL214:
ARM GAS  /var/folders/dt/0wfd0knj7gs46m8vwfzktm600000gn/T//ccgwL2QU.s 			page 32


 1748              		.loc 1 150 0
 1749 0040 FFF7FEFF 		bl	test_wait_threads
 1750              	.LVL215:
 1751              		.loc 1 151 0
 1752 0044 40F20000 		movw	r0, #:lower16:.LC11
 1753 0048 C0F20000 		movt	r0, #:upper16:.LC11
 1754 004c FFF7FEFF 		bl	test_print
 1755              	.LVL216:
 1756              		.loc 1 152 0
 1757 0050 2046     		mov	r0, r4
 1758 0052 FFF7FEFF 		bl	test_printn
 1759              	.LVL217:
 1760              		.loc 1 153 0
 1761 0056 40F20000 		movw	r0, #:lower16:.LC19
 1762 005a C0F20000 		movt	r0, #:upper16:.LC19
 1763 005e FFF7FEFF 		bl	test_print
 1764              	.LVL218:
 1765              		.loc 1 154 0
 1766 0062 6000     		lsls	r0, r4, #1
 1767 0064 FFF7FEFF 		bl	test_printn
 1768              	.LVL219:
 1769              		.loc 1 155 0
 1770 0068 40F20000 		movw	r0, #:lower16:.LC17
 1771 006c C0F20000 		movt	r0, #:upper16:.LC17
 1772              		.loc 1 156 0
 1773 0070 02B0     		add	sp, sp, #8
 1774 0072 BDE81040 		pop	{r4, lr}
 1775              		.loc 1 155 0
 1776 0076 FFF7FEBF 		b	test_println
 1777              	.LVL220:
 1778              		.cfi_endproc
 1779              	.LFE10:
 1780              		.size	bmk2_execute, .-bmk2_execute
 1781 007a 00BFAFF3 		.section	.text.bmk1_execute,"ax",%progbits
 1781      0080
 1782              		.align	2
 1783              		.p2align 4,,15
 1784              		.thumb
 1785              		.thumb_func
 1786              		.type	bmk1_execute, %function
 1787              	bmk1_execute:
 1788              	.LFB9:
 1789              		.loc 1 116 0
 1790              		.cfi_startproc
 1791              		@ args = 0, pretend = 0, frame = 0
 1792              		@ frame_needed = 0, uses_anonymous_args = 0
 1793 0000 10B5     		push	{r4, lr}
 1794              	.LCFI22:
 1795              		.cfi_def_cfa_offset 8
 1796              		.cfi_offset 4, -8
 1797              		.cfi_offset 14, -4
 1798              		.loc 1 119 0
 1799 0002 40F20003 		movw	r3, #:lower16:rlist
 1800 0006 C0F20003 		movt	r3, #:upper16:rlist
 1801 000a DA69     		ldr	r2, [r3, #28]
 1802 000c 40F20003 		movw	r3, #:lower16:wa
 1803 0010 9268     		ldr	r2, [r2, #8]
ARM GAS  /var/folders/dt/0wfd0knj7gs46m8vwfzktm600000gn/T//ccgwL2QU.s 			page 33


 1804 0012 C0F20003 		movt	r3, #:upper16:wa
 1805              		.loc 1 116 0
 1806 0016 82B0     		sub	sp, sp, #8
 1807              	.LCFI23:
 1808              		.cfi_def_cfa_offset 16
 1809              		.loc 1 119 0
 1810 0018 0024     		movs	r4, #0
 1811 001a 1868     		ldr	r0, [r3, #0]
 1812 001c 40F20003 		movw	r3, #:lower16:thread1
 1813 0020 4FF49871 		mov	r1, #304
 1814 0024 013A     		subs	r2, r2, #1
 1815 0026 0094     		str	r4, [sp, #0]
 1816 0028 C0F20003 		movt	r3, #:upper16:thread1
 1817 002c FFF7FEFF 		bl	chThdCreateStatic
 1818              	.LVL221:
 1819 0030 40F20003 		movw	r3, #:lower16:threads
 1820 0034 C0F20003 		movt	r3, #:upper16:threads
 1821 0038 1860     		str	r0, [r3, #0]
 1822              		.loc 1 120 0
 1823 003a FFF7FEFF 		bl	msg_loop_test
 1824              	.LVL222:
 1825 003e 0446     		mov	r4, r0
 1826              	.LVL223:
 1827              		.loc 1 121 0
 1828 0040 FFF7FEFF 		bl	test_wait_threads
 1829              	.LVL224:
 1830              		.loc 1 122 0
 1831 0044 40F20000 		movw	r0, #:lower16:.LC11
 1832 0048 C0F20000 		movt	r0, #:upper16:.LC11
 1833 004c FFF7FEFF 		bl	test_print
 1834              	.LVL225:
 1835              		.loc 1 123 0
 1836 0050 2046     		mov	r0, r4
 1837 0052 FFF7FEFF 		bl	test_printn
 1838              	.LVL226:
 1839              		.loc 1 124 0
 1840 0056 40F20000 		movw	r0, #:lower16:.LC19
 1841 005a C0F20000 		movt	r0, #:upper16:.LC19
 1842 005e FFF7FEFF 		bl	test_print
 1843              	.LVL227:
 1844              		.loc 1 125 0
 1845 0062 6000     		lsls	r0, r4, #1
 1846 0064 FFF7FEFF 		bl	test_printn
 1847              	.LVL228:
 1848              		.loc 1 126 0
 1849 0068 40F20000 		movw	r0, #:lower16:.LC17
 1850 006c C0F20000 		movt	r0, #:upper16:.LC17
 1851              		.loc 1 127 0
 1852 0070 02B0     		add	sp, sp, #8
 1853 0072 BDE81040 		pop	{r4, lr}
 1854              		.loc 1 126 0
 1855 0076 FFF7FEBF 		b	test_println
 1856              	.LVL229:
 1857              		.cfi_endproc
 1858              	.LFE9:
 1859              		.size	bmk1_execute, .-bmk1_execute
 1860 007a 00BFAFF3 		.section	.text.thread1,"ax",%progbits
ARM GAS  /var/folders/dt/0wfd0knj7gs46m8vwfzktm600000gn/T//ccgwL2QU.s 			page 34


 1860      0080
 1861              		.align	2
 1862              		.p2align 4,,15
 1863              		.thumb
 1864              		.thumb_func
 1865              		.type	thread1, %function
 1866              	thread1:
 1867              	.LFB7:
 1868              		.loc 1 75 0
 1869              		.cfi_startproc
 1870              		@ args = 0, pretend = 0, frame = 0
 1871              		@ frame_needed = 0, uses_anonymous_args = 0
 1872              	.LVL230:
 1873 0000 10B5     		push	{r4, lr}
 1874              	.LCFI24:
 1875              		.cfi_def_cfa_offset 8
 1876              		.cfi_offset 4, -8
 1877              		.cfi_offset 14, -4
 1878              	.LVL231:
 1879              	.L108:
 1880              		.loc 1 81 0 discriminator 1
 1881 0002 FFF7FEFF 		bl	chMsgWait
 1882              	.LVL232:
 1883              		.loc 1 82 0 discriminator 1
 1884 0006 446B     		ldr	r4, [r0, #52]
 1885              	.LVL233:
 1886              		.loc 1 83 0 discriminator 1
 1887 0008 2146     		mov	r1, r4
 1888 000a FFF7FEFF 		bl	chMsgRelease
 1889              	.LVL234:
 1890              		.loc 1 84 0 discriminator 1
 1891 000e 002C     		cmp	r4, #0
 1892 0010 F7D1     		bne	.L108
 1893              		.loc 1 86 0
 1894 0012 2046     		mov	r0, r4
 1895 0014 10BD     		pop	{r4, pc}
 1896              		.cfi_endproc
 1897              	.LFE7:
 1898              		.size	thread1, .-thread1
 1899 0016 00BFAFF3 		.section	.text.thread4,"ax",%progbits
 1899      0080AFF3 
 1899      0080
 1900              		.align	2
 1901              		.p2align 4,,15
 1902              		.global	thread4
 1903              		.thumb
 1904              		.thumb_func
 1905              		.type	thread4, %function
 1906              	thread4:
 1907              	.LFB13:
 1908              		.loc 1 214 0
 1909              		.cfi_startproc
 1910              		@ args = 0, pretend = 0, frame = 0
 1911              		@ frame_needed = 0, uses_anonymous_args = 0
 1912              	.LVL235:
 1913              		.loc 1 216 0
 1914 0000 084A     		ldr	r2, .L116
ARM GAS  /var/folders/dt/0wfd0knj7gs46m8vwfzktm600000gn/T//ccgwL2QU.s 			page 35


 1915              		.loc 1 214 0
 1916 0002 10B5     		push	{r4, lr}
 1917              	.LCFI25:
 1918              		.cfi_def_cfa_offset 8
 1919              		.cfi_offset 4, -8
 1920              		.cfi_offset 14, -4
 1921              	.LBB10:
 1922              		.loc 1 219 0
 1923 0004 2023     		movs	r3, #32
 1924              	.LVL236:
 1925              	.LBE10:
 1926              		.loc 1 216 0
 1927 0006 D469     		ldr	r4, [r2, #28]
 1928              	.LVL237:
 1929              	.LBB11:
 1930              		.loc 1 219 0
 1931              	@ 219 "../../test/testbmk.c" 1
 1932 0008 83F31188 		msr     BASEPRI, r3
 1933              	@ 0 "" 2
 1934              	.LVL238:
 1935              		.thumb
 1936              	.L111:
 1937              	.LBE11:
 1938              		.loc 1 221 0 discriminator 1
 1939 000c 0220     		movs	r0, #2
 1940 000e FFF7FEFF 		bl	chSchGoSleepS
 1941              	.LVL239:
 1942              		.loc 1 223 0 discriminator 1
 1943 0012 636A     		ldr	r3, [r4, #36]
 1944 0014 002B     		cmp	r3, #0
 1945 0016 F9D0     		beq	.L111
 1946              	.LBB12:
 1947              		.loc 1 224 0
 1948 0018 0023     		movs	r3, #0
 1949              	.LVL240:
 1950              	@ 224 "../../test/testbmk.c" 1
 1951 001a 83F31188 		msr     BASEPRI, r3
 1952              	@ 0 "" 2
 1953              	.LVL241:
 1954              		.thumb
 1955              	.LBE12:
 1956              		.loc 1 226 0
 1957 001e 1846     		mov	r0, r3
 1958 0020 10BD     		pop	{r4, pc}
 1959              	.L117:
 1960 0022 00BF     		.align	2
 1961              	.L116:
 1962 0024 00000000 		.word	rlist
 1963              		.cfi_endproc
 1964              	.LFE13:
 1965              		.size	thread4, .-thread4
 1966              		.global	patternbmk
 1967              		.global	testbmk13
 1968              		.global	testbmk12
 1969              		.global	testbmk11
 1970              		.global	testbmk10
 1971              		.global	testbmk9
ARM GAS  /var/folders/dt/0wfd0knj7gs46m8vwfzktm600000gn/T//ccgwL2QU.s 			page 36


 1972              		.global	testbmk8
 1973              		.global	testbmk7
 1974              		.global	testbmk6
 1975              		.global	testbmk5
 1976              		.global	testbmk4
 1977              		.global	testbmk3
 1978              		.global	testbmk2
 1979              		.global	testbmk1
 1980 0028 AFF30080 		.section	.rodata.testbmk8,"a",%progbits
 1980      AFF30080 
 1981              		.align	2
 1982              		.type	testbmk8, %object
 1983              		.size	testbmk8, 16
 1984              	testbmk8:
 1985 0000 D0010000 		.word	.LC25
 1986 0004 00000000 		.word	0
 1987 0008 00000000 		.word	0
 1988 000c 00000000 		.word	bmk8_execute
 1989              		.section	.rodata.patternbmk,"a",%progbits
 1990              		.align	2
 1991              		.type	patternbmk, %object
 1992              		.size	patternbmk, 56
 1993              	patternbmk:
 1994 0000 00000000 		.word	testbmk1
 1995 0004 00000000 		.word	testbmk2
 1996 0008 00000000 		.word	testbmk3
 1997 000c 00000000 		.word	testbmk4
 1998 0010 00000000 		.word	testbmk5
 1999 0014 00000000 		.word	testbmk6
 2000 0018 00000000 		.word	testbmk7
 2001 001c 00000000 		.word	testbmk8
 2002 0020 00000000 		.word	testbmk9
 2003 0024 00000000 		.word	testbmk10
 2004 0028 00000000 		.word	testbmk11
 2005 002c 00000000 		.word	testbmk12
 2006 0030 00000000 		.word	testbmk13
 2007 0034 00000000 		.word	0
 2008              		.section	.rodata.testbmk3,"a",%progbits
 2009              		.align	2
 2010              		.type	testbmk3, %object
 2011              		.size	testbmk3, 16
 2012              	testbmk3:
 2013 0000 80020000 		.word	.LC30
 2014 0004 00000000 		.word	0
 2015 0008 00000000 		.word	0
 2016 000c 00000000 		.word	bmk3_execute
 2017              		.section	.rodata.testbmk9,"a",%progbits
 2018              		.align	2
 2019              		.type	testbmk9, %object
 2020              		.size	testbmk9, 16
 2021              	testbmk9:
 2022 0000 AC010000 		.word	.LC24
 2023 0004 00000000 		.word	0
 2024 0008 00000000 		.word	0
 2025 000c 00000000 		.word	bmk9_execute
 2026              		.section	.rodata.testbmk10,"a",%progbits
 2027              		.align	2
ARM GAS  /var/folders/dt/0wfd0knj7gs46m8vwfzktm600000gn/T//ccgwL2QU.s 			page 37


 2028              		.type	testbmk10, %object
 2029              		.size	testbmk10, 16
 2030              	testbmk10:
 2031 0000 88010000 		.word	.LC23
 2032 0004 00000000 		.word	0
 2033 0008 00000000 		.word	0
 2034 000c 00000000 		.word	bmk10_execute
 2035              		.section	.rodata.testbmk4,"a",%progbits
 2036              		.align	2
 2037              		.type	testbmk4, %object
 2038              		.size	testbmk4, 16
 2039              	testbmk4:
 2040 0000 64020000 		.word	.LC29
 2041 0004 00000000 		.word	0
 2042 0008 00000000 		.word	0
 2043 000c 00000000 		.word	bmk4_execute
 2044              		.section	.bss.mtx1,"aw",%nobits
 2045              		.align	2
 2046              		.set	.LANCHOR0,. + 0
 2047              		.type	mtx1, %object
 2048              		.size	mtx1, 16
 2049              	mtx1:
 2050 0000 00000000 		.space	16
 2050      00000000 
 2050      00000000 
 2050      00000000 
 2051              		.section	.bss.ib.4962,"aw",%nobits
 2052              		.align	2
 2053              		.set	.LANCHOR5,. + 0
 2054              		.type	ib.4962, %object
 2055              		.size	ib.4962, 16
 2056              	ib.4962:
 2057 0000 00000000 		.space	16
 2057      00000000 
 2057      00000000 
 2057      00000000 
 2058              		.section	.rodata.testbmk13,"a",%progbits
 2059              		.align	2
 2060              		.type	testbmk13, %object
 2061              		.size	testbmk13, 16
 2062              	testbmk13:
 2063 0000 28010000 		.word	.LC20
 2064 0004 00000000 		.word	0
 2065 0008 00000000 		.word	0
 2066 000c 00000000 		.word	bmk13_execute
 2067              		.section	.bss.vt2.4976,"aw",%nobits
 2068              		.align	2
 2069              		.set	.LANCHOR3,. + 0
 2070              		.type	vt2.4976, %object
 2071              		.size	vt2.4976, 20
 2072              	vt2.4976:
 2073 0000 00000000 		.space	20
 2073      00000000 
 2073      00000000 
 2073      00000000 
 2073      00000000 
 2074              		.section	.rodata.testbmk2,"a",%progbits
ARM GAS  /var/folders/dt/0wfd0knj7gs46m8vwfzktm600000gn/T//ccgwL2QU.s 			page 38


 2075              		.align	2
 2076              		.type	testbmk2, %object
 2077              		.size	testbmk2, 16
 2078              	testbmk2:
 2079 0000 98020000 		.word	.LC31
 2080 0004 00000000 		.word	0
 2081 0008 00000000 		.word	0
 2082 000c 00000000 		.word	bmk2_execute
 2083              		.section	.rodata.str1.4,"aMS",%progbits,1
 2084              		.align	2
 2085              	.LC0:
 2086 0000 2D2D2D20 		.ascii	"--- System: \000"
 2086      53797374 
 2086      656D3A20 
 2086      00
 2087 000d 000000   		.space	3
 2088              	.LC1:
 2089 0010 20627974 		.ascii	" bytes\000"
 2089      657300
 2090 0017 00       		.space	1
 2091              	.LC2:
 2092 0018 2D2D2D20 		.ascii	"--- Thread: \000"
 2092      54687265 
 2092      61643A20 
 2092      00
 2093 0025 000000   		.space	3
 2094              	.LC3:
 2095 0028 2D2D2D20 		.ascii	"--- Timer : \000"
 2095      54696D65 
 2095      72203A20 
 2095      00
 2096 0035 000000   		.space	3
 2097              	.LC4:
 2098 0038 2D2D2D20 		.ascii	"--- Semaph: \000"
 2098      53656D61 
 2098      70683A20 
 2098      00
 2099 0045 000000   		.space	3
 2100              	.LC5:
 2101 0048 2D2D2D20 		.ascii	"--- EventS: \000"
 2101      4576656E 
 2101      74533A20 
 2101      00
 2102 0055 000000   		.space	3
 2103              	.LC6:
 2104 0058 2D2D2D20 		.ascii	"--- EventL: \000"
 2104      4576656E 
 2104      744C3A20 
 2104      00
 2105 0065 000000   		.space	3
 2106              	.LC7:
 2107 0068 2D2D2D20 		.ascii	"--- Mutex : \000"
 2107      4D757465 
 2107      78203A20 
 2107      00
 2108 0075 000000   		.space	3
 2109              	.LC8:
ARM GAS  /var/folders/dt/0wfd0knj7gs46m8vwfzktm600000gn/T//ccgwL2QU.s 			page 39


 2110 0078 2D2D2D20 		.ascii	"--- CondV.: \000"
 2110      436F6E64 
 2110      562E3A20 
 2110      00
 2111 0085 000000   		.space	3
 2112              	.LC9:
 2113 0088 2D2D2D20 		.ascii	"--- Queue : \000"
 2113      51756575 
 2113      65203A20 
 2113      00
 2114 0095 000000   		.space	3
 2115              	.LC10:
 2116 0098 2D2D2D20 		.ascii	"--- MailB.: \000"
 2116      4D61696C 
 2116      422E3A20 
 2116      00
 2117 00a5 000000   		.space	3
 2118              	.LC11:
 2119 00a8 2D2D2D20 		.ascii	"--- Score : \000"
 2119      53636F72 
 2119      65203A20 
 2119      00
 2120 00b5 000000   		.space	3
 2121              	.LC12:
 2122 00b8 206C6F63 		.ascii	" lock+unlock/S\000"
 2122      6B2B756E 
 2122      6C6F636B 
 2122      2F5300
 2123 00c7 00       		.space	1
 2124              	.LC13:
 2125 00c8 20776169 		.ascii	" wait+signal/S\000"
 2125      742B7369 
 2125      676E616C 
 2125      2F5300
 2126 00d7 00       		.space	1
 2127              	.LC14:
 2128 00d8 2074696D 		.ascii	" timers/S\000"
 2128      6572732F 
 2128      5300
 2129 00e2 0000     		.space	2
 2130              	.LC15:
 2131 00e4 20627974 		.ascii	" bytes/S\000"
 2131      65732F53 
 2131      00
 2132 00ed 000000   		.space	3
 2133              	.LC16:
 2134 00f0 20746872 		.ascii	" threads/S\000"
 2134      65616473 
 2134      2F5300
 2135 00fb 00       		.space	1
 2136              	.LC17:
 2137 00fc 20637478 		.ascii	" ctxswc/S\000"
 2137      7377632F 
 2137      5300
 2138 0106 0000     		.space	2
 2139              	.LC18:
 2140 0108 20726573 		.ascii	" reschedules/S, \000"
ARM GAS  /var/folders/dt/0wfd0knj7gs46m8vwfzktm600000gn/T//ccgwL2QU.s 			page 40


 2140      63686564 
 2140      756C6573 
 2140      2F532C20 
 2140      00
 2141 0119 000000   		.space	3
 2142              	.LC19:
 2143 011c 206D7367 		.ascii	" msgs/S, \000"
 2143      732F532C 
 2143      2000
 2144 0126 0000     		.space	2
 2145              	.LC20:
 2146 0128 42656E63 		.ascii	"Benchmark, RAM footprint\000"
 2146      686D6172 
 2146      6B2C2052 
 2146      414D2066 
 2146      6F6F7470 
 2147 0141 000000   		.space	3
 2148              	.LC21:
 2149 0144 42656E63 		.ascii	"Benchmark, mutexes lock/unlock\000"
 2149      686D6172 
 2149      6B2C206D 
 2149      75746578 
 2149      6573206C 
 2150 0163 00       		.space	1
 2151              	.LC22:
 2152 0164 42656E63 		.ascii	"Benchmark, semaphores wait/signal\000"
 2152      686D6172 
 2152      6B2C2073 
 2152      656D6170 
 2152      686F7265 
 2153 0186 0000     		.space	2
 2154              	.LC23:
 2155 0188 42656E63 		.ascii	"Benchmark, virtual timers set/reset\000"
 2155      686D6172 
 2155      6B2C2076 
 2155      69727475 
 2155      616C2074 
 2156              	.LC24:
 2157 01ac 42656E63 		.ascii	"Benchmark, I/O Queues throughput\000"
 2157      686D6172 
 2157      6B2C2049 
 2157      2F4F2051 
 2157      75657565 
 2158 01cd 000000   		.space	3
 2159              	.LC25:
 2160 01d0 42656E63 		.ascii	"Benchmark, round robin context switching\000"
 2160      686D6172 
 2160      6B2C2072 
 2160      6F756E64 
 2160      20726F62 
 2161 01f9 000000   		.space	3
 2162              	.LC26:
 2163 01fc 42656E63 		.ascii	"Benchmark, mass reschedule, 5 threads\000"
 2163      686D6172 
 2163      6B2C206D 
 2163      61737320 
 2163      72657363 
ARM GAS  /var/folders/dt/0wfd0knj7gs46m8vwfzktm600000gn/T//ccgwL2QU.s 			page 41


 2164 0222 0000     		.space	2
 2165              	.LC27:
 2166 0224 42656E63 		.ascii	"Benchmark, threads, create only\000"
 2166      686D6172 
 2166      6B2C2074 
 2166      68726561 
 2166      64732C20 
 2167              	.LC28:
 2168 0244 42656E63 		.ascii	"Benchmark, threads, full cycle\000"
 2168      686D6172 
 2168      6B2C2074 
 2168      68726561 
 2168      64732C20 
 2169 0263 00       		.space	1
 2170              	.LC29:
 2171 0264 42656E63 		.ascii	"Benchmark, context switch\000"
 2171      686D6172 
 2171      6B2C2063 
 2171      6F6E7465 
 2171      78742073 
 2172 027e 0000     		.space	2
 2173              	.LC30:
 2174 0280 42656E63 		.ascii	"Benchmark, messages #3\000"
 2174      686D6172 
 2174      6B2C206D 
 2174      65737361 
 2174      67657320 
 2175 0297 00       		.space	1
 2176              	.LC31:
 2177 0298 42656E63 		.ascii	"Benchmark, messages #2\000"
 2177      686D6172 
 2177      6B2C206D 
 2177      65737361 
 2177      67657320 
 2178 02af 00       		.space	1
 2179              	.LC32:
 2180 02b0 42656E63 		.ascii	"Benchmark, messages #1\000"
 2180      686D6172 
 2180      6B2C206D 
 2180      65737361 
 2180      67657320 
 2181 02c7 00       		.section	.bss.vt1.4975,"aw",%nobits
 2182              		.align	2
 2183              		.set	.LANCHOR2,. + 0
 2184              		.type	vt1.4975, %object
 2185              		.size	vt1.4975, 20
 2186              	vt1.4975:
 2187 0000 00000000 		.space	20
 2187      00000000 
 2187      00000000 
 2187      00000000 
 2187      00000000 
 2188              		.section	.bss.sem1,"aw",%nobits
 2189              		.align	2
 2190              		.set	.LANCHOR1,. + 0
 2191              		.type	sem1, %object
 2192              		.size	sem1, 12
ARM GAS  /var/folders/dt/0wfd0knj7gs46m8vwfzktm600000gn/T//ccgwL2QU.s 			page 42


 2193              	sem1:
 2194 0000 00000000 		.space	12
 2194      00000000 
 2194      00000000 
 2195              		.section	.rodata.testbmk1,"a",%progbits
 2196              		.align	2
 2197              		.type	testbmk1, %object
 2198              		.size	testbmk1, 16
 2199              	testbmk1:
 2200 0000 B0020000 		.word	.LC32
 2201 0004 00000000 		.word	0
 2202 0008 00000000 		.word	0
 2203 000c 00000000 		.word	bmk1_execute
 2204              		.section	.rodata.testbmk11,"a",%progbits
 2205              		.align	2
 2206              		.type	testbmk11, %object
 2207              		.size	testbmk11, 16
 2208              	testbmk11:
 2209 0000 64010000 		.word	.LC22
 2210 0004 00000000 		.word	bmk11_setup
 2211 0008 00000000 		.word	0
 2212 000c 00000000 		.word	bmk11_execute
 2213              		.section	.rodata.testbmk12,"a",%progbits
 2214              		.align	2
 2215              		.type	testbmk12, %object
 2216              		.size	testbmk12, 16
 2217              	testbmk12:
 2218 0000 44010000 		.word	.LC21
 2219 0004 00000000 		.word	bmk12_setup
 2220 0008 00000000 		.word	0
 2221 000c 00000000 		.word	bmk12_execute
 2222              		.section	.bss.iq.4963,"aw",%nobits
 2223              		.align	2
 2224              		.set	.LANCHOR4,. + 0
 2225              		.type	iq.4963, %object
 2226              		.size	iq.4963, 32
 2227              	iq.4963:
 2228 0000 00000000 		.space	32
 2228      00000000 
 2228      00000000 
 2228      00000000 
 2228      00000000 
 2229              		.section	.rodata.testbmk5,"a",%progbits
 2230              		.align	2
 2231              		.type	testbmk5, %object
 2232              		.size	testbmk5, 16
 2233              	testbmk5:
 2234 0000 44020000 		.word	.LC28
 2235 0004 00000000 		.word	0
 2236 0008 00000000 		.word	0
 2237 000c 00000000 		.word	bmk5_execute
 2238              		.section	.rodata.testbmk6,"a",%progbits
 2239              		.align	2
 2240              		.type	testbmk6, %object
 2241              		.size	testbmk6, 16
 2242              	testbmk6:
 2243 0000 24020000 		.word	.LC27
ARM GAS  /var/folders/dt/0wfd0knj7gs46m8vwfzktm600000gn/T//ccgwL2QU.s 			page 43


 2244 0004 00000000 		.word	0
 2245 0008 00000000 		.word	0
 2246 000c 00000000 		.word	bmk6_execute
 2247              		.section	.rodata.testbmk7,"a",%progbits
 2248              		.align	2
 2249              		.type	testbmk7, %object
 2250              		.size	testbmk7, 16
 2251              	testbmk7:
 2252 0000 FC010000 		.word	.LC26
 2253 0004 00000000 		.word	bmk7_setup
 2254 0008 00000000 		.word	0
 2255 000c 00000000 		.word	bmk7_execute
 2256              		.text
 2257              	.Letext0:
 2258              		.file 2 "/Users/toxygen/Applications/yagarto-4.7.2/bin/../lib/gcc/arm-none-eabi/4.7.2/include/stdd
 2259              		.file 3 "/Users/toxygen/Applications/yagarto-4.7.2/bin/../lib/gcc/arm-none-eabi/4.7.2/../../../../
 2260              		.file 4 "../../os/ports/GCC/ARMCMx/chtypes.h"
 2261              		.file 5 "../../os/kernel/include/chlists.h"
 2262              		.file 6 "../../os/kernel/include/chthreads.h"
 2263              		.file 7 "../../os/ports/GCC/ARMCMx/chcore_v7m.h"
 2264              		.file 8 "../../os/kernel/include/chvt.h"
 2265              		.file 9 "../../os/kernel/include/chschd.h"
 2266              		.file 10 "../../os/kernel/include/chsem.h"
 2267              		.file 11 "../../os/kernel/include/chmtx.h"
 2268              		.file 12 "../../os/kernel/include/chqueues.h"
 2269              		.file 13 "../../test/test.h"
 2270              		.file 14 "../../os/kernel/include/chmsg.h"