ARM GAS  /var/folders/dt/0wfd0knj7gs46m8vwfzktm600000gn/T//cca4GukL.s 			page 1


   1              		.syntax unified
   2              		.cpu cortex-m3
   3              		.fpu softvfp
   4              		.eabi_attribute 20, 1
   5              		.eabi_attribute 21, 1
   6              		.eabi_attribute 23, 3
   7              		.eabi_attribute 24, 1
   8              		.eabi_attribute 25, 1
   9              		.eabi_attribute 26, 1
  10              		.eabi_attribute 30, 2
  11              		.eabi_attribute 34, 1
  12              		.eabi_attribute 18, 4
  13              		.thumb
  14              		.file	"testmbox.c"
  15              		.text
  16              	.Ltext0:
  17              		.cfi_sections	.debug_frame
  18              		.section	.text.mbox1_execute,"ax",%progbits
  19              		.align	2
  20              		.p2align 4,,15
  21              		.thumb
  22              		.thumb_func
  23              		.type	mbox1_execute, %function
  24              	mbox1_execute:
  25              	.LFB8:
  26              		.file 1 "../../test/testmbox.c"
  27              		.loc 1 87 0
  28              		.cfi_startproc
  29              		@ args = 0, pretend = 0, frame = 8
  30              		@ frame_needed = 0, uses_anonymous_args = 0
  31 0000 F0B5     		push	{r4, r5, r6, r7, lr}
  32              	.LCFI0:
  33              		.cfi_def_cfa_offset 20
  34              		.cfi_offset 4, -20
  35              		.cfi_offset 5, -16
  36              		.cfi_offset 6, -12
  37              		.cfi_offset 7, -8
  38              		.cfi_offset 14, -4
  39              		.loc 1 94 0
  40 0002 B44E     		ldr	r6, .L32
  41 0004 0120     		movs	r0, #1
  42 0006 716A     		ldr	r1, [r6, #36]
  43              		.loc 1 87 0
  44 0008 83B0     		sub	sp, sp, #12
  45              	.LCFI1:
  46              		.cfi_def_cfa_offset 32
  47              		.loc 1 94 0
  48 000a 4B1F     		subs	r3, r1, #5
  49 000c 5942     		rsbs	r1, r3, #0
  50 000e 5941     		adcs	r1, r1, r3
  51 0010 FFF7FEFF 		bl	_test_assert
  52              	.LVL0:
  53 0014 00BB     		cbnz	r0, .L1
  54 0016 4224     		movs	r4, #66
  55              	.L3:
  56              		.loc 1 100 0
  57 0018 AE4D     		ldr	r5, .L32
ARM GAS  /var/folders/dt/0wfd0knj7gs46m8vwfzktm600000gn/T//cca4GukL.s 			page 2


  58 001a 2146     		mov	r1, r4
  59 001c 2846     		mov	r0, r5
  60 001e 4FF0FF32 		mov	r2, #-1
  61 0022 FFF7FEFF 		bl	chMBPost
  62              	.LVL1:
  63              		.loc 1 101 0
  64 0026 D0F10101 		rsbs	r1, r0, #1
  65 002a 38BF     		it	cc
  66 002c 0021     		movcc	r1, #0
  67 002e 0220     		movs	r0, #2
  68              	.LVL2:
  69 0030 0134     		adds	r4, r4, #1
  70 0032 FFF7FEFF 		bl	_test_assert
  71              	.LVL3:
  72 0036 78B9     		cbnz	r0, .L1
  73              		.loc 1 99 0
  74 0038 462C     		cmp	r4, #70
  75 003a EDD1     		bne	.L3
  76              		.loc 1 103 0
  77 003c 4121     		movs	r1, #65
  78 003e 2846     		mov	r0, r5
  79 0040 4FF0FF32 		mov	r2, #-1
  80 0044 FFF7FEFF 		bl	chMBPostAhead
  81              	.LVL4:
  82              		.loc 1 104 0
  83 0048 D0F10101 		rsbs	r1, r0, #1
  84 004c 38BF     		it	cc
  85 004e 0021     		movcc	r1, #0
  86 0050 0320     		movs	r0, #3
  87              	.LVL5:
  88 0052 FFF7FEFF 		bl	_test_assert
  89              	.LVL6:
  90 0056 08B1     		cbz	r0, .L29
  91              	.LVL7:
  92              	.L1:
  93              		.loc 1 231 0
  94 0058 03B0     		add	sp, sp, #12
  95 005a F0BD     		pop	{r4, r5, r6, r7, pc}
  96              	.LVL8:
  97              	.L29:
  98              		.loc 1 109 0
  99 005c 5821     		movs	r1, #88
 100 005e 0122     		movs	r2, #1
 101 0060 2846     		mov	r0, r5
 102 0062 FFF7FEFF 		bl	chMBPost
 103              	.LVL9:
 104              		.loc 1 110 0
 105 0066 B0F1FF3C 		subs	ip, r0, #-1
 106 006a DCF10001 		rsbs	r1, ip, #0
 107 006e 51EB0C01 		adcs	r1, r1, ip
 108 0072 0420     		movs	r0, #4
 109              	.LVL10:
 110 0074 FFF7FEFF 		bl	_test_assert
 111              	.LVL11:
 112 0078 0446     		mov	r4, r0
 113 007a 0028     		cmp	r0, #0
 114 007c ECD1     		bne	.L1
ARM GAS  /var/folders/dt/0wfd0knj7gs46m8vwfzktm600000gn/T//cca4GukL.s 			page 3


 115              	.LBB2:
 116              		.loc 1 111 0
 117 007e 2023     		movs	r3, #32
 118              	.LVL12:
 119              	@ 111 "../../test/testmbox.c" 1
 120 0080 83F31188 		msr     BASEPRI, r3
 121              	@ 0 "" 2
 122              	.LVL13:
 123              		.thumb
 124              	.LBE2:
 125              		.loc 1 112 0
 126 0084 5821     		movs	r1, #88
 127 0086 2846     		mov	r0, r5
 128 0088 FFF7FEFF 		bl	chMBPostI
 129              	.LVL14:
 130              	.LBB3:
 131              		.loc 1 113 0
 132 008c 2346     		mov	r3, r4
 133              	.LVL15:
 134              	.LBE3:
 135              		.loc 1 112 0
 136 008e 0146     		mov	r1, r0
 137              	.LVL16:
 138              	.LBB4:
 139              		.loc 1 113 0
 140              	@ 113 "../../test/testmbox.c" 1
 141 0090 83F31188 		msr     BASEPRI, r3
 142              	@ 0 "" 2
 143              	.LVL17:
 144              		.thumb
 145              	.LBE4:
 146              		.loc 1 114 0
 147 0094 0520     		movs	r0, #5
 148              	.LVL18:
 149 0096 B1F1FF3E 		subs	lr, r1, #-1
 150 009a DEF10001 		rsbs	r1, lr, #0
 151              	.LVL19:
 152 009e 51EB0E01 		adcs	r1, r1, lr
 153 00a2 FFF7FEFF 		bl	_test_assert
 154              	.LVL20:
 155 00a6 0028     		cmp	r0, #0
 156 00a8 D6D1     		bne	.L1
 157              		.loc 1 115 0
 158 00aa 5821     		movs	r1, #88
 159 00ac 0122     		movs	r2, #1
 160 00ae 2846     		mov	r0, r5
 161 00b0 FFF7FEFF 		bl	chMBPostAhead
 162              	.LVL21:
 163              		.loc 1 116 0
 164 00b4 B0F1FF32 		subs	r2, r0, #-1
 165 00b8 5142     		rsbs	r1, r2, #0
 166 00ba 5141     		adcs	r1, r1, r2
 167 00bc 0620     		movs	r0, #6
 168              	.LVL22:
 169 00be FFF7FEFF 		bl	_test_assert
 170              	.LVL23:
 171 00c2 0446     		mov	r4, r0
ARM GAS  /var/folders/dt/0wfd0knj7gs46m8vwfzktm600000gn/T//cca4GukL.s 			page 4


 172 00c4 0028     		cmp	r0, #0
 173 00c6 C7D1     		bne	.L1
 174              	.LBB5:
 175              		.loc 1 117 0
 176 00c8 2023     		movs	r3, #32
 177              	.LVL24:
 178              	@ 117 "../../test/testmbox.c" 1
 179 00ca 83F31188 		msr     BASEPRI, r3
 180              	@ 0 "" 2
 181              	.LVL25:
 182              		.thumb
 183              	.LBE5:
 184              		.loc 1 118 0
 185 00ce 5821     		movs	r1, #88
 186 00d0 2846     		mov	r0, r5
 187 00d2 FFF7FEFF 		bl	chMBPostAheadI
 188              	.LVL26:
 189              	.LBB6:
 190              		.loc 1 119 0
 191 00d6 2346     		mov	r3, r4
 192              	.LVL27:
 193              	.LBE6:
 194              		.loc 1 118 0
 195 00d8 0146     		mov	r1, r0
 196              	.LVL28:
 197              	.LBB7:
 198              		.loc 1 119 0
 199              	@ 119 "../../test/testmbox.c" 1
 200 00da 83F31188 		msr     BASEPRI, r3
 201              	@ 0 "" 2
 202              	.LVL29:
 203              		.thumb
 204              	.LBE7:
 205              		.loc 1 120 0
 206 00de 0720     		movs	r0, #7
 207              	.LVL30:
 208 00e0 B1F1FF33 		subs	r3, r1, #-1
 209              	.LVL31:
 210 00e4 5942     		rsbs	r1, r3, #0
 211              	.LVL32:
 212 00e6 5941     		adcs	r1, r1, r3
 213 00e8 FFF7FEFF 		bl	_test_assert
 214              	.LVL33:
 215 00ec 0746     		mov	r7, r0
 216 00ee 0028     		cmp	r0, #0
 217 00f0 B2D1     		bne	.L1
 218              	.LBB8:
 219              		.loc 1 125 0
 220 00f2 2023     		movs	r3, #32
 221              	.LVL34:
 222              	@ 125 "../../test/testmbox.c" 1
 223 00f4 83F31188 		msr     BASEPRI, r3
 224              	@ 0 "" 2
 225              	.LVL35:
 226              		.thumb
 227              	.LBE8:
 228 00f8 696A     		ldr	r1, [r5, #36]
ARM GAS  /var/folders/dt/0wfd0knj7gs46m8vwfzktm600000gn/T//cca4GukL.s 			page 5


 229 00fa 0820     		movs	r0, #8
 230 00fc D1F10101 		rsbs	r1, r1, #1
 231 0100 38BF     		it	cc
 232 0102 0021     		movcc	r1, #0
 233 0104 FFF7FEFF 		bl	_test_assert
 234              	.LVL36:
 235 0108 0446     		mov	r4, r0
 236 010a 18B1     		cbz	r0, .L4
 237              	.LBB9:
 238              		.loc 1 125 0 is_stmt 0 discriminator 1
 239 010c 3B46     		mov	r3, r7
 240              	@ 125 "../../test/testmbox.c" 1
 241 010e 83F31188 		msr     BASEPRI, r3
 242              	@ 0 "" 2
 243              	.LVL37:
 244              		.thumb
 245 0112 A1E7     		b	.L1
 246              	.LVL38:
 247              	.L4:
 248              	.LBE9:
 249              	.LBB10:
 250              		.loc 1 125 0 discriminator 2
 251 0114 0346     		mov	r3, r0
 252              	.LVL39:
 253              	@ 125 "../../test/testmbox.c" 1
 254 0116 83F31188 		msr     BASEPRI, r3
 255              	@ 0 "" 2
 256              	.LVL40:
 257              		.thumb
 258              	.LBE10:
 259              	.LBB11:
 260              		.loc 1 126 0 is_stmt 1 discriminator 2
 261 011a 2023     		movs	r3, #32
 262              	.LVL41:
 263              	@ 126 "../../test/testmbox.c" 1
 264 011c 83F31188 		msr     BASEPRI, r3
 265              	@ 0 "" 2
 266              	.LVL42:
 267              		.thumb
 268              	.LBE11:
 269 0120 A969     		ldr	r1, [r5, #24]
 270 0122 0920     		movs	r0, #9
 271 0124 B1F1050C 		subs	ip, r1, #5
 272 0128 DCF10001 		rsbs	r1, ip, #0
 273 012c 51EB0C01 		adcs	r1, r1, ip
 274 0130 FFF7FEFF 		bl	_test_assert
 275              	.LVL43:
 276 0134 0346     		mov	r3, r0
 277 0136 18B1     		cbz	r0, .L6
 278              	.LBB12:
 279              		.loc 1 126 0 is_stmt 0 discriminator 1
 280 0138 2346     		mov	r3, r4
 281              	@ 126 "../../test/testmbox.c" 1
 282 013a 83F31188 		msr     BASEPRI, r3
 283              	@ 0 "" 2
 284              	.LVL44:
 285              		.thumb
ARM GAS  /var/folders/dt/0wfd0knj7gs46m8vwfzktm600000gn/T//cca4GukL.s 			page 6


 286 013e 8BE7     		b	.L1
 287              	.LVL45:
 288              	.L6:
 289              	.LBE12:
 290              	.LBB13:
 291              		.loc 1 126 0 discriminator 2
 292              	@ 126 "../../test/testmbox.c" 1
 293 0140 83F31188 		msr     BASEPRI, r3
 294              	@ 0 "" 2
 295              	.LVL46:
 296              		.thumb
 297              	.LBE13:
 298              	.LBB14:
 299              		.loc 1 127 0 is_stmt 1 discriminator 2
 300 0144 2023     		movs	r3, #32
 301              	.LVL47:
 302              	@ 127 "../../test/testmbox.c" 1
 303 0146 83F31188 		msr     BASEPRI, r3
 304              	@ 0 "" 2
 305              	.LVL48:
 306              		.thumb
 307              	.LBE14:
 308 014a E968     		ldr	r1, [r5, #12]
 309 014c AB68     		ldr	r3, [r5, #8]
 310              	.LVL49:
 311 014e 0A20     		movs	r0, #10
 312 0150 B1EB030E 		subs	lr, r1, r3
 313 0154 DEF10001 		rsbs	r1, lr, #0
 314 0158 51EB0E01 		adcs	r1, r1, lr
 315 015c FFF7FEFF 		bl	_test_assert
 316              	.LVL50:
 317              	.LBB15:
 318 0160 0023     		movs	r3, #0
 319              	@ 127 "../../test/testmbox.c" 1
 320 0162 83F31188 		msr     BASEPRI, r3
 321              	@ 0 "" 2
 322              	.LVL51:
 323              		.thumb
 324              	.LBE15:
 325 0166 0028     		cmp	r0, #0
 326 0168 7FF476AF 		bne	.L1
 327              	.LVL52:
 328              	.LBB16:
 329 016c 0525     		movs	r5, #5
 330 016e 05E0     		b	.L8
 331              	.LVL53:
 332              	.L31:
 333              	.LBE16:
 334              		.loc 1 135 0
 335 0170 9DF80400 		ldrb	r0, [sp, #4]	@ zero_extendqisi2
 336 0174 FFF7FEFF 		bl	test_emit_token
 337              	.LVL54:
 338              		.loc 1 132 0
 339 0178 013D     		subs	r5, r5, #1
 340 017a 10D0     		beq	.L30
 341              	.LVL55:
 342              	.L8:
ARM GAS  /var/folders/dt/0wfd0knj7gs46m8vwfzktm600000gn/T//cca4GukL.s 			page 7


 343              		.loc 1 133 0
 344 017c 554C     		ldr	r4, .L32
 345 017e 01A9     		add	r1, sp, #4
 346 0180 4FF0FF32 		mov	r2, #-1
 347 0184 2046     		mov	r0, r4
 348 0186 FFF7FEFF 		bl	chMBFetch
 349              	.LVL56:
 350              		.loc 1 134 0
 351 018a D0F10101 		rsbs	r1, r0, #1
 352 018e 38BF     		it	cc
 353 0190 0021     		movcc	r1, #0
 354 0192 0B20     		movs	r0, #11
 355              	.LVL57:
 356 0194 FFF7FEFF 		bl	_test_assert
 357              	.LVL58:
 358 0198 0028     		cmp	r0, #0
 359 019a E9D0     		beq	.L31
 360 019c 5CE7     		b	.L1
 361              	.L30:
 362              		.loc 1 137 0
 363 019e 0C20     		movs	r0, #12
 364 01a0 4D49     		ldr	r1, .L32+4
 365 01a2 FFF7FEFF 		bl	_test_assert_sequence
 366              	.LVL59:
 367 01a6 0028     		cmp	r0, #0
 368 01a8 7FF456AF 		bne	.L1
 369              		.loc 1 142 0
 370 01ac 4721     		movs	r1, #71
 371 01ae 2046     		mov	r0, r4
 372 01b0 4FF0FF32 		mov	r2, #-1
 373 01b4 FFF7FEFF 		bl	chMBPost
 374              	.LVL60:
 375              		.loc 1 143 0
 376 01b8 D0F10101 		rsbs	r1, r0, #1
 377 01bc 38BF     		it	cc
 378 01be 0021     		movcc	r1, #0
 379 01c0 0D20     		movs	r0, #13
 380              	.LVL61:
 381 01c2 FFF7FEFF 		bl	_test_assert
 382              	.LVL62:
 383 01c6 0028     		cmp	r0, #0
 384 01c8 7FF446AF 		bne	.L1
 385              		.loc 1 144 0
 386 01cc 01A9     		add	r1, sp, #4
 387 01ce 2046     		mov	r0, r4
 388 01d0 4FF0FF32 		mov	r2, #-1
 389 01d4 FFF7FEFF 		bl	chMBFetch
 390              	.LVL63:
 391              		.loc 1 145 0
 392 01d8 D0F10101 		rsbs	r1, r0, #1
 393 01dc 38BF     		it	cc
 394 01de 0021     		movcc	r1, #0
 395 01e0 0E20     		movs	r0, #14
 396              	.LVL64:
 397 01e2 FFF7FEFF 		bl	_test_assert
 398              	.LVL65:
 399 01e6 0028     		cmp	r0, #0
ARM GAS  /var/folders/dt/0wfd0knj7gs46m8vwfzktm600000gn/T//cca4GukL.s 			page 8


 400 01e8 7FF436AF 		bne	.L1
 401              		.loc 1 146 0
 402 01ec 2168     		ldr	r1, [r4, #0]
 403 01ee A368     		ldr	r3, [r4, #8]
 404 01f0 0F20     		movs	r0, #15
 405 01f2 CA1A     		subs	r2, r1, r3
 406 01f4 5142     		rsbs	r1, r2, #0
 407 01f6 5141     		adcs	r1, r1, r2
 408 01f8 FFF7FEFF 		bl	_test_assert
 409              	.LVL66:
 410 01fc 0028     		cmp	r0, #0
 411 01fe 7FF42BAF 		bne	.L1
 412              		.loc 1 147 0
 413 0202 2168     		ldr	r1, [r4, #0]
 414 0204 E368     		ldr	r3, [r4, #12]
 415 0206 1020     		movs	r0, #16
 416 0208 CB1A     		subs	r3, r1, r3
 417 020a 5942     		rsbs	r1, r3, #0
 418 020c 5941     		adcs	r1, r1, r3
 419 020e FFF7FEFF 		bl	_test_assert
 420              	.LVL67:
 421 0212 0028     		cmp	r0, #0
 422 0214 7FF420AF 		bne	.L1
 423              		.loc 1 152 0
 424 0218 01A9     		add	r1, sp, #4
 425 021a 0122     		movs	r2, #1
 426 021c 2046     		mov	r0, r4
 427 021e FFF7FEFF 		bl	chMBFetch
 428              	.LVL68:
 429              		.loc 1 153 0
 430 0222 B0F1FF3C 		subs	ip, r0, #-1
 431 0226 DCF10001 		rsbs	r1, ip, #0
 432 022a 51EB0C01 		adcs	r1, r1, ip
 433 022e 1120     		movs	r0, #17
 434              	.LVL69:
 435 0230 FFF7FEFF 		bl	_test_assert
 436              	.LVL70:
 437 0234 0028     		cmp	r0, #0
 438 0236 7FF40FAF 		bne	.L1
 439              	.LBB17:
 440              		.loc 1 154 0
 441 023a 2023     		movs	r3, #32
 442              	.LVL71:
 443              	@ 154 "../../test/testmbox.c" 1
 444 023c 83F31188 		msr     BASEPRI, r3
 445              	@ 0 "" 2
 446              	.LVL72:
 447              		.thumb
 448              	.LBE17:
 449              		.loc 1 155 0
 450 0240 01A9     		add	r1, sp, #4
 451 0242 2046     		mov	r0, r4
 452 0244 FFF7FEFF 		bl	chMBFetchI
 453              	.LVL73:
 454              	.LBB18:
 455              		.loc 1 156 0
 456 0248 2B46     		mov	r3, r5
ARM GAS  /var/folders/dt/0wfd0knj7gs46m8vwfzktm600000gn/T//cca4GukL.s 			page 9


 457              	.LVL74:
 458              	.LBE18:
 459              		.loc 1 155 0
 460 024a 0146     		mov	r1, r0
 461              	.LVL75:
 462              	.LBB19:
 463              		.loc 1 156 0
 464              	@ 156 "../../test/testmbox.c" 1
 465 024c 83F31188 		msr     BASEPRI, r3
 466              	@ 0 "" 2
 467              	.LVL76:
 468              		.thumb
 469              	.LBE19:
 470              		.loc 1 157 0
 471 0250 1220     		movs	r0, #18
 472              	.LVL77:
 473 0252 B1F1FF3E 		subs	lr, r1, #-1
 474 0256 DEF10001 		rsbs	r1, lr, #0
 475              	.LVL78:
 476 025a 51EB0E01 		adcs	r1, r1, lr
 477 025e FFF7FEFF 		bl	_test_assert
 478              	.LVL79:
 479 0262 0028     		cmp	r0, #0
 480 0264 7FF4F8AE 		bne	.L1
 481              	.LBB20:
 482              		.loc 1 162 0
 483 0268 2023     		movs	r3, #32
 484              	.LVL80:
 485              	@ 162 "../../test/testmbox.c" 1
 486 026a 83F31188 		msr     BASEPRI, r3
 487              	@ 0 "" 2
 488              	.LVL81:
 489              		.thumb
 490              	.LBE20:
 491 026e 616A     		ldr	r1, [r4, #36]
 492 0270 1320     		movs	r0, #19
 493 0272 4A1F     		subs	r2, r1, #5
 494 0274 5142     		rsbs	r1, r2, #0
 495 0276 5141     		adcs	r1, r1, r2
 496 0278 FFF7FEFF 		bl	_test_assert
 497              	.LVL82:
 498              	.LBB21:
 499 027c 0023     		movs	r3, #0
 500              	@ 162 "../../test/testmbox.c" 1
 501 027e 83F31188 		msr     BASEPRI, r3
 502              	@ 0 "" 2
 503              	.LVL83:
 504              		.thumb
 505              	.LBE21:
 506 0282 0028     		cmp	r0, #0
 507 0284 7FF4E8AE 		bne	.L1
 508              	.LBB22:
 509              		.loc 1 163 0 discriminator 2
 510 0288 2023     		movs	r3, #32
 511              	.LVL84:
 512              	@ 163 "../../test/testmbox.c" 1
 513 028a 83F31188 		msr     BASEPRI, r3
ARM GAS  /var/folders/dt/0wfd0knj7gs46m8vwfzktm600000gn/T//cca4GukL.s 			page 10


 514              	@ 0 "" 2
 515              	.LVL85:
 516              		.thumb
 517              	.LBE22:
 518 028e B169     		ldr	r1, [r6, #24]
 519 0290 1420     		movs	r0, #20
 520 0292 D1F10101 		rsbs	r1, r1, #1
 521 0296 38BF     		it	cc
 522 0298 0021     		movcc	r1, #0
 523 029a FFF7FEFF 		bl	_test_assert
 524              	.LVL86:
 525 029e 0D4C     		ldr	r4, .L32
 526 02a0 0546     		mov	r5, r0
 527 02a2 18B1     		cbz	r0, .L10
 528              	.L27:
 529              	.LBB23:
 530              		.loc 1 230 0 discriminator 2
 531 02a4 0023     		movs	r3, #0
 532              	@ 230 "../../test/testmbox.c" 1
 533 02a6 83F31188 		msr     BASEPRI, r3
 534              	@ 0 "" 2
 535              	.LVL87:
 536              		.thumb
 537 02aa D5E6     		b	.L1
 538              	.LVL88:
 539              	.L10:
 540              	.LBE23:
 541              	.LBB24:
 542              		.loc 1 163 0 discriminator 2
 543 02ac 0346     		mov	r3, r0
 544              	.LVL89:
 545              	@ 163 "../../test/testmbox.c" 1
 546 02ae 83F31188 		msr     BASEPRI, r3
 547              	@ 0 "" 2
 548              	.LVL90:
 549              		.thumb
 550              	.LBE24:
 551              	.LBB25:
 552              		.loc 1 164 0 discriminator 2
 553 02b2 2023     		movs	r3, #32
 554              	.LVL91:
 555              	@ 164 "../../test/testmbox.c" 1
 556 02b4 83F31188 		msr     BASEPRI, r3
 557              	@ 0 "" 2
 558              	.LVL92:
 559              		.thumb
 560              	.LBE25:
 561 02b8 E168     		ldr	r1, [r4, #12]
 562 02ba A368     		ldr	r3, [r4, #8]
 563              	.LVL93:
 564 02bc 1520     		movs	r0, #21
 565 02be CB1A     		subs	r3, r1, r3
 566 02c0 5942     		rsbs	r1, r3, #0
 567 02c2 5941     		adcs	r1, r1, r3
 568 02c4 FFF7FEFF 		bl	_test_assert
 569              	.LVL94:
 570 02c8 0346     		mov	r3, r0
ARM GAS  /var/folders/dt/0wfd0knj7gs46m8vwfzktm600000gn/T//cca4GukL.s 			page 11


 571 02ca 38B1     		cbz	r0, .L11
 572              	.LBB26:
 573              		.loc 1 164 0 is_stmt 0 discriminator 1
 574 02cc 2B46     		mov	r3, r5
 575              	@ 164 "../../test/testmbox.c" 1
 576 02ce 83F31188 		msr     BASEPRI, r3
 577              	@ 0 "" 2
 578              	.LVL95:
 579              		.thumb
 580 02d2 C1E6     		b	.L1
 581              	.L33:
 582              		.align	2
 583              	.L32:
 584 02d4 00000000 		.word	.LANCHOR0
 585 02d8 00000000 		.word	.LC0
 586              	.LVL96:
 587              	.L11:
 588              	.LBE26:
 589              	.LBB27:
 590              		.loc 1 164 0 discriminator 2
 591              	@ 164 "../../test/testmbox.c" 1
 592 02dc 83F31188 		msr     BASEPRI, r3
 593              	@ 0 "" 2
 594              	.LVL97:
 595              		.thumb
 596              	.LBE27:
 597              	.LBB28:
 598              		.loc 1 169 0 is_stmt 1 discriminator 2
 599 02e0 2023     		movs	r3, #32
 600              	.LVL98:
 601              	@ 169 "../../test/testmbox.c" 1
 602 02e2 83F31188 		msr     BASEPRI, r3
 603              	@ 0 "" 2
 604              	.LVL99:
 605              		.thumb
 606              	.LBE28:
 607              		.loc 1 170 0 discriminator 2
 608 02e6 4121     		movs	r1, #65
 609 02e8 2046     		mov	r0, r4
 610 02ea FFF7FEFF 		bl	chMBPostI
 611              	.LVL100:
 612              		.loc 1 171 0 discriminator 2
 613 02ee D0F10101 		rsbs	r1, r0, #1
 614 02f2 38BF     		it	cc
 615 02f4 0021     		movcc	r1, #0
 616 02f6 1620     		movs	r0, #22
 617              	.LVL101:
 618 02f8 FFF7FEFF 		bl	_test_assert
 619              	.LVL102:
 620 02fc 0028     		cmp	r0, #0
 621 02fe 7FF4ABAE 		bne	.L1
 622              		.loc 1 172 0
 623 0302 4221     		movs	r1, #66
 624 0304 2046     		mov	r0, r4
 625 0306 FFF7FEFF 		bl	chMBPostI
 626              	.LVL103:
 627              		.loc 1 173 0
ARM GAS  /var/folders/dt/0wfd0knj7gs46m8vwfzktm600000gn/T//cca4GukL.s 			page 12


 628 030a D0F10101 		rsbs	r1, r0, #1
 629 030e 38BF     		it	cc
 630 0310 0021     		movcc	r1, #0
 631 0312 1720     		movs	r0, #23
 632              	.LVL104:
 633 0314 FFF7FEFF 		bl	_test_assert
 634              	.LVL105:
 635 0318 0028     		cmp	r0, #0
 636 031a 7FF49DAE 		bne	.L1
 637              		.loc 1 174 0
 638 031e 4321     		movs	r1, #67
 639 0320 2046     		mov	r0, r4
 640 0322 FFF7FEFF 		bl	chMBPostI
 641              	.LVL106:
 642              		.loc 1 175 0
 643 0326 D0F10101 		rsbs	r1, r0, #1
 644 032a 38BF     		it	cc
 645 032c 0021     		movcc	r1, #0
 646 032e 1820     		movs	r0, #24
 647              	.LVL107:
 648 0330 FFF7FEFF 		bl	_test_assert
 649              	.LVL108:
 650 0334 0028     		cmp	r0, #0
 651 0336 7FF48FAE 		bne	.L1
 652              		.loc 1 176 0
 653 033a 4421     		movs	r1, #68
 654 033c 2046     		mov	r0, r4
 655 033e FFF7FEFF 		bl	chMBPostI
 656              	.LVL109:
 657              		.loc 1 177 0
 658 0342 D0F10101 		rsbs	r1, r0, #1
 659 0346 38BF     		it	cc
 660 0348 0021     		movcc	r1, #0
 661 034a 1920     		movs	r0, #25
 662              	.LVL110:
 663 034c FFF7FEFF 		bl	_test_assert
 664              	.LVL111:
 665 0350 0546     		mov	r5, r0
 666 0352 0028     		cmp	r0, #0
 667 0354 7FF480AE 		bne	.L1
 668              		.loc 1 178 0
 669 0358 4521     		movs	r1, #69
 670 035a 2046     		mov	r0, r4
 671 035c FFF7FEFF 		bl	chMBPostI
 672              	.LVL112:
 673              	.LBB29:
 674              		.loc 1 179 0
 675 0360 2B46     		mov	r3, r5
 676              	.LVL113:
 677              	.LBE29:
 678              		.loc 1 178 0
 679 0362 0146     		mov	r1, r0
 680              	.LVL114:
 681              	.LBB30:
 682              		.loc 1 179 0
 683              	@ 179 "../../test/testmbox.c" 1
 684 0364 83F31188 		msr     BASEPRI, r3
ARM GAS  /var/folders/dt/0wfd0knj7gs46m8vwfzktm600000gn/T//cca4GukL.s 			page 13


 685              	@ 0 "" 2
 686              	.LVL115:
 687              		.thumb
 688              	.LBE30:
 689              		.loc 1 180 0
 690 0368 1A20     		movs	r0, #26
 691              	.LVL116:
 692 036a D1F10101 		rsbs	r1, r1, #1
 693              	.LVL117:
 694 036e 38BF     		it	cc
 695 0370 0021     		movcc	r1, #0
 696 0372 FFF7FEFF 		bl	_test_assert
 697              	.LVL118:
 698 0376 0028     		cmp	r0, #0
 699 0378 7FF46EAE 		bne	.L1
 700              		.loc 1 181 0
 701 037c E168     		ldr	r1, [r4, #12]
 702 037e A368     		ldr	r3, [r4, #8]
 703 0380 1B20     		movs	r0, #27
 704 0382 B1EB030C 		subs	ip, r1, r3
 705 0386 DCF10001 		rsbs	r1, ip, #0
 706 038a 51EB0C01 		adcs	r1, r1, ip
 707 038e FFF7FEFF 		bl	_test_assert
 708              	.LVL119:
 709 0392 0028     		cmp	r0, #0
 710 0394 7FF460AE 		bne	.L1
 711 0398 0525     		movs	r5, #5
 712              	.L12:
 713              	.LBB31:
 714              		.loc 1 183 0
 715 039a 2023     		movs	r3, #32
 716              	.LVL120:
 717              	@ 183 "../../test/testmbox.c" 1
 718 039c 83F31188 		msr     BASEPRI, r3
 719              	@ 0 "" 2
 720              	.LVL121:
 721              		.thumb
 722              	.LBE31:
 723              		.loc 1 184 0
 724 03a0 A04C     		ldr	r4, .L34
 725 03a2 01A9     		add	r1, sp, #4
 726 03a4 2046     		mov	r0, r4
 727 03a6 FFF7FEFF 		bl	chMBFetchI
 728              	.LVL122:
 729              	.LBB32:
 730              		.loc 1 185 0
 731 03aa 0023     		movs	r3, #0
 732              	.LVL123:
 733              	.LBE32:
 734              		.loc 1 184 0
 735 03ac 0146     		mov	r1, r0
 736              	.LVL124:
 737              	.LBB33:
 738              		.loc 1 185 0
 739              	@ 185 "../../test/testmbox.c" 1
 740 03ae 83F31188 		msr     BASEPRI, r3
 741              	@ 0 "" 2
ARM GAS  /var/folders/dt/0wfd0knj7gs46m8vwfzktm600000gn/T//cca4GukL.s 			page 14


 742              	.LVL125:
 743              		.thumb
 744              	.LBE33:
 745              		.loc 1 186 0
 746 03b2 1C20     		movs	r0, #28
 747              	.LVL126:
 748 03b4 B1EB030E 		subs	lr, r1, r3
 749              	.LVL127:
 750 03b8 DEF10001 		rsbs	r1, lr, #0
 751              	.LVL128:
 752 03bc 51EB0E01 		adcs	r1, r1, lr
 753 03c0 FFF7FEFF 		bl	_test_assert
 754              	.LVL129:
 755 03c4 0028     		cmp	r0, #0
 756 03c6 7FF447AE 		bne	.L1
 757              		.loc 1 187 0
 758 03ca 9DF80400 		ldrb	r0, [sp, #4]	@ zero_extendqisi2
 759 03ce FFF7FEFF 		bl	test_emit_token
 760              	.LVL130:
 761              		.loc 1 182 0
 762 03d2 013D     		subs	r5, r5, #1
 763 03d4 E1D1     		bne	.L12
 764              		.loc 1 189 0
 765 03d6 1D20     		movs	r0, #29
 766 03d8 9349     		ldr	r1, .L34+4
 767 03da FFF7FEFF 		bl	_test_assert_sequence
 768              	.LVL131:
 769 03de 0028     		cmp	r0, #0
 770 03e0 7FF43AAE 		bne	.L1
 771              	.LBB34:
 772              		.loc 1 190 0
 773 03e4 2023     		movs	r3, #32
 774              	.LVL132:
 775              	@ 190 "../../test/testmbox.c" 1
 776 03e6 83F31188 		msr     BASEPRI, r3
 777              	@ 0 "" 2
 778              	.LVL133:
 779              		.thumb
 780              	.LBE34:
 781 03ea 616A     		ldr	r1, [r4, #36]
 782 03ec 1E20     		movs	r0, #30
 783 03ee 4A1F     		subs	r2, r1, #5
 784 03f0 5142     		rsbs	r1, r2, #0
 785 03f2 5141     		adcs	r1, r1, r2
 786 03f4 FFF7FEFF 		bl	_test_assert
 787              	.LVL134:
 788              	.LBB35:
 789 03f8 2B46     		mov	r3, r5
 790              	@ 190 "../../test/testmbox.c" 1
 791 03fa 83F31188 		msr     BASEPRI, r3
 792              	@ 0 "" 2
 793              	.LVL135:
 794              		.thumb
 795              	.LBE35:
 796 03fe 0028     		cmp	r0, #0
 797 0400 7FF42AAE 		bne	.L1
 798              	.LBB36:
ARM GAS  /var/folders/dt/0wfd0knj7gs46m8vwfzktm600000gn/T//cca4GukL.s 			page 15


 799              		.loc 1 191 0 discriminator 2
 800 0404 2023     		movs	r3, #32
 801              	.LVL136:
 802              	@ 191 "../../test/testmbox.c" 1
 803 0406 83F31188 		msr     BASEPRI, r3
 804              	@ 0 "" 2
 805              	.LVL137:
 806              		.thumb
 807              	.LBE36:
 808 040a A169     		ldr	r1, [r4, #24]
 809 040c 1F20     		movs	r0, #31
 810 040e D1F10101 		rsbs	r1, r1, #1
 811 0412 38BF     		it	cc
 812 0414 0021     		movcc	r1, #0
 813 0416 FFF7FEFF 		bl	_test_assert
 814              	.LVL138:
 815              	.LBB37:
 816 041a 2B46     		mov	r3, r5
 817              	@ 191 "../../test/testmbox.c" 1
 818 041c 83F31188 		msr     BASEPRI, r3
 819              	@ 0 "" 2
 820              	.LVL139:
 821              		.thumb
 822              	.LBE37:
 823 0420 0028     		cmp	r0, #0
 824 0422 7FF419AE 		bne	.L1
 825              		.loc 1 192 0 discriminator 2
 826 0426 E168     		ldr	r1, [r4, #12]
 827 0428 A368     		ldr	r3, [r4, #8]
 828              	.LVL140:
 829 042a 2020     		movs	r0, #32
 830 042c CB1A     		subs	r3, r1, r3
 831 042e 5942     		rsbs	r1, r3, #0
 832 0430 5941     		adcs	r1, r1, r3
 833 0432 FFF7FEFF 		bl	_test_assert
 834              	.LVL141:
 835 0436 0028     		cmp	r0, #0
 836 0438 7FF40EAE 		bne	.L1
 837              	.LBB38:
 838              		.loc 1 194 0
 839 043c 2023     		movs	r3, #32
 840              	.LVL142:
 841              	@ 194 "../../test/testmbox.c" 1
 842 043e 83F31188 		msr     BASEPRI, r3
 843              	@ 0 "" 2
 844              	.LVL143:
 845              		.thumb
 846              	.LBE38:
 847              		.loc 1 195 0
 848 0442 4521     		movs	r1, #69
 849 0444 2046     		mov	r0, r4
 850 0446 FFF7FEFF 		bl	chMBPostAheadI
 851              	.LVL144:
 852              		.loc 1 196 0
 853 044a D0F10101 		rsbs	r1, r0, #1
 854 044e 38BF     		it	cc
 855 0450 0021     		movcc	r1, #0
ARM GAS  /var/folders/dt/0wfd0knj7gs46m8vwfzktm600000gn/T//cca4GukL.s 			page 16


 856 0452 2120     		movs	r0, #33
 857              	.LVL145:
 858 0454 FFF7FEFF 		bl	_test_assert
 859              	.LVL146:
 860 0458 0028     		cmp	r0, #0
 861 045a 7FF4FDAD 		bne	.L1
 862              		.loc 1 197 0
 863 045e 4421     		movs	r1, #68
 864 0460 2046     		mov	r0, r4
 865 0462 FFF7FEFF 		bl	chMBPostAheadI
 866              	.LVL147:
 867              		.loc 1 198 0
 868 0466 D0F10101 		rsbs	r1, r0, #1
 869 046a 38BF     		it	cc
 870 046c 0021     		movcc	r1, #0
 871 046e 2220     		movs	r0, #34
 872              	.LVL148:
 873 0470 FFF7FEFF 		bl	_test_assert
 874              	.LVL149:
 875 0474 0028     		cmp	r0, #0
 876 0476 7FF4EFAD 		bne	.L1
 877              		.loc 1 199 0
 878 047a 4321     		movs	r1, #67
 879 047c 2046     		mov	r0, r4
 880 047e FFF7FEFF 		bl	chMBPostAheadI
 881              	.LVL150:
 882              		.loc 1 200 0
 883 0482 D0F10101 		rsbs	r1, r0, #1
 884 0486 38BF     		it	cc
 885 0488 0021     		movcc	r1, #0
 886 048a 2320     		movs	r0, #35
 887              	.LVL151:
 888 048c FFF7FEFF 		bl	_test_assert
 889              	.LVL152:
 890 0490 0028     		cmp	r0, #0
 891 0492 7FF4E1AD 		bne	.L1
 892              		.loc 1 201 0
 893 0496 4221     		movs	r1, #66
 894 0498 2046     		mov	r0, r4
 895 049a FFF7FEFF 		bl	chMBPostAheadI
 896              	.LVL153:
 897              		.loc 1 202 0
 898 049e D0F10101 		rsbs	r1, r0, #1
 899 04a2 38BF     		it	cc
 900 04a4 0021     		movcc	r1, #0
 901 04a6 2420     		movs	r0, #36
 902              	.LVL154:
 903 04a8 FFF7FEFF 		bl	_test_assert
 904              	.LVL155:
 905 04ac 0028     		cmp	r0, #0
 906 04ae 7FF4D3AD 		bne	.L1
 907              		.loc 1 203 0
 908 04b2 5C4C     		ldr	r4, .L34
 909 04b4 4121     		movs	r1, #65
 910 04b6 2046     		mov	r0, r4
 911 04b8 FFF7FEFF 		bl	chMBPostAheadI
 912              	.LVL156:
ARM GAS  /var/folders/dt/0wfd0knj7gs46m8vwfzktm600000gn/T//cca4GukL.s 			page 17


 913              	.LBB39:
 914              		.loc 1 204 0
 915 04bc 0023     		movs	r3, #0
 916              	.LVL157:
 917              	.LBE39:
 918              		.loc 1 203 0
 919 04be 0146     		mov	r1, r0
 920              	.LVL158:
 921              	.LBB40:
 922              		.loc 1 204 0
 923              	@ 204 "../../test/testmbox.c" 1
 924 04c0 83F31188 		msr     BASEPRI, r3
 925              	@ 0 "" 2
 926              	.LVL159:
 927              		.thumb
 928              	.LBE40:
 929              		.loc 1 205 0
 930 04c4 2520     		movs	r0, #37
 931              	.LVL160:
 932 04c6 B1EB030C 		subs	ip, r1, r3
 933              	.LVL161:
 934 04ca DCF10001 		rsbs	r1, ip, #0
 935              	.LVL162:
 936 04ce 51EB0C01 		adcs	r1, r1, ip
 937 04d2 FFF7FEFF 		bl	_test_assert
 938              	.LVL163:
 939 04d6 0028     		cmp	r0, #0
 940 04d8 7FF4BEAD 		bne	.L1
 941              		.loc 1 206 0
 942 04dc E168     		ldr	r1, [r4, #12]
 943 04de A368     		ldr	r3, [r4, #8]
 944 04e0 2620     		movs	r0, #38
 945 04e2 B1EB030E 		subs	lr, r1, r3
 946 04e6 DEF10001 		rsbs	r1, lr, #0
 947 04ea 51EB0E01 		adcs	r1, r1, lr
 948 04ee FFF7FEFF 		bl	_test_assert
 949              	.LVL164:
 950 04f2 0028     		cmp	r0, #0
 951 04f4 7FF4B0AD 		bne	.L1
 952 04f8 0524     		movs	r4, #5
 953              	.L15:
 954              	.LBB41:
 955              		.loc 1 208 0
 956 04fa 2023     		movs	r3, #32
 957              	.LVL165:
 958              	@ 208 "../../test/testmbox.c" 1
 959 04fc 83F31188 		msr     BASEPRI, r3
 960              	@ 0 "" 2
 961              	.LVL166:
 962              		.thumb
 963              	.LBE41:
 964              		.loc 1 209 0
 965 0500 484D     		ldr	r5, .L34
 966 0502 01A9     		add	r1, sp, #4
 967 0504 2846     		mov	r0, r5
 968 0506 FFF7FEFF 		bl	chMBFetchI
 969              	.LVL167:
ARM GAS  /var/folders/dt/0wfd0knj7gs46m8vwfzktm600000gn/T//cca4GukL.s 			page 18


 970              	.LBB42:
 971              		.loc 1 210 0
 972 050a 0023     		movs	r3, #0
 973              	.LVL168:
 974              	.LBE42:
 975              		.loc 1 209 0
 976 050c 0146     		mov	r1, r0
 977              	.LVL169:
 978              	.LBB43:
 979              		.loc 1 210 0
 980              	@ 210 "../../test/testmbox.c" 1
 981 050e 83F31188 		msr     BASEPRI, r3
 982              	@ 0 "" 2
 983              	.LVL170:
 984              		.thumb
 985              	.LBE43:
 986              		.loc 1 211 0
 987 0512 2720     		movs	r0, #39
 988              	.LVL171:
 989 0514 CA1A     		subs	r2, r1, r3
 990              	.LVL172:
 991 0516 5142     		rsbs	r1, r2, #0
 992              	.LVL173:
 993 0518 5141     		adcs	r1, r1, r2
 994 051a FFF7FEFF 		bl	_test_assert
 995              	.LVL174:
 996 051e 0028     		cmp	r0, #0
 997 0520 7FF49AAD 		bne	.L1
 998              		.loc 1 212 0
 999 0524 9DF80400 		ldrb	r0, [sp, #4]	@ zero_extendqisi2
 1000 0528 FFF7FEFF 		bl	test_emit_token
 1001              	.LVL175:
 1002              		.loc 1 207 0
 1003 052c 013C     		subs	r4, r4, #1
 1004 052e E4D1     		bne	.L15
 1005              		.loc 1 214 0
 1006 0530 2820     		movs	r0, #40
 1007 0532 3D49     		ldr	r1, .L34+4
 1008 0534 FFF7FEFF 		bl	_test_assert_sequence
 1009              	.LVL176:
 1010 0538 0028     		cmp	r0, #0
 1011 053a 7FF48DAD 		bne	.L1
 1012              	.LBB44:
 1013              		.loc 1 215 0
 1014 053e 2023     		movs	r3, #32
 1015              	.LVL177:
 1016              	@ 215 "../../test/testmbox.c" 1
 1017 0540 83F31188 		msr     BASEPRI, r3
 1018              	@ 0 "" 2
 1019              	.LVL178:
 1020              		.thumb
 1021              	.LBE44:
 1022 0544 696A     		ldr	r1, [r5, #36]
 1023 0546 2920     		movs	r0, #41
 1024 0548 4B1F     		subs	r3, r1, #5
 1025              	.LVL179:
 1026 054a 5942     		rsbs	r1, r3, #0
ARM GAS  /var/folders/dt/0wfd0knj7gs46m8vwfzktm600000gn/T//cca4GukL.s 			page 19


 1027 054c 5941     		adcs	r1, r1, r3
 1028 054e FFF7FEFF 		bl	_test_assert
 1029              	.LVL180:
 1030              	.LBB45:
 1031 0552 2346     		mov	r3, r4
 1032              	@ 215 "../../test/testmbox.c" 1
 1033 0554 83F31188 		msr     BASEPRI, r3
 1034              	@ 0 "" 2
 1035              	.LVL181:
 1036              		.thumb
 1037              	.LBE45:
 1038 0558 0028     		cmp	r0, #0
 1039 055a 7FF47DAD 		bne	.L1
 1040              	.LBB46:
 1041              		.loc 1 216 0 discriminator 2
 1042 055e 2023     		movs	r3, #32
 1043              	.LVL182:
 1044              	@ 216 "../../test/testmbox.c" 1
 1045 0560 83F31188 		msr     BASEPRI, r3
 1046              	@ 0 "" 2
 1047              	.LVL183:
 1048              		.thumb
 1049              	.LBE46:
 1050 0564 A969     		ldr	r1, [r5, #24]
 1051 0566 2A20     		movs	r0, #42
 1052 0568 D1F10101 		rsbs	r1, r1, #1
 1053 056c 38BF     		it	cc
 1054 056e 0021     		movcc	r1, #0
 1055 0570 FFF7FEFF 		bl	_test_assert
 1056              	.LVL184:
 1057              	.LBB47:
 1058 0574 2346     		mov	r3, r4
 1059              	@ 216 "../../test/testmbox.c" 1
 1060 0576 83F31188 		msr     BASEPRI, r3
 1061              	@ 0 "" 2
 1062              	.LVL185:
 1063              		.thumb
 1064              	.LBE47:
 1065 057a 0028     		cmp	r0, #0
 1066 057c 7FF46CAD 		bne	.L1
 1067              		.loc 1 217 0 discriminator 2
 1068 0580 E968     		ldr	r1, [r5, #12]
 1069 0582 AB68     		ldr	r3, [r5, #8]
 1070              	.LVL186:
 1071 0584 2B20     		movs	r0, #43
 1072 0586 B1EB030C 		subs	ip, r1, r3
 1073 058a DCF10001 		rsbs	r1, ip, #0
 1074 058e 51EB0C01 		adcs	r1, r1, ip
 1075 0592 FFF7FEFF 		bl	_test_assert
 1076              	.LVL187:
 1077 0596 0028     		cmp	r0, #0
 1078 0598 7FF45EAD 		bne	.L1
 1079              		.loc 1 222 0
 1080 059c 2846     		mov	r0, r5
 1081 059e FFF7FEFF 		bl	chMBReset
 1082              	.LVL188:
 1083              	.LBB48:
ARM GAS  /var/folders/dt/0wfd0knj7gs46m8vwfzktm600000gn/T//cca4GukL.s 			page 20


 1084              		.loc 1 227 0
 1085 05a2 2023     		movs	r3, #32
 1086              	.LVL189:
 1087              	@ 227 "../../test/testmbox.c" 1
 1088 05a4 83F31188 		msr     BASEPRI, r3
 1089              	@ 0 "" 2
 1090              	.LVL190:
 1091              		.thumb
 1092              	.LBE48:
 1093 05a8 696A     		ldr	r1, [r5, #36]
 1094 05aa 2C20     		movs	r0, #44
 1095 05ac B1F1050E 		subs	lr, r1, #5
 1096 05b0 DEF10001 		rsbs	r1, lr, #0
 1097 05b4 51EB0E01 		adcs	r1, r1, lr
 1098 05b8 FFF7FEFF 		bl	_test_assert
 1099              	.LVL191:
 1100              	.LBB49:
 1101 05bc 2346     		mov	r3, r4
 1102              	@ 227 "../../test/testmbox.c" 1
 1103 05be 83F31188 		msr     BASEPRI, r3
 1104              	@ 0 "" 2
 1105              	.LVL192:
 1106              		.thumb
 1107              	.LBE49:
 1108 05c2 0028     		cmp	r0, #0
 1109 05c4 7FF448AD 		bne	.L1
 1110              	.LBB50:
 1111              		.loc 1 228 0 discriminator 2
 1112 05c8 2023     		movs	r3, #32
 1113              	.LVL193:
 1114              	@ 228 "../../test/testmbox.c" 1
 1115 05ca 83F31188 		msr     BASEPRI, r3
 1116              	@ 0 "" 2
 1117              	.LVL194:
 1118              		.thumb
 1119              	.LBE50:
 1120 05ce A969     		ldr	r1, [r5, #24]
 1121 05d0 2D20     		movs	r0, #45
 1122 05d2 D1F10101 		rsbs	r1, r1, #1
 1123 05d6 38BF     		it	cc
 1124 05d8 0021     		movcc	r1, #0
 1125 05da FFF7FEFF 		bl	_test_assert
 1126              	.LVL195:
 1127              	.LBB51:
 1128 05de 2346     		mov	r3, r4
 1129              	@ 228 "../../test/testmbox.c" 1
 1130 05e0 83F31188 		msr     BASEPRI, r3
 1131              	@ 0 "" 2
 1132              	.LVL196:
 1133              		.thumb
 1134              	.LBE51:
 1135 05e4 0028     		cmp	r0, #0
 1136 05e6 7FF437AD 		bne	.L1
 1137              	.LBB52:
 1138              		.loc 1 229 0 discriminator 2
 1139 05ea 2023     		movs	r3, #32
 1140              	.LVL197:
ARM GAS  /var/folders/dt/0wfd0knj7gs46m8vwfzktm600000gn/T//cca4GukL.s 			page 21


 1141              	@ 229 "../../test/testmbox.c" 1
 1142 05ec 83F31188 		msr     BASEPRI, r3
 1143              	@ 0 "" 2
 1144              	.LVL198:
 1145              		.thumb
 1146              	.LBE52:
 1147 05f0 2968     		ldr	r1, [r5, #0]
 1148 05f2 AB68     		ldr	r3, [r5, #8]
 1149              	.LVL199:
 1150 05f4 2E20     		movs	r0, #46
 1151 05f6 CA1A     		subs	r2, r1, r3
 1152 05f8 5142     		rsbs	r1, r2, #0
 1153 05fa 5141     		adcs	r1, r1, r2
 1154 05fc FFF7FEFF 		bl	_test_assert
 1155              	.LVL200:
 1156              	.LBB53:
 1157 0600 2346     		mov	r3, r4
 1158              	@ 229 "../../test/testmbox.c" 1
 1159 0602 83F31188 		msr     BASEPRI, r3
 1160              	@ 0 "" 2
 1161              	.LVL201:
 1162              		.thumb
 1163              	.LBE53:
 1164 0606 0028     		cmp	r0, #0
 1165 0608 7FF426AD 		bne	.L1
 1166              	.LBB54:
 1167              		.loc 1 230 0 discriminator 2
 1168 060c 2023     		movs	r3, #32
 1169              	.LVL202:
 1170              	@ 230 "../../test/testmbox.c" 1
 1171 060e 83F31188 		msr     BASEPRI, r3
 1172              	@ 0 "" 2
 1173              	.LVL203:
 1174              		.thumb
 1175              	.LBE54:
 1176 0612 2968     		ldr	r1, [r5, #0]
 1177 0614 EB68     		ldr	r3, [r5, #12]
 1178              	.LVL204:
 1179 0616 2F20     		movs	r0, #47
 1180 0618 CB1A     		subs	r3, r1, r3
 1181 061a 5942     		rsbs	r1, r3, #0
 1182 061c 5941     		adcs	r1, r1, r3
 1183 061e FFF7FEFF 		bl	_test_assert
 1184              	.LVL205:
 1185 0622 3FE6     		b	.L27
 1186              	.L35:
 1187              		.align	2
 1188              	.L34:
 1189 0624 00000000 		.word	.LANCHOR0
 1190 0628 00000000 		.word	.LC0
 1191              		.cfi_endproc
 1192              	.LFE8:
 1193              		.size	mbox1_execute, .-mbox1_execute
 1194 062c AFF30080 		.section	.text.mbox1_setup,"ax",%progbits
 1195              		.align	2
 1196              		.p2align 4,,15
 1197              		.thumb
ARM GAS  /var/folders/dt/0wfd0knj7gs46m8vwfzktm600000gn/T//cca4GukL.s 			page 22


 1198              		.thumb_func
 1199              		.type	mbox1_setup, %function
 1200              	mbox1_setup:
 1201              	.LFB7:
 1202              		.loc 1 82 0
 1203              		.cfi_startproc
 1204              		@ args = 0, pretend = 0, frame = 0
 1205              		@ frame_needed = 0, uses_anonymous_args = 0
 1206              		@ link register save eliminated.
 1207              		.loc 1 84 0
 1208 0000 40F20000 		movw	r0, #:lower16:.LANCHOR0
 1209 0004 40F20001 		movw	r1, #:lower16:test
 1210 0008 C0F20000 		movt	r0, #:upper16:.LANCHOR0
 1211 000c C0F20001 		movt	r1, #:upper16:test
 1212 0010 0522     		movs	r2, #5
 1213              		.loc 1 85 0
 1214              		.loc 1 84 0
 1215 0012 FFF7FEBF 		b	chMBInit
 1216              	.LVL206:
 1217              		.cfi_endproc
 1218              	.LFE7:
 1219              		.size	mbox1_setup, .-mbox1_setup
 1220              		.global	patternmbox
 1221              		.global	testmbox1
 1222 0016 00BFAFF3 		.section	.data.mb1,"aw",%progbits
 1222      0080AFF3 
 1222      0080
 1223              		.align	2
 1224              		.set	.LANCHOR0,. + 0
 1225              		.type	mb1, %object
 1226              		.size	mb1, 40
 1227              	mb1:
 1228 0000 00000000 		.word	test
 1229 0004 14000000 		.word	test+20
 1230 0008 00000000 		.word	test
 1231 000c 00000000 		.word	test
 1232 0010 10000000 		.word	mb1+16
 1233 0014 10000000 		.word	mb1+16
 1234 0018 00000000 		.word	0
 1235 001c 1C000000 		.word	mb1+28
 1236 0020 1C000000 		.word	mb1+28
 1237 0024 05000000 		.word	5
 1238              		.section	.rodata.patternmbox,"a",%progbits
 1239              		.align	2
 1240              		.type	patternmbox, %object
 1241              		.size	patternmbox, 8
 1242              	patternmbox:
 1243 0000 00000000 		.word	testmbox1
 1244 0004 00000000 		.word	0
 1245              		.section	.rodata.str1.4,"aMS",%progbits,1
 1246              		.align	2
 1247              	.LC0:
 1248 0000 41424344 		.ascii	"ABCDE\000"
 1248      4500
 1249 0006 0000     		.space	2
 1250              	.LC1:
 1251 0008 4D61696C 		.ascii	"Mailboxes, queuing and timeouts\000"
ARM GAS  /var/folders/dt/0wfd0knj7gs46m8vwfzktm600000gn/T//cca4GukL.s 			page 23


 1251      626F7865 
 1251      732C2071 
 1251      75657569 
 1251      6E672061 
 1252              		.section	.rodata.testmbox1,"a",%progbits
 1253              		.align	2
 1254              		.type	testmbox1, %object
 1255              		.size	testmbox1, 16
 1256              	testmbox1:
 1257 0000 08000000 		.word	.LC1
 1258 0004 00000000 		.word	mbox1_setup
 1259 0008 00000000 		.word	0
 1260 000c 00000000 		.word	mbox1_execute
 1261              		.text
 1262              	.Letext0:
 1263              		.file 2 "/Users/toxygen/Applications/yagarto-4.7.2/bin/../lib/gcc/arm-none-eabi/4.7.2/../../../../
 1264              		.file 3 "../../os/ports/GCC/ARMCMx/chtypes.h"
 1265              		.file 4 "../../os/kernel/include/chlists.h"
 1266              		.file 5 "../../os/kernel/include/chthreads.h"
 1267              		.file 6 "../../os/ports/GCC/ARMCMx/chcore_v7m.h"
 1268              		.file 7 "../../os/kernel/include/chsem.h"
 1269              		.file 8 "../../os/kernel/include/chmtx.h"
 1270              		.file 9 "../../os/kernel/include/chmboxes.h"
 1271              		.file 10 "../../test/test.h"