ARM GAS  /var/folders/dt/0wfd0knj7gs46m8vwfzktm600000gn/T//ccRUrRSG.s 			page 1


   1              		.syntax unified
   2              		.cpu cortex-m3
   3              		.fpu softvfp
   4              		.eabi_attribute 20, 1
   5              		.eabi_attribute 21, 1
   6              		.eabi_attribute 23, 3
   7              		.eabi_attribute 24, 1
   8              		.eabi_attribute 25, 1
   9              		.eabi_attribute 26, 1
  10              		.eabi_attribute 30, 2
  11              		.eabi_attribute 34, 1
  12              		.eabi_attribute 18, 4
  13              		.thumb
  14              		.file	"testdyn.c"
  15              		.text
  16              	.Ltext0:
  17              		.cfi_sections	.debug_frame
  18              		.section	.text.regfind,"ax",%progbits
  19              		.align	2
  20              		.p2align 4,,15
  21              		.thumb
  22              		.thumb_func
  23              		.type	regfind, %function
  24              	regfind:
  25              	.LFB12:
  26              		.file 1 "../../test/testdyn.c"
  27              		.loc 1 202 0
  28              		.cfi_startproc
  29              		@ args = 0, pretend = 0, frame = 0
  30              		@ frame_needed = 0, uses_anonymous_args = 0
  31              	.LVL0:
  32 0000 38B5     		push	{r3, r4, r5, lr}
  33              	.LCFI0:
  34              		.cfi_def_cfa_offset 16
  35              		.cfi_offset 3, -16
  36              		.cfi_offset 4, -12
  37              		.cfi_offset 5, -8
  38              		.cfi_offset 14, -4
  39              		.loc 1 202 0
  40 0002 0546     		mov	r5, r0
  41              		.loc 1 206 0
  42 0004 FFF7FEFF 		bl	chRegFirstThread
  43              	.LVL1:
  44              		.loc 1 204 0
  45 0008 0024     		movs	r4, #0
  46              		.loc 1 206 0
  47 000a 0346     		mov	r3, r0
  48              	.LVL2:
  49              	.L2:
  50              		.loc 1 209 0 discriminator 1
  51 000c 1846     		mov	r0, r3
  52              		.loc 1 208 0 discriminator 1
  53 000e AB42     		cmp	r3, r5
  54 0010 08BF     		it	eq
  55 0012 44F00104 		orreq	r4, r4, #1
  56              	.LVL3:
  57              		.loc 1 209 0 discriminator 1
ARM GAS  /var/folders/dt/0wfd0knj7gs46m8vwfzktm600000gn/T//ccRUrRSG.s 			page 2


  58 0016 FFF7FEFF 		bl	chRegNextThread
  59              	.LVL4:
  60              		.loc 1 210 0 discriminator 1
  61 001a 0346     		mov	r3, r0
  62 001c 0028     		cmp	r0, #0
  63 001e F5D1     		bne	.L2
  64              		.loc 1 212 0
  65 0020 2046     		mov	r0, r4
  66              	.LVL5:
  67 0022 38BD     		pop	{r3, r4, r5, pc}
  68              		.cfi_endproc
  69              	.LFE12:
  70              		.size	regfind, .-regfind
  71 0024 AFF30080 		.section	.text.dyn3_execute,"ax",%progbits
  71      AFF30080 
  71      AFF30080 
  72              		.align	2
  73              		.p2align 4,,15
  74              		.thumb
  75              		.thumb_func
  76              		.type	dyn3_execute, %function
  77              	dyn3_execute:
  78              	.LFB14:
  79              		.loc 1 219 0
  80              		.cfi_startproc
  81              		@ args = 0, pretend = 0, frame = 0
  82              		@ frame_needed = 0, uses_anonymous_args = 0
  83              	.LVL6:
  84 0000 10B5     		push	{r4, lr}
  85              	.LCFI1:
  86              		.cfi_def_cfa_offset 8
  87              		.cfi_offset 4, -8
  88              		.cfi_offset 14, -4
  89              		.loc 1 221 0
  90 0002 4A4B     		ldr	r3, .L10
  91              		.loc 1 219 0
  92 0004 82B0     		sub	sp, sp, #8
  93              	.LCFI2:
  94              		.cfi_def_cfa_offset 16
  95              		.loc 1 221 0
  96 0006 DB69     		ldr	r3, [r3, #28]
  97              		.loc 1 224 0
  98 0008 4FF49871 		mov	r1, #304
  99 000c 9A68     		ldr	r2, [r3, #8]
 100 000e 484B     		ldr	r3, .L10+4
 101 0010 013A     		subs	r2, r2, #1
 102 0012 0093     		str	r3, [sp, #0]
 103 0014 4748     		ldr	r0, .L10+8
 104 0016 484B     		ldr	r3, .L10+12
 105 0018 FFF7FEFF 		bl	chThdCreateFromHeap
 106              	.LVL7:
 107              		.loc 1 225 0
 108 001c 817F     		ldrb	r1, [r0, #30]	@ zero_extendqisi2
 109              		.loc 1 224 0
 110 001e 0446     		mov	r4, r0
 111              	.LVL8:
 112              		.loc 1 225 0
ARM GAS  /var/folders/dt/0wfd0knj7gs46m8vwfzktm600000gn/T//ccRUrRSG.s 			page 3


 113 0020 0120     		movs	r0, #1
 114              	.LVL9:
 115 0022 B1EB000C 		subs	ip, r1, r0
 116 0026 DCF10001 		rsbs	r1, ip, #0
 117 002a 51EB0C01 		adcs	r1, r1, ip
 118 002e FFF7FEFF 		bl	_test_assert
 119              	.LVL10:
 120 0032 08B1     		cbz	r0, .L9
 121              	.L5:
 122              		.loc 1 247 0
 123 0034 02B0     		add	sp, sp, #8
 124 0036 10BD     		pop	{r4, pc}
 125              	.L9:
 126              		.loc 1 226 0
 127 0038 2046     		mov	r0, r4
 128 003a FFF7FEFF 		bl	chThdAddRef
 129              	.LVL11:
 130              		.loc 1 227 0
 131 003e A17F     		ldrb	r1, [r4, #30]	@ zero_extendqisi2
 132 0040 0220     		movs	r0, #2
 133 0042 B1EB000E 		subs	lr, r1, r0
 134 0046 DEF10001 		rsbs	r1, lr, #0
 135 004a 51EB0E01 		adcs	r1, r1, lr
 136 004e FFF7FEFF 		bl	_test_assert
 137              	.LVL12:
 138 0052 0028     		cmp	r0, #0
 139 0054 EED1     		bne	.L5
 140              		.loc 1 228 0
 141 0056 2046     		mov	r0, r4
 142 0058 FFF7FEFF 		bl	chThdRelease
 143              	.LVL13:
 144              		.loc 1 229 0
 145 005c A17F     		ldrb	r1, [r4, #30]	@ zero_extendqisi2
 146 005e 0320     		movs	r0, #3
 147 0060 4A1E     		subs	r2, r1, #1
 148 0062 5142     		rsbs	r1, r2, #0
 149 0064 5141     		adcs	r1, r1, r2
 150 0066 FFF7FEFF 		bl	_test_assert
 151              	.LVL14:
 152 006a 0028     		cmp	r0, #0
 153 006c E2D1     		bne	.L5
 154              		.loc 1 232 0
 155 006e 2046     		mov	r0, r4
 156 0070 FFF7FEFF 		bl	regfind
 157              	.LVL15:
 158 0074 0146     		mov	r1, r0
 159 0076 0420     		movs	r0, #4
 160 0078 FFF7FEFF 		bl	_test_assert
 161              	.LVL16:
 162 007c 0028     		cmp	r0, #0
 163 007e D9D1     		bne	.L5
 164              		.loc 1 233 0
 165 0080 2046     		mov	r0, r4
 166 0082 FFF7FEFF 		bl	regfind
 167              	.LVL17:
 168 0086 0146     		mov	r1, r0
 169 0088 0520     		movs	r0, #5
ARM GAS  /var/folders/dt/0wfd0knj7gs46m8vwfzktm600000gn/T//ccRUrRSG.s 			page 4


 170 008a FFF7FEFF 		bl	_test_assert
 171              	.LVL18:
 172 008e 0028     		cmp	r0, #0
 173 0090 D0D1     		bne	.L5
 174              		.loc 1 236 0
 175 0092 2046     		mov	r0, r4
 176 0094 FFF7FEFF 		bl	chThdRelease
 177              	.LVL19:
 178              		.loc 1 237 0
 179 0098 A17F     		ldrb	r1, [r4, #30]	@ zero_extendqisi2
 180 009a 0620     		movs	r0, #6
 181 009c D1F10101 		rsbs	r1, r1, #1
 182 00a0 38BF     		it	cc
 183 00a2 0021     		movcc	r1, #0
 184 00a4 FFF7FEFF 		bl	_test_assert
 185              	.LVL20:
 186 00a8 0028     		cmp	r0, #0
 187 00aa C3D1     		bne	.L5
 188              		.loc 1 238 0
 189 00ac 217F     		ldrb	r1, [r4, #28]	@ zero_extendqisi2
 190 00ae 0720     		movs	r0, #7
 191 00b0 D1F10101 		rsbs	r1, r1, #1
 192 00b4 38BF     		it	cc
 193 00b6 0021     		movcc	r1, #0
 194 00b8 FFF7FEFF 		bl	_test_assert
 195              	.LVL21:
 196 00bc 0028     		cmp	r0, #0
 197 00be B9D1     		bne	.L5
 198              		.loc 1 239 0
 199 00c0 2046     		mov	r0, r4
 200 00c2 FFF7FEFF 		bl	regfind
 201              	.LVL22:
 202 00c6 0146     		mov	r1, r0
 203 00c8 0820     		movs	r0, #8
 204 00ca FFF7FEFF 		bl	_test_assert
 205              	.LVL23:
 206 00ce 0028     		cmp	r0, #0
 207 00d0 B0D1     		bne	.L5
 208              		.loc 1 240 0
 209 00d2 2046     		mov	r0, r4
 210 00d4 FFF7FEFF 		bl	regfind
 211              	.LVL24:
 212 00d8 0146     		mov	r1, r0
 213 00da 0920     		movs	r0, #9
 214 00dc FFF7FEFF 		bl	_test_assert
 215              	.LVL25:
 216 00e0 0028     		cmp	r0, #0
 217 00e2 A7D1     		bne	.L5
 218              		.loc 1 241 0
 219 00e4 3220     		movs	r0, #50
 220 00e6 FFF7FEFF 		bl	chThdSleep
 221              	.LVL26:
 222              		.loc 1 242 0
 223 00ea 217F     		ldrb	r1, [r4, #28]	@ zero_extendqisi2
 224 00ec 0A20     		movs	r0, #10
 225 00ee B1F10E03 		subs	r3, r1, #14
 226 00f2 5942     		rsbs	r1, r3, #0
ARM GAS  /var/folders/dt/0wfd0knj7gs46m8vwfzktm600000gn/T//ccRUrRSG.s 			page 5


 227 00f4 5941     		adcs	r1, r1, r3
 228 00f6 FFF7FEFF 		bl	_test_assert
 229              	.LVL27:
 230 00fa 0028     		cmp	r0, #0
 231 00fc 9AD1     		bne	.L5
 232              		.loc 1 245 0
 233 00fe 2046     		mov	r0, r4
 234 0100 FFF7FEFF 		bl	regfind
 235              	.LVL28:
 236 0104 0146     		mov	r1, r0
 237 0106 0B20     		movs	r0, #11
 238 0108 FFF7FEFF 		bl	_test_assert
 239              	.LVL29:
 240 010c 0028     		cmp	r0, #0
 241 010e 91D1     		bne	.L5
 242              		.loc 1 246 0
 243 0110 2046     		mov	r0, r4
 244 0112 FFF7FEFF 		bl	regfind
 245              	.LVL30:
 246 0116 D0F10101 		rsbs	r1, r0, #1
 247 011a 38BF     		it	cc
 248 011c 0021     		movcc	r1, #0
 249 011e 0C20     		movs	r0, #12
 250              		.loc 1 247 0
 251 0120 02B0     		add	sp, sp, #8
 252 0122 BDE81040 		pop	{r4, lr}
 253              		.loc 1 246 0
 254 0126 FFF7FEBF 		b	_test_assert
 255              	.LVL31:
 256              	.L11:
 257 012a 00BF     		.align	2
 258              	.L10:
 259 012c 00000000 		.word	rlist
 260 0130 00000000 		.word	.LC0
 261 0134 00000000 		.word	.LANCHOR0
 262 0138 00000000 		.word	thread
 263              		.cfi_endproc
 264              	.LFE14:
 265              		.size	dyn3_execute, .-dyn3_execute
 266 013c AFF30080 		.section	.text.thread,"ax",%progbits
 267              		.align	2
 268              		.p2align 4,,15
 269              		.thumb
 270              		.thumb_func
 271              		.type	thread, %function
 272              	thread:
 273              	.LFB7:
 274              		.loc 1 82 0
 275              		.cfi_startproc
 276              		@ args = 0, pretend = 0, frame = 0
 277              		@ frame_needed = 0, uses_anonymous_args = 0
 278              	.LVL32:
 279 0000 08B5     		push	{r3, lr}
 280              	.LCFI3:
 281              		.cfi_def_cfa_offset 8
 282              		.cfi_offset 3, -8
 283              		.cfi_offset 14, -4
ARM GAS  /var/folders/dt/0wfd0knj7gs46m8vwfzktm600000gn/T//ccRUrRSG.s 			page 6


 284              		.loc 1 84 0
 285 0002 0078     		ldrb	r0, [r0, #0]	@ zero_extendqisi2
 286              	.LVL33:
 287 0004 FFF7FEFF 		bl	test_emit_token
 288              	.LVL34:
 289              		.loc 1 86 0
 290 0008 0020     		movs	r0, #0
 291 000a 08BD     		pop	{r3, pc}
 292              		.cfi_endproc
 293              	.LFE7:
 294              		.size	thread, .-thread
 295 000c AFF30080 		.section	.text.dyn3_setup,"ax",%progbits
 296              		.align	2
 297              		.p2align 4,,15
 298              		.thumb
 299              		.thumb_func
 300              		.type	dyn3_setup, %function
 301              	dyn3_setup:
 302              	.LFB13:
 303              		.loc 1 214 0
 304              		.cfi_startproc
 305              		@ args = 0, pretend = 0, frame = 0
 306              		@ frame_needed = 0, uses_anonymous_args = 0
 307              		@ link register save eliminated.
 308              		.loc 1 216 0
 309 0000 40F20000 		movw	r0, #:lower16:.LANCHOR0
 310 0004 40F20001 		movw	r1, #:lower16:test
 311 0008 C0F20000 		movt	r0, #:upper16:.LANCHOR0
 312 000c C0F20001 		movt	r1, #:upper16:test
 313 0010 4FF4BE62 		mov	r2, #1520
 314              		.loc 1 217 0
 315              		.loc 1 216 0
 316 0014 FFF7FEBF 		b	chHeapInit
 317              	.LVL35:
 318              		.cfi_endproc
 319              	.LFE13:
 320              		.size	dyn3_setup, .-dyn3_setup
 321 0018 AFF30080 		.section	.text.dyn1_setup,"ax",%progbits
 321      AFF30080 
 322              		.align	2
 323              		.p2align 4,,15
 324              		.thumb
 325              		.thumb_func
 326              		.type	dyn1_setup, %function
 327              	dyn1_setup:
 328              	.LFB8:
 329              		.loc 1 89 0
 330              		.cfi_startproc
 331              		@ args = 0, pretend = 0, frame = 0
 332              		@ frame_needed = 0, uses_anonymous_args = 0
 333              		@ link register save eliminated.
 334              		.loc 1 91 0
 335 0000 40F20000 		movw	r0, #:lower16:.LANCHOR0
 336 0004 40F20001 		movw	r1, #:lower16:test
 337 0008 C0F20000 		movt	r0, #:upper16:.LANCHOR0
 338 000c C0F20001 		movt	r1, #:upper16:test
 339 0010 4FF4BE62 		mov	r2, #1520
ARM GAS  /var/folders/dt/0wfd0knj7gs46m8vwfzktm600000gn/T//ccRUrRSG.s 			page 7


 340              		.loc 1 92 0
 341              		.loc 1 91 0
 342 0014 FFF7FEBF 		b	chHeapInit
 343              	.LVL36:
 344              		.cfi_endproc
 345              	.LFE8:
 346              		.size	dyn1_setup, .-dyn1_setup
 347 0018 AFF30080 		.section	.text.dyn2_execute,"ax",%progbits
 347      AFF30080 
 348              		.align	2
 349              		.p2align 4,,15
 350              		.thumb
 351              		.thumb_func
 352              		.type	dyn2_execute, %function
 353              	dyn2_execute:
 354              	.LFB11:
 355              		.loc 1 152 0
 356              		.cfi_startproc
 357              		@ args = 0, pretend = 0, frame = 0
 358              		@ frame_needed = 0, uses_anonymous_args = 0
 359              		.loc 1 154 0
 360 0000 324B     		ldr	r3, .L29
 361              		.loc 1 152 0
 362 0002 70B5     		push	{r4, r5, r6, lr}
 363              	.LCFI4:
 364              		.cfi_def_cfa_offset 16
 365              		.cfi_offset 4, -16
 366              		.cfi_offset 5, -12
 367              		.cfi_offset 6, -8
 368              		.cfi_offset 14, -4
 369              		.loc 1 154 0
 370 0004 DB69     		ldr	r3, [r3, #28]
 371 0006 324C     		ldr	r4, .L29+4
 372 0008 9D68     		ldr	r5, [r3, #8]
 373              	.LVL37:
 374              		.loc 1 152 0
 375 000a 04F11006 		add	r6, r4, #16
 376              	.LVL38:
 377              	.L16:
 378              		.loc 1 158 0 discriminator 2
 379 000e 54F8041F 		ldr	r1, [r4, #4]!
 380 0012 3048     		ldr	r0, .L29+8
 381 0014 FFF7FEFF 		bl	chPoolFree
 382              	.LVL39:
 383              		.loc 1 157 0 discriminator 2
 384 0018 B442     		cmp	r4, r6
 385 001a F8D1     		bne	.L16
 386              		.loc 1 161 0
 387 001c 691E     		subs	r1, r5, #1
 388 001e 2E4A     		ldr	r2, .L29+12
 389 0020 2E4B     		ldr	r3, .L29+16
 390 0022 2C48     		ldr	r0, .L29+8
 391 0024 FFF7FEFF 		bl	chThdCreateFromMemoryPool
 392              	.LVL40:
 393 0028 2D4C     		ldr	r4, .L29+20
 394              		.loc 1 162 0
 395 002a A91E     		subs	r1, r5, #2
ARM GAS  /var/folders/dt/0wfd0knj7gs46m8vwfzktm600000gn/T//ccRUrRSG.s 			page 8


 396              		.loc 1 161 0
 397 002c 2060     		str	r0, [r4, #0]
 398              		.loc 1 162 0
 399 002e 2A4A     		ldr	r2, .L29+12
 400 0030 2C4B     		ldr	r3, .L29+24
 401 0032 2848     		ldr	r0, .L29+8
 402 0034 FFF7FEFF 		bl	chThdCreateFromMemoryPool
 403              	.LVL41:
 404              		.loc 1 163 0
 405 0038 E91E     		subs	r1, r5, #3
 406              		.loc 1 162 0
 407 003a 6060     		str	r0, [r4, #4]
 408              		.loc 1 163 0
 409 003c 264A     		ldr	r2, .L29+12
 410 003e 2A4B     		ldr	r3, .L29+28
 411 0040 2448     		ldr	r0, .L29+8
 412 0042 FFF7FEFF 		bl	chThdCreateFromMemoryPool
 413              	.LVL42:
 414              		.loc 1 164 0
 415 0046 291F     		subs	r1, r5, #4
 416              		.loc 1 163 0
 417 0048 A060     		str	r0, [r4, #8]
 418              		.loc 1 164 0
 419 004a 234A     		ldr	r2, .L29+12
 420 004c 274B     		ldr	r3, .L29+32
 421 004e 2148     		ldr	r0, .L29+8
 422 0050 FFF7FEFF 		bl	chThdCreateFromMemoryPool
 423              	.LVL43:
 424              		.loc 1 165 0
 425 0054 691F     		subs	r1, r5, #5
 426              		.loc 1 164 0
 427 0056 E060     		str	r0, [r4, #12]
 428              		.loc 1 165 0
 429 0058 1F4A     		ldr	r2, .L29+12
 430 005a 1E48     		ldr	r0, .L29+8
 431 005c 244B     		ldr	r3, .L29+36
 432 005e FFF7FEFF 		bl	chThdCreateFromMemoryPool
 433              	.LVL44:
 434              		.loc 1 167 0
 435 0062 2168     		ldr	r1, [r4, #0]
 436              		.loc 1 165 0
 437 0064 2061     		str	r0, [r4, #16]
 438              		.loc 1 167 0
 439 0066 49B1     		cbz	r1, .L17
 440              		.loc 1 167 0 is_stmt 0 discriminator 1
 441 0068 6168     		ldr	r1, [r4, #4]
 442 006a 39B1     		cbz	r1, .L17
 443              		.loc 1 167 0 discriminator 3
 444 006c A168     		ldr	r1, [r4, #8]
 445 006e 29B1     		cbz	r1, .L17
 446              		.loc 1 167 0 discriminator 4
 447 0070 E168     		ldr	r1, [r4, #12]
 448 0072 19B1     		cbz	r1, .L17
 449              		.loc 1 167 0 discriminator 5
 450 0074 D0F10101 		rsbs	r1, r0, #1
 451 0078 38BF     		it	cc
 452 007a 0021     		movcc	r1, #0
ARM GAS  /var/folders/dt/0wfd0knj7gs46m8vwfzktm600000gn/T//ccRUrRSG.s 			page 9


 453              	.L17:
 454              		.loc 1 167 0 discriminator 7
 455 007c 0120     		movs	r0, #1
 456 007e FFF7FEFF 		bl	_test_assert
 457              	.LVL45:
 458 0082 00B1     		cbz	r0, .L28
 459              	.L15:
 460 0084 70BD     		pop	{r4, r5, r6, pc}
 461              	.L28:
 462              		.loc 1 175 0 is_stmt 1
 463 0086 FFF7FEFF 		bl	test_wait_threads
 464              	.LVL46:
 465              		.loc 1 176 0
 466 008a 0220     		movs	r0, #2
 467 008c 1949     		ldr	r1, .L29+40
 468 008e FFF7FEFF 		bl	_test_assert_sequence
 469              	.LVL47:
 470 0092 0028     		cmp	r0, #0
 471 0094 F6D1     		bne	.L15
 472 0096 0424     		movs	r4, #4
 473              	.L21:
 474              		.loc 1 180 0
 475 0098 0E48     		ldr	r0, .L29+8
 476 009a FFF7FEFF 		bl	chPoolAlloc
 477              	.LVL48:
 478 009e 011C     		adds	r1, r0, #0
 479 00a0 18BF     		it	ne
 480 00a2 0121     		movne	r1, #1
 481 00a4 0320     		movs	r0, #3
 482 00a6 FFF7FEFF 		bl	_test_assert
 483              	.LVL49:
 484 00aa 0028     		cmp	r0, #0
 485 00ac EAD1     		bne	.L15
 486              		.loc 1 179 0
 487 00ae 013C     		subs	r4, r4, #1
 488 00b0 F2D1     		bne	.L21
 489              		.loc 1 181 0
 490 00b2 0848     		ldr	r0, .L29+8
 491 00b4 FFF7FEFF 		bl	chPoolAlloc
 492              	.LVL50:
 493 00b8 D0F10101 		rsbs	r1, r0, #1
 494 00bc 38BF     		it	cc
 495 00be 0021     		movcc	r1, #0
 496 00c0 0420     		movs	r0, #4
 497              		.loc 1 182 0
 498 00c2 BDE87040 		pop	{r4, r5, r6, lr}
 499              		.loc 1 181 0
 500 00c6 FFF7FEBF 		b	_test_assert
 501              	.LVL51:
 502              	.L30:
 503 00ca 00BF     		.align	2
 504              	.L29:
 505 00cc 00000000 		.word	rlist
 506 00d0 FCFFFFFF 		.word	wa-4
 507 00d4 00000000 		.word	.LANCHOR1
 508 00d8 00000000 		.word	thread
 509 00dc 00000000 		.word	.LC0
ARM GAS  /var/folders/dt/0wfd0knj7gs46m8vwfzktm600000gn/T//ccRUrRSG.s 			page 10


 510 00e0 00000000 		.word	threads
 511 00e4 04000000 		.word	.LC1
 512 00e8 08000000 		.word	.LC2
 513 00ec 0C000000 		.word	.LC3
 514 00f0 10000000 		.word	.LC4
 515 00f4 14000000 		.word	.LC5
 516              		.cfi_endproc
 517              	.LFE11:
 518              		.size	dyn2_execute, .-dyn2_execute
 519 00f8 AFF30080 		.section	.text.dyn2_setup,"ax",%progbits
 519      AFF30080 
 520              		.align	2
 521              		.p2align 4,,15
 522              		.thumb
 523              		.thumb_func
 524              		.type	dyn2_setup, %function
 525              	dyn2_setup:
 526              	.LFB10:
 527              		.loc 1 147 0
 528              		.cfi_startproc
 529              		@ args = 0, pretend = 0, frame = 0
 530              		@ frame_needed = 0, uses_anonymous_args = 0
 531              		@ link register save eliminated.
 532              		.loc 1 149 0
 533 0000 40F20000 		movw	r0, #:lower16:.LANCHOR1
 534 0004 C0F20000 		movt	r0, #:upper16:.LANCHOR1
 535 0008 4FF49871 		mov	r1, #304
 536 000c 0022     		movs	r2, #0
 537              		.loc 1 150 0
 538              		.loc 1 149 0
 539 000e FFF7FEBF 		b	chPoolInit
 540              	.LVL52:
 541              		.cfi_endproc
 542              	.LFE10:
 543              		.size	dyn2_setup, .-dyn2_setup
 544 0012 00BFAFF3 		.section	.text.dyn1_execute,"ax",%progbits
 544      0080AFF3 
 544      0080AFF3 
 544      0080
 545              		.align	2
 546              		.p2align 4,,15
 547              		.thumb
 548              		.thumb_func
 549              		.type	dyn1_execute, %function
 550              	dyn1_execute:
 551              	.LFB9:
 552              		.loc 1 94 0
 553              		.cfi_startproc
 554              		@ args = 0, pretend = 0, frame = 8
 555              		@ frame_needed = 0, uses_anonymous_args = 0
 556 0000 70B5     		push	{r4, r5, r6, lr}
 557              	.LCFI5:
 558              		.cfi_def_cfa_offset 16
 559              		.cfi_offset 4, -16
 560              		.cfi_offset 5, -12
 561              		.cfi_offset 6, -8
 562              		.cfi_offset 14, -4
ARM GAS  /var/folders/dt/0wfd0knj7gs46m8vwfzktm600000gn/T//ccRUrRSG.s 			page 11


 563              		.loc 1 97 0
 564 0002 334B     		ldr	r3, .L42
 565              		.loc 1 94 0
 566 0004 84B0     		sub	sp, sp, #16
 567              	.LCFI6:
 568              		.cfi_def_cfa_offset 32
 569              		.loc 1 97 0
 570 0006 DB69     		ldr	r3, [r3, #28]
 571              		.loc 1 99 0
 572 0008 03A9     		add	r1, sp, #12
 573 000a 3248     		ldr	r0, .L42+4
 574              		.loc 1 97 0
 575 000c 9D68     		ldr	r5, [r3, #8]
 576              	.LVL53:
 577              		.loc 1 99 0
 578 000e FFF7FEFF 		bl	chHeapStatus
 579              	.LVL54:
 580              		.loc 1 101 0
 581 0012 3148     		ldr	r0, .L42+8
 582 0014 4FF49871 		mov	r1, #304
 583 0018 6A1E     		subs	r2, r5, #1
 584 001a 304B     		ldr	r3, .L42+12
 585 001c 0090     		str	r0, [sp, #0]
 586 001e 2D48     		ldr	r0, .L42+4
 587 0020 FFF7FEFF 		bl	chThdCreateFromHeap
 588              	.LVL55:
 589 0024 2E4C     		ldr	r4, .L42+16
 590              		.loc 1 103 0
 591 0026 AA1E     		subs	r2, r5, #2
 592              		.loc 1 101 0
 593 0028 2060     		str	r0, [r4, #0]
 594              		.loc 1 103 0
 595 002a 2E48     		ldr	r0, .L42+20
 596 002c 2B4B     		ldr	r3, .L42+12
 597 002e 4FF49871 		mov	r1, #304
 598 0032 0090     		str	r0, [sp, #0]
 599 0034 2748     		ldr	r0, .L42+4
 600 0036 FFF7FEFF 		bl	chThdCreateFromHeap
 601              	.LVL56:
 602              		.loc 1 106 0
 603 003a 02A9     		add	r1, sp, #8
 604              		.loc 1 103 0
 605 003c 6060     		str	r0, [r4, #4]
 606              		.loc 1 106 0
 607 003e 2548     		ldr	r0, .L42+4
 608 0040 FFF7FEFF 		bl	chHeapStatus
 609              	.LVL57:
 610              		.loc 1 107 0
 611 0044 0299     		ldr	r1, [sp, #8]
 612 0046 2348     		ldr	r0, .L42+4
 613 0048 FFF7FEFF 		bl	chHeapAlloc
 614              	.LVL58:
 615 004c 0646     		mov	r6, r0
 616              	.LVL59:
 617              		.loc 1 108 0
 618 004e 2648     		ldr	r0, .L42+24
 619              	.LVL60:
ARM GAS  /var/folders/dt/0wfd0knj7gs46m8vwfzktm600000gn/T//ccRUrRSG.s 			page 12


 620 0050 4FF49871 		mov	r1, #304
 621 0054 EA1E     		subs	r2, r5, #3
 622 0056 214B     		ldr	r3, .L42+12
 623 0058 0090     		str	r0, [sp, #0]
 624 005a 1E48     		ldr	r0, .L42+4
 625 005c FFF7FEFF 		bl	chThdCreateFromHeap
 626              	.LVL61:
 627 0060 A060     		str	r0, [r4, #8]
 628              		.loc 1 110 0
 629 0062 3046     		mov	r0, r6
 630 0064 FFF7FEFF 		bl	chHeapFree
 631              	.LVL62:
 632              		.loc 1 112 0
 633 0068 2168     		ldr	r1, [r4, #0]
 634 006a 29B1     		cbz	r1, .L33
 635              		.loc 1 112 0 is_stmt 0 discriminator 1
 636 006c 6168     		ldr	r1, [r4, #4]
 637 006e 19B1     		cbz	r1, .L33
 638              		.loc 1 112 0 discriminator 3
 639 0070 A168     		ldr	r1, [r4, #8]
 640 0072 0029     		cmp	r1, #0
 641 0074 23D0     		beq	.L40
 642              		.loc 1 112 0
 643 0076 0021     		movs	r1, #0
 644              	.L33:
 645              		.loc 1 112 0 discriminator 7
 646 0078 0120     		movs	r0, #1
 647 007a FFF7FEFF 		bl	_test_assert
 648              	.LVL63:
 649 007e 08B1     		cbz	r0, .L41
 650              	.L32:
 651              		.loc 1 126 0 is_stmt 1
 652 0080 04B0     		add	sp, sp, #16
 653 0082 70BD     		pop	{r4, r5, r6, pc}
 654              	.L41:
 655              		.loc 1 120 0
 656 0084 FFF7FEFF 		bl	test_wait_threads
 657              	.LVL64:
 658              		.loc 1 121 0
 659 0088 0220     		movs	r0, #2
 660 008a 1849     		ldr	r1, .L42+28
 661 008c FFF7FEFF 		bl	_test_assert_sequence
 662              	.LVL65:
 663 0090 0028     		cmp	r0, #0
 664 0092 F5D1     		bne	.L32
 665              		.loc 1 124 0
 666 0094 02A9     		add	r1, sp, #8
 667 0096 0F48     		ldr	r0, .L42+4
 668 0098 FFF7FEFF 		bl	chHeapStatus
 669              	.LVL66:
 670 009c 421E     		subs	r2, r0, #1
 671 009e 5142     		rsbs	r1, r2, #0
 672 00a0 5141     		adcs	r1, r1, r2
 673 00a2 0320     		movs	r0, #3
 674 00a4 FFF7FEFF 		bl	_test_assert
 675              	.LVL67:
 676 00a8 0028     		cmp	r0, #0
ARM GAS  /var/folders/dt/0wfd0knj7gs46m8vwfzktm600000gn/T//ccRUrRSG.s 			page 13


 677 00aa E9D1     		bne	.L32
 678              		.loc 1 125 0
 679 00ac 0299     		ldr	r1, [sp, #8]
 680              	.LVL68:
 681 00ae 039B     		ldr	r3, [sp, #12]
 682 00b0 0420     		movs	r0, #4
 683 00b2 CB1A     		subs	r3, r1, r3
 684 00b4 5942     		rsbs	r1, r3, #0
 685 00b6 5941     		adcs	r1, r1, r3
 686 00b8 FFF7FEFF 		bl	_test_assert
 687              	.LVL69:
 688 00bc E0E7     		b	.L32
 689              	.LVL70:
 690              	.L40:
 691              		.loc 1 112 0 discriminator 4
 692 00be E368     		ldr	r3, [r4, #12]
 693 00c0 002B     		cmp	r3, #0
 694 00c2 D9D1     		bne	.L33
 695              		.loc 1 112 0 is_stmt 0 discriminator 5
 696 00c4 2169     		ldr	r1, [r4, #16]
 697 00c6 D1F10101 		rsbs	r1, r1, #1
 698 00ca 38BF     		it	cc
 699 00cc 0021     		movcc	r1, #0
 700 00ce D3E7     		b	.L33
 701              	.L43:
 702              		.align	2
 703              	.L42:
 704 00d0 00000000 		.word	rlist
 705 00d4 00000000 		.word	.LANCHOR0
 706 00d8 00000000 		.word	.LC0
 707 00dc 00000000 		.word	thread
 708 00e0 00000000 		.word	threads
 709 00e4 04000000 		.word	.LC1
 710 00e8 08000000 		.word	.LC2
 711 00ec 1C000000 		.word	.LC6
 712              		.cfi_endproc
 713              	.LFE9:
 714              		.size	dyn1_execute, .-dyn1_execute
 715              		.global	patterndyn
 716              		.global	testdyn3
 717              		.global	testdyn2
 718              		.global	testdyn1
 719              		.section	.rodata.testdyn1,"a",%progbits
 720              		.align	2
 721              		.type	testdyn1, %object
 722              		.size	testdyn1, 16
 723              	testdyn1:
 724 0000 78000000 		.word	.LC9
 725 0004 00000000 		.word	dyn1_setup
 726 0008 00000000 		.word	0
 727 000c 00000000 		.word	dyn1_execute
 728              		.section	.rodata.testdyn2,"a",%progbits
 729              		.align	2
 730              		.type	testdyn2, %object
 731              		.size	testdyn2, 16
 732              	testdyn2:
 733 0000 48000000 		.word	.LC8
ARM GAS  /var/folders/dt/0wfd0knj7gs46m8vwfzktm600000gn/T//ccRUrRSG.s 			page 14


 734 0004 00000000 		.word	dyn2_setup
 735 0008 00000000 		.word	0
 736 000c 00000000 		.word	dyn2_execute
 737              		.section	.rodata.testdyn3,"a",%progbits
 738              		.align	2
 739              		.type	testdyn3, %object
 740              		.size	testdyn3, 16
 741              	testdyn3:
 742 0000 20000000 		.word	.LC7
 743 0004 00000000 		.word	dyn3_setup
 744 0008 00000000 		.word	0
 745 000c 00000000 		.word	dyn3_execute
 746              		.section	.bss.mp1,"aw",%nobits
 747              		.align	2
 748              		.set	.LANCHOR1,. + 0
 749              		.type	mp1, %object
 750              		.size	mp1, 12
 751              	mp1:
 752 0000 00000000 		.space	12
 752      00000000 
 752      00000000 
 753              		.section	.rodata.str1.4,"aMS",%progbits,1
 754              		.align	2
 755              	.LC0:
 756 0000 4100     		.ascii	"A\000"
 757 0002 0000     		.space	2
 758              	.LC1:
 759 0004 4200     		.ascii	"B\000"
 760 0006 0000     		.space	2
 761              	.LC2:
 762 0008 4300     		.ascii	"C\000"
 763 000a 0000     		.space	2
 764              	.LC3:
 765 000c 4400     		.ascii	"D\000"
 766 000e 0000     		.space	2
 767              	.LC4:
 768 0010 4500     		.ascii	"E\000"
 769 0012 0000     		.space	2
 770              	.LC5:
 771 0014 41424344 		.ascii	"ABCD\000"
 771      00
 772 0019 000000   		.space	3
 773              	.LC6:
 774 001c 414200   		.ascii	"AB\000"
 775 001f 00       		.space	1
 776              	.LC7:
 777 0020 44796E61 		.ascii	"Dynamic APIs, registry and references\000"
 777      6D696320 
 777      41504973 
 777      2C207265 
 777      67697374 
 778 0046 0000     		.space	2
 779              	.LC8:
 780 0048 44796E61 		.ascii	"Dynamic APIs, threads creation from memory pool\000"
 780      6D696320 
 780      41504973 
 780      2C207468 
ARM GAS  /var/folders/dt/0wfd0knj7gs46m8vwfzktm600000gn/T//ccRUrRSG.s 			page 15


 780      72656164 
 781              	.LC9:
 782 0078 44796E61 		.ascii	"Dynamic APIs, threads creation from heap\000"
 782      6D696320 
 782      41504973 
 782      2C207468 
 782      72656164 
 783 00a1 000000   		.section	.rodata.patterndyn,"a",%progbits
 784              		.align	2
 785              		.type	patterndyn, %object
 786              		.size	patterndyn, 16
 787              	patterndyn:
 788 0000 00000000 		.word	testdyn1
 789 0004 00000000 		.word	testdyn2
 790 0008 00000000 		.word	testdyn3
 791 000c 00000000 		.word	0
 792              		.section	.bss.heap1,"aw",%nobits
 793              		.align	3
 794              		.set	.LANCHOR0,. + 0
 795              		.type	heap1, %object
 796              		.size	heap1, 32
 797              	heap1:
 798 0000 00000000 		.space	32
 798      00000000 
 798      00000000 
 798      00000000 
 798      00000000 
 799              		.text
 800              	.Letext0:
 801              		.file 2 "/Users/toxygen/Applications/yagarto-4.7.2/bin/../lib/gcc/arm-none-eabi/4.7.2/include/stdd
 802              		.file 3 "/Users/toxygen/Applications/yagarto-4.7.2/bin/../lib/gcc/arm-none-eabi/4.7.2/../../../../
 803              		.file 4 "../../os/ports/GCC/ARMCMx/chtypes.h"
 804              		.file 5 "../../os/kernel/include/chlists.h"
 805              		.file 6 "../../os/kernel/include/chthreads.h"
 806              		.file 7 "../../os/ports/GCC/ARMCMx/chcore_v7m.h"
 807              		.file 8 "../../os/kernel/include/chschd.h"
 808              		.file 9 "../../os/kernel/include/chmtx.h"
 809              		.file 10 "../../os/kernel/include/chmemcore.h"
 810              		.file 11 "../../os/kernel/include/chheap.h"
 811              		.file 12 "../../os/kernel/include/chmempools.h"
 812              		.file 13 "../../test/test.h"
 813              		.file 14 "../../os/kernel/include/chregistry.h"
 814              		.file 15 "../../os/kernel/include/chdynamic.h"