ARM GAS  /var/folders/dt/0wfd0knj7gs46m8vwfzktm600000gn/T//ccKn2zKA.s 			page 1


   1              		.syntax unified
   2              		.cpu cortex-m3
   3              		.fpu softvfp
   4              		.eabi_attribute 20, 1
   5              		.eabi_attribute 21, 1
   6              		.eabi_attribute 23, 3
   7              		.eabi_attribute 24, 1
   8              		.eabi_attribute 25, 1
   9              		.eabi_attribute 26, 1
  10              		.eabi_attribute 30, 2
  11              		.eabi_attribute 34, 1
  12              		.eabi_attribute 18, 4
  13              		.thumb
  14              		.file	"test.c"
  15              		.text
  16              	.Ltext0:
  17              		.cfi_sections	.debug_frame
  18              		.section	.text.tmr,"ax",%progbits
  19              		.align	2
  20              		.p2align 4,,15
  21              		.thumb
  22              		.thumb_func
  23              		.type	tmr, %function
  24              	tmr:
  25              	.LFB76:
  26              		.file 1 "../../test/test.c"
  27              		.loc 1 273 0
  28              		.cfi_startproc
  29              		@ args = 0, pretend = 0, frame = 0
  30              		@ frame_needed = 0, uses_anonymous_args = 0
  31              		@ link register save eliminated.
  32              	.LVL0:
  33              		.loc 1 276 0
  34 0000 40F20003 		movw	r3, #:lower16:.LANCHOR0
  35 0004 C0F20003 		movt	r3, #:upper16:.LANCHOR0
  36 0008 0122     		movs	r2, #1
  37 000a 1A60     		str	r2, [r3, #0]
  38 000c 7047     		bx	lr
  39              		.cfi_endproc
  40              	.LFE76:
  41              		.size	tmr, .-tmr
  42 000e 00BF     		.section	.text.print_line,"ax",%progbits
  43              		.align	2
  44              		.p2align 4,,15
  45              		.thumb
  46              		.thumb_func
  47              		.type	print_line, %function
  48              	print_line:
  49              	.LFB79:
  50              		.loc 1 314 0
  51              		.cfi_startproc
  52              		@ args = 0, pretend = 0, frame = 0
  53              		@ frame_needed = 0, uses_anonymous_args = 0
  54              	.LVL1:
  55 0000 70B5     		push	{r4, r5, r6, lr}
  56              	.LCFI0:
  57              		.cfi_def_cfa_offset 16
ARM GAS  /var/folders/dt/0wfd0knj7gs46m8vwfzktm600000gn/T//ccKn2zKA.s 			page 2


  58              		.cfi_offset 4, -16
  59              		.cfi_offset 5, -12
  60              		.cfi_offset 6, -8
  61              		.cfi_offset 14, -4
  62 0002 0D4E     		ldr	r6, .L6
  63              		.loc 1 314 0
  64 0004 4C24     		movs	r4, #76
  65              	.LVL2:
  66              	.L3:
  67              		.loc 1 318 0 discriminator 2
  68 0006 3068     		ldr	r0, [r6, #0]
  69 0008 2D21     		movs	r1, #45
  70 000a 0368     		ldr	r3, [r0, #0]
  71 000c 4FF0FF32 		mov	r2, #-1
  72 0010 1B69     		ldr	r3, [r3, #16]
  73 0012 9847     		blx	r3
  74              	.LVL3:
  75              		.loc 1 317 0 discriminator 2
  76 0014 013C     		subs	r4, r4, #1
  77              		.loc 1 318 0 discriminator 2
  78 0016 084D     		ldr	r5, .L6
  79              		.loc 1 317 0 discriminator 2
  80 0018 F5D1     		bne	.L3
  81              		.loc 1 319 0
  82 001a 2868     		ldr	r0, [r5, #0]
  83 001c 0D21     		movs	r1, #13
  84 001e 0368     		ldr	r3, [r0, #0]
  85 0020 4FF0FF32 		mov	r2, #-1
  86 0024 1B69     		ldr	r3, [r3, #16]
  87 0026 9847     		blx	r3
  88              	.LVL4:
  89              		.loc 1 320 0
  90 0028 2868     		ldr	r0, [r5, #0]
  91 002a 0A21     		movs	r1, #10
  92 002c 0368     		ldr	r3, [r0, #0]
  93 002e 4FF0FF32 		mov	r2, #-1
  94 0032 1B69     		ldr	r3, [r3, #16]
  95 0034 9847     		blx	r3
  96              	.LVL5:
  97 0036 70BD     		pop	{r4, r5, r6, pc}
  98              	.L7:
  99              		.align	2
 100              	.L6:
 101 0038 00000000 		.word	.LANCHOR1
 102              		.cfi_endproc
 103              	.LFE79:
 104              		.size	print_line, .-print_line
 105 003c AFF30080 		.section	.text.test_printn,"ax",%progbits
 106              		.align	2
 107              		.p2align 4,,15
 108              		.global	test_printn
 109              		.thumb
 110              		.thumb_func
 111              		.type	test_printn, %function
 112              	test_printn:
 113              	.LFB62:
 114              		.loc 1 102 0
ARM GAS  /var/folders/dt/0wfd0knj7gs46m8vwfzktm600000gn/T//ccKn2zKA.s 			page 3


 115              		.cfi_startproc
 116              		@ args = 0, pretend = 0, frame = 16
 117              		@ frame_needed = 0, uses_anonymous_args = 0
 118              	.LVL6:
 119 0000 70B5     		push	{r4, r5, r6, lr}
 120              	.LCFI1:
 121              		.cfi_def_cfa_offset 16
 122              		.cfi_offset 4, -16
 123              		.cfi_offset 5, -12
 124              		.cfi_offset 6, -8
 125              		.cfi_offset 14, -4
 126 0002 84B0     		sub	sp, sp, #16
 127              	.LCFI2:
 128              		.cfi_def_cfa_offset 32
 129              		.loc 1 105 0
 130 0004 0028     		cmp	r0, #0
 131 0006 28D0     		beq	.L16
 132              	.LBB50:
 133              	.LBB51:
 134              		.loc 1 102 0
 135 0008 0DF10105 		add	r5, sp, #1
 136              	.LBE51:
 137              	.LBE50:
 138              		.loc 1 110 0
 139 000c 4CF6CD46 		movw	r6, #52429
 140              	.LBB54:
 141              	.LBB52:
 142              		.loc 1 102 0
 143 0010 2B46     		mov	r3, r5
 144              	.LBE52:
 145              	.LBE54:
 146              		.loc 1 110 0
 147 0012 CCF6CC46 		movt	r6, 52428
 148              	.LVL7:
 149              	.L11:
 150 0016 A6FB0012 		umull	r1, r2, r6, r0
 151 001a D208     		lsrs	r2, r2, #3
 152 001c 02EB8201 		add	r1, r2, r2, lsl #2
 153 0020 A0EB4101 		sub	r1, r0, r1, lsl #1
 154 0024 3031     		adds	r1, r1, #48
 155 0026 C9B2     		uxtb	r1, r1
 156              		.loc 1 102 0
 157 0028 1C46     		mov	r4, r3
 158              		.loc 1 110 0
 159 002a 03F8011C 		strb	r1, [r3, #-1]
 160              	.LVL8:
 161              		.loc 1 109 0
 162 002e 1046     		mov	r0, r2
 163 0030 0133     		adds	r3, r3, #1
 164              	.LVL9:
 165 0032 002A     		cmp	r2, #0
 166 0034 EFD1     		bne	.L11
 167              		.loc 1 111 0 discriminator 1
 168 0036 6B46     		mov	r3, sp
 169 0038 9C42     		cmp	r4, r3
 170 003a 0CD9     		bls	.L8
 171 003c 0B4E     		ldr	r6, .L18
ARM GAS  /var/folders/dt/0wfd0knj7gs46m8vwfzktm600000gn/T//ccKn2zKA.s 			page 4


 172 003e 02E0     		b	.L14
 173              	.LVL10:
 174              	.L17:
 175 0040 14F8021C 		ldrb	r1, [r4, #-2]	@ zero_extendqisi2
 176 0044 013C     		subs	r4, r4, #1
 177              	.L14:
 178              		.loc 1 112 0
 179 0046 3068     		ldr	r0, [r6, #0]
 180 0048 4FF0FF32 		mov	r2, #-1
 181 004c 0368     		ldr	r3, [r0, #0]
 182 004e 1B69     		ldr	r3, [r3, #16]
 183 0050 9847     		blx	r3
 184              	.LVL11:
 185              		.loc 1 111 0
 186 0052 AC42     		cmp	r4, r5
 187 0054 F4D1     		bne	.L17
 188              	.L8:
 189              		.loc 1 114 0
 190 0056 04B0     		add	sp, sp, #16
 191 0058 70BD     		pop	{r4, r5, r6, pc}
 192              	.LVL12:
 193              	.L16:
 194              	.LBB55:
 195              	.LBB53:
 196              		.loc 1 106 0
 197 005a 044B     		ldr	r3, .L18
 198 005c 3021     		movs	r1, #48
 199 005e 1868     		ldr	r0, [r3, #0]
 200              	.LVL13:
 201 0060 4FF0FF32 		mov	r2, #-1
 202 0064 0368     		ldr	r3, [r0, #0]
 203 0066 1B69     		ldr	r3, [r3, #16]
 204 0068 9847     		blx	r3
 205              	.LVL14:
 206 006a F4E7     		b	.L8
 207              	.L19:
 208              		.align	2
 209              	.L18:
 210 006c 00000000 		.word	.LANCHOR1
 211              	.LBE53:
 212              	.LBE55:
 213              		.cfi_endproc
 214              	.LFE62:
 215              		.size	test_printn, .-test_printn
 216              		.section	.text.test_print,"ax",%progbits
 217              		.align	2
 218              		.p2align 4,,15
 219              		.global	test_print
 220              		.thumb
 221              		.thumb_func
 222              		.type	test_print, %function
 223              	test_print:
 224              	.LFB63:
 225              		.loc 1 121 0
 226              		.cfi_startproc
 227              		@ args = 0, pretend = 0, frame = 0
 228              		@ frame_needed = 0, uses_anonymous_args = 0
ARM GAS  /var/folders/dt/0wfd0knj7gs46m8vwfzktm600000gn/T//ccKn2zKA.s 			page 5


 229              	.LVL15:
 230 0000 38B5     		push	{r3, r4, r5, lr}
 231              	.LCFI3:
 232              		.cfi_def_cfa_offset 16
 233              		.cfi_offset 3, -16
 234              		.cfi_offset 4, -12
 235              		.cfi_offset 5, -8
 236              		.cfi_offset 14, -4
 237              		.loc 1 123 0
 238 0002 0178     		ldrb	r1, [r0, #0]	@ zero_extendqisi2
 239 0004 59B1     		cbz	r1, .L20
 240 0006 064D     		ldr	r5, .L25
 241 0008 0446     		mov	r4, r0
 242              	.LVL16:
 243              	.L22:
 244              		.loc 1 124 0
 245 000a 2868     		ldr	r0, [r5, #0]
 246 000c 4FF0FF32 		mov	r2, #-1
 247 0010 0368     		ldr	r3, [r0, #0]
 248 0012 1B69     		ldr	r3, [r3, #16]
 249 0014 9847     		blx	r3
 250              	.LVL17:
 251              		.loc 1 123 0
 252 0016 14F8011F 		ldrb	r1, [r4, #1]!	@ zero_extendqisi2
 253 001a 0029     		cmp	r1, #0
 254 001c F5D1     		bne	.L22
 255              	.L20:
 256 001e 38BD     		pop	{r3, r4, r5, pc}
 257              	.L26:
 258              		.align	2
 259              	.L25:
 260 0020 00000000 		.word	.LANCHOR1
 261              		.cfi_endproc
 262              	.LFE63:
 263              		.size	test_print, .-test_print
 264 0024 AFF30080 		.section	.text.test_println,"ax",%progbits
 264      AFF30080 
 264      AFF30080 
 265              		.align	2
 266              		.p2align 4,,15
 267              		.global	test_println
 268              		.thumb
 269              		.thumb_func
 270              		.type	test_println, %function
 271              	test_println:
 272              	.LFB64:
 273              		.loc 1 132 0
 274              		.cfi_startproc
 275              		@ args = 0, pretend = 0, frame = 0
 276              		@ frame_needed = 0, uses_anonymous_args = 0
 277              	.LVL18:
 278 0000 38B5     		push	{r3, r4, r5, lr}
 279              	.LCFI4:
 280              		.cfi_def_cfa_offset 16
 281              		.cfi_offset 3, -16
 282              		.cfi_offset 4, -12
 283              		.cfi_offset 5, -8
ARM GAS  /var/folders/dt/0wfd0knj7gs46m8vwfzktm600000gn/T//ccKn2zKA.s 			page 6


 284              		.cfi_offset 14, -4
 285              	.LBB56:
 286              	.LBB57:
 287              		.loc 1 123 0
 288 0002 0178     		ldrb	r1, [r0, #0]	@ zero_extendqisi2
 289 0004 0D4D     		ldr	r5, .L33
 290 0006 51B1     		cbz	r1, .L30
 291 0008 0446     		mov	r4, r0
 292              	.LVL19:
 293              	.L29:
 294              		.loc 1 124 0
 295 000a 2868     		ldr	r0, [r5, #0]
 296 000c 4FF0FF32 		mov	r2, #-1
 297 0010 0368     		ldr	r3, [r0, #0]
 298 0012 1B69     		ldr	r3, [r3, #16]
 299 0014 9847     		blx	r3
 300              	.LVL20:
 301              		.loc 1 123 0
 302 0016 14F8011F 		ldrb	r1, [r4, #1]!	@ zero_extendqisi2
 303 001a 0029     		cmp	r1, #0
 304 001c F5D1     		bne	.L29
 305              	.L30:
 306              	.LBE57:
 307              	.LBE56:
 308              		.loc 1 135 0
 309 001e 2868     		ldr	r0, [r5, #0]
 310 0020 0D21     		movs	r1, #13
 311 0022 0368     		ldr	r3, [r0, #0]
 312 0024 4FF0FF32 		mov	r2, #-1
 313 0028 1B69     		ldr	r3, [r3, #16]
 314 002a 9847     		blx	r3
 315              	.LVL21:
 316              		.loc 1 136 0
 317 002c 2868     		ldr	r0, [r5, #0]
 318 002e 0A21     		movs	r1, #10
 319 0030 0368     		ldr	r3, [r0, #0]
 320 0032 4FF0FF32 		mov	r2, #-1
 321 0036 1B69     		ldr	r3, [r3, #16]
 322 0038 9847     		blx	r3
 323              	.LVL22:
 324 003a 38BD     		pop	{r3, r4, r5, pc}
 325              	.L34:
 326              		.align	2
 327              	.L33:
 328 003c 00000000 		.word	.LANCHOR1
 329              		.cfi_endproc
 330              	.LFE64:
 331              		.size	test_println, .-test_println
 332              		.section	.text.test_emit_token,"ax",%progbits
 333              		.align	2
 334              		.p2align 4,,15
 335              		.global	test_emit_token
 336              		.thumb
 337              		.thumb_func
 338              		.type	test_emit_token, %function
 339              	test_emit_token:
 340              	.LFB67:
ARM GAS  /var/folders/dt/0wfd0knj7gs46m8vwfzktm600000gn/T//ccKn2zKA.s 			page 7


 341              		.loc 1 159 0
 342              		.cfi_startproc
 343              		@ args = 0, pretend = 0, frame = 0
 344              		@ frame_needed = 0, uses_anonymous_args = 0
 345              		@ link register save eliminated.
 346              	.LVL23:
 347              	.LBB58:
 348              		.loc 1 161 0
 349 0000 2023     		movs	r3, #32
 350              	.LVL24:
 351              	@ 161 "../../test/test.c" 1
 352 0002 83F31188 		msr     BASEPRI, r3
 353              	@ 0 "" 2
 354              	.LVL25:
 355              		.thumb
 356              	.LBE58:
 357              		.loc 1 162 0
 358 0006 40F20002 		movw	r2, #:lower16:.LANCHOR2
 359 000a C0F20002 		movt	r2, #:upper16:.LANCHOR2
 360 000e 1168     		ldr	r1, [r2, #0]
 361              	.LBB59:
 362              		.loc 1 163 0
 363 0010 0023     		movs	r3, #0
 364              	.LVL26:
 365              	.LBE59:
 366              		.loc 1 162 0
 367 0012 01F8010B 		strb	r0, [r1], #1
 368 0016 1160     		str	r1, [r2, #0]
 369              	.LBB60:
 370              		.loc 1 163 0
 371              	@ 163 "../../test/test.c" 1
 372 0018 83F31188 		msr     BASEPRI, r3
 373              	@ 0 "" 2
 374              	.LVL27:
 375              		.thumb
 376 001c 7047     		bx	lr
 377              	.LBE60:
 378              		.cfi_endproc
 379              	.LFE67:
 380              		.size	test_emit_token, .-test_emit_token
 381 001e 00BF     		.section	.text._test_fail,"ax",%progbits
 382              		.align	2
 383              		.p2align 4,,15
 384              		.global	_test_fail
 385              		.thumb
 386              		.thumb_func
 387              		.type	_test_fail, %function
 388              	_test_fail:
 389              	.LFB68:
 390              		.loc 1 169 0
 391              		.cfi_startproc
 392              		@ args = 0, pretend = 0, frame = 0
 393              		@ frame_needed = 0, uses_anonymous_args = 0
 394              		@ link register save eliminated.
 395              	.LVL28:
 396 0000 10B4     		push	{r4}
 397              	.LCFI5:
ARM GAS  /var/folders/dt/0wfd0knj7gs46m8vwfzktm600000gn/T//ccKn2zKA.s 			page 8


 398              		.cfi_def_cfa_offset 4
 399              		.cfi_offset 4, -4
 400              		.loc 1 171 0
 401 0002 40F20001 		movw	r1, #:lower16:.LANCHOR3
 402              		.loc 1 172 0
 403 0006 40F20002 		movw	r2, #:lower16:.LANCHOR4
 404              		.loc 1 173 0
 405 000a 40F20004 		movw	r4, #:lower16:.LANCHOR5
 406              		.loc 1 171 0
 407 000e 0123     		movs	r3, #1
 408 0010 C0F20001 		movt	r1, #:upper16:.LANCHOR3
 409              		.loc 1 172 0
 410 0014 C0F20002 		movt	r2, #:upper16:.LANCHOR4
 411              		.loc 1 173 0
 412 0018 C0F20004 		movt	r4, #:upper16:.LANCHOR5
 413 001c 2060     		str	r0, [r4, #0]
 414              		.loc 1 171 0
 415 001e 0B60     		str	r3, [r1, #0]
 416              		.loc 1 172 0
 417 0020 1360     		str	r3, [r2, #0]
 418              		.loc 1 175 0
 419 0022 1846     		mov	r0, r3
 420              	.LVL29:
 421 0024 10BC     		pop	{r4}
 422 0026 7047     		bx	lr
 423              		.cfi_endproc
 424              	.LFE68:
 425              		.size	_test_fail, .-_test_fail
 426 0028 AFF30080 		.section	.text._test_assert,"ax",%progbits
 426      AFF30080 
 427              		.align	2
 428              		.p2align 4,,15
 429              		.global	_test_assert
 430              		.thumb
 431              		.thumb_func
 432              		.type	_test_assert, %function
 433              	_test_assert:
 434              	.LFB69:
 435              		.loc 1 177 0
 436              		.cfi_startproc
 437              		@ args = 0, pretend = 0, frame = 0
 438              		@ frame_needed = 0, uses_anonymous_args = 0
 439              		@ link register save eliminated.
 440              	.LVL30:
 441              		.loc 1 179 0
 442 0000 41B9     		cbnz	r1, .L39
 443              	.LVL31:
 444              	.LBB61:
 445              	.LBB62:
 446              		.loc 1 171 0
 447 0002 054A     		ldr	r2, .L40
 448 0004 0123     		movs	r3, #1
 449 0006 1360     		str	r3, [r2, #0]
 450              		.loc 1 172 0
 451 0008 044A     		ldr	r2, .L40+4
 452 000a 1360     		str	r3, [r2, #0]
 453              		.loc 1 173 0
ARM GAS  /var/folders/dt/0wfd0knj7gs46m8vwfzktm600000gn/T//ccKn2zKA.s 			page 9


 454 000c 044A     		ldr	r2, .L40+8
 455 000e 1060     		str	r0, [r2, #0]
 456              	.LBE62:
 457              	.LBE61:
 458              		.loc 1 180 0
 459 0010 1846     		mov	r0, r3
 460              	.LVL32:
 461 0012 7047     		bx	lr
 462              	.LVL33:
 463              	.L39:
 464              		.loc 1 181 0
 465 0014 0020     		movs	r0, #0
 466              	.LVL34:
 467              		.loc 1 182 0
 468 0016 7047     		bx	lr
 469              	.L41:
 470              		.align	2
 471              	.L40:
 472 0018 00000000 		.word	.LANCHOR3
 473 001c 00000000 		.word	.LANCHOR4
 474 0020 00000000 		.word	.LANCHOR5
 475              		.cfi_endproc
 476              	.LFE69:
 477              		.size	_test_assert, .-_test_assert
 478 0024 AFF30080 		.section	.text._test_assert_sequence,"ax",%progbits
 478      AFF30080 
 478      AFF30080 
 479              		.align	2
 480              		.p2align 4,,15
 481              		.global	_test_assert_sequence
 482              		.thumb
 483              		.thumb_func
 484              		.type	_test_assert_sequence, %function
 485              	_test_assert_sequence:
 486              	.LFB70:
 487              		.loc 1 184 0
 488              		.cfi_startproc
 489              		@ args = 0, pretend = 0, frame = 0
 490              		@ frame_needed = 0, uses_anonymous_args = 0
 491              		@ link register save eliminated.
 492              	.LVL35:
 493 0000 F0B4     		push	{r4, r5, r6, r7}
 494              	.LCFI6:
 495              		.cfi_def_cfa_offset 16
 496              		.cfi_offset 4, -16
 497              		.cfi_offset 5, -12
 498              		.cfi_offset 6, -8
 499              		.cfi_offset 7, -4
 500 0002 0F4E     		ldr	r6, .L49
 501              		.loc 1 185 0
 502 0004 0F4F     		ldr	r7, .L49+4
 503 0006 3568     		ldr	r5, [r6, #0]
 504 0008 3B46     		mov	r3, r7
 505              		.loc 1 186 0
 506 000a 04E0     		b	.L43
 507              	.LVL36:
 508              	.L45:
ARM GAS  /var/folders/dt/0wfd0knj7gs46m8vwfzktm600000gn/T//ccKn2zKA.s 			page 10


 509              		.loc 1 187 0
 510 000c 11F8014B 		ldrb	r4, [r1], #1	@ zero_extendqisi2
 511              	.LVL37:
 512 0010 1278     		ldrb	r2, [r2, #0]	@ zero_extendqisi2
 513 0012 A242     		cmp	r2, r4
 514 0014 09D1     		bne	.L48
 515              	.L43:
 516              		.loc 1 186 0 discriminator 1
 517 0016 9D42     		cmp	r5, r3
 518 0018 1A46     		mov	r2, r3
 519 001a 03F10103 		add	r3, r3, #1
 520 001e F5D8     		bhi	.L45
 521              		.loc 1 190 0
 522 0020 0B78     		ldrb	r3, [r1, #0]	@ zero_extendqisi2
 523 0022 13B9     		cbnz	r3, .L48
 524              	.LBB63:
 525              	.LBB64:
 526              		.loc 1 144 0
 527 0024 3760     		str	r7, [r6, #0]
 528              	.LBE64:
 529              	.LBE63:
 530              		.loc 1 193 0
 531 0026 1846     		mov	r0, r3
 532              	.LVL38:
 533 0028 07E0     		b	.L44
 534              	.LVL39:
 535              	.L48:
 536              	.LBB65:
 537              	.LBB66:
 538              		.loc 1 171 0
 539 002a 074A     		ldr	r2, .L49+8
 540 002c 0123     		movs	r3, #1
 541 002e 1360     		str	r3, [r2, #0]
 542              		.loc 1 172 0
 543 0030 064A     		ldr	r2, .L49+12
 544 0032 1360     		str	r3, [r2, #0]
 545              		.loc 1 173 0
 546 0034 064A     		ldr	r2, .L49+16
 547 0036 1060     		str	r0, [r2, #0]
 548              	.LBE66:
 549              	.LBE65:
 550              		.loc 1 191 0
 551 0038 1846     		mov	r0, r3
 552              	.LVL40:
 553              	.L44:
 554              		.loc 1 194 0
 555 003a F0BC     		pop	{r4, r5, r6, r7}
 556 003c 7047     		bx	lr
 557              	.L50:
 558 003e 00BF     		.align	2
 559              	.L49:
 560 0040 00000000 		.word	.LANCHOR2
 561 0044 00000000 		.word	.LANCHOR6
 562 0048 00000000 		.word	.LANCHOR3
 563 004c 00000000 		.word	.LANCHOR4
 564 0050 00000000 		.word	.LANCHOR5
 565              		.cfi_endproc
ARM GAS  /var/folders/dt/0wfd0knj7gs46m8vwfzktm600000gn/T//ccKn2zKA.s 			page 11


 566              	.LFE70:
 567              		.size	_test_assert_sequence, .-_test_assert_sequence
 568 0054 AFF30080 		.section	.text._test_assert_time_window,"ax",%progbits
 568      AFF30080 
 568      AFF30080 
 569              		.align	2
 570              		.p2align 4,,15
 571              		.global	_test_assert_time_window
 572              		.thumb
 573              		.thumb_func
 574              		.type	_test_assert_time_window, %function
 575              	_test_assert_time_window:
 576              	.LFB71:
 577              		.loc 1 196 0
 578              		.cfi_startproc
 579              		@ args = 0, pretend = 0, frame = 0
 580              		@ frame_needed = 0, uses_anonymous_args = 0
 581              	.LVL41:
 582 0000 10B5     		push	{r4, lr}
 583              	.LCFI7:
 584              		.cfi_def_cfa_offset 8
 585              		.cfi_offset 4, -8
 586              		.cfi_offset 14, -4
 587              		.loc 1 196 0
 588 0002 0446     		mov	r4, r0
 589              		.loc 1 198 0
 590 0004 0846     		mov	r0, r1
 591              	.LVL42:
 592 0006 1146     		mov	r1, r2
 593              	.LVL43:
 594 0008 FFF7FEFF 		bl	chTimeIsWithin
 595              	.LVL44:
 596              	.LBB67:
 597              	.LBB68:
 598              		.loc 1 179 0
 599 000c 40B9     		cbnz	r0, .L53
 600              	.LVL45:
 601              	.LBB69:
 602              	.LBB70:
 603              		.loc 1 171 0
 604 000e 054A     		ldr	r2, .L54
 605 0010 0123     		movs	r3, #1
 606 0012 1360     		str	r3, [r2, #0]
 607              		.loc 1 172 0
 608 0014 044A     		ldr	r2, .L54+4
 609              		.loc 1 180 0
 610 0016 1846     		mov	r0, r3
 611              	.LVL46:
 612              		.loc 1 172 0
 613 0018 1360     		str	r3, [r2, #0]
 614              		.loc 1 173 0
 615 001a 044A     		ldr	r2, .L54+8
 616 001c 1460     		str	r4, [r2, #0]
 617 001e 10BD     		pop	{r4, pc}
 618              	.LVL47:
 619              	.L53:
 620              	.LBE70:
ARM GAS  /var/folders/dt/0wfd0knj7gs46m8vwfzktm600000gn/T//ccKn2zKA.s 			page 12


 621              	.LBE69:
 622              		.loc 1 181 0
 623 0020 0020     		movs	r0, #0
 624              	.LVL48:
 625              	.LBE68:
 626              	.LBE67:
 627              		.loc 1 199 0
 628 0022 10BD     		pop	{r4, pc}
 629              	.L55:
 630              		.align	2
 631              	.L54:
 632 0024 00000000 		.word	.LANCHOR3
 633 0028 00000000 		.word	.LANCHOR4
 634 002c 00000000 		.word	.LANCHOR5
 635              		.cfi_endproc
 636              	.LFE71:
 637              		.size	_test_assert_time_window, .-_test_assert_time_window
 638              		.section	.text.test_terminate_threads,"ax",%progbits
 639              		.align	2
 640              		.p2align 4,,15
 641              		.global	test_terminate_threads
 642              		.thumb
 643              		.thumb_func
 644              		.type	test_terminate_threads, %function
 645              	test_terminate_threads:
 646              	.LFB72:
 647              		.loc 1 208 0
 648              		.cfi_startproc
 649              		@ args = 0, pretend = 0, frame = 0
 650              		@ frame_needed = 0, uses_anonymous_args = 0
 651              	.LVL49:
 652 0000 38B5     		push	{r3, r4, r5, lr}
 653              	.LCFI8:
 654              		.cfi_def_cfa_offset 16
 655              		.cfi_offset 3, -16
 656              		.cfi_offset 4, -12
 657              		.cfi_offset 5, -8
 658              		.cfi_offset 14, -4
 659              		.loc 1 208 0
 660 0002 064C     		ldr	r4, .L63
 661 0004 04F11405 		add	r5, r4, #20
 662              	.LVL50:
 663              	.L58:
 664              		.loc 1 212 0
 665 0008 54F8043F 		ldr	r3, [r4, #4]!
 666              		.loc 1 213 0
 667 000c 1846     		mov	r0, r3
 668              		.loc 1 212 0
 669 000e 0BB1     		cbz	r3, .L57
 670              		.loc 1 213 0
 671 0010 FFF7FEFF 		bl	chThdTerminate
 672              	.LVL51:
 673              	.L57:
 674              		.loc 1 211 0
 675 0014 AC42     		cmp	r4, r5
 676 0016 F7D1     		bne	.L58
 677              		.loc 1 214 0
ARM GAS  /var/folders/dt/0wfd0knj7gs46m8vwfzktm600000gn/T//ccKn2zKA.s 			page 13


 678 0018 38BD     		pop	{r3, r4, r5, pc}
 679              	.L64:
 680 001a 00BF     		.align	2
 681              	.L63:
 682 001c FCFFFFFF 		.word	.LANCHOR7-4
 683              		.cfi_endproc
 684              	.LFE72:
 685              		.size	test_terminate_threads, .-test_terminate_threads
 686              		.section	.text.test_wait_threads,"ax",%progbits
 687              		.align	2
 688              		.p2align 4,,15
 689              		.global	test_wait_threads
 690              		.thumb
 691              		.thumb_func
 692              		.type	test_wait_threads, %function
 693              	test_wait_threads:
 694              	.LFB73:
 695              		.loc 1 219 0
 696              		.cfi_startproc
 697              		@ args = 0, pretend = 0, frame = 0
 698              		@ frame_needed = 0, uses_anonymous_args = 0
 699              	.LVL52:
 700 0000 70B5     		push	{r4, r5, r6, lr}
 701              	.LCFI9:
 702              		.cfi_def_cfa_offset 16
 703              		.cfi_offset 4, -16
 704              		.cfi_offset 5, -12
 705              		.cfi_offset 6, -8
 706              		.cfi_offset 14, -4
 707 0002 074C     		ldr	r4, .L72
 708              		.loc 1 225 0
 709 0004 0026     		movs	r6, #0
 710              		.loc 1 219 0
 711 0006 04F11405 		add	r5, r4, #20
 712              	.LVL53:
 713              	.L67:
 714              		.loc 1 223 0
 715 000a 54F8043B 		ldr	r3, [r4], #4
 716              		.loc 1 224 0
 717 000e 1846     		mov	r0, r3
 718              		.loc 1 223 0
 719 0010 1BB1     		cbz	r3, .L66
 720              		.loc 1 224 0
 721 0012 FFF7FEFF 		bl	chThdWait
 722              	.LVL54:
 723              		.loc 1 225 0
 724 0016 44F8046C 		str	r6, [r4, #-4]
 725              	.L66:
 726              		.loc 1 222 0
 727 001a AC42     		cmp	r4, r5
 728 001c F5D1     		bne	.L67
 729              		.loc 1 227 0
 730 001e 70BD     		pop	{r4, r5, r6, pc}
 731              	.L73:
 732              		.align	2
 733              	.L72:
 734 0020 00000000 		.word	.LANCHOR7
ARM GAS  /var/folders/dt/0wfd0knj7gs46m8vwfzktm600000gn/T//ccKn2zKA.s 			page 14


 735              		.cfi_endproc
 736              	.LFE73:
 737              		.size	test_wait_threads, .-test_wait_threads
 738 0024 AFF30080 		.section	.text.test_cpu_pulse,"ax",%progbits
 738      AFF30080 
 738      AFF30080 
 739              		.align	2
 740              		.p2align 4,,15
 741              		.global	test_cpu_pulse
 742              		.thumb
 743              		.thumb_func
 744              		.type	test_cpu_pulse, %function
 745              	test_cpu_pulse:
 746              	.LFB74:
 747              		.loc 1 236 0
 748              		.cfi_startproc
 749              		@ args = 0, pretend = 0, frame = 0
 750              		@ frame_needed = 0, uses_anonymous_args = 0
 751              		@ link register save eliminated.
 752              	.LVL55:
 753              		.loc 1 240 0
 754 0000 4FF47A73 		mov	r3, #1000
 755 0004 03FB00F0 		mul	r0, r3, r0
 756              	.LVL56:
 757              		.loc 1 239 0
 758 0008 134A     		ldr	r2, .L80
 759              		.loc 1 240 0
 760 000a 44F6D353 		movw	r3, #19923
 761 000e A0F57A71 		sub	r1, r0, #1000
 762              		.loc 1 236 0
 763 0012 10B4     		push	{r4}
 764              	.LCFI10:
 765              		.cfi_def_cfa_offset 4
 766              		.cfi_offset 4, -4
 767              		.loc 1 240 0
 768 0014 C1F26203 		movt	r3, 4194
 769              		.loc 1 239 0
 770 0018 D469     		ldr	r4, [r2, #28]
 771              		.loc 1 240 0
 772 001a A3FB0123 		umull	r2, r3, r3, r1
 773              		.loc 1 239 0
 774 001e 226A     		ldr	r2, [r4, #32]
 775              	.LVL57:
 776              		.loc 1 240 0
 777 0020 501C     		adds	r0, r2, #1
 778 0022 00EB9311 		add	r1, r0, r3, lsr #6
 779              	.LVL58:
 780              	.L77:
 781              		.loc 1 247 0
 782 0026 8A42     		cmp	r2, r1
 783              		.loc 1 242 0
 784 0028 236A     		ldr	r3, [r4, #32]
 785              	.LVL59:
 786              		.loc 1 247 0
 787 002a 0AD2     		bcs	.L75
 788              		.loc 1 247 0 is_stmt 0 discriminator 1
 789 002c 8B42     		cmp	r3, r1
ARM GAS  /var/folders/dt/0wfd0knj7gs46m8vwfzktm600000gn/T//ccKn2zKA.s 			page 15


 790 002e 2CBF     		ite	cs
 791 0030 0020     		movcs	r0, #0
 792 0032 0120     		movcc	r0, #1
 793 0034 9342     		cmp	r3, r2
 794 0036 38BF     		it	cc
 795 0038 0020     		movcc	r0, #0
 796              		.loc 1 248 0 is_stmt 1 discriminator 1
 797 003a 0028     		cmp	r0, #0
 798 003c F3D1     		bne	.L77
 799              	.L79:
 800              		.loc 1 249 0
 801 003e 10BC     		pop	{r4}
 802 0040 7047     		bx	lr
 803              	.L75:
 804              		.loc 1 248 0 discriminator 2
 805 0042 9342     		cmp	r3, r2
 806 0044 34BF     		ite	cc
 807 0046 0020     		movcc	r0, #0
 808 0048 0120     		movcs	r0, #1
 809 004a 8B42     		cmp	r3, r1
 810 004c 38BF     		it	cc
 811 004e 40F00100 		orrcc	r0, r0, #1
 812 0052 0028     		cmp	r0, #0
 813 0054 E7D1     		bne	.L77
 814 0056 F2E7     		b	.L79
 815              	.L81:
 816              		.align	2
 817              	.L80:
 818 0058 00000000 		.word	rlist
 819              		.cfi_endproc
 820              	.LFE74:
 821              		.size	test_cpu_pulse, .-test_cpu_pulse
 822 005c AFF30080 		.section	.text.test_wait_tick,"ax",%progbits
 823              		.align	2
 824              		.p2align 4,,15
 825              		.global	test_wait_tick
 826              		.thumb
 827              		.thumb_func
 828              		.type	test_wait_tick, %function
 829              	test_wait_tick:
 830              	.LFB75:
 831              		.loc 1 257 0
 832              		.cfi_startproc
 833              		@ args = 0, pretend = 0, frame = 0
 834              		@ frame_needed = 0, uses_anonymous_args = 0
 835 0000 08B5     		push	{r3, lr}
 836              	.LCFI11:
 837              		.cfi_def_cfa_offset 8
 838              		.cfi_offset 3, -8
 839              		.cfi_offset 14, -4
 840              		.loc 1 259 0
 841 0002 0120     		movs	r0, #1
 842 0004 FFF7FEFF 		bl	chThdSleep
 843              	.LVL60:
 844              		.loc 1 260 0
 845 0008 40F20003 		movw	r3, #:lower16:vtlist
 846 000c C0F20003 		movt	r3, #:upper16:vtlist
ARM GAS  /var/folders/dt/0wfd0knj7gs46m8vwfzktm600000gn/T//ccKn2zKA.s 			page 16


 847 0010 D868     		ldr	r0, [r3, #12]
 848              		.loc 1 261 0
 849 0012 08BD     		pop	{r3, pc}
 850              		.cfi_endproc
 851              	.LFE75:
 852              		.size	test_wait_tick, .-test_wait_tick
 853 0014 AFF30080 		.section	.text.test_start_timer,"ax",%progbits
 853      AFF30080 
 853      AFF30080 
 854              		.align	2
 855              		.p2align 4,,15
 856              		.global	test_start_timer
 857              		.thumb
 858              		.thumb_func
 859              		.type	test_start_timer, %function
 860              	test_start_timer:
 861              	.LFB77:
 862              		.loc 1 284 0
 863              		.cfi_startproc
 864              		@ args = 0, pretend = 0, frame = 0
 865              		@ frame_needed = 0, uses_anonymous_args = 0
 866              	.LVL61:
 867              		.loc 1 287 0
 868 0000 40F20003 		movw	r3, #:lower16:.LANCHOR0
 869              		.loc 1 284 0
 870 0004 10B5     		push	{r4, lr}
 871              	.LCFI12:
 872              		.cfi_def_cfa_offset 8
 873              		.cfi_offset 4, -8
 874              		.cfi_offset 14, -4
 875              		.loc 1 287 0
 876 0006 C0F20003 		movt	r3, #:upper16:.LANCHOR0
 877 000a 0024     		movs	r4, #0
 878 000c 1C60     		str	r4, [r3, #0]
 879              	.LVL62:
 880              	.LBB71:
 881              		.loc 1 288 0
 882 000e 2023     		movs	r3, #32
 883              	.LVL63:
 884              	@ 288 "../../test/test.c" 1
 885 0010 83F31188 		msr     BASEPRI, r3
 886              	@ 0 "" 2
 887              	.LVL64:
 888              		.thumb
 889              	.LBE71:
 890              		.loc 1 286 0
 891 0014 4FF47A73 		mov	r3, #1000
 892              	.LVL65:
 893 0018 03FB00F0 		mul	r0, r3, r0
 894              	.LVL66:
 895 001c 44F6D353 		movw	r3, #19923
 896 0020 A0F57A70 		sub	r0, r0, #1000
 897 0024 C1F26203 		movt	r3, 4194
 898 0028 A3FB0023 		umull	r2, r3, r3, r0
 899              		.loc 1 289 0
 900 002c 40F20000 		movw	r0, #:lower16:.LANCHOR8
 901              		.loc 1 286 0
ARM GAS  /var/folders/dt/0wfd0knj7gs46m8vwfzktm600000gn/T//ccKn2zKA.s 			page 17


 902 0030 9909     		lsrs	r1, r3, #6
 903              		.loc 1 289 0
 904 0032 40F20002 		movw	r2, #:lower16:tmr
 905 0036 2346     		mov	r3, r4
 906 0038 C0F20000 		movt	r0, #:upper16:.LANCHOR8
 907 003c 0131     		adds	r1, r1, #1
 908 003e C0F20002 		movt	r2, #:upper16:tmr
 909 0042 FFF7FEFF 		bl	chVTSetI
 910              	.LVL67:
 911              	.LBB72:
 912              		.loc 1 290 0
 913 0046 2346     		mov	r3, r4
 914              	.LVL68:
 915              	@ 290 "../../test/test.c" 1
 916 0048 83F31188 		msr     BASEPRI, r3
 917              	@ 0 "" 2
 918              	.LVL69:
 919              		.thumb
 920 004c 10BD     		pop	{r4, pc}
 921              	.LBE72:
 922              		.cfi_endproc
 923              	.LFE77:
 924              		.size	test_start_timer, .-test_start_timer
 925 004e 00BF     		.section	.text.TestThread,"ax",%progbits
 926              		.align	2
 927              		.p2align 4,,15
 928              		.global	TestThread
 929              		.thumb
 930              		.thumb_func
 931              		.type	TestThread, %function
 932              	TestThread:
 933              	.LFB80:
 934              		.loc 1 329 0
 935              		.cfi_startproc
 936              		@ args = 0, pretend = 0, frame = 8
 937              		@ frame_needed = 0, uses_anonymous_args = 0
 938              	.LVL70:
 939 0000 2DE9F04F 		push	{r4, r5, r6, r7, r8, r9, sl, fp, lr}
 940              	.LCFI13:
 941              		.cfi_def_cfa_offset 36
 942              		.cfi_offset 4, -36
 943              		.cfi_offset 5, -32
 944              		.cfi_offset 6, -28
 945              		.cfi_offset 7, -24
 946              		.cfi_offset 8, -20
 947              		.cfi_offset 9, -16
 948              		.cfi_offset 10, -12
 949              		.cfi_offset 11, -8
 950              		.cfi_offset 14, -4
 951              		.loc 1 332 0
 952 0004 9F4C     		ldr	r4, .L157
 953              		.loc 1 329 0
 954 0006 83B0     		sub	sp, sp, #12
 955              	.LCFI14:
 956              		.cfi_def_cfa_offset 48
 957              		.loc 1 332 0
 958 0008 2060     		str	r0, [r4, #0]
ARM GAS  /var/folders/dt/0wfd0knj7gs46m8vwfzktm600000gn/T//ccKn2zKA.s 			page 18


 959              		.loc 1 333 0
 960 000a 9F48     		ldr	r0, .L157+4
 961              	.LVL71:
 962 000c FFF7FEFF 		bl	test_println
 963              	.LVL72:
 964              		.loc 1 334 0
 965 0010 9E48     		ldr	r0, .L157+8
 966 0012 FFF7FEFF 		bl	test_println
 967              	.LVL73:
 968 0016 9E4D     		ldr	r5, .L157+12
 969              		.loc 1 335 0
 970 0018 9E48     		ldr	r0, .L157+16
 971 001a FFF7FEFF 		bl	test_println
 972              	.LVL74:
 973              		.loc 1 123 0
 974 001e 2A21     		movs	r1, #42
 975              	.LVL75:
 976              	.L85:
 977              	.LBB109:
 978              	.LBB110:
 979              		.loc 1 124 0
 980 0020 2068     		ldr	r0, [r4, #0]
 981 0022 4FF0FF32 		mov	r2, #-1
 982 0026 0368     		ldr	r3, [r0, #0]
 983 0028 1B69     		ldr	r3, [r3, #16]
 984 002a 9847     		blx	r3
 985              	.LVL76:
 986              		.loc 1 123 0
 987 002c 15F8011F 		ldrb	r1, [r5, #1]!	@ zero_extendqisi2
 988 0030 0029     		cmp	r1, #0
 989 0032 F5D1     		bne	.L85
 990              	.LBE110:
 991              	.LBE109:
 992              		.loc 1 337 0
 993 0034 9848     		ldr	r0, .L157+20
 994 0036 994D     		ldr	r5, .L157+24
 995 0038 FFF7FEFF 		bl	test_println
 996              	.LVL77:
 997              		.loc 1 123 0
 998 003c 2A21     		movs	r1, #42
 999              	.LVL78:
 1000              	.L87:
 1001              	.LBB111:
 1002              	.LBB112:
 1003              		.loc 1 124 0
 1004 003e 2068     		ldr	r0, [r4, #0]
 1005 0040 4FF0FF32 		mov	r2, #-1
 1006 0044 0368     		ldr	r3, [r0, #0]
 1007 0046 1B69     		ldr	r3, [r3, #16]
 1008 0048 9847     		blx	r3
 1009              	.LVL79:
 1010              		.loc 1 123 0
 1011 004a 15F8011F 		ldrb	r1, [r5, #1]!	@ zero_extendqisi2
 1012 004e 0029     		cmp	r1, #0
 1013 0050 F5D1     		bne	.L87
 1014              	.LBE112:
 1015              	.LBE111:
ARM GAS  /var/folders/dt/0wfd0knj7gs46m8vwfzktm600000gn/T//ccKn2zKA.s 			page 19


 1016              		.loc 1 339 0
 1017 0052 9348     		ldr	r0, .L157+28
 1018 0054 934D     		ldr	r5, .L157+32
 1019 0056 FFF7FEFF 		bl	test_println
 1020              	.LVL80:
 1021              		.loc 1 123 0
 1022 005a 2A21     		movs	r1, #42
 1023              	.LVL81:
 1024              	.L89:
 1025              	.LBB113:
 1026              	.LBB114:
 1027              		.loc 1 124 0
 1028 005c 2068     		ldr	r0, [r4, #0]
 1029 005e 4FF0FF32 		mov	r2, #-1
 1030 0062 0368     		ldr	r3, [r0, #0]
 1031 0064 1B69     		ldr	r3, [r3, #16]
 1032 0066 9847     		blx	r3
 1033              	.LVL82:
 1034              		.loc 1 123 0
 1035 0068 15F8011F 		ldrb	r1, [r5, #1]!	@ zero_extendqisi2
 1036 006c 0029     		cmp	r1, #0
 1037 006e F5D1     		bne	.L89
 1038              	.LBE114:
 1039              	.LBE113:
 1040              		.loc 1 342 0
 1041 0070 8D48     		ldr	r0, .L157+36
 1042 0072 8E4D     		ldr	r5, .L157+40
 1043 0074 FFF7FEFF 		bl	test_println
 1044              	.LVL83:
 1045              		.loc 1 123 0
 1046 0078 2A21     		movs	r1, #42
 1047              	.LVL84:
 1048              	.L91:
 1049              	.LBB115:
 1050              	.LBB116:
 1051              		.loc 1 124 0
 1052 007a 2068     		ldr	r0, [r4, #0]
 1053 007c 4FF0FF32 		mov	r2, #-1
 1054 0080 0368     		ldr	r3, [r0, #0]
 1055 0082 1B69     		ldr	r3, [r3, #16]
 1056 0084 9847     		blx	r3
 1057              	.LVL85:
 1058              		.loc 1 123 0
 1059 0086 15F8011F 		ldrb	r1, [r5, #1]!	@ zero_extendqisi2
 1060 008a 0029     		cmp	r1, #0
 1061 008c F5D1     		bne	.L91
 1062              	.LBE116:
 1063              	.LBE115:
 1064              		.loc 1 345 0
 1065 008e 8848     		ldr	r0, .L157+44
 1066 0090 884D     		ldr	r5, .L157+48
 1067 0092 FFF7FEFF 		bl	test_println
 1068              	.LVL86:
 1069              		.loc 1 123 0
 1070 0096 2A21     		movs	r1, #42
 1071              	.LVL87:
 1072              	.L93:
ARM GAS  /var/folders/dt/0wfd0knj7gs46m8vwfzktm600000gn/T//ccKn2zKA.s 			page 20


 1073              	.LBB117:
 1074              	.LBB118:
 1075              		.loc 1 124 0
 1076 0098 2068     		ldr	r0, [r4, #0]
 1077 009a 4FF0FF32 		mov	r2, #-1
 1078 009e 0368     		ldr	r3, [r0, #0]
 1079 00a0 1B69     		ldr	r3, [r3, #16]
 1080 00a2 9847     		blx	r3
 1081              	.LVL88:
 1082              		.loc 1 123 0
 1083 00a4 15F8011F 		ldrb	r1, [r5, #1]!	@ zero_extendqisi2
 1084 00a8 0029     		cmp	r1, #0
 1085 00aa F5D1     		bne	.L93
 1086              	.LBE118:
 1087              	.LBE117:
 1088              		.loc 1 348 0
 1089 00ac 8248     		ldr	r0, .L157+52
 1090 00ae 834D     		ldr	r5, .L157+56
 1091 00b0 FFF7FEFF 		bl	test_println
 1092              	.LVL89:
 1093              		.loc 1 123 0
 1094 00b4 2A21     		movs	r1, #42
 1095              	.LVL90:
 1096              	.L95:
 1097              	.LBB119:
 1098              	.LBB120:
 1099              		.loc 1 124 0
 1100 00b6 2068     		ldr	r0, [r4, #0]
 1101 00b8 4FF0FF32 		mov	r2, #-1
 1102 00bc 0368     		ldr	r3, [r0, #0]
 1103 00be 1B69     		ldr	r3, [r3, #16]
 1104 00c0 9847     		blx	r3
 1105              	.LVL91:
 1106              		.loc 1 123 0
 1107 00c2 15F8011F 		ldrb	r1, [r5, #1]!	@ zero_extendqisi2
 1108 00c6 0029     		cmp	r1, #0
 1109 00c8 F5D1     		bne	.L95
 1110              	.LBE120:
 1111              	.LBE119:
 1112              		.loc 1 352 0
 1113 00ca 7D48     		ldr	r0, .L157+60
 1114 00cc 7D4D     		ldr	r5, .L157+64
 1115 00ce FFF7FEFF 		bl	test_println
 1116              	.LVL92:
 1117              		.loc 1 123 0
 1118 00d2 2A21     		movs	r1, #42
 1119              	.LVL93:
 1120              	.L97:
 1121              	.LBB121:
 1122              	.LBB122:
 1123              		.loc 1 124 0
 1124 00d4 2068     		ldr	r0, [r4, #0]
 1125 00d6 4FF0FF32 		mov	r2, #-1
 1126 00da 0368     		ldr	r3, [r0, #0]
 1127 00dc 1B69     		ldr	r3, [r3, #16]
 1128 00de 9847     		blx	r3
 1129              	.LVL94:
ARM GAS  /var/folders/dt/0wfd0knj7gs46m8vwfzktm600000gn/T//ccKn2zKA.s 			page 21


 1130              		.loc 1 123 0
 1131 00e0 15F8011F 		ldrb	r1, [r5, #1]!	@ zero_extendqisi2
 1132 00e4 0029     		cmp	r1, #0
 1133 00e6 F5D1     		bne	.L97
 1134              	.LBE122:
 1135              	.LBE121:
 1136              		.loc 1 356 0
 1137 00e8 7748     		ldr	r0, .L157+68
 1138 00ea 784D     		ldr	r5, .L157+72
 1139 00ec FFF7FEFF 		bl	test_println
 1140              	.LVL95:
 1141              		.loc 1 123 0
 1142 00f0 2A21     		movs	r1, #42
 1143              	.LVL96:
 1144              	.L99:
 1145              	.LBB123:
 1146              	.LBB124:
 1147              		.loc 1 124 0
 1148 00f2 2068     		ldr	r0, [r4, #0]
 1149 00f4 4FF0FF32 		mov	r2, #-1
 1150 00f8 0368     		ldr	r3, [r0, #0]
 1151 00fa 1B69     		ldr	r3, [r3, #16]
 1152 00fc 9847     		blx	r3
 1153              	.LVL97:
 1154              		.loc 1 123 0
 1155 00fe 15F8011F 		ldrb	r1, [r5, #1]!	@ zero_extendqisi2
 1156 0102 0029     		cmp	r1, #0
 1157 0104 F5D1     		bne	.L99
 1158              	.LBE124:
 1159              	.LBE123:
 1160              		.loc 1 360 0
 1161 0106 7248     		ldr	r0, .L157+76
 1162 0108 0091     		str	r1, [sp, #0]
 1163 010a FFF7FEFF 		bl	test_println
 1164              	.LVL98:
 1165              		.loc 1 362 0
 1166 010e 5E48     		ldr	r0, .L157+4
 1167 0110 FFF7FEFF 		bl	test_println
 1168              	.LVL99:
 1169              		.loc 1 364 0
 1170 0114 0099     		ldr	r1, [sp, #0]
 1171 0116 6F4B     		ldr	r3, .L157+80
 1172 0118 40F20002 		movw	r2, #:lower16:.LANCHOR4
 1173 011c C0F20002 		movt	r2, #:upper16:.LANCHOR4
 1174 0120 6D4F     		ldr	r7, .L157+84
 1175              	.LBB125:
 1176              	.LBB126:
 1177              	.LBB127:
 1178              	.LBB128:
 1179              		.loc 1 144 0
 1180 0122 6E4E     		ldr	r6, .L157+88
 1181 0124 DFF8E491 		ldr	r9, .L157+136
 1182 0128 0193     		str	r3, [sp, #4]
 1183              	.LBE128:
 1184              	.LBE127:
 1185              	.LBE126:
 1186              	.LBE125:
ARM GAS  /var/folders/dt/0wfd0knj7gs46m8vwfzktm600000gn/T//ccKn2zKA.s 			page 22


 1187              		.loc 1 364 0
 1188 012a 1160     		str	r1, [r2, #0]
 1189              	.LVL100:
 1190              		.loc 1 365 0
 1191 012c 8A46     		mov	sl, r1
 1192              	.LVL101:
 1193              	.L124:
 1194 012e 0AF1010A 		add	sl, sl, #1
 1195              		.loc 1 123 0 discriminator 1
 1196 0132 4FF00008 		mov	r8, #0
 1197              	.L153:
 1198              	.LVL102:
 1199              		.loc 1 368 0 discriminator 1
 1200 0136 57F8043B 		ldr	r3, [r7], #4
 1201 013a 002B     		cmp	r3, #0
 1202 013c 00F09380 		beq	.L155
 1203              	.L118:
 1204 0140 674D     		ldr	r5, .L157+92
 1205              		.loc 1 369 0
 1206 0142 FFF7FEFF 		bl	print_line
 1207              	.LVL103:
 1208              		.loc 1 123 0
 1209 0146 2D21     		movs	r1, #45
 1210              	.LVL104:
 1211              	.L101:
 1212              	.LBB133:
 1213              	.LBB134:
 1214              		.loc 1 124 0
 1215 0148 2068     		ldr	r0, [r4, #0]
 1216 014a 4FF0FF32 		mov	r2, #-1
 1217 014e 0368     		ldr	r3, [r0, #0]
 1218 0150 1B69     		ldr	r3, [r3, #16]
 1219 0152 9847     		blx	r3
 1220              	.LVL105:
 1221              		.loc 1 123 0
 1222 0154 15F8011F 		ldrb	r1, [r5, #1]!	@ zero_extendqisi2
 1223 0158 0029     		cmp	r1, #0
 1224 015a F5D1     		bne	.L101
 1225              	.LBE134:
 1226              	.LBE133:
 1227              		.loc 1 371 0
 1228 015c 5046     		mov	r0, sl
 1229 015e FFF7FEFF 		bl	test_printn
 1230              	.LVL106:
 1231              	.LBB135:
 1232              	.LBB136:
 1233              		.loc 1 124 0
 1234 0162 484B     		ldr	r3, .L157
 1235 0164 2E21     		movs	r1, #46
 1236 0166 1868     		ldr	r0, [r3, #0]
 1237              	.LVL107:
 1238 0168 4FF0FF32 		mov	r2, #-1
 1239 016c 0368     		ldr	r3, [r0, #0]
 1240              	.LBE136:
 1241              	.LBE135:
 1242              		.loc 1 373 0
 1243 016e 08F10108 		add	r8, r8, #1
ARM GAS  /var/folders/dt/0wfd0knj7gs46m8vwfzktm600000gn/T//ccKn2zKA.s 			page 23


 1244              	.LVL108:
 1245              	.LBB138:
 1246              	.LBB137:
 1247              		.loc 1 124 0
 1248 0172 1B69     		ldr	r3, [r3, #16]
 1249 0174 9847     		blx	r3
 1250              	.LVL109:
 1251 0176 5B4D     		ldr	r5, .L157+96
 1252              	.LBE137:
 1253              	.LBE138:
 1254              		.loc 1 373 0
 1255 0178 4046     		mov	r0, r8
 1256 017a FFF7FEFF 		bl	test_printn
 1257              	.LVL110:
 1258              		.loc 1 123 0
 1259 017e 2021     		movs	r1, #32
 1260              	.LVL111:
 1261              	.L103:
 1262              	.LBB139:
 1263              	.LBB140:
 1264              		.loc 1 124 0
 1265 0180 2068     		ldr	r0, [r4, #0]
 1266 0182 4FF0FF32 		mov	r2, #-1
 1267 0186 0368     		ldr	r3, [r0, #0]
 1268 0188 1B69     		ldr	r3, [r3, #16]
 1269 018a 9847     		blx	r3
 1270              	.LVL112:
 1271              		.loc 1 123 0
 1272 018c 15F8011F 		ldrb	r1, [r5, #1]!	@ zero_extendqisi2
 1273 0190 0029     		cmp	r1, #0
 1274 0192 F5D1     		bne	.L103
 1275              	.LBE140:
 1276              	.LBE139:
 1277              		.loc 1 375 0
 1278 0194 57F8043C 		ldr	r3, [r7, #-4]
 1279 0198 1D68     		ldr	r5, [r3, #0]
 1280              	.LVL113:
 1281              	.LBB141:
 1282              	.LBB142:
 1283              		.loc 1 123 0
 1284 019a 2978     		ldrb	r1, [r5, #0]	@ zero_extendqisi2
 1285 019c 49B1     		cbz	r1, .L108
 1286              	.LVL114:
 1287              	.L107:
 1288              		.loc 1 124 0
 1289 019e 2068     		ldr	r0, [r4, #0]
 1290 01a0 4FF0FF32 		mov	r2, #-1
 1291 01a4 0368     		ldr	r3, [r0, #0]
 1292 01a6 1B69     		ldr	r3, [r3, #16]
 1293 01a8 9847     		blx	r3
 1294              	.LVL115:
 1295              		.loc 1 123 0
 1296 01aa 15F8011F 		ldrb	r1, [r5, #1]!	@ zero_extendqisi2
 1297 01ae 0029     		cmp	r1, #0
 1298 01b0 F5D1     		bne	.L107
 1299              	.L108:
 1300              	.LBE142:
ARM GAS  /var/folders/dt/0wfd0knj7gs46m8vwfzktm600000gn/T//ccKn2zKA.s 			page 24


 1301              	.LBE141:
 1302              		.loc 1 376 0
 1303 01b2 4D48     		ldr	r0, .L157+100
 1304 01b4 FFF7FEFF 		bl	test_println
 1305              	.LVL116:
 1306              		.loc 1 378 0
 1307 01b8 C820     		movs	r0, #200
 1308 01ba FFF7FEFF 		bl	chThdSleep
 1309              	.LVL117:
 1310              	.LBB143:
 1311              	.LBB131:
 1312              		.loc 1 303 0
 1313 01be 4B4A     		ldr	r2, .L157+104
 1314              	.LBE131:
 1315              	.LBE143:
 1316              		.loc 1 380 0
 1317 01c0 57F804BC 		ldr	fp, [r7, #-4]
 1318              	.LVL118:
 1319              	.LBB144:
 1320              	.LBB132:
 1321              		.loc 1 301 0
 1322 01c4 0023     		movs	r3, #0
 1323              		.loc 1 303 0
 1324 01c6 1360     		str	r3, [r2, #0]
 1325 01c8 5360     		str	r3, [r2, #4]
 1326 01ca 9360     		str	r3, [r2, #8]
 1327 01cc D360     		str	r3, [r2, #12]
 1328 01ce 1361     		str	r3, [r2, #16]
 1329              		.loc 1 301 0
 1330 01d0 474D     		ldr	r5, .L157+108
 1331              		.loc 1 305 0
 1332 01d2 DBF80420 		ldr	r2, [fp, #4]
 1333              	.LBB130:
 1334              	.LBB129:
 1335              		.loc 1 144 0
 1336 01d6 C6F80090 		str	r9, [r6, #0]
 1337              	.LBE129:
 1338              	.LBE130:
 1339              		.loc 1 301 0
 1340 01da 2B60     		str	r3, [r5, #0]
 1341              	.LVL119:
 1342              		.loc 1 305 0
 1343 01dc 02B1     		cbz	r2, .L106
 1344              		.loc 1 306 0
 1345 01de 9047     		blx	r2
 1346              	.LVL120:
 1347              	.L106:
 1348              		.loc 1 307 0
 1349 01e0 DBF80C30 		ldr	r3, [fp, #12]
 1350 01e4 9847     		blx	r3
 1351              	.LVL121:
 1352              		.loc 1 308 0
 1353 01e6 DBF80830 		ldr	r3, [fp, #8]
 1354 01ea 03B1     		cbz	r3, .L109
 1355              		.loc 1 309 0
 1356 01ec 9847     		blx	r3
 1357              	.LVL122:
ARM GAS  /var/folders/dt/0wfd0knj7gs46m8vwfzktm600000gn/T//ccKn2zKA.s 			page 25


 1358              	.L109:
 1359              		.loc 1 311 0
 1360 01ee FFF7FEFF 		bl	test_wait_threads
 1361              	.LVL123:
 1362              	.LBE132:
 1363              	.LBE144:
 1364              		.loc 1 381 0
 1365 01f2 2B68     		ldr	r3, [r5, #0]
 1366 01f4 002B     		cmp	r3, #0
 1367 01f6 00F0A680 		beq	.L110
 1368 01fa 3E4D     		ldr	r5, .L157+112
 1369              		.loc 1 123 0
 1370 01fc 2D21     		movs	r1, #45
 1371              	.L111:
 1372              	.LBB145:
 1373              	.LBB146:
 1374              		.loc 1 124 0
 1375 01fe 2068     		ldr	r0, [r4, #0]
 1376              	.LVL124:
 1377 0200 4FF0FF32 		mov	r2, #-1
 1378 0204 0368     		ldr	r3, [r0, #0]
 1379 0206 1B69     		ldr	r3, [r3, #16]
 1380 0208 9847     		blx	r3
 1381              	.LVL125:
 1382              		.loc 1 123 0
 1383 020a 15F8011F 		ldrb	r1, [r5, #1]!	@ zero_extendqisi2
 1384 020e 0029     		cmp	r1, #0
 1385 0210 F5D1     		bne	.L111
 1386              	.LBE146:
 1387              	.LBE145:
 1388              		.loc 1 383 0
 1389 0212 394B     		ldr	r3, .L157+116
 1390 0214 394D     		ldr	r5, .L157+120
 1391 0216 1868     		ldr	r0, [r3, #0]
 1392 0218 FFF7FEFF 		bl	test_printn
 1393              	.LVL126:
 1394              		.loc 1 123 0
 1395 021c 2021     		movs	r1, #32
 1396              	.LVL127:
 1397              	.L113:
 1398              	.LBB147:
 1399              	.LBB148:
 1400              		.loc 1 124 0
 1401 021e 2068     		ldr	r0, [r4, #0]
 1402 0220 4FF0FF32 		mov	r2, #-1
 1403 0224 0368     		ldr	r3, [r0, #0]
 1404 0226 1B69     		ldr	r3, [r3, #16]
 1405 0228 9847     		blx	r3
 1406              	.LVL128:
 1407              		.loc 1 123 0
 1408 022a 15F8011F 		ldrb	r1, [r5, #1]!	@ zero_extendqisi2
 1409 022e 0029     		cmp	r1, #0
 1410 0230 F5D1     		bne	.L113
 1411              	.LVL129:
 1412              	.LBE148:
 1413              	.LBE147:
 1414              	.LBB149:
ARM GAS  /var/folders/dt/0wfd0knj7gs46m8vwfzktm600000gn/T//ccKn2zKA.s 			page 26


 1415              	.LBB150:
 1416              		.loc 1 150 0
 1417 0232 3368     		ldr	r3, [r6, #0]
 1418 0234 4B45     		cmp	r3, r9
 1419              	.LBE150:
 1420              	.LBE149:
 1421              		.loc 1 329 0
 1422 0236 88BF     		it	hi
 1423 0238 314D     		ldrhi	r5, .L157+124
 1424              	.LBB152:
 1425              	.LBB151:
 1426              		.loc 1 150 0
 1427 023a 0CD9     		bls	.L117
 1428              	.LVL130:
 1429              	.L116:
 1430              		.loc 1 151 0
 1431 023c 2068     		ldr	r0, [r4, #0]
 1432 023e 15F8011C 		ldrb	r1, [r5, #-1]	@ zero_extendqisi2
 1433 0242 0368     		ldr	r3, [r0, #0]
 1434 0244 4FF0FF32 		mov	r2, #-1
 1435 0248 1B69     		ldr	r3, [r3, #16]
 1436 024a 9847     		blx	r3
 1437              	.LVL131:
 1438              		.loc 1 150 0
 1439 024c 3368     		ldr	r3, [r6, #0]
 1440              		.loc 1 329 0
 1441 024e 2A46     		mov	r2, r5
 1442              	.LVL132:
 1443 0250 0135     		adds	r5, r5, #1
 1444              		.loc 1 150 0
 1445 0252 9A42     		cmp	r2, r3
 1446 0254 F2D3     		bcc	.L116
 1447              	.LVL133:
 1448              	.L117:
 1449              	.LBE151:
 1450              	.LBE152:
 1451              		.loc 1 386 0
 1452 0256 2B48     		ldr	r0, .L157+128
 1453 0258 FFF7FEFF 		bl	test_println
 1454              	.LVL134:
 1455              		.loc 1 368 0
 1456 025c 57F8043B 		ldr	r3, [r7], #4
 1457 0260 002B     		cmp	r3, #0
 1458 0262 7FF46DAF 		bne	.L118
 1459              	.LVL135:
 1460              	.L155:
 1461              		.loc 1 366 0
 1462 0266 019B     		ldr	r3, [sp, #4]
 1463 0268 53F8047F 		ldr	r7, [r3, #4]!
 1464 026c 0193     		str	r3, [sp, #4]
 1465 026e 002F     		cmp	r7, #0
 1466 0270 7FF45DAF 		bne	.L124
 1467              		.loc 1 394 0
 1468 0274 FFF7FEFF 		bl	print_line
 1469              	.LVL136:
 1470 0278 234D     		ldr	r5, .L157+132
 1471              		.loc 1 395 0
ARM GAS  /var/folders/dt/0wfd0knj7gs46m8vwfzktm600000gn/T//ccKn2zKA.s 			page 27


 1472 027a 0348     		ldr	r0, .L157+4
 1473 027c FFF7FEFF 		bl	test_println
 1474              	.LVL137:
 1475              		.loc 1 123 0
 1476 0280 4621     		movs	r1, #70
 1477 0282 45E0     		b	.L158
 1478              	.L159:
 1479              		.align	2
 1480              	.L157:
 1481 0284 00000000 		.word	.LANCHOR1
 1482 0288 00000000 		.word	.LC0
 1483 028c 04000000 		.word	.LC1
 1484 0290 24000000 		.word	.LC3
 1485 0294 20000000 		.word	.LC2
 1486 0298 8C000000 		.word	.LC11
 1487 029c 94000000 		.word	.LC12
 1488 02a0 A8000000 		.word	.LC13
 1489 02a4 C0000000 		.word	.LC14
 1490 02a8 D4000000 		.word	.LC15
 1491 02ac E0000000 		.word	.LC16
 1492 02b0 F4000000 		.word	.LC17
 1493 02b4 FC000000 		.word	.LC18
 1494 02b8 10010000 		.word	.LC19
 1495 02bc 1C010000 		.word	.LC20
 1496 02c0 30010000 		.word	.LC21
 1497 02c4 48010000 		.word	.LC22
 1498 02c8 5C010000 		.word	.LC23
 1499 02cc 84010000 		.word	.LC24
 1500 02d0 98010000 		.word	.LC25
 1501 02d4 00000000 		.word	.LANCHOR9
 1502 02d8 00000000 		.word	patternthd
 1503 02dc 00000000 		.word	.LANCHOR2
 1504 02e0 38000000 		.word	.LC4
 1505 02e4 B0010000 		.word	.LC26
 1506 02e8 48000000 		.word	.LC5
 1507 02ec 00000000 		.word	.LANCHOR7
 1508 02f0 00000000 		.word	.LANCHOR3
 1509 02f4 4C000000 		.word	.LC6
 1510 02f8 00000000 		.word	.LANCHOR5
 1511 02fc B4010000 		.word	.LC27
 1512 0300 01000000 		.word	.LANCHOR6+1
 1513 0304 64000000 		.word	.LC7
 1514 0308 B8010000 		.word	.LC28
 1515 030c 00000000 		.word	.LANCHOR6
 1516              	.L158:
 1517              	.LVL138:
 1518              	.L121:
 1519              	.LBB153:
 1520              	.LBB154:
 1521              		.loc 1 124 0
 1522 0310 2068     		ldr	r0, [r4, #0]
 1523 0312 4FF0FF32 		mov	r2, #-1
 1524 0316 0368     		ldr	r3, [r0, #0]
 1525 0318 1B69     		ldr	r3, [r3, #16]
 1526 031a 9847     		blx	r3
 1527              	.LVL139:
 1528              		.loc 1 123 0
ARM GAS  /var/folders/dt/0wfd0knj7gs46m8vwfzktm600000gn/T//ccKn2zKA.s 			page 28


 1529 031c 15F8011F 		ldrb	r1, [r5, #1]!	@ zero_extendqisi2
 1530 0320 0029     		cmp	r1, #0
 1531 0322 F5D1     		bne	.L121
 1532              	.LBE154:
 1533              	.LBE153:
 1534              		.loc 1 397 0
 1535 0324 40F20002 		movw	r2, #:lower16:.LANCHOR4
 1536 0328 C0F20002 		movt	r2, #:upper16:.LANCHOR4
 1537 032c 1368     		ldr	r3, [r2, #0]
 1538 032e 73B9     		cbnz	r3, .L156
 1539              		.loc 1 400 0
 1540 0330 0948     		ldr	r0, .L160
 1541 0332 FFF7FEFF 		bl	test_println
 1542              	.LVL140:
 1543              	.L123:
 1544              		.loc 1 402 0
 1545 0336 40F20003 		movw	r3, #:lower16:.LANCHOR4
 1546 033a C0F20003 		movt	r3, #:upper16:.LANCHOR4
 1547 033e 1868     		ldr	r0, [r3, #0]
 1548              		.loc 1 403 0
 1549 0340 03B0     		add	sp, sp, #12
 1550 0342 BDE8F08F 		pop	{r4, r5, r6, r7, r8, r9, sl, fp, pc}
 1551              	.LVL141:
 1552              	.L110:
 1553              		.loc 1 389 0
 1554 0346 0548     		ldr	r0, .L160+4
 1555 0348 FFF7FEFF 		bl	test_println
 1556              	.LVL142:
 1557 034c F3E6     		b	.L153
 1558              	.LVL143:
 1559              	.L156:
 1560              		.loc 1 398 0
 1561 034e 0448     		ldr	r0, .L160+8
 1562 0350 FFF7FEFF 		bl	test_println
 1563              	.LVL144:
 1564 0354 EFE7     		b	.L123
 1565              	.L161:
 1566 0356 00BF     		.align	2
 1567              	.L160:
 1568 0358 84000000 		.word	.LC10
 1569 035c 68000000 		.word	.LC8
 1570 0360 7C000000 		.word	.LC9
 1571              		.cfi_endproc
 1572              	.LFE80:
 1573              		.size	TestThread, .-TestThread
 1574              		.global	test_timer_done
 1575              		.global	wa
 1576              		.global	threads
 1577              		.global	test
 1578 0364 AFF30080 		.section	.bss.test,"aw",%nobits
 1578      AFF30080 
 1578      AFF30080 
 1579              		.align	3
 1580              		.type	test, %object
 1581              		.size	test, 1520
 1582              	test:
 1583 0000 00000000 		.space	1520
ARM GAS  /var/folders/dt/0wfd0knj7gs46m8vwfzktm600000gn/T//ccKn2zKA.s 			page 29


 1583      00000000 
 1583      00000000 
 1583      00000000 
 1583      00000000 
 1584              		.section	.bss.failpoint,"aw",%nobits
 1585              		.align	2
 1586              		.set	.LANCHOR5,. + 0
 1587              		.type	failpoint, %object
 1588              		.size	failpoint, 4
 1589              	failpoint:
 1590 0000 00000000 		.space	4
 1591              		.section	.bss.local_fail,"aw",%nobits
 1592              		.align	2
 1593              		.set	.LANCHOR3,. + 0
 1594              		.type	local_fail, %object
 1595              		.size	local_fail, 4
 1596              	local_fail:
 1597 0000 00000000 		.space	4
 1598              		.section	.bss.test_timer_done,"aw",%nobits
 1599              		.align	2
 1600              		.set	.LANCHOR0,. + 0
 1601              		.type	test_timer_done, %object
 1602              		.size	test_timer_done, 4
 1603              	test_timer_done:
 1604 0000 00000000 		.space	4
 1605              		.section	.rodata.wa,"a",%progbits
 1606              		.align	2
 1607              		.type	wa, %object
 1608              		.size	wa, 20
 1609              	wa:
 1610 0000 00000000 		.word	test
 1611 0004 30010000 		.word	test+304
 1612 0008 60020000 		.word	test+608
 1613 000c 90030000 		.word	test+912
 1614 0010 C0040000 		.word	test+1216
 1615              		.section	.bss.tokp,"aw",%nobits
 1616              		.align	2
 1617              		.set	.LANCHOR2,. + 0
 1618              		.type	tokp, %object
 1619              		.size	tokp, 4
 1620              	tokp:
 1621 0000 00000000 		.space	4
 1622              		.section	.bss.global_fail,"aw",%nobits
 1623              		.align	2
 1624              		.set	.LANCHOR4,. + 0
 1625              		.type	global_fail, %object
 1626              		.size	global_fail, 4
 1627              	global_fail:
 1628 0000 00000000 		.space	4
 1629              		.section	.rodata.str1.4,"aMS",%progbits,1
 1630              		.align	2
 1631              	.LC0:
 1632 0000 00       		.ascii	"\000"
 1633 0001 000000   		.space	3
 1634              	.LC1:
 1635 0004 2A2A2A20 		.ascii	"*** ChibiOS/RT test suite\000"
 1635      43686962 
ARM GAS  /var/folders/dt/0wfd0knj7gs46m8vwfzktm600000gn/T//ccKn2zKA.s 			page 30


 1635      694F532F 
 1635      52542074 
 1635      65737420 
 1636 001e 0000     		.space	2
 1637              	.LC2:
 1638 0020 2A2A2A00 		.ascii	"***\000"
 1639              	.LC3:
 1640 0024 2A2A2A20 		.ascii	"*** Kernel:       \000"
 1640      4B65726E 
 1640      656C3A20 
 1640      20202020 
 1640      202000
 1641 0037 00       		.space	1
 1642              	.LC4:
 1643 0038 2D2D2D20 		.ascii	"--- Test Case \000"
 1643      54657374 
 1643      20436173 
 1643      652000
 1644 0047 00       		.space	1
 1645              	.LC5:
 1646 0048 2900     		.ascii	")\000"
 1647 004a 0000     		.space	2
 1648              	.LC6:
 1649 004c 2D2D2D20 		.ascii	"--- Result: FAILURE (#\000"
 1649      52657375 
 1649      6C743A20 
 1649      4641494C 
 1649      55524520 
 1650 0063 00       		.space	1
 1651              	.LC7:
 1652 0064 5D2900   		.ascii	"])\000"
 1653 0067 00       		.space	1
 1654              	.LC8:
 1655 0068 2D2D2D20 		.ascii	"--- Result: SUCCESS\000"
 1655      52657375 
 1655      6C743A20 
 1655      53554343 
 1655      45535300 
 1656              	.LC9:
 1657 007c 4641494C 		.ascii	"FAILURE\000"
 1657      55524500 
 1658              	.LC10:
 1659 0084 53554343 		.ascii	"SUCCESS\000"
 1659      45535300 
 1660              	.LC11:
 1661 008c 322E342E 		.ascii	"2.4.3\000"
 1661      3300
 1662 0092 0000     		.space	2
 1663              	.LC12:
 1664 0094 2A2A2A20 		.ascii	"*** Compiled:     \000"
 1664      436F6D70 
 1664      696C6564 
 1664      3A202020 
 1664      202000
 1665 00a7 00       		.space	1
 1666              	.LC13:
 1667 00a8 4D617920 		.ascii	"May  8 2013 - 21:45:31\000"
ARM GAS  /var/folders/dt/0wfd0knj7gs46m8vwfzktm600000gn/T//ccKn2zKA.s 			page 31


 1667      20382032 
 1667      30313320 
 1667      2D203231 
 1667      3A34353A 
 1668 00bf 00       		.space	1
 1669              	.LC14:
 1670 00c0 2A2A2A20 		.ascii	"*** Compiler:     \000"
 1670      436F6D70 
 1670      696C6572 
 1670      3A202020 
 1670      202000
 1671 00d3 00       		.space	1
 1672              	.LC15:
 1673 00d4 47434320 		.ascii	"GCC 4.7.2\000"
 1673      342E372E 
 1673      3200
 1674 00de 0000     		.space	2
 1675              	.LC16:
 1676 00e0 2A2A2A20 		.ascii	"*** Architecture: \000"
 1676      41726368 
 1676      69746563 
 1676      74757265 
 1676      3A2000
 1677 00f3 00       		.space	1
 1678              	.LC17:
 1679 00f4 41524D76 		.ascii	"ARMv7-M\000"
 1679      372D4D00 
 1680              	.LC18:
 1681 00fc 2A2A2A20 		.ascii	"*** Core Variant: \000"
 1681      436F7265 
 1681      20566172 
 1681      69616E74 
 1681      3A2000
 1682 010f 00       		.space	1
 1683              	.LC19:
 1684 0110 436F7274 		.ascii	"Cortex-M3\000"
 1684      65782D4D 
 1684      3300
 1685 011a 0000     		.space	2
 1686              	.LC20:
 1687 011c 2A2A2A20 		.ascii	"*** Port Info:    \000"
 1687      506F7274 
 1687      20496E66 
 1687      6F3A2020 
 1687      202000
 1688 012f 00       		.space	1
 1689              	.LC21:
 1690 0130 41647661 		.ascii	"Advanced kernel mode\000"
 1690      6E636564 
 1690      206B6572 
 1690      6E656C20 
 1690      6D6F6465 
 1691 0145 000000   		.space	3
 1692              	.LC22:
 1693 0148 2A2A2A20 		.ascii	"*** Platform:     \000"
 1693      506C6174 
 1693      666F726D 
ARM GAS  /var/folders/dt/0wfd0knj7gs46m8vwfzktm600000gn/T//ccKn2zKA.s 			page 32


 1693      3A202020 
 1693      202000
 1694 015b 00       		.space	1
 1695              	.LC23:
 1696 015c 53544D33 		.ascii	"STM32F1 Performance Line High Density\000"
 1696      32463120 
 1696      50657266 
 1696      6F726D61 
 1696      6E636520 
 1697 0182 0000     		.space	2
 1698              	.LC24:
 1699 0184 2A2A2A20 		.ascii	"*** Test Board:   \000"
 1699      54657374 
 1699      20426F61 
 1699      72643A20 
 1699      202000
 1700 0197 00       		.space	1
 1701              	.LC25:
 1702 0198 4D4C4142 		.ascii	"MLAB STM32F10xRxT01A\000"
 1702      2053544D 
 1702      33324631 
 1702      30785278 
 1702      54303141 
 1703 01ad 000000   		.space	3
 1704              	.LC26:
 1705 01b0 202800   		.ascii	" (\000"
 1706 01b3 00       		.space	1
 1707              	.LC27:
 1708 01b4 205B00   		.ascii	" [\000"
 1709 01b7 00       		.space	1
 1710              	.LC28:
 1711 01b8 46696E61 		.ascii	"Final result: \000"
 1711      6C207265 
 1711      73756C74 
 1711      3A2000
 1712 01c7 00       		.section	.bss.vt,"aw",%nobits
 1713              		.align	2
 1714              		.set	.LANCHOR8,. + 0
 1715              		.type	vt, %object
 1716              		.size	vt, 20
 1717              	vt:
 1718 0000 00000000 		.space	20
 1718      00000000 
 1718      00000000 
 1718      00000000 
 1718      00000000 
 1719              		.section	.bss.threads,"aw",%nobits
 1720              		.align	2
 1721              		.set	.LANCHOR7,. + 0
 1722              		.type	threads, %object
 1723              		.size	threads, 20
 1724              	threads:
 1725 0000 00000000 		.space	20
 1725      00000000 
 1725      00000000 
 1725      00000000 
 1725      00000000 
ARM GAS  /var/folders/dt/0wfd0knj7gs46m8vwfzktm600000gn/T//ccKn2zKA.s 			page 33


 1726              		.section	.rodata.patterns,"a",%progbits
 1727              		.align	2
 1728              		.set	.LANCHOR9,. + 0
 1729              		.type	patterns, %object
 1730              		.size	patterns, 48
 1731              	patterns:
 1732 0000 00000000 		.word	patternthd
 1733 0004 00000000 		.word	patternsem
 1734 0008 00000000 		.word	patternmtx
 1735 000c 00000000 		.word	patternmsg
 1736 0010 00000000 		.word	patternmbox
 1737 0014 00000000 		.word	patternevt
 1738 0018 00000000 		.word	patternheap
 1739 001c 00000000 		.word	patternpools
 1740 0020 00000000 		.word	patterndyn
 1741 0024 00000000 		.word	patternqueues
 1742 0028 00000000 		.word	patternbmk
 1743 002c 00000000 		.word	0
 1744              		.section	.bss.chp,"aw",%nobits
 1745              		.align	2
 1746              		.set	.LANCHOR1,. + 0
 1747              		.type	chp, %object
 1748              		.size	chp, 4
 1749              	chp:
 1750 0000 00000000 		.space	4
 1751              		.section	.bss.tokens_buffer,"aw",%nobits
 1752              		.align	2
 1753              		.set	.LANCHOR6,. + 0
 1754              		.type	tokens_buffer, %object
 1755              		.size	tokens_buffer, 16
 1756              	tokens_buffer:
 1757 0000 00000000 		.space	16
 1757      00000000 
 1757      00000000 
 1757      00000000 
 1758              		.text
 1759              	.Letext0:
 1760              		.file 2 "/Users/toxygen/Applications/yagarto-4.7.2/bin/../lib/gcc/arm-none-eabi/4.7.2/include/stdd
 1761              		.file 3 "/Users/toxygen/Applications/yagarto-4.7.2/bin/../lib/gcc/arm-none-eabi/4.7.2/../../../../
 1762              		.file 4 "../../os/ports/GCC/ARMCMx/chtypes.h"
 1763              		.file 5 "../../os/kernel/include/chlists.h"
 1764              		.file 6 "../../os/kernel/include/chthreads.h"
 1765              		.file 7 "../../os/ports/GCC/ARMCMx/chcore_v7m.h"
 1766              		.file 8 "../../os/kernel/include/chvt.h"
 1767              		.file 9 "../../os/kernel/include/chschd.h"
 1768              		.file 10 "../../os/kernel/include/chmtx.h"
 1769              		.file 11 "../../os/kernel/include/chioch.h"
 1770              		.file 12 "../../test/test.h"
 1771              		.file 13 "../../os/ports/common/ARMCMx/CMSIS/include/core_cm3.h"
 1772              		.file 14 "../../test/testthd.h"
 1773              		.file 15 "../../test/testsem.h"
 1774              		.file 16 "../../test/testmtx.h"
 1775              		.file 17 "../../test/testmsg.h"
 1776              		.file 18 "../../test/testmbox.h"
 1777              		.file 19 "../../test/testevt.h"
 1778              		.file 20 "../../test/testheap.h"
 1779              		.file 21 "../../test/testpools.h"
ARM GAS  /var/folders/dt/0wfd0knj7gs46m8vwfzktm600000gn/T//ccKn2zKA.s 			page 34


 1780              		.file 22 "../../test/testdyn.h"
 1781              		.file 23 "../../test/testqueues.h"
 1782              		.file 24 "../../test/testbmk.h"