ARM GAS  /var/folders/dt/0wfd0knj7gs46m8vwfzktm600000gn/T//cca4GukL.s 			page 1


   1              		.syntax unified
   2              		.cpu cortex-m3
   3              		.fpu softvfp
   4              		.eabi_attribute 20, 1
   5              		.eabi_attribute 21, 1
   6              		.eabi_attribute 23, 3
   7              		.eabi_attribute 24, 1
   8              		.eabi_attribute 25, 1
   9              		.eabi_attribute 26, 1
  10              		.eabi_attribute 30, 2
  11              		.eabi_attribute 34, 1
  12              		.eabi_attribute 18, 4
  13              		.thumb
  14              		.file	"testmbox.c"
  15              		.text
  16              	.Ltext0:
  17              		.cfi_sections	.debug_frame
  18              		.section	.text.mbox1_execute,"ax",%progbits
  19              		.align	2
  20              		.p2align 4,,15
  21              		.thumb
  22              		.thumb_func
  23              		.type	mbox1_execute, %function
  24              	mbox1_execute:
  25              	.LFB8:
  26              		.file 1 "../../test/testmbox.c"
  27              		.loc 1 87 0
  28              		.cfi_startproc
  29              		@ args = 0, pretend = 0, frame = 8
  30              		@ frame_needed = 0, uses_anonymous_args = 0
  31 0000 F0B5     		push	{r4, r5, r6, r7, lr}
  32              	.LCFI0:
  33              		.cfi_def_cfa_offset 20
  34              		.cfi_offset 4, -20
  35              		.cfi_offset 5, -16
  36              		.cfi_offset 6, -12
  37              		.cfi_offset 7, -8
  38              		.cfi_offset 14, -4
  39              		.loc 1 94 0
  40 0002 B44E     		ldr	r6, .L32
  41 0004 0120     		movs	r0, #1
  42 0006 716A     		ldr	r1, [r6, #36]
  43              		.loc 1 87 0
  44 0008 83B0     		sub	sp, sp, #12
  45              	.LCFI1:
  46              		.cfi_def_cfa_offset 32
  47              		.loc 1 94 0
  48 000a 4B1F     		subs	r3, r1, #5
  49 000c 5942     		rsbs	r1, r3, #0
  50 000e 5941     		adcs	r1, r1, r3
  51 0010 FFF7FEFF 		bl	_test_assert
  52              	.LVL0:
  53 0014 00BB     		cbnz	r0, .L1
  54 0016 4224     		movs	r4, #66
  55              	.L3:
  56              		.loc 1 100 0
  57 0018 AE4D     		ldr	r5, .L32
ARM GAS  /var/folders/dt/0wfd0knj7gs46m8vwfzktm600000gn/T//cca4GukL.s 			page 2


  58 001a 2146     		mov	r1, r4
  59 001c 2846     		mov	r0, r5
  60 001e 4FF0FF32 		mov	r2, #-1
  61 0022 FFF7FEFF 		bl	chMBPost
  62              	.LVL1:
  63              		.loc 1 101 0
  64 0026 D0F10101 		rsbs	r1, r0, #1
  65 002a 38BF     		it	cc
  66 002c 0021     		movcc	r1, #0
  67 002e 0220     		movs	r0, #2
  68              	.LVL2:
  69 0030 0134     		adds	r4, r4, #1
  70 0032 FFF7FEFF 		bl	_test_assert
  71              	.LVL3:
  72 0036 78B9     		cbnz	r0, .L1
  73              		.loc 1 99 0
  74 0038 462C     		cmp	r4, #70
  75 003a EDD1     		bne	.L3
  76              		.loc 1 103 0
  77 003c 4121     		movs	r1, #65
  78 003e 2846     		mov	r0, r5
  79 0040 4FF0FF32 		mov	r2, #-1
  80 0044 FFF7FEFF 		bl	chMBPostAhead
  81              	.LVL4:
  82              		.loc 1 104 0
  83 0048 D0F10101 		rsbs	r1, r0, #1
  84 004c 38BF     		it	cc
  85 004e 0021     		movcc	r1, #0
  86 0050 0320     		movs	r0, #3
  87              	.LVL5:
  88 0052 FFF7FEFF 		bl	_test_assert
  89              	.LVL6:
  90 0056 08B1     		cbz	r0, .L29
  91              	.LVL7:
  92              	.L1:
  93              		.loc 1 231 0
  94 0058 03B0     		add	sp, sp, #12
  95 005a F0BD     		pop	{r4, r5, r6, r7, pc}
  96              	.LVL8:
  97              	.L29:
  98              		.loc 1 109 0
  99 005c 5821     		movs	r1, #88
 100 005e 0122     		movs	r2, #1
 101 0060 2846     		mov	r0, r5
 102 0062 FFF7FEFF 		bl	chMBPost
 103              	.LVL9:
 104              		.loc 1 110 0
 105 0066 B0F1FF3C 		subs	ip, r0, #-1
 106 006a DCF10001 		rsbs	r1, ip, #0
 107 006e 51EB0C01 		adcs	r1, r1, ip
 108 0072 0420     		movs	r0, #4
 109              	.LVL10:
 110 0074 FFF7FEFF 		bl	_test_assert
 111              	.LVL11:
 112 0078 0446     		mov	r4, r0
 113 007a 0028     		cmp	r0, #0
 114 007c ECD1     		bne	.L1
ARM GAS  /var/folders/dt/0wfd0knj7gs46m8vwfzktm600000gn/T//cca4GukL.s 			page 3


 115              	.LBB2:
 116              		.loc 1 111 0
 117 007e 2023     		movs	r3, #32
 118              	.LVL12:
 119              	@ 111 "../../test/testmbox.c" 1
 120 0080 83F31188 		msr     BASEPRI, r3
 121              	@ 0 "" 2
 122              	.LVL13:
 123              		.thumb
 124              	.LBE2:
 125              		.loc 1 112 0
 126 0084 5821     		movs	r1, #88
 127 0086 2846     		mov	r0, r5
 128 0088 FFF7FEFF 		bl	chMBPostI
 129              	.LVL14:
 130              	.LBB3:
 131              		.loc 1 113 0
 132 008c 2346     		mov	r3, r4
 133              	.LVL15:
 134              	.LBE3:
 135              		.loc 1 112 0
 136 008e 0146     		mov	r1, r0
 137              	.LVL16:
 138              	.LBB4:
 139              		.loc 1 113 0
 140              	@ 113 "../../test/testmbox.c" 1
 141 0090 83F31188 		msr     BASEPRI, r3
 142              	@ 0 "" 2
 143              	.LVL17:
 144              		.thumb
 145              	.LBE4:
 146              		.loc 1 114 0
 147 0094 0520     		movs	r0, #5
 148              	.LVL18:
 149 0096 B1F1FF3E 		subs	lr, r1, #-1
 150 009a DEF10001 		rsbs	r1, lr, #0
 151              	.LVL19:
 152 009e 51EB0E01 		adcs	r1, r1, lr
 153 00a2 FFF7FEFF 		bl	_test_assert
 154              	.LVL20:
 155 00a6 0028     		cmp	r0, #0
 156 00a8 D6D1     		bne	.L1
 157              		.loc 1 115 0
 158 00aa 5821     		movs	r1, #88
 159 00ac 0122     		movs	r2, #1
 160 00ae 2846     		mov	r0, r5
 161 00b0 FFF7FEFF 		bl	chMBPostAhead
 162              	.LVL21:
 163              		.loc 1 116 0
 164 00b4 B0F1FF32 		subs	r2, r0, #-1
 165 00b8 5142     		rsbs	r1, r2, #0
 166 00ba 5141     		adcs	r1, r1, r2
 167 00bc 0620     		movs	r0, #6
 168              	.LVL22:
 169 00be FFF7FEFF 		bl	_test_assert
 170              	.LVL23:
 171 00c2 0446     		mov	r4, r0
ARM GAS  /var/folders/dt/0wfd0knj7gs46m8vwfzktm600000gn/T//cca4GukL.s 			page 4


 172 00c4 0028     		cmp	r0, #0
 173 00c6 C7D1     		bne	.L1
 174              	.LBB5:
 175              		.loc 1 117 0
 176 00c8 2023     		movs	r3, #32
 177              	.LVL24:
 178              	@ 117 "../../test/testmbox.c" 1
 179 00ca 83F31188 		msr     BASEPRI, r3
 180              	@ 0 "" 2
 181              	.LVL25:
 182              		.thumb
 183              	.LBE5:
 184              		.loc 1 118 0
 185 00ce 5821     		movs	r1, #88
 186 00d0 2846     		mov	r0, r5
 187 00d2 FFF7FEFF 		bl	chMBPostAheadI
 188              	.LVL26:
 189              	.LBB6:
 190              		.loc 1 119 0
 191 00d6 2346     		mov	r3, r4
 192              	.LVL27:
 193              	.LBE6:
 194              		.loc 1 118 0
 195 00d8 0146     		mov	r1, r0
 196              	.LVL28:
 197              	.LBB7:
 198              		.loc 1 119 0
 199              	@ 119 "../../test/testmbox.c" 1
 200 00da 83F31188 		msr     BASEPRI, r3
 201              	@ 0 "" 2
 202              	.LVL29:
 203              		.thumb
 204              	.LBE7:
 205              		.loc 1 120 0
 206 00de 0720     		movs	r0, #7
 207              	.LVL30:
 208 00e0 B1F1FF33 		subs	r3, r1, #-1
 209              	.LVL31:
 210 00e4 5942     		rsbs	r1, r3, #0
 211              	.LVL32:
 212 00e6 5941     		adcs	r1, r1, r3
 213 00e8 FFF7FEFF 		bl	_test_assert
 214              	.LVL33:
 215 00ec 0746     		mov	r7, r0
 216 00ee 0028     		cmp	r0, #0
 217 00f0 B2D1     		bne	.L1
 218              	.LBB8:
 219              		.loc 1 125 0
 220 00f2 2023     		movs	r3, #32
 221              	.LVL34:
 222              	@ 125 "../../test/testmbox.c" 1
 223 00f4 83F31188 		msr     BASEPRI, r3
 224              	@ 0 "" 2
 225              	.LVL35:
 226              		.thumb
 227              	.LBE8:
 228 00f8 696A     		ldr	r1, [r5, #36]
ARM GAS  /var/folders/dt/0wfd0knj7gs46m8vwfzktm600000gn/T//cca4GukL.s 			page 5


 229 00fa 0820     		movs	r0, #8
 230 00fc D1F10101 		rsbs	r1, r1, #1
 231 0100 38BF     		it	cc
 232 0102 0021     		movcc	r1, #0
 233 0104 FFF7FEFF 		bl	_test_assert
 234              	.LVL36:
 235 0108 0446     		mov	r4, r0
 236 010a 18B1     		cbz	r0, .L4
 237              	.LBB9:
 238              		.loc 1 125 0 is_stmt 0 discriminator 1
 239 010c 3B46     		mov	r3, r7
 240              	@ 125 "../../test/testmbox.c" 1
 241 010e 83F31188 		msr     BASEPRI, r3
 242              	@ 0 "" 2
 243              	.LVL37:
 244              		.thumb
 245 0112 A1E7     		b	.L1
 246              	.LVL38:
 247              	.L4:
 248              	.LBE9:
 249              	.LBB10:
 250              		.loc 1 125 0 discriminator 2
 251 0114 0346     		mov	r3, r0
 252              	.LVL39:
 253              	@ 125 "../../test/testmbox.c" 1
 254 0116 83F31188 		msr     BASEPRI, r3
 255              	@ 0 "" 2
 256              	.LVL40:
 257              		.thumb
 258              	.LBE10:
 259              	.LBB11:
 260              		.loc 1 126 0 is_stmt 1 discriminator 2
 261 011a 2023     		movs	r3, #32
 262              	.LVL41:
 263              	@ 126 "../../test/testmbox.c" 1
 264 011c 83F31188 		msr     BASEPRI, r3
 265              	@ 0 "" 2
 266              	.LVL42:
 267              		.thumb
 268              	.LBE11:
 269 0120 A969     		ldr	r1, [r5, #24]
 270 0122 0920     		movs	r0, #9
 271 0124 B1F1050C 		subs	ip, r1, #5
 272 0128 DCF10001 		rsbs	r1, ip, #0
 273 012c 51EB0C01 		adcs	r1, r1, ip
 274 0130 FFF7FEFF 		bl	_test_assert
 275              	.LVL43:
 276 0134 0346     		mov	r3, r0
 277 0136 18B1     		cbz	r0, .L6
 278              	.LBB12:
 279              		.loc 1 126 0 is_stmt 0 discriminator 1
 280 0138 2346     		mov	r3, r4
 281              	@ 126 "../../test/testmbox.c" 1
 282 013a 83F31188 		msr     BASEPRI, r3
 283              	@ 0 "" 2
 284              	.LVL44:
 285              		.thumb
ARM GAS  /var/folders/dt/0wfd0knj7gs46m8vwfzktm600000gn/T//cca4GukL.s 			page 6


 286 013e 8BE7     		b	.L1
 287              	.LVL45:
 288              	.L6:
 289              	.LBE12:
 290              	.LBB13:
 291              		.loc 1 126 0 discriminator 2
 292              	@ 126 "../../test/testmbox.c" 1
 293 0140 83F31188 		msr     BASEPRI, r3
 294              	@ 0 "" 2
 295              	.LVL46:
 296              		.thumb
 297              	.LBE13:
 298              	.LBB14:
 299              		.loc 1 127 0 is_stmt 1 discriminator 2
 300 0144 2023     		movs	r3, #32
 301              	.LVL47:
 302              	@ 127 "../../test/testmbox.c" 1
 303 0146 83F31188 		msr     BASEPRI, r3
 304              	@ 0 "" 2
 305              	.LVL48:
 306              		.thumb
 307              	.LBE14:
 308 014a E968     		ldr	r1, [r5, #12]
 309 014c AB68     		ldr	r3, [r5, #8]
 310              	.LVL49:
 311 014e 0A20     		movs	r0, #10
 312 0150 B1EB030E 		subs	lr, r1, r3
 313 0154 DEF10001 		rsbs	r1, lr, #0
 314 0158 51EB0E01 		adcs	r1, r1, lr
 315 015c FFF7FEFF 		bl	_test_assert
 316              	.LVL50:
 317              	.LBB15:
 318 0160 0023     		movs	r3, #0
 319              	@ 127 "../../test/testmbox.c" 1
 320 0162 83F31188 		msr     BASEPRI, r3
 321              	@ 0 "" 2
 322              	.LVL51:
 323              		.thumb
 324              	.LBE15:
 325 0166 0028     		cmp	r0, #0
 326 0168 7FF476AF 		bne	.L1
 327              	.LVL52:
 328              	.LBB16:
 329 016c 0525     		movs	r5, #5
 330 016e 05E0     		b	.L8
 331              	.LVL53:
 332              	.L31:
 333              	.LBE16:
 334              		.loc 1 135 0
 335 0170 9DF80400 		ldrb	r0, [sp, #4]	@ zero_extendqisi2
 336 0174 FFF7FEFF 		bl	test_emit_token
 337              	.LVL54:
 338              		.loc 1 132 0
 339 0178 013D     		subs	r5, r5, #1
 340 017a 10D0     		beq	.L30
 341              	.LVL55:
 342              	.L8:
ARM GAS  /var/folders/dt/0wfd0knj7gs46m8vwfzktm600000gn/T//cca4GukL.s 			page 7


 343              		.loc 1 133 0
 344 017c 554C     		ldr	r4, .L32
 345 017e 01A9     		add	r1, sp, #4
 346 0180 4FF0FF32 		mov	r2, #-1
 347 0184 2046     		mov	r0, r4
 348 0186 FFF7FEFF 		bl	chMBFetch
 349              	.LVL56:
 350              		.loc 1 134 0
 351 018a D0F10101 		rsbs	r1, r0, #1
 352 018e 38BF     		it	cc
 353 0190 0021     		movcc	r1, #0
 354 0192 0B20     		movs	r0, #11
 355              	.LVL57:
 356 0194 FFF7FEFF 		bl	_test_assert
 357              	.LVL58:
 358 0198 0028     		cmp	r0, #0
 359 019a E9D0     		beq	.L31
 360 019c 5CE7     		b	.L1
 361              	.L30:
 362              		.loc 1 137 0
 363 019e 0C20     		movs	r0, #12
 364 01a0 4D49     		ldr	r1, .L32+4
 365 01a2 FFF7FEFF 		bl	_test_assert_sequence
 366              	.LVL59:
 367 01a6 0028     		cmp	r0, #0
 368 01a8 7FF456AF 		bne	.L1
 369              		.loc 1 142 0
 370 01ac 4721     		movs	r1, #71
 371 01ae 2046     		mov	r0, r4
 372 01b0 4FF0FF32 		mov	r2, #-1
 373 01b4 FFF7FEFF 		bl	chMBPost
 374              	.LVL60:
 375              		.loc 1 143 0
 376 01b8 D0F10101 		rsbs	r1, r0, #1
 377 01bc 38BF     		it	cc
 378 01be 0021     		movcc	r1, #0
 379 01c0 0D20     		movs	r0, #13
 380              	.LVL61:
 381 01c2 FFF7FEFF 		bl	_test_assert
 382              	.LVL62:
 383 01c6 0028     		cmp	r0, #0
 384 01c8 7FF446AF 		bne	.L1
 385              		.loc 1 144 0
 386 01cc 01A9     		add	r1, sp, #4
 387 01ce 2046     		mov	r0, r4
 388 01d0 4FF0FF32 		mov	r2, #-1
 389 01d4 FFF7FEFF 		bl	chMBFetch
 390              	.LVL63:
 391              		.loc 1 145 0
 392 01d8 D0F10101 		rsbs	r1, r0, #1
 393 01dc 38BF     		it	cc
 394 01de 0021     		movcc	r1, #0
 395 01e0 0E20     		movs	r0, #14
 396              	.LVL64:
 397 01e2 FFF7FEFF 		bl	_test_assert
 398              	.LVL65:
 399 01e6 0028     		cmp	r0, #0
ARM GAS  /var/folders/dt/0wfd0knj7gs46m8vwfzktm600000gn/T//cca4GukL.s 			page 8


 400 01e8 7FF436AF 		bne	.L1
 401              		.loc 1 146 0
 402 01ec 2168     		ldr	r1, [r4, #0]
 403 01ee A368     		ldr	r3, [r4, #8]
 404 01f0 0F20     		movs	r0, #15
 405 01f2 CA1A     		subs	r2, r1, r3
 406 01f4 5142     		rsbs	r1, r2, #0
 407 01f6 5141     		adcs	r1, r1, r2
 408 01f8 FFF7FEFF 		bl	_test_assert
 409              	.LVL66:
 410 01fc 0028     		cmp	r0, #0
 411 01fe 7FF42BAF 		bne	.L1
 412              		.loc 1 147 0
 413 0202 2168     		ldr	r1, [r4, #0]
 414 0204 E368     		ldr	r3, [r4, #12]
 415 0206 1020     		movs	r0, #16
 416 0208 CB1A     		subs	r3, r1, r3
 417 020a 5942     		rsbs	r1, r3, #0
 418 020c 5941     		adcs	r1, r1, r3
 419 020e FFF7FEFF 		bl	_test_assert
 420              	.LVL67:
 421 0212 0028     		cmp	r0, #0
 422 0214 7FF420AF 		bne	.L1
 423              		.loc 1 152 0
 424 0218 01A9     		add	r1, sp, #4
 425 021a 0122     		movs	r2, #1
 426 021c 2046     		mov	r0, r4
 427 021e FFF7FEFF 		bl	chMBFetch
 428              	.LVL68:
 429              		.loc 1 153 0
 430 0222 B0F1FF3C 		subs	ip, r0, #-1
 431 0226 DCF10001 		rsbs	r1, ip, #0
 432 022a 51EB0C01 		adcs	r1, r1, ip
 433 022e 1120     		movs	r0, #17
 434              	.LVL69:
 435 0230 FFF7FEFF 		bl	_test_assert
 436              	.LVL70:
 437 0234 0028     		cmp	r0, #0
 438 0236 7FF40FAF 		bne	.L1
 439              	.LBB17:
 440              		.loc 1 154 0
 441 023a 2023     		movs	r3, #32
 442              	.LVL71:
 443              	@ 154 "../../test/testmbox.c" 1
 444 023c 83F31188 		msr     BASEPRI, r3
 445              	@ 0 "" 2
 446              	.LVL72:
 447              		.thumb
 448              	.LBE17:
 449              		.loc 1 155 0
 450 0240 01A9     		add	r1, sp, #4
 451 0242 2046     		mov	r0, r4
 452 0244 FFF7FEFF 		bl	chMBFetchI
 453              	.LVL73:
 454              	.LBB18:
 455              		.loc 1 156 0
 456 0248 2B46     		mov	r3, r5
ARM GAS  /var/folders/dt/0wfd0knj7gs46m8vwfzktm600000gn/T//cca4GukL.s 			page 9


 457              	.LVL74:
 458              	.LBE18:
 459              		.loc 1 155 0
 460 024a 0146     		mov	r1, r0
 461              	.LVL75:
 462              	.LBB19:
 463              		.loc 1 156 0
 464              	@ 156 "../../test/testmbox.c" 1
 465 024c 83F31188 		msr     BASEPRI, r3
 466              	@ 0 "" 2
 467              	.LVL76:
 468              		.thumb
 469              	.LBE19:
 470              		.loc 1 157 0
 471 0250 1220     		movs	r0, #18
 472              	.LVL77:
 473 0252 B1F1FF3E 		subs	lr, r1, #-1
 474 0256 DEF10001 		rsbs	r1, lr, #0
 475              	.LVL78:
 476 025a 51EB0E01 		adcs	r1, r1, lr
 477 025e FFF7FEFF 		bl	_test_assert
 478              	.LVL79:
 479 0262 0028     		cmp	r0, #0
 480 0264 7FF4F8AE 		bne	.L1
 481              	.LBB20:
 482              		.loc 1 162 0
 483 0268 2023     		movs	r3, #32
 484              	.LVL80:
 485              	@ 162 "../../test/testmbox.c" 1
 486 026a 83F31188 		msr     BASEPRI, r3
 487              	@ 0 "" 2
 488              	.LVL81:
 489              		.thumb
 490              	.LBE20:
 491 026e 616A     		ldr	r1, [r4, #36]
 492 0270 1320     		movs	r0, #19
 493 0272 4A1F     		subs	r2, r1, #5
 494 0274 5142     		rsbs	r1, r2, #0
 495 0276 5141     		adcs	r1, r1, r2
 496 0278 FFF7FEFF 		bl	_test_assert
 497              	.LVL82:
 498              	.LBB21:
 499 027c 0023     		movs	r3, #0
 500              	@ 162 "../../test/testmbox.c" 1
 501 027e 83F31188 		msr     BASEPRI, r3
 502              	@ 0 "" 2
 503              	.LVL83:
 504              		.thumb
 505              	.LBE21:
 506 0282 0028     		cmp	r0, #0
 507 0284 7FF4E8AE 		bne	.L1
 508              	.LBB22:
 509              		.loc 1 163 0 discriminator 2
 510 0288 2023     		movs	r3, #32
 511              	.LVL84:
 512              	@ 163 "../../test/testmbox.c" 1
 513 028a 83F31188 		msr     BASEPRI, r3
ARM GAS  /var/folders/dt/0wfd0knj7gs46m8vwfzktm600000gn/T//cca4GukL.s 			page 10


 514              	@ 0 "" 2
 515              	.LVL85:
 516              		.thumb
 517              	.LBE22:
 518 028e B169     		ldr	r1, [r6, #24]
 519 0290 1420     		movs	r0, #20
 520 0292 D1F10101 		rsbs	r1, r1, #1
 521 0296 38BF     		it	cc
 522 0298 0021     		movcc	r1, #0
 523 029a FFF7FEFF 		bl	_test_assert
 524              	.LVL86:
 525 029e 0D4C     		ldr	r4, .L32
 526 02a0 0546     		mov	r5, r0
 527 02a2 18B1     		cbz	r0, .L10
 528              	.L27:
 529              	.LBB23:
 530              		.loc 1 230 0 discriminator 2
 531 02a4 0023     		movs	r3, #0
 532              	@ 230 "../../test/testmbox.c" 1
 533 02a6 83F31188 		msr     BASEPRI, r3
 534              	@ 0 "" 2
 535              	.LVL87:
 536              		.thumb
 537 02aa D5E6     		b	.L1
 538              	.LVL88:
 539              	.L10:
 540              	.LBE23:
 541              	.LBB24:
 542              		.loc 1 163 0 discriminator 2
 543 02ac 0346     		mov	r3, r0
 544              	.LVL89:
 545              	@ 163 "../../test/testmbox.c" 1
 546 02ae 83F31188 		msr     BASEPRI, r3
 547              	@ 0 "" 2
 548              	.LVL90:
 549              		.thumb
 550              	.LBE24:
 551              	.LBB25:
 552              		.loc 1 164 0 discriminator 2
 553 02b2 2023     		movs	r3, #32
 554              	.LVL91:
 555              	@ 164 "../../test/testmbox.c" 1
 556 02b4 83F31188 		msr     BASEPRI, r3
 557              	@ 0 "" 2
 558              	.LVL92:
 559              		.thumb
 560              	.LBE25:
 561 02b8 E168     		ldr	r1, [r4, #12]
 562 02ba A368     		ldr	r3, [r4, #8]
 563              	.LVL93:
 564 02bc 1520     		movs	r0, #21
 565 02be CB1A     		subs	r3, r1, r3
 566 02c0 5942     		rsbs	r1, r3, #0
 567 02c2 5941     		adcs	r1, r1, r3
 568 02c4 FFF7FEFF 		bl	_test_assert
 569              	.LVL94:
 570 02c8 0346     		mov	r3, r0
ARM GAS  /var/folders/dt/0wfd0knj7gs46m8vwfzktm600000gn/T//cca4GukL.s 			page 11


 571 02ca 38B1     		cbz	r0, .L11
 572              	.LBB26:
 573              		.loc 1 164 0 is_stmt 0 discriminator 1
 574 02cc 2B46     		mov	r3, r5
 575              	@ 164 "../../test/testmbox.c" 1
 576 02ce 83F31188 		msr     BASEPRI, r3
 577              	@ 0 "" 2
 578              	.LVL95:
 579              		.thumb
 580 02d2 C1E6     		b	.L1
 581              	.L33:
 582              		.align	2
 583              	.L32:
 584 02d4 00000000 		.word	.LANCHOR0
 585 02d8 00000000 		.word	.LC0
 586              	.LVL96:
 587              	.L11:
 588              	.LBE26:
 589              	.LBB27:
 590              		.loc 1 164 0 discriminator 2
 591              	@ 164 "../../test/testmbox.c" 1
 592 02dc 83F31188 		msr     BASEPRI, r3
 593              	@ 0 "" 2
 594              	.LVL97:
 595              		.thumb
 596              	.LBE27:
 597              	.LBB28:
 598              		.loc 1 169 0 is_stmt 1 discriminator 2
 599 02e0 2023     		movs	r3, #32
 600              	.LVL98:
 601              	@ 169 "../../test/testmbox.c" 1
 602 02e2 83F31188 		msr     BASEPRI, r3
 603              	@ 0 "" 2
 604              	.LVL99:
 605              		.thumb
 606              	.LBE28:
 607              		.loc 1 170 0 discriminator 2
 608 02e6 4121     		movs	r1, #65
 609 02e8 2046     		mov	r0, r4
 610 02ea FFF7FEFF 		bl	chMBPostI
 611              	.LVL100:
 612              		.loc 1 171 0 discriminator 2
 613 02ee D0F10101 		rsbs	r1, r0, #1
 614 02f2 38BF     		it	cc
 615 02f4 0021     		movcc	r1, #0
 616 02f6 1620     		movs	r0, #22
 617              	.LVL101:
 618 02f8 FFF7FEFF 		bl	_test_assert
 619              	.LVL102:
 620 02fc 0028     		cmp	r0, #0
 621 02fe 7FF4ABAE 		bne	.L1
 622              		.loc 1 172 0
 623 0302 4221     		movs	r1, #66
 624 0304 2046     		mov	r0, r4
 625 0306 FFF7FEFF 		bl	chMBPostI
 626              	.LVL103:
 627              		.loc 1 173 0
ARM GAS  /var/folders/dt/0wfd0knj7gs46m8vwfzktm600000gn/T//cca4GukL.s 			page 12


 628 030a D0F10101 		rsbs	r1, r0, #1
 629 030e 38BF     		it	cc
 630 0310 0021     		movcc	r1, #0
 631 0312 1720     		movs	r0, #23
 632              	.LVL104:
 633 0314 FFF7FEFF 		bl	_test_assert
 634              	.LVL105:
 635 0318 0028     		cmp	r0, #0
 636 031a 7FF49DAE 		bne	.L1
 637              		.loc 1 174 0
 638 031e 4321     		movs	r1, #67
 639 0320 2046     		mov	r0, r4
 640 0322 FFF7FEFF 		bl	chMBPostI
 641              	.LVL106:
 642              		.loc 1 175 0
 643 0326 D0F10101 		rsbs	r1, r0, #1
 644 032a 38BF     		it	cc
 645 032c 0021     		movcc	r1, #0
 646 032e 1820     		movs	r0, #24
 647              	.LVL107:
 648 0330 FFF7FEFF 		bl	_test_assert
 649              	.LVL108:
 650 0334 0028     		cmp	r0, #0
 651 0336 7FF48FAE 		bne	.L1
 652              		.loc 1 176 0
 653 033a 4421     		movs	r1, #68
 654 033c 2046     		mov	r0, r4
 655 033e FFF7FEFF 		bl	chMBPostI
 656              	.LVL109:
 657              		.loc 1 177 0
 658 0342 D0F10101 		rsbs	r1, r0, #1
 659 0346 38BF     		it	cc
 660 0348 0021     		movcc	r1, #0
 661 034a 1920     		movs	r0, #25
 662              	.LVL110:
 663 034c FFF7FEFF 		bl	_test_assert
 664              	.LVL111:
 665 0350 0546     		mov	r5, r0
 666 0352 0028     		cmp	r0, #0
 667 0354 7FF480AE 		bne	.L1
 668              		.loc 1 178 0
 669 0358 4521     		movs	r1, #69
 670 035a 2046     		mov	r0, r4
 671 035c FFF7FEFF 		bl	chMBPostI
 672              	.LVL112:
 673              	.LBB29:
 674              		.loc 1 179 0
 675 0360 2B46     		mov	r3, r5
 676              	.LVL113:
 677              	.LBE29:
 678              		.loc 1 178 0
 679 0362 0146     		mov	r1, r0
 680              	.LVL114:
 681              	.LBB30:
 682              		.loc 1 179 0
 683              	@ 179 "../../test/testmbox.c" 1
 684 0364 83F31188 		msr     BASEPRI, r3
ARM GAS  /var/folders/dt/0wfd0knj7gs46m8vwfzktm600000gn/T//cca4GukL.s 			page 13


 685              	@ 0 "" 2
 686              	.LVL115:
 687              		.thumb
 688              	.LBE30:
 689              		.loc 1 180 0
 690 0368 1A20     		movs	r0, #26
 691              	.LVL116:
 692 036a D1F10101 		rsbs	r1, r1, #1
 693              	.LVL117:
 694 036e 38BF     		it	cc
 695 0370 0021     		movcc	r1, #0
 696 0372 FFF7FEFF 		bl	_test_assert
 697              	.LVL118:
 698 0376 0028     		cmp	r0, #0
 699 0378 7FF46EAE 		bne	.L1
 700              		.loc 1 181 0
 701 037c E168     		ldr	r1, [r4, #12]
 702 037e A368     		ldr	r3, [r4, #8]
 703 0380 1B20     		movs	r0, #27
 704 0382 B1EB030C 		subs	ip, r1, r3
 705 0386 DCF10001 		rsbs	r1, ip, #0
 706 038a 51EB0C01 		adcs	r1, r1, ip
 707 038e FFF7FEFF 		bl	_test_assert
 708              	.LVL119:
 709 0392 0028     		cmp	r0, #0
 710 0394 7FF460AE 		bne	.L1
 711 0398 0525     		movs	r5, #5
 712              	.L12:
 713              	.LBB31:
 714              		.loc 1 183 0
 715 039a 2023     		movs	r3, #32
 716              	.LVL120:
 717              	@ 183 "../../test/testmbox.c" 1
 718 039c 83F31188 		msr     BASEPRI, r3
 719              	@ 0 "" 2
 720              	.LVL121:
 721              		.thumb
 722              	.LBE31:
 723              		.loc 1 184 0
 724 03a0 A04C     		ldr	r4, .L34
 725 03a2 01A9     		add	r1, sp, #4
 726 03a4 2046     		mov	r0, r4
 727 03a6 FFF7FEFF 		bl	chMBFetchI
 728              	.LVL122:
 729              	.LBB32:
 730              		.loc 1 185 0
 731 03aa 0023     		movs	r3, #0
 732              	.LVL123:
 733              	.LBE32:
 734              		.loc 1 184 0
 735 03ac 0146     		mov	r1, r0
 736              	.LVL124:
 737              	.LBB33:
 738              		.loc 1 185 0
 739              	@ 185 "../../test/testmbox.c" 1
 740 03ae 83F31188 		msr     BASEPRI, r3
 741              	@ 0 "" 2
ARM GAS  /var/folders/dt/0wfd0knj7gs46m8vwfzktm600000gn/T//cca4GukL.s 			page 14


 742              	.LVL125:
 743              		.thumb
 744              	.LBE33:
 745              		.loc 1 186 0
 746 03b2 1C20     		movs	r0, #28
 747              	.LVL126:
 748 03b4 B1EB030E 		subs	lr, r1, r3
 749              	.LVL127:
 750 03b8 DEF10001 		rsbs	r1, lr, #0
 751              	.LVL128:
 752 03bc 51EB0E01 		adcs	r1, r1, lr
 753 03c0 FFF7FEFF 		bl	_test_assert
 754              	.LVL129:
 755 03c4 0028     		cmp	r0, #0
 756 03c6 7FF447AE 		bne	.L1
 757              		.loc 1 187 0
 758 03ca 9DF80400 		ldrb	r0, [sp, #4]	@ zero_extendqisi2
 759 03ce FFF7FEFF 		bl	test_emit_token
 760              	.LVL130:
 761              		.loc 1 182 0
 762 03d2 013D     		subs	r5, r5, #1
 763 03d4 E1D1     		bne	.L12
 764              		.loc 1 189 0
 765 03d6 1D20     		movs	r0, #29
 766 03d8 9349     		ldr	r1, .L34+4
 767 03da FFF7FEFF 		bl	_test_assert_sequence
 768              	.LVL131:
 769 03de 0028     		cmp	r0, #0
 770 03e0 7FF43AAE 		bne	.L1
 771              	.LBB34:
 772              		.loc 1 190 0
 773 03e4 2023     		movs	r3, #32
 774              	.LVL132:
 775              	@ 190 "../../test/testmbox.c" 1
 776 03e6 83F31188 		msr     BASEPRI, r3
 777              	@ 0 "" 2
 778              	.LVL133:
 779              		.thumb
 780              	.LBE34:
 781 03ea 616A     		ldr	r1, [r4, #36]
 782 03ec 1E20     		movs	r0, #30
 783 03ee 4A1F     		subs	r2, r1, #5
 784 03f0 5142     		rsbs	r1, r2, #0
 785 03f2 5141     		adcs	r1, r1, r2
 786 03f4 FFF7FEFF 		bl	_test_assert
 787              	.LVL134:
 788              	.LBB35:
 789 03f8 2B46     		mov	r3, r5
 790              	@ 190 "../../test/testmbox.c" 1
 791 03fa 83F31188 		msr     BASEPRI, r3
 792              	@ 0 "" 2
 793              	.LVL135:
 794              		.thumb
 795              	.LBE35:
 796 03fe 0028     		cmp	r0, #0
 797 0400 7FF42AAE 		bne	.L1
 798              	.LBB36:
ARM GAS  /var/folders/dt/0wfd0knj7gs46m8vwfzktm600000gn/T//cca4GukL.s 			page 15


 799              		.loc 1 191 0 discriminator 2
 800 0404 2023     		movs	r3, #32
 801              	.LVL136:
 802              	@ 191 "../../test/testmbox.c" 1
 803 0406 83F31188 		msr     BASEPRI, r3
 804              	@ 0 "" 2
 805              	.LVL137:
 806              		.thumb
 807              	.LBE36:
 808 040a A169     		ldr	r1, [r4, #24]
 809 040c 1F20     		movs	r0, #31
 810 040e D1F10101 		rsbs	r1, r1, #1
 811 0412 38BF     		it	cc
 812 0414 0021     		movcc	r1, #0
 813 0416 FFF7FEFF 		bl	_test_assert
 814              	.LVL138:
 815              	.LBB37:
 816 041a 2B46     		mov	r3, r5
 817              	@ 191 "../../test/testmbox.c" 1
 818 041c 83F31188 		msr     BASEPRI, r3
 819              	@ 0 "" 2
 820              	.LVL139:
 821              		.thumb
 822              	.LBE37:
 823 0420 0028     		cmp	r0, #0
 824 0422 7FF419AE 		bne	.L1
 825              		.loc 1 192 0 discriminator 2
 826 0426 E168     		ldr	r1, [r4, #12]
 827 0428 A368     		ldr	r3, [r4, #8]
 828              	.LVL140:
 829 042a 2020     		movs	r0, #32
 830 042c CB1A     		subs	r3, r1, r3
 831 042e 5942     		rsbs	r1, r3, #0
 832 0430 5941     		adcs	r1, r1, r3
 833 0432 FFF7FEFF 		bl	_test_assert
 834              	.LVL141:
 835 0436 0028     		cmp	r0, #0
 836 0438 7FF40EAE 		bne	.L1
 837              	.LBB38:
 838              		.loc 1 194 0
 839 043c 2023     		movs	r3, #32
 840              	.LVL142:
 841              	@ 194 "../../test/testmbox.c" 1
 842 043e 83F31188 		msr     BASEPRI, r3
 843              	@ 0 "" 2
 844              	.LVL143:
 845              		.thumb
 846              	.LBE38:
 847              		.loc 1 195 0
 848 0442 4521     		movs	r1, #69
 849 0444 2046     		mov	r0, r4
 850 0446 FFF7FEFF 		bl	chMBPostAheadI
 851              	.LVL144:
 852              		.loc 1 196 0
 853 044a D0F10101 		rsbs	r1, r0, #1
 854 044e 38BF     		it	cc
 855 0450 0021     		movcc	r1, #0
ARM GAS  /var/folders/dt/0wfd0knj7gs46m8vwfzktm600000gn/T//cca4GukL.s 			page 16


 856 0452 2120     		movs	r0, #33
 857              	.LVL145:
 858 0454 FFF7FEFF 		bl	_test_assert
 859              	.LVL146:
 860 0458 0028     		cmp	r0, #0
 861 045a 7FF4FDAD 		bne	.L1
 862              		.loc 1 197 0
 863 045e 4421     		movs	r1, #68
 864 0460 2046     		mov	r0, r4
 865 0462 FFF7FEFF 		bl	chMBPostAheadI
 866              	.LVL147:
 867              		.loc 1 198 0
 868 0466 D0F10101 		rsbs	r1, r0, #1
 869 046a 38BF     		it	cc
 870 046c 0021     		movcc	r1, #0
 871 046e 2220     		movs	r0, #34
 872              	.LVL148:
 873 0470 FFF7FEFF 		bl	_test_assert
 874              	.LVL149:
 875 0474 0028     		cmp	r0, #0
 876 0476 7FF4EFAD 		bne	.L1
 877              		.loc 1 199 0
 878 047a 4321     		movs	r1, #67
 879 047c 2046     		mov	r0, r4
 880 047e FFF7FEFF 		bl	chMBPostAheadI
 881              	.LVL150:
 882              		.loc 1 200 0
 883 0482 D0F10101 		rsbs	r1, r0, #1
 884 0486 38BF     		it	cc
 885 0488 0021     		movcc	r1, #0
 886 048a 2320     		movs	r0, #35
 887              	.LVL151:
 888 048c FFF7FEFF 		bl	_test_assert
 889              	.LVL152:
 890 0490 0028     		cmp	r0, #0
 891 0492 7FF4E1AD 		bne	.L1
 892              		.loc 1 201 0
 893 0496 4221     		movs	r1, #66
 894 0498 2046     		mov	r0, r4
 895 049a FFF7FEFF 		bl	chMBPostAheadI
 896              	.LVL153:
 897              		.loc 1 202 0
 898 049e D0F10101 		rsbs	r1, r0, #1
 899 04a2 38BF     		it	cc
 900 04a4 0021     		movcc	r1, #0
 901 04a6 2420     		movs	r0, #36
 902              	.LVL154:
 903 04a8 FFF7FEFF 		bl	_test_assert
 904              	.LVL155:
 905 04ac 0028     		cmp	r0, #0
 906 04ae 7FF4D3AD 		bne	.L1
 907              		.loc 1 203 0
 908 04b2 5C4C     		ldr	r4, .L34
 909 04b4 4121     		movs	r1, #65
 910 04b6 2046     		mov	r0, r4
 911 04b8 FFF7FEFF 		bl	chMBPostAheadI
 912              	.LVL156:
ARM GAS  /var/folders/dt/0wfd0knj7gs46m8vwfzktm600000gn/T//cca4GukL.s 			page 17


 913              	.LBB39:
 914              		.loc 1 204 0
 915 04bc 0023     		movs	r3, #0
 916              	.LVL157:
 917              	.LBE39:
 918              		.loc 1 203 0
 919 04be 0146     		mov	r1, r0
 920              	.LVL158:
 921              	.LBB40:
 922              		.loc 1 204 0
 923              	@ 204 "../../test/testmbox.c" 1
 924 04c0 83F31188 		msr     BASEPRI, r3
 925              	@ 0 "" 2
 926              	.LVL159:
 927              		.thumb
 928              	.LBE40:
 929              		.loc 1 205 0
 930 04c4 2520     		movs	r0, #37
 931              	.LVL160:
 932 04c6 B1EB030C 		subs	ip, r1, r3
 933              	.LVL161:
 934 04ca DCF10001 		rsbs	r1, ip, #0
 935              	.LVL162:
 936 04ce 51EB0C01 		adcs	r1, r1, ip
 937 04d2 FFF7FEFF 		bl	_test_assert
 938              	.LVL163:
 939 04d6 0028     		cmp	r0, #0
 940 04d8 7FF4BEAD 		bne	.L1
 941              		.loc 1 206 0
 942 04dc E168     		ldr	r1, [r4, #12]
 943 04de A368     		ldr	r3, [r4, #8]
 944 04e0 2620     		movs	r0, #38
 945 04e2 B1EB030E 		subs	lr, r1, r3
 946 04e6 DEF10001 		rsbs	r1, lr, #0
 947 04ea 51EB0E01 		adcs	r1, r1, lr
 948 04ee FFF7FEFF 		bl	_test_assert
 949              	.LVL164:
 950 04f2 0028     		cmp	r0, #0
 951 04f4 7FF4B0AD 		bne	.L1
 952 04f8 0524     		movs	r4, #5
 953              	.L15:
 954              	.LBB41:
 955              		.loc 1 208 0
 956 04fa 2023     		movs	r3, #32
 957              	.LVL165:
 958              	@ 208 "../../test/testmbox.c" 1
 959 04fc 83F31188 		msr     BASEPRI, r3
 960              	@ 0 "" 2
 961              	.LVL166:
 962              		.thumb
 963              	.LBE41:
 964              		.loc 1 209 0
 965 0500 484D     		ldr	r5, .L34
 966 0502 01A9     		add	r1, sp, #4
 967 0504 2846     		mov	r0, r5
 968 0506 FFF7FEFF 		bl	chMBFetchI
 969              	.LVL167:
ARM GAS  /var/folders/dt/0wfd0knj7gs46m8vwfzktm600000gn/T//cca4GukL.s 			page 18


 970              	.LBB42:
 971              		.loc 1 210 0
 972 050a 0023     		movs	r3, #0
 973              	.LVL168:
 974              	.LBE42:
 975              		.loc 1 209 0
 976 050c 0146     		mov	r1, r0
 977              	.LVL169:
 978              	.LBB43:
 979              		.loc 1 210 0
 980              	@ 210 "../../test/testmbox.c" 1
 981 050e 83F31188 		msr     BASEPRI, r3
 982              	@ 0 "" 2
 983              	.LVL170:
 984              		.thumb
 985              	.LBE43:
 986              		.loc 1 211 0
 987 0512 2720     		movs	r0, #39
 988              	.LVL171:
 989 0514 CA1A     		subs	r2, r1, r3
 990              	.LVL172:
 991 0516 5142     		rsbs	r1, r2, #0
 992              	.LVL173:
 993 0518 5141     		adcs	r1, r1, r2
 994 051a FFF7FEFF 		bl	_test_assert
 995              	.LVL174:
 996 051e 0028     		cmp	r0, #0
 997 0520 7FF49AAD 		bne	.L1
 998              		.loc 1 212 0
 999 0524 9DF80400 		ldrb	r0, [sp, #4]	@ zero_extendqisi2
 1000 0528 FFF7FEFF 		bl	test_emit_token
 1001              	.LVL175:
 1002              		.loc 1 207 0
 1003 052c 013C     		subs	r4, r4, #1
 1004 052e E4D1     		bne	.L15
 1005              		.loc 1 214 0
 1006 0530 2820     		movs	r0, #40
 1007 0532 3D49     		ldr	r1, .L34+4
 1008 0534 FFF7FEFF 		bl	_test_assert_sequence
 1009              	.LVL176:
 1010 0538 0028     		cmp	r0, #0
 1011 053a 7FF48DAD 		bne	.L1
 1012              	.LBB44:
 1013              		.loc 1 215 0
 1014 053e 2023     		movs	r3, #32
 1015              	.LVL177:
 1016              	@ 215 "../../test/testmbox.c" 1
 1017 0540 83F31188 		msr     BASEPRI, r3
 1018              	@ 0 "" 2
 1019              	.LVL178:
 1020              		.thumb
 1021              	.LBE44:
 1022 0544 696A     		ldr	r1, [r5, #36]
 1023 0546 2920     		movs	r0, #41
 1024 0548 4B1F     		subs	r3, r1, #5
 1025              	.LVL179:
 1026 054a 5942     		rsbs	r1, r3, #0
ARM GAS  /var/folders/dt/0wfd0knj7gs46m8vwfzktm600000gn/T//cca4GukL.s 			page 19


 1027 054c 5941     		adcs	r1, r1, r3
 1028 054e FFF7FEFF 		bl	_test_assert
 1029              	.LVL180:
 1030              	.LBB45:
 1031 0552 2346     		mov	r3, r4
 1032              	@ 215 "../../test/testmbox.c" 1
 1033 0554 83F31188 		msr     BASEPRI, r3
 1034              	@ 0 "" 2
 1035              	.LVL181:
 1036              		.thumb
 1037              	.LBE45:
 1038 0558 0028     		cmp	r0, #0
 1039 055a 7FF47DAD 		bne	.L1
 1040              	.LBB46:
 1041              		.loc 1 216 0 discriminator 2
 1042 055e 2023     		movs	r3, #32
 1043              	.LVL182:
 1044              	@ 216 "../../test/testmbox.c" 1
 1045 0560 83F31188 		msr     BASEPRI, r3
 1046              	@ 0 "" 2
 1047              	.LVL183:
 1048              		.thumb
 1049              	.LBE46:
 1050 0564 A969     		ldr	r1, [r5, #24]
 1051 0566 2A20     		movs	r0, #42
 1052 0568 D1F10101 		rsbs	r1, r1, #1
 1053 056c 38BF     		it	cc
 1054 056e 0021     		movcc	r1, #0
 1055 0570 FFF7FEFF 		bl	_test_assert
 1056              	.LVL184:
 1057              	.LBB47:
 1058 0574 2346     		mov	r3, r4
 1059              	@ 216 "../../test/testmbox.c" 1
 1060 0576 83F31188 		msr     BASEPRI, r3
 1061              	@ 0 "" 2
 1062              	.LVL185:
 1063              		.thumb
 1064              	.LBE47:
 1065 057a 0028     		cmp	r0, #0
 1066 057c 7FF46CAD 		bne	.L1
 1067              		.loc 1 217 0 discriminator 2
 1068 0580 E968     		ldr	r1, [r5, #12]
 1069 0582 AB68     		ldr	r3, [r5, #8]
 1070              	.LVL186:
 1071 0584 2B20     		movs	r0, #43
 1072 0586 B1EB030C 		subs	ip, r1, r3
 1073 058a DCF10001 		rsbs	r1, ip, #0
 1074 058e 51EB0C01 		adcs	r1, r1, ip
 1075 0592 FFF7FEFF 		bl	_test_assert
 1076              	.LVL187:
 1077 0596 0028     		cmp	r0, #0
 1078 0598 7FF45EAD 		bne	.L1
 1079              		.loc 1 222 0
 1080 059c 2846     		mov	r0, r5
 1081 059e FFF7FEFF 		bl	chMBReset
 1082              	.LVL188:
 1083              	.LBB48:
ARM GAS  /var/folders/dt/0wfd0knj7gs46m8vwfzktm600000gn/T//cca4GukL.s 			page 20


 1084              		.loc 1 227 0
 1085 05a2 2023     		movs	r3, #32
 1086              	.LVL189:
 1087              	@ 227 "../../test/testmbox.c" 1
 1088 05a4 83F31188 		msr     BASEPRI, r3
 1089              	@ 0 "" 2
 1090              	.LVL190:
 1091              		.thumb
 1092              	.LBE48:
 1093 05a8 696A     		ldr	r1, [r5, #36]
 1094 05aa 2C20     		movs	r0, #44
 1095 05ac B1F1050E 		subs	lr, r1, #5
 1096 05b0 DEF10001 		rsbs	r1, lr, #0
 1097 05b4 51EB0E01 		adcs	r1, r1, lr
 1098 05b8 FFF7FEFF 		bl	_test_assert
 1099              	.LVL191:
 1100              	.LBB49:
 1101 05bc 2346     		mov	r3, r4
 1102              	@ 227 "../../test/testmbox.c" 1
 1103 05be 83F31188 		msr     BASEPRI, r3
 1104              	@ 0 "" 2
 1105              	.LVL192:
 1106              		.thumb
 1107              	.LBE49:
 1108 05c2 0028     		cmp	r0, #0
 1109 05c4 7FF448AD 		bne	.L1
 1110              	.LBB50:
 1111              		.loc 1 228 0 discriminator 2
 1112 05c8 2023     		movs	r3, #32
 1113              	.LVL193:
 1114              	@ 228 "../../test/testmbox.c" 1
 1115 05ca 83F31188 		msr     BASEPRI, r3
 1116              	@ 0 "" 2
 1117              	.LVL194:
 1118              		.thumb
 1119              	.LBE50:
 1120 05ce A969     		ldr	r1, [r5, #24]
 1121 05d0 2D20     		movs	r0, #45
 1122 05d2 D1F10101 		rsbs	r1, r1, #1
 1123 05d6 38BF     		it	cc
 1124 05d8 0021     		movcc	r1, #0
 1125 05da FFF7FEFF 		bl	_test_assert
 1126              	.LVL195:
 1127              	.LBB51:
 1128 05de 2346     		mov	r3, r4
 1129              	@ 228 "../../test/testmbox.c" 1
 1130 05e0 83F31188 		msr     BASEPRI, r3
 1131              	@ 0 "" 2
 1132              	.LVL196:
 1133              		.thumb
 1134              	.LBE51:
 1135 05e4 0028     		cmp	r0, #0
 1136 05e6 7FF437AD 		bne	.L1
 1137              	.LBB52:
 1138              		.loc 1 229 0 discriminator 2
 1139 05ea 2023     		movs	r3, #32
 1140              	.LVL197:
ARM GAS  /var/folders/dt/0wfd0knj7gs46m8vwfzktm600000gn/T//cca4GukL.s 			page 21


 1141              	@ 229 "../../test/testmbox.c" 1
 1142 05ec 83F31188 		msr     BASEPRI, r3
 1143              	@ 0 "" 2
 1144              	.LVL198:
 1145              		.thumb
 1146              	.LBE52:
 1147 05f0 2968     		ldr	r1, [r5, #0]
 1148 05f2 AB68     		ldr	r3, [r5, #8]
 1149              	.LVL199:
 1150 05f4 2E20     		movs	r0, #46
 1151 05f6 CA1A     		subs	r2, r1, r3
 1152 05f8 5142     		rsbs	r1, r2, #0
 1153 05fa 5141     		adcs	r1, r1, r2
 1154 05fc FFF7FEFF 		bl	_test_assert
 1155              	.LVL200:
 1156              	.LBB53:
 1157 0600 2346     		mov	r3, r4
 1158              	@ 229 "../../test/testmbox.c" 1
 1159 0602 83F31188 		msr     BASEPRI, r3
 1160              	@ 0 "" 2
 1161              	.LVL201:
 1162              		.thumb
 1163              	.LBE53:
 1164 0606 0028     		cmp	r0, #0
 1165 0608 7FF426AD 		bne	.L1
 1166              	.LBB54:
 1167              		.loc 1 230 0 discriminator 2
 1168 060c 2023     		movs	r3, #32
 1169              	.LVL202:
 1170              	@ 230 "../../test/testmbox.c" 1
 1171 060e 83F31188 		msr     BASEPRI, r3
 1172              	@ 0 "" 2
 1173              	.LVL203:
 1174              		.thumb
 1175              	.LBE54:
 1176 0612 2968     		ldr	r1, [r5, #0]
 1177 0614 EB68     		ldr	r3, [r5, #12]
 1178              	.LVL204:
 1179 0616 2F20     		movs	r0, #47
 1180 0618 CB1A     		subs	r3, r1, r3
 1181 061a 5942     		rsbs	r1, r3, #0
 1182 061c 5941     		adcs	r1, r1, r3
 1183 061e FFF7FEFF 		bl	_test_assert
 1184              	.LVL205:
 1185 0622 3FE6     		b	.L27
 1186              	.L35:
 1187              		.align	2
 1188              	.L34:
 1189 0624 00000000 		.word	.LANCHOR0
 1190 0628 00000000 		.word	.LC0
 1191              		.cfi_endproc
 1192              	.LFE8:
 1193              		.size	mbox1_execute, .-mbox1_execute
 1194 062c AFF30080 		.section	.text.mbox1_setup,"ax",%progbits
 1195              		.align	2
 1196              		.p2align 4,,15
 1197              		.thumb
ARM GAS  /var/folders/dt/0wfd0knj7gs46m8vwfzktm600000gn/T//cca4GukL.s 			page 22


 1198              		.thumb_func
 1199              		.type	mbox1_setup, %function
 1200              	mbox1_setup:
 1201              	.LFB7:
 1202              		.loc 1 82 0
 1203              		.cfi_startproc
 1204              		@ args = 0, pretend = 0, frame = 0
 1205              		@ frame_needed = 0, uses_anonymous_args = 0
 1206              		@ link register save eliminated.
 1207              		.loc 1 84 0
 1208 0000 40F20000 		movw	r0, #:lower16:.LANCHOR0
 1209 0004 40F20001 		movw	r1, #:lower16:test
 1210 0008 C0F20000 		movt	r0, #:upper16:.LANCHOR0
 1211 000c C0F20001 		movt	r1, #:upper16:test
 1212 0010 0522     		movs	r2, #5
 1213              		.loc 1 85 0
 1214              		.loc 1 84 0
 1215 0012 FFF7FEBF 		b	chMBInit
 1216              	.LVL206:
 1217              		.cfi_endproc
 1218              	.LFE7:
 1219              		.size	mbox1_setup, .-mbox1_setup
 1220              		.global	patternmbox
 1221              		.global	testmbox1
 1222 0016 00BFAFF3 		.section	.data.mb1,"aw",%progbits
 1222      0080AFF3 
 1222      0080
 1223              		.align	2
 1224              		.set	.LANCHOR0,. + 0
 1225              		.type	mb1, %object
 1226              		.size	mb1, 40
 1227              	mb1:
 1228 0000 00000000 		.word	test
 1229 0004 14000000 		.word	test+20
 1230 0008 00000000 		.word	test
 1231 000c 00000000 		.word	test
 1232 0010 10000000 		.word	mb1+16
 1233 0014 10000000 		.word	mb1+16
 1234 0018 00000000 		.word	0
 1235 001c 1C000000 		.word	mb1+28
 1236 0020 1C000000 		.word	mb1+28
 1237 0024 05000000 		.word	5
 1238              		.section	.rodata.patternmbox,"a",%progbits
 1239              		.align	2
 1240              		.type	patternmbox, %object
 1241              		.size	patternmbox, 8
 1242              	patternmbox:
 1243 0000 00000000 		.word	testmbox1
 1244 0004 00000000 		.word	0
 1245              		.section	.rodata.str1.4,"aMS",%progbits,1
 1246              		.align	2
 1247              	.LC0:
 1248 0000 41424344 		.ascii	"ABCDE\000"
 1248      4500
 1249 0006 0000     		.space	2
 1250              	.LC1:
 1251 0008 4D61696C 		.ascii	"Mailboxes, queuing and timeouts\000"
ARM GAS  /var/folders/dt/0wfd0knj7gs46m8vwfzktm600000gn/T//cca4GukL.s 			page 23


 1251      626F7865 
 1251      732C2071 
 1251      75657569 
 1251      6E672061 
 1252              		.section	.rodata.testmbox1,"a",%progbits
 1253              		.align	2
 1254              		.type	testmbox1, %object
 1255              		.size	testmbox1, 16
 1256              	testmbox1:
 1257 0000 08000000 		.word	.LC1
 1258 0004 00000000 		.word	mbox1_setup
 1259 0008 00000000 		.word	0
 1260 000c 00000000 		.word	mbox1_execute
 1261              		.text
 1262              	.Letext0:
 1263              		.file 2 "/Users/toxygen/Applications/yagarto-4.7.2/bin/../lib/gcc/arm-none-eabi/4.7.2/../../../../
 1264              		.file 3 "../../os/ports/GCC/ARMCMx/chtypes.h"
 1265              		.file 4 "../../os/kernel/include/chlists.h"
 1266              		.file 5 "../../os/kernel/include/chthreads.h"
 1267              		.file 6 "../../os/ports/GCC/ARMCMx/chcore_v7m.h"
 1268              		.file 7 "../../os/kernel/include/chsem.h"
 1269              		.file 8 "../../os/kernel/include/chmtx.h"
 1270              		.file 9 "../../os/kernel/include/chmboxes.h"
 1271              		.file 10 "../../test/test.h"
 1272              		.section	.debug_info,"",%progbits
 1273              	.Ldebug_info0:
 1274 0000 E8120000 		.4byte	0x12e8
 1275 0004 0200     		.2byte	0x2
 1276 0006 00000000 		.4byte	.Ldebug_abbrev0
 1277 000a 04       		.byte	0x4
 1278 000b 01       		.uleb128 0x1
 1279 000c 70020000 		.4byte	.LASF89
 1280 0010 01       		.byte	0x1
 1281 0011 D4020000 		.4byte	.LASF90
 1282 0015 06000000 		.4byte	.LASF91
 1283 0019 A8000000 		.4byte	.Ldebug_ranges0+0xa8
 1284 001d 00000000 		.4byte	0
 1285 0021 00000000 		.4byte	0
 1286 0025 00000000 		.4byte	.Ldebug_line0
 1287 0029 02       		.uleb128 0x2
 1288 002a 04       		.byte	0x4
 1289 002b 05       		.byte	0x5
 1290 002c 696E7400 		.ascii	"int\000"
 1291 0030 03       		.uleb128 0x3
 1292 0031 04       		.byte	0x4
 1293 0032 07       		.byte	0x7
 1294 0033 46010000 		.4byte	.LASF0
 1295 0037 03       		.uleb128 0x3
 1296 0038 01       		.byte	0x1
 1297 0039 06       		.byte	0x6
 1298 003a D9000000 		.4byte	.LASF1
 1299 003e 04       		.uleb128 0x4
 1300 003f A6030000 		.4byte	.LASF5
 1301 0043 02       		.byte	0x2
 1302 0044 2A       		.byte	0x2a
 1303 0045 49000000 		.4byte	0x49
 1304 0049 03       		.uleb128 0x3
ARM GAS  /var/folders/dt/0wfd0knj7gs46m8vwfzktm600000gn/T//cca4GukL.s 			page 24


 1305 004a 01       		.byte	0x1
 1306 004b 08       		.byte	0x8
 1307 004c A3020000 		.4byte	.LASF2
 1308 0050 03       		.uleb128 0x3
 1309 0051 02       		.byte	0x2
 1310 0052 05       		.byte	0x5
 1311 0053 CA020000 		.4byte	.LASF3
 1312 0057 03       		.uleb128 0x3
 1313 0058 02       		.byte	0x2
 1314 0059 07       		.byte	0x7
 1315 005a AE010000 		.4byte	.LASF4
 1316 005e 04       		.uleb128 0x4
 1317 005f 9B020000 		.4byte	.LASF6
 1318 0063 02       		.byte	0x2
 1319 0064 4F       		.byte	0x4f
 1320 0065 69000000 		.4byte	0x69
 1321 0069 03       		.uleb128 0x3
 1322 006a 04       		.byte	0x4
 1323 006b 05       		.byte	0x5
 1324 006c 15010000 		.4byte	.LASF7
 1325 0070 04       		.uleb128 0x4
 1326 0071 1B030000 		.4byte	.LASF8
 1327 0075 02       		.byte	0x2
 1328 0076 50       		.byte	0x50
 1329 0077 7B000000 		.4byte	0x7b
 1330 007b 03       		.uleb128 0x3
 1331 007c 04       		.byte	0x4
 1332 007d 07       		.byte	0x7
 1333 007e 66010000 		.4byte	.LASF9
 1334 0082 03       		.uleb128 0x3
 1335 0083 08       		.byte	0x8
 1336 0084 05       		.byte	0x5
 1337 0085 CB000000 		.4byte	.LASF10
 1338 0089 04       		.uleb128 0x4
 1339 008a 60000000 		.4byte	.LASF11
 1340 008e 02       		.byte	0x2
 1341 008f 78       		.byte	0x78
 1342 0090 94000000 		.4byte	0x94
 1343 0094 03       		.uleb128 0x3
 1344 0095 08       		.byte	0x8
 1345 0096 07       		.byte	0x7
 1346 0097 8A000000 		.4byte	.LASF12
 1347 009b 04       		.uleb128 0x4
 1348 009c ED000000 		.4byte	.LASF13
 1349 00a0 03       		.byte	0x3
 1350 00a1 2E       		.byte	0x2e
 1351 00a2 5E000000 		.4byte	0x5e
 1352 00a6 04       		.uleb128 0x4
 1353 00a7 D2010000 		.4byte	.LASF14
 1354 00ab 03       		.byte	0x3
 1355 00ac 2F       		.byte	0x2f
 1356 00ad 3E000000 		.4byte	0x3e
 1357 00b1 04       		.uleb128 0x4
 1358 00b2 1E010000 		.4byte	.LASF15
 1359 00b6 03       		.byte	0x3
 1360 00b7 30       		.byte	0x30
 1361 00b8 3E000000 		.4byte	0x3e
ARM GAS  /var/folders/dt/0wfd0knj7gs46m8vwfzktm600000gn/T//cca4GukL.s 			page 25


 1362 00bc 04       		.uleb128 0x4
 1363 00bd 7C020000 		.4byte	.LASF16
 1364 00c1 03       		.byte	0x3
 1365 00c2 31       		.byte	0x31
 1366 00c3 3E000000 		.4byte	0x3e
 1367 00c7 04       		.uleb128 0x4
 1368 00c8 93020000 		.4byte	.LASF17
 1369 00cc 03       		.byte	0x3
 1370 00cd 32       		.byte	0x32
 1371 00ce 70000000 		.4byte	0x70
 1372 00d2 04       		.uleb128 0x4
 1373 00d3 CC010000 		.4byte	.LASF18
 1374 00d7 03       		.byte	0x3
 1375 00d8 33       		.byte	0x33
 1376 00d9 5E000000 		.4byte	0x5e
 1377 00dd 04       		.uleb128 0x4
 1378 00de F2010000 		.4byte	.LASF19
 1379 00e2 03       		.byte	0x3
 1380 00e3 35       		.byte	0x35
 1381 00e4 70000000 		.4byte	0x70
 1382 00e8 04       		.uleb128 0x4
 1383 00e9 30030000 		.4byte	.LASF20
 1384 00ed 03       		.byte	0x3
 1385 00ee 36       		.byte	0x36
 1386 00ef 70000000 		.4byte	0x70
 1387 00f3 04       		.uleb128 0x4
 1388 00f4 40010000 		.4byte	.LASF21
 1389 00f8 03       		.byte	0x3
 1390 00f9 37       		.byte	0x37
 1391 00fa 5E000000 		.4byte	0x5e
 1392 00fe 04       		.uleb128 0x4
 1393 00ff 00030000 		.4byte	.LASF22
 1394 0103 04       		.byte	0x4
 1395 0104 2A       		.byte	0x2a
 1396 0105 09010000 		.4byte	0x109
 1397 0109 05       		.uleb128 0x5
 1398 010a 00030000 		.4byte	.LASF22
 1399 010e 48       		.byte	0x48
 1400 010f 05       		.byte	0x5
 1401 0110 5E       		.byte	0x5e
 1402 0111 20020000 		.4byte	0x220
 1403 0115 06       		.uleb128 0x6
 1404 0116 F1020000 		.4byte	.LASF23
 1405 011a 05       		.byte	0x5
 1406 011b 5F       		.byte	0x5f
 1407 011c 45020000 		.4byte	0x245
 1408 0120 02       		.byte	0x2
 1409 0121 23       		.byte	0x23
 1410 0122 00       		.uleb128 0
 1411 0123 06       		.uleb128 0x6
 1412 0124 84020000 		.4byte	.LASF24
 1413 0128 05       		.byte	0x5
 1414 0129 61       		.byte	0x61
 1415 012a 45020000 		.4byte	0x245
 1416 012e 02       		.byte	0x2
 1417 012f 23       		.byte	0x23
 1418 0130 04       		.uleb128 0x4
ARM GAS  /var/folders/dt/0wfd0knj7gs46m8vwfzktm600000gn/T//cca4GukL.s 			page 26


 1419 0131 06       		.uleb128 0x6
 1420 0132 C4000000 		.4byte	.LASF25
 1421 0136 05       		.byte	0x5
 1422 0137 63       		.byte	0x63
 1423 0138 C7000000 		.4byte	0xc7
 1424 013c 02       		.byte	0x2
 1425 013d 23       		.byte	0x23
 1426 013e 08       		.uleb128 0x8
 1427 013f 06       		.uleb128 0x6
 1428 0140 D1030000 		.4byte	.LASF26
 1429 0144 05       		.byte	0x5
 1430 0145 64       		.byte	0x64
 1431 0146 1D030000 		.4byte	0x31d
 1432 014a 02       		.byte	0x2
 1433 014b 23       		.byte	0x23
 1434 014c 0C       		.uleb128 0xc
 1435 014d 06       		.uleb128 0x6
 1436 014e 27010000 		.4byte	.LASF27
 1437 0152 05       		.byte	0x5
 1438 0153 66       		.byte	0x66
 1439 0154 45020000 		.4byte	0x245
 1440 0158 02       		.byte	0x2
 1441 0159 23       		.byte	0x23
 1442 015a 10       		.uleb128 0x10
 1443 015b 06       		.uleb128 0x6
 1444 015c 35020000 		.4byte	.LASF28
 1445 0160 05       		.byte	0x5
 1446 0161 67       		.byte	0x67
 1447 0162 45020000 		.4byte	0x245
 1448 0166 02       		.byte	0x2
 1449 0167 23       		.byte	0x23
 1450 0168 14       		.uleb128 0x14
 1451 0169 06       		.uleb128 0x6
 1452 016a B5030000 		.4byte	.LASF29
 1453 016e 05       		.byte	0x5
 1454 016f 6E       		.byte	0x6e
 1455 0170 6B040000 		.4byte	0x46b
 1456 0174 02       		.byte	0x2
 1457 0175 23       		.byte	0x23
 1458 0176 18       		.uleb128 0x18
 1459 0177 06       		.uleb128 0x6
 1460 0178 F4000000 		.4byte	.LASF30
 1461 017c 05       		.byte	0x5
 1462 017d 79       		.byte	0x79
 1463 017e B1000000 		.4byte	0xb1
 1464 0182 02       		.byte	0x2
 1465 0183 23       		.byte	0x23
 1466 0184 1C       		.uleb128 0x1c
 1467 0185 06       		.uleb128 0x6
 1468 0186 F8020000 		.4byte	.LASF31
 1469 018a 05       		.byte	0x5
 1470 018b 7D       		.byte	0x7d
 1471 018c A6000000 		.4byte	0xa6
 1472 0190 02       		.byte	0x2
 1473 0191 23       		.byte	0x23
 1474 0192 1D       		.uleb128 0x1d
 1475 0193 06       		.uleb128 0x6
ARM GAS  /var/folders/dt/0wfd0knj7gs46m8vwfzktm600000gn/T//cca4GukL.s 			page 27


 1476 0194 9F030000 		.4byte	.LASF32
 1477 0198 05       		.byte	0x5
 1478 0199 82       		.byte	0x82
 1479 019a BC000000 		.4byte	0xbc
 1480 019e 02       		.byte	0x2
 1481 019f 23       		.byte	0x23
 1482 01a0 1E       		.uleb128 0x1e
 1483 01a1 06       		.uleb128 0x6
 1484 01a2 4C030000 		.4byte	.LASF33
 1485 01a6 05       		.byte	0x5
 1486 01a7 89       		.byte	0x89
 1487 01a8 47030000 		.4byte	0x347
 1488 01ac 02       		.byte	0x2
 1489 01ad 23       		.byte	0x23
 1490 01ae 20       		.uleb128 0x20
 1491 01af 07       		.uleb128 0x7
 1492 01b0 705F7500 		.ascii	"p_u\000"
 1493 01b4 05       		.byte	0x5
 1494 01b5 AE       		.byte	0xae
 1495 01b6 36040000 		.4byte	0x436
 1496 01ba 02       		.byte	0x2
 1497 01bb 23       		.byte	0x23
 1498 01bc 24       		.uleb128 0x24
 1499 01bd 06       		.uleb128 0x6
 1500 01be D7030000 		.4byte	.LASF34
 1501 01c2 05       		.byte	0x5
 1502 01c3 B3       		.byte	0xb3
 1503 01c4 6D020000 		.4byte	0x26d
 1504 01c8 02       		.byte	0x2
 1505 01c9 23       		.byte	0x23
 1506 01ca 28       		.uleb128 0x28
 1507 01cb 06       		.uleb128 0x6
 1508 01cc 68030000 		.4byte	.LASF35
 1509 01d0 05       		.byte	0x5
 1510 01d1 B9       		.byte	0xb9
 1511 01d2 4B020000 		.4byte	0x24b
 1512 01d6 02       		.byte	0x2
 1513 01d7 23       		.byte	0x23
 1514 01d8 2C       		.uleb128 0x2c
 1515 01d9 06       		.uleb128 0x6
 1516 01da 00000000 		.4byte	.LASF36
 1517 01de 05       		.byte	0x5
 1518 01df BD       		.byte	0xbd
 1519 01e0 D2000000 		.4byte	0xd2
 1520 01e4 02       		.byte	0x2
 1521 01e5 23       		.byte	0x23
 1522 01e6 34       		.uleb128 0x34
 1523 01e7 06       		.uleb128 0x6
 1524 01e8 10030000 		.4byte	.LASF37
 1525 01ec 05       		.byte	0x5
 1526 01ed C3       		.byte	0xc3
 1527 01ee DD000000 		.4byte	0xdd
 1528 01f2 02       		.byte	0x2
 1529 01f3 23       		.byte	0x23
 1530 01f4 38       		.uleb128 0x38
 1531 01f5 06       		.uleb128 0x6
 1532 01f6 C0020000 		.4byte	.LASF38
ARM GAS  /var/folders/dt/0wfd0knj7gs46m8vwfzktm600000gn/T//cca4GukL.s 			page 28


 1533 01fa 05       		.byte	0x5
 1534 01fb CA       		.byte	0xca
 1535 01fc 7D040000 		.4byte	0x47d
 1536 0200 02       		.byte	0x2
 1537 0201 23       		.byte	0x23
 1538 0202 3C       		.uleb128 0x3c
 1539 0203 06       		.uleb128 0x6
 1540 0204 3A030000 		.4byte	.LASF39
 1541 0208 05       		.byte	0x5
 1542 0209 CE       		.byte	0xce
 1543 020a C7000000 		.4byte	0xc7
 1544 020e 02       		.byte	0x2
 1545 020f 23       		.byte	0x23
 1546 0210 40       		.uleb128 0x40
 1547 0211 06       		.uleb128 0x6
 1548 0212 E5000000 		.4byte	.LASF40
 1549 0216 05       		.byte	0x5
 1550 0217 D4       		.byte	0xd4
 1551 0218 83020000 		.4byte	0x283
 1552 021c 02       		.byte	0x2
 1553 021d 23       		.byte	0x23
 1554 021e 44       		.uleb128 0x44
 1555 021f 00       		.byte	0
 1556 0220 08       		.uleb128 0x8
 1557 0221 08       		.byte	0x8
 1558 0222 04       		.byte	0x4
 1559 0223 61       		.byte	0x61
 1560 0224 45020000 		.4byte	0x245
 1561 0228 06       		.uleb128 0x6
 1562 0229 F1020000 		.4byte	.LASF23
 1563 022d 04       		.byte	0x4
 1564 022e 62       		.byte	0x62
 1565 022f 45020000 		.4byte	0x245
 1566 0233 02       		.byte	0x2
 1567 0234 23       		.byte	0x23
 1568 0235 00       		.uleb128 0
 1569 0236 06       		.uleb128 0x6
 1570 0237 84020000 		.4byte	.LASF24
 1571 023b 04       		.byte	0x4
 1572 023c 64       		.byte	0x64
 1573 023d 45020000 		.4byte	0x245
 1574 0241 02       		.byte	0x2
 1575 0242 23       		.byte	0x23
 1576 0243 04       		.uleb128 0x4
 1577 0244 00       		.byte	0
 1578 0245 09       		.uleb128 0x9
 1579 0246 04       		.byte	0x4
 1580 0247 FE000000 		.4byte	0xfe
 1581 024b 04       		.uleb128 0x4
 1582 024c 3D020000 		.4byte	.LASF41
 1583 0250 04       		.byte	0x4
 1584 0251 66       		.byte	0x66
 1585 0252 20020000 		.4byte	0x220
 1586 0256 08       		.uleb128 0x8
 1587 0257 04       		.byte	0x4
 1588 0258 04       		.byte	0x4
 1589 0259 6B       		.byte	0x6b
ARM GAS  /var/folders/dt/0wfd0knj7gs46m8vwfzktm600000gn/T//cca4GukL.s 			page 29


 1590 025a 6D020000 		.4byte	0x26d
 1591 025e 06       		.uleb128 0x6
 1592 025f F1020000 		.4byte	.LASF23
 1593 0263 04       		.byte	0x4
 1594 0264 6D       		.byte	0x6d
 1595 0265 45020000 		.4byte	0x245
 1596 0269 02       		.byte	0x2
 1597 026a 23       		.byte	0x23
 1598 026b 00       		.uleb128 0
 1599 026c 00       		.byte	0
 1600 026d 04       		.uleb128 0x4
 1601 026e E6010000 		.4byte	.LASF42
 1602 0272 04       		.byte	0x4
 1603 0273 70       		.byte	0x70
 1604 0274 56020000 		.4byte	0x256
 1605 0278 04       		.uleb128 0x4
 1606 0279 37010000 		.4byte	.LASF43
 1607 027d 06       		.byte	0x6
 1608 027e D7       		.byte	0xd7
 1609 027f 83020000 		.4byte	0x283
 1610 0283 0A       		.uleb128 0xa
 1611 0284 04       		.byte	0x4
 1612 0285 04       		.uleb128 0x4
 1613 0286 0E020000 		.4byte	.LASF44
 1614 028a 06       		.byte	0x6
 1615 028b DD       		.byte	0xdd
 1616 028c 89000000 		.4byte	0x89
 1617 0290 05       		.uleb128 0x5
 1618 0291 61030000 		.4byte	.LASF45
 1619 0295 24       		.byte	0x24
 1620 0296 06       		.byte	0x6
 1621 0297 FE       		.byte	0xfe
 1622 0298 1D030000 		.4byte	0x31d
 1623 029c 0B       		.uleb128 0xb
 1624 029d 723400   		.ascii	"r4\000"
 1625 02a0 06       		.byte	0x6
 1626 02a1 1101     		.2byte	0x111
 1627 02a3 78020000 		.4byte	0x278
 1628 02a7 02       		.byte	0x2
 1629 02a8 23       		.byte	0x23
 1630 02a9 00       		.uleb128 0
 1631 02aa 0B       		.uleb128 0xb
 1632 02ab 723500   		.ascii	"r5\000"
 1633 02ae 06       		.byte	0x6
 1634 02af 1201     		.2byte	0x112
 1635 02b1 78020000 		.4byte	0x278
 1636 02b5 02       		.byte	0x2
 1637 02b6 23       		.byte	0x23
 1638 02b7 04       		.uleb128 0x4
 1639 02b8 0B       		.uleb128 0xb
 1640 02b9 723600   		.ascii	"r6\000"
 1641 02bc 06       		.byte	0x6
 1642 02bd 1301     		.2byte	0x113
 1643 02bf 78020000 		.4byte	0x278
 1644 02c3 02       		.byte	0x2
 1645 02c4 23       		.byte	0x23
 1646 02c5 08       		.uleb128 0x8
ARM GAS  /var/folders/dt/0wfd0knj7gs46m8vwfzktm600000gn/T//cca4GukL.s 			page 30


 1647 02c6 0B       		.uleb128 0xb
 1648 02c7 723700   		.ascii	"r7\000"
 1649 02ca 06       		.byte	0x6
 1650 02cb 1401     		.2byte	0x114
 1651 02cd 78020000 		.4byte	0x278
 1652 02d1 02       		.byte	0x2
 1653 02d2 23       		.byte	0x23
 1654 02d3 0C       		.uleb128 0xc
 1655 02d4 0B       		.uleb128 0xb
 1656 02d5 723800   		.ascii	"r8\000"
 1657 02d8 06       		.byte	0x6
 1658 02d9 1501     		.2byte	0x115
 1659 02db 78020000 		.4byte	0x278
 1660 02df 02       		.byte	0x2
 1661 02e0 23       		.byte	0x23
 1662 02e1 10       		.uleb128 0x10
 1663 02e2 0B       		.uleb128 0xb
 1664 02e3 723900   		.ascii	"r9\000"
 1665 02e6 06       		.byte	0x6
 1666 02e7 1601     		.2byte	0x116
 1667 02e9 78020000 		.4byte	0x278
 1668 02ed 02       		.byte	0x2
 1669 02ee 23       		.byte	0x23
 1670 02ef 14       		.uleb128 0x14
 1671 02f0 0B       		.uleb128 0xb
 1672 02f1 72313000 		.ascii	"r10\000"
 1673 02f5 06       		.byte	0x6
 1674 02f6 1701     		.2byte	0x117
 1675 02f8 78020000 		.4byte	0x278
 1676 02fc 02       		.byte	0x2
 1677 02fd 23       		.byte	0x23
 1678 02fe 18       		.uleb128 0x18
 1679 02ff 0B       		.uleb128 0xb
 1680 0300 72313100 		.ascii	"r11\000"
 1681 0304 06       		.byte	0x6
 1682 0305 1801     		.2byte	0x118
 1683 0307 78020000 		.4byte	0x278
 1684 030b 02       		.byte	0x2
 1685 030c 23       		.byte	0x23
 1686 030d 1C       		.uleb128 0x1c
 1687 030e 0B       		.uleb128 0xb
 1688 030f 6C7200   		.ascii	"lr\000"
 1689 0312 06       		.byte	0x6
 1690 0313 1901     		.2byte	0x119
 1691 0315 78020000 		.4byte	0x278
 1692 0319 02       		.byte	0x2
 1693 031a 23       		.byte	0x23
 1694 031b 20       		.uleb128 0x20
 1695 031c 00       		.byte	0
 1696 031d 0C       		.uleb128 0xc
 1697 031e A6010000 		.4byte	.LASF46
 1698 0322 04       		.byte	0x4
 1699 0323 06       		.byte	0x6
 1700 0324 2301     		.2byte	0x123
 1701 0326 3A030000 		.4byte	0x33a
 1702 032a 0B       		.uleb128 0xb
 1703 032b 72313300 		.ascii	"r13\000"
ARM GAS  /var/folders/dt/0wfd0knj7gs46m8vwfzktm600000gn/T//cca4GukL.s 			page 31


 1704 032f 06       		.byte	0x6
 1705 0330 2401     		.2byte	0x124
 1706 0332 3A030000 		.4byte	0x33a
 1707 0336 02       		.byte	0x2
 1708 0337 23       		.byte	0x23
 1709 0338 00       		.uleb128 0
 1710 0339 00       		.byte	0
 1711 033a 09       		.uleb128 0x9
 1712 033b 04       		.byte	0x4
 1713 033c 90020000 		.4byte	0x290
 1714 0340 03       		.uleb128 0x3
 1715 0341 04       		.byte	0x4
 1716 0342 07       		.byte	0x7
 1717 0343 19020000 		.4byte	.LASF47
 1718 0347 0D       		.uleb128 0xd
 1719 0348 E8000000 		.4byte	0xe8
 1720 034c 05       		.uleb128 0x5
 1721 034d 7D030000 		.4byte	.LASF48
 1722 0351 0C       		.byte	0xc
 1723 0352 07       		.byte	0x7
 1724 0353 2C       		.byte	0x2c
 1725 0354 75030000 		.4byte	0x375
 1726 0358 06       		.uleb128 0x6
 1727 0359 2F010000 		.4byte	.LASF49
 1728 035d 07       		.byte	0x7
 1729 035e 2D       		.byte	0x2d
 1730 035f 4B020000 		.4byte	0x24b
 1731 0363 02       		.byte	0x2
 1732 0364 23       		.byte	0x23
 1733 0365 00       		.uleb128 0
 1734 0366 06       		.uleb128 0x6
 1735 0367 A0010000 		.4byte	.LASF50
 1736 036b 07       		.byte	0x7
 1737 036c 2F       		.byte	0x2f
 1738 036d F3000000 		.4byte	0xf3
 1739 0371 02       		.byte	0x2
 1740 0372 23       		.byte	0x23
 1741 0373 08       		.uleb128 0x8
 1742 0374 00       		.byte	0
 1743 0375 04       		.uleb128 0x4
 1744 0376 7D030000 		.4byte	.LASF48
 1745 037a 07       		.byte	0x7
 1746 037b 30       		.byte	0x30
 1747 037c 4C030000 		.4byte	0x34c
 1748 0380 05       		.uleb128 0x5
 1749 0381 FE010000 		.4byte	.LASF51
 1750 0385 10       		.byte	0x10
 1751 0386 08       		.byte	0x8
 1752 0387 2C       		.byte	0x2c
 1753 0388 B7030000 		.4byte	0x3b7
 1754 038c 06       		.uleb128 0x6
 1755 038d B1020000 		.4byte	.LASF52
 1756 0391 08       		.byte	0x8
 1757 0392 2D       		.byte	0x2d
 1758 0393 4B020000 		.4byte	0x24b
 1759 0397 02       		.byte	0x2
 1760 0398 23       		.byte	0x23
ARM GAS  /var/folders/dt/0wfd0knj7gs46m8vwfzktm600000gn/T//cca4GukL.s 			page 32


 1761 0399 00       		.uleb128 0
 1762 039a 06       		.uleb128 0x6
 1763 039b C9030000 		.4byte	.LASF53
 1764 039f 08       		.byte	0x8
 1765 03a0 2F       		.byte	0x2f
 1766 03a1 45020000 		.4byte	0x245
 1767 03a5 02       		.byte	0x2
 1768 03a6 23       		.byte	0x23
 1769 03a7 08       		.uleb128 0x8
 1770 03a8 06       		.uleb128 0x6
 1771 03a9 29030000 		.4byte	.LASF54
 1772 03ad 08       		.byte	0x8
 1773 03ae 31       		.byte	0x31
 1774 03af B7030000 		.4byte	0x3b7
 1775 03b3 02       		.byte	0x2
 1776 03b4 23       		.byte	0x23
 1777 03b5 0C       		.uleb128 0xc
 1778 03b6 00       		.byte	0
 1779 03b7 09       		.uleb128 0x9
 1780 03b8 04       		.byte	0x4
 1781 03b9 80030000 		.4byte	0x380
 1782 03bd 04       		.uleb128 0x4
 1783 03be FE010000 		.4byte	.LASF51
 1784 03c2 08       		.byte	0x8
 1785 03c3 33       		.byte	0x33
 1786 03c4 80030000 		.4byte	0x380
 1787 03c8 08       		.uleb128 0x8
 1788 03c9 28       		.byte	0x28
 1789 03ca 09       		.byte	0x9
 1790 03cb 33       		.byte	0x33
 1791 03cc 25040000 		.4byte	0x425
 1792 03d0 06       		.uleb128 0x6
 1793 03d1 66020000 		.4byte	.LASF55
 1794 03d5 09       		.byte	0x9
 1795 03d6 34       		.byte	0x34
 1796 03d7 25040000 		.4byte	0x425
 1797 03db 02       		.byte	0x2
 1798 03dc 23       		.byte	0x23
 1799 03dd 00       		.uleb128 0
 1800 03de 06       		.uleb128 0x6
 1801 03df B9020000 		.4byte	.LASF56
 1802 03e3 09       		.byte	0x9
 1803 03e4 36       		.byte	0x36
 1804 03e5 25040000 		.4byte	0x425
 1805 03e9 02       		.byte	0x2
 1806 03ea 23       		.byte	0x23
 1807 03eb 04       		.uleb128 0x4
 1808 03ec 06       		.uleb128 0x6
 1809 03ed BB000000 		.4byte	.LASF57
 1810 03f1 09       		.byte	0x9
 1811 03f2 38       		.byte	0x38
 1812 03f3 25040000 		.4byte	0x425
 1813 03f7 02       		.byte	0x2
 1814 03f8 23       		.byte	0x23
 1815 03f9 08       		.uleb128 0x8
 1816 03fa 06       		.uleb128 0x6
 1817 03fb 22020000 		.4byte	.LASF58
ARM GAS  /var/folders/dt/0wfd0knj7gs46m8vwfzktm600000gn/T//cca4GukL.s 			page 33


 1818 03ff 09       		.byte	0x9
 1819 0400 39       		.byte	0x39
 1820 0401 25040000 		.4byte	0x425
 1821 0405 02       		.byte	0x2
 1822 0406 23       		.byte	0x23
 1823 0407 0C       		.uleb128 0xc
 1824 0408 06       		.uleb128 0x6
 1825 0409 87030000 		.4byte	.LASF59
 1826 040d 09       		.byte	0x9
 1827 040e 3A       		.byte	0x3a
 1828 040f 75030000 		.4byte	0x375
 1829 0413 02       		.byte	0x2
 1830 0414 23       		.byte	0x23
 1831 0415 10       		.uleb128 0x10
 1832 0416 06       		.uleb128 0x6
 1833 0417 8F010000 		.4byte	.LASF60
 1834 041b 09       		.byte	0x9
 1835 041c 3C       		.byte	0x3c
 1836 041d 75030000 		.4byte	0x375
 1837 0421 02       		.byte	0x2
 1838 0422 23       		.byte	0x23
 1839 0423 1C       		.uleb128 0x1c
 1840 0424 00       		.byte	0
 1841 0425 09       		.uleb128 0x9
 1842 0426 04       		.byte	0x4
 1843 0427 D2000000 		.4byte	0xd2
 1844 042b 04       		.uleb128 0x4
 1845 042c 73000000 		.4byte	.LASF61
 1846 0430 09       		.byte	0x9
 1847 0431 3E       		.byte	0x3e
 1848 0432 C8030000 		.4byte	0x3c8
 1849 0436 0E       		.uleb128 0xe
 1850 0437 04       		.byte	0x4
 1851 0438 05       		.byte	0x5
 1852 0439 90       		.byte	0x90
 1853 043a 6B040000 		.4byte	0x46b
 1854 043e 0F       		.uleb128 0xf
 1855 043f 59000000 		.4byte	.LASF62
 1856 0443 05       		.byte	0x5
 1857 0444 97       		.byte	0x97
 1858 0445 D2000000 		.4byte	0xd2
 1859 0449 0F       		.uleb128 0xf
 1860 044a AD000000 		.4byte	.LASF63
 1861 044e 05       		.byte	0x5
 1862 044f 9E       		.byte	0x9e
 1863 0450 D2000000 		.4byte	0xd2
 1864 0454 0F       		.uleb128 0xf
 1865 0455 AE030000 		.4byte	.LASF64
 1866 0459 05       		.byte	0x5
 1867 045a A5       		.byte	0xa5
 1868 045b 83020000 		.4byte	0x283
 1869 045f 0F       		.uleb128 0xf
 1870 0460 EA020000 		.4byte	.LASF65
 1871 0464 05       		.byte	0x5
 1872 0465 AC       		.byte	0xac
 1873 0466 DD000000 		.4byte	0xdd
 1874 046a 00       		.byte	0
ARM GAS  /var/folders/dt/0wfd0knj7gs46m8vwfzktm600000gn/T//cca4GukL.s 			page 34


 1875 046b 09       		.uleb128 0x9
 1876 046c 04       		.byte	0x4
 1877 046d 71040000 		.4byte	0x471
 1878 0471 10       		.uleb128 0x10
 1879 0472 76040000 		.4byte	0x476
 1880 0476 03       		.uleb128 0x3
 1881 0477 01       		.byte	0x1
 1882 0478 08       		.byte	0x8
 1883 0479 24030000 		.4byte	.LASF66
 1884 047d 09       		.uleb128 0x9
 1885 047e 04       		.byte	0x4
 1886 047f BD030000 		.4byte	0x3bd
 1887 0483 05       		.uleb128 0x5
 1888 0484 07030000 		.4byte	.LASF67
 1889 0488 10       		.byte	0x10
 1890 0489 0A       		.byte	0xa
 1891 048a 46       		.byte	0x46
 1892 048b C8040000 		.4byte	0x4c8
 1893 048f 06       		.uleb128 0x6
 1894 0490 9B010000 		.4byte	.LASF68
 1895 0494 0A       		.byte	0xa
 1896 0495 47       		.byte	0x47
 1897 0496 6B040000 		.4byte	0x46b
 1898 049a 02       		.byte	0x2
 1899 049b 23       		.byte	0x23
 1900 049c 00       		.uleb128 0
 1901 049d 06       		.uleb128 0x6
 1902 049e 4A020000 		.4byte	.LASF69
 1903 04a2 0A       		.byte	0xa
 1904 04a3 48       		.byte	0x48
 1905 04a4 CA040000 		.4byte	0x4ca
 1906 04a8 02       		.byte	0x2
 1907 04a9 23       		.byte	0x23
 1908 04aa 04       		.uleb128 0x4
 1909 04ab 06       		.uleb128 0x6
 1910 04ac 86010000 		.4byte	.LASF70
 1911 04b0 0A       		.byte	0xa
 1912 04b1 49       		.byte	0x49
 1913 04b2 CA040000 		.4byte	0x4ca
 1914 04b6 02       		.byte	0x2
 1915 04b7 23       		.byte	0x23
 1916 04b8 08       		.uleb128 0x8
 1917 04b9 06       		.uleb128 0x6
 1918 04ba 8B020000 		.4byte	.LASF71
 1919 04be 0A       		.byte	0xa
 1920 04bf 4A       		.byte	0x4a
 1921 04c0 CA040000 		.4byte	0x4ca
 1922 04c4 02       		.byte	0x2
 1923 04c5 23       		.byte	0x23
 1924 04c6 0C       		.uleb128 0xc
 1925 04c7 00       		.byte	0
 1926 04c8 11       		.uleb128 0x11
 1927 04c9 01       		.byte	0x1
 1928 04ca 09       		.uleb128 0x9
 1929 04cb 04       		.byte	0x4
 1930 04cc C8040000 		.4byte	0x4c8
 1931 04d0 12       		.uleb128 0x12
ARM GAS  /var/folders/dt/0wfd0knj7gs46m8vwfzktm600000gn/T//cca4GukL.s 			page 35


 1932 04d1 F005     		.2byte	0x5f0
 1933 04d3 0A       		.byte	0xa
 1934 04d4 4F       		.byte	0x4f
 1935 04d5 1F050000 		.4byte	0x51f
 1936 04d9 07       		.uleb128 0x7
 1937 04da 543000   		.ascii	"T0\000"
 1938 04dd 0A       		.byte	0xa
 1939 04de 50       		.byte	0x50
 1940 04df 1F050000 		.4byte	0x51f
 1941 04e3 02       		.byte	0x2
 1942 04e4 23       		.byte	0x23
 1943 04e5 00       		.uleb128 0
 1944 04e6 07       		.uleb128 0x7
 1945 04e7 543100   		.ascii	"T1\000"
 1946 04ea 0A       		.byte	0xa
 1947 04eb 51       		.byte	0x51
 1948 04ec 1F050000 		.4byte	0x51f
 1949 04f0 03       		.byte	0x3
 1950 04f1 23       		.byte	0x23
 1951 04f2 B002     		.uleb128 0x130
 1952 04f4 07       		.uleb128 0x7
 1953 04f5 543200   		.ascii	"T2\000"
 1954 04f8 0A       		.byte	0xa
 1955 04f9 52       		.byte	0x52
 1956 04fa 1F050000 		.4byte	0x51f
 1957 04fe 03       		.byte	0x3
 1958 04ff 23       		.byte	0x23
 1959 0500 E004     		.uleb128 0x260
 1960 0502 07       		.uleb128 0x7
 1961 0503 543300   		.ascii	"T3\000"
 1962 0506 0A       		.byte	0xa
 1963 0507 53       		.byte	0x53
 1964 0508 1F050000 		.4byte	0x51f
 1965 050c 03       		.byte	0x3
 1966 050d 23       		.byte	0x23
 1967 050e 9007     		.uleb128 0x390
 1968 0510 07       		.uleb128 0x7
 1969 0511 543400   		.ascii	"T4\000"
 1970 0514 0A       		.byte	0xa
 1971 0515 54       		.byte	0x54
 1972 0516 1F050000 		.4byte	0x51f
 1973 051a 03       		.byte	0x3
 1974 051b 23       		.byte	0x23
 1975 051c C009     		.uleb128 0x4c0
 1976 051e 00       		.byte	0
 1977 051f 13       		.uleb128 0x13
 1978 0520 85020000 		.4byte	0x285
 1979 0524 2F050000 		.4byte	0x52f
 1980 0528 14       		.uleb128 0x14
 1981 0529 40030000 		.4byte	0x340
 1982 052d 25       		.byte	0x25
 1983 052e 00       		.byte	0
 1984 052f 15       		.uleb128 0x15
 1985 0530 92030000 		.4byte	.LASF92
 1986 0534 F005     		.2byte	0x5f0
 1987 0536 0A       		.byte	0xa
 1988 0537 4E       		.byte	0x4e
ARM GAS  /var/folders/dt/0wfd0knj7gs46m8vwfzktm600000gn/T//cca4GukL.s 			page 36


 1989 0538 52050000 		.4byte	0x552
 1990 053c 16       		.uleb128 0x16
 1991 053d 776100   		.ascii	"wa\000"
 1992 0540 0A       		.byte	0xa
 1993 0541 55       		.byte	0x55
 1994 0542 D0040000 		.4byte	0x4d0
 1995 0546 0F       		.uleb128 0xf
 1996 0547 45030000 		.4byte	.LASF72
 1997 054b 0A       		.byte	0xa
 1998 054c 56       		.byte	0x56
 1999 054d 52050000 		.4byte	0x552
 2000 0551 00       		.byte	0
 2001 0552 13       		.uleb128 0x13
 2002 0553 3E000000 		.4byte	0x3e
 2003 0557 63050000 		.4byte	0x563
 2004 055b 17       		.uleb128 0x17
 2005 055c 40030000 		.4byte	0x340
 2006 0560 EF05     		.2byte	0x5ef
 2007 0562 00       		.byte	0
 2008 0563 18       		.uleb128 0x18
 2009 0564 78010000 		.4byte	.LASF74
 2010 0568 01       		.byte	0x1
 2011 0569 57       		.byte	0x57
 2012 056a 01       		.byte	0x1
 2013 056b 00000000 		.4byte	.LFB8
 2014 056f 2C060000 		.4byte	.LFE8
 2015 0573 00000000 		.4byte	.LLST0
 2016 0577 01       		.byte	0x1
 2017 0578 12110000 		.4byte	0x1112
 2018 057c 19       		.uleb128 0x19
 2019 057d 5C010000 		.4byte	.LASF73
 2020 0581 01       		.byte	0x1
 2021 0582 58       		.byte	0x58
 2022 0583 D2000000 		.4byte	0xd2
 2023 0587 2C000000 		.4byte	.LLST1
 2024 058b 1A       		.uleb128 0x1a
 2025 058c 61010000 		.4byte	.LASF93
 2026 0590 01       		.byte	0x1
 2027 0591 58       		.byte	0x58
 2028 0592 D2000000 		.4byte	0xd2
 2029 0596 1B       		.uleb128 0x1b
 2030 0597 6900     		.ascii	"i\000"
 2031 0599 01       		.byte	0x1
 2032 059a 59       		.byte	0x59
 2033 059b 30000000 		.4byte	0x30
 2034 059f ED010000 		.4byte	.LLST2
 2035 05a3 1C       		.uleb128 0x1c
 2036 05a4 7E000000 		.4byte	.LBB2
 2037 05a8 84000000 		.4byte	.LBE2
 2038 05ac C0050000 		.4byte	0x5c0
 2039 05b0 1B       		.uleb128 0x1b
 2040 05b1 746D7000 		.ascii	"tmp\000"
 2041 05b5 01       		.byte	0x1
 2042 05b6 6F       		.byte	0x6f
 2043 05b7 70000000 		.4byte	0x70
 2044 05bb 01020000 		.4byte	.LLST3
 2045 05bf 00       		.byte	0
ARM GAS  /var/folders/dt/0wfd0knj7gs46m8vwfzktm600000gn/T//cca4GukL.s 			page 37


 2046 05c0 1D       		.uleb128 0x1d
 2047 05c1 00000000 		.4byte	.Ldebug_ranges0+0
 2048 05c5 D9050000 		.4byte	0x5d9
 2049 05c9 1B       		.uleb128 0x1b
 2050 05ca 746D7000 		.ascii	"tmp\000"
 2051 05ce 01       		.byte	0x1
 2052 05cf 71       		.byte	0x71
 2053 05d0 70000000 		.4byte	0x70
 2054 05d4 14020000 		.4byte	.LLST4
 2055 05d8 00       		.byte	0
 2056 05d9 1C       		.uleb128 0x1c
 2057 05da C8000000 		.4byte	.LBB5
 2058 05de CE000000 		.4byte	.LBE5
 2059 05e2 F6050000 		.4byte	0x5f6
 2060 05e6 1B       		.uleb128 0x1b
 2061 05e7 746D7000 		.ascii	"tmp\000"
 2062 05eb 01       		.byte	0x1
 2063 05ec 75       		.byte	0x75
 2064 05ed 70000000 		.4byte	0x70
 2065 05f1 27020000 		.4byte	.LLST5
 2066 05f5 00       		.byte	0
 2067 05f6 1D       		.uleb128 0x1d
 2068 05f7 18000000 		.4byte	.Ldebug_ranges0+0x18
 2069 05fb 0F060000 		.4byte	0x60f
 2070 05ff 1B       		.uleb128 0x1b
 2071 0600 746D7000 		.ascii	"tmp\000"
 2072 0604 01       		.byte	0x1
 2073 0605 77       		.byte	0x77
 2074 0606 70000000 		.4byte	0x70
 2075 060a 3A020000 		.4byte	.LLST6
 2076 060e 00       		.byte	0
 2077 060f 1C       		.uleb128 0x1c
 2078 0610 F2000000 		.4byte	.LBB8
 2079 0614 F8000000 		.4byte	.LBE8
 2080 0618 2C060000 		.4byte	0x62c
 2081 061c 1B       		.uleb128 0x1b
 2082 061d 746D7000 		.ascii	"tmp\000"
 2083 0621 01       		.byte	0x1
 2084 0622 7D       		.byte	0x7d
 2085 0623 70000000 		.4byte	0x70
 2086 0627 4D020000 		.4byte	.LLST7
 2087 062b 00       		.byte	0
 2088 062c 1C       		.uleb128 0x1c
 2089 062d 0C010000 		.4byte	.LBB9
 2090 0631 14010000 		.4byte	.LBE9
 2091 0635 49060000 		.4byte	0x649
 2092 0639 1B       		.uleb128 0x1b
 2093 063a 746D7000 		.ascii	"tmp\000"
 2094 063e 01       		.byte	0x1
 2095 063f 7D       		.byte	0x7d
 2096 0640 70000000 		.4byte	0x70
 2097 0644 60020000 		.4byte	.LLST8
 2098 0648 00       		.byte	0
 2099 0649 1C       		.uleb128 0x1c
 2100 064a 14010000 		.4byte	.LBB10
 2101 064e 1A010000 		.4byte	.LBE10
 2102 0652 66060000 		.4byte	0x666
ARM GAS  /var/folders/dt/0wfd0knj7gs46m8vwfzktm600000gn/T//cca4GukL.s 			page 38


 2103 0656 1B       		.uleb128 0x1b
 2104 0657 746D7000 		.ascii	"tmp\000"
 2105 065b 01       		.byte	0x1
 2106 065c 7D       		.byte	0x7d
 2107 065d 70000000 		.4byte	0x70
 2108 0661 7E020000 		.4byte	.LLST9
 2109 0665 00       		.byte	0
 2110 0666 1C       		.uleb128 0x1c
 2111 0667 1A010000 		.4byte	.LBB11
 2112 066b 20010000 		.4byte	.LBE11
 2113 066f 83060000 		.4byte	0x683
 2114 0673 1B       		.uleb128 0x1b
 2115 0674 746D7000 		.ascii	"tmp\000"
 2116 0678 01       		.byte	0x1
 2117 0679 7E       		.byte	0x7e
 2118 067a 70000000 		.4byte	0x70
 2119 067e 91020000 		.4byte	.LLST10
 2120 0682 00       		.byte	0
 2121 0683 1C       		.uleb128 0x1c
 2122 0684 38010000 		.4byte	.LBB12
 2123 0688 40010000 		.4byte	.LBE12
 2124 068c A0060000 		.4byte	0x6a0
 2125 0690 1B       		.uleb128 0x1b
 2126 0691 746D7000 		.ascii	"tmp\000"
 2127 0695 01       		.byte	0x1
 2128 0696 7E       		.byte	0x7e
 2129 0697 70000000 		.4byte	0x70
 2130 069b A4020000 		.4byte	.LLST11
 2131 069f 00       		.byte	0
 2132 06a0 1C       		.uleb128 0x1c
 2133 06a1 40010000 		.4byte	.LBB13
 2134 06a5 44010000 		.4byte	.LBE13
 2135 06a9 BD060000 		.4byte	0x6bd
 2136 06ad 1B       		.uleb128 0x1b
 2137 06ae 746D7000 		.ascii	"tmp\000"
 2138 06b2 01       		.byte	0x1
 2139 06b3 7E       		.byte	0x7e
 2140 06b4 70000000 		.4byte	0x70
 2141 06b8 C2020000 		.4byte	.LLST12
 2142 06bc 00       		.byte	0
 2143 06bd 1C       		.uleb128 0x1c
 2144 06be 44010000 		.4byte	.LBB14
 2145 06c2 4A010000 		.4byte	.LBE14
 2146 06c6 DA060000 		.4byte	0x6da
 2147 06ca 1B       		.uleb128 0x1b
 2148 06cb 746D7000 		.ascii	"tmp\000"
 2149 06cf 01       		.byte	0x1
 2150 06d0 7F       		.byte	0x7f
 2151 06d1 70000000 		.4byte	0x70
 2152 06d5 D5020000 		.4byte	.LLST13
 2153 06d9 00       		.byte	0
 2154 06da 1C       		.uleb128 0x1c
 2155 06db 60010000 		.4byte	.LBB15
 2156 06df 66010000 		.4byte	.LBE15
 2157 06e3 F7060000 		.4byte	0x6f7
 2158 06e7 1B       		.uleb128 0x1b
 2159 06e8 746D7000 		.ascii	"tmp\000"
ARM GAS  /var/folders/dt/0wfd0knj7gs46m8vwfzktm600000gn/T//cca4GukL.s 			page 39


 2160 06ec 01       		.byte	0x1
 2161 06ed 7F       		.byte	0x7f
 2162 06ee 70000000 		.4byte	0x70
 2163 06f2 E8020000 		.4byte	.LLST14
 2164 06f6 00       		.byte	0
 2165 06f7 1C       		.uleb128 0x1c
 2166 06f8 6C010000 		.4byte	.LBB16
 2167 06fc 70010000 		.4byte	.LBE16
 2168 0700 12070000 		.4byte	0x712
 2169 0704 1E       		.uleb128 0x1e
 2170 0705 746D7000 		.ascii	"tmp\000"
 2171 0709 01       		.byte	0x1
 2172 070a 7F       		.byte	0x7f
 2173 070b 70000000 		.4byte	0x70
 2174 070f 01       		.byte	0x1
 2175 0710 53       		.byte	0x53
 2176 0711 00       		.byte	0
 2177 0712 1C       		.uleb128 0x1c
 2178 0713 3A020000 		.4byte	.LBB17
 2179 0717 40020000 		.4byte	.LBE17
 2180 071b 2F070000 		.4byte	0x72f
 2181 071f 1B       		.uleb128 0x1b
 2182 0720 746D7000 		.ascii	"tmp\000"
 2183 0724 01       		.byte	0x1
 2184 0725 9A       		.byte	0x9a
 2185 0726 70000000 		.4byte	0x70
 2186 072a 11030000 		.4byte	.LLST15
 2187 072e 00       		.byte	0
 2188 072f 1D       		.uleb128 0x1d
 2189 0730 30000000 		.4byte	.Ldebug_ranges0+0x30
 2190 0734 48070000 		.4byte	0x748
 2191 0738 1B       		.uleb128 0x1b
 2192 0739 746D7000 		.ascii	"tmp\000"
 2193 073d 01       		.byte	0x1
 2194 073e 9C       		.byte	0x9c
 2195 073f 70000000 		.4byte	0x70
 2196 0743 24030000 		.4byte	.LLST16
 2197 0747 00       		.byte	0
 2198 0748 1C       		.uleb128 0x1c
 2199 0749 68020000 		.4byte	.LBB20
 2200 074d 6E020000 		.4byte	.LBE20
 2201 0751 65070000 		.4byte	0x765
 2202 0755 1B       		.uleb128 0x1b
 2203 0756 746D7000 		.ascii	"tmp\000"
 2204 075a 01       		.byte	0x1
 2205 075b A2       		.byte	0xa2
 2206 075c 70000000 		.4byte	0x70
 2207 0760 37030000 		.4byte	.LLST17
 2208 0764 00       		.byte	0
 2209 0765 1C       		.uleb128 0x1c
 2210 0766 7C020000 		.4byte	.LBB21
 2211 076a 82020000 		.4byte	.LBE21
 2212 076e 82070000 		.4byte	0x782
 2213 0772 1B       		.uleb128 0x1b
 2214 0773 746D7000 		.ascii	"tmp\000"
 2215 0777 01       		.byte	0x1
 2216 0778 A2       		.byte	0xa2
ARM GAS  /var/folders/dt/0wfd0knj7gs46m8vwfzktm600000gn/T//cca4GukL.s 			page 40


 2217 0779 70000000 		.4byte	0x70
 2218 077d 4A030000 		.4byte	.LLST18
 2219 0781 00       		.byte	0
 2220 0782 1C       		.uleb128 0x1c
 2221 0783 88020000 		.4byte	.LBB22
 2222 0787 8E020000 		.4byte	.LBE22
 2223 078b 9F070000 		.4byte	0x79f
 2224 078f 1B       		.uleb128 0x1b
 2225 0790 746D7000 		.ascii	"tmp\000"
 2226 0794 01       		.byte	0x1
 2227 0795 A3       		.byte	0xa3
 2228 0796 70000000 		.4byte	0x70
 2229 079a 68030000 		.4byte	.LLST19
 2230 079e 00       		.byte	0
 2231 079f 1C       		.uleb128 0x1c
 2232 07a0 A4020000 		.4byte	.LBB23
 2233 07a4 AC020000 		.4byte	.LBE23
 2234 07a8 BC070000 		.4byte	0x7bc
 2235 07ac 1B       		.uleb128 0x1b
 2236 07ad 746D7000 		.ascii	"tmp\000"
 2237 07b1 01       		.byte	0x1
 2238 07b2 E6       		.byte	0xe6
 2239 07b3 70000000 		.4byte	0x70
 2240 07b7 7B030000 		.4byte	.LLST20
 2241 07bb 00       		.byte	0
 2242 07bc 1C       		.uleb128 0x1c
 2243 07bd AC020000 		.4byte	.LBB24
 2244 07c1 B2020000 		.4byte	.LBE24
 2245 07c5 D9070000 		.4byte	0x7d9
 2246 07c9 1B       		.uleb128 0x1b
 2247 07ca 746D7000 		.ascii	"tmp\000"
 2248 07ce 01       		.byte	0x1
 2249 07cf A3       		.byte	0xa3
 2250 07d0 70000000 		.4byte	0x70
 2251 07d4 99030000 		.4byte	.LLST21
 2252 07d8 00       		.byte	0
 2253 07d9 1C       		.uleb128 0x1c
 2254 07da B2020000 		.4byte	.LBB25
 2255 07de B8020000 		.4byte	.LBE25
 2256 07e2 F6070000 		.4byte	0x7f6
 2257 07e6 1B       		.uleb128 0x1b
 2258 07e7 746D7000 		.ascii	"tmp\000"
 2259 07eb 01       		.byte	0x1
 2260 07ec A4       		.byte	0xa4
 2261 07ed 70000000 		.4byte	0x70
 2262 07f1 AC030000 		.4byte	.LLST22
 2263 07f5 00       		.byte	0
 2264 07f6 1C       		.uleb128 0x1c
 2265 07f7 CC020000 		.4byte	.LBB26
 2266 07fb DC020000 		.4byte	.LBE26
 2267 07ff 13080000 		.4byte	0x813
 2268 0803 1B       		.uleb128 0x1b
 2269 0804 746D7000 		.ascii	"tmp\000"
 2270 0808 01       		.byte	0x1
 2271 0809 A4       		.byte	0xa4
 2272 080a 70000000 		.4byte	0x70
 2273 080e BF030000 		.4byte	.LLST23
ARM GAS  /var/folders/dt/0wfd0knj7gs46m8vwfzktm600000gn/T//cca4GukL.s 			page 41


 2274 0812 00       		.byte	0
 2275 0813 1C       		.uleb128 0x1c
 2276 0814 DC020000 		.4byte	.LBB27
 2277 0818 E0020000 		.4byte	.LBE27
 2278 081c 30080000 		.4byte	0x830
 2279 0820 1B       		.uleb128 0x1b
 2280 0821 746D7000 		.ascii	"tmp\000"
 2281 0825 01       		.byte	0x1
 2282 0826 A4       		.byte	0xa4
 2283 0827 70000000 		.4byte	0x70
 2284 082b DD030000 		.4byte	.LLST24
 2285 082f 00       		.byte	0
 2286 0830 1C       		.uleb128 0x1c
 2287 0831 E0020000 		.4byte	.LBB28
 2288 0835 E6020000 		.4byte	.LBE28
 2289 0839 4D080000 		.4byte	0x84d
 2290 083d 1B       		.uleb128 0x1b
 2291 083e 746D7000 		.ascii	"tmp\000"
 2292 0842 01       		.byte	0x1
 2293 0843 A9       		.byte	0xa9
 2294 0844 70000000 		.4byte	0x70
 2295 0848 F0030000 		.4byte	.LLST25
 2296 084c 00       		.byte	0
 2297 084d 1D       		.uleb128 0x1d
 2298 084e 48000000 		.4byte	.Ldebug_ranges0+0x48
 2299 0852 66080000 		.4byte	0x866
 2300 0856 1B       		.uleb128 0x1b
 2301 0857 746D7000 		.ascii	"tmp\000"
 2302 085b 01       		.byte	0x1
 2303 085c B3       		.byte	0xb3
 2304 085d 70000000 		.4byte	0x70
 2305 0861 03040000 		.4byte	.LLST26
 2306 0865 00       		.byte	0
 2307 0866 1C       		.uleb128 0x1c
 2308 0867 9A030000 		.4byte	.LBB31
 2309 086b A0030000 		.4byte	.LBE31
 2310 086f 83080000 		.4byte	0x883
 2311 0873 1B       		.uleb128 0x1b
 2312 0874 746D7000 		.ascii	"tmp\000"
 2313 0878 01       		.byte	0x1
 2314 0879 B7       		.byte	0xb7
 2315 087a 70000000 		.4byte	0x70
 2316 087e 16040000 		.4byte	.LLST27
 2317 0882 00       		.byte	0
 2318 0883 1D       		.uleb128 0x1d
 2319 0884 60000000 		.4byte	.Ldebug_ranges0+0x60
 2320 0888 9C080000 		.4byte	0x89c
 2321 088c 1B       		.uleb128 0x1b
 2322 088d 746D7000 		.ascii	"tmp\000"
 2323 0891 01       		.byte	0x1
 2324 0892 B9       		.byte	0xb9
 2325 0893 70000000 		.4byte	0x70
 2326 0897 29040000 		.4byte	.LLST28
 2327 089b 00       		.byte	0
 2328 089c 1C       		.uleb128 0x1c
 2329 089d E4030000 		.4byte	.LBB34
 2330 08a1 EA030000 		.4byte	.LBE34
ARM GAS  /var/folders/dt/0wfd0knj7gs46m8vwfzktm600000gn/T//cca4GukL.s 			page 42


 2331 08a5 B9080000 		.4byte	0x8b9
 2332 08a9 1B       		.uleb128 0x1b
 2333 08aa 746D7000 		.ascii	"tmp\000"
 2334 08ae 01       		.byte	0x1
 2335 08af BE       		.byte	0xbe
 2336 08b0 70000000 		.4byte	0x70
 2337 08b4 3C040000 		.4byte	.LLST29
 2338 08b8 00       		.byte	0
 2339 08b9 1C       		.uleb128 0x1c
 2340 08ba F8030000 		.4byte	.LBB35
 2341 08be FE030000 		.4byte	.LBE35
 2342 08c2 D6080000 		.4byte	0x8d6
 2343 08c6 1B       		.uleb128 0x1b
 2344 08c7 746D7000 		.ascii	"tmp\000"
 2345 08cb 01       		.byte	0x1
 2346 08cc BE       		.byte	0xbe
 2347 08cd 70000000 		.4byte	0x70
 2348 08d1 4F040000 		.4byte	.LLST30
 2349 08d5 00       		.byte	0
 2350 08d6 1C       		.uleb128 0x1c
 2351 08d7 04040000 		.4byte	.LBB36
 2352 08db 0A040000 		.4byte	.LBE36
 2353 08df F3080000 		.4byte	0x8f3
 2354 08e3 1B       		.uleb128 0x1b
 2355 08e4 746D7000 		.ascii	"tmp\000"
 2356 08e8 01       		.byte	0x1
 2357 08e9 BF       		.byte	0xbf
 2358 08ea 70000000 		.4byte	0x70
 2359 08ee 6D040000 		.4byte	.LLST31
 2360 08f2 00       		.byte	0
 2361 08f3 1C       		.uleb128 0x1c
 2362 08f4 1A040000 		.4byte	.LBB37
 2363 08f8 20040000 		.4byte	.LBE37
 2364 08fc 10090000 		.4byte	0x910
 2365 0900 1B       		.uleb128 0x1b
 2366 0901 746D7000 		.ascii	"tmp\000"
 2367 0905 01       		.byte	0x1
 2368 0906 BF       		.byte	0xbf
 2369 0907 70000000 		.4byte	0x70
 2370 090b 80040000 		.4byte	.LLST32
 2371 090f 00       		.byte	0
 2372 0910 1C       		.uleb128 0x1c
 2373 0911 3C040000 		.4byte	.LBB38
 2374 0915 42040000 		.4byte	.LBE38
 2375 0919 2D090000 		.4byte	0x92d
 2376 091d 1B       		.uleb128 0x1b
 2377 091e 746D7000 		.ascii	"tmp\000"
 2378 0922 01       		.byte	0x1
 2379 0923 C2       		.byte	0xc2
 2380 0924 70000000 		.4byte	0x70
 2381 0928 9E040000 		.4byte	.LLST33
 2382 092c 00       		.byte	0
 2383 092d 1D       		.uleb128 0x1d
 2384 092e 78000000 		.4byte	.Ldebug_ranges0+0x78
 2385 0932 46090000 		.4byte	0x946
 2386 0936 1B       		.uleb128 0x1b
 2387 0937 746D7000 		.ascii	"tmp\000"
ARM GAS  /var/folders/dt/0wfd0knj7gs46m8vwfzktm600000gn/T//cca4GukL.s 			page 43


 2388 093b 01       		.byte	0x1
 2389 093c CC       		.byte	0xcc
 2390 093d 70000000 		.4byte	0x70
 2391 0941 B1040000 		.4byte	.LLST34
 2392 0945 00       		.byte	0
 2393 0946 1C       		.uleb128 0x1c
 2394 0947 FA040000 		.4byte	.LBB41
 2395 094b 00050000 		.4byte	.LBE41
 2396 094f 63090000 		.4byte	0x963
 2397 0953 1B       		.uleb128 0x1b
 2398 0954 746D7000 		.ascii	"tmp\000"
 2399 0958 01       		.byte	0x1
 2400 0959 D0       		.byte	0xd0
 2401 095a 70000000 		.4byte	0x70
 2402 095e C4040000 		.4byte	.LLST35
 2403 0962 00       		.byte	0
 2404 0963 1D       		.uleb128 0x1d
 2405 0964 90000000 		.4byte	.Ldebug_ranges0+0x90
 2406 0968 7C090000 		.4byte	0x97c
 2407 096c 1B       		.uleb128 0x1b
 2408 096d 746D7000 		.ascii	"tmp\000"
 2409 0971 01       		.byte	0x1
 2410 0972 D2       		.byte	0xd2
 2411 0973 70000000 		.4byte	0x70
 2412 0977 D7040000 		.4byte	.LLST36
 2413 097b 00       		.byte	0
 2414 097c 1C       		.uleb128 0x1c
 2415 097d 3E050000 		.4byte	.LBB44
 2416 0981 44050000 		.4byte	.LBE44
 2417 0985 99090000 		.4byte	0x999
 2418 0989 1B       		.uleb128 0x1b
 2419 098a 746D7000 		.ascii	"tmp\000"
 2420 098e 01       		.byte	0x1
 2421 098f D7       		.byte	0xd7
 2422 0990 70000000 		.4byte	0x70
 2423 0994 EA040000 		.4byte	.LLST37
 2424 0998 00       		.byte	0
 2425 0999 1C       		.uleb128 0x1c
 2426 099a 52050000 		.4byte	.LBB45
 2427 099e 58050000 		.4byte	.LBE45
 2428 09a2 B6090000 		.4byte	0x9b6
 2429 09a6 1B       		.uleb128 0x1b
 2430 09a7 746D7000 		.ascii	"tmp\000"
 2431 09ab 01       		.byte	0x1
 2432 09ac D7       		.byte	0xd7
 2433 09ad 70000000 		.4byte	0x70
 2434 09b1 FD040000 		.4byte	.LLST38
 2435 09b5 00       		.byte	0
 2436 09b6 1C       		.uleb128 0x1c
 2437 09b7 5E050000 		.4byte	.LBB46
 2438 09bb 64050000 		.4byte	.LBE46
 2439 09bf D3090000 		.4byte	0x9d3
 2440 09c3 1B       		.uleb128 0x1b
 2441 09c4 746D7000 		.ascii	"tmp\000"
 2442 09c8 01       		.byte	0x1
 2443 09c9 D8       		.byte	0xd8
 2444 09ca 70000000 		.4byte	0x70
ARM GAS  /var/folders/dt/0wfd0knj7gs46m8vwfzktm600000gn/T//cca4GukL.s 			page 44


 2445 09ce 1B050000 		.4byte	.LLST39
 2446 09d2 00       		.byte	0
 2447 09d3 1C       		.uleb128 0x1c
 2448 09d4 74050000 		.4byte	.LBB47
 2449 09d8 7A050000 		.4byte	.LBE47
 2450 09dc F0090000 		.4byte	0x9f0
 2451 09e0 1B       		.uleb128 0x1b
 2452 09e1 746D7000 		.ascii	"tmp\000"
 2453 09e5 01       		.byte	0x1
 2454 09e6 D8       		.byte	0xd8
 2455 09e7 70000000 		.4byte	0x70
 2456 09eb 2E050000 		.4byte	.LLST40
 2457 09ef 00       		.byte	0
 2458 09f0 1C       		.uleb128 0x1c
 2459 09f1 A2050000 		.4byte	.LBB48
 2460 09f5 A8050000 		.4byte	.LBE48
 2461 09f9 0D0A0000 		.4byte	0xa0d
 2462 09fd 1B       		.uleb128 0x1b
 2463 09fe 746D7000 		.ascii	"tmp\000"
 2464 0a02 01       		.byte	0x1
 2465 0a03 E3       		.byte	0xe3
 2466 0a04 70000000 		.4byte	0x70
 2467 0a08 4C050000 		.4byte	.LLST41
 2468 0a0c 00       		.byte	0
 2469 0a0d 1C       		.uleb128 0x1c
 2470 0a0e BC050000 		.4byte	.LBB49
 2471 0a12 C2050000 		.4byte	.LBE49
 2472 0a16 2A0A0000 		.4byte	0xa2a
 2473 0a1a 1B       		.uleb128 0x1b
 2474 0a1b 746D7000 		.ascii	"tmp\000"
 2475 0a1f 01       		.byte	0x1
 2476 0a20 E3       		.byte	0xe3
 2477 0a21 70000000 		.4byte	0x70
 2478 0a25 5F050000 		.4byte	.LLST42
 2479 0a29 00       		.byte	0
 2480 0a2a 1C       		.uleb128 0x1c
 2481 0a2b C8050000 		.4byte	.LBB50
 2482 0a2f CE050000 		.4byte	.LBE50
 2483 0a33 470A0000 		.4byte	0xa47
 2484 0a37 1B       		.uleb128 0x1b
 2485 0a38 746D7000 		.ascii	"tmp\000"
 2486 0a3c 01       		.byte	0x1
 2487 0a3d E4       		.byte	0xe4
 2488 0a3e 70000000 		.4byte	0x70
 2489 0a42 7D050000 		.4byte	.LLST43
 2490 0a46 00       		.byte	0
 2491 0a47 1C       		.uleb128 0x1c
 2492 0a48 DE050000 		.4byte	.LBB51
 2493 0a4c E4050000 		.4byte	.LBE51
 2494 0a50 640A0000 		.4byte	0xa64
 2495 0a54 1B       		.uleb128 0x1b
 2496 0a55 746D7000 		.ascii	"tmp\000"
 2497 0a59 01       		.byte	0x1
 2498 0a5a E4       		.byte	0xe4
 2499 0a5b 70000000 		.4byte	0x70
 2500 0a5f 90050000 		.4byte	.LLST44
 2501 0a63 00       		.byte	0
ARM GAS  /var/folders/dt/0wfd0knj7gs46m8vwfzktm600000gn/T//cca4GukL.s 			page 45


 2502 0a64 1C       		.uleb128 0x1c
 2503 0a65 EA050000 		.4byte	.LBB52
 2504 0a69 F0050000 		.4byte	.LBE52
 2505 0a6d 810A0000 		.4byte	0xa81
 2506 0a71 1B       		.uleb128 0x1b
 2507 0a72 746D7000 		.ascii	"tmp\000"
 2508 0a76 01       		.byte	0x1
 2509 0a77 E5       		.byte	0xe5
 2510 0a78 70000000 		.4byte	0x70
 2511 0a7c AE050000 		.4byte	.LLST45
 2512 0a80 00       		.byte	0
 2513 0a81 1C       		.uleb128 0x1c
 2514 0a82 00060000 		.4byte	.LBB53
 2515 0a86 06060000 		.4byte	.LBE53
 2516 0a8a 9E0A0000 		.4byte	0xa9e
 2517 0a8e 1B       		.uleb128 0x1b
 2518 0a8f 746D7000 		.ascii	"tmp\000"
 2519 0a93 01       		.byte	0x1
 2520 0a94 E5       		.byte	0xe5
 2521 0a95 70000000 		.4byte	0x70
 2522 0a99 C1050000 		.4byte	.LLST46
 2523 0a9d 00       		.byte	0
 2524 0a9e 1C       		.uleb128 0x1c
 2525 0a9f 0C060000 		.4byte	.LBB54
 2526 0aa3 12060000 		.4byte	.LBE54
 2527 0aa7 BB0A0000 		.4byte	0xabb
 2528 0aab 1B       		.uleb128 0x1b
 2529 0aac 746D7000 		.ascii	"tmp\000"
 2530 0ab0 01       		.byte	0x1
 2531 0ab1 E6       		.byte	0xe6
 2532 0ab2 70000000 		.4byte	0x70
 2533 0ab6 DF050000 		.4byte	.LLST47
 2534 0aba 00       		.byte	0
 2535 0abb 1F       		.uleb128 0x1f
 2536 0abc 14000000 		.4byte	.LVL0
 2537 0ac0 A6110000 		.4byte	0x11a6
 2538 0ac4 CE0A0000 		.4byte	0xace
 2539 0ac8 20       		.uleb128 0x20
 2540 0ac9 01       		.byte	0x1
 2541 0aca 50       		.byte	0x50
 2542 0acb 01       		.byte	0x1
 2543 0acc 31       		.byte	0x31
 2544 0acd 00       		.byte	0
 2545 0ace 1F       		.uleb128 0x1f
 2546 0acf 26000000 		.4byte	.LVL1
 2547 0ad3 C3110000 		.4byte	0x11c3
 2548 0ad7 EE0A0000 		.4byte	0xaee
 2549 0adb 20       		.uleb128 0x20
 2550 0adc 01       		.byte	0x1
 2551 0add 52       		.byte	0x52
 2552 0ade 02       		.byte	0x2
 2553 0adf 09       		.byte	0x9
 2554 0ae0 FF       		.byte	0xff
 2555 0ae1 20       		.uleb128 0x20
 2556 0ae2 01       		.byte	0x1
 2557 0ae3 51       		.byte	0x51
 2558 0ae4 02       		.byte	0x2
ARM GAS  /var/folders/dt/0wfd0knj7gs46m8vwfzktm600000gn/T//cca4GukL.s 			page 46


 2559 0ae5 74       		.byte	0x74
 2560 0ae6 00       		.sleb128 0
 2561 0ae7 20       		.uleb128 0x20
 2562 0ae8 01       		.byte	0x1
 2563 0ae9 50       		.byte	0x50
 2564 0aea 02       		.byte	0x2
 2565 0aeb 75       		.byte	0x75
 2566 0aec 00       		.sleb128 0
 2567 0aed 00       		.byte	0
 2568 0aee 1F       		.uleb128 0x1f
 2569 0aef 36000000 		.4byte	.LVL3
 2570 0af3 A6110000 		.4byte	0x11a6
 2571 0af7 010B0000 		.4byte	0xb01
 2572 0afb 20       		.uleb128 0x20
 2573 0afc 01       		.byte	0x1
 2574 0afd 50       		.byte	0x50
 2575 0afe 01       		.byte	0x1
 2576 0aff 32       		.byte	0x32
 2577 0b00 00       		.byte	0
 2578 0b01 1F       		.uleb128 0x1f
 2579 0b02 48000000 		.4byte	.LVL4
 2580 0b06 EB110000 		.4byte	0x11eb
 2581 0b0a 210B0000 		.4byte	0xb21
 2582 0b0e 20       		.uleb128 0x20
 2583 0b0f 01       		.byte	0x1
 2584 0b10 52       		.byte	0x52
 2585 0b11 02       		.byte	0x2
 2586 0b12 09       		.byte	0x9
 2587 0b13 FF       		.byte	0xff
 2588 0b14 20       		.uleb128 0x20
 2589 0b15 01       		.byte	0x1
 2590 0b16 51       		.byte	0x51
 2591 0b17 02       		.byte	0x2
 2592 0b18 08       		.byte	0x8
 2593 0b19 41       		.byte	0x41
 2594 0b1a 20       		.uleb128 0x20
 2595 0b1b 01       		.byte	0x1
 2596 0b1c 50       		.byte	0x50
 2597 0b1d 02       		.byte	0x2
 2598 0b1e 75       		.byte	0x75
 2599 0b1f 00       		.sleb128 0
 2600 0b20 00       		.byte	0
 2601 0b21 1F       		.uleb128 0x1f
 2602 0b22 56000000 		.4byte	.LVL6
 2603 0b26 A6110000 		.4byte	0x11a6
 2604 0b2a 340B0000 		.4byte	0xb34
 2605 0b2e 20       		.uleb128 0x20
 2606 0b2f 01       		.byte	0x1
 2607 0b30 50       		.byte	0x50
 2608 0b31 01       		.byte	0x1
 2609 0b32 33       		.byte	0x33
 2610 0b33 00       		.byte	0
 2611 0b34 1F       		.uleb128 0x1f
 2612 0b35 66000000 		.4byte	.LVL9
 2613 0b39 C3110000 		.4byte	0x11c3
 2614 0b3d 530B0000 		.4byte	0xb53
 2615 0b41 20       		.uleb128 0x20
ARM GAS  /var/folders/dt/0wfd0knj7gs46m8vwfzktm600000gn/T//cca4GukL.s 			page 47


 2616 0b42 01       		.byte	0x1
 2617 0b43 52       		.byte	0x52
 2618 0b44 01       		.byte	0x1
 2619 0b45 31       		.byte	0x31
 2620 0b46 20       		.uleb128 0x20
 2621 0b47 01       		.byte	0x1
 2622 0b48 51       		.byte	0x51
 2623 0b49 02       		.byte	0x2
 2624 0b4a 08       		.byte	0x8
 2625 0b4b 58       		.byte	0x58
 2626 0b4c 20       		.uleb128 0x20
 2627 0b4d 01       		.byte	0x1
 2628 0b4e 50       		.byte	0x50
 2629 0b4f 02       		.byte	0x2
 2630 0b50 75       		.byte	0x75
 2631 0b51 00       		.sleb128 0
 2632 0b52 00       		.byte	0
 2633 0b53 1F       		.uleb128 0x1f
 2634 0b54 78000000 		.4byte	.LVL11
 2635 0b58 A6110000 		.4byte	0x11a6
 2636 0b5c 660B0000 		.4byte	0xb66
 2637 0b60 20       		.uleb128 0x20
 2638 0b61 01       		.byte	0x1
 2639 0b62 50       		.byte	0x50
 2640 0b63 01       		.byte	0x1
 2641 0b64 34       		.byte	0x34
 2642 0b65 00       		.byte	0
 2643 0b66 1F       		.uleb128 0x1f
 2644 0b67 8C000000 		.4byte	.LVL14
 2645 0b6b 0D120000 		.4byte	0x120d
 2646 0b6f 800B0000 		.4byte	0xb80
 2647 0b73 20       		.uleb128 0x20
 2648 0b74 01       		.byte	0x1
 2649 0b75 51       		.byte	0x51
 2650 0b76 02       		.byte	0x2
 2651 0b77 08       		.byte	0x8
 2652 0b78 58       		.byte	0x58
 2653 0b79 20       		.uleb128 0x20
 2654 0b7a 01       		.byte	0x1
 2655 0b7b 50       		.byte	0x50
 2656 0b7c 02       		.byte	0x2
 2657 0b7d 75       		.byte	0x75
 2658 0b7e 00       		.sleb128 0
 2659 0b7f 00       		.byte	0
 2660 0b80 1F       		.uleb128 0x1f
 2661 0b81 A6000000 		.4byte	.LVL20
 2662 0b85 A6110000 		.4byte	0x11a6
 2663 0b89 930B0000 		.4byte	0xb93
 2664 0b8d 20       		.uleb128 0x20
 2665 0b8e 01       		.byte	0x1
 2666 0b8f 50       		.byte	0x50
 2667 0b90 01       		.byte	0x1
 2668 0b91 35       		.byte	0x35
 2669 0b92 00       		.byte	0
 2670 0b93 1F       		.uleb128 0x1f
 2671 0b94 B4000000 		.4byte	.LVL21
 2672 0b98 EB110000 		.4byte	0x11eb
ARM GAS  /var/folders/dt/0wfd0knj7gs46m8vwfzktm600000gn/T//cca4GukL.s 			page 48


 2673 0b9c B20B0000 		.4byte	0xbb2
 2674 0ba0 20       		.uleb128 0x20
 2675 0ba1 01       		.byte	0x1
 2676 0ba2 52       		.byte	0x52
 2677 0ba3 01       		.byte	0x1
 2678 0ba4 31       		.byte	0x31
 2679 0ba5 20       		.uleb128 0x20
 2680 0ba6 01       		.byte	0x1
 2681 0ba7 51       		.byte	0x51
 2682 0ba8 02       		.byte	0x2
 2683 0ba9 08       		.byte	0x8
 2684 0baa 58       		.byte	0x58
 2685 0bab 20       		.uleb128 0x20
 2686 0bac 01       		.byte	0x1
 2687 0bad 50       		.byte	0x50
 2688 0bae 02       		.byte	0x2
 2689 0baf 75       		.byte	0x75
 2690 0bb0 00       		.sleb128 0
 2691 0bb1 00       		.byte	0
 2692 0bb2 1F       		.uleb128 0x1f
 2693 0bb3 C2000000 		.4byte	.LVL23
 2694 0bb7 A6110000 		.4byte	0x11a6
 2695 0bbb C50B0000 		.4byte	0xbc5
 2696 0bbf 20       		.uleb128 0x20
 2697 0bc0 01       		.byte	0x1
 2698 0bc1 50       		.byte	0x50
 2699 0bc2 01       		.byte	0x1
 2700 0bc3 36       		.byte	0x36
 2701 0bc4 00       		.byte	0
 2702 0bc5 1F       		.uleb128 0x1f
 2703 0bc6 D6000000 		.4byte	.LVL26
 2704 0bca 2A120000 		.4byte	0x122a
 2705 0bce DF0B0000 		.4byte	0xbdf
 2706 0bd2 20       		.uleb128 0x20
 2707 0bd3 01       		.byte	0x1
 2708 0bd4 51       		.byte	0x51
 2709 0bd5 02       		.byte	0x2
 2710 0bd6 08       		.byte	0x8
 2711 0bd7 58       		.byte	0x58
 2712 0bd8 20       		.uleb128 0x20
 2713 0bd9 01       		.byte	0x1
 2714 0bda 50       		.byte	0x50
 2715 0bdb 02       		.byte	0x2
 2716 0bdc 75       		.byte	0x75
 2717 0bdd 00       		.sleb128 0
 2718 0bde 00       		.byte	0
 2719 0bdf 1F       		.uleb128 0x1f
 2720 0be0 EC000000 		.4byte	.LVL33
 2721 0be4 A6110000 		.4byte	0x11a6
 2722 0be8 F20B0000 		.4byte	0xbf2
 2723 0bec 20       		.uleb128 0x20
 2724 0bed 01       		.byte	0x1
 2725 0bee 50       		.byte	0x50
 2726 0bef 01       		.byte	0x1
 2727 0bf0 37       		.byte	0x37
 2728 0bf1 00       		.byte	0
 2729 0bf2 1F       		.uleb128 0x1f
ARM GAS  /var/folders/dt/0wfd0knj7gs46m8vwfzktm600000gn/T//cca4GukL.s 			page 49


 2730 0bf3 08010000 		.4byte	.LVL36
 2731 0bf7 A6110000 		.4byte	0x11a6
 2732 0bfb 050C0000 		.4byte	0xc05
 2733 0bff 20       		.uleb128 0x20
 2734 0c00 01       		.byte	0x1
 2735 0c01 50       		.byte	0x50
 2736 0c02 01       		.byte	0x1
 2737 0c03 38       		.byte	0x38
 2738 0c04 00       		.byte	0
 2739 0c05 1F       		.uleb128 0x1f
 2740 0c06 34010000 		.4byte	.LVL43
 2741 0c0a A6110000 		.4byte	0x11a6
 2742 0c0e 180C0000 		.4byte	0xc18
 2743 0c12 20       		.uleb128 0x20
 2744 0c13 01       		.byte	0x1
 2745 0c14 50       		.byte	0x50
 2746 0c15 01       		.byte	0x1
 2747 0c16 39       		.byte	0x39
 2748 0c17 00       		.byte	0
 2749 0c18 1F       		.uleb128 0x1f
 2750 0c19 60010000 		.4byte	.LVL50
 2751 0c1d A6110000 		.4byte	0x11a6
 2752 0c21 2B0C0000 		.4byte	0xc2b
 2753 0c25 20       		.uleb128 0x20
 2754 0c26 01       		.byte	0x1
 2755 0c27 50       		.byte	0x50
 2756 0c28 01       		.byte	0x1
 2757 0c29 3A       		.byte	0x3a
 2758 0c2a 00       		.byte	0
 2759 0c2b 21       		.uleb128 0x21
 2760 0c2c 78010000 		.4byte	.LVL54
 2761 0c30 47120000 		.4byte	0x1247
 2762 0c34 1F       		.uleb128 0x1f
 2763 0c35 8A010000 		.4byte	.LVL56
 2764 0c39 5B120000 		.4byte	0x125b
 2765 0c3d 540C0000 		.4byte	0xc54
 2766 0c41 20       		.uleb128 0x20
 2767 0c42 01       		.byte	0x1
 2768 0c43 52       		.byte	0x52
 2769 0c44 02       		.byte	0x2
 2770 0c45 09       		.byte	0x9
 2771 0c46 FF       		.byte	0xff
 2772 0c47 20       		.uleb128 0x20
 2773 0c48 01       		.byte	0x1
 2774 0c49 51       		.byte	0x51
 2775 0c4a 02       		.byte	0x2
 2776 0c4b 91       		.byte	0x91
 2777 0c4c 64       		.sleb128 -28
 2778 0c4d 20       		.uleb128 0x20
 2779 0c4e 01       		.byte	0x1
 2780 0c4f 50       		.byte	0x50
 2781 0c50 02       		.byte	0x2
 2782 0c51 74       		.byte	0x74
 2783 0c52 00       		.sleb128 0
 2784 0c53 00       		.byte	0
 2785 0c54 1F       		.uleb128 0x1f
 2786 0c55 98010000 		.4byte	.LVL58
ARM GAS  /var/folders/dt/0wfd0knj7gs46m8vwfzktm600000gn/T//cca4GukL.s 			page 50


 2787 0c59 A6110000 		.4byte	0x11a6
 2788 0c5d 670C0000 		.4byte	0xc67
 2789 0c61 20       		.uleb128 0x20
 2790 0c62 01       		.byte	0x1
 2791 0c63 50       		.byte	0x50
 2792 0c64 01       		.byte	0x1
 2793 0c65 3B       		.byte	0x3b
 2794 0c66 00       		.byte	0
 2795 0c67 1F       		.uleb128 0x1f
 2796 0c68 A6010000 		.4byte	.LVL59
 2797 0c6c 7D120000 		.4byte	0x127d
 2798 0c70 830C0000 		.4byte	0xc83
 2799 0c74 20       		.uleb128 0x20
 2800 0c75 01       		.byte	0x1
 2801 0c76 51       		.byte	0x51
 2802 0c77 05       		.byte	0x5
 2803 0c78 03       		.byte	0x3
 2804 0c79 00000000 		.4byte	.LC0
 2805 0c7d 20       		.uleb128 0x20
 2806 0c7e 01       		.byte	0x1
 2807 0c7f 50       		.byte	0x50
 2808 0c80 01       		.byte	0x1
 2809 0c81 3C       		.byte	0x3c
 2810 0c82 00       		.byte	0
 2811 0c83 1F       		.uleb128 0x1f
 2812 0c84 B8010000 		.4byte	.LVL60
 2813 0c88 C3110000 		.4byte	0x11c3
 2814 0c8c A30C0000 		.4byte	0xca3
 2815 0c90 20       		.uleb128 0x20
 2816 0c91 01       		.byte	0x1
 2817 0c92 52       		.byte	0x52
 2818 0c93 02       		.byte	0x2
 2819 0c94 09       		.byte	0x9
 2820 0c95 FF       		.byte	0xff
 2821 0c96 20       		.uleb128 0x20
 2822 0c97 01       		.byte	0x1
 2823 0c98 51       		.byte	0x51
 2824 0c99 02       		.byte	0x2
 2825 0c9a 08       		.byte	0x8
 2826 0c9b 47       		.byte	0x47
 2827 0c9c 20       		.uleb128 0x20
 2828 0c9d 01       		.byte	0x1
 2829 0c9e 50       		.byte	0x50
 2830 0c9f 02       		.byte	0x2
 2831 0ca0 74       		.byte	0x74
 2832 0ca1 00       		.sleb128 0
 2833 0ca2 00       		.byte	0
 2834 0ca3 1F       		.uleb128 0x1f
 2835 0ca4 C6010000 		.4byte	.LVL62
 2836 0ca8 A6110000 		.4byte	0x11a6
 2837 0cac B60C0000 		.4byte	0xcb6
 2838 0cb0 20       		.uleb128 0x20
 2839 0cb1 01       		.byte	0x1
 2840 0cb2 50       		.byte	0x50
 2841 0cb3 01       		.byte	0x1
 2842 0cb4 3D       		.byte	0x3d
 2843 0cb5 00       		.byte	0
ARM GAS  /var/folders/dt/0wfd0knj7gs46m8vwfzktm600000gn/T//cca4GukL.s 			page 51


 2844 0cb6 1F       		.uleb128 0x1f
 2845 0cb7 D8010000 		.4byte	.LVL63
 2846 0cbb 5B120000 		.4byte	0x125b
 2847 0cbf D60C0000 		.4byte	0xcd6
 2848 0cc3 20       		.uleb128 0x20
 2849 0cc4 01       		.byte	0x1
 2850 0cc5 52       		.byte	0x52
 2851 0cc6 02       		.byte	0x2
 2852 0cc7 09       		.byte	0x9
 2853 0cc8 FF       		.byte	0xff
 2854 0cc9 20       		.uleb128 0x20
 2855 0cca 01       		.byte	0x1
 2856 0ccb 51       		.byte	0x51
 2857 0ccc 02       		.byte	0x2
 2858 0ccd 91       		.byte	0x91
 2859 0cce 64       		.sleb128 -28
 2860 0ccf 20       		.uleb128 0x20
 2861 0cd0 01       		.byte	0x1
 2862 0cd1 50       		.byte	0x50
 2863 0cd2 02       		.byte	0x2
 2864 0cd3 74       		.byte	0x74
 2865 0cd4 00       		.sleb128 0
 2866 0cd5 00       		.byte	0
 2867 0cd6 1F       		.uleb128 0x1f
 2868 0cd7 E6010000 		.4byte	.LVL65
 2869 0cdb A6110000 		.4byte	0x11a6
 2870 0cdf E90C0000 		.4byte	0xce9
 2871 0ce3 20       		.uleb128 0x20
 2872 0ce4 01       		.byte	0x1
 2873 0ce5 50       		.byte	0x50
 2874 0ce6 01       		.byte	0x1
 2875 0ce7 3E       		.byte	0x3e
 2876 0ce8 00       		.byte	0
 2877 0ce9 1F       		.uleb128 0x1f
 2878 0cea FC010000 		.4byte	.LVL66
 2879 0cee A6110000 		.4byte	0x11a6
 2880 0cf2 FC0C0000 		.4byte	0xcfc
 2881 0cf6 20       		.uleb128 0x20
 2882 0cf7 01       		.byte	0x1
 2883 0cf8 50       		.byte	0x50
 2884 0cf9 01       		.byte	0x1
 2885 0cfa 3F       		.byte	0x3f
 2886 0cfb 00       		.byte	0
 2887 0cfc 1F       		.uleb128 0x1f
 2888 0cfd 12020000 		.4byte	.LVL67
 2889 0d01 A6110000 		.4byte	0x11a6
 2890 0d05 0F0D0000 		.4byte	0xd0f
 2891 0d09 20       		.uleb128 0x20
 2892 0d0a 01       		.byte	0x1
 2893 0d0b 50       		.byte	0x50
 2894 0d0c 01       		.byte	0x1
 2895 0d0d 40       		.byte	0x40
 2896 0d0e 00       		.byte	0
 2897 0d0f 1F       		.uleb128 0x1f
 2898 0d10 22020000 		.4byte	.LVL68
 2899 0d14 5B120000 		.4byte	0x125b
 2900 0d18 2E0D0000 		.4byte	0xd2e
ARM GAS  /var/folders/dt/0wfd0knj7gs46m8vwfzktm600000gn/T//cca4GukL.s 			page 52


 2901 0d1c 20       		.uleb128 0x20
 2902 0d1d 01       		.byte	0x1
 2903 0d1e 52       		.byte	0x52
 2904 0d1f 01       		.byte	0x1
 2905 0d20 31       		.byte	0x31
 2906 0d21 20       		.uleb128 0x20
 2907 0d22 01       		.byte	0x1
 2908 0d23 51       		.byte	0x51
 2909 0d24 02       		.byte	0x2
 2910 0d25 91       		.byte	0x91
 2911 0d26 64       		.sleb128 -28
 2912 0d27 20       		.uleb128 0x20
 2913 0d28 01       		.byte	0x1
 2914 0d29 50       		.byte	0x50
 2915 0d2a 02       		.byte	0x2
 2916 0d2b 74       		.byte	0x74
 2917 0d2c 00       		.sleb128 0
 2918 0d2d 00       		.byte	0
 2919 0d2e 1F       		.uleb128 0x1f
 2920 0d2f 34020000 		.4byte	.LVL70
 2921 0d33 A6110000 		.4byte	0x11a6
 2922 0d37 410D0000 		.4byte	0xd41
 2923 0d3b 20       		.uleb128 0x20
 2924 0d3c 01       		.byte	0x1
 2925 0d3d 50       		.byte	0x50
 2926 0d3e 01       		.byte	0x1
 2927 0d3f 41       		.byte	0x41
 2928 0d40 00       		.byte	0
 2929 0d41 1F       		.uleb128 0x1f
 2930 0d42 48020000 		.4byte	.LVL73
 2931 0d46 A0120000 		.4byte	0x12a0
 2932 0d4a 5B0D0000 		.4byte	0xd5b
 2933 0d4e 20       		.uleb128 0x20
 2934 0d4f 01       		.byte	0x1
 2935 0d50 51       		.byte	0x51
 2936 0d51 02       		.byte	0x2
 2937 0d52 91       		.byte	0x91
 2938 0d53 64       		.sleb128 -28
 2939 0d54 20       		.uleb128 0x20
 2940 0d55 01       		.byte	0x1
 2941 0d56 50       		.byte	0x50
 2942 0d57 02       		.byte	0x2
 2943 0d58 74       		.byte	0x74
 2944 0d59 00       		.sleb128 0
 2945 0d5a 00       		.byte	0
 2946 0d5b 1F       		.uleb128 0x1f
 2947 0d5c 62020000 		.4byte	.LVL79
 2948 0d60 A6110000 		.4byte	0x11a6
 2949 0d64 6E0D0000 		.4byte	0xd6e
 2950 0d68 20       		.uleb128 0x20
 2951 0d69 01       		.byte	0x1
 2952 0d6a 50       		.byte	0x50
 2953 0d6b 01       		.byte	0x1
 2954 0d6c 42       		.byte	0x42
 2955 0d6d 00       		.byte	0
 2956 0d6e 1F       		.uleb128 0x1f
 2957 0d6f 7C020000 		.4byte	.LVL82
ARM GAS  /var/folders/dt/0wfd0knj7gs46m8vwfzktm600000gn/T//cca4GukL.s 			page 53


 2958 0d73 A6110000 		.4byte	0x11a6
 2959 0d77 810D0000 		.4byte	0xd81
 2960 0d7b 20       		.uleb128 0x20
 2961 0d7c 01       		.byte	0x1
 2962 0d7d 50       		.byte	0x50
 2963 0d7e 01       		.byte	0x1
 2964 0d7f 43       		.byte	0x43
 2965 0d80 00       		.byte	0
 2966 0d81 1F       		.uleb128 0x1f
 2967 0d82 9E020000 		.4byte	.LVL86
 2968 0d86 A6110000 		.4byte	0x11a6
 2969 0d8a 940D0000 		.4byte	0xd94
 2970 0d8e 20       		.uleb128 0x20
 2971 0d8f 01       		.byte	0x1
 2972 0d90 50       		.byte	0x50
 2973 0d91 01       		.byte	0x1
 2974 0d92 44       		.byte	0x44
 2975 0d93 00       		.byte	0
 2976 0d94 1F       		.uleb128 0x1f
 2977 0d95 C8020000 		.4byte	.LVL94
 2978 0d99 A6110000 		.4byte	0x11a6
 2979 0d9d A70D0000 		.4byte	0xda7
 2980 0da1 20       		.uleb128 0x20
 2981 0da2 01       		.byte	0x1
 2982 0da3 50       		.byte	0x50
 2983 0da4 01       		.byte	0x1
 2984 0da5 45       		.byte	0x45
 2985 0da6 00       		.byte	0
 2986 0da7 1F       		.uleb128 0x1f
 2987 0da8 EE020000 		.4byte	.LVL100
 2988 0dac 0D120000 		.4byte	0x120d
 2989 0db0 C10D0000 		.4byte	0xdc1
 2990 0db4 20       		.uleb128 0x20
 2991 0db5 01       		.byte	0x1
 2992 0db6 51       		.byte	0x51
 2993 0db7 02       		.byte	0x2
 2994 0db8 08       		.byte	0x8
 2995 0db9 41       		.byte	0x41
 2996 0dba 20       		.uleb128 0x20
 2997 0dbb 01       		.byte	0x1
 2998 0dbc 50       		.byte	0x50
 2999 0dbd 02       		.byte	0x2
 3000 0dbe 74       		.byte	0x74
 3001 0dbf 00       		.sleb128 0
 3002 0dc0 00       		.byte	0
 3003 0dc1 1F       		.uleb128 0x1f
 3004 0dc2 FC020000 		.4byte	.LVL102
 3005 0dc6 A6110000 		.4byte	0x11a6
 3006 0dca D40D0000 		.4byte	0xdd4
 3007 0dce 20       		.uleb128 0x20
 3008 0dcf 01       		.byte	0x1
 3009 0dd0 50       		.byte	0x50
 3010 0dd1 01       		.byte	0x1
 3011 0dd2 46       		.byte	0x46
 3012 0dd3 00       		.byte	0
 3013 0dd4 1F       		.uleb128 0x1f
 3014 0dd5 0A030000 		.4byte	.LVL103
ARM GAS  /var/folders/dt/0wfd0knj7gs46m8vwfzktm600000gn/T//cca4GukL.s 			page 54


 3015 0dd9 0D120000 		.4byte	0x120d
 3016 0ddd EE0D0000 		.4byte	0xdee
 3017 0de1 20       		.uleb128 0x20
 3018 0de2 01       		.byte	0x1
 3019 0de3 51       		.byte	0x51
 3020 0de4 02       		.byte	0x2
 3021 0de5 08       		.byte	0x8
 3022 0de6 42       		.byte	0x42
 3023 0de7 20       		.uleb128 0x20
 3024 0de8 01       		.byte	0x1
 3025 0de9 50       		.byte	0x50
 3026 0dea 02       		.byte	0x2
 3027 0deb 74       		.byte	0x74
 3028 0dec 00       		.sleb128 0
 3029 0ded 00       		.byte	0
 3030 0dee 1F       		.uleb128 0x1f
 3031 0def 18030000 		.4byte	.LVL105
 3032 0df3 A6110000 		.4byte	0x11a6
 3033 0df7 010E0000 		.4byte	0xe01
 3034 0dfb 20       		.uleb128 0x20
 3035 0dfc 01       		.byte	0x1
 3036 0dfd 50       		.byte	0x50
 3037 0dfe 01       		.byte	0x1
 3038 0dff 47       		.byte	0x47
 3039 0e00 00       		.byte	0
 3040 0e01 1F       		.uleb128 0x1f
 3041 0e02 26030000 		.4byte	.LVL106
 3042 0e06 0D120000 		.4byte	0x120d
 3043 0e0a 1B0E0000 		.4byte	0xe1b
 3044 0e0e 20       		.uleb128 0x20
 3045 0e0f 01       		.byte	0x1
 3046 0e10 51       		.byte	0x51
 3047 0e11 02       		.byte	0x2
 3048 0e12 08       		.byte	0x8
 3049 0e13 43       		.byte	0x43
 3050 0e14 20       		.uleb128 0x20
 3051 0e15 01       		.byte	0x1
 3052 0e16 50       		.byte	0x50
 3053 0e17 02       		.byte	0x2
 3054 0e18 74       		.byte	0x74
 3055 0e19 00       		.sleb128 0
 3056 0e1a 00       		.byte	0
 3057 0e1b 1F       		.uleb128 0x1f
 3058 0e1c 34030000 		.4byte	.LVL108
 3059 0e20 A6110000 		.4byte	0x11a6
 3060 0e24 2E0E0000 		.4byte	0xe2e
 3061 0e28 20       		.uleb128 0x20
 3062 0e29 01       		.byte	0x1
 3063 0e2a 50       		.byte	0x50
 3064 0e2b 01       		.byte	0x1
 3065 0e2c 48       		.byte	0x48
 3066 0e2d 00       		.byte	0
 3067 0e2e 1F       		.uleb128 0x1f
 3068 0e2f 42030000 		.4byte	.LVL109
 3069 0e33 0D120000 		.4byte	0x120d
 3070 0e37 480E0000 		.4byte	0xe48
 3071 0e3b 20       		.uleb128 0x20
ARM GAS  /var/folders/dt/0wfd0knj7gs46m8vwfzktm600000gn/T//cca4GukL.s 			page 55


 3072 0e3c 01       		.byte	0x1
 3073 0e3d 51       		.byte	0x51
 3074 0e3e 02       		.byte	0x2
 3075 0e3f 08       		.byte	0x8
 3076 0e40 44       		.byte	0x44
 3077 0e41 20       		.uleb128 0x20
 3078 0e42 01       		.byte	0x1
 3079 0e43 50       		.byte	0x50
 3080 0e44 02       		.byte	0x2
 3081 0e45 74       		.byte	0x74
 3082 0e46 00       		.sleb128 0
 3083 0e47 00       		.byte	0
 3084 0e48 1F       		.uleb128 0x1f
 3085 0e49 50030000 		.4byte	.LVL111
 3086 0e4d A6110000 		.4byte	0x11a6
 3087 0e51 5B0E0000 		.4byte	0xe5b
 3088 0e55 20       		.uleb128 0x20
 3089 0e56 01       		.byte	0x1
 3090 0e57 50       		.byte	0x50
 3091 0e58 01       		.byte	0x1
 3092 0e59 49       		.byte	0x49
 3093 0e5a 00       		.byte	0
 3094 0e5b 1F       		.uleb128 0x1f
 3095 0e5c 60030000 		.4byte	.LVL112
 3096 0e60 0D120000 		.4byte	0x120d
 3097 0e64 750E0000 		.4byte	0xe75
 3098 0e68 20       		.uleb128 0x20
 3099 0e69 01       		.byte	0x1
 3100 0e6a 51       		.byte	0x51
 3101 0e6b 02       		.byte	0x2
 3102 0e6c 08       		.byte	0x8
 3103 0e6d 45       		.byte	0x45
 3104 0e6e 20       		.uleb128 0x20
 3105 0e6f 01       		.byte	0x1
 3106 0e70 50       		.byte	0x50
 3107 0e71 02       		.byte	0x2
 3108 0e72 74       		.byte	0x74
 3109 0e73 00       		.sleb128 0
 3110 0e74 00       		.byte	0
 3111 0e75 1F       		.uleb128 0x1f
 3112 0e76 76030000 		.4byte	.LVL118
 3113 0e7a A6110000 		.4byte	0x11a6
 3114 0e7e 880E0000 		.4byte	0xe88
 3115 0e82 20       		.uleb128 0x20
 3116 0e83 01       		.byte	0x1
 3117 0e84 50       		.byte	0x50
 3118 0e85 01       		.byte	0x1
 3119 0e86 4A       		.byte	0x4a
 3120 0e87 00       		.byte	0
 3121 0e88 1F       		.uleb128 0x1f
 3122 0e89 92030000 		.4byte	.LVL119
 3123 0e8d A6110000 		.4byte	0x11a6
 3124 0e91 9B0E0000 		.4byte	0xe9b
 3125 0e95 20       		.uleb128 0x20
 3126 0e96 01       		.byte	0x1
 3127 0e97 50       		.byte	0x50
 3128 0e98 01       		.byte	0x1
ARM GAS  /var/folders/dt/0wfd0knj7gs46m8vwfzktm600000gn/T//cca4GukL.s 			page 56


 3129 0e99 4B       		.byte	0x4b
 3130 0e9a 00       		.byte	0
 3131 0e9b 1F       		.uleb128 0x1f
 3132 0e9c AA030000 		.4byte	.LVL122
 3133 0ea0 A0120000 		.4byte	0x12a0
 3134 0ea4 B50E0000 		.4byte	0xeb5
 3135 0ea8 20       		.uleb128 0x20
 3136 0ea9 01       		.byte	0x1
 3137 0eaa 51       		.byte	0x51
 3138 0eab 02       		.byte	0x2
 3139 0eac 91       		.byte	0x91
 3140 0ead 64       		.sleb128 -28
 3141 0eae 20       		.uleb128 0x20
 3142 0eaf 01       		.byte	0x1
 3143 0eb0 50       		.byte	0x50
 3144 0eb1 02       		.byte	0x2
 3145 0eb2 74       		.byte	0x74
 3146 0eb3 00       		.sleb128 0
 3147 0eb4 00       		.byte	0
 3148 0eb5 1F       		.uleb128 0x1f
 3149 0eb6 C4030000 		.4byte	.LVL129
 3150 0eba A6110000 		.4byte	0x11a6
 3151 0ebe C80E0000 		.4byte	0xec8
 3152 0ec2 20       		.uleb128 0x20
 3153 0ec3 01       		.byte	0x1
 3154 0ec4 50       		.byte	0x50
 3155 0ec5 01       		.byte	0x1
 3156 0ec6 4C       		.byte	0x4c
 3157 0ec7 00       		.byte	0
 3158 0ec8 21       		.uleb128 0x21
 3159 0ec9 D2030000 		.4byte	.LVL130
 3160 0ecd 47120000 		.4byte	0x1247
 3161 0ed1 1F       		.uleb128 0x1f
 3162 0ed2 DE030000 		.4byte	.LVL131
 3163 0ed6 7D120000 		.4byte	0x127d
 3164 0eda ED0E0000 		.4byte	0xeed
 3165 0ede 20       		.uleb128 0x20
 3166 0edf 01       		.byte	0x1
 3167 0ee0 51       		.byte	0x51
 3168 0ee1 05       		.byte	0x5
 3169 0ee2 03       		.byte	0x3
 3170 0ee3 00000000 		.4byte	.LC0
 3171 0ee7 20       		.uleb128 0x20
 3172 0ee8 01       		.byte	0x1
 3173 0ee9 50       		.byte	0x50
 3174 0eea 01       		.byte	0x1
 3175 0eeb 4D       		.byte	0x4d
 3176 0eec 00       		.byte	0
 3177 0eed 1F       		.uleb128 0x1f
 3178 0eee F8030000 		.4byte	.LVL134
 3179 0ef2 A6110000 		.4byte	0x11a6
 3180 0ef6 000F0000 		.4byte	0xf00
 3181 0efa 20       		.uleb128 0x20
 3182 0efb 01       		.byte	0x1
 3183 0efc 50       		.byte	0x50
 3184 0efd 01       		.byte	0x1
 3185 0efe 4E       		.byte	0x4e
ARM GAS  /var/folders/dt/0wfd0knj7gs46m8vwfzktm600000gn/T//cca4GukL.s 			page 57


 3186 0eff 00       		.byte	0
 3187 0f00 1F       		.uleb128 0x1f
 3188 0f01 1A040000 		.4byte	.LVL138
 3189 0f05 A6110000 		.4byte	0x11a6
 3190 0f09 130F0000 		.4byte	0xf13
 3191 0f0d 20       		.uleb128 0x20
 3192 0f0e 01       		.byte	0x1
 3193 0f0f 50       		.byte	0x50
 3194 0f10 01       		.byte	0x1
 3195 0f11 4F       		.byte	0x4f
 3196 0f12 00       		.byte	0
 3197 0f13 1F       		.uleb128 0x1f
 3198 0f14 36040000 		.4byte	.LVL141
 3199 0f18 A6110000 		.4byte	0x11a6
 3200 0f1c 270F0000 		.4byte	0xf27
 3201 0f20 20       		.uleb128 0x20
 3202 0f21 01       		.byte	0x1
 3203 0f22 50       		.byte	0x50
 3204 0f23 02       		.byte	0x2
 3205 0f24 08       		.byte	0x8
 3206 0f25 20       		.byte	0x20
 3207 0f26 00       		.byte	0
 3208 0f27 1F       		.uleb128 0x1f
 3209 0f28 4A040000 		.4byte	.LVL144
 3210 0f2c 2A120000 		.4byte	0x122a
 3211 0f30 410F0000 		.4byte	0xf41
 3212 0f34 20       		.uleb128 0x20
 3213 0f35 01       		.byte	0x1
 3214 0f36 51       		.byte	0x51
 3215 0f37 02       		.byte	0x2
 3216 0f38 08       		.byte	0x8
 3217 0f39 45       		.byte	0x45
 3218 0f3a 20       		.uleb128 0x20
 3219 0f3b 01       		.byte	0x1
 3220 0f3c 50       		.byte	0x50
 3221 0f3d 02       		.byte	0x2
 3222 0f3e 74       		.byte	0x74
 3223 0f3f 00       		.sleb128 0
 3224 0f40 00       		.byte	0
 3225 0f41 1F       		.uleb128 0x1f
 3226 0f42 58040000 		.4byte	.LVL146
 3227 0f46 A6110000 		.4byte	0x11a6
 3228 0f4a 550F0000 		.4byte	0xf55
 3229 0f4e 20       		.uleb128 0x20
 3230 0f4f 01       		.byte	0x1
 3231 0f50 50       		.byte	0x50
 3232 0f51 02       		.byte	0x2
 3233 0f52 08       		.byte	0x8
 3234 0f53 21       		.byte	0x21
 3235 0f54 00       		.byte	0
 3236 0f55 1F       		.uleb128 0x1f
 3237 0f56 66040000 		.4byte	.LVL147
 3238 0f5a 2A120000 		.4byte	0x122a
 3239 0f5e 6F0F0000 		.4byte	0xf6f
 3240 0f62 20       		.uleb128 0x20
 3241 0f63 01       		.byte	0x1
 3242 0f64 51       		.byte	0x51
ARM GAS  /var/folders/dt/0wfd0knj7gs46m8vwfzktm600000gn/T//cca4GukL.s 			page 58


 3243 0f65 02       		.byte	0x2
 3244 0f66 08       		.byte	0x8
 3245 0f67 44       		.byte	0x44
 3246 0f68 20       		.uleb128 0x20
 3247 0f69 01       		.byte	0x1
 3248 0f6a 50       		.byte	0x50
 3249 0f6b 02       		.byte	0x2
 3250 0f6c 74       		.byte	0x74
 3251 0f6d 00       		.sleb128 0
 3252 0f6e 00       		.byte	0
 3253 0f6f 1F       		.uleb128 0x1f
 3254 0f70 74040000 		.4byte	.LVL149
 3255 0f74 A6110000 		.4byte	0x11a6
 3256 0f78 830F0000 		.4byte	0xf83
 3257 0f7c 20       		.uleb128 0x20
 3258 0f7d 01       		.byte	0x1
 3259 0f7e 50       		.byte	0x50
 3260 0f7f 02       		.byte	0x2
 3261 0f80 08       		.byte	0x8
 3262 0f81 22       		.byte	0x22
 3263 0f82 00       		.byte	0
 3264 0f83 1F       		.uleb128 0x1f
 3265 0f84 82040000 		.4byte	.LVL150
 3266 0f88 2A120000 		.4byte	0x122a
 3267 0f8c 9D0F0000 		.4byte	0xf9d
 3268 0f90 20       		.uleb128 0x20
 3269 0f91 01       		.byte	0x1
 3270 0f92 51       		.byte	0x51
 3271 0f93 02       		.byte	0x2
 3272 0f94 08       		.byte	0x8
 3273 0f95 43       		.byte	0x43
 3274 0f96 20       		.uleb128 0x20
 3275 0f97 01       		.byte	0x1
 3276 0f98 50       		.byte	0x50
 3277 0f99 02       		.byte	0x2
 3278 0f9a 74       		.byte	0x74
 3279 0f9b 00       		.sleb128 0
 3280 0f9c 00       		.byte	0
 3281 0f9d 1F       		.uleb128 0x1f
 3282 0f9e 90040000 		.4byte	.LVL152
 3283 0fa2 A6110000 		.4byte	0x11a6
 3284 0fa6 B10F0000 		.4byte	0xfb1
 3285 0faa 20       		.uleb128 0x20
 3286 0fab 01       		.byte	0x1
 3287 0fac 50       		.byte	0x50
 3288 0fad 02       		.byte	0x2
 3289 0fae 08       		.byte	0x8
 3290 0faf 23       		.byte	0x23
 3291 0fb0 00       		.byte	0
 3292 0fb1 1F       		.uleb128 0x1f
 3293 0fb2 9E040000 		.4byte	.LVL153
 3294 0fb6 2A120000 		.4byte	0x122a
 3295 0fba CB0F0000 		.4byte	0xfcb
 3296 0fbe 20       		.uleb128 0x20
 3297 0fbf 01       		.byte	0x1
 3298 0fc0 51       		.byte	0x51
 3299 0fc1 02       		.byte	0x2
ARM GAS  /var/folders/dt/0wfd0knj7gs46m8vwfzktm600000gn/T//cca4GukL.s 			page 59


 3300 0fc2 08       		.byte	0x8
 3301 0fc3 42       		.byte	0x42
 3302 0fc4 20       		.uleb128 0x20
 3303 0fc5 01       		.byte	0x1
 3304 0fc6 50       		.byte	0x50
 3305 0fc7 02       		.byte	0x2
 3306 0fc8 74       		.byte	0x74
 3307 0fc9 00       		.sleb128 0
 3308 0fca 00       		.byte	0
 3309 0fcb 1F       		.uleb128 0x1f
 3310 0fcc AC040000 		.4byte	.LVL155
 3311 0fd0 A6110000 		.4byte	0x11a6
 3312 0fd4 DF0F0000 		.4byte	0xfdf
 3313 0fd8 20       		.uleb128 0x20
 3314 0fd9 01       		.byte	0x1
 3315 0fda 50       		.byte	0x50
 3316 0fdb 02       		.byte	0x2
 3317 0fdc 08       		.byte	0x8
 3318 0fdd 24       		.byte	0x24
 3319 0fde 00       		.byte	0
 3320 0fdf 1F       		.uleb128 0x1f
 3321 0fe0 BC040000 		.4byte	.LVL156
 3322 0fe4 2A120000 		.4byte	0x122a
 3323 0fe8 F90F0000 		.4byte	0xff9
 3324 0fec 20       		.uleb128 0x20
 3325 0fed 01       		.byte	0x1
 3326 0fee 51       		.byte	0x51
 3327 0fef 02       		.byte	0x2
 3328 0ff0 08       		.byte	0x8
 3329 0ff1 41       		.byte	0x41
 3330 0ff2 20       		.uleb128 0x20
 3331 0ff3 01       		.byte	0x1
 3332 0ff4 50       		.byte	0x50
 3333 0ff5 02       		.byte	0x2
 3334 0ff6 74       		.byte	0x74
 3335 0ff7 00       		.sleb128 0
 3336 0ff8 00       		.byte	0
 3337 0ff9 1F       		.uleb128 0x1f
 3338 0ffa D6040000 		.4byte	.LVL163
 3339 0ffe A6110000 		.4byte	0x11a6
 3340 1002 0D100000 		.4byte	0x100d
 3341 1006 20       		.uleb128 0x20
 3342 1007 01       		.byte	0x1
 3343 1008 50       		.byte	0x50
 3344 1009 02       		.byte	0x2
 3345 100a 08       		.byte	0x8
 3346 100b 25       		.byte	0x25
 3347 100c 00       		.byte	0
 3348 100d 1F       		.uleb128 0x1f
 3349 100e F2040000 		.4byte	.LVL164
 3350 1012 A6110000 		.4byte	0x11a6
 3351 1016 21100000 		.4byte	0x1021
 3352 101a 20       		.uleb128 0x20
 3353 101b 01       		.byte	0x1
 3354 101c 50       		.byte	0x50
 3355 101d 02       		.byte	0x2
 3356 101e 08       		.byte	0x8
ARM GAS  /var/folders/dt/0wfd0knj7gs46m8vwfzktm600000gn/T//cca4GukL.s 			page 60


 3357 101f 26       		.byte	0x26
 3358 1020 00       		.byte	0
 3359 1021 1F       		.uleb128 0x1f
 3360 1022 0A050000 		.4byte	.LVL167
 3361 1026 A0120000 		.4byte	0x12a0
 3362 102a 3B100000 		.4byte	0x103b
 3363 102e 20       		.uleb128 0x20
 3364 102f 01       		.byte	0x1
 3365 1030 51       		.byte	0x51
 3366 1031 02       		.byte	0x2
 3367 1032 91       		.byte	0x91
 3368 1033 64       		.sleb128 -28
 3369 1034 20       		.uleb128 0x20
 3370 1035 01       		.byte	0x1
 3371 1036 50       		.byte	0x50
 3372 1037 02       		.byte	0x2
 3373 1038 74       		.byte	0x74
 3374 1039 00       		.sleb128 0
 3375 103a 00       		.byte	0
 3376 103b 1F       		.uleb128 0x1f
 3377 103c 1E050000 		.4byte	.LVL174
 3378 1040 A6110000 		.4byte	0x11a6
 3379 1044 4F100000 		.4byte	0x104f
 3380 1048 20       		.uleb128 0x20
 3381 1049 01       		.byte	0x1
 3382 104a 50       		.byte	0x50
 3383 104b 02       		.byte	0x2
 3384 104c 08       		.byte	0x8
 3385 104d 27       		.byte	0x27
 3386 104e 00       		.byte	0
 3387 104f 21       		.uleb128 0x21
 3388 1050 2C050000 		.4byte	.LVL175
 3389 1054 47120000 		.4byte	0x1247
 3390 1058 1F       		.uleb128 0x1f
 3391 1059 38050000 		.4byte	.LVL176
 3392 105d 7D120000 		.4byte	0x127d
 3393 1061 75100000 		.4byte	0x1075
 3394 1065 20       		.uleb128 0x20
 3395 1066 01       		.byte	0x1
 3396 1067 51       		.byte	0x51
 3397 1068 05       		.byte	0x5
 3398 1069 03       		.byte	0x3
 3399 106a 00000000 		.4byte	.LC0
 3400 106e 20       		.uleb128 0x20
 3401 106f 01       		.byte	0x1
 3402 1070 50       		.byte	0x50
 3403 1071 02       		.byte	0x2
 3404 1072 08       		.byte	0x8
 3405 1073 28       		.byte	0x28
 3406 1074 00       		.byte	0
 3407 1075 1F       		.uleb128 0x1f
 3408 1076 52050000 		.4byte	.LVL180
 3409 107a A6110000 		.4byte	0x11a6
 3410 107e 89100000 		.4byte	0x1089
 3411 1082 20       		.uleb128 0x20
 3412 1083 01       		.byte	0x1
 3413 1084 50       		.byte	0x50
ARM GAS  /var/folders/dt/0wfd0knj7gs46m8vwfzktm600000gn/T//cca4GukL.s 			page 61


 3414 1085 02       		.byte	0x2
 3415 1086 08       		.byte	0x8
 3416 1087 29       		.byte	0x29
 3417 1088 00       		.byte	0
 3418 1089 1F       		.uleb128 0x1f
 3419 108a 74050000 		.4byte	.LVL184
 3420 108e A6110000 		.4byte	0x11a6
 3421 1092 9D100000 		.4byte	0x109d
 3422 1096 20       		.uleb128 0x20
 3423 1097 01       		.byte	0x1
 3424 1098 50       		.byte	0x50
 3425 1099 02       		.byte	0x2
 3426 109a 08       		.byte	0x8
 3427 109b 2A       		.byte	0x2a
 3428 109c 00       		.byte	0
 3429 109d 1F       		.uleb128 0x1f
 3430 109e 96050000 		.4byte	.LVL187
 3431 10a2 A6110000 		.4byte	0x11a6
 3432 10a6 B1100000 		.4byte	0x10b1
 3433 10aa 20       		.uleb128 0x20
 3434 10ab 01       		.byte	0x1
 3435 10ac 50       		.byte	0x50
 3436 10ad 02       		.byte	0x2
 3437 10ae 08       		.byte	0x8
 3438 10af 2B       		.byte	0x2b
 3439 10b0 00       		.byte	0
 3440 10b1 1F       		.uleb128 0x1f
 3441 10b2 A2050000 		.4byte	.LVL188
 3442 10b6 BD120000 		.4byte	0x12bd
 3443 10ba C5100000 		.4byte	0x10c5
 3444 10be 20       		.uleb128 0x20
 3445 10bf 01       		.byte	0x1
 3446 10c0 50       		.byte	0x50
 3447 10c1 02       		.byte	0x2
 3448 10c2 74       		.byte	0x74
 3449 10c3 00       		.sleb128 0
 3450 10c4 00       		.byte	0
 3451 10c5 1F       		.uleb128 0x1f
 3452 10c6 BC050000 		.4byte	.LVL191
 3453 10ca A6110000 		.4byte	0x11a6
 3454 10ce D9100000 		.4byte	0x10d9
 3455 10d2 20       		.uleb128 0x20
 3456 10d3 01       		.byte	0x1
 3457 10d4 50       		.byte	0x50
 3458 10d5 02       		.byte	0x2
 3459 10d6 08       		.byte	0x8
 3460 10d7 2C       		.byte	0x2c
 3461 10d8 00       		.byte	0
 3462 10d9 1F       		.uleb128 0x1f
 3463 10da DE050000 		.4byte	.LVL195
 3464 10de A6110000 		.4byte	0x11a6
 3465 10e2 ED100000 		.4byte	0x10ed
 3466 10e6 20       		.uleb128 0x20
 3467 10e7 01       		.byte	0x1
 3468 10e8 50       		.byte	0x50
 3469 10e9 02       		.byte	0x2
 3470 10ea 08       		.byte	0x8
ARM GAS  /var/folders/dt/0wfd0knj7gs46m8vwfzktm600000gn/T//cca4GukL.s 			page 62


 3471 10eb 2D       		.byte	0x2d
 3472 10ec 00       		.byte	0
 3473 10ed 1F       		.uleb128 0x1f
 3474 10ee 00060000 		.4byte	.LVL200
 3475 10f2 A6110000 		.4byte	0x11a6
 3476 10f6 01110000 		.4byte	0x1101
 3477 10fa 20       		.uleb128 0x20
 3478 10fb 01       		.byte	0x1
 3479 10fc 50       		.byte	0x50
 3480 10fd 02       		.byte	0x2
 3481 10fe 08       		.byte	0x8
 3482 10ff 2E       		.byte	0x2e
 3483 1100 00       		.byte	0
 3484 1101 22       		.uleb128 0x22
 3485 1102 22060000 		.4byte	.LVL205
 3486 1106 A6110000 		.4byte	0x11a6
 3487 110a 20       		.uleb128 0x20
 3488 110b 01       		.byte	0x1
 3489 110c 50       		.byte	0x50
 3490 110d 02       		.byte	0x2
 3491 110e 08       		.byte	0x8
 3492 110f 2F       		.byte	0x2f
 3493 1110 00       		.byte	0
 3494 1111 00       		.byte	0
 3495 1112 23       		.uleb128 0x23
 3496 1113 DA010000 		.4byte	.LASF75
 3497 1117 01       		.byte	0x1
 3498 1118 52       		.byte	0x52
 3499 1119 01       		.byte	0x1
 3500 111a 00000000 		.4byte	.LFB7
 3501 111e 16000000 		.4byte	.LFE7
 3502 1122 02       		.byte	0x2
 3503 1123 7D       		.byte	0x7d
 3504 1124 00       		.sleb128 0
 3505 1125 01       		.byte	0x1
 3506 1126 44110000 		.4byte	0x1144
 3507 112a 24       		.uleb128 0x24
 3508 112b 16000000 		.4byte	.LVL206
 3509 112f 01       		.byte	0x1
 3510 1130 D1120000 		.4byte	0x12d1
 3511 1134 20       		.uleb128 0x20
 3512 1135 01       		.byte	0x1
 3513 1136 52       		.byte	0x52
 3514 1137 01       		.byte	0x1
 3515 1138 35       		.byte	0x35
 3516 1139 20       		.uleb128 0x20
 3517 113a 01       		.byte	0x1
 3518 113b 50       		.byte	0x50
 3519 113c 05       		.byte	0x5
 3520 113d 03       		.byte	0x3
 3521 113e 00000000 		.4byte	.LANCHOR0
 3522 1142 00       		.byte	0
 3523 1143 00       		.byte	0
 3524 1144 1E       		.uleb128 0x1e
 3525 1145 6D623100 		.ascii	"mb1\000"
 3526 1149 01       		.byte	0x1
 3527 114a 47       		.byte	0x47
ARM GAS  /var/folders/dt/0wfd0knj7gs46m8vwfzktm600000gn/T//cca4GukL.s 			page 63


 3528 114b 2B040000 		.4byte	0x42b
 3529 114f 05       		.byte	0x5
 3530 1150 03       		.byte	0x3
 3531 1151 00000000 		.4byte	mb1
 3532 1155 25       		.uleb128 0x25
 3533 1156 B6000000 		.4byte	.LASF76
 3534 115a 0A       		.byte	0xa
 3535 115b B1       		.byte	0xb1
 3536 115c 2F050000 		.4byte	0x52f
 3537 1160 01       		.byte	0x1
 3538 1161 01       		.byte	0x1
 3539 1162 26       		.uleb128 0x26
 3540 1163 04020000 		.4byte	.LASF77
 3541 1167 01       		.byte	0x1
 3542 1168 E9       		.byte	0xe9
 3543 1169 74110000 		.4byte	0x1174
 3544 116d 01       		.byte	0x1
 3545 116e 05       		.byte	0x5
 3546 116f 03       		.byte	0x3
 3547 1170 00000000 		.4byte	testmbox1
 3548 1174 10       		.uleb128 0x10
 3549 1175 83040000 		.4byte	0x483
 3550 1179 13       		.uleb128 0x13
 3551 117a 89110000 		.4byte	0x1189
 3552 117e 89110000 		.4byte	0x1189
 3553 1182 14       		.uleb128 0x14
 3554 1183 40030000 		.4byte	0x340
 3555 1187 01       		.byte	0x1
 3556 1188 00       		.byte	0
 3557 1189 09       		.uleb128 0x9
 3558 118a 04       		.byte	0x4
 3559 118b 74110000 		.4byte	0x1174
 3560 118f 26       		.uleb128 0x26
 3561 1190 A1000000 		.4byte	.LASF78
 3562 1194 01       		.byte	0x1
 3563 1195 F5       		.byte	0xf5
 3564 1196 A1110000 		.4byte	0x11a1
 3565 119a 01       		.byte	0x1
 3566 119b 05       		.byte	0x5
 3567 119c 03       		.byte	0x3
 3568 119d 00000000 		.4byte	patternmbox
 3569 11a1 10       		.uleb128 0x10
 3570 11a2 79110000 		.4byte	0x1179
 3571 11a6 27       		.uleb128 0x27
 3572 11a7 01       		.byte	0x1
 3573 11a8 BC030000 		.4byte	.LASF79
 3574 11ac 0A       		.byte	0xa
 3575 11ad 63       		.byte	0x63
 3576 11ae 01       		.byte	0x1
 3577 11af 9B000000 		.4byte	0x9b
 3578 11b3 01       		.byte	0x1
 3579 11b4 C3110000 		.4byte	0x11c3
 3580 11b8 28       		.uleb128 0x28
 3581 11b9 30000000 		.4byte	0x30
 3582 11bd 28       		.uleb128 0x28
 3583 11be 9B000000 		.4byte	0x9b
 3584 11c2 00       		.byte	0
ARM GAS  /var/folders/dt/0wfd0knj7gs46m8vwfzktm600000gn/T//cca4GukL.s 			page 64


 3585 11c3 27       		.uleb128 0x27
 3586 11c4 01       		.byte	0x1
 3587 11c5 0C010000 		.4byte	.LASF80
 3588 11c9 09       		.byte	0x9
 3589 11ca 45       		.byte	0x45
 3590 11cb 01       		.byte	0x1
 3591 11cc D2000000 		.4byte	0xd2
 3592 11d0 01       		.byte	0x1
 3593 11d1 E5110000 		.4byte	0x11e5
 3594 11d5 28       		.uleb128 0x28
 3595 11d6 E5110000 		.4byte	0x11e5
 3596 11da 28       		.uleb128 0x28
 3597 11db D2000000 		.4byte	0xd2
 3598 11df 28       		.uleb128 0x28
 3599 11e0 E8000000 		.4byte	0xe8
 3600 11e4 00       		.byte	0
 3601 11e5 09       		.uleb128 0x9
 3602 11e6 04       		.byte	0x4
 3603 11e7 2B040000 		.4byte	0x42b
 3604 11eb 27       		.uleb128 0x27
 3605 11ec 01       		.byte	0x1
 3606 11ed 53030000 		.4byte	.LASF81
 3607 11f1 09       		.byte	0x9
 3608 11f2 48       		.byte	0x48
 3609 11f3 01       		.byte	0x1
 3610 11f4 D2000000 		.4byte	0xd2
 3611 11f8 01       		.byte	0x1
 3612 11f9 0D120000 		.4byte	0x120d
 3613 11fd 28       		.uleb128 0x28
 3614 11fe E5110000 		.4byte	0x11e5
 3615 1202 28       		.uleb128 0x28
 3616 1203 D2000000 		.4byte	0xd2
 3617 1207 28       		.uleb128 0x28
 3618 1208 E8000000 		.4byte	0xe8
 3619 120c 00       		.byte	0
 3620 120d 27       		.uleb128 0x27
 3621 120e 01       		.byte	0x1
 3622 120f 69000000 		.4byte	.LASF82
 3623 1213 09       		.byte	0x9
 3624 1214 47       		.byte	0x47
 3625 1215 01       		.byte	0x1
 3626 1216 D2000000 		.4byte	0xd2
 3627 121a 01       		.byte	0x1
 3628 121b 2A120000 		.4byte	0x122a
 3629 121f 28       		.uleb128 0x28
 3630 1220 E5110000 		.4byte	0x11e5
 3631 1224 28       		.uleb128 0x28
 3632 1225 D2000000 		.4byte	0xd2
 3633 1229 00       		.byte	0
 3634 122a 27       		.uleb128 0x27
 3635 122b 01       		.byte	0x1
 3636 122c 7B000000 		.4byte	.LASF83
 3637 1230 09       		.byte	0x9
 3638 1231 4A       		.byte	0x4a
 3639 1232 01       		.byte	0x1
 3640 1233 D2000000 		.4byte	0xd2
 3641 1237 01       		.byte	0x1
ARM GAS  /var/folders/dt/0wfd0knj7gs46m8vwfzktm600000gn/T//cca4GukL.s 			page 65


 3642 1238 47120000 		.4byte	0x1247
 3643 123c 28       		.uleb128 0x28
 3644 123d E5110000 		.4byte	0x11e5
 3645 1241 28       		.uleb128 0x28
 3646 1242 D2000000 		.4byte	0xd2
 3647 1246 00       		.byte	0
 3648 1247 29       		.uleb128 0x29
 3649 1248 01       		.byte	0x1
 3650 1249 FC000000 		.4byte	.LASF87
 3651 124d 0A       		.byte	0xa
 3652 124e 61       		.byte	0x61
 3653 124f 01       		.byte	0x1
 3654 1250 01       		.byte	0x1
 3655 1251 5B120000 		.4byte	0x125b
 3656 1255 28       		.uleb128 0x28
 3657 1256 76040000 		.4byte	0x476
 3658 125a 00       		.byte	0
 3659 125b 27       		.uleb128 0x27
 3660 125c 01       		.byte	0x1
 3661 125d 73030000 		.4byte	.LASF84
 3662 1261 09       		.byte	0x9
 3663 1262 4B       		.byte	0x4b
 3664 1263 01       		.byte	0x1
 3665 1264 D2000000 		.4byte	0xd2
 3666 1268 01       		.byte	0x1
 3667 1269 7D120000 		.4byte	0x127d
 3668 126d 28       		.uleb128 0x28
 3669 126e E5110000 		.4byte	0x11e5
 3670 1272 28       		.uleb128 0x28
 3671 1273 25040000 		.4byte	0x425
 3672 1277 28       		.uleb128 0x28
 3673 1278 E8000000 		.4byte	0xe8
 3674 127c 00       		.byte	0
 3675 127d 27       		.uleb128 0x27
 3676 127e 01       		.byte	0x1
 3677 127f 50020000 		.4byte	.LASF85
 3678 1283 0A       		.byte	0xa
 3679 1284 64       		.byte	0x64
 3680 1285 01       		.byte	0x1
 3681 1286 9B000000 		.4byte	0x9b
 3682 128a 01       		.byte	0x1
 3683 128b 9A120000 		.4byte	0x129a
 3684 128f 28       		.uleb128 0x28
 3685 1290 30000000 		.4byte	0x30
 3686 1294 28       		.uleb128 0x28
 3687 1295 9A120000 		.4byte	0x129a
 3688 1299 00       		.byte	0
 3689 129a 09       		.uleb128 0x9
 3690 129b 04       		.byte	0x4
 3691 129c 76040000 		.4byte	0x476
 3692 12a0 27       		.uleb128 0x27
 3693 12a1 01       		.byte	0x1
 3694 12a2 C1010000 		.4byte	.LASF86
 3695 12a6 09       		.byte	0x9
 3696 12a7 4D       		.byte	0x4d
 3697 12a8 01       		.byte	0x1
 3698 12a9 D2000000 		.4byte	0xd2
ARM GAS  /var/folders/dt/0wfd0knj7gs46m8vwfzktm600000gn/T//cca4GukL.s 			page 66


 3699 12ad 01       		.byte	0x1
 3700 12ae BD120000 		.4byte	0x12bd
 3701 12b2 28       		.uleb128 0x28
 3702 12b3 E5110000 		.4byte	0x11e5
 3703 12b7 28       		.uleb128 0x28
 3704 12b8 25040000 		.4byte	0x425
 3705 12bc 00       		.byte	0
 3706 12bd 29       		.uleb128 0x29
 3707 12be 01       		.byte	0x1
 3708 12bf 2B020000 		.4byte	.LASF88
 3709 12c3 09       		.byte	0x9
 3710 12c4 44       		.byte	0x44
 3711 12c5 01       		.byte	0x1
 3712 12c6 01       		.byte	0x1
 3713 12c7 D1120000 		.4byte	0x12d1
 3714 12cb 28       		.uleb128 0x28
 3715 12cc E5110000 		.4byte	0x11e5
 3716 12d0 00       		.byte	0
 3717 12d1 2A       		.uleb128 0x2a
 3718 12d2 01       		.byte	0x1
 3719 12d3 53010000 		.4byte	.LASF94
 3720 12d7 09       		.byte	0x9
 3721 12d8 43       		.byte	0x43
 3722 12d9 01       		.byte	0x1
 3723 12da 01       		.byte	0x1
 3724 12db 28       		.uleb128 0x28
 3725 12dc E5110000 		.4byte	0x11e5
 3726 12e0 28       		.uleb128 0x28
 3727 12e1 25040000 		.4byte	0x425
 3728 12e5 28       		.uleb128 0x28
 3729 12e6 F3000000 		.4byte	0xf3
 3730 12ea 00       		.byte	0
 3731 12eb 00       		.byte	0
 3732              		.section	.debug_abbrev,"",%progbits
 3733              	.Ldebug_abbrev0:
 3734 0000 01       		.uleb128 0x1
 3735 0001 11       		.uleb128 0x11
 3736 0002 01       		.byte	0x1
 3737 0003 25       		.uleb128 0x25
 3738 0004 0E       		.uleb128 0xe
 3739 0005 13       		.uleb128 0x13
 3740 0006 0B       		.uleb128 0xb
 3741 0007 03       		.uleb128 0x3
 3742 0008 0E       		.uleb128 0xe
 3743 0009 1B       		.uleb128 0x1b
 3744 000a 0E       		.uleb128 0xe
 3745 000b 55       		.uleb128 0x55
 3746 000c 06       		.uleb128 0x6
 3747 000d 11       		.uleb128 0x11
 3748 000e 01       		.uleb128 0x1
 3749 000f 52       		.uleb128 0x52
 3750 0010 01       		.uleb128 0x1
 3751 0011 10       		.uleb128 0x10
 3752 0012 06       		.uleb128 0x6
 3753 0013 00       		.byte	0
 3754 0014 00       		.byte	0
 3755 0015 02       		.uleb128 0x2
ARM GAS  /var/folders/dt/0wfd0knj7gs46m8vwfzktm600000gn/T//cca4GukL.s 			page 67


 3756 0016 24       		.uleb128 0x24
 3757 0017 00       		.byte	0
 3758 0018 0B       		.uleb128 0xb
 3759 0019 0B       		.uleb128 0xb
 3760 001a 3E       		.uleb128 0x3e
 3761 001b 0B       		.uleb128 0xb
 3762 001c 03       		.uleb128 0x3
 3763 001d 08       		.uleb128 0x8
 3764 001e 00       		.byte	0
 3765 001f 00       		.byte	0
 3766 0020 03       		.uleb128 0x3
 3767 0021 24       		.uleb128 0x24
 3768 0022 00       		.byte	0
 3769 0023 0B       		.uleb128 0xb
 3770 0024 0B       		.uleb128 0xb
 3771 0025 3E       		.uleb128 0x3e
 3772 0026 0B       		.uleb128 0xb
 3773 0027 03       		.uleb128 0x3
 3774 0028 0E       		.uleb128 0xe
 3775 0029 00       		.byte	0
 3776 002a 00       		.byte	0
 3777 002b 04       		.uleb128 0x4
 3778 002c 16       		.uleb128 0x16
 3779 002d 00       		.byte	0
 3780 002e 03       		.uleb128 0x3
 3781 002f 0E       		.uleb128 0xe
 3782 0030 3A       		.uleb128 0x3a
 3783 0031 0B       		.uleb128 0xb
 3784 0032 3B       		.uleb128 0x3b
 3785 0033 0B       		.uleb128 0xb
 3786 0034 49       		.uleb128 0x49
 3787 0035 13       		.uleb128 0x13
 3788 0036 00       		.byte	0
 3789 0037 00       		.byte	0
 3790 0038 05       		.uleb128 0x5
 3791 0039 13       		.uleb128 0x13
 3792 003a 01       		.byte	0x1
 3793 003b 03       		.uleb128 0x3
 3794 003c 0E       		.uleb128 0xe
 3795 003d 0B       		.uleb128 0xb
 3796 003e 0B       		.uleb128 0xb
 3797 003f 3A       		.uleb128 0x3a
 3798 0040 0B       		.uleb128 0xb
 3799 0041 3B       		.uleb128 0x3b
 3800 0042 0B       		.uleb128 0xb
 3801 0043 01       		.uleb128 0x1
 3802 0044 13       		.uleb128 0x13
 3803 0045 00       		.byte	0
 3804 0046 00       		.byte	0
 3805 0047 06       		.uleb128 0x6
 3806 0048 0D       		.uleb128 0xd
 3807 0049 00       		.byte	0
 3808 004a 03       		.uleb128 0x3
 3809 004b 0E       		.uleb128 0xe
 3810 004c 3A       		.uleb128 0x3a
 3811 004d 0B       		.uleb128 0xb
 3812 004e 3B       		.uleb128 0x3b
ARM GAS  /var/folders/dt/0wfd0knj7gs46m8vwfzktm600000gn/T//cca4GukL.s 			page 68


 3813 004f 0B       		.uleb128 0xb
 3814 0050 49       		.uleb128 0x49
 3815 0051 13       		.uleb128 0x13
 3816 0052 38       		.uleb128 0x38
 3817 0053 0A       		.uleb128 0xa
 3818 0054 00       		.byte	0
 3819 0055 00       		.byte	0
 3820 0056 07       		.uleb128 0x7
 3821 0057 0D       		.uleb128 0xd
 3822 0058 00       		.byte	0
 3823 0059 03       		.uleb128 0x3
 3824 005a 08       		.uleb128 0x8
 3825 005b 3A       		.uleb128 0x3a
 3826 005c 0B       		.uleb128 0xb
 3827 005d 3B       		.uleb128 0x3b
 3828 005e 0B       		.uleb128 0xb
 3829 005f 49       		.uleb128 0x49
 3830 0060 13       		.uleb128 0x13
 3831 0061 38       		.uleb128 0x38
 3832 0062 0A       		.uleb128 0xa
 3833 0063 00       		.byte	0
 3834 0064 00       		.byte	0
 3835 0065 08       		.uleb128 0x8
 3836 0066 13       		.uleb128 0x13
 3837 0067 01       		.byte	0x1
 3838 0068 0B       		.uleb128 0xb
 3839 0069 0B       		.uleb128 0xb
 3840 006a 3A       		.uleb128 0x3a
 3841 006b 0B       		.uleb128 0xb
 3842 006c 3B       		.uleb128 0x3b
 3843 006d 0B       		.uleb128 0xb
 3844 006e 01       		.uleb128 0x1
 3845 006f 13       		.uleb128 0x13
 3846 0070 00       		.byte	0
 3847 0071 00       		.byte	0
 3848 0072 09       		.uleb128 0x9
 3849 0073 0F       		.uleb128 0xf
 3850 0074 00       		.byte	0
 3851 0075 0B       		.uleb128 0xb
 3852 0076 0B       		.uleb128 0xb
 3853 0077 49       		.uleb128 0x49
 3854 0078 13       		.uleb128 0x13
 3855 0079 00       		.byte	0
 3856 007a 00       		.byte	0
 3857 007b 0A       		.uleb128 0xa
 3858 007c 0F       		.uleb128 0xf
 3859 007d 00       		.byte	0
 3860 007e 0B       		.uleb128 0xb
 3861 007f 0B       		.uleb128 0xb
 3862 0080 00       		.byte	0
 3863 0081 00       		.byte	0
 3864 0082 0B       		.uleb128 0xb
 3865 0083 0D       		.uleb128 0xd
 3866 0084 00       		.byte	0
 3867 0085 03       		.uleb128 0x3
 3868 0086 08       		.uleb128 0x8
 3869 0087 3A       		.uleb128 0x3a
ARM GAS  /var/folders/dt/0wfd0knj7gs46m8vwfzktm600000gn/T//cca4GukL.s 			page 69


 3870 0088 0B       		.uleb128 0xb
 3871 0089 3B       		.uleb128 0x3b
 3872 008a 05       		.uleb128 0x5
 3873 008b 49       		.uleb128 0x49
 3874 008c 13       		.uleb128 0x13
 3875 008d 38       		.uleb128 0x38
 3876 008e 0A       		.uleb128 0xa
 3877 008f 00       		.byte	0
 3878 0090 00       		.byte	0
 3879 0091 0C       		.uleb128 0xc
 3880 0092 13       		.uleb128 0x13
 3881 0093 01       		.byte	0x1
 3882 0094 03       		.uleb128 0x3
 3883 0095 0E       		.uleb128 0xe
 3884 0096 0B       		.uleb128 0xb
 3885 0097 0B       		.uleb128 0xb
 3886 0098 3A       		.uleb128 0x3a
 3887 0099 0B       		.uleb128 0xb
 3888 009a 3B       		.uleb128 0x3b
 3889 009b 05       		.uleb128 0x5
 3890 009c 01       		.uleb128 0x1
 3891 009d 13       		.uleb128 0x13
 3892 009e 00       		.byte	0
 3893 009f 00       		.byte	0
 3894 00a0 0D       		.uleb128 0xd
 3895 00a1 35       		.uleb128 0x35
 3896 00a2 00       		.byte	0
 3897 00a3 49       		.uleb128 0x49
 3898 00a4 13       		.uleb128 0x13
 3899 00a5 00       		.byte	0
 3900 00a6 00       		.byte	0
 3901 00a7 0E       		.uleb128 0xe
 3902 00a8 17       		.uleb128 0x17
 3903 00a9 01       		.byte	0x1
 3904 00aa 0B       		.uleb128 0xb
 3905 00ab 0B       		.uleb128 0xb
 3906 00ac 3A       		.uleb128 0x3a
 3907 00ad 0B       		.uleb128 0xb
 3908 00ae 3B       		.uleb128 0x3b
 3909 00af 0B       		.uleb128 0xb
 3910 00b0 01       		.uleb128 0x1
 3911 00b1 13       		.uleb128 0x13
 3912 00b2 00       		.byte	0
 3913 00b3 00       		.byte	0
 3914 00b4 0F       		.uleb128 0xf
 3915 00b5 0D       		.uleb128 0xd
 3916 00b6 00       		.byte	0
 3917 00b7 03       		.uleb128 0x3
 3918 00b8 0E       		.uleb128 0xe
 3919 00b9 3A       		.uleb128 0x3a
 3920 00ba 0B       		.uleb128 0xb
 3921 00bb 3B       		.uleb128 0x3b
 3922 00bc 0B       		.uleb128 0xb
 3923 00bd 49       		.uleb128 0x49
 3924 00be 13       		.uleb128 0x13
 3925 00bf 00       		.byte	0
 3926 00c0 00       		.byte	0
ARM GAS  /var/folders/dt/0wfd0knj7gs46m8vwfzktm600000gn/T//cca4GukL.s 			page 70


 3927 00c1 10       		.uleb128 0x10
 3928 00c2 26       		.uleb128 0x26
 3929 00c3 00       		.byte	0
 3930 00c4 49       		.uleb128 0x49
 3931 00c5 13       		.uleb128 0x13
 3932 00c6 00       		.byte	0
 3933 00c7 00       		.byte	0
 3934 00c8 11       		.uleb128 0x11
 3935 00c9 15       		.uleb128 0x15
 3936 00ca 00       		.byte	0
 3937 00cb 27       		.uleb128 0x27
 3938 00cc 0C       		.uleb128 0xc
 3939 00cd 00       		.byte	0
 3940 00ce 00       		.byte	0
 3941 00cf 12       		.uleb128 0x12
 3942 00d0 13       		.uleb128 0x13
 3943 00d1 01       		.byte	0x1
 3944 00d2 0B       		.uleb128 0xb
 3945 00d3 05       		.uleb128 0x5
 3946 00d4 3A       		.uleb128 0x3a
 3947 00d5 0B       		.uleb128 0xb
 3948 00d6 3B       		.uleb128 0x3b
 3949 00d7 0B       		.uleb128 0xb
 3950 00d8 01       		.uleb128 0x1
 3951 00d9 13       		.uleb128 0x13
 3952 00da 00       		.byte	0
 3953 00db 00       		.byte	0
 3954 00dc 13       		.uleb128 0x13
 3955 00dd 01       		.uleb128 0x1
 3956 00de 01       		.byte	0x1
 3957 00df 49       		.uleb128 0x49
 3958 00e0 13       		.uleb128 0x13
 3959 00e1 01       		.uleb128 0x1
 3960 00e2 13       		.uleb128 0x13
 3961 00e3 00       		.byte	0
 3962 00e4 00       		.byte	0
 3963 00e5 14       		.uleb128 0x14
 3964 00e6 21       		.uleb128 0x21
 3965 00e7 00       		.byte	0
 3966 00e8 49       		.uleb128 0x49
 3967 00e9 13       		.uleb128 0x13
 3968 00ea 2F       		.uleb128 0x2f
 3969 00eb 0B       		.uleb128 0xb
 3970 00ec 00       		.byte	0
 3971 00ed 00       		.byte	0
 3972 00ee 15       		.uleb128 0x15
 3973 00ef 17       		.uleb128 0x17
 3974 00f0 01       		.byte	0x1
 3975 00f1 03       		.uleb128 0x3
 3976 00f2 0E       		.uleb128 0xe
 3977 00f3 0B       		.uleb128 0xb
 3978 00f4 05       		.uleb128 0x5
 3979 00f5 3A       		.uleb128 0x3a
 3980 00f6 0B       		.uleb128 0xb
 3981 00f7 3B       		.uleb128 0x3b
 3982 00f8 0B       		.uleb128 0xb
 3983 00f9 01       		.uleb128 0x1
ARM GAS  /var/folders/dt/0wfd0knj7gs46m8vwfzktm600000gn/T//cca4GukL.s 			page 71


 3984 00fa 13       		.uleb128 0x13
 3985 00fb 00       		.byte	0
 3986 00fc 00       		.byte	0
 3987 00fd 16       		.uleb128 0x16
 3988 00fe 0D       		.uleb128 0xd
 3989 00ff 00       		.byte	0
 3990 0100 03       		.uleb128 0x3
 3991 0101 08       		.uleb128 0x8
 3992 0102 3A       		.uleb128 0x3a
 3993 0103 0B       		.uleb128 0xb
 3994 0104 3B       		.uleb128 0x3b
 3995 0105 0B       		.uleb128 0xb
 3996 0106 49       		.uleb128 0x49
 3997 0107 13       		.uleb128 0x13
 3998 0108 00       		.byte	0
 3999 0109 00       		.byte	0
 4000 010a 17       		.uleb128 0x17
 4001 010b 21       		.uleb128 0x21
 4002 010c 00       		.byte	0
 4003 010d 49       		.uleb128 0x49
 4004 010e 13       		.uleb128 0x13
 4005 010f 2F       		.uleb128 0x2f
 4006 0110 05       		.uleb128 0x5
 4007 0111 00       		.byte	0
 4008 0112 00       		.byte	0
 4009 0113 18       		.uleb128 0x18
 4010 0114 2E       		.uleb128 0x2e
 4011 0115 01       		.byte	0x1
 4012 0116 03       		.uleb128 0x3
 4013 0117 0E       		.uleb128 0xe
 4014 0118 3A       		.uleb128 0x3a
 4015 0119 0B       		.uleb128 0xb
 4016 011a 3B       		.uleb128 0x3b
 4017 011b 0B       		.uleb128 0xb
 4018 011c 27       		.uleb128 0x27
 4019 011d 0C       		.uleb128 0xc
 4020 011e 11       		.uleb128 0x11
 4021 011f 01       		.uleb128 0x1
 4022 0120 12       		.uleb128 0x12
 4023 0121 01       		.uleb128 0x1
 4024 0122 40       		.uleb128 0x40
 4025 0123 06       		.uleb128 0x6
 4026 0124 9742     		.uleb128 0x2117
 4027 0126 0C       		.uleb128 0xc
 4028 0127 01       		.uleb128 0x1
 4029 0128 13       		.uleb128 0x13
 4030 0129 00       		.byte	0
 4031 012a 00       		.byte	0
 4032 012b 19       		.uleb128 0x19
 4033 012c 34       		.uleb128 0x34
 4034 012d 00       		.byte	0
 4035 012e 03       		.uleb128 0x3
 4036 012f 0E       		.uleb128 0xe
 4037 0130 3A       		.uleb128 0x3a
 4038 0131 0B       		.uleb128 0xb
 4039 0132 3B       		.uleb128 0x3b
 4040 0133 0B       		.uleb128 0xb
ARM GAS  /var/folders/dt/0wfd0knj7gs46m8vwfzktm600000gn/T//cca4GukL.s 			page 72


 4041 0134 49       		.uleb128 0x49
 4042 0135 13       		.uleb128 0x13
 4043 0136 02       		.uleb128 0x2
 4044 0137 06       		.uleb128 0x6
 4045 0138 00       		.byte	0
 4046 0139 00       		.byte	0
 4047 013a 1A       		.uleb128 0x1a
 4048 013b 34       		.uleb128 0x34
 4049 013c 00       		.byte	0
 4050 013d 03       		.uleb128 0x3
 4051 013e 0E       		.uleb128 0xe
 4052 013f 3A       		.uleb128 0x3a
 4053 0140 0B       		.uleb128 0xb
 4054 0141 3B       		.uleb128 0x3b
 4055 0142 0B       		.uleb128 0xb
 4056 0143 49       		.uleb128 0x49
 4057 0144 13       		.uleb128 0x13
 4058 0145 00       		.byte	0
 4059 0146 00       		.byte	0
 4060 0147 1B       		.uleb128 0x1b
 4061 0148 34       		.uleb128 0x34
 4062 0149 00       		.byte	0
 4063 014a 03       		.uleb128 0x3
 4064 014b 08       		.uleb128 0x8
 4065 014c 3A       		.uleb128 0x3a
 4066 014d 0B       		.uleb128 0xb
 4067 014e 3B       		.uleb128 0x3b
 4068 014f 0B       		.uleb128 0xb
 4069 0150 49       		.uleb128 0x49
 4070 0151 13       		.uleb128 0x13
 4071 0152 02       		.uleb128 0x2
 4072 0153 06       		.uleb128 0x6
 4073 0154 00       		.byte	0
 4074 0155 00       		.byte	0
 4075 0156 1C       		.uleb128 0x1c
 4076 0157 0B       		.uleb128 0xb
 4077 0158 01       		.byte	0x1
 4078 0159 11       		.uleb128 0x11
 4079 015a 01       		.uleb128 0x1
 4080 015b 12       		.uleb128 0x12
 4081 015c 01       		.uleb128 0x1
 4082 015d 01       		.uleb128 0x1
 4083 015e 13       		.uleb128 0x13
 4084 015f 00       		.byte	0
 4085 0160 00       		.byte	0
 4086 0161 1D       		.uleb128 0x1d
 4087 0162 0B       		.uleb128 0xb
 4088 0163 01       		.byte	0x1
 4089 0164 55       		.uleb128 0x55
 4090 0165 06       		.uleb128 0x6
 4091 0166 01       		.uleb128 0x1
 4092 0167 13       		.uleb128 0x13
 4093 0168 00       		.byte	0
 4094 0169 00       		.byte	0
 4095 016a 1E       		.uleb128 0x1e
 4096 016b 34       		.uleb128 0x34
 4097 016c 00       		.byte	0
ARM GAS  /var/folders/dt/0wfd0knj7gs46m8vwfzktm600000gn/T//cca4GukL.s 			page 73


 4098 016d 03       		.uleb128 0x3
 4099 016e 08       		.uleb128 0x8
 4100 016f 3A       		.uleb128 0x3a
 4101 0170 0B       		.uleb128 0xb
 4102 0171 3B       		.uleb128 0x3b
 4103 0172 0B       		.uleb128 0xb
 4104 0173 49       		.uleb128 0x49
 4105 0174 13       		.uleb128 0x13
 4106 0175 02       		.uleb128 0x2
 4107 0176 0A       		.uleb128 0xa
 4108 0177 00       		.byte	0
 4109 0178 00       		.byte	0
 4110 0179 1F       		.uleb128 0x1f
 4111 017a 898201   		.uleb128 0x4109
 4112 017d 01       		.byte	0x1
 4113 017e 11       		.uleb128 0x11
 4114 017f 01       		.uleb128 0x1
 4115 0180 31       		.uleb128 0x31
 4116 0181 13       		.uleb128 0x13
 4117 0182 01       		.uleb128 0x1
 4118 0183 13       		.uleb128 0x13
 4119 0184 00       		.byte	0
 4120 0185 00       		.byte	0
 4121 0186 20       		.uleb128 0x20
 4122 0187 8A8201   		.uleb128 0x410a
 4123 018a 00       		.byte	0
 4124 018b 02       		.uleb128 0x2
 4125 018c 0A       		.uleb128 0xa
 4126 018d 9142     		.uleb128 0x2111
 4127 018f 0A       		.uleb128 0xa
 4128 0190 00       		.byte	0
 4129 0191 00       		.byte	0
 4130 0192 21       		.uleb128 0x21
 4131 0193 898201   		.uleb128 0x4109
 4132 0196 00       		.byte	0
 4133 0197 11       		.uleb128 0x11
 4134 0198 01       		.uleb128 0x1
 4135 0199 31       		.uleb128 0x31
 4136 019a 13       		.uleb128 0x13
 4137 019b 00       		.byte	0
 4138 019c 00       		.byte	0
 4139 019d 22       		.uleb128 0x22
 4140 019e 898201   		.uleb128 0x4109
 4141 01a1 01       		.byte	0x1
 4142 01a2 11       		.uleb128 0x11
 4143 01a3 01       		.uleb128 0x1
 4144 01a4 31       		.uleb128 0x31
 4145 01a5 13       		.uleb128 0x13
 4146 01a6 00       		.byte	0
 4147 01a7 00       		.byte	0
 4148 01a8 23       		.uleb128 0x23
 4149 01a9 2E       		.uleb128 0x2e
 4150 01aa 01       		.byte	0x1
 4151 01ab 03       		.uleb128 0x3
 4152 01ac 0E       		.uleb128 0xe
 4153 01ad 3A       		.uleb128 0x3a
 4154 01ae 0B       		.uleb128 0xb
ARM GAS  /var/folders/dt/0wfd0knj7gs46m8vwfzktm600000gn/T//cca4GukL.s 			page 74


 4155 01af 3B       		.uleb128 0x3b
 4156 01b0 0B       		.uleb128 0xb
 4157 01b1 27       		.uleb128 0x27
 4158 01b2 0C       		.uleb128 0xc
 4159 01b3 11       		.uleb128 0x11
 4160 01b4 01       		.uleb128 0x1
 4161 01b5 12       		.uleb128 0x12
 4162 01b6 01       		.uleb128 0x1
 4163 01b7 40       		.uleb128 0x40
 4164 01b8 0A       		.uleb128 0xa
 4165 01b9 9742     		.uleb128 0x2117
 4166 01bb 0C       		.uleb128 0xc
 4167 01bc 01       		.uleb128 0x1
 4168 01bd 13       		.uleb128 0x13
 4169 01be 00       		.byte	0
 4170 01bf 00       		.byte	0
 4171 01c0 24       		.uleb128 0x24
 4172 01c1 898201   		.uleb128 0x4109
 4173 01c4 01       		.byte	0x1
 4174 01c5 11       		.uleb128 0x11
 4175 01c6 01       		.uleb128 0x1
 4176 01c7 9542     		.uleb128 0x2115
 4177 01c9 0C       		.uleb128 0xc
 4178 01ca 31       		.uleb128 0x31
 4179 01cb 13       		.uleb128 0x13
 4180 01cc 00       		.byte	0
 4181 01cd 00       		.byte	0
 4182 01ce 25       		.uleb128 0x25
 4183 01cf 34       		.uleb128 0x34
 4184 01d0 00       		.byte	0
 4185 01d1 03       		.uleb128 0x3
 4186 01d2 0E       		.uleb128 0xe
 4187 01d3 3A       		.uleb128 0x3a
 4188 01d4 0B       		.uleb128 0xb
 4189 01d5 3B       		.uleb128 0x3b
 4190 01d6 0B       		.uleb128 0xb
 4191 01d7 49       		.uleb128 0x49
 4192 01d8 13       		.uleb128 0x13
 4193 01d9 3F       		.uleb128 0x3f
 4194 01da 0C       		.uleb128 0xc
 4195 01db 3C       		.uleb128 0x3c
 4196 01dc 0C       		.uleb128 0xc
 4197 01dd 00       		.byte	0
 4198 01de 00       		.byte	0
 4199 01df 26       		.uleb128 0x26
 4200 01e0 34       		.uleb128 0x34
 4201 01e1 00       		.byte	0
 4202 01e2 03       		.uleb128 0x3
 4203 01e3 0E       		.uleb128 0xe
 4204 01e4 3A       		.uleb128 0x3a
 4205 01e5 0B       		.uleb128 0xb
 4206 01e6 3B       		.uleb128 0x3b
 4207 01e7 0B       		.uleb128 0xb
 4208 01e8 49       		.uleb128 0x49
 4209 01e9 13       		.uleb128 0x13
 4210 01ea 3F       		.uleb128 0x3f
 4211 01eb 0C       		.uleb128 0xc
ARM GAS  /var/folders/dt/0wfd0knj7gs46m8vwfzktm600000gn/T//cca4GukL.s 			page 75


 4212 01ec 02       		.uleb128 0x2
 4213 01ed 0A       		.uleb128 0xa
 4214 01ee 00       		.byte	0
 4215 01ef 00       		.byte	0
 4216 01f0 27       		.uleb128 0x27
 4217 01f1 2E       		.uleb128 0x2e
 4218 01f2 01       		.byte	0x1
 4219 01f3 3F       		.uleb128 0x3f
 4220 01f4 0C       		.uleb128 0xc
 4221 01f5 03       		.uleb128 0x3
 4222 01f6 0E       		.uleb128 0xe
 4223 01f7 3A       		.uleb128 0x3a
 4224 01f8 0B       		.uleb128 0xb
 4225 01f9 3B       		.uleb128 0x3b
 4226 01fa 0B       		.uleb128 0xb
 4227 01fb 27       		.uleb128 0x27
 4228 01fc 0C       		.uleb128 0xc
 4229 01fd 49       		.uleb128 0x49
 4230 01fe 13       		.uleb128 0x13
 4231 01ff 3C       		.uleb128 0x3c
 4232 0200 0C       		.uleb128 0xc
 4233 0201 01       		.uleb128 0x1
 4234 0202 13       		.uleb128 0x13
 4235 0203 00       		.byte	0
 4236 0204 00       		.byte	0
 4237 0205 28       		.uleb128 0x28
 4238 0206 05       		.uleb128 0x5
 4239 0207 00       		.byte	0
 4240 0208 49       		.uleb128 0x49
 4241 0209 13       		.uleb128 0x13
 4242 020a 00       		.byte	0
 4243 020b 00       		.byte	0
 4244 020c 29       		.uleb128 0x29
 4245 020d 2E       		.uleb128 0x2e
 4246 020e 01       		.byte	0x1
 4247 020f 3F       		.uleb128 0x3f
 4248 0210 0C       		.uleb128 0xc
 4249 0211 03       		.uleb128 0x3
 4250 0212 0E       		.uleb128 0xe
 4251 0213 3A       		.uleb128 0x3a
 4252 0214 0B       		.uleb128 0xb
 4253 0215 3B       		.uleb128 0x3b
 4254 0216 0B       		.uleb128 0xb
 4255 0217 27       		.uleb128 0x27
 4256 0218 0C       		.uleb128 0xc
 4257 0219 3C       		.uleb128 0x3c
 4258 021a 0C       		.uleb128 0xc
 4259 021b 01       		.uleb128 0x1
 4260 021c 13       		.uleb128 0x13
 4261 021d 00       		.byte	0
 4262 021e 00       		.byte	0
 4263 021f 2A       		.uleb128 0x2a
 4264 0220 2E       		.uleb128 0x2e
 4265 0221 01       		.byte	0x1
 4266 0222 3F       		.uleb128 0x3f
 4267 0223 0C       		.uleb128 0xc
 4268 0224 03       		.uleb128 0x3
ARM GAS  /var/folders/dt/0wfd0knj7gs46m8vwfzktm600000gn/T//cca4GukL.s 			page 76


 4269 0225 0E       		.uleb128 0xe
 4270 0226 3A       		.uleb128 0x3a
 4271 0227 0B       		.uleb128 0xb
 4272 0228 3B       		.uleb128 0x3b
 4273 0229 0B       		.uleb128 0xb
 4274 022a 27       		.uleb128 0x27
 4275 022b 0C       		.uleb128 0xc
 4276 022c 3C       		.uleb128 0x3c
 4277 022d 0C       		.uleb128 0xc
 4278 022e 00       		.byte	0
 4279 022f 00       		.byte	0
 4280 0230 00       		.byte	0
 4281              		.section	.debug_loc,"",%progbits
 4282              	.Ldebug_loc0:
 4283              	.LLST0:
 4284 0000 00000000 		.4byte	.LFB8
 4285 0004 02000000 		.4byte	.LCFI0
 4286 0008 0200     		.2byte	0x2
 4287 000a 7D       		.byte	0x7d
 4288 000b 00       		.sleb128 0
 4289 000c 02000000 		.4byte	.LCFI0
 4290 0010 0A000000 		.4byte	.LCFI1
 4291 0014 0200     		.2byte	0x2
 4292 0016 7D       		.byte	0x7d
 4293 0017 14       		.sleb128 20
 4294 0018 0A000000 		.4byte	.LCFI1
 4295 001c 2C060000 		.4byte	.LFE8
 4296 0020 0200     		.2byte	0x2
 4297 0022 7D       		.byte	0x7d
 4298 0023 20       		.sleb128 32
 4299 0024 00000000 		.4byte	0
 4300 0028 00000000 		.4byte	0
 4301              	.LLST1:
 4302 002c 26000000 		.4byte	.LVL1
 4303 0030 30000000 		.4byte	.LVL2
 4304 0034 0100     		.2byte	0x1
 4305 0036 50       		.byte	0x50
 4306 0037 48000000 		.4byte	.LVL4
 4307 003b 52000000 		.4byte	.LVL5
 4308 003f 0100     		.2byte	0x1
 4309 0041 50       		.byte	0x50
 4310 0042 66000000 		.4byte	.LVL9
 4311 0046 74000000 		.4byte	.LVL10
 4312 004a 0100     		.2byte	0x1
 4313 004c 50       		.byte	0x50
 4314 004d 74000000 		.4byte	.LVL10
 4315 0051 77000000 		.4byte	.LVL11-1
 4316 0055 0300     		.2byte	0x3
 4317 0057 7C       		.byte	0x7c
 4318 0058 7F       		.sleb128 -1
 4319 0059 9F       		.byte	0x9f
 4320 005a 90000000 		.4byte	.LVL16
 4321 005e 96000000 		.4byte	.LVL18
 4322 0062 0100     		.2byte	0x1
 4323 0064 50       		.byte	0x50
 4324 0065 96000000 		.4byte	.LVL18
 4325 0069 9E000000 		.4byte	.LVL19
ARM GAS  /var/folders/dt/0wfd0knj7gs46m8vwfzktm600000gn/T//cca4GukL.s 			page 77


 4326 006d 0100     		.2byte	0x1
 4327 006f 51       		.byte	0x51
 4328 0070 9E000000 		.4byte	.LVL19
 4329 0074 A5000000 		.4byte	.LVL20-1
 4330 0078 0300     		.2byte	0x3
 4331 007a 7E       		.byte	0x7e
 4332 007b 7F       		.sleb128 -1
 4333 007c 9F       		.byte	0x9f
 4334 007d B4000000 		.4byte	.LVL21
 4335 0081 BE000000 		.4byte	.LVL22
 4336 0085 0100     		.2byte	0x1
 4337 0087 50       		.byte	0x50
 4338 0088 BE000000 		.4byte	.LVL22
 4339 008c C1000000 		.4byte	.LVL23-1
 4340 0090 0300     		.2byte	0x3
 4341 0092 72       		.byte	0x72
 4342 0093 7F       		.sleb128 -1
 4343 0094 9F       		.byte	0x9f
 4344 0095 DA000000 		.4byte	.LVL28
 4345 0099 E0000000 		.4byte	.LVL30
 4346 009d 0100     		.2byte	0x1
 4347 009f 50       		.byte	0x50
 4348 00a0 E0000000 		.4byte	.LVL30
 4349 00a4 E6000000 		.4byte	.LVL32
 4350 00a8 0100     		.2byte	0x1
 4351 00aa 51       		.byte	0x51
 4352 00ab E6000000 		.4byte	.LVL32
 4353 00af EB000000 		.4byte	.LVL33-1
 4354 00b3 0300     		.2byte	0x3
 4355 00b5 73       		.byte	0x73
 4356 00b6 7F       		.sleb128 -1
 4357 00b7 9F       		.byte	0x9f
 4358 00b8 8A010000 		.4byte	.LVL56
 4359 00bc 94010000 		.4byte	.LVL57
 4360 00c0 0100     		.2byte	0x1
 4361 00c2 50       		.byte	0x50
 4362 00c3 B8010000 		.4byte	.LVL60
 4363 00c7 C2010000 		.4byte	.LVL61
 4364 00cb 0100     		.2byte	0x1
 4365 00cd 50       		.byte	0x50
 4366 00ce D8010000 		.4byte	.LVL63
 4367 00d2 E2010000 		.4byte	.LVL64
 4368 00d6 0100     		.2byte	0x1
 4369 00d8 50       		.byte	0x50
 4370 00d9 22020000 		.4byte	.LVL68
 4371 00dd 30020000 		.4byte	.LVL69
 4372 00e1 0100     		.2byte	0x1
 4373 00e3 50       		.byte	0x50
 4374 00e4 30020000 		.4byte	.LVL69
 4375 00e8 33020000 		.4byte	.LVL70-1
 4376 00ec 0300     		.2byte	0x3
 4377 00ee 7C       		.byte	0x7c
 4378 00ef 7F       		.sleb128 -1
 4379 00f0 9F       		.byte	0x9f
 4380 00f1 4C020000 		.4byte	.LVL75
 4381 00f5 52020000 		.4byte	.LVL77
 4382 00f9 0100     		.2byte	0x1
ARM GAS  /var/folders/dt/0wfd0knj7gs46m8vwfzktm600000gn/T//cca4GukL.s 			page 78


 4383 00fb 50       		.byte	0x50
 4384 00fc 52020000 		.4byte	.LVL77
 4385 0100 5A020000 		.4byte	.LVL78
 4386 0104 0100     		.2byte	0x1
 4387 0106 51       		.byte	0x51
 4388 0107 5A020000 		.4byte	.LVL78
 4389 010b 61020000 		.4byte	.LVL79-1
 4390 010f 0300     		.2byte	0x3
 4391 0111 7E       		.byte	0x7e
 4392 0112 7F       		.sleb128 -1
 4393 0113 9F       		.byte	0x9f
 4394 0114 EE020000 		.4byte	.LVL100
 4395 0118 F8020000 		.4byte	.LVL101
 4396 011c 0100     		.2byte	0x1
 4397 011e 50       		.byte	0x50
 4398 011f 0A030000 		.4byte	.LVL103
 4399 0123 14030000 		.4byte	.LVL104
 4400 0127 0100     		.2byte	0x1
 4401 0129 50       		.byte	0x50
 4402 012a 26030000 		.4byte	.LVL106
 4403 012e 30030000 		.4byte	.LVL107
 4404 0132 0100     		.2byte	0x1
 4405 0134 50       		.byte	0x50
 4406 0135 42030000 		.4byte	.LVL109
 4407 0139 4C030000 		.4byte	.LVL110
 4408 013d 0100     		.2byte	0x1
 4409 013f 50       		.byte	0x50
 4410 0140 64030000 		.4byte	.LVL114
 4411 0144 6A030000 		.4byte	.LVL116
 4412 0148 0100     		.2byte	0x1
 4413 014a 50       		.byte	0x50
 4414 014b 6A030000 		.4byte	.LVL116
 4415 014f 6E030000 		.4byte	.LVL117
 4416 0153 0100     		.2byte	0x1
 4417 0155 51       		.byte	0x51
 4418 0156 AE030000 		.4byte	.LVL124
 4419 015a B4030000 		.4byte	.LVL126
 4420 015e 0100     		.2byte	0x1
 4421 0160 50       		.byte	0x50
 4422 0161 B4030000 		.4byte	.LVL126
 4423 0165 BC030000 		.4byte	.LVL128
 4424 0169 0100     		.2byte	0x1
 4425 016b 51       		.byte	0x51
 4426 016c BC030000 		.4byte	.LVL128
 4427 0170 C3030000 		.4byte	.LVL129-1
 4428 0174 0100     		.2byte	0x1
 4429 0176 5E       		.byte	0x5e
 4430 0177 4A040000 		.4byte	.LVL144
 4431 017b 54040000 		.4byte	.LVL145
 4432 017f 0100     		.2byte	0x1
 4433 0181 50       		.byte	0x50
 4434 0182 66040000 		.4byte	.LVL147
 4435 0186 70040000 		.4byte	.LVL148
 4436 018a 0100     		.2byte	0x1
 4437 018c 50       		.byte	0x50
 4438 018d 82040000 		.4byte	.LVL150
 4439 0191 8C040000 		.4byte	.LVL151
ARM GAS  /var/folders/dt/0wfd0knj7gs46m8vwfzktm600000gn/T//cca4GukL.s 			page 79


 4440 0195 0100     		.2byte	0x1
 4441 0197 50       		.byte	0x50
 4442 0198 9E040000 		.4byte	.LVL153
 4443 019c A8040000 		.4byte	.LVL154
 4444 01a0 0100     		.2byte	0x1
 4445 01a2 50       		.byte	0x50
 4446 01a3 C0040000 		.4byte	.LVL158
 4447 01a7 C6040000 		.4byte	.LVL160
 4448 01ab 0100     		.2byte	0x1
 4449 01ad 50       		.byte	0x50
 4450 01ae C6040000 		.4byte	.LVL160
 4451 01b2 CE040000 		.4byte	.LVL162
 4452 01b6 0100     		.2byte	0x1
 4453 01b8 51       		.byte	0x51
 4454 01b9 CE040000 		.4byte	.LVL162
 4455 01bd D5040000 		.4byte	.LVL163-1
 4456 01c1 0100     		.2byte	0x1
 4457 01c3 5C       		.byte	0x5c
 4458 01c4 0E050000 		.4byte	.LVL169
 4459 01c8 14050000 		.4byte	.LVL171
 4460 01cc 0100     		.2byte	0x1
 4461 01ce 50       		.byte	0x50
 4462 01cf 14050000 		.4byte	.LVL171
 4463 01d3 18050000 		.4byte	.LVL173
 4464 01d7 0100     		.2byte	0x1
 4465 01d9 51       		.byte	0x51
 4466 01da 18050000 		.4byte	.LVL173
 4467 01de 1D050000 		.4byte	.LVL174-1
 4468 01e2 0100     		.2byte	0x1
 4469 01e4 52       		.byte	0x52
 4470 01e5 00000000 		.4byte	0
 4471 01e9 00000000 		.4byte	0
 4472              	.LLST2:
 4473 01ed 6C010000 		.4byte	.LVL52
 4474 01f1 70010000 		.4byte	.LVL53
 4475 01f5 0200     		.2byte	0x2
 4476 01f7 30       		.byte	0x30
 4477 01f8 9F       		.byte	0x9f
 4478 01f9 00000000 		.4byte	0
 4479 01fd 00000000 		.4byte	0
 4480              	.LLST3:
 4481 0201 84000000 		.4byte	.LVL13
 4482 0205 8B000000 		.4byte	.LVL14-1
 4483 0209 0100     		.2byte	0x1
 4484 020b 53       		.byte	0x53
 4485 020c 00000000 		.4byte	0
 4486 0210 00000000 		.4byte	0
 4487              	.LLST4:
 4488 0214 94000000 		.4byte	.LVL17
 4489 0218 A5000000 		.4byte	.LVL20-1
 4490 021c 0100     		.2byte	0x1
 4491 021e 53       		.byte	0x53
 4492 021f 00000000 		.4byte	0
 4493 0223 00000000 		.4byte	0
 4494              	.LLST5:
 4495 0227 CE000000 		.4byte	.LVL25
 4496 022b D5000000 		.4byte	.LVL26-1
ARM GAS  /var/folders/dt/0wfd0knj7gs46m8vwfzktm600000gn/T//cca4GukL.s 			page 80


 4497 022f 0100     		.2byte	0x1
 4498 0231 53       		.byte	0x53
 4499 0232 00000000 		.4byte	0
 4500 0236 00000000 		.4byte	0
 4501              	.LLST6:
 4502 023a DE000000 		.4byte	.LVL29
 4503 023e E4000000 		.4byte	.LVL31
 4504 0242 0100     		.2byte	0x1
 4505 0244 53       		.byte	0x53
 4506 0245 00000000 		.4byte	0
 4507 0249 00000000 		.4byte	0
 4508              	.LLST7:
 4509 024d F8000000 		.4byte	.LVL35
 4510 0251 07010000 		.4byte	.LVL36-1
 4511 0255 0100     		.2byte	0x1
 4512 0257 53       		.byte	0x53
 4513 0258 00000000 		.4byte	0
 4514 025c 00000000 		.4byte	0
 4515              	.LLST8:
 4516 0260 58000000 		.4byte	.LVL7
 4517 0264 5C000000 		.4byte	.LVL8
 4518 0268 0100     		.2byte	0x1
 4519 026a 53       		.byte	0x53
 4520 026b 12010000 		.4byte	.LVL37
 4521 026f 14010000 		.4byte	.LVL38
 4522 0273 0100     		.2byte	0x1
 4523 0275 53       		.byte	0x53
 4524 0276 00000000 		.4byte	0
 4525 027a 00000000 		.4byte	0
 4526              	.LLST9:
 4527 027e 1A010000 		.4byte	.LVL40
 4528 0282 1C010000 		.4byte	.LVL41
 4529 0286 0100     		.2byte	0x1
 4530 0288 53       		.byte	0x53
 4531 0289 00000000 		.4byte	0
 4532 028d 00000000 		.4byte	0
 4533              	.LLST10:
 4534 0291 20010000 		.4byte	.LVL42
 4535 0295 33010000 		.4byte	.LVL43-1
 4536 0299 0100     		.2byte	0x1
 4537 029b 53       		.byte	0x53
 4538 029c 00000000 		.4byte	0
 4539 02a0 00000000 		.4byte	0
 4540              	.LLST11:
 4541 02a4 58000000 		.4byte	.LVL7
 4542 02a8 5C000000 		.4byte	.LVL8
 4543 02ac 0100     		.2byte	0x1
 4544 02ae 53       		.byte	0x53
 4545 02af 3E010000 		.4byte	.LVL44
 4546 02b3 40010000 		.4byte	.LVL45
 4547 02b7 0100     		.2byte	0x1
 4548 02b9 53       		.byte	0x53
 4549 02ba 00000000 		.4byte	0
 4550 02be 00000000 		.4byte	0
 4551              	.LLST12:
 4552 02c2 44010000 		.4byte	.LVL46
 4553 02c6 46010000 		.4byte	.LVL47
ARM GAS  /var/folders/dt/0wfd0knj7gs46m8vwfzktm600000gn/T//cca4GukL.s 			page 81


 4554 02ca 0100     		.2byte	0x1
 4555 02cc 53       		.byte	0x53
 4556 02cd 00000000 		.4byte	0
 4557 02d1 00000000 		.4byte	0
 4558              	.LLST13:
 4559 02d5 4A010000 		.4byte	.LVL48
 4560 02d9 4E010000 		.4byte	.LVL49
 4561 02dd 0100     		.2byte	0x1
 4562 02df 53       		.byte	0x53
 4563 02e0 00000000 		.4byte	0
 4564 02e4 00000000 		.4byte	0
 4565              	.LLST14:
 4566 02e8 58000000 		.4byte	.LVL7
 4567 02ec 5C000000 		.4byte	.LVL8
 4568 02f0 0100     		.2byte	0x1
 4569 02f2 53       		.byte	0x53
 4570 02f3 66010000 		.4byte	.LVL51
 4571 02f7 70010000 		.4byte	.LVL53
 4572 02fb 0100     		.2byte	0x1
 4573 02fd 53       		.byte	0x53
 4574 02fe 7C010000 		.4byte	.LVL55
 4575 0302 89010000 		.4byte	.LVL56-1
 4576 0306 0100     		.2byte	0x1
 4577 0308 53       		.byte	0x53
 4578 0309 00000000 		.4byte	0
 4579 030d 00000000 		.4byte	0
 4580              	.LLST15:
 4581 0311 40020000 		.4byte	.LVL72
 4582 0315 47020000 		.4byte	.LVL73-1
 4583 0319 0100     		.2byte	0x1
 4584 031b 53       		.byte	0x53
 4585 031c 00000000 		.4byte	0
 4586 0320 00000000 		.4byte	0
 4587              	.LLST16:
 4588 0324 50020000 		.4byte	.LVL76
 4589 0328 61020000 		.4byte	.LVL79-1
 4590 032c 0100     		.2byte	0x1
 4591 032e 53       		.byte	0x53
 4592 032f 00000000 		.4byte	0
 4593 0333 00000000 		.4byte	0
 4594              	.LLST17:
 4595 0337 6E020000 		.4byte	.LVL81
 4596 033b 7B020000 		.4byte	.LVL82-1
 4597 033f 0100     		.2byte	0x1
 4598 0341 53       		.byte	0x53
 4599 0342 00000000 		.4byte	0
 4600 0346 00000000 		.4byte	0
 4601              	.LLST18:
 4602 034a 58000000 		.4byte	.LVL7
 4603 034e 5C000000 		.4byte	.LVL8
 4604 0352 0100     		.2byte	0x1
 4605 0354 53       		.byte	0x53
 4606 0355 82020000 		.4byte	.LVL83
 4607 0359 8A020000 		.4byte	.LVL84
 4608 035d 0100     		.2byte	0x1
 4609 035f 53       		.byte	0x53
 4610 0360 00000000 		.4byte	0
ARM GAS  /var/folders/dt/0wfd0knj7gs46m8vwfzktm600000gn/T//cca4GukL.s 			page 82


 4611 0364 00000000 		.4byte	0
 4612              	.LLST19:
 4613 0368 8E020000 		.4byte	.LVL85
 4614 036c 9D020000 		.4byte	.LVL86-1
 4615 0370 0100     		.2byte	0x1
 4616 0372 53       		.byte	0x53
 4617 0373 00000000 		.4byte	0
 4618 0377 00000000 		.4byte	0
 4619              	.LLST20:
 4620 037b 58000000 		.4byte	.LVL7
 4621 037f 5C000000 		.4byte	.LVL8
 4622 0383 0100     		.2byte	0x1
 4623 0385 53       		.byte	0x53
 4624 0386 AA020000 		.4byte	.LVL87
 4625 038a AC020000 		.4byte	.LVL88
 4626 038e 0100     		.2byte	0x1
 4627 0390 53       		.byte	0x53
 4628 0391 00000000 		.4byte	0
 4629 0395 00000000 		.4byte	0
 4630              	.LLST21:
 4631 0399 B2020000 		.4byte	.LVL90
 4632 039d B4020000 		.4byte	.LVL91
 4633 03a1 0100     		.2byte	0x1
 4634 03a3 53       		.byte	0x53
 4635 03a4 00000000 		.4byte	0
 4636 03a8 00000000 		.4byte	0
 4637              	.LLST22:
 4638 03ac B8020000 		.4byte	.LVL92
 4639 03b0 BC020000 		.4byte	.LVL93
 4640 03b4 0100     		.2byte	0x1
 4641 03b6 53       		.byte	0x53
 4642 03b7 00000000 		.4byte	0
 4643 03bb 00000000 		.4byte	0
 4644              	.LLST23:
 4645 03bf 58000000 		.4byte	.LVL7
 4646 03c3 5C000000 		.4byte	.LVL8
 4647 03c7 0100     		.2byte	0x1
 4648 03c9 53       		.byte	0x53
 4649 03ca D2020000 		.4byte	.LVL95
 4650 03ce DC020000 		.4byte	.LVL96
 4651 03d2 0100     		.2byte	0x1
 4652 03d4 53       		.byte	0x53
 4653 03d5 00000000 		.4byte	0
 4654 03d9 00000000 		.4byte	0
 4655              	.LLST24:
 4656 03dd E0020000 		.4byte	.LVL97
 4657 03e1 E2020000 		.4byte	.LVL98
 4658 03e5 0100     		.2byte	0x1
 4659 03e7 53       		.byte	0x53
 4660 03e8 00000000 		.4byte	0
 4661 03ec 00000000 		.4byte	0
 4662              	.LLST25:
 4663 03f0 E6020000 		.4byte	.LVL99
 4664 03f4 ED020000 		.4byte	.LVL100-1
 4665 03f8 0100     		.2byte	0x1
 4666 03fa 53       		.byte	0x53
 4667 03fb 00000000 		.4byte	0
ARM GAS  /var/folders/dt/0wfd0knj7gs46m8vwfzktm600000gn/T//cca4GukL.s 			page 83


 4668 03ff 00000000 		.4byte	0
 4669              	.LLST26:
 4670 0403 68030000 		.4byte	.LVL115
 4671 0407 75030000 		.4byte	.LVL118-1
 4672 040b 0100     		.2byte	0x1
 4673 040d 53       		.byte	0x53
 4674 040e 00000000 		.4byte	0
 4675 0412 00000000 		.4byte	0
 4676              	.LLST27:
 4677 0416 A0030000 		.4byte	.LVL121
 4678 041a A9030000 		.4byte	.LVL122-1
 4679 041e 0100     		.2byte	0x1
 4680 0420 53       		.byte	0x53
 4681 0421 00000000 		.4byte	0
 4682 0425 00000000 		.4byte	0
 4683              	.LLST28:
 4684 0429 B2030000 		.4byte	.LVL125
 4685 042d B8030000 		.4byte	.LVL127
 4686 0431 0100     		.2byte	0x1
 4687 0433 53       		.byte	0x53
 4688 0434 00000000 		.4byte	0
 4689 0438 00000000 		.4byte	0
 4690              	.LLST29:
 4691 043c EA030000 		.4byte	.LVL133
 4692 0440 F7030000 		.4byte	.LVL134-1
 4693 0444 0100     		.2byte	0x1
 4694 0446 53       		.byte	0x53
 4695 0447 00000000 		.4byte	0
 4696 044b 00000000 		.4byte	0
 4697              	.LLST30:
 4698 044f 58000000 		.4byte	.LVL7
 4699 0453 5C000000 		.4byte	.LVL8
 4700 0457 0100     		.2byte	0x1
 4701 0459 53       		.byte	0x53
 4702 045a FE030000 		.4byte	.LVL135
 4703 045e 06040000 		.4byte	.LVL136
 4704 0462 0100     		.2byte	0x1
 4705 0464 53       		.byte	0x53
 4706 0465 00000000 		.4byte	0
 4707 0469 00000000 		.4byte	0
 4708              	.LLST31:
 4709 046d 0A040000 		.4byte	.LVL137
 4710 0471 19040000 		.4byte	.LVL138-1
 4711 0475 0100     		.2byte	0x1
 4712 0477 53       		.byte	0x53
 4713 0478 00000000 		.4byte	0
 4714 047c 00000000 		.4byte	0
 4715              	.LLST32:
 4716 0480 58000000 		.4byte	.LVL7
 4717 0484 5C000000 		.4byte	.LVL8
 4718 0488 0100     		.2byte	0x1
 4719 048a 53       		.byte	0x53
 4720 048b 20040000 		.4byte	.LVL139
 4721 048f 2A040000 		.4byte	.LVL140
 4722 0493 0100     		.2byte	0x1
 4723 0495 53       		.byte	0x53
 4724 0496 00000000 		.4byte	0
ARM GAS  /var/folders/dt/0wfd0knj7gs46m8vwfzktm600000gn/T//cca4GukL.s 			page 84


 4725 049a 00000000 		.4byte	0
 4726              	.LLST33:
 4727 049e 42040000 		.4byte	.LVL143
 4728 04a2 49040000 		.4byte	.LVL144-1
 4729 04a6 0100     		.2byte	0x1
 4730 04a8 53       		.byte	0x53
 4731 04a9 00000000 		.4byte	0
 4732 04ad 00000000 		.4byte	0
 4733              	.LLST34:
 4734 04b1 C4040000 		.4byte	.LVL159
 4735 04b5 CA040000 		.4byte	.LVL161
 4736 04b9 0100     		.2byte	0x1
 4737 04bb 53       		.byte	0x53
 4738 04bc 00000000 		.4byte	0
 4739 04c0 00000000 		.4byte	0
 4740              	.LLST35:
 4741 04c4 00050000 		.4byte	.LVL166
 4742 04c8 09050000 		.4byte	.LVL167-1
 4743 04cc 0100     		.2byte	0x1
 4744 04ce 53       		.byte	0x53
 4745 04cf 00000000 		.4byte	0
 4746 04d3 00000000 		.4byte	0
 4747              	.LLST36:
 4748 04d7 12050000 		.4byte	.LVL170
 4749 04db 16050000 		.4byte	.LVL172
 4750 04df 0100     		.2byte	0x1
 4751 04e1 53       		.byte	0x53
 4752 04e2 00000000 		.4byte	0
 4753 04e6 00000000 		.4byte	0
 4754              	.LLST37:
 4755 04ea 44050000 		.4byte	.LVL178
 4756 04ee 4A050000 		.4byte	.LVL179
 4757 04f2 0100     		.2byte	0x1
 4758 04f4 53       		.byte	0x53
 4759 04f5 00000000 		.4byte	0
 4760 04f9 00000000 		.4byte	0
 4761              	.LLST38:
 4762 04fd 58000000 		.4byte	.LVL7
 4763 0501 5C000000 		.4byte	.LVL8
 4764 0505 0100     		.2byte	0x1
 4765 0507 53       		.byte	0x53
 4766 0508 58050000 		.4byte	.LVL181
 4767 050c 60050000 		.4byte	.LVL182
 4768 0510 0100     		.2byte	0x1
 4769 0512 53       		.byte	0x53
 4770 0513 00000000 		.4byte	0
 4771 0517 00000000 		.4byte	0
 4772              	.LLST39:
 4773 051b 64050000 		.4byte	.LVL183
 4774 051f 73050000 		.4byte	.LVL184-1
 4775 0523 0100     		.2byte	0x1
 4776 0525 53       		.byte	0x53
 4777 0526 00000000 		.4byte	0
 4778 052a 00000000 		.4byte	0
 4779              	.LLST40:
 4780 052e 58000000 		.4byte	.LVL7
 4781 0532 5C000000 		.4byte	.LVL8
ARM GAS  /var/folders/dt/0wfd0knj7gs46m8vwfzktm600000gn/T//cca4GukL.s 			page 85


 4782 0536 0100     		.2byte	0x1
 4783 0538 53       		.byte	0x53
 4784 0539 7A050000 		.4byte	.LVL185
 4785 053d 84050000 		.4byte	.LVL186
 4786 0541 0100     		.2byte	0x1
 4787 0543 53       		.byte	0x53
 4788 0544 00000000 		.4byte	0
 4789 0548 00000000 		.4byte	0
 4790              	.LLST41:
 4791 054c A8050000 		.4byte	.LVL190
 4792 0550 BB050000 		.4byte	.LVL191-1
 4793 0554 0100     		.2byte	0x1
 4794 0556 53       		.byte	0x53
 4795 0557 00000000 		.4byte	0
 4796 055b 00000000 		.4byte	0
 4797              	.LLST42:
 4798 055f 58000000 		.4byte	.LVL7
 4799 0563 5C000000 		.4byte	.LVL8
 4800 0567 0100     		.2byte	0x1
 4801 0569 53       		.byte	0x53
 4802 056a C2050000 		.4byte	.LVL192
 4803 056e CA050000 		.4byte	.LVL193
 4804 0572 0100     		.2byte	0x1
 4805 0574 53       		.byte	0x53
 4806 0575 00000000 		.4byte	0
 4807 0579 00000000 		.4byte	0
 4808              	.LLST43:
 4809 057d CE050000 		.4byte	.LVL194
 4810 0581 DD050000 		.4byte	.LVL195-1
 4811 0585 0100     		.2byte	0x1
 4812 0587 53       		.byte	0x53
 4813 0588 00000000 		.4byte	0
 4814 058c 00000000 		.4byte	0
 4815              	.LLST44:
 4816 0590 58000000 		.4byte	.LVL7
 4817 0594 5C000000 		.4byte	.LVL8
 4818 0598 0100     		.2byte	0x1
 4819 059a 53       		.byte	0x53
 4820 059b E4050000 		.4byte	.LVL196
 4821 059f EC050000 		.4byte	.LVL197
 4822 05a3 0100     		.2byte	0x1
 4823 05a5 53       		.byte	0x53
 4824 05a6 00000000 		.4byte	0
 4825 05aa 00000000 		.4byte	0
 4826              	.LLST45:
 4827 05ae F0050000 		.4byte	.LVL198
 4828 05b2 F4050000 		.4byte	.LVL199
 4829 05b6 0100     		.2byte	0x1
 4830 05b8 53       		.byte	0x53
 4831 05b9 00000000 		.4byte	0
 4832 05bd 00000000 		.4byte	0
 4833              	.LLST46:
 4834 05c1 58000000 		.4byte	.LVL7
 4835 05c5 5C000000 		.4byte	.LVL8
 4836 05c9 0100     		.2byte	0x1
 4837 05cb 53       		.byte	0x53
 4838 05cc 06060000 		.4byte	.LVL201
ARM GAS  /var/folders/dt/0wfd0knj7gs46m8vwfzktm600000gn/T//cca4GukL.s 			page 86


 4839 05d0 0E060000 		.4byte	.LVL202
 4840 05d4 0100     		.2byte	0x1
 4841 05d6 53       		.byte	0x53
 4842 05d7 00000000 		.4byte	0
 4843 05db 00000000 		.4byte	0
 4844              	.LLST47:
 4845 05df 12060000 		.4byte	.LVL203
 4846 05e3 16060000 		.4byte	.LVL204
 4847 05e7 0100     		.2byte	0x1
 4848 05e9 53       		.byte	0x53
 4849 05ea 00000000 		.4byte	0
 4850 05ee 00000000 		.4byte	0
 4851              		.section	.debug_aranges,"",%progbits
 4852 0000 24000000 		.4byte	0x24
 4853 0004 0200     		.2byte	0x2
 4854 0006 00000000 		.4byte	.Ldebug_info0
 4855 000a 04       		.byte	0x4
 4856 000b 00       		.byte	0
 4857 000c 0000     		.2byte	0
 4858 000e 0000     		.2byte	0
 4859 0010 00000000 		.4byte	.LFB8
 4860 0014 2C060000 		.4byte	.LFE8-.LFB8
 4861 0018 00000000 		.4byte	.LFB7
 4862 001c 16000000 		.4byte	.LFE7-.LFB7
 4863 0020 00000000 		.4byte	0
 4864 0024 00000000 		.4byte	0
 4865              		.section	.debug_ranges,"",%progbits
 4866              	.Ldebug_ranges0:
 4867 0000 8C000000 		.4byte	.LBB3
 4868 0004 8E000000 		.4byte	.LBE3
 4869 0008 90000000 		.4byte	.LBB4
 4870 000c 94000000 		.4byte	.LBE4
 4871 0010 00000000 		.4byte	0
 4872 0014 00000000 		.4byte	0
 4873 0018 D6000000 		.4byte	.LBB6
 4874 001c D8000000 		.4byte	.LBE6
 4875 0020 DA000000 		.4byte	.LBB7
 4876 0024 DE000000 		.4byte	.LBE7
 4877 0028 00000000 		.4byte	0
 4878 002c 00000000 		.4byte	0
 4879 0030 48020000 		.4byte	.LBB18
 4880 0034 4A020000 		.4byte	.LBE18
 4881 0038 4C020000 		.4byte	.LBB19
 4882 003c 50020000 		.4byte	.LBE19
 4883 0040 00000000 		.4byte	0
 4884 0044 00000000 		.4byte	0
 4885 0048 60030000 		.4byte	.LBB29
 4886 004c 62030000 		.4byte	.LBE29
 4887 0050 64030000 		.4byte	.LBB30
 4888 0054 68030000 		.4byte	.LBE30
 4889 0058 00000000 		.4byte	0
 4890 005c 00000000 		.4byte	0
 4891 0060 AA030000 		.4byte	.LBB32
 4892 0064 AC030000 		.4byte	.LBE32
 4893 0068 AE030000 		.4byte	.LBB33
 4894 006c B2030000 		.4byte	.LBE33
 4895 0070 00000000 		.4byte	0
ARM GAS  /var/folders/dt/0wfd0knj7gs46m8vwfzktm600000gn/T//cca4GukL.s 			page 87


 4896 0074 00000000 		.4byte	0
 4897 0078 BC040000 		.4byte	.LBB39
 4898 007c BE040000 		.4byte	.LBE39
 4899 0080 C0040000 		.4byte	.LBB40
 4900 0084 C4040000 		.4byte	.LBE40
 4901 0088 00000000 		.4byte	0
 4902 008c 00000000 		.4byte	0
 4903 0090 0A050000 		.4byte	.LBB42
 4904 0094 0C050000 		.4byte	.LBE42
 4905 0098 0E050000 		.4byte	.LBB43
 4906 009c 12050000 		.4byte	.LBE43
 4907 00a0 00000000 		.4byte	0
 4908 00a4 00000000 		.4byte	0
 4909 00a8 00000000 		.4byte	.LFB8
 4910 00ac 2C060000 		.4byte	.LFE8
 4911 00b0 00000000 		.4byte	.LFB7
 4912 00b4 16000000 		.4byte	.LFE7
 4913 00b8 00000000 		.4byte	0
 4914 00bc 00000000 		.4byte	0
 4915              		.section	.debug_line,"",%progbits
 4916              	.Ldebug_line0:
 4917 0000 54020000 		.section	.debug_str,"MS",%progbits,1
 4917      02004401 
 4917      00000201 
 4917      FB0E0D00 
 4917      01010101 
 4918              	.LASF36:
 4919 0000 705F6D73 		.ascii	"p_msg\000"
 4919      6700
 4920              	.LASF91:
 4921 0006 2F557365 		.ascii	"/Users/toxygen/Projects/UAV/Control_sytem/sw/autopi"
 4921      72732F74 
 4921      6F787967 
 4921      656E2F50 
 4921      726F6A65 
 4922 0039 6C6F742F 		.ascii	"lot/2.4.3/demos/STM32F103-sdspi\000"
 4922      322E342E 
 4922      332F6465 
 4922      6D6F732F 
 4922      53544D33 
 4923              	.LASF62:
 4924 0059 7264796D 		.ascii	"rdymsg\000"
 4924      736700
 4925              	.LASF11:
 4926 0060 75696E74 		.ascii	"uint64_t\000"
 4926      36345F74 
 4926      00
 4927              	.LASF82:
 4928 0069 63684D42 		.ascii	"chMBPostI\000"
 4928      506F7374 
 4928      4900
 4929              	.LASF61:
 4930 0073 4D61696C 		.ascii	"Mailbox\000"
 4930      626F7800 
 4931              	.LASF83:
 4932 007b 63684D42 		.ascii	"chMBPostAheadI\000"
 4932      506F7374 
ARM GAS  /var/folders/dt/0wfd0knj7gs46m8vwfzktm600000gn/T//cca4GukL.s 			page 88


 4932      41686561 
 4932      644900
 4933              	.LASF12:
 4934 008a 6C6F6E67 		.ascii	"long long unsigned int\000"
 4934      206C6F6E 
 4934      6720756E 
 4934      7369676E 
 4934      65642069 
 4935              	.LASF78:
 4936 00a1 70617474 		.ascii	"patternmbox\000"
 4936      65726E6D 
 4936      626F7800 
 4937              	.LASF63:
 4938 00ad 65786974 		.ascii	"exitcode\000"
 4938      636F6465 
 4938      00
 4939              	.LASF76:
 4940 00b6 74657374 		.ascii	"test\000"
 4940      00
 4941              	.LASF57:
 4942 00bb 6D625F77 		.ascii	"mb_wrptr\000"
 4942      72707472 
 4942      00
 4943              	.LASF25:
 4944 00c4 705F7072 		.ascii	"p_prio\000"
 4944      696F00
 4945              	.LASF10:
 4946 00cb 6C6F6E67 		.ascii	"long long int\000"
 4946      206C6F6E 
 4946      6720696E 
 4946      7400
 4947              	.LASF1:
 4948 00d9 7369676E 		.ascii	"signed char\000"
 4948      65642063 
 4948      68617200 
 4949              	.LASF40:
 4950 00e5 705F6D70 		.ascii	"p_mpool\000"
 4950      6F6F6C00 
 4951              	.LASF13:
 4952 00ed 626F6F6C 		.ascii	"bool_t\000"
 4952      5F7400
 4953              	.LASF30:
 4954 00f4 705F7374 		.ascii	"p_state\000"
 4954      61746500 
 4955              	.LASF87:
 4956 00fc 74657374 		.ascii	"test_emit_token\000"
 4956      5F656D69 
 4956      745F746F 
 4956      6B656E00 
 4957              	.LASF80:
 4958 010c 63684D42 		.ascii	"chMBPost\000"
 4958      506F7374 
 4958      00
 4959              	.LASF7:
 4960 0115 6C6F6E67 		.ascii	"long int\000"
 4960      20696E74 
 4960      00
ARM GAS  /var/folders/dt/0wfd0knj7gs46m8vwfzktm600000gn/T//cca4GukL.s 			page 89


 4961              	.LASF15:
 4962 011e 74737461 		.ascii	"tstate_t\000"
 4962      74655F74 
 4962      00
 4963              	.LASF27:
 4964 0127 705F6E65 		.ascii	"p_newer\000"
 4964      77657200 
 4965              	.LASF49:
 4966 012f 735F7175 		.ascii	"s_queue\000"
 4966      65756500 
 4967              	.LASF43:
 4968 0137 72656761 		.ascii	"regarm_t\000"
 4968      726D5F74 
 4968      00
 4969              	.LASF21:
 4970 0140 636E745F 		.ascii	"cnt_t\000"
 4970      7400
 4971              	.LASF0:
 4972 0146 756E7369 		.ascii	"unsigned int\000"
 4972      676E6564 
 4972      20696E74 
 4972      00
 4973              	.LASF94:
 4974 0153 63684D42 		.ascii	"chMBInit\000"
 4974      496E6974 
 4974      00
 4975              	.LASF73:
 4976 015c 6D736731 		.ascii	"msg1\000"
 4976      00
 4977              	.LASF93:
 4978 0161 6D736732 		.ascii	"msg2\000"
 4978      00
 4979              	.LASF9:
 4980 0166 6C6F6E67 		.ascii	"long unsigned int\000"
 4980      20756E73 
 4980      69676E65 
 4980      6420696E 
 4980      7400
 4981              	.LASF74:
 4982 0178 6D626F78 		.ascii	"mbox1_execute\000"
 4982      315F6578 
 4982      65637574 
 4982      6500
 4983              	.LASF70:
 4984 0186 74656172 		.ascii	"teardown\000"
 4984      646F776E 
 4984      00
 4985              	.LASF60:
 4986 018f 6D625F65 		.ascii	"mb_emptysem\000"
 4986      6D707479 
 4986      73656D00 
 4987              	.LASF68:
 4988 019b 6E616D65 		.ascii	"name\000"
 4988      00
 4989              	.LASF50:
 4990 01a0 735F636E 		.ascii	"s_cnt\000"
 4990      7400
ARM GAS  /var/folders/dt/0wfd0knj7gs46m8vwfzktm600000gn/T//cca4GukL.s 			page 90


 4991              	.LASF46:
 4992 01a6 636F6E74 		.ascii	"context\000"
 4992      65787400 
 4993              	.LASF4:
 4994 01ae 73686F72 		.ascii	"short unsigned int\000"
 4994      7420756E 
 4994      7369676E 
 4994      65642069 
 4994      6E7400
 4995              	.LASF86:
 4996 01c1 63684D42 		.ascii	"chMBFetchI\000"
 4996      46657463 
 4996      684900
 4997              	.LASF18:
 4998 01cc 6D73675F 		.ascii	"msg_t\000"
 4998      7400
 4999              	.LASF14:
 5000 01d2 746D6F64 		.ascii	"tmode_t\000"
 5000      655F7400 
 5001              	.LASF75:
 5002 01da 6D626F78 		.ascii	"mbox1_setup\000"
 5002      315F7365 
 5002      74757000 
 5003              	.LASF42:
 5004 01e6 54687265 		.ascii	"ThreadsList\000"
 5004      6164734C 
 5004      69737400 
 5005              	.LASF19:
 5006 01f2 6576656E 		.ascii	"eventmask_t\000"
 5006      746D6173 
 5006      6B5F7400 
 5007              	.LASF51:
 5008 01fe 4D757465 		.ascii	"Mutex\000"
 5008      7800
 5009              	.LASF77:
 5010 0204 74657374 		.ascii	"testmbox1\000"
 5010      6D626F78 
 5010      3100
 5011              	.LASF44:
 5012 020e 73746B61 		.ascii	"stkalign_t\000"
 5012      6C69676E 
 5012      5F7400
 5013              	.LASF47:
 5014 0219 73697A65 		.ascii	"sizetype\000"
 5014      74797065 
 5014      00
 5015              	.LASF58:
 5016 0222 6D625F72 		.ascii	"mb_rdptr\000"
 5016      64707472 
 5016      00
 5017              	.LASF88:
 5018 022b 63684D42 		.ascii	"chMBReset\000"
 5018      52657365 
 5018      7400
 5019              	.LASF28:
 5020 0235 705F6F6C 		.ascii	"p_older\000"
 5020      64657200 
ARM GAS  /var/folders/dt/0wfd0knj7gs46m8vwfzktm600000gn/T//cca4GukL.s 			page 91


 5021              	.LASF41:
 5022 023d 54687265 		.ascii	"ThreadsQueue\000"
 5022      61647351 
 5022      75657565 
 5022      00
 5023              	.LASF69:
 5024 024a 73657475 		.ascii	"setup\000"
 5024      7000
 5025              	.LASF85:
 5026 0250 5F746573 		.ascii	"_test_assert_sequence\000"
 5026      745F6173 
 5026      73657274 
 5026      5F736571 
 5026      75656E63 
 5027              	.LASF55:
 5028 0266 6D625F62 		.ascii	"mb_buffer\000"
 5028      75666665 
 5028      7200
 5029              	.LASF89:
 5030 0270 474E5520 		.ascii	"GNU C 4.7.2\000"
 5030      4320342E 
 5030      372E3200 
 5031              	.LASF16:
 5032 027c 74726566 		.ascii	"trefs_t\000"
 5032      735F7400 
 5033              	.LASF24:
 5034 0284 705F7072 		.ascii	"p_prev\000"
 5034      657600
 5035              	.LASF71:
 5036 028b 65786563 		.ascii	"execute\000"
 5036      75746500 
 5037              	.LASF17:
 5038 0293 74707269 		.ascii	"tprio_t\000"
 5038      6F5F7400 
 5039              	.LASF6:
 5040 029b 696E7433 		.ascii	"int32_t\000"
 5040      325F7400 
 5041              	.LASF2:
 5042 02a3 756E7369 		.ascii	"unsigned char\000"
 5042      676E6564 
 5042      20636861 
 5042      7200
 5043              	.LASF52:
 5044 02b1 6D5F7175 		.ascii	"m_queue\000"
 5044      65756500 
 5045              	.LASF56:
 5046 02b9 6D625F74 		.ascii	"mb_top\000"
 5046      6F7000
 5047              	.LASF38:
 5048 02c0 705F6D74 		.ascii	"p_mtxlist\000"
 5048      786C6973 
 5048      7400
 5049              	.LASF3:
 5050 02ca 73686F72 		.ascii	"short int\000"
 5050      7420696E 
 5050      7400
 5051              	.LASF90:
ARM GAS  /var/folders/dt/0wfd0knj7gs46m8vwfzktm600000gn/T//cca4GukL.s 			page 92


 5052 02d4 2E2E2F2E 		.ascii	"../../test/testmbox.c\000"
 5052      2E2F7465 
 5052      73742F74 
 5052      6573746D 
 5052      626F782E 
 5053              	.LASF65:
 5054 02ea 65776D61 		.ascii	"ewmask\000"
 5054      736B00
 5055              	.LASF23:
 5056 02f1 705F6E65 		.ascii	"p_next\000"
 5056      787400
 5057              	.LASF31:
 5058 02f8 705F666C 		.ascii	"p_flags\000"
 5058      61677300 
 5059              	.LASF22:
 5060 0300 54687265 		.ascii	"Thread\000"
 5060      616400
 5061              	.LASF67:
 5062 0307 74657374 		.ascii	"testcase\000"
 5062      63617365 
 5062      00
 5063              	.LASF37:
 5064 0310 705F6570 		.ascii	"p_epending\000"
 5064      656E6469 
 5064      6E6700
 5065              	.LASF8:
 5066 031b 75696E74 		.ascii	"uint32_t\000"
 5066      33325F74 
 5066      00
 5067              	.LASF66:
 5068 0324 63686172 		.ascii	"char\000"
 5068      00
 5069              	.LASF54:
 5070 0329 6D5F6E65 		.ascii	"m_next\000"
 5070      787400
 5071              	.LASF20:
 5072 0330 73797374 		.ascii	"systime_t\000"
 5072      696D655F 
 5072      7400
 5073              	.LASF39:
 5074 033a 705F7265 		.ascii	"p_realprio\000"
 5074      616C7072 
 5074      696F00
 5075              	.LASF72:
 5076 0345 62756666 		.ascii	"buffer\000"
 5076      657200
 5077              	.LASF33:
 5078 034c 705F7469 		.ascii	"p_time\000"
 5078      6D6500
 5079              	.LASF81:
 5080 0353 63684D42 		.ascii	"chMBPostAhead\000"
 5080      506F7374 
 5080      41686561 
 5080      6400
 5081              	.LASF45:
 5082 0361 696E7463 		.ascii	"intctx\000"
 5082      747800
ARM GAS  /var/folders/dt/0wfd0knj7gs46m8vwfzktm600000gn/T//cca4GukL.s 			page 93


 5083              	.LASF35:
 5084 0368 705F6D73 		.ascii	"p_msgqueue\000"
 5084      67717565 
 5084      756500
 5085              	.LASF84:
 5086 0373 63684D42 		.ascii	"chMBFetch\000"
 5086      46657463 
 5086      6800
 5087              	.LASF48:
 5088 037d 53656D61 		.ascii	"Semaphore\000"
 5088      70686F72 
 5088      6500
 5089              	.LASF59:
 5090 0387 6D625F66 		.ascii	"mb_fullsem\000"
 5090      756C6C73 
 5090      656D00
 5091              	.LASF92:
 5092 0392 74657374 		.ascii	"test_buffers\000"
 5092      5F627566 
 5092      66657273 
 5092      00
 5093              	.LASF32:
 5094 039f 705F7265 		.ascii	"p_refs\000"
 5094      667300
 5095              	.LASF5:
 5096 03a6 75696E74 		.ascii	"uint8_t\000"
 5096      385F7400 
 5097              	.LASF64:
 5098 03ae 77746F62 		.ascii	"wtobjp\000"
 5098      6A7000
 5099              	.LASF29:
 5100 03b5 705F6E61 		.ascii	"p_name\000"
 5100      6D6500
 5101              	.LASF79:
 5102 03bc 5F746573 		.ascii	"_test_assert\000"
 5102      745F6173 
 5102      73657274 
 5102      00
 5103              	.LASF53:
 5104 03c9 6D5F6F77 		.ascii	"m_owner\000"
 5104      6E657200 
 5105              	.LASF26:
 5106 03d1 705F6374 		.ascii	"p_ctx\000"
 5106      7800
 5107              	.LASF34:
 5108 03d7 705F7761 		.ascii	"p_waiting\000"
 5108      6974696E 
 5108      6700
 5109              		.ident	"GCC: (GNU) 4.7.2"
ARM GAS  /var/folders/dt/0wfd0knj7gs46m8vwfzktm600000gn/T//cca4GukL.s 			page 94


DEFINED SYMBOLS
                            *ABS*:0000000000000000 testmbox.c
/var/folders/dt/0wfd0knj7gs46m8vwfzktm600000gn/T//cca4GukL.s:19     .text.mbox1_execute:0000000000000000 $t
/var/folders/dt/0wfd0knj7gs46m8vwfzktm600000gn/T//cca4GukL.s:24     .text.mbox1_execute:0000000000000000 mbox1_execute
/var/folders/dt/0wfd0knj7gs46m8vwfzktm600000gn/T//cca4GukL.s:584    .text.mbox1_execute:00000000000002d4 $d
/var/folders/dt/0wfd0knj7gs46m8vwfzktm600000gn/T//cca4GukL.s:592    .text.mbox1_execute:00000000000002dc $t
/var/folders/dt/0wfd0knj7gs46m8vwfzktm600000gn/T//cca4GukL.s:1189   .text.mbox1_execute:0000000000000624 $d
/var/folders/dt/0wfd0knj7gs46m8vwfzktm600000gn/T//cca4GukL.s:1195   .text.mbox1_setup:0000000000000000 $t
/var/folders/dt/0wfd0knj7gs46m8vwfzktm600000gn/T//cca4GukL.s:1200   .text.mbox1_setup:0000000000000000 mbox1_setup
/var/folders/dt/0wfd0knj7gs46m8vwfzktm600000gn/T//cca4GukL.s:1224   .data.mb1:0000000000000000 .LANCHOR0
/var/folders/dt/0wfd0knj7gs46m8vwfzktm600000gn/T//cca4GukL.s:1242   .rodata.patternmbox:0000000000000000 patternmbox
/var/folders/dt/0wfd0knj7gs46m8vwfzktm600000gn/T//cca4GukL.s:1256   .rodata.testmbox1:0000000000000000 testmbox1
/var/folders/dt/0wfd0knj7gs46m8vwfzktm600000gn/T//cca4GukL.s:1223   .data.mb1:0000000000000000 $d
/var/folders/dt/0wfd0knj7gs46m8vwfzktm600000gn/T//cca4GukL.s:1227   .data.mb1:0000000000000000 mb1
/var/folders/dt/0wfd0knj7gs46m8vwfzktm600000gn/T//cca4GukL.s:1239   .rodata.patternmbox:0000000000000000 $d
/var/folders/dt/0wfd0knj7gs46m8vwfzktm600000gn/T//cca4GukL.s:1246   .rodata.str1.4:0000000000000000 $d
/var/folders/dt/0wfd0knj7gs46m8vwfzktm600000gn/T//cca4GukL.s:1253   .rodata.testmbox1:0000000000000000 $d
                     .debug_frame:0000000000000010 $d
/var/folders/dt/0wfd0knj7gs46m8vwfzktm600000gn/T//cca4GukL.s:1194   .text.mbox1_execute:000000000000062c $t

UNDEFINED SYMBOLS
_test_assert
chMBPost
chMBPostAhead
chMBPostI
chMBPostAheadI
test_emit_token
chMBFetch
_test_assert_sequence
chMBFetchI
chMBReset
test
chMBInit
